((lp0
(lp1
I234378
aF40.9084
aF53.0111
aVp1
p2
aS'utopia'
p3
aS'#02304b'
p4
aF11.8479
aI1
aI01
aI00
aI00
aI00
aI00
aI00
aI00
aI00
aa(lp5
I234378
aF79.4142
aF53.0111
aVp1
p6
aS'utopia'
p7
aS'#02304b'
p8
aF11.8479
aI1
aI01
aI00
aI00
aI00
aI00
aI00
aI00
aI00
aa(lp9
I234378
aF46.8324
aF74.4677
aVp1
p10
aS'utopia'
p11
aS'#656565'
p12
aF8.88595
aI0
aI01
aI00
aI00
aI00
aI00
aI00
aI00
aI00
aa(lp13
I123665
aF83.8572
aF74.4677
aVp1
p14
aS'utopia'
p15
aS'#656565'
p16
aF8.88595
aI0
aI01
aI00
aI00
aI00
aI00
aI00
aI00
aI00
aa(lp17
I100815
aF131.249
aF74.4677
aVp1
p18
aS'utopia'
p19
aS'#656565'
p20
aF8.88595
aI0
aI01
aI00
aI00
aI00
aI00
aI00
aI00
aI00
aa(lp21
I169745
aF174.198
aF74.4677
aVp1
p22
aS'utopia'
p23
aS'#656565'
p24
aF8.88595
aI0
aI00
aI00
aI00
aI00
aI00
aI00
aI00
aI00
aa(lp25
I234378
aF193.451
aF74.4677
aVp1
p26
aS'utopia'
p27
aS'#656565'
p28
aF8.88595
aI0
aI00
aI00
aI01
aI00
aI00
aI00
aI00
aI00
aa(lp29
I157052
aF211.963
aF74.4677
aVp1
p30
aS'utopia'
p31
aS'#656565'
p32
aF8.88595
aI0
aI01
aI00
aI00
aI00
aI00
aI00
aI00
aI00
aa(lp33
I234378
aF248.247
aF74.4677
aVp1
p34
aS'utopia'
p35
aS'#656565'
p36
aF8.88595
aI0
aI01
aI00
aI00
aI00
aI00
aI00
aI00
aI00
aa(lp37
I135639
aF265.279
aF74.4677
aVp1
p38
aS'utopia'
p39
aS'#656565'
p40
aF8.88595
aI0
aI00
aI00
aI00
aI00
aI00
aI00
aI00
aI00
aa(lp41
I21716
aF274.905
aF74.4677
aVp1
p42
aS'utopia'
p43
aS'#656565'
p44
aF8.88595
aI0
aI01
aI00
aI00
aI00
aI00
aI00
aI00
aI00
aa(lp45
I234378
aF292.08846666666665
aF74.4677
ag42
aS'utopia'
p46
aS'#656565'
p47
aF8.88595
aI0
aI00
aI00
aI00
aI00
aI00
aI00
aI00
aI00
aa(lp48
I234378
aF296.3843333333333
aF74.4677
ag42
aS'utopia'
p49
aS'#656565'
p50
aF8.88595
aI0
aI01
aI01
aI01
aI00
aI00
aI00
aI00
aI00
aa(lp51
I234378
aF59.4208
aF132.967
aVp1
p52
aS'utopia'
p53
aS'#0d75b4'
p54
aF8.88595
aI0
aI00
aI00
aI00
aI00
aI00
aI01
aI00
aI00
aa(lp55
I234378
aF301.563
aF124.081
aVp1
p56
aS'utopia'
p57
aS'#000000'
p58
aF8.88595
aI0
aI00
aI00
aI01
aI01
aI01
aI00
aI00
aI00
aa(lp59
I15548
aF55.7183
aF176.656
aVp1
p60
aS'utopia'
p61
aS'#878787'
p62
aF8.88595
aI0
aI01
aI00
aI00
aI00
aI00
aI00
aI00
aI00
aa(lp63
I104542
aF89.0407
aF176.656
aVp1
p64
aS'utopia'
p65
aS'#878787'
p66
aF8.88595
aI0
aI01
aI00
aI00
aI00
aI00
aI00
aI00
aI00
aa(lp67
I234378
aF133.94655
aF176.656
ag64
aS'utopia'
p68
aS'#878787'
p69
aF8.88595
aI0
aI00
aI00
aI00
aI00
aI00
aI00
aI00
aI00
aa(lp70
I55966
aF142.356
aF176.656
aVp1
p71
aS'utopia'
p72
aS'#000000'
p73
aF8.88595
aI0
aI01
aI00
aI00
aI00
aI00
aI00
aI00
aI00
aa(lp74
I89147
aF169.755
aF176.656
aVp1
p75
aS'utopia'
p76
aS'#000000'
p77
aF8.88595
aI0
aI01
aI00
aI00
aI00
aI00
aI00
aI00
aI00
aa(lp78
I15548
aF55.7183
aF194.428
aVp1
p79
aS'utopia'
p80
aS'#878787'
p81
aF8.88595
aI0
aI01
aI00
aI00
aI00
aI00
aI00
aI00
aI00
aa(lp82
I2006
aF89.0407
aF194.428
aVp1
p83
aS'utopia'
p84
aS'#878787'
p85
aF8.88595
aI0
aI01
aI00
aI00
aI00
aI00
aI00
aI00
aI00
aa(lp86
I234378
aF124.77815
aF194.428
ag83
aS'utopia'
p87
aS'#878787'
p88
aF8.88595
aI0
aI00
aI00
aI00
aI00
aI00
aI00
aI00
aI00
aa(lp89
I234378
aF134.211
aF194.428
aVp1
p90
aS'utopia'
p91
aS'#000000'
p92
aF8.88595
aI0
aI01
aI01
aI00
aI00
aI00
aI00
aI00
aI00
aa(lp93
I234378
aF154.945
aF194.428
aVp1
p94
aS'utopia'
p95
aS'#000000'
p96
aF8.88595
aI0
aI01
aI00
aI00
aI00
aI00
aI00
aI00
aI00
aa(lp97
I15548
aF55.7183
aF212.2
aVp1
p98
aS'utopia'
p99
aS'#878787'
p100
aF8.88595
aI0
aI01
aI00
aI00
aI00
aI00
aI00
aI00
aI00
aa(lp101
I17057
aF89.0407
aF212.2
aVp1
p102
aS'utopia'
p103
aS'#878787'
p104
aF8.88595
aI0
aI01
aI00
aI00
aI00
aI00
aI00
aI00
aI00
aa(lp105
I234378
aF122.05430000000001
aF212.2
ag102
aS'utopia'
p106
aS'#878787'
p107
aF8.88595
aI0
aI00
aI00
aI00
aI00
aI00
aI00
aI00
aI00
aa(lp108
I234378
aF130.508
aF212.2
aVp1
p109
aS'utopia'
p110
aS'#000000'
p111
aF8.88595
aI0
aI01
aI00
aI00
aI00
aI00
aI00
aI00
aI00
aa(lp112
I234378
aF173.457
aF212.2
aVp1
p113
aS'utopia'
p114
aS'#000000'
p115
aF8.88595
aI0
aI00
aI00
aI00
aI00
aI00
aI00
aI00
aI00
aa(lp116
I234378
aF180.122
aF212.2
aVp1
p117
aS'utopia'
p118
aS'#000000'
p119
aF8.88595
aI0
aI01
aI00
aI00
aI00
aI00
aI00
aI00
aI00
aa(lp120
I234378
aF55.7183
aF229.972
aVp1
p121
aS'utopia'
p122
aS'#878787'
p123
aF8.88595
aI0
aI01
aI00
aI00
aI00
aI00
aI00
aI00
aI00
aa(lp124
I234378
aF70.62062
aF229.972
ag121
aS'utopia'
p125
aS'#878787'
p126
aF8.88595
aI0
aI00
aI00
aI00
aI00
aI00
aI00
aI00
aI00
aa(lp127
I17057
aF76.4522
aF229.972
aVp1
p128
aS'utopia'
p129
aS'#878787'
p130
aF8.88595
aI0
aI01
aI00
aI00
aI00
aI00
aI00
aI00
aI00
aa(lp131
I234378
aF109.4658
aF229.972
ag128
aS'utopia'
p132
aS'#878787'
p133
aF8.88595
aI0
aI00
aI00
aI00
aI00
aI00
aI00
aI00
aI00
aa(lp134
I234378
aF117.92
aF229.972
aVp1
p135
aS'utopia'
p136
aS'#000000'
p137
aF8.88595
aI0
aI01
aI00
aI00
aI00
aI00
aI00
aI00
aI00
aa(lp138
I234378
aF160.869
aF229.972
aVp1
p139
aS'utopia'
p140
aS'#000000'
p141
aF8.88595
aI0
aI00
aI00
aI00
aI00
aI00
aI00
aI00
aI00
aa(lp142
I234378
aF167.533
aF229.972
aVp1
p143
aS'utopia'
p144
aS'#000000'
p145
aF8.88595
aI0
aI01
aI00
aI00
aI00
aI00
aI00
aI00
aI00
aa(lp146
I234378
aF205.62442
aF229.972
ag143
aS'utopia'
p147
aS'#000000'
p148
aF8.88595
aI0
aI00
aI00
aI00
aI00
aI00
aI00
aI00
aI00
aa(lp149
I234378
aF211.963
aF229.972
aVp1
p150
aS'utopia'
p151
aS'#000000'
p152
aF8.88595
aI0
aI01
aI00
aI00
aI00
aI00
aI00
aI00
aI00
aa(lp153
I234378
aF237.45048571428572
aF229.972
ag150
aS'utopia'
p154
aS'#000000'
p155
aF8.88595
aI0
aI00
aI00
aI00
aI00
aI00
aI00
aI00
aI00
aa(lp156
I227337
aF243.804
aF229.972
aVp1
p157
aS'utopia'
p158
aS'#000000'
p159
aF8.88595
aI0
aI01
aI00
aI00
aI00
aI00
aI00
aI00
aI00
aa(lp160
I85540
aF55.7183
aF240.339
aVp1
p161
aS'utopia'
p162
aS'#000000'
p163
aF8.88595
aI0
aI01
aI00
aI00
aI00
aI00
aI00
aI00
aI00
aa(lp164
I234378
aF94.2241
aF240.339
aVp1
p165
aS'utopia'
p166
aS'#000000'
p167
aF8.88595
aI0
aI00
aI00
aI00
aI00
aI00
aI00
aI00
aI00
aa(lp168
I234378
aF98.88255000000001
aF240.339
ag165
aS'utopia'
p169
aS'#000000'
p170
aF8.88595
aI0
aI01
aI01
aI00
aI00
aI00
aI00
aI00
aI00
aa(lp171
I234378
aF108.19945000000001
aF240.339
ag165
aS'utopia'
p172
aS'#000000'
p173
aF8.88595
aI0
aI00
aI00
aI00
aI00
aI00
aI00
aI00
aI00
aa(lp174
I98580
aF55.7183
aF258.111
aVp1
p175
aS'utopia'
p176
aS'#878787'
p177
aF8.88595
aI0
aI01
aI00
aI00
aI00
aI00
aI00
aI00
aI00
aa(lp178
I166289
aF100.148
aF258.111
aVp1
p179
aS'utopia'
p180
aS'#878787'
p181
aF8.88595
aI0
aI01
aI00
aI00
aI00
aI00
aI00
aI00
aI00
aa(lp182
I234378
aF116.82751999999999
aF258.111
ag179
aS'utopia'
p183
aS'#878787'
p184
aF8.88595
aI0
aI00
aI00
aI00
aI00
aI00
aI00
aI00
aI00
aa(lp185
I22476
aF125.325
aF258.111
aVp1
p186
aS'utopia'
p187
aS'#000000'
p188
aF8.88595
aI0
aI01
aI01
aI00
aI00
aI00
aI00
aI00
aI00
aa(lp189
I234378
aF135.692
aF258.111
aVp1
p190
aS'utopia'
p191
aS'#000000'
p192
aF8.88595
aI0
aI01
aI00
aI00
aI00
aI00
aI00
aI00
aI00
aa(lp193
I123665
aF178.641
aF258.111
aVp1
p194
aS'utopia'
p195
aS'#000000'
p196
aF8.88595
aI0
aI01
aI00
aI00
aI00
aI00
aI00
aI00
aI00
aa(lp197
I234378
aF226.032
aF258.111
aVp1
p198
aS'utopia'
p199
aS'#000000'
p200
aF8.88595
aI0
aI01
aI00
aI00
aI00
aI00
aI00
aI00
aI00
aa(lp201
I234378
aF283.051
aF258.111
aVp1
p202
aS'utopia'
p203
aS'#000000'
p204
aF8.88595
aI0
aI00
aI00
aI00
aI00
aI00
aI00
aI00
aI00
aa(lp205
I20593
aF55.7183
aF268.478
aVp1
p206
aS'utopia'
p207
aS'#000000'
p208
aF8.88595
aI0
aI01
aI00
aI00
aI00
aI00
aI00
aI00
aI00
aa(lp209
I176435
aF55.7183
aF286.25
aVp1
p210
aS'utopia'
p211
aS'#878787'
p212
aF8.88595
aI0
aI01
aI00
aI00
aI00
aI00
aI00
aI00
aI00
aa(lp213
I234378
aF71.80542
aF286.25
ag210
aS'utopia'
p214
aS'#878787'
p215
aF8.88595
aI0
aI00
aI00
aI00
aI00
aI00
aI00
aI00
aI00
aa(lp216
I234378
aF80.1547
aF286.25
aVp1
p217
aS'utopia'
p218
aS'#000000'
p219
aF8.88595
aI0
aI01
aI00
aI00
aI00
aI00
aI00
aI00
aI00
aa(lp220
I100815
aF117.18
aF286.25
aVp1
p221
aS'utopia'
p222
aS'#000000'
p223
aF8.88595
aI0
aI01
aI00
aI00
aI00
aI00
aI00
aI00
aI00
aa(lp224
I74589
aF55.7183
aF304.021
aVp1
p225
aS'utopia'
p226
aS'#878787'
p227
aF8.88595
aI0
aI01
aI00
aI00
aI00
aI00
aI00
aI00
aI00
aa(lp228
I234378
aF87.41545555555555
aF304.021
ag225
aS'utopia'
p229
aS'#878787'
p230
aF8.88595
aI0
aI00
aI00
aI00
aI00
aI00
aI00
aI00
aI00
aa(lp231
I22476
aF95.7051
aF304.021
aVp1
p232
aS'utopia'
p233
aS'#000000'
p234
aF8.88595
aI0
aI01
aI01
aI00
aI00
aI00
aI00
aI00
aI00
aa(lp235
I234378
aF105.30374
aF304.021
ag232
aS'utopia'
p236
aS'#000000'
p237
aF8.88595
aI0
aI01
aI00
aI00
aI00
aI00
aI00
aI00
aI00
aa(lp238
I234378
aF139.69830000000002
aF304.021
ag232
aS'utopia'
p239
aS'#000000'
p240
aF8.88595
aI0
aI00
aI00
aI00
aI00
aI00
aI00
aI00
aI00
aa(lp241
I234378
aF134.99762
aF304.021
ag232
aS'utopia'
p242
aS'#000000'
p243
aF8.88595
aI0
aI01
aI00
aI00
aI00
aI00
aI00
aI00
aI00
aa(lp244
I234378
aF183.824
aF304.021
aVp1
p245
aS'utopia'
p246
aS'#000000'
p247
aF8.88595
aI0
aI01
aI00
aI00
aI00
aI00
aI00
aI00
aI00
aa(lp248
I231013
aF55.7183
aF321.793
aVp1
p249
aS'utopia'
p250
aS'#878787'
p251
aF8.88595
aI0
aI01
aI00
aI00
aI00
aI00
aI00
aI00
aI00
aa(lp252
I234378
aF72.7498
aF321.793
aVp1
p253
aS'utopia'
p254
aS'#878787'
p255
aF8.88595
aI0
aI01
aI00
aI00
aI00
aI00
aI00
aI00
aI00
aa(lp256
I234378
aF91.25542857142857
aF321.793
ag253
aS'utopia'
p257
aS'#878787'
p258
aF8.88595
aI0
aI00
aI00
aI00
aI00
aI00
aI00
aI00
aI00
aa(lp259
I21716
aF98.6671
aF321.793
aVp1
p260
aS'utopia'
p261
aS'#000000'
p262
aF8.88595
aI0
aI01
aI00
aI00
aI00
aI00
aI00
aI00
aI00
aa(lp263
I234378
aF113.56942000000001
aF321.793
ag260
aS'utopia'
p264
aS'#000000'
p265
aF8.88595
aI0
aI00
aI00
aI00
aI00
aI00
aI00
aI00
aI00
aa(lp266
I234378
aF119.401
aF321.793
aVp1
p267
aS'utopia'
p268
aS'#000000'
p269
aF8.88595
aI0
aI01
aI01
aI01
aI00
aI00
aI00
aI00
aI00
aa(lp270
I234378
aF135.48811999999998
aF321.793
ag267
aS'utopia'
p271
aS'#000000'
p272
aF8.88595
aI0
aI00
aI00
aI00
aI00
aI00
aI00
aI00
aI00
aa(lp273
I234378
aF141.616
aF321.793
aVp1
p274
aS'utopia'
p275
aS'#000000'
p276
aF8.88595
aI0
aI01
aI01
aI00
aI00
aI00
aI00
aI00
aI00
aa(lp277
I234378
aF160.07272
aF321.793
ag274
aS'utopia'
p278
aS'#000000'
p279
aF8.88595
aI0
aI00
aI00
aI00
aI00
aI00
aI00
aI00
aI00
aa(lp280
I89217
aF166.793
aF321.793
aVp1
p281
aS'utopia'
p282
aS'#000000'
p283
aF8.88595
aI0
aI01
aI01
aI00
aI00
aI00
aI00
aI00
aI00
aa(lp284
I234378
aF189.748
aF321.793
aVp1
p285
aS'utopia'
p286
aS'#000000'
p287
aF8.88595
aI0
aI01
aI00
aI00
aI00
aI00
aI00
aI00
aI00
aa(lp288
I234378
aF236.690225
aF321.793
ag285
aS'utopia'
p289
aS'#000000'
p290
aF8.88595
aI0
aI00
aI00
aI00
aI00
aI00
aI00
aI00
aI00
aa(lp291
I234378
aF243.064
aF321.793
aVp1
p292
aS'utopia'
p293
aS'#000000'
p294
aF8.88595
aI0
aI00
aI00
aI00
aI00
aI00
aI00
aI00
aI00
aa(lp295
I234378
aF261.05558333333335
aF321.793
ag292
aS'utopia'
p296
aS'#000000'
p297
aF8.88595
aI0
aI00
aI00
aI00
aI00
aI00
aI00
aI00
aI00
aa(lp298
I234378
aF266.76
aF321.793
aVp1
p299
aS'utopia'
p300
aS'#000000'
p301
aF8.88595
aI0
aI01
aI01
aI00
aI00
aI00
aI00
aI00
aI00
aa(lp302
I234378
aF280.730925
aF321.793
ag299
aS'utopia'
p303
aS'#000000'
p304
aF8.88595
aI0
aI00
aI00
aI00
aI00
aI00
aI00
aI00
aI00
aa(lp305
I234378
aF55.7183
aF332.16
aVp1
p306
aS'utopia'
p307
aS'#000000'
p308
aF8.88595
aI0
aI01
aI01
aI00
aI00
aI00
aI00
aI00
aI00
aa(lp309
I234378
aF78.32182
aF332.16
ag306
aS'utopia'
p310
aS'#000000'
p311
aF8.88595
aI0
aI00
aI00
aI00
aI00
aI00
aI00
aI00
aI00
aa(lp312
I234378
aF86.0787
aF332.16
aVp1
p313
aS'utopia'
p314
aS'#000000'
p315
aF8.88595
aI0
aI01
aI00
aI00
aI00
aI00
aI00
aI00
aI00
aa(lp316
I234378
aF123.8817
aF332.16
ag313
aS'utopia'
p317
aS'#000000'
p318
aF8.88595
aI0
aI00
aI00
aI00
aI00
aI00
aI00
aI00
aI00
aa(lp319
I234378
aF129.768
aF332.16
aVp1
p320
aS'utopia'
p321
aS'#000000'
p322
aF8.88595
aI0
aI01
aI00
aI00
aI00
aI00
aI00
aI00
aI00
aa(lp323
I234378
aF153.98605714285713
aF332.16
ag320
aS'utopia'
p324
aS'#000000'
p325
aF8.88595
aI0
aI00
aI00
aI00
aI00
aI00
aI00
aI00
aI00
aa(lp326
I44279
aF160.128
aF332.16
aVp1
p327
aS'utopia'
p328
aS'#000000'
p329
aF8.88595
aI0
aI01
aI01
aI00
aI00
aI00
aI00
aI00
aI00
aa(lp330
I234378
aF180.122
aF332.16
aVp1
p331
aS'utopia'
p332
aS'#000000'
p333
aF8.88595
aI0
aI00
aI00
aI00
aI00
aI00
aI00
aI00
aI00
aa(lp334
I234378
aF212.88182
aF332.16
ag331
aS'utopia'
p335
aS'#000000'
p336
aF8.88595
aI0
aI00
aI00
aI00
aI00
aI00
aI00
aI00
aI00
aa(lp337
I234378
aF218.627
aF332.16
aVp1
p338
aS'utopia'
p339
aS'#000000'
p340
aF8.88595
aI0
aI01
aI00
aI00
aI00
aI00
aI00
aI00
aI00
aa(lp341
I234378
aF235.89892
aF332.16
ag338
aS'utopia'
p342
aS'#000000'
p343
aF8.88595
aI0
aI00
aI00
aI00
aI00
aI00
aI00
aI00
aI00
aa(lp344
I77592
aF242.323
aF332.16
aVp1
p345
aS'utopia'
p346
aS'#000000'
p347
aF8.88595
aI0
aI01
aI00
aI00
aI00
aI00
aI00
aI00
aI00
aa(lp348
I234378
aF55.7183
aF342.527
aVp1
p349
aS'utopia'
p350
aS'#000000'
p351
aF8.88595
aI0
aI01
aI00
aI01
aI00
aI00
aI00
aI00
aI00
aa(lp352
I234378
aF88.21606249999999
aF342.527
ag349
aS'utopia'
p353
aS'#000000'
p354
aF8.88595
aI0
aI00
aI00
aI00
aI00
aI00
aI00
aI00
aI00
aa(lp355
I234378
aF94.9646
aF342.527
aVp1
p356
aS'utopia'
p357
aS'#000000'
p358
aF8.88595
aI0
aI01
aI00
aI00
aI00
aI00
aI00
aI00
aI00
aa(lp359
I234378
aF129.29464444444443
aF342.527
ag356
aS'utopia'
p360
aS'#000000'
p361
aF8.88595
aI0
aI00
aI00
aI00
aI00
aI00
aI00
aI00
aI00
aa(lp362
I234378
aF135.692
aF342.527
aVp1
p363
aS'utopia'
p364
aS'#000000'
p365
aF8.88595
aI0
aI01
aI00
aI00
aI00
aI00
aI00
aI00
aI00
aa(lp366
I234378
aF177.78212000000002
aF342.527
ag363
aS'utopia'
p367
aS'#000000'
p368
aF8.88595
aI0
aI00
aI00
aI00
aI00
aI00
aI00
aI00
aI00
aa(lp369
I234378
aF184.565
aF342.527
aVp1
p370
aS'utopia'
p371
aS'#000000'
p372
aF8.88595
aI0
aI01
aI00
aI00
aI00
aI00
aI00
aI00
aI00
aa(lp373
I234378
aF226.40709090909093
aF342.527
ag370
aS'utopia'
p374
aS'#000000'
p375
aF8.88595
aI0
aI00
aI00
aI00
aI00
aI00
aI00
aI00
aI00
aa(lp376
I223319
aF232.697
aF342.527
aVp1
p377
aS'utopia'
p378
aS'#000000'
p379
aF8.88595
aI0
aI01
aI00
aI00
aI00
aI00
aI00
aI00
aI00
aa(lp380
I234378
aF258.715475
aF342.527
ag377
aS'utopia'
p381
aS'#000000'
p382
aF8.88595
aI0
aI00
aI00
aI00
aI00
aI00
aI00
aI00
aI00
aa(lp383
I45445
aF264.538
aF342.527
aVp1
p384
aS'utopia'
p385
aS'#000000'
p386
aF8.88595
aI0
aI01
aI00
aI00
aI00
aI00
aI00
aI00
aI00
aa(lp387
I234378
aF288.7560571428572
aF342.527
ag384
aS'utopia'
p388
aS'#000000'
p389
aF8.88595
aI0
aI00
aI00
aI00
aI00
aI00
aI00
aI00
aI00
aa(lp390
I1257
aF55.7183
aF352.894
aVp1
p391
aS'utopia'
p392
aS'#000000'
p393
aF8.88595
aI0
aI01
aI00
aI00
aI00
aI00
aI00
aI00
aI00
aa(lp394
I234378
aF76.7953
aF352.894
ag391
aS'utopia'
p395
aS'#000000'
p396
aF8.88595
aI0
aI00
aI00
aI00
aI00
aI00
aI00
aI00
aI00
aa(lp397
I234378
aF83.1167
aF352.894
aVp1
p398
aS'utopia'
p399
aS'#000000'
p400
aF8.88595
aI0
aI01
aI01
aI00
aI00
aI00
aI00
aI00
aI00
aa(lp401
I234378
aF99.86449999999999
aF352.894
ag398
aS'utopia'
p402
aS'#000000'
p403
aF8.88595
aI0
aI00
aI00
aI00
aI00
aI00
aI00
aI00
aI00
aa(lp404
I234378
aF107.553
aF352.894
aVp1
p405
aS'utopia'
p406
aS'#000000'
p407
aF8.88595
aI0
aI01
aI00
aI00
aI00
aI00
aI00
aI00
aI00
aa(lp408
I234378
aF141.88304444444444
aF352.894
ag405
aS'utopia'
p409
aS'#000000'
p410
aF8.88595
aI0
aI00
aI00
aI00
aI00
aI00
aI00
aI00
aI00
aa(lp411
I234378
aF148.28
aF352.894
aVp1
p412
aS'utopia'
p413
aS'#000000'
p414
aF8.88595
aI0
aI01
aI00
aI00
aI00
aI00
aI00
aI00
aI00
aa(lp415
I234378
aF172.44241666666667
aF352.894
ag412
aS'utopia'
p416
aS'#000000'
p417
aF8.88595
aI0
aI00
aI00
aI00
aI00
aI00
aI00
aI00
aI00
aa(lp418
I234378
aF179.381
aF352.894
aVp1
p419
aS'utopia'
p420
aS'#000000'
p421
aF8.88595
aI0
aI01
aI00
aI00
aI00
aI00
aI00
aI00
aI00
aa(lp422
I234378
aF208.67668571428572
aF352.894
ag419
aS'utopia'
p423
aS'#000000'
p424
aF8.88595
aI0
aI00
aI00
aI00
aI00
aI00
aI00
aI00
aI00
aa(lp425
I234378
aF215.665
aF352.894
aVp1
p426
aS'utopia'
p427
aS'#000000'
p428
aF8.88595
aI0
aI01
aI00
aI00
aI00
aI00
aI00
aI00
aI00
aa(lp429
I234378
aF244.2751375
aF352.894
ag426
aS'utopia'
p430
aS'#000000'
p431
aF8.88595
aI0
aI00
aI00
aI00
aI00
aI00
aI00
aI00
aI00
aa(lp432
I216162
aF250.469
aF352.894
aVp1
p433
aS'utopia'
p434
aS'#000000'
p435
aF8.88595
aI0
aI01
aI00
aI00
aI00
aI00
aI00
aI00
aI00
aa(lp436
I234378
aF55.7183
aF363.261
aVp1
p437
aS'utopia'
p438
aS'#000000'
p439
aF8.88595
aI0
aI01
aI00
aI00
aI00
aI00
aI00
aI00
aI00
aa(lp440
I51933
aF40.1679
aF400.304
aVp1
p441
aS'utopia'
p442
aS'#02304b'
p443
aF11.8479
aI1
aI01
aI00
aI00
aI00
aI00
aI00
aI00
aI00
aa(lp444
I60220
aF72.0093
aF400.304
aVp1
p445
aS'utopia'
p446
aS'#02304b'
p447
aF11.8479
aI1
aI01
aI00
aI00
aI00
aI00
aI00
aI00
aI00
aa(lp448
I234378
aF40.9084
aF432.021
aVp1
p449
aS'utopia'
p450
aS'#000000'
p451
aF10.3669
aI1
aI01
aI01
aI00
aI00
aI00
aI00
aI00
aI00
aa(lp452
I234378
aF64.6043
aF432.021
aVp1
p453
aS'utopia'
p454
aS'#000000'
p455
aF10.3669
aI1
aI01
aI00
aI00
aI00
aI00
aI00
aI00
aI00
aa(lp456
I234378
aF129.768
aF432.29
aVp1
p457
aS'utopia'
p458
aS'#656565'
p459
aF10.3669
aI0
aI00
aI00
aI00
aI00
aI00
aI00
aI00
aI00
aa(lp460
I15548
aF134.745425
aF432.29
ag457
aS'utopia'
p461
aS'#656565'
p462
aF10.3669
aI0
aI01
aI00
aI00
aI00
aI00
aI00
aI00
aI00
aa(lp463
I70289
aF171.976
aF432.29
aVp1
p464
aS'utopia'
p465
aS'#656565'
p466
aF10.3669
aI0
aI01
aI00
aI00
aI00
aI00
aI00
aI00
aI00
aa(lp467
I234378
aF215.32497777777778
aF432.29
ag464
aS'utopia'
p468
aS'#656565'
p469
aF10.3669
aI0
aI00
aI00
aI00
aI00
aI00
aI00
aI00
aI00
aa(lp470
I55966
aF40.9084
aF448.581
aVp1
p471
aS'utopia'
p472
aS'#656565'
p473
aF10.3669
aI0
aI01
aI00
aI00
aI00
aI00
aI00
aI00
aI00
aa(lp474
I89147
aF73.4902
aF448.581
aVp1
p475
aS'utopia'
p476
aS'#656565'
p477
aF10.3669
aI0
aI01
aI00
aI00
aI00
aI00
aI00
aI00
aI00
aa(lp478
I234378
aF132.73
aF448.581
aVp1
p479
aS'utopia'
p480
aS'#656565'
p481
aF10.3669
aI0
aI01
aI00
aI00
aI00
aI00
aI00
aI00
aI01
aa(lp482
I234378
aF154.204
aF448.581
aVp1
p483
aS'utopia'
p484
aS'#656565'
p485
aF10.3669
aI0
aI00
aI00
aI01
aI01
aI01
aI00
aI00
aI00
aa(lp486
I16331
aF40.9084
aF468.411
aVp1
p487
aS'utopia'
p488
aS'#656565'
p489
aF8.88595
aI0
aI01
aI00
aI00
aI00
aI00
aI00
aI00
aI00
aa(lp490
I166593
aF52.7564
aF468.411
aVp1
p491
aS'utopia'
p492
aS'#656565'
p493
aF8.88595
aI0
aI00
aI00
aI00
aI00
aI00
aI00
aI00
aI00
aa(lp494
I55966
aF59.4208
aF468.411
aVp1
p495
aS'utopia'
p496
aS'#656565'
p497
aF8.88595
aI0
aI01
aI00
aI00
aI00
aI00
aI00
aI00
aI00
aa(lp498
I89147
aF86.8192
aF468.411
aVp1
p499
aS'utopia'
p500
aS'#656565'
p501
aF8.88595
aI0
aI01
aI00
aI00
aI00
aI00
aI00
aI00
aI00
aa(lp502
I22474
aF131.989
aF468.411
aVp1
p503
aS'utopia'
p504
aS'#656565'
p505
aF8.88595
aI0
aI00
aI00
aI00
aI00
aI00
aI00
aI00
aI00
aa(lp506
I90127
aF140.135
aF468.411
aVp1
p507
aS'utopia'
p508
aS'#656565'
p509
aF8.88595
aI0
aI00
aI00
aI00
aI00
aI00
aI00
aI00
aI00
aa(lp510
I190806
aF187.527
aF468.411
aVp1
p511
aS'utopia'
p512
aS'#656565'
p513
aF8.88595
aI0
aI00
aI00
aI00
aI00
aI00
aI00
aI00
aI00
aa(lp514
I194354
aF201.596
aF468.411
aVp1
p515
aS'utopia'
p516
aS'#656565'
p517
aF8.88595
aI0
aI00
aI00
aI00
aI00
aI00
aI00
aI00
aI00
aa(lp518
I68032
aF216.406
aF468.411
aVp1
p519
aS'utopia'
p520
aS'#656565'
p521
aF8.88595
aI0
aI00
aI00
aI00
aI00
aI00
aI00
aI00
aI00
aa(lp522
I144489
aF270.462
aF468.411
aVp1
p523
aS'utopia'
p524
aS'#656565'
p525
aF8.88595
aI0
aI00
aI00
aI00
aI00
aI00
aI00
aI00
aI00
aa(lp526
I234378
aF280.829
aF468.411
aVp1
p527
aS'utopia'
p528
aS'#656565'
p529
aF8.88595
aI0
aI00
aI00
aI00
aI00
aI00
aI00
aI00
aI00
aa(lp530
I234378
aF316.373
aF468.411
aVp1
p531
aS'utopia'
p532
aS'#656565'
p533
aF8.88595
aI0
aI00
aI00
aI00
aI00
aI00
aI00
aI00
aI00
aa(lp534
I190806
aF349.695
aF468.411
aVp1
p535
aS'utopia'
p536
aS'#656565'
p537
aF8.88595
aI0
aI00
aI00
aI00
aI00
aI00
aI00
aI00
aI00
aa(lp538
I194354
aF363.765
aF468.411
aVp1
p539
aS'utopia'
p540
aS'#656565'
p541
aF8.88595
aI0
aI00
aI00
aI00
aI00
aI00
aI00
aI00
aI00
aa(lp542
I137949
aF378.575
aF468.411
aVp1
p543
aS'utopia'
p544
aS'#656565'
p545
aF8.88595
aI0
aI01
aI00
aI00
aI00
aI00
aI00
aI00
aI00
aa(lp546
I221858
aF399.308
aF468.411
aVp1
p547
aS'utopia'
p548
aS'#656565'
p549
aF8.88595
aI0
aI01
aI00
aI00
aI00
aI00
aI00
aI00
aI00
aa(lp550
I144489
aF437.074
aF468.411
aVp1
p551
aS'utopia'
p552
aS'#656565'
p553
aF8.88595
aI0
aI00
aI00
aI00
aI00
aI00
aI00
aI00
aI00
aa(lp554
I194354
aF447.441
aF468.411
aVp1
p555
aS'utopia'
p556
aS'#656565'
p557
aF8.88595
aI0
aI00
aI00
aI00
aI00
aI00
aI00
aI00
aI00
aa(lp558
I234378
aF462.251
aF468.411
aVp1
p559
aS'utopia'
p560
aS'#656565'
p561
aF8.88595
aI0
aI01
aI00
aI00
aI00
aI00
aI00
aI00
aI00
aa(lp562
I17350
aF489.649
aF468.411
aVp1
p563
aS'utopia'
p564
aS'#656565'
p565
aF8.88595
aI0
aI00
aI00
aI00
aI00
aI00
aI00
aI00
aI00
aa(lp566
I123665
aF508.161
aF468.411
aVp1
p567
aS'utopia'
p568
aS'#656565'
p569
aF8.88595
aI0
aI00
aI00
aI00
aI00
aI00
aI00
aI00
aI00
aa(lp570
I234378
aF40.9084
aF478.778
aVp1
p571
aS'utopia'
p572
aS'#656565'
p573
aF8.88595
aI0
aI00
aI00
aI00
aI00
aI00
aI00
aI00
aI00
aa(lp574
I84662
aF63.8638
aF478.778
aVp1
p575
aS'utopia'
p576
aS'#656565'
p577
aF8.88595
aI0
aI01
aI00
aI00
aI00
aI00
aI00
aI00
aI00
aa(lp578
I21716
aF85.3382
aF478.778
aVp1
p579
aS'utopia'
p580
aS'#656565'
p581
aF8.88595
aI0
aI01
aI00
aI00
aI00
aI00
aI00
aI00
aI00
aa(lp582
I234378
aF100.78672
aF478.778
ag579
aS'utopia'
p583
aS'#656565'
p584
aF8.88595
aI0
aI00
aI00
aI00
aI00
aI00
aI00
aI00
aI00
aa(lp585
I234378
aF104.64885
aF478.778
ag579
aS'utopia'
p586
aS'#656565'
p587
aF8.88595
aI0
aI01
aI01
aI01
aI00
aI00
aI00
aI00
aI00
aa(lp588
I234378
aF115.09737
aF478.778
ag579
aS'utopia'
p589
aS'#656565'
p590
aF8.88595
aI0
aI00
aI00
aI00
aI00
aI00
aI00
aI00
aI00
aa(lp591
I234378
aF126.065
aF478.778
aVp1
p592
aS'utopia'
p593
aS'#656565'
p594
aF8.88595
aI0
aI01
aI01
aI00
aI00
aI00
aI00
aI00
aI00
aa(lp595
I234378
aF137.25905
aF478.778
ag592
aS'utopia'
p596
aS'#656565'
p597
aF8.88595
aI0
aI00
aI00
aI00
aI00
aI00
aI00
aI00
aI00
aa(lp598
I234378
aF143.097
aF478.778
aVp1
p599
aS'utopia'
p600
aS'#656565'
p601
aF8.88595
aI0
aI01
aI01
aI00
aI00
aI00
aI00
aI00
aI00
aa(lp602
I234378
aF162.62980000000002
aF478.778
ag599
aS'utopia'
p603
aS'#656565'
p604
aF8.88595
aI0
aI00
aI00
aI00
aI00
aI00
aI00
aI00
aI00
aa(lp605
I234378
aF167.513
aF478.778
ag599
aS'utopia'
p606
aS'#656565'
p607
aF8.88595
aI0
aI01
aI01
aI00
aI00
aI00
aI00
aI00
aI00
aa(lp608
I234378
aF184.565
aF478.778
aVp1
p609
aS'utopia'
p610
aS'#656565'
p611
aF8.88595
aI0
aI00
aI00
aI00
aI00
aI00
aI00
aI00
aI00
aa(lp612
I85218
aF215.665
aF478.778
aVp1
p613
aS'utopia'
p614
aS'#656565'
p615
aF8.88595
aI0
aI00
aI00
aI00
aI00
aI00
aI00
aI00
aI00
aa(lp616
I89217
aF232.697
aF478.778
aVp1
p617
aS'utopia'
p618
aS'#656565'
p619
aF8.88595
aI0
aI01
aI01
aI00
aI00
aI00
aI00
aI00
aI00
aa(lp620
I234378
aF255.652
aF478.778
aVp1
p621
aS'utopia'
p622
aS'#656565'
p623
aF8.88595
aI0
aI01
aI01
aI00
aI00
aI00
aI00
aI00
aI00
aa(lp624
I144483
aF271.943
aF478.778
aVp1
p625
aS'utopia'
p626
aS'#656565'
p627
aF8.88595
aI0
aI00
aI00
aI00
aI00
aI00
aI00
aI00
aI00
aa(lp628
I127135
aF284.532
aF478.778
aVp1
p629
aS'utopia'
p630
aS'#656565'
p631
aF8.88595
aI0
aI01
aI00
aI00
aI00
aI00
aI00
aI00
aI00
aa(lp632
I234378
aF310.449
aF478.778
aVp1
p633
aS'utopia'
p634
aS'#656565'
p635
aF8.88595
aI0
aI00
aI00
aI00
aI00
aI00
aI00
aI00
aI00
aa(lp636
I216162
aF333.404
aF478.778
aVp1
p637
aS'utopia'
p638
aS'#656565'
p639
aF8.88595
aI0
aI01
aI00
aI00
aI00
aI00
aI00
aI00
aI00
aa(lp640
I234378
aF368.948
aF478.778
aVp1
p641
aS'utopia'
p642
aS'#656565'
p643
aF8.88595
aI0
aI01
aI00
aI00
aI00
aI00
aI00
aI00
aI00
aa(lp644
I234378
aF412.1364545454545
aF478.778
ag641
aS'utopia'
p645
aS'#656565'
p646
aF8.88595
aI0
aI00
aI00
aI00
aI00
aI00
aI00
aI00
aI00
aa(lp647
I60534
aF418.561
aF478.778
aVp1
p648
aS'utopia'
p649
aS'#656565'
p650
aF8.88595
aI0
aI01
aI00
aI00
aI00
aI00
aI00
aI00
aI00
aa(lp651
I209115
aF437.814
aF478.778
aVp1
p652
aS'utopia'
p653
aS'#656565'
p654
aF8.88595
aI0
aI00
aI00
aI00
aI00
aI00
aI00
aI00
aI00
aa(lp655
I105322
aF454.846
aF478.778
aVp1
p656
aS'utopia'
p657
aS'#656565'
p658
aF8.88595
aI0
aI00
aI00
aI00
aI00
aI00
aI00
aI00
aI00
aa(lp659
I135639
aF490.389
aF478.778
aVp1
p660
aS'utopia'
p661
aS'#656565'
p662
aF8.88595
aI0
aI00
aI00
aI00
aI00
aI00
aI00
aI00
aI00
aa(lp663
I234378
aF500.016
aF478.778
aVp1
p664
aS'utopia'
p665
aS'#656565'
p666
aF8.88595
aI0
aI00
aI00
aI00
aI00
aI00
aI00
aI00
aI00
aa(lp667
I234378
aF40.9084
aF489.145
aVp1
p668
aS'utopia'
p669
aS'#656565'
p670
aF8.88595
aI0
aI01
aI01
aI00
aI00
aI00
aI00
aI00
aI00
aa(lp671
I234378
aF60.1613
aF489.145
aVp1
p672
aS'utopia'
p673
aS'#656565'
p674
aF8.88595
aI0
aI01
aI00
aI00
aI00
aI00
aI00
aI00
aI00
aa(lp675
I234378
aF93.4836
aF489.145
aVp1
p676
aS'utopia'
p677
aS'#656565'
p678
aF8.88595
aI0
aI00
aI00
aI00
aI00
aI00
aI00
aI00
aI00
aa(lp679
I234378
aF116.439
aF489.145
aVp1
p680
aS'utopia'
p681
aS'#656565'
p682
aF8.88595
aI0
aI01
aI00
aI00
aI00
aI00
aI00
aI00
aI00
aa(lp683
I234378
aF133.19641666666666
aF489.145
ag680
aS'utopia'
p684
aS'#656565'
p685
aF8.88595
aI0
aI00
aI00
aI00
aI00
aI00
aI00
aI00
aI00
aa(lp686
I48671
aF40.9084
aF499.512
aVp1
p687
aS'utopia'
p688
aS'#656565'
p689
aF8.88595
aI0
aI01
aI00
aI00
aI00
aI00
aI00
aI00
aI00
aa(lp690
I129688
aF69.0473
aF499.512
aVp1
p691
aS'utopia'
p692
aS'#656565'
p693
aF8.88595
aI0
aI01
aI00
aI00
aI00
aI00
aI00
aI00
aI00
aa(lp694
I234378
aF97.1861
aF499.512
aVp1
p695
aS'utopia'
p696
aS'#656565'
p697
aF8.88595
aI0
aI00
aI00
aI00
aI00
aI00
aI00
aI00
aI00
aa(lp698
I230771
aF101.629
aF499.512
aVp1
p699
aS'utopia'
p700
aS'#656565'
p701
aF8.88595
aI0
aI01
aI00
aI00
aI00
aI00
aI00
aI00
aI00
aa(lp702
I48671
aF132.73
aF499.512
aVp1
p703
aS'utopia'
p704
aS'#656565'
p705
aF8.88595
aI0
aI01
aI00
aI00
aI00
aI00
aI00
aI00
aI00
aa(lp706
I129688
aF160.869
aF499.512
aVp1
p707
aS'utopia'
p708
aS'#656565'
p709
aF8.88595
aI0
aI01
aI00
aI00
aI00
aI00
aI00
aI00
aI00
aa(lp710
I234378
aF40.9084
aF532.728
aVp1
p711
aS'utopia'
p712
aS'#000000'
p713
aF10.3669
aI1
aI01
aI00
aI00
aI00
aI00
aI00
aI00
aI00
aa(lp714
I234378
aF92.0026
aF532.728
aVp1
p715
aS'utopia'
p716
aS'#000000'
p717
aF10.3669
aI1
aI01
aI00
aI00
aI00
aI00
aI00
aI00
aI00
aa(lp718
I83140
aF132.73
aF532.728
aVp1
p719
aS'utopia'
p720
aS'#000000'
p721
aF10.3669
aI1
aI01
aI00
aI00
aI00
aI00
aI00
aI00
aI00
aa(lp722
I40036
aF169.014
aF532.728
aVp1
p723
aS'utopia'
p724
aS'#000000'
p725
aF10.3669
aI1
aI01
aI00
aI00
aI00
aI00
aI00
aI00
aI00
aa(lp726
I55966
aF40.9084
aF549.288
aVp1
p727
aS'utopia'
p728
aS'#656565'
p729
aF10.3669
aI0
aI01
aI00
aI00
aI00
aI00
aI00
aI00
aI00
aa(lp730
I234378
aF73.4902
aF549.288
aVp1
p731
aS'utopia'
p732
aS'#656565'
p733
aF10.3669
aI0
aI01
aI00
aI00
aI00
aI00
aI00
aI00
aI00
aa(lp734
I132100
aF116.439
aF549.288
aVp1
p735
aS'utopia'
p736
aS'#656565'
p737
aF10.3669
aI0
aI01
aI00
aI00
aI00
aI00
aI00
aI00
aI00
aa(lp738
I37515
aF164.571
aF549.288
aVp1
p739
aS'utopia'
p740
aS'#656565'
p741
aF10.3669
aI0
aI01
aI00
aI00
aI00
aI00
aI00
aI00
aI01
aa(lp742
I234378
aF186.786
aF549.288
aVp1
p743
aS'utopia'
p744
aS'#656565'
p745
aF10.3669
aI0
aI00
aI00
aI01
aI01
aI01
aI00
aI00
aI00
aa(lp746
I89480
aF209.741
aF549.288
aVp1
p747
aS'utopia'
p748
aS'#656565'
p749
aF10.3669
aI0
aI01
aI00
aI00
aI00
aI00
aI00
aI00
aI00
aa(lp750
I234378
aF224.551
aF549.288
aVp1
p751
aS'utopia'
p752
aS'#656565'
p753
aF10.3669
aI0
aI01
aI00
aI00
aI00
aI00
aI00
aI00
aI01
aa(lp754
I234378
aF239.361
aF549.288
aVp1
p755
aS'utopia'
p756
aS'#656565'
p757
aF10.3669
aI0
aI00
aI00
aI01
aI01
aI01
aI00
aI00
aI00
aa(lp758
I68032
aF40.9084
aF569.119
aVp1
p759
aS'utopia'
p760
aS'#656565'
p761
aF8.88595
aI0
aI01
aI00
aI00
aI00
aI00
aI00
aI00
aI00
aa(lp762
I85218
aF96.4456
aF569.119
aVp1
p763
aS'utopia'
p764
aS'#656565'
p765
aF8.88595
aI0
aI00
aI00
aI00
aI00
aI00
aI00
aI00
aI00
aa(lp766
I20593
aF113.477
aF569.119
aVp1
p767
aS'utopia'
p768
aS'#656565'
p769
aF8.88595
aI0
aI00
aI00
aI00
aI00
aI00
aI00
aI00
aI00
aa(lp770
I144489
aF166.793
aF569.119
aVp1
p771
aS'utopia'
p772
aS'#656565'
p773
aF8.88595
aI0
aI00
aI00
aI00
aI00
aI00
aI00
aI00
aI00
aa(lp774
I194354
aF177.16
aF569.119
aVp1
p775
aS'utopia'
p776
aS'#656565'
p777
aF8.88595
aI0
aI00
aI00
aI00
aI00
aI00
aI00
aI00
aI00
aa(lp778
I177958
aF191.97
aF569.119
aVp1
p779
aS'utopia'
p780
aS'#656565'
p781
aF8.88595
aI0
aI00
aI00
aI00
aI00
aI00
aI00
aI00
aI00
aa(lp782
I234378
aF222.33
aF569.119
aVp1
p783
aS'utopia'
p784
aS'#656565'
p785
aF8.88595
aI0
aI00
aI00
aI00
aI00
aI00
aI00
aI00
aI00
aa(lp786
I234378
aF258.614
aF569.119
aVp1
p787
aS'utopia'
p788
aS'#656565'
p789
aF8.88595
aI0
aI00
aI00
aI00
aI00
aI00
aI00
aI00
aI00
aa(lp790
I21716
aF281.57
aF569.119
aVp1
p791
aS'utopia'
p792
aS'#656565'
p793
aF8.88595
aI0
aI01
aI00
aI00
aI00
aI00
aI00
aI00
aI00
aa(lp794
I234378
aF298.75346666666667
aF569.119
ag791
aS'utopia'
p795
aS'#656565'
p796
aF8.88595
aI0
aI00
aI00
aI00
aI00
aI00
aI00
aI00
aI00
aa(lp797
I234378
aF303.0493333333333
aF569.119
ag791
aS'utopia'
p798
aS'#656565'
p799
aF8.88595
aI0
aI01
aI01
aI01
aI00
aI00
aI00
aI00
aI00
aa(lp800
I85218
aF322.297
aF569.119
aVp1
p801
aS'utopia'
p802
aS'#656565'
p803
aF8.88595
aI0
aI00
aI00
aI00
aI00
aI00
aI00
aI00
aI00
aa(lp804
I45445
aF339.328
aF569.119
aVp1
p805
aS'utopia'
p806
aS'#656565'
p807
aF8.88595
aI0
aI01
aI00
aI00
aI00
aI00
aI00
aI00
aI00
aa(lp808
I234378
aF363.54605714285714
aF569.119
ag805
aS'utopia'
p809
aS'#656565'
p810
aF8.88595
aI0
aI00
aI00
aI00
aI00
aI00
aI00
aI00
aI00
aa(lp811
I234378
aF369.689
aF569.119
aVp1
p812
aS'utopia'
p813
aS'#656565'
p814
aF8.88595
aI0
aI01
aI00
aI00
aI00
aI00
aI00
aI00
aI00
aa(lp815
I234378
aF408.935
aF569.119
aVp1
p816
aS'utopia'
p817
aS'#656565'
p818
aF8.88595
aI0
aI00
aI00
aI00
aI00
aI00
aI00
aI00
aI00
aa(lp819
I85218
aF430.409
aF569.119
aVp1
p820
aS'utopia'
p821
aS'#656565'
p822
aF8.88595
aI0
aI00
aI00
aI00
aI00
aI00
aI00
aI00
aI00
aa(lp823
I234378
aF447.441
aF569.119
aVp1
p824
aS'utopia'
p825
aS'#656565'
p826
aF8.88595
aI0
aI00
aI00
aI00
aI00
aI00
aI00
aI00
aI00
aa(lp827
I194354
aF494.092
aF569.119
aVp1
p828
aS'utopia'
p829
aS'#656565'
p830
aF8.88595
aI0
aI00
aI00
aI00
aI00
aI00
aI00
aI00
aI00
aa(lp831
I182890
aF40.9084
aF579.486
aVp1
p832
aS'utopia'
p833
aS'#656565'
p834
aF8.88595
aI0
aI00
aI00
aI00
aI00
aI00
aI00
aI00
aI00
aa(lp835
I234378
aF90.5217
aF579.486
aVp1
p836
aS'utopia'
p837
aS'#656565'
p838
aF8.88595
aI0
aI00
aI00
aI00
aI00
aI00
aI00
aI00
aI00
aa(lp839
I85218
aF131.249
aF579.486
aVp1
p840
aS'utopia'
p841
aS'#656565'
p842
aF8.88595
aI0
aI00
aI00
aI00
aI00
aI00
aI00
aI00
aI00
aa(lp843
I234378
aF148.28
aF579.486
aVp1
p844
aS'utopia'
p845
aS'#656565'
p846
aF8.88595
aI0
aI00
aI00
aI00
aI00
aI00
aI00
aI00
aI00
aa(lp847
I228446
aF191.97
aF579.486
aVp1
p848
aS'utopia'
p849
aS'#656565'
p850
aF8.88595
aI0
aI00
aI00
aI00
aI00
aI00
aI00
aI00
aI00
aa(lp851
I135639
aF214.925
aF579.486
aVp1
p852
aS'utopia'
p853
aS'#656565'
p854
aF8.88595
aI0
aI00
aI00
aI00
aI00
aI00
aI00
aI00
aI00
aa(lp855
I234378
aF224.551
aF579.486
aVp1
p856
aS'utopia'
p857
aS'#656565'
p858
aF8.88595
aI0
aI00
aI00
aI00
aI00
aI00
aI00
aI00
aI00
aa(lp859
I218852
aF271.943
aF579.486
aVp1
p860
aS'utopia'
p861
aS'#656565'
p862
aF8.88595
aI0
aI00
aI00
aI00
aI00
aI00
aI00
aI00
aI00
aa(lp863
I227799
aF292.677
aF579.486
aVp1
p864
aS'utopia'
p865
aS'#656565'
p866
aF8.88595
aI0
aI00
aI00
aI00
aI00
aI00
aI00
aI00
aI00
aa(lp867
I234378
aF313.411
aF579.486
aVp1
p868
aS'utopia'
p869
aS'#656565'
p870
aF8.88595
aI0
aI00
aI00
aI00
aI00
aI00
aI00
aI00
aI00
aa(lp871
I16334
aF334.885
aF579.486
aVp1
p872
aS'utopia'
p873
aS'#656565'
p874
aF8.88595
aI0
aI00
aI00
aI00
aI00
aI00
aI00
aI00
aI00
aa(lp875
I166593
aF344.512
aF579.486
aVp1
p876
aS'utopia'
p877
aS'#656565'
p878
aF8.88595
aI0
aI00
aI00
aI00
aI00
aI00
aI00
aI00
aI00
aa(lp879
I181635
aF351.176
aF579.486
aVp1
p880
aS'utopia'
p881
aS'#656565'
p882
aF8.88595
aI0
aI00
aI00
aI00
aI00
aI00
aI00
aI00
aI00
aa(lp883
I234378
aF367.85552
aF579.486
ag880
aS'utopia'
p884
aS'#656565'
p885
aF8.88595
aI0
aI00
aI00
aI00
aI00
aI00
aI00
aI00
aI00
aa(lp886
I29852
aF40.9084
aF612.702
aVp1
p887
aS'utopia'
p888
aS'#000000'
p889
aF10.3669
aI1
aI01
aI00
aI00
aI00
aI00
aI00
aI00
aI00
aa(lp890
I234378
aF76.4522
aF612.702
aVp1
p891
aS'utopia'
p892
aS'#000000'
p893
aF10.3669
aI1
aI01
aI00
aI00
aI00
aI00
aI00
aI00
aI00
aa(lp894
I223363
aF121.622
aF612.702
aVp1
p895
aS'utopia'
p896
aS'#000000'
p897
aF10.3669
aI1
aI01
aI00
aI00
aI00
aI00
aI00
aI00
aI00
aa(lp898
I89147
aF40.9084
aF629.262
aVp1
p899
aS'utopia'
p900
aS'#656565'
p901
aF10.3669
aI0
aI01
aI00
aI00
aI00
aI00
aI00
aI00
aI00
aa(lp902
I27216
aF100.148
aF629.262
aVp1
p903
aS'utopia'
p904
aS'#656565'
p905
aF10.3669
aI0
aI01
aI00
aI00
aI00
aI00
aI00
aI00
aI01
aa(lp906
I234378
aF118.66
aF629.262
aVp1
p907
aS'utopia'
p908
aS'#656565'
p909
aF10.3669
aI0
aI00
aI00
aI01
aI01
aI01
aI00
aI00
aI00
aa(lp910
I89480
aF141.616
aF629.262
aVp1
p911
aS'utopia'
p912
aS'#656565'
p913
aF10.3669
aI0
aI01
aI00
aI00
aI00
aI00
aI00
aI00
aI00
aa(lp914
I37515
aF156.426
aF629.262
aVp1
p915
aS'utopia'
p916
aS'#656565'
p917
aF10.3669
aI0
aI01
aI00
aI00
aI00
aI00
aI00
aI00
aI01
aa(lp918
I234378
aF178.641
aF629.262
aVp1
p919
aS'utopia'
p920
aS'#656565'
p921
aF10.3669
aI0
aI00
aI00
aI01
aI01
aI01
aI00
aI00
aI00
aa(lp922
I68032
aF40.9084
aF649.092
aVp1
p923
aS'utopia'
p924
aS'#656565'
p925
aF8.88595
aI0
aI01
aI00
aI00
aI00
aI00
aI00
aI00
aI00
aa(lp926
I20593
aF104.591
aF649.092
aVp1
p927
aS'utopia'
p928
aS'#656565'
p929
aF8.88595
aI0
aI00
aI00
aI00
aI00
aI00
aI00
aI00
aI00
aa(lp930
I144489
aF157.907
aF649.092
aVp1
p931
aS'utopia'
p932
aS'#656565'
p933
aF8.88595
aI0
aI00
aI00
aI00
aI00
aI00
aI00
aI00
aI00
aa(lp934
I194354
aF168.274
aF649.092
aVp1
p935
aS'utopia'
p936
aS'#656565'
p937
aF8.88595
aI0
aI00
aI00
aI00
aI00
aI00
aI00
aI00
aI00
aa(lp938
I177958
aF183.084
aF649.092
aVp1
p939
aS'utopia'
p940
aS'#656565'
p941
aF8.88595
aI0
aI00
aI00
aI00
aI00
aI00
aI00
aI00
aI00
aa(lp942
I234378
aF213.444
aF649.092
aVp1
p943
aS'utopia'
p944
aS'#656565'
p945
aF8.88595
aI0
aI00
aI00
aI00
aI00
aI00
aI00
aI00
aI00
aa(lp946
I234378
aF249.728
aF649.092
aVp1
p947
aS'utopia'
p948
aS'#656565'
p949
aF8.88595
aI0
aI00
aI00
aI00
aI00
aI00
aI00
aI00
aI00
aa(lp950
I21716
aF272.684
aF649.092
aVp1
p951
aS'utopia'
p952
aS'#656565'
p953
aF8.88595
aI0
aI01
aI00
aI00
aI00
aI00
aI00
aI00
aI00
aa(lp954
I234378
aF288.88013333333333
aF649.092
ag951
aS'utopia'
p955
aS'#656565'
p956
aF8.88595
aI0
aI00
aI00
aI00
aI00
aI00
aI00
aI00
aI00
aa(lp957
I234378
aF292.9291666666667
aF649.092
ag951
aS'utopia'
p958
aS'#656565'
p959
aF8.88595
aI0
aI01
aI01
aI01
aI00
aI00
aI00
aI00
aI00
aa(lp960
I85218
aF311.189
aF649.092
aVp1
p961
aS'utopia'
p962
aS'#656565'
p963
aF8.88595
aI0
aI00
aI00
aI00
aI00
aI00
aI00
aI00
aI00
aa(lp964
I45445
aF328.221
aF649.092
aVp1
p965
aS'utopia'
p966
aS'#656565'
p967
aF8.88595
aI0
aI01
aI00
aI00
aI00
aI00
aI00
aI00
aI00
aa(lp968
I234378
aF352.43905714285717
aF649.092
ag965
aS'utopia'
p969
aS'#656565'
p970
aF8.88595
aI0
aI00
aI00
aI00
aI00
aI00
aI00
aI00
aI00
aa(lp971
I89347
aF40.9084
aF682.308
aVp1
p972
aS'utopia'
p973
aS'#000000'
p974
aF10.3669
aI1
aI01
aI00
aI00
aI00
aI00
aI00
aI00
aI00
aa(lp975
I234378
aF88.3002
aF682.308
aVp1
p976
aS'utopia'
p977
aS'#000000'
p978
aF10.3669
aI1
aI01
aI00
aI00
aI00
aI00
aI00
aI00
aI00
aa(lp979
I85218
aF133.47
aF682.308
aVp1
p980
aS'utopia'
p981
aS'#000000'
p982
aF10.3669
aI1
aI00
aI00
aI00
aI00
aI00
aI00
aI00
aI00
aa(lp983
I234378
aF154.204
aF682.308
aVp1
p984
aS'utopia'
p985
aS'#000000'
p986
aF10.3669
aI1
aI01
aI00
aI00
aI00
aI00
aI00
aI00
aI00
aa(lp987
I234378
aF40.9084
aF698.869
aVp1
p988
aS'utopia'
p989
aS'#656565'
p990
aF10.3669
aI0
aI01
aI00
aI00
aI00
aI00
aI00
aI00
aI00
aa(lp991
I150037
aF83.8572
aF698.869
aVp1
p992
aS'utopia'
p993
aS'#656565'
p994
aF10.3669
aI0
aI01
aI00
aI00
aI00
aI00
aI00
aI00
aI00
aa(lp995
I21716
aF138.79786666666666
aF698.869
ag992
aS'utopia'
p996
aS'#656565'
p997
aF10.3669
aI0
aI01
aI00
aI00
aI00
aI00
aI00
aI00
aI00
aa(lp998
I43052
aF166.793
aF698.869
aVp1
p999
aS'utopia'
p1000
aS'#656565'
p1001
aF10.3669
aI0
aI01
aI00
aI00
aI00
aI00
aI00
aI00
aI00
aa(lp1002
I234378
aF228.994
aF698.869
aVp1
p1003
aS'utopia'
p1004
aS'#656565'
p1005
aF10.3669
aI0
aI01
aI00
aI00
aI00
aI00
aI00
aI00
aI01
aa(lp1006
I234378
aF248.247
aF698.869
aVp1
p1007
aS'utopia'
p1008
aS'#656565'
p1009
aF10.3669
aI0
aI00
aI00
aI01
aI01
aI01
aI00
aI00
aI00
aa(lp1010
I89480
aF271.203
aF698.869
aVp1
p1011
aS'utopia'
p1012
aS'#656565'
p1013
aF10.3669
aI0
aI01
aI00
aI00
aI00
aI00
aI00
aI00
aI00
aa(lp1014
I27216
aF286.013
aF698.869
aVp1
p1015
aS'utopia'
p1016
aS'#656565'
p1017
aF10.3669
aI0
aI01
aI00
aI00
aI00
aI00
aI00
aI00
aI01
aa(lp1018
I234378
aF304.525
aF698.869
aVp1
p1019
aS'utopia'
p1020
aS'#656565'
p1021
aF10.3669
aI0
aI00
aI00
aI01
aI01
aI01
aI00
aI00
aI00
aa(lp1022
I68032
aF40.9084
aF718.699
aVp1
p1023
aS'utopia'
p1024
aS'#656565'
p1025
aF8.88595
aI0
aI01
aI00
aI00
aI00
aI00
aI00
aI00
aI00
aa(lp1026
I20593
aF104.591
aF718.699
aVp1
p1027
aS'utopia'
p1028
aS'#656565'
p1029
aF8.88595
aI0
aI00
aI00
aI00
aI00
aI00
aI00
aI00
aI00
aa(lp1030
I144489
aF157.907
aF718.699
aVp1
p1031
aS'utopia'
p1032
aS'#656565'
p1033
aF8.88595
aI0
aI00
aI00
aI00
aI00
aI00
aI00
aI00
aI00
aa(lp1034
I194354
aF168.274
aF718.699
aVp1
p1035
aS'utopia'
p1036
aS'#656565'
p1037
aF8.88595
aI0
aI00
aI00
aI00
aI00
aI00
aI00
aI00
aI00
aa(lp1038
I177958
aF183.084
aF718.699
aVp1
p1039
aS'utopia'
p1040
aS'#656565'
p1041
aF8.88595
aI0
aI00
aI00
aI00
aI00
aI00
aI00
aI00
aI00
aa(lp1042
I234378
aF213.444
aF718.699
aVp1
p1043
aS'utopia'
p1044
aS'#656565'
p1045
aF8.88595
aI0
aI00
aI00
aI00
aI00
aI00
aI00
aI00
aI00
aa(lp1046
I234378
aF249.728
aF718.699
aVp1
p1047
aS'utopia'
p1048
aS'#656565'
p1049
aF8.88595
aI0
aI00
aI00
aI00
aI00
aI00
aI00
aI00
aI00
aa(lp1050
I21716
aF272.684
aF718.699
aVp1
p1051
aS'utopia'
p1052
aS'#656565'
p1053
aF8.88595
aI0
aI01
aI00
aI00
aI00
aI00
aI00
aI00
aI00
aa(lp1054
I234378
aF289.2479
aF718.699
ag1051
aS'utopia'
p1055
aS'#656565'
p1056
aF8.88595
aI0
aI00
aI00
aI00
aI00
aI00
aI00
aI00
aI00
aa(lp1057
I234378
aF293.38887500000004
aF718.699
ag1051
aS'utopia'
p1058
aS'#656565'
p1059
aF8.88595
aI0
aI01
aI00
aI00
aI00
aI00
aI00
aI00
aI00
aa(lp1060
I234378
aF336.36252500000006
aF718.699
ag1051
aS'utopia'
p1061
aS'#656565'
p1062
aF8.88595
aI0
aI00
aI00
aI00
aI00
aI00
aI00
aI00
aI00
aa(lp1063
I234378
aF355.5035000000001
aF718.699
ag1051
aS'utopia'
p1064
aS'#656565'
p1065
aF8.88595
aI0
aI01
aI01
aI01
aI00
aI00
aI00
aI00
aI00
aa(lp1066
I85218
aF374.132
aF718.699
aVp1
p1067
aS'utopia'
p1068
aS'#656565'
p1069
aF8.88595
aI0
aI00
aI00
aI00
aI00
aI00
aI00
aI00
aI00
aa(lp1070
I234378
aF391.163
aF718.699
aVp1
p1071
aS'utopia'
p1072
aS'#656565'
p1073
aF8.88595
aI0
aI01
aI01
aI00
aI00
aI00
aI00
aI00
aI00
aa(lp1074
I234378
aF405.13392500000003
aF718.699
ag1071
aS'utopia'
p1075
aS'#656565'
p1076
aF8.88595
aI0
aI00
aI00
aI00
aI00
aI00
aI00
aI00
aI00
aa(lp1077
I234378
aF40.9084
aF751.915
aVp1
p1078
aS'utopia'
p1079
aS'#000000'
p1080
aF10.3669
aI1
aI01
aI00
aI00
aI00
aI00
aI00
aI00
aI00
aa(lp1081
I234378
aF40.9084
aF768.475
aVp1
p1082
aS'utopia'
p1083
aS'#656565'
p1084
aF10.3669
aI0
aI01
aI00
aI00
aI00
aI00
aI00
aI00
aI00
aa(lp1085
I132100
aF83.8572
aF768.475
aVp1
p1086
aS'utopia'
p1087
aS'#656565'
p1088
aF10.3669
aI0
aI01
aI00
aI00
aI00
aI00
aI00
aI00
aI00
aa(lp1089
I234378
aF131.989
aF768.475
aVp1
p1090
aS'utopia'
p1091
aS'#656565'
p1092
aF10.3669
aI0
aI01
aI00
aI00
aI00
aI00
aI00
aI00
aI01
aa(lp1093
I234378
aF152.723
aF768.475
aVp1
p1094
aS'utopia'
p1095
aS'#656565'
p1096
aF10.3669
aI0
aI00
aI00
aI01
aI01
aI01
aI00
aI00
aI00
aa(lp1097
I89480
aF175.679
aF768.475
aVp1
p1098
aS'utopia'
p1099
aS'#656565'
p1100
aF10.3669
aI0
aI01
aI00
aI00
aI00
aI00
aI00
aI00
aI00
aa(lp1101
I37510
aF190.489
aF768.475
aVp1
p1102
aS'utopia'
p1103
aS'#656565'
p1104
aF10.3669
aI0
aI01
aI00
aI00
aI00
aI00
aI00
aI00
aI01
aa(lp1105
I234378
aF211.222
aF768.475
aVp1
p1106
aS'utopia'
p1107
aS'#656565'
p1108
aF10.3669
aI0
aI00
aI00
aI01
aI01
aI01
aI00
aI00
aI00
aa(lp1109
I68032
aF40.9084
aF788.306
aVp1
p1110
aS'utopia'
p1111
aS'#656565'
p1112
aF8.88595
aI0
aI01
aI00
aI00
aI00
aI00
aI00
aI00
aI00
aa(lp1113
I144489
aF96.4456
aF788.306
aVp1
p1114
aS'utopia'
p1115
aS'#656565'
p1116
aF8.88595
aI0
aI00
aI00
aI00
aI00
aI00
aI00
aI00
aI00
aa(lp1117
I80364
aF106.813
aF788.306
aVp1
p1118
aS'utopia'
p1119
aS'#656565'
p1120
aF8.88595
aI0
aI00
aI00
aI00
aI00
aI00
aI00
aI00
aI00
aa(lp1121
I234378
aF125.325
aF788.306
aVp1
p1122
aS'utopia'
p1123
aS'#656565'
p1124
aF8.88595
aI0
aI00
aI00
aI00
aI00
aI00
aI00
aI00
aI00
aa(lp1125
I85218
aF159.388
aF788.306
aVp1
p1126
aS'utopia'
p1127
aS'#656565'
p1128
aF8.88595
aI0
aI00
aI00
aI00
aI00
aI00
aI00
aI00
aI00
aa(lp1129
I234378
aF176.419
aF788.306
aVp1
p1130
aS'utopia'
p1131
aS'#656565'
p1132
aF8.88595
aI0
aI00
aI00
aI00
aI00
aI00
aI00
aI00
aI00
aa(lp1133
I144489
aF231.956
aF788.306
aVp1
p1134
aS'utopia'
p1135
aS'#656565'
p1136
aF8.88595
aI0
aI00
aI00
aI00
aI00
aI00
aI00
aI00
aI00
aa(lp1137
I194354
aF242.323
aF788.306
aVp1
p1138
aS'utopia'
p1139
aS'#656565'
p1140
aF8.88595
aI0
aI00
aI00
aI00
aI00
aI00
aI00
aI00
aI00
aa(lp1141
I234378
aF257.133
aF788.306
aVp1
p1142
aS'utopia'
p1143
aS'#656565'
p1144
aF8.88595
aI0
aI00
aI00
aI00
aI00
aI00
aI00
aI00
aI00
aa(lp1145
I63022
aF288.975
aF788.306
aVp1
p1146
aS'utopia'
p1147
aS'#656565'
p1148
aF8.88595
aI0
aI00
aI00
aI00
aI00
aI00
aI00
aI00
aI00
aa(lp1149
I234378
aF323.037
aF788.306
aVp1
p1150
aS'utopia'
p1151
aS'#656565'
p1152
aF8.88595
aI0
aI00
aI00
aI00
aI00
aI00
aI00
aI00
aI00
aa(lp1153
I21716
aF345.993
aF788.306
aVp1
p1154
aS'utopia'
p1155
aS'#656565'
p1156
aF8.88595
aI0
aI01
aI00
aI00
aI00
aI00
aI00
aI00
aI00
aa(lp1157
I234378
aF362.1891333333333
aF788.306
ag1154
aS'utopia'
p1158
aS'#656565'
p1159
aF8.88595
aI0
aI00
aI00
aI00
aI00
aI00
aI00
aI00
aI00
aa(lp1160
I234378
aF366.23816666666664
aF788.306
ag1154
aS'utopia'
p1161
aS'#656565'
p1162
aF8.88595
aI0
aI01
aI01
aI01
aI00
aI00
aI00
aI00
aI00
aa(lp1163
I124531
aF40.1679
aF38.9417
aVp2
p1164
aS'utopia'
p1165
aS'#02304b'
p1166
aF11.8479
aI1
aI01
aI00
aI00
aI00
aI00
aI00
aI00
aI00
aa(lp1167
I209062
aF40.9084
aF67.2256
aVp2
p1168
aS'utopia'
p1169
aS'#656565'
p1170
aF10.3669
aI0
aI01
aI00
aI00
aI00
aI00
aI00
aI00
aI00
aa(lp1171
I234378
aF63.1233
aF67.2256
aVp2
p1172
aS'utopia'
p1173
aS'#656565'
p1174
aF10.3669
aI0
aI01
aI00
aI00
aI00
aI00
aI00
aI00
aI00
aa(lp1175
I234378
aF111.996
aF67.2256
aVp2
p1176
aS'utopia'
p1177
aS'#656565'
p1178
aF10.3669
aI0
aI00
aI00
aI00
aI00
aI00
aI00
aI00
aI00
aa(lp1179
I60201
aF117.92
aF67.2256
aVp2
p1180
aS'utopia'
p1181
aS'#656565'
p1182
aF10.3669
aI0
aI01
aI00
aI00
aI00
aI00
aI00
aI00
aI00
aa(lp1183
I230071
aF137.913
aF67.2256
aVp2
p1184
aS'utopia'
p1185
aS'#656565'
p1186
aF10.3669
aI0
aI01
aI00
aI00
aI00
aI00
aI00
aI00
aI00
aa(lp1187
I234378
aF164.571
aF67.2256
aVp2
p1188
aS'utopia'
p1189
aS'#656565'
p1190
aF10.3669
aI0
aI00
aI00
aI00
aI00
aI00
aI00
aI00
aI00
aa(lp1191
I234378
aF40.9084
aF83.247
aVp2
p1192
aS'utopia'
p1193
aS'#000000'
p1194
aF10.3669
aI1
aI01
aI01
aI00
aI00
aI00
aI00
aI00
aI00
aa(lp1195
I234378
aF66.8258
aF83.247
aVp2
p1196
aS'utopia'
p1197
aS'#000000'
p1198
aF10.3669
aI1
aI00
aI00
aI00
aI00
aI00
aI00
aI00
aI00
aa(lp1199
I234378
aF72.41775454545454
aF83.247
ag1196
aS'utopia'
p1200
aS'#000000'
p1201
aF10.3669
aI1
aI01
aI00
aI00
aI00
aI00
aI00
aI00
aI00
aa(lp1202
I234378
aF122.74534545454544
aF83.247
ag1196
aS'utopia'
p1203
aS'#000000'
p1204
aF10.3669
aI1
aI00
aI00
aI00
aI00
aI00
aI00
aI00
aI00
aa(lp1205
I234378
aF40.9084
aF103.51
aVp2
p1206
aS'utopia'
p1207
aS'#656565'
p1208
aF10.3669
aI0
aI01
aI00
aI00
aI00
aI00
aI00
aI00
aI00
aa(lp1209
I153079
aF101.629
aF103.51
aVp2
p1210
aS'utopia'
p1211
aS'#656565'
p1212
aF10.3669
aI0
aI01
aI00
aI00
aI00
aI00
aI00
aI00
aI00
aa(lp1213
I234378
aF150.6002
aF103.51
ag1210
aS'utopia'
p1214
aS'#656565'
p1215
aF10.3669
aI0
aI00
aI00
aI00
aI00
aI00
aI00
aI00
aI00
aa(lp1216
I234378
aF155.49732
aF103.51
ag1210
aS'utopia'
p1217
aS'#656565'
p1218
aF10.3669
aI0
aI01
aI00
aI00
aI00
aI00
aI00
aI00
aI00
aa(lp1219
I135639
aF206.039
aF103.51
aVp2
p1220
aS'utopia'
p1221
aS'#656565'
p1222
aF10.3669
aI0
aI00
aI00
aI00
aI00
aI00
aI00
aI00
aI00
aa(lp1223
I234378
aF217.887
aF103.51
aVp2
p1224
aS'utopia'
p1225
aS'#656565'
p1226
aF10.3669
aI0
aI00
aI00
aI01
aI01
aI01
aI00
aI00
aI00
aa(lp1227
I234378
aF40.9084
aF131.649
aVp2
p1228
aS'utopia'
p1229
aS'#656565'
p1230
aF10.3669
aI0
aI01
aI00
aI00
aI00
aI00
aI00
aI00
aI00
aa(lp1231
I234378
aF117.18
aF131.649
aVp2
p1232
aS'utopia'
p1233
aS'#656565'
p1234
aF10.3669
aI0
aI00
aI00
aI00
aI00
aI00
aI00
aI00
aI00
aa(lp1235
I60201
aF123.103
aF131.649
aVp2
p1236
aS'utopia'
p1237
aS'#656565'
p1238
aF10.3669
aI0
aI01
aI00
aI00
aI00
aI00
aI00
aI00
aI00
aa(lp1239
I230071
aF143.097
aF131.649
aVp2
p1240
aS'utopia'
p1241
aS'#656565'
p1242
aF10.3669
aI0
aI01
aI00
aI00
aI00
aI00
aI00
aI00
aI00
aa(lp1243
I234378
aF169.755
aF131.649
aVp2
p1244
aS'utopia'
p1245
aS'#656565'
p1246
aF10.3669
aI0
aI00
aI00
aI00
aI00
aI00
aI00
aI00
aI00
aa(lp1247
I27780
aF40.9084
aF147.67
aVp2
p1248
aS'utopia'
p1249
aS'#000000'
p1250
aF10.3669
aI1
aI01
aI01
aI00
aI00
aI00
aI00
aI00
aI00
aa(lp1251
I234378
aF46.251075
aF147.67
ag1248
aS'utopia'
p1252
aS'#000000'
p1253
aF10.3669
aI1
aI00
aI00
aI00
aI00
aI00
aI00
aI00
aI00
aa(lp1254
I234378
aF51.59375
aF147.67
ag1248
aS'utopia'
p1255
aS'#000000'
p1256
aF10.3669
aI1
aI01
aI00
aI00
aI00
aI00
aI00
aI00
aI00
aa(lp1257
I234378
aF64.6043
aF147.67
aVp2
p1258
aS'utopia'
p1259
aS'#000000'
p1260
aF10.3669
aI1
aI00
aI00
aI00
aI00
aI00
aI00
aI00
aI00
aa(lp1261
I234378
aF70.19625454545454
aF147.67
ag1258
aS'utopia'
p1262
aS'#000000'
p1263
aF10.3669
aI1
aI01
aI00
aI00
aI00
aI00
aI00
aI00
aI00
aa(lp1264
I234378
aF120.52384545454544
aF147.67
ag1258
aS'utopia'
p1265
aS'#000000'
p1266
aF10.3669
aI1
aI00
aI00
aI00
aI00
aI00
aI00
aI00
aI00
aa(lp1267
I25813
aF40.9084
aF167.933
aVp2
p1268
aS'utopia'
p1269
aS'#656565'
p1270
aF10.3669
aI0
aI01
aI00
aI00
aI00
aI00
aI00
aI00
aI00
aa(lp1271
I153079
aF61.6423
aF167.933
aVp2
p1272
aS'utopia'
p1273
aS'#656565'
p1274
aF10.3669
aI0
aI01
aI00
aI00
aI00
aI00
aI00
aI00
aI00
aa(lp1275
I135639
aF116.439
aF167.933
aVp2
p1276
aS'utopia'
p1277
aS'#656565'
p1278
aF10.3669
aI0
aI00
aI00
aI00
aI00
aI00
aI00
aI00
aI00
aa(lp1279
I234378
aF128.287
aF167.933
aVp2
p1280
aS'utopia'
p1281
aS'#656565'
p1282
aF10.3669
aI0
aI00
aI00
aI01
aI01
aI01
aI00
aI00
aI00
aa(lp1283
I234378
aF40.1679
aF201.851
aVp2
p1284
aS'utopia'
p1285
aS'#02304b'
p1286
aF11.8479
aI1
aI01
aI00
aI00
aI00
aI00
aI00
aI00
aI00
aa(lp1287
I84662
aF40.9084
aF230.135
aVp2
p1288
aS'utopia'
p1289
aS'#656565'
p1290
aF10.3669
aI0
aI01
aI00
aI00
aI00
aI00
aI00
aI00
aI00
aa(lp1291
I21716
aF65.3448
aF230.135
aVp2
p1292
aS'utopia'
p1293
aS'#656565'
p1294
aF10.3669
aI0
aI01
aI00
aI00
aI00
aI00
aI00
aI00
aI00
aa(lp1295
I135639
aF86.8192
aF230.135
aVp2
p1296
aS'utopia'
p1297
aS'#656565'
p1298
aF10.3669
aI0
aI00
aI00
aI00
aI00
aI00
aI00
aI00
aI00
aa(lp1299
I234378
aF98.6671
aF230.135
aVp2
p1300
aS'utopia'
p1301
aS'#656565'
p1302
aF10.3669
aI0
aI01
aI01
aI00
aI00
aI00
aI00
aI00
aI00
aa(lp1303
I234378
aF119.29634444444444
aF230.135
ag1300
aS'utopia'
p1304
aS'#656565'
p1305
aF10.3669
aI0
aI00
aI00
aI00
aI00
aI00
aI00
aI00
aI00
aa(lp1306
I25813
aF124.45365555555556
aF230.135
ag1300
aS'utopia'
p1307
aS'#656565'
p1308
aF10.3669
aI0
aI01
aI00
aI00
aI00
aI00
aI00
aI00
aI00
aa(lp1309
I234378
aF139.92558888888888
aF230.135
ag1300
aS'utopia'
p1310
aS'#656565'
p1311
aF10.3669
aI0
aI00
aI00
aI00
aI00
aI00
aI00
aI00
aI00
aa(lp1312
I114315
aF40.9084
aF261.976
aVp2
p1313
aS'utopia'
p1314
aS'#656565'
p1315
aF10.3669
aI0
aI01
aI00
aI00
aI00
aI00
aI00
aI00
aI00
aa(lp1316
I21716
aF89.0407
aF261.976
aVp2
p1317
aS'utopia'
p1318
aS'#656565'
p1319
aF10.3669
aI0
aI01
aI00
aI00
aI00
aI00
aI00
aI00
aI00
aa(lp1320
I74066
aF110.515
aF261.976
aVp2
p1321
aS'utopia'
p1322
aS'#656565'
p1323
aF10.3669
aI0
aI01
aI00
aI00
aI00
aI00
aI00
aI00
aI00
aa(lp1324
I135639
aF145.318
aF261.976
aVp2
p1325
aS'utopia'
p1326
aS'#656565'
p1327
aF10.3669
aI0
aI00
aI00
aI00
aI00
aI00
aI00
aI00
aI00
aa(lp1328
I113091
aF157.166
aF261.976
aVp2
p1329
aS'utopia'
p1330
aS'#656565'
p1331
aF10.3669
aI0
aI01
aI01
aI00
aI00
aI00
aI00
aI00
aI00
aa(lp1332
I234378
aF180.21936
aF261.976
ag1329
aS'utopia'
p1333
aS'#656565'
p1334
aF10.3669
aI0
aI01
aI01
aI00
aI00
aI00
aI00
aI00
aI00
aa(lp1335
I234378
aF207.78606
aF261.976
ag1329
aS'utopia'
p1336
aS'#656565'
p1337
aF10.3669
aI0
aI00
aI00
aI00
aI00
aI00
aI00
aI00
aI00
aa(lp1338
I25813
aF213.2994
aF261.976
ag1329
aS'utopia'
p1339
aS'#656565'
p1340
aF10.3669
aI0
aI01
aI00
aI00
aI00
aI00
aI00
aI00
aI00
aa(lp1341
I234378
aF229.83942
aF261.976
ag1329
aS'utopia'
p1342
aS'#656565'
p1343
aF10.3669
aI0
aI00
aI00
aI00
aI00
aI00
aI00
aI00
aI00
aa(lp1344
I234378
aF40.9084
aF293.817
aVp2
p1345
aS'utopia'
p1346
aS'#656565'
p1347
aF10.3669
aI0
aI01
aI01
aI00
aI00
aI00
aI00
aI00
aI00
aa(lp1348
I234378
aF54.867914285714285
aF293.817
ag1345
aS'utopia'
p1349
aS'#656565'
p1350
aF10.3669
aI0
aI00
aI00
aI00
aI00
aI00
aI00
aI00
aI00
aa(lp1351
I234378
aF59.52108571428571
aF293.817
ag1345
aS'utopia'
p1352
aS'#656565'
p1353
aF10.3669
aI0
aI01
aI00
aI00
aI00
aI00
aI00
aI00
aI00
aa(lp1354
I234378
aF80.44011428571429
aF293.817
ag1345
aS'utopia'
p1355
aS'#656565'
p1356
aF10.3669
aI0
aI00
aI00
aI00
aI00
aI00
aI00
aI00
aI00
aa(lp1357
I234378
aF92.09328571428571
aF293.817
ag1345
aS'utopia'
p1358
aS'#656565'
p1359
aF10.3669
aI0
aI01
aI01
aI00
aI00
aI00
aI00
aI00
aI00
aa(lp1360
I135639
aF108.294
aF293.817
aVp2
p1361
aS'utopia'
p1362
aS'#656565'
p1363
aF10.3669
aI0
aI00
aI00
aI00
aI00
aI00
aI00
aI00
aI00
aa(lp1364
I181092
aF120.141
aF293.817
aVp2
p1365
aS'utopia'
p1366
aS'#656565'
p1367
aF10.3669
aI0
aI01
aI00
aI00
aI00
aI00
aI00
aI00
aI00
aa(lp1368
I234378
aF153.6147
aF293.817
ag1365
aS'utopia'
p1369
aS'#656565'
p1370
aF10.3669
aI0
aI00
aI00
aI00
aI00
aI00
aI00
aI00
aI00
aa(lp1371
I234378
aF159.19365
aF293.817
ag1365
aS'utopia'
p1372
aS'#656565'
p1373
aF10.3669
aI0
aI01
aI00
aI00
aI00
aI00
aI00
aI00
aI00
aa(lp1374
I234378
aF188.08839999999998
aF293.817
ag1365
aS'utopia'
p1375
aS'#656565'
p1376
aF10.3669
aI0
aI01
aI00
aI00
aI00
aI00
aI00
aI00
aI00
aa(lp1377
I234378
aF221.5621
aF293.817
ag1365
aS'utopia'
p1378
aS'#656565'
p1379
aF10.3669
aI0
aI00
aI00
aI00
aI00
aI00
aI00
aI00
aI00
aa(lp1380
I22476
aF40.1679
aF331.438
aVp2
p1381
aS'utopia'
p1382
aS'#02304b'
p1383
aF11.8479
aI1
aI01
aI01
aI00
aI00
aI00
aI00
aI00
aI00
aa(lp1384
I234378
aF54.2374
aF331.438
aVp2
p1385
aS'utopia'
p1386
aS'#02304b'
p1387
aF11.8479
aI1
aI01
aI00
aI00
aI00
aI00
aI00
aI00
aI00
aa(lp1388
I109610
aF48.3134
aF359.328
aVp2
p1389
aS'utopia'
p1390
aS'#000000'
p1391
aF8.88595
aI1
aI01
aI00
aI00
aI00
aI00
aI00
aI00
aI00
aa(lp1392
I158577
aF69.7878
aF359.328
aVp2
p1393
aS'utopia'
p1394
aS'#000000'
p1395
aF8.88595
aI1
aI01
aI00
aI00
aI00
aI00
aI00
aI00
aI00
aa(lp1396
I194179
aF188.267
aF359.328
aVp2
p1397
aS'utopia'
p1398
aS'#000000'
p1399
aF8.88595
aI1
aI01
aI00
aI00
aI00
aI00
aI00
aI00
aI00
aa(lp1400
I177981
aF305.265
aF359.328
aVp2
p1401
aS'utopia'
p1402
aS'#000000'
p1403
aF8.88595
aI1
aI01
aI00
aI00
aI00
aI00
aI00
aI00
aI00
aa(lp1404
I25729
aF324.518
aF359.328
aVp2
p1405
aS'utopia'
p1406
aS'#000000'
p1407
aF8.88595
aI1
aI01
aI00
aI00
aI00
aI00
aI00
aI00
aI00
aa(lp1408
I60220
aF412.637
aF359.328
aVp2
p1409
aS'utopia'
p1410
aS'#000000'
p1411
aF8.88595
aI1
aI01
aI00
aI00
aI00
aI00
aI00
aI00
aI00
aa(lp1412
I234378
aF48.3134
aF378.071
aVp2
p1413
aS'utopia'
p1414
aS'#656565'
p1415
aF8.88595
aI0
aI01
aI01
aI00
aI00
aI00
aI00
aI00
aI00
aa(lp1416
I234378
aF317.113
aF378.071
aVp2
p1417
aS'utopia'
p1418
aS'#656565'
p1419
aF8.88595
aI0
aI00
aI00
aI01
aI01
aI01
aI00
aI00
aI00
aa(lp1420
I234378
aF422.264
aF378.071
aVp2
p1421
aS'utopia'
p1422
aS'#656565'
p1423
aF8.88595
aI0
aI00
aI00
aI01
aI01
aI00
aI00
aI00
aI00
aa(lp1424
I234378
aF428.928
aF378.071
aVp2
p1425
aS'utopia'
p1426
aS'#656565'
p1427
aF8.88595
aI0
aI01
aI00
aI00
aI00
aI00
aI00
aI00
aI00
aa(lp1428
I234378
aF48.3134
aF396.583
aVp2
p1429
aS'utopia'
p1430
aS'#656565'
p1431
aF8.88595
aI0
aI01
aI01
aI00
aI00
aI00
aI00
aI00
aI00
aa(lp1432
I234378
aF317.113
aF396.583
aVp2
p1433
aS'utopia'
p1434
aS'#656565'
p1435
aF8.88595
aI0
aI00
aI00
aI01
aI01
aI01
aI00
aI00
aI00
aa(lp1436
I234378
aF422.264
aF396.583
aVp2
p1437
aS'utopia'
p1438
aS'#656565'
p1439
aF8.88595
aI0
aI00
aI00
aI01
aI01
aI00
aI00
aI00
aI00
aa(lp1440
I234378
aF428.928
aF396.583
aVp2
p1441
aS'utopia'
p1442
aS'#656565'
p1443
aF8.88595
aI0
aI01
aI00
aI00
aI00
aI00
aI00
aI00
aI00
aa(lp1444
I234378
aF48.3134
aF415.096
aVp2
p1445
aS'utopia'
p1446
aS'#656565'
p1447
aF8.88595
aI0
aI01
aI01
aI00
aI00
aI00
aI00
aI00
aI00
aa(lp1448
I234378
aF317.113
aF415.096
aVp2
p1449
aS'utopia'
p1450
aS'#656565'
p1451
aF8.88595
aI0
aI00
aI00
aI01
aI01
aI01
aI00
aI00
aI00
aa(lp1452
I234378
aF422.264
aF415.096
aVp2
p1453
aS'utopia'
p1454
aS'#656565'
p1455
aF8.88595
aI0
aI00
aI00
aI01
aI01
aI00
aI00
aI00
aI00
aa(lp1456
I234378
aF428.928
aF415.096
aVp2
p1457
aS'utopia'
p1458
aS'#656565'
p1459
aF8.88595
aI0
aI01
aI00
aI00
aI00
aI00
aI00
aI00
aI00
aa(lp1460
I234378
aF48.3134
aF433.608
aVp2
p1461
aS'utopia'
p1462
aS'#656565'
p1463
aF8.88595
aI0
aI01
aI01
aI01
aI00
aI00
aI00
aI00
aI00
aa(lp1464
I234378
aF317.113
aF433.608
aVp2
p1465
aS'utopia'
p1466
aS'#656565'
p1467
aF8.88595
aI0
aI00
aI00
aI01
aI01
aI01
aI00
aI00
aI00
aa(lp1468
I234378
aF422.264
aF433.608
aVp2
p1469
aS'utopia'
p1470
aS'#656565'
p1471
aF8.88595
aI0
aI00
aI00
aI01
aI01
aI00
aI00
aI00
aI00
aa(lp1472
I234378
aF428.928
aF433.608
aVp2
p1473
aS'utopia'
p1474
aS'#656565'
p1475
aF8.88595
aI0
aI01
aI00
aI00
aI00
aI00
aI00
aI00
aI00
aa(lp1476
I234378
aF48.3134
aF452.121
aVp2
p1477
aS'utopia'
p1478
aS'#656565'
p1479
aF8.88595
aI0
aI01
aI00
aI00
aI00
aI00
aI00
aI00
aI00
aa(lp1480
I234378
aF188.267
aF452.121
aVp2
p1481
aS'utopia'
p1482
aS'#656565'
p1483
aF8.88595
aI0
aI00
aI00
aI01
aI01
aI00
aI00
aI00
aI00
aa(lp1484
I234378
aF192.0465
aF452.121
ag1481
aS'utopia'
p1485
aS'#656565'
p1486
aF8.88595
aI0
aI00
aI00
aI00
aI00
aI00
aI00
aI00
aI00
aa(lp1487
I234378
aF195.82600000000002
aF452.121
ag1481
aS'utopia'
p1488
aS'#656565'
p1489
aF8.88595
aI0
aI00
aI00
aI01
aI01
aI00
aI00
aI00
aI00
aa(lp1490
I234378
aF317.113
aF452.121
aVp2
p1491
aS'utopia'
p1492
aS'#656565'
p1493
aF8.88595
aI0
aI00
aI00
aI01
aI01
aI01
aI00
aI00
aI00
aa(lp1494
I234378
aF422.264
aF452.121
aVp2
p1495
aS'utopia'
p1496
aS'#656565'
p1497
aF8.88595
aI0
aI00
aI00
aI01
aI01
aI00
aI00
aI00
aI00
aa(lp1498
I234378
aF428.928
aF452.121
aVp2
p1499
aS'utopia'
p1500
aS'#656565'
p1501
aF8.88595
aI0
aI01
aI00
aI00
aI00
aI00
aI00
aI00
aI00
aa(lp1502
I234378
aF48.3134
aF470.633
aVp2
p1503
aS'utopia'
p1504
aS'#656565'
p1505
aF8.88595
aI0
aI01
aI00
aI00
aI00
aI00
aI00
aI00
aI00
aa(lp1506
I234378
aF317.113
aF470.633
aVp2
p1507
aS'utopia'
p1508
aS'#656565'
p1509
aF8.88595
aI0
aI00
aI00
aI01
aI01
aI01
aI00
aI00
aI00
aa(lp1510
I234378
aF422.264
aF470.633
aVp2
p1511
aS'utopia'
p1512
aS'#656565'
p1513
aF8.88595
aI0
aI00
aI00
aI01
aI01
aI00
aI00
aI00
aI00
aa(lp1514
I234378
aF428.928
aF470.633
aVp2
p1515
aS'utopia'
p1516
aS'#656565'
p1517
aF8.88595
aI0
aI01
aI00
aI00
aI00
aI00
aI00
aI00
aI00
aa(lp1518
I77592
aF48.3134
aF489.145
aVp2
p1519
aS'utopia'
p1520
aS'#656565'
p1521
aF8.88595
aI0
aI01
aI00
aI00
aI00
aI00
aI00
aI00
aI00
aa(lp1522
I110786
aF80.1547
aF489.145
aVp2
p1523
aS'utopia'
p1524
aS'#656565'
p1525
aF8.88595
aI0
aI01
aI00
aI00
aI00
aI00
aI00
aI00
aI00
aa(lp1526
I234378
aF188.267
aF489.145
aVp2
p1527
aS'utopia'
p1528
aS'#656565'
p1529
aF8.88595
aI0
aI00
aI00
aI01
aI01
aI00
aI00
aI00
aI00
aa(lp1530
I234378
aF192.00798333333333
aF489.145
ag1527
aS'utopia'
p1531
aS'#656565'
p1532
aF8.88595
aI0
aI00
aI00
aI00
aI00
aI00
aI00
aI00
aI00
aa(lp1533
I234378
aF195.74896666666666
aF489.145
ag1527
aS'utopia'
p1534
aS'#656565'
p1535
aF8.88595
aI0
aI00
aI00
aI01
aI01
aI00
aI00
aI00
aI00
aa(lp1536
I234378
aF197.48995
aF489.145
ag1527
aS'utopia'
p1537
aS'#656565'
p1538
aF8.88595
aI0
aI00
aI00
aI00
aI00
aI00
aI00
aI00
aI00
aa(lp1539
I234378
aF203.23093333333333
aF489.145
ag1527
aS'utopia'
p1540
aS'#656565'
p1541
aF8.88595
aI0
aI00
aI00
aI01
aI01
aI01
aI00
aI00
aI00
aa(lp1542
I234378
aF317.113
aF489.145
aVp2
p1543
aS'utopia'
p1544
aS'#656565'
p1545
aF8.88595
aI0
aI00
aI00
aI01
aI01
aI01
aI00
aI00
aI00
aa(lp1546
I234378
aF403.011
aF489.145
aVp2
p1547
aS'utopia'
p1548
aS'#656565'
p1549
aF8.88595
aI0
aI00
aI00
aI01
aI01
aI00
aI00
aI00
aI00
aa(lp1550
I234378
aF409.675
aF489.145
aVp2
p1551
aS'utopia'
p1552
aS'#656565'
p1553
aF8.88595
aI0
aI01
aI00
aI00
aI00
aI00
aI00
aI00
aI00
aa(lp1554
I234378
aF433.371
aF489.145
aVp2
p1555
aS'utopia'
p1556
aS'#656565'
p1557
aF8.88595
aI0
aI00
aI00
aI01
aI01
aI00
aI00
aI00
aI00
aa(lp1558
I234378
aF440.036
aF489.145
aVp2
p1559
aS'utopia'
p1560
aS'#656565'
p1561
aF8.88595
aI0
aI01
aI00
aI00
aI00
aI00
aI00
aI00
aI00
aa(lp1562
I234378
aF48.3134
aF507.658
aVp2
p1563
aS'utopia'
p1564
aS'#656565'
p1565
aF8.88595
aI0
aI01
aI00
aI00
aI00
aI00
aI00
aI00
aI00
aa(lp1566
I234378
aF317.113
aF507.658
aVp2
p1567
aS'utopia'
p1568
aS'#656565'
p1569
aF8.88595
aI0
aI00
aI00
aI01
aI01
aI01
aI00
aI00
aI00
aa(lp1570
I234378
aF403.011
aF507.658
aVp2
p1571
aS'utopia'
p1572
aS'#656565'
p1573
aF8.88595
aI0
aI00
aI00
aI01
aI01
aI00
aI00
aI00
aI00
aa(lp1574
I234378
aF409.675
aF507.658
aVp2
p1575
aS'utopia'
p1576
aS'#656565'
p1577
aF8.88595
aI0
aI01
aI00
aI00
aI00
aI00
aI00
aI00
aI00
aa(lp1578
I234378
aF433.371
aF507.658
aVp2
p1579
aS'utopia'
p1580
aS'#656565'
p1581
aF8.88595
aI0
aI00
aI00
aI01
aI01
aI00
aI00
aI00
aI00
aa(lp1582
I234378
aF440.036
aF507.658
aVp2
p1583
aS'utopia'
p1584
aS'#656565'
p1585
aF8.88595
aI0
aI01
aI00
aI00
aI00
aI00
aI00
aI00
aI00
aa(lp1586
I45445
aF48.3134
aF526.17
aVp2
p1587
aS'utopia'
p1588
aS'#656565'
p1589
aF8.88595
aI0
aI01
aI00
aI00
aI00
aI00
aI00
aI00
aI00
aa(lp1590
I234378
aF188.267
aF526.17
aVp2
p1591
aS'utopia'
p1592
aS'#656565'
p1593
aF8.88595
aI0
aI00
aI00
aI01
aI00
aI00
aI00
aI00
aI00
aa(lp1594
I234378
aF317.113
aF526.17
aVp2
p1595
aS'utopia'
p1596
aS'#656565'
p1597
aF8.88595
aI0
aI00
aI00
aI01
aI01
aI01
aI00
aI00
aI00
aa(lp1598
I234378
aF422.264
aF526.17
aVp2
p1599
aS'utopia'
p1600
aS'#656565'
p1601
aF8.88595
aI0
aI00
aI00
aI01
aI01
aI00
aI00
aI00
aI00
aa(lp1602
I234378
aF428.928
aF526.17
aVp2
p1603
aS'utopia'
p1604
aS'#656565'
p1605
aF8.88595
aI0
aI01
aI00
aI00
aI00
aI00
aI00
aI00
aI00
aa(lp1606
I234378
aF48.3134
aF544.683
aVp2
p1607
aS'utopia'
p1608
aS'#656565'
p1609
aF8.88595
aI0
aI01
aI00
aI00
aI00
aI00
aI00
aI00
aI00
aa(lp1610
I234378
aF188.267
aF544.683
aVp2
p1611
aS'utopia'
p1612
aS'#656565'
p1613
aF8.88595
aI0
aI00
aI00
aI01
aI01
aI01
aI00
aI00
aI00
aa(lp1614
I234378
aF317.113
aF544.683
aVp2
p1615
aS'utopia'
p1616
aS'#656565'
p1617
aF8.88595
aI0
aI00
aI00
aI01
aI01
aI01
aI00
aI00
aI00
aa(lp1618
I234378
aF417.821
aF544.683
aVp2
p1619
aS'utopia'
p1620
aS'#656565'
p1621
aF8.88595
aI0
aI00
aI00
aI01
aI01
aI00
aI00
aI00
aI00
aa(lp1622
I234378
aF424.485
aF544.683
aVp2
p1623
aS'utopia'
p1624
aS'#656565'
p1625
aF8.88595
aI0
aI01
aI00
aI00
aI00
aI00
aI00
aI00
aI00
aa(lp1626
I234378
aF48.3134
aF563.195
aVp2
p1627
aS'utopia'
p1628
aS'#656565'
p1629
aF8.88595
aI0
aI01
aI00
aI00
aI00
aI00
aI00
aI00
aI00
aa(lp1630
I234378
aF188.267
aF563.195
aVp2
p1631
aS'utopia'
p1632
aS'#656565'
p1633
aF8.88595
aI0
aI00
aI00
aI01
aI01
aI00
aI00
aI00
aI00
aa(lp1634
I234378
aF317.113
aF563.195
aVp2
p1635
aS'utopia'
p1636
aS'#656565'
p1637
aF8.88595
aI0
aI00
aI00
aI01
aI01
aI01
aI00
aI00
aI00
aa(lp1638
I234378
aF417.821
aF563.195
aVp2
p1639
aS'utopia'
p1640
aS'#656565'
p1641
aF8.88595
aI0
aI00
aI00
aI01
aI01
aI00
aI00
aI00
aI00
aa(lp1642
I234378
aF424.485
aF563.195
aVp2
p1643
aS'utopia'
p1644
aS'#656565'
p1645
aF8.88595
aI0
aI01
aI00
aI00
aI00
aI00
aI00
aI00
aI00
aa(lp1646
I148996
aF48.3134
aF581.707
aVp2
p1647
aS'utopia'
p1648
aS'#656565'
p1649
aF8.88595
aI0
aI01
aI00
aI00
aI00
aI00
aI00
aI00
aI00
aa(lp1650
I234378
aF317.113
aF581.707
aVp2
p1651
aS'utopia'
p1652
aS'#656565'
p1653
aF8.88595
aI0
aI00
aI00
aI01
aI01
aI01
aI00
aI00
aI00
aa(lp1654
I234378
aF417.821
aF581.707
aVp2
p1655
aS'utopia'
p1656
aS'#656565'
p1657
aF8.88595
aI0
aI00
aI00
aI01
aI01
aI00
aI00
aI00
aI00
aa(lp1658
I234378
aF424.485
aF581.707
aVp2
p1659
aS'utopia'
p1660
aS'#656565'
p1661
aF8.88595
aI0
aI01
aI00
aI00
aI00
aI00
aI00
aI00
aI00
aa(lp1662
I1257
aF48.3134
aF600.22
aVp2
p1663
aS'utopia'
p1664
aS'#656565'
p1665
aF8.88595
aI0
aI01
aI00
aI00
aI00
aI00
aI00
aI00
aI00
aa(lp1666
I109247
aF73.4902
aF600.22
aVp2
p1667
aS'utopia'
p1668
aS'#656565'
p1669
aF8.88595
aI0
aI01
aI00
aI00
aI00
aI00
aI00
aI00
aI00
aa(lp1670
I166558
aF103.851
aF600.22
aVp2
p1671
aS'utopia'
p1672
aS'#656565'
p1673
aF8.88595
aI0
aI01
aI00
aI00
aI00
aI00
aI00
aI00
aI00
aa(lp1674
I156028
aF137.913
aF600.22
aVp2
p1675
aS'utopia'
p1676
aS'#656565'
p1677
aF8.88595
aI0
aI01
aI00
aI00
aI00
aI00
aI00
aI00
aI00
aa(lp1678
I234378
aF188.267
aF600.22
aVp2
p1679
aS'utopia'
p1680
aS'#656565'
p1681
aF8.88595
aI0
aI00
aI00
aI01
aI01
aI00
aI00
aI00
aI00
aa(lp1682
I234378
aF192.0465
aF600.22
ag1679
aS'utopia'
p1683
aS'#656565'
p1684
aF8.88595
aI0
aI00
aI00
aI00
aI00
aI00
aI00
aI00
aI00
aa(lp1685
I234378
aF195.82600000000002
aF600.22
ag1679
aS'utopia'
p1686
aS'#656565'
p1687
aF8.88595
aI0
aI00
aI00
aI01
aI01
aI00
aI00
aI00
aI00
aa(lp1688
I234378
aF317.113
aF600.22
aVp2
p1689
aS'utopia'
p1690
aS'#656565'
p1691
aF8.88595
aI0
aI00
aI00
aI01
aI01
aI01
aI00
aI00
aI00
aa(lp1692
I234378
aF424.485
aF600.22
aVp2
p1693
aS'utopia'
p1694
aS'#656565'
p1695
aF8.88595
aI0
aI00
aI00
aI01
aI01
aI00
aI00
aI00
aI00
aa(lp1696
I91136
aF431.15
aF600.22
aVp2
p1697
aS'utopia'
p1698
aS'#656565'
p1699
aF8.88595
aI0
aI01
aI00
aI00
aI00
aI00
aI00
aI00
aI00
aa(lp1700
I234378
aF48.3134
aF618.732
aVp2
p1701
aS'utopia'
p1702
aS'#656565'
p1703
aF8.88595
aI0
aI01
aI01
aI00
aI00
aI00
aI00
aI00
aI00
aa(lp1704
I234378
aF317.113
aF618.732
aVp2
p1705
aS'utopia'
p1706
aS'#656565'
p1707
aF8.88595
aI0
aI00
aI00
aI01
aI01
aI01
aI00
aI00
aI00
aa(lp1708
I234378
aF424.485
aF618.732
aVp2
p1709
aS'utopia'
p1710
aS'#656565'
p1711
aF8.88595
aI0
aI00
aI00
aI01
aI01
aI00
aI00
aI00
aI00
aa(lp1712
I91136
aF431.15
aF618.732
aVp2
p1713
aS'utopia'
p1714
aS'#656565'
p1715
aF8.88595
aI0
aI01
aI00
aI00
aI00
aI00
aI00
aI00
aI00
aa(lp1716
I234378
aF48.3134
aF637.245
aVp2
p1717
aS'utopia'
p1718
aS'#656565'
p1719
aF8.88595
aI0
aI01
aI01
aI00
aI00
aI00
aI00
aI00
aI00
aa(lp1720
I234378
aF89.0407
aF637.245
aVp2
p1721
aS'utopia'
p1722
aS'#656565'
p1723
aF8.88595
aI0
aI01
aI01
aI00
aI00
aI00
aI00
aI00
aI00
aa(lp1724
I234378
aF317.113
aF637.245
aVp2
p1725
aS'utopia'
p1726
aS'#656565'
p1727
aF8.88595
aI0
aI00
aI00
aI01
aI01
aI01
aI00
aI00
aI00
aa(lp1728
I234378
aF417.821
aF637.245
aVp2
p1729
aS'utopia'
p1730
aS'#656565'
p1731
aF8.88595
aI0
aI00
aI00
aI01
aI01
aI00
aI00
aI00
aI00
aa(lp1732
I234378
aF424.485
aF637.245
aVp2
p1733
aS'utopia'
p1734
aS'#656565'
p1735
aF8.88595
aI0
aI01
aI00
aI00
aI00
aI00
aI00
aI00
aI00
aa(lp1736
I234378
aF48.3134
aF655.757
aVp2
p1737
aS'utopia'
p1738
aS'#656565'
p1739
aF8.88595
aI0
aI01
aI01
aI00
aI00
aI00
aI00
aI00
aI00
aa(lp1740
I234378
aF188.267
aF655.757
aVp2
p1741
aS'utopia'
p1742
aS'#656565'
p1743
aF8.88595
aI0
aI00
aI00
aI01
aI01
aI00
aI00
aI00
aI00
aa(lp1744
I234378
aF192.0465
aF655.757
ag1741
aS'utopia'
p1745
aS'#656565'
p1746
aF8.88595
aI0
aI00
aI00
aI00
aI00
aI00
aI00
aI00
aI00
aa(lp1747
I234378
aF193.82600000000002
aF655.757
ag1741
aS'utopia'
p1748
aS'#656565'
p1749
aF8.88595
aI0
aI00
aI00
aI01
aI01
aI00
aI00
aI00
aI00
aa(lp1750
I234378
aF317.113
aF655.757
aVp2
p1751
aS'utopia'
p1752
aS'#656565'
p1753
aF8.88595
aI0
aI00
aI00
aI01
aI01
aI01
aI00
aI00
aI00
aa(lp1754
I234378
aF424.485
aF655.757
aVp2
p1755
aS'utopia'
p1756
aS'#656565'
p1757
aF8.88595
aI0
aI00
aI00
aI01
aI01
aI00
aI00
aI00
aI00
aa(lp1758
I91136
aF431.15
aF655.757
aVp2
p1759
aS'utopia'
p1760
aS'#656565'
p1761
aF8.88595
aI0
aI01
aI00
aI00
aI00
aI00
aI00
aI00
aI00
aa(lp1762
I234378
aF48.3134
aF674.269
aVp2
p1763
aS'utopia'
p1764
aS'#656565'
p1765
aF8.88595
aI0
aI01
aI01
aI00
aI00
aI00
aI00
aI00
aI00
aa(lp1766
I234378
aF317.113
aF674.269
aVp2
p1767
aS'utopia'
p1768
aS'#656565'
p1769
aF8.88595
aI0
aI00
aI00
aI01
aI01
aI01
aI00
aI00
aI00
aa(lp1770
I234378
aF417.821
aF674.269
aVp2
p1771
aS'utopia'
p1772
aS'#656565'
p1773
aF8.88595
aI0
aI00
aI00
aI01
aI01
aI00
aI00
aI00
aI00
aa(lp1774
I234378
aF424.485
aF674.269
aVp2
p1775
aS'utopia'
p1776
aS'#656565'
p1777
aF8.88595
aI0
aI01
aI00
aI00
aI00
aI00
aI00
aI00
aI00
aa(lp1778
I195166
aF40.1679
aF41.9037
aVp3
p1779
aS'utopia'
p1780
aS'#02304b'
p1781
aF11.8479
aI1
aI01
aI00
aI00
aI00
aI00
aI00
aI00
aI00
aa(lp1782
I136346
aF96.4456
aF41.9037
aVp3
p1783
aS'utopia'
p1784
aS'#02304b'
p1785
aF11.8479
aI1
aI01
aI00
aI00
aI00
aI00
aI00
aI00
aI00
aa(lp1786
I195166
aF48.3134
aF69.7937
aVp3
p1787
aS'utopia'
p1788
aS'#000000'
p1789
aF8.88595
aI1
aI01
aI00
aI00
aI00
aI00
aI00
aI00
aI00
aa(lp1790
I164378
aF177.16
aF69.7937
aVp3
p1791
aS'utopia'
p1792
aS'#000000'
p1793
aF8.88595
aI1
aI01
aI00
aI00
aI00
aI00
aI00
aI00
aI00
aa(lp1794
I175077
aF296.379
aF69.7937
aVp3
p1795
aS'utopia'
p1796
aS'#000000'
p1797
aF8.88595
aI1
aI01
aI00
aI00
aI00
aI00
aI00
aI00
aI00
aa(lp1798
I224291
aF397.087
aF69.7937
aVp3
p1799
aS'utopia'
p1800
aS'#000000'
p1801
aF8.88595
aI1
aI01
aI00
aI00
aI00
aI00
aI00
aI00
aI00
aa(lp1802
I165206
aF497.054
aF69.7937
aVp3
p1803
aS'utopia'
p1804
aS'#000000'
p1805
aF8.88595
aI1
aI01
aI00
aI00
aI00
aI00
aI00
aI00
aI00
aa(lp1806
I227906
aF48.3134
aF88.5371
aVp3
p1807
aS'utopia'
p1808
aS'#656565'
p1809
aF8.88595
aI0
aI01
aI00
aI00
aI00
aI00
aI00
aI00
aI00
aa(lp1810
I17534
aF177.16
aF88.5371
aVp3
p1811
aS'utopia'
p1812
aS'#656565'
p1813
aF8.88595
aI0
aI01
aI00
aI00
aI00
aI00
aI00
aI00
aI00
aa(lp1814
I144532
aF48.3134
aF107.05
aVp3
p1815
aS'utopia'
p1816
aS'#656565'
p1817
aF8.88595
aI0
aI01
aI00
aI00
aI00
aI00
aI00
aI00
aI00
aa(lp1818
I17534
aF177.16
aF107.05
aVp3
p1819
aS'utopia'
p1820
aS'#656565'
p1821
aF8.88595
aI0
aI01
aI00
aI00
aI00
aI00
aI00
aI00
aI00
aa(lp1822
I58002
aF48.3134
aF125.562
aVp3
p1823
aS'utopia'
p1824
aS'#656565'
p1825
aF8.88595
aI0
aI01
aI00
aI00
aI00
aI00
aI00
aI00
aI00
aa(lp1826
I61354
aF177.16
aF125.562
aVp3
p1827
aS'utopia'
p1828
aS'#656565'
p1829
aF8.88595
aI0
aI01
aI00
aI00
aI00
aI00
aI00
aI00
aI00
aa(lp1830
I234378
aF40.1679
aF34.4987
aVp4
p1831
aS'utopia'
p1832
aS'#02304b'
p1833
aF11.8479
aI1
aI01
aI00
aI00
aI00
aI00
aI00
aI00
aI00
aa(lp1834
I234378
aF40.9084
aF66.2156
aVp4
p1835
aS'utopia'
p1836
aS'#000000'
p1837
aF10.3669
aI1
aI01
aI00
aI00
aI00
aI00
aI00
aI00
aI00
aa(lp1838
I50825
aF73.4902
aF66.2156
aVp4
p1839
aS'utopia'
p1840
aS'#000000'
p1841
aF10.3669
aI1
aI01
aI00
aI00
aI00
aI00
aI00
aI00
aI00
aa(lp1842
I144114
aF95.7051
aF66.2156
aVp4
p1843
aS'utopia'
p1844
aS'#000000'
p1845
aF10.3669
aI1
aI01
aI00
aI00
aI00
aI00
aI00
aI00
aI00
aa(lp1846
I234378
aF40.9084
aF82.7761
aVp4
p1847
aS'utopia'
p1848
aS'#656565'
p1849
aF10.3669
aI0
aI01
aI01
aI00
aI00
aI00
aI00
aI00
aI00
aa(lp1850
I234378
aF77.1927
aF82.7761
aVp4
p1851
aS'utopia'
p1852
aS'#656565'
p1853
aF10.3669
aI0
aI01
aI00
aI00
aI00
aI00
aI00
aI00
aI00
aa(lp1854
I60201
aF114.218
aF82.7761
aVp4
p1855
aS'utopia'
p1856
aS'#656565'
p1857
aF10.3669
aI0
aI01
aI00
aI00
aI00
aI00
aI00
aI00
aI00
aa(lp1858
I230071
aF134.211
aF82.7761
aVp4
p1859
aS'utopia'
p1860
aS'#656565'
p1861
aF10.3669
aI0
aI01
aI00
aI00
aI00
aI00
aI00
aI00
aI00
aa(lp1862
I131049
aF165.312
aF82.7761
aVp4
p1863
aS'utopia'
p1864
aS'#656565'
p1865
aF10.3669
aI0
aI00
aI00
aI00
aI00
aI00
aI00
aI00
aI00
aa(lp1866
I234378
aF189.748
aF82.7761
aVp4
p1867
aS'utopia'
p1868
aS'#656565'
p1869
aF10.3669
aI0
aI01
aI00
aI00
aI00
aI00
aI00
aI00
aI01
aa(lp1870
I234378
aF210.482
aF82.7761
aVp4
p1871
aS'utopia'
p1872
aS'#656565'
p1873
aF10.3669
aI0
aI00
aI00
aI01
aI01
aI01
aI00
aI00
aI00
aa(lp1874
I89480
aF233.437
aF82.7761
aVp4
p1875
aS'utopia'
p1876
aS'#656565'
p1877
aF10.3669
aI0
aI00
aI00
aI00
aI00
aI00
aI00
aI00
aI00
aa(lp1878
I102117
aF245.285
aF82.7761
aVp4
p1879
aS'utopia'
p1880
aS'#656565'
p1881
aF10.3669
aI0
aI01
aI00
aI00
aI00
aI00
aI00
aI00
aI00
aa(lp1882
I234378
aF40.9084
aF99.067
aVp4
p1883
aS'utopia'
p1884
aS'#656565'
p1885
aF10.3669
aI0
aI01
aI00
aI00
aI00
aI00
aI00
aI00
aI00
aa(lp1886
I234378
aF84.01552
aF99.067
ag1883
aS'utopia'
p1887
aS'#656565'
p1888
aF10.3669
aI0
aI00
aI00
aI00
aI00
aI00
aI00
aI00
aI00
aa(lp1889
I234378
aF91.2621
aF99.067
aVp4
p1890
aS'utopia'
p1891
aS'#656565'
p1892
aF10.3669
aI0
aI01
aI00
aI00
aI00
aI00
aI00
aI00
aI00
aa(lp1893
I109610
aF40.9084
aF115.195
aVp4
p1894
aS'utopia'
p1895
aS'#656565'
p1896
aF8.88595
aI0
aI01
aI00
aI00
aI00
aI00
aI00
aI00
aI00
aa(lp1897
I25729
aF58.6803
aF115.195
aVp4
p1898
aS'utopia'
p1899
aS'#656565'
p1900
aF8.88595
aI0
aI01
aI00
aI00
aI00
aI00
aI00
aI00
aI00
aa(lp1901
I234378
aF76.54462000000001
aF115.195
ag1898
aS'utopia'
p1902
aS'#656565'
p1903
aF8.88595
aI0
aI00
aI00
aI00
aI00
aI00
aI00
aI00
aI00
aa(lp1904
I21716
aF85.3382
aF115.195
aVp4
p1905
aS'utopia'
p1906
aS'#656565'
p1907
aF8.88595
aI0
aI01
aI00
aI00
aI00
aI00
aI00
aI00
aI00
aa(lp1908
I234378
aF100.24052
aF115.195
ag1905
aS'utopia'
p1909
aS'#656565'
p1910
aF8.88595
aI0
aI00
aI00
aI00
aI00
aI00
aI00
aI00
aI00
aa(lp1911
I234378
aF106.072
aF115.195
aVp4
p1912
aS'utopia'
p1913
aS'#656565'
p1914
aF8.88595
aI0
aI01
aI01
aI01
aI00
aI00
aI00
aI00
aI00
aa(lp1915
I234378
aF122.15912
aF115.195
ag1912
aS'utopia'
p1916
aS'#656565'
p1917
aF8.88595
aI0
aI00
aI00
aI00
aI00
aI00
aI00
aI00
aI00
aa(lp1918
I234378
aF128.287
aF115.195
aVp4
p1919
aS'utopia'
p1920
aS'#656565'
p1921
aF8.88595
aI0
aI01
aI01
aI00
aI00
aI00
aI00
aI00
aI00
aa(lp1922
I234378
aF146.74372
aF115.195
ag1919
aS'utopia'
p1923
aS'#656565'
p1924
aF8.88595
aI0
aI00
aI00
aI00
aI00
aI00
aI00
aI00
aI00
aa(lp1925
I234378
aF153.464
aF115.195
aVp4
p1926
aS'utopia'
p1927
aS'#656565'
p1928
aF8.88595
aI0
aI01
aI00
aI00
aI00
aI00
aI00
aI00
aI00
aa(lp1929
I234378
aF204.558
aF115.195
aVp4
p1930
aS'utopia'
p1931
aS'#656565'
p1932
aF8.88595
aI0
aI00
aI00
aI00
aI00
aI00
aI00
aI00
aI00
aa(lp1933
I89217
aF208.74476428571427
aF115.195
ag1930
aS'utopia'
p1934
aS'#656565'
p1935
aF8.88595
aI0
aI01
aI01
aI00
aI00
aI00
aI00
aI00
aI00
aa(lp1936
I234378
aF225.4918214285714
aF115.195
ag1930
aS'utopia'
p1937
aS'#656565'
p1938
aF8.88595
aI0
aI00
aI00
aI00
aI00
aI00
aI00
aI00
aI00
aa(lp1939
I234378
aF229.67858571428567
aF115.195
ag1930
aS'utopia'
p1940
aS'#656565'
p1941
aF8.88595
aI0
aI00
aI00
aI00
aI00
aI00
aI00
aI00
aI00
aa(lp1942
I234378
aF233.86534999999995
aF115.195
ag1930
aS'utopia'
p1943
aS'#656565'
p1944
aF8.88595
aI0
aI01
aI00
aI00
aI00
aI00
aI00
aI00
aI00
aa(lp1945
I234378
aF251.9859357142857
aF115.195
ag1930
aS'utopia'
p1946
aS'#656565'
p1947
aF8.88595
aI0
aI00
aI00
aI00
aI00
aI00
aI00
aI00
aI00
aa(lp1948
I234378
aF265.279
aF115.195
aVp4
p1949
aS'utopia'
p1950
aS'#656565'
p1951
aF8.88595
aI0
aI01
aI01
aI00
aI00
aI00
aI00
aI00
aI00
aa(lp1952
I234378
aF282.6297
aF115.195
ag1949
aS'utopia'
p1953
aS'#656565'
p1954
aF8.88595
aI0
aI00
aI00
aI00
aI00
aI00
aI00
aI00
aI00
aa(lp1955
I234378
aF286.967375
aF115.195
ag1949
aS'utopia'
p1956
aS'#656565'
p1957
aF8.88595
aI0
aI01
aI01
aI00
aI00
aI00
aI00
aI00
aI00
aa(lp1958
I234378
aF295.98040000000003
aF115.195
ag1949
aS'utopia'
p1959
aS'#656565'
p1960
aF8.88595
aI0
aI00
aI00
aI00
aI00
aI00
aI00
aI00
aI00
aa(lp1961
I234378
aF304.318075
aF115.195
ag1949
aS'utopia'
p1962
aS'#656565'
p1963
aF8.88595
aI0
aI01
aI00
aI00
aI00
aI00
aI00
aI00
aI00
aa(lp1964
I234378
aF332.69482500000004
aF115.195
ag1949
aS'utopia'
p1965
aS'#656565'
p1966
aF8.88595
aI0
aI00
aI00
aI00
aI00
aI00
aI00
aI00
aI00
aa(lp1967
I234378
aF354.138
aF115.195
aVp4
p1968
aS'utopia'
p1969
aS'#656565'
p1970
aF8.88595
aI0
aI01
aI01
aI00
aI00
aI00
aI00
aI00
aI00
aa(lp1971
I234378
aF368.1264
aF115.195
ag1968
aS'utopia'
p1972
aS'#656565'
p1973
aF8.88595
aI0
aI00
aI00
aI00
aI00
aI00
aI00
aI00
aI00
aa(lp1974
I234378
aF372.7892
aF115.195
ag1968
aS'utopia'
p1975
aS'#656565'
p1976
aF8.88595
aI0
aI01
aI00
aI00
aI00
aI00
aI00
aI00
aI00
aa(lp1977
I234378
aF404.7544
aF115.195
ag1968
aS'utopia'
p1978
aS'#656565'
p1979
aF8.88595
aI0
aI00
aI00
aI00
aI00
aI00
aI00
aI00
aI00
aa(lp1980
I110786
aF421.523
aF115.195
aVp4
p1981
aS'utopia'
p1982
aS'#656565'
p1983
aF8.88595
aI0
aI01
aI00
aI00
aI00
aI00
aI00
aI00
aI00
aa(lp1984
I234378
aF449.5492571428572
aF115.195
ag1981
aS'utopia'
p1985
aS'#656565'
p1986
aF8.88595
aI0
aI00
aI00
aI00
aI00
aI00
aI00
aI00
aI00
aa(lp1987
I234378
aF456.327
aF115.195
aVp4
p1988
aS'utopia'
p1989
aS'#656565'
p1990
aF8.88595
aI0
aI00
aI00
aI00
aI00
aI00
aI00
aI00
aI00
aa(lp1991
I234378
aF474.3185833333333
aF115.195
ag1988
aS'utopia'
p1992
aS'#656565'
p1993
aF8.88595
aI0
aI00
aI00
aI00
aI00
aI00
aI00
aI00
aI00
aa(lp1994
I47967
aF480.022
aF115.195
aVp4
p1995
aS'utopia'
p1996
aS'#656565'
p1997
aF8.88595
aI0
aI00
aI00
aI00
aI00
aI00
aI00
aI00
aI00
aa(lp1998
I126792
aF506.68
aF115.195
aVp4
p1999
aS'utopia'
p2000
aS'#656565'
p2001
aF8.88595
aI0
aI00
aI00
aI00
aI00
aI00
aI00
aI00
aI00
aa(lp2002
I210461
aF40.9084
aF129.264
aVp4
p2003
aS'utopia'
p2004
aS'#656565'
p2005
aF8.88595
aI0
aI01
aI00
aI00
aI00
aI00
aI00
aI00
aI00
aa(lp2006
I340
aF65.3448
aF129.264
aVp4
p2007
aS'utopia'
p2008
aS'#656565'
p2009
aF8.88595
aI0
aI01
aI00
aI00
aI00
aI00
aI00
aI00
aI00
aa(lp2010
I234378
aF79.65472000000001
aF129.264
ag2007
aS'utopia'
p2011
aS'#656565'
p2012
aF8.88595
aI0
aI00
aI00
aI00
aI00
aI00
aI00
aI00
aI00
aa(lp2013
I234378
aF87.5597
aF129.264
aVp4
p2014
aS'utopia'
p2015
aS'#656565'
p2016
aF8.88595
aI0
aI00
aI00
aI01
aI01
aI00
aI00
aI00
aI00
aa(lp2017
I176435
aF40.9084
aF143.334
aVp4
p2018
aS'utopia'
p2019
aS'#656565'
p2020
aF8.88595
aI0
aI01
aI00
aI00
aI00
aI00
aI00
aI00
aI00
aa(lp2021
I234378
aF60.9018
aF143.334
aVp4
p2022
aS'utopia'
p2023
aS'#656565'
p2024
aF8.88595
aI0
aI00
aI00
aI00
aI00
aI00
aI00
aI00
aI00
aa(lp2025
I234378
aF67.5663
aF143.334
aVp4
p2026
aS'utopia'
p2027
aS'#656565'
p2028
aF8.88595
aI0
aI01
aI00
aI00
aI00
aI00
aI00
aI00
aI00
aa(lp2029
I234378
aF74.55463333333333
aF143.334
ag2026
aS'utopia'
p2030
aS'#656565'
p2031
aF8.88595
aI0
aI00
aI00
aI00
aI00
aI00
aI00
aI00
aI00
aa(lp2032
I150037
aF80.1547
aF143.334
aVp4
p2033
aS'utopia'
p2034
aS'#656565'
p2035
aF8.88595
aI0
aI01
aI00
aI00
aI00
aI00
aI00
aI00
aI00
aa(lp2036
I176435
aF40.9084
aF157.403
aVp4
p2037
aS'utopia'
p2038
aS'#656565'
p2039
aF8.88595
aI0
aI01
aI00
aI00
aI00
aI00
aI00
aI00
aI00
aa(lp2040
I66756
aF60.9018
aF157.403
aVp4
p2041
aS'utopia'
p2042
aS'#656565'
p2043
aF8.88595
aI0
aI01
aI00
aI00
aI00
aI00
aI00
aI00
aI00
aa(lp2044
I234378
aF105.12885833333334
aF157.403
ag2041
aS'utopia'
p2045
aS'#656565'
p2046
aF8.88595
aI0
aI00
aI00
aI00
aI00
aI00
aI00
aI00
aI00
aa(lp2047
I177958
aF40.9084
aF171.473
aVp4
p2048
aS'utopia'
p2049
aS'#656565'
p2050
aF8.88595
aI0
aI01
aI00
aI00
aI00
aI00
aI00
aI00
aI00
aa(lp2051
I234378
aF71.2688
aF171.473
aVp4
p2052
aS'utopia'
p2053
aS'#656565'
p2054
aF8.88595
aI0
aI01
aI00
aI00
aI00
aI00
aI00
aI00
aI00
aa(lp2055
I234378
aF96.6393375
aF171.473
ag2052
aS'utopia'
p2056
aS'#656565'
p2057
aF8.88595
aI0
aI00
aI00
aI00
aI00
aI00
aI00
aI00
aI00
aa(lp2058
I234378
aF104.591
aF171.473
aVp4
p2059
aS'utopia'
p2060
aS'#656565'
p2061
aF8.88595
aI0
aI01
aI00
aI00
aI00
aI00
aI00
aI00
aI00
aa(lp2062
I135639
aF140.875
aF171.473
aVp4
p2063
aS'utopia'
p2064
aS'#656565'
p2065
aF8.88595
aI0
aI00
aI00
aI00
aI00
aI00
aI00
aI00
aI00
aa(lp2066
I183172
aF150.502
aF171.473
aVp4
p2067
aS'utopia'
p2068
aS'#656565'
p2069
aF8.88595
aI0
aI00
aI00
aI00
aI00
aI00
aI00
aI00
aI00
aa(lp2070
I137949
aF40.9084
aF208.391
aVp4
p2071
aS'utopia'
p2072
aS'#000000'
p2073
aF10.3669
aI1
aI01
aI00
aI00
aI00
aI00
aI00
aI00
aI00
aa(lp2074
I81847
aF65.3448
aF208.391
aVp4
p2075
aS'utopia'
p2076
aS'#000000'
p2077
aF10.3669
aI1
aI00
aI00
aI00
aI00
aI00
aI00
aI00
aI00
aa(lp2078
I234378
aF40.9084
aF224.951
aVp4
p2079
aS'utopia'
p2080
aS'#656565'
p2081
aF10.3669
aI0
aI01
aI01
aI00
aI00
aI00
aI00
aI00
aI00
aa(lp2082
I234378
aF76.4522
aF224.951
aVp4
p2083
aS'utopia'
p2084
aS'#656565'
p2085
aF10.3669
aI0
aI01
aI00
aI00
aI00
aI00
aI00
aI00
aI00
aa(lp2086
I60201
aF114.218
aF224.951
aVp4
p2087
aS'utopia'
p2088
aS'#656565'
p2089
aF10.3669
aI0
aI01
aI00
aI00
aI00
aI00
aI00
aI00
aI00
aa(lp2090
I230071
aF134.211
aF224.951
aVp4
p2091
aS'utopia'
p2092
aS'#656565'
p2093
aF10.3669
aI0
aI01
aI00
aI00
aI00
aI00
aI00
aI00
aI00
aa(lp2094
I131049
aF165.312
aF224.951
aVp4
p2095
aS'utopia'
p2096
aS'#656565'
p2097
aF10.3669
aI0
aI00
aI00
aI00
aI00
aI00
aI00
aI00
aI00
aa(lp2098
I234378
aF189.748
aF224.951
aVp4
p2099
aS'utopia'
p2100
aS'#656565'
p2101
aF10.3669
aI0
aI01
aI00
aI00
aI00
aI00
aI00
aI00
aI01
aa(lp2102
I234378
aF209.741
aF224.951
aVp4
p2103
aS'utopia'
p2104
aS'#656565'
p2105
aF10.3669
aI0
aI00
aI00
aI01
aI01
aI01
aI00
aI00
aI00
aa(lp2106
I89480
aF232.697
aF224.951
aVp4
p2107
aS'utopia'
p2108
aS'#656565'
p2109
aF10.3669
aI0
aI00
aI00
aI00
aI00
aI00
aI00
aI00
aI00
aa(lp2110
I234378
aF244.545
aF224.951
aVp4
p2111
aS'utopia'
p2112
aS'#656565'
p2113
aF10.3669
aI0
aI01
aI00
aI00
aI00
aI00
aI00
aI00
aI01
aa(lp2114
I234378
aF264.538
aF224.951
aVp4
p2115
aS'utopia'
p2116
aS'#656565'
p2117
aF10.3669
aI0
aI00
aI00
aI01
aI01
aI01
aI00
aI00
aI00
aa(lp2118
I234378
aF40.9084
aF241.242
aVp4
p2119
aS'utopia'
p2120
aS'#656565'
p2121
aF10.3669
aI0
aI01
aI00
aI00
aI00
aI00
aI00
aI00
aI00
aa(lp2122
I109610
aF40.9084
aF257.37
aVp4
p2123
aS'utopia'
p2124
aS'#656565'
p2125
aF8.88595
aI0
aI01
aI00
aI00
aI00
aI00
aI00
aI00
aI00
aa(lp2126
I25729
aF58.6803
aF257.37
aVp4
p2127
aS'utopia'
p2128
aS'#656565'
p2129
aF8.88595
aI0
aI01
aI00
aI00
aI00
aI00
aI00
aI00
aI00
aa(lp2130
I234378
aF76.54462000000001
aF257.37
ag2127
aS'utopia'
p2131
aS'#656565'
p2132
aF8.88595
aI0
aI00
aI00
aI00
aI00
aI00
aI00
aI00
aI00
aa(lp2133
I234378
aF85.3382
aF257.37
aVp4
p2134
aS'utopia'
p2135
aS'#656565'
p2136
aF8.88595
aI0
aI01
aI00
aI00
aI00
aI00
aI00
aI00
aI00
aa(lp2137
I234378
aF110.89099999999999
aF257.37
ag2134
aS'utopia'
p2138
aS'#656565'
p2139
aF8.88595
aI0
aI00
aI00
aI00
aI00
aI00
aI00
aI00
aI00
aa(lp2140
I234378
aF114.5414
aF257.37
ag2134
aS'utopia'
p2141
aS'#656565'
p2142
aF8.88595
aI0
aI01
aI01
aI00
aI00
aI00
aI00
aI00
aI00
aa(lp2143
I234378
aF121.4926
aF257.37
ag2134
aS'utopia'
p2144
aS'#656565'
p2145
aF8.88595
aI0
aI00
aI00
aI00
aI00
aI00
aI00
aI00
aI00
aa(lp2146
I234378
aF131.249
aF257.37
aVp4
p2147
aS'utopia'
p2148
aS'#656565'
p2149
aF8.88595
aI0
aI01
aI01
aI00
aI00
aI00
aI00
aI00
aI00
aa(lp2150
I234378
aF153.37355
aF257.37
ag2147
aS'utopia'
p2151
aS'#656565'
p2152
aF8.88595
aI0
aI00
aI00
aI00
aI00
aI00
aI00
aI00
aI00
aa(lp2153
I234378
aF158.9046875
aF257.37
ag2147
aS'utopia'
p2154
aS'#656565'
p2155
aF8.88595
aI0
aI01
aI01
aI00
aI00
aI00
aI00
aI00
aI00
aa(lp2156
I210461
aF40.9084
aF271.44
aVp4
p2157
aS'utopia'
p2158
aS'#656565'
p2159
aF8.88595
aI0
aI01
aI00
aI00
aI00
aI00
aI00
aI00
aI00
aa(lp2160
I340
aF65.3448
aF271.44
aVp4
p2161
aS'utopia'
p2162
aS'#656565'
p2163
aF8.88595
aI0
aI01
aI00
aI00
aI00
aI00
aI00
aI00
aI00
aa(lp2164
I234378
aF79.65472000000001
aF271.44
ag2161
aS'utopia'
p2165
aS'#656565'
p2166
aF8.88595
aI0
aI00
aI00
aI00
aI00
aI00
aI00
aI00
aI00
aa(lp2167
I234378
aF87.5597
aF271.44
aVp4
p2168
aS'utopia'
p2169
aS'#656565'
p2170
aF8.88595
aI0
aI00
aI00
aI01
aI01
aI00
aI00
aI00
aI00
aa(lp2171
I176435
aF40.9084
aF285.509
aVp4
p2172
aS'utopia'
p2173
aS'#656565'
p2174
aF8.88595
aI0
aI01
aI00
aI00
aI00
aI00
aI00
aI00
aI00
aa(lp2175
I234378
aF60.9018
aF285.509
aVp4
p2176
aS'utopia'
p2177
aS'#656565'
p2178
aF8.88595
aI0
aI00
aI00
aI00
aI00
aI00
aI00
aI00
aI00
aa(lp2179
I150037
aF67.5663
aF285.509
aVp4
p2180
aS'utopia'
p2181
aS'#656565'
p2182
aF8.88595
aI0
aI01
aI00
aI00
aI00
aI00
aI00
aI00
aI00
aa(lp2183
I176435
aF40.9084
aF299.578
aVp4
p2184
aS'utopia'
p2185
aS'#656565'
p2186
aF8.88595
aI0
aI01
aI00
aI00
aI00
aI00
aI00
aI00
aI00
aa(lp2187
I66756
aF60.9018
aF299.578
aVp4
p2188
aS'utopia'
p2189
aS'#656565'
p2190
aF8.88595
aI0
aI01
aI00
aI00
aI00
aI00
aI00
aI00
aI00
aa(lp2191
I234378
aF105.12885833333334
aF299.578
ag2188
aS'utopia'
p2192
aS'#656565'
p2193
aF8.88595
aI0
aI00
aI00
aI00
aI00
aI00
aI00
aI00
aI00
aa(lp2194
I100815
aF113.477
aF299.578
aVp4
p2195
aS'utopia'
p2196
aS'#656565'
p2197
aF8.88595
aI0
aI01
aI00
aI00
aI00
aI00
aI00
aI00
aI00
aa(lp2198
I177958
aF40.9084
aF313.648
aVp4
p2199
aS'utopia'
p2200
aS'#656565'
p2201
aF8.88595
aI0
aI01
aI00
aI00
aI00
aI00
aI00
aI00
aI00
aa(lp2202
I234378
aF71.2688
aF313.648
aVp4
p2203
aS'utopia'
p2204
aS'#656565'
p2205
aF8.88595
aI0
aI01
aI00
aI00
aI00
aI00
aI00
aI00
aI00
aa(lp2206
I234378
aF96.6393375
aF313.648
ag2203
aS'utopia'
p2207
aS'#656565'
p2208
aF8.88595
aI0
aI00
aI00
aI00
aI00
aI00
aI00
aI00
aI00
aa(lp2209
I194354
aF104.591
aF313.648
aVp4
p2210
aS'utopia'
p2211
aS'#656565'
p2212
aF8.88595
aI0
aI01
aI00
aI00
aI00
aI00
aI00
aI00
aI00
aa(lp2213
I169406
aF121.622
aF313.648
aVp4
p2214
aS'utopia'
p2215
aS'#656565'
p2216
aF8.88595
aI0
aI00
aI00
aI00
aI00
aI00
aI00
aI00
aI00
aa(lp2217
I144540
aF143.837
aF313.648
aVp4
p2218
aS'utopia'
p2219
aS'#656565'
p2220
aF8.88595
aI0
aI00
aI00
aI00
aI00
aI00
aI00
aI00
aI00
aa(lp2221
I209115
aF162.35
aF313.648
aVp4
p2222
aS'utopia'
p2223
aS'#656565'
p2224
aF8.88595
aI0
aI00
aI00
aI00
aI00
aI00
aI00
aI00
aI00
aa(lp2225
I89480
aF179.381
aF313.648
aVp4
p2226
aS'utopia'
p2227
aS'#656565'
p2228
aF8.88595
aI0
aI00
aI00
aI00
aI00
aI00
aI00
aI00
aI00
aa(lp2229
I179418
aF189.748
aF313.648
aVp4
p2230
aS'utopia'
p2231
aS'#656565'
p2232
aF8.88595
aI0
aI00
aI00
aI00
aI00
aI00
aI00
aI00
aI00
aa(lp2233
I16329
aF222.33
aF313.648
aVp4
p2234
aS'utopia'
p2235
aS'#656565'
p2236
aF8.88595
aI0
aI00
aI00
aI00
aI00
aI00
aI00
aI00
aI00
aa(lp2237
I44367
aF234.178
aF313.648
aVp4
p2238
aS'utopia'
p2239
aS'#656565'
p2240
aF8.88595
aI0
aI00
aI00
aI00
aI00
aI00
aI00
aI00
aI00
aa(lp2241
I68365
aF253.431
aF313.648
aVp4
p2242
aS'utopia'
p2243
aS'#656565'
p2244
aF8.88595
aI0
aI00
aI00
aI00
aI00
aI00
aI00
aI00
aI00
aa(lp2245
I190806
aF280.829
aF313.648
aVp4
p2246
aS'utopia'
p2247
aS'#656565'
p2248
aF8.88595
aI0
aI00
aI00
aI00
aI00
aI00
aI00
aI00
aI00
aa(lp2249
I194354
aF294.899
aF313.648
aVp4
p2250
aS'utopia'
p2251
aS'#656565'
p2252
aF8.88595
aI0
aI00
aI00
aI00
aI00
aI00
aI00
aI00
aI00
aa(lp2253
I234378
aF309.708
aF313.648
aVp4
p2254
aS'utopia'
p2255
aS'#656565'
p2256
aF8.88595
aI0
aI00
aI00
aI00
aI00
aI00
aI00
aI00
aI00
aa(lp2257
I85218
aF354.879
aF313.648
aVp4
p2258
aS'utopia'
p2259
aS'#656565'
p2260
aF8.88595
aI0
aI00
aI00
aI00
aI00
aI00
aI00
aI00
aI00
aa(lp2261
I234378
aF371.91
aF313.648
aVp4
p2262
aS'utopia'
p2263
aS'#656565'
p2264
aF8.88595
aI0
aI01
aI00
aI00
aI00
aI00
aI00
aI00
aI00
aa(lp2265
I210945
aF402.27
aF313.648
aVp4
p2266
aS'utopia'
p2267
aS'#656565'
p2268
aF8.88595
aI0
aI00
aI00
aI00
aI00
aI00
aI00
aI00
aI00
aa(lp2269
I194354
aF428.928
aF313.648
aVp4
p2270
aS'utopia'
p2271
aS'#656565'
p2272
aF8.88595
aI0
aI00
aI00
aI00
aI00
aI00
aI00
aI00
aI00
aa(lp2273
I234378
aF443.738
aF313.648
aVp4
p2274
aS'utopia'
p2275
aS'#656565'
p2276
aF8.88595
aI0
aI01
aI00
aI00
aI00
aI00
aI00
aI00
aI00
aa(lp2277
I221858
aF465.953
aF313.648
aVp4
p2278
aS'utopia'
p2279
aS'#656565'
p2280
aF8.88595
aI0
aI00
aI00
aI00
aI00
aI00
aI00
aI00
aI00
aa(lp2281
I234378
aF499.37926999999996
aF313.648
ag2278
aS'utopia'
p2282
aS'#656565'
p2283
aF8.88595
aI0
aI00
aI00
aI00
aI00
aI00
aI00
aI00
aI00
aa(lp2284
I60534
aF505.199
aF313.648
aVp4
p2285
aS'utopia'
p2286
aS'#656565'
p2287
aF8.88595
aI0
aI01
aI00
aI00
aI00
aI00
aI00
aI00
aI00
aa(lp2288
I22476
aF524.452
aF313.648
aVp4
p2289
aS'utopia'
p2290
aS'#656565'
p2291
aF8.88595
aI0
aI00
aI00
aI00
aI00
aI00
aI00
aI00
aI00
aa(lp2292
I105322
aF40.9084
aF324.015
aVp4
p2293
aS'utopia'
p2294
aS'#656565'
p2295
aF8.88595
aI0
aI00
aI00
aI00
aI00
aI00
aI00
aI00
aI00
aa(lp2296
I234378
aF76.4522
aF324.015
aVp4
p2297
aS'utopia'
p2298
aS'#656565'
p2299
aF8.88595
aI0
aI00
aI00
aI00
aI00
aI00
aI00
aI00
aI00
aa(lp2300
I194354
aF123.844
aF324.015
aVp4
p2301
aS'utopia'
p2302
aS'#656565'
p2303
aF8.88595
aI0
aI00
aI00
aI00
aI00
aI00
aI00
aI00
aI00
aa(lp2304
I142001
aF138.654
aF324.015
aVp4
p2305
aS'utopia'
p2306
aS'#656565'
p2307
aF8.88595
aI0
aI01
aI00
aI00
aI00
aI00
aI00
aI00
aI00
aa(lp2308
I89480
aF169.014
aF324.015
aVp4
p2309
aS'utopia'
p2310
aS'#656565'
p2311
aF8.88595
aI0
aI00
aI00
aI00
aI00
aI00
aI00
aI00
aI00
aa(lp2312
I51933
aF179.381
aF324.015
aVp4
p2313
aS'utopia'
p2314
aS'#656565'
p2315
aF8.88595
aI0
aI00
aI00
aI00
aI00
aI00
aI00
aI00
aI00
aa(lp2316
I135639
aF201.596
aF324.015
aVp4
p2317
aS'utopia'
p2318
aS'#656565'
p2319
aF8.88595
aI0
aI00
aI00
aI00
aI00
aI00
aI00
aI00
aI00
aa(lp2320
I52532
aF211.222
aF324.015
aVp4
p2321
aS'utopia'
p2322
aS'#656565'
p2323
aF8.88595
aI0
aI00
aI00
aI00
aI00
aI00
aI00
aI00
aI00
aa(lp2324
I234378
aF247.507
aF324.015
aVp4
p2325
aS'utopia'
p2326
aS'#656565'
p2327
aF8.88595
aI0
aI01
aI00
aI00
aI00
aI00
aI00
aI00
aI00
aa(lp2328
I68032
aF305.265
aF324.015
aVp4
p2329
aS'utopia'
p2330
aS'#656565'
p2331
aF8.88595
aI0
aI01
aI00
aI00
aI00
aI00
aI00
aI00
aI00
aa(lp2332
I234378
aF356.279975
aF324.015
ag2329
aS'utopia'
p2333
aS'#656565'
p2334
aF8.88595
aI0
aI00
aI00
aI00
aI00
aI00
aI00
aI00
aI00
aa(lp2335
I125078
aF363.024
aF324.015
aVp4
p2336
aS'utopia'
p2337
aS'#656565'
p2338
aF8.88595
aI0
aI01
aI00
aI00
aI00
aI00
aI00
aI00
aI00
aa(lp2339
I234378
aF389.69032500000003
aF324.015
ag2336
aS'utopia'
p2340
aS'#656565'
p2341
aF8.88595
aI0
aI00
aI00
aI00
aI00
aI00
aI00
aI00
aI00
aa(lp2342
I85218
aF395.606
aF324.015
aVp4
p2343
aS'utopia'
p2344
aS'#656565'
p2345
aF8.88595
aI0
aI00
aI00
aI00
aI00
aI00
aI00
aI00
aI00
aa(lp2346
I3878
aF412.637
aF324.015
aVp4
p2347
aS'utopia'
p2348
aS'#656565'
p2349
aF8.88595
aI0
aI01
aI00
aI00
aI00
aI00
aI00
aI00
aI00
aa(lp2350
I234378
aF455.1522727272727
aF324.015
ag2347
aS'utopia'
p2351
aS'#656565'
p2352
aF8.88595
aI0
aI00
aI00
aI00
aI00
aI00
aI00
aI00
aI00
aa(lp2353
I187170
aF40.9084
aF360.933
aVp4
p2354
aS'utopia'
p2355
aS'#000000'
p2356
aF10.3669
aI1
aI01
aI00
aI00
aI00
aI00
aI00
aI00
aI00
aa(lp2357
I234378
aF81.6357
aF360.933
aVp4
p2358
aS'utopia'
p2359
aS'#000000'
p2360
aF10.3669
aI1
aI01
aI00
aI00
aI00
aI00
aI00
aI00
aI00
aa(lp2361
I234378
aF40.9084
aF377.493
aVp4
p2362
aS'utopia'
p2363
aS'#656565'
p2364
aF10.3669
aI0
aI01
aI01
aI00
aI00
aI00
aI00
aI00
aI00
aa(lp2365
I234378
aF76.4522
aF377.493
aVp4
p2366
aS'utopia'
p2367
aS'#656565'
p2368
aF10.3669
aI0
aI01
aI00
aI00
aI00
aI00
aI00
aI00
aI00
aa(lp2369
I60201
aF114.218
aF377.493
aVp4
p2370
aS'utopia'
p2371
aS'#656565'
p2372
aF10.3669
aI0
aI01
aI00
aI00
aI00
aI00
aI00
aI00
aI00
aa(lp2373
I230071
aF134.211
aF377.493
aVp4
p2374
aS'utopia'
p2375
aS'#656565'
p2376
aF10.3669
aI0
aI01
aI00
aI00
aI00
aI00
aI00
aI00
aI00
aa(lp2377
I131049
aF165.312
aF377.493
aVp4
p2378
aS'utopia'
p2379
aS'#656565'
p2380
aF10.3669
aI0
aI00
aI00
aI00
aI00
aI00
aI00
aI00
aI00
aa(lp2381
I234378
aF189.748
aF377.493
aVp4
p2382
aS'utopia'
p2383
aS'#656565'
p2384
aF10.3669
aI0
aI01
aI00
aI00
aI00
aI00
aI00
aI00
aI01
aa(lp2385
I234378
aF209.001
aF377.493
aVp4
p2386
aS'utopia'
p2387
aS'#656565'
p2388
aF10.3669
aI0
aI00
aI00
aI01
aI01
aI01
aI00
aI00
aI00
aa(lp2389
I89480
aF231.956
aF377.493
aVp4
p2390
aS'utopia'
p2391
aS'#656565'
p2392
aF10.3669
aI0
aI00
aI00
aI00
aI00
aI00
aI00
aI00
aI00
aa(lp2393
I37515
aF243.804
aF377.493
aVp4
p2394
aS'utopia'
p2395
aS'#656565'
p2396
aF10.3669
aI0
aI01
aI00
aI00
aI00
aI00
aI00
aI00
aI01
aa(lp2397
I234378
aF266.019
aF377.493
aVp4
p2398
aS'utopia'
p2399
aS'#656565'
p2400
aF10.3669
aI0
aI00
aI00
aI01
aI01
aI01
aI00
aI00
aI00
aa(lp2401
I234378
aF40.9084
aF393.784
aVp4
p2402
aS'utopia'
p2403
aS'#656565'
p2404
aF10.3669
aI0
aI01
aI00
aI00
aI00
aI00
aI00
aI00
aI00
aa(lp2405
I109610
aF40.9084
aF409.912
aVp4
p2406
aS'utopia'
p2407
aS'#656565'
p2408
aF8.88595
aI0
aI01
aI00
aI00
aI00
aI00
aI00
aI00
aI00
aa(lp2409
I25729
aF58.6803
aF409.912
aVp4
p2410
aS'utopia'
p2411
aS'#656565'
p2412
aF8.88595
aI0
aI01
aI00
aI00
aI00
aI00
aI00
aI00
aI00
aa(lp2413
I234378
aF76.54462000000001
aF409.912
ag2410
aS'utopia'
p2414
aS'#656565'
p2415
aF8.88595
aI0
aI00
aI00
aI00
aI00
aI00
aI00
aI00
aI00
aa(lp2416
I21716
aF85.3382
aF409.912
aVp4
p2417
aS'utopia'
p2418
aS'#656565'
p2419
aF8.88595
aI0
aI01
aI00
aI00
aI00
aI00
aI00
aI00
aI00
aa(lp2420
I234378
aF100.24052
aF409.912
ag2417
aS'utopia'
p2421
aS'#656565'
p2422
aF8.88595
aI0
aI00
aI00
aI00
aI00
aI00
aI00
aI00
aI00
aa(lp2423
I234378
aF106.072
aF409.912
aVp4
p2424
aS'utopia'
p2425
aS'#656565'
p2426
aF8.88595
aI0
aI01
aI01
aI00
aI00
aI00
aI00
aI00
aI00
aa(lp2427
I234378
aF117.26605
aF409.912
ag2424
aS'utopia'
p2428
aS'#656565'
p2429
aF8.88595
aI0
aI00
aI00
aI00
aI00
aI00
aI00
aI00
aI00
aa(lp2430
I234378
aF123.103
aF409.912
aVp4
p2431
aS'utopia'
p2432
aS'#656565'
p2433
aF8.88595
aI0
aI01
aI01
aI00
aI00
aI00
aI00
aI00
aI00
aa(lp2434
I234378
aF145.22755
aF409.912
ag2431
aS'utopia'
p2435
aS'#656565'
p2436
aF8.88595
aI0
aI00
aI00
aI00
aI00
aI00
aI00
aI00
aI00
aa(lp2437
I234378
aF150.7586875
aF409.912
ag2431
aS'utopia'
p2438
aS'#656565'
p2439
aF8.88595
aI0
aI01
aI01
aI00
aI00
aI00
aI00
aI00
aI00
aa(lp2440
I210461
aF40.9084
aF423.982
aVp4
p2441
aS'utopia'
p2442
aS'#656565'
p2443
aF8.88595
aI0
aI01
aI00
aI00
aI00
aI00
aI00
aI00
aI00
aa(lp2444
I340
aF65.3448
aF423.982
aVp4
p2445
aS'utopia'
p2446
aS'#656565'
p2447
aF8.88595
aI0
aI01
aI00
aI00
aI00
aI00
aI00
aI00
aI00
aa(lp2448
I234378
aF79.65472000000001
aF423.982
ag2445
aS'utopia'
p2449
aS'#656565'
p2450
aF8.88595
aI0
aI00
aI00
aI00
aI00
aI00
aI00
aI00
aI00
aa(lp2451
I234378
aF87.5597
aF423.982
aVp4
p2452
aS'utopia'
p2453
aS'#656565'
p2454
aF8.88595
aI0
aI00
aI00
aI01
aI01
aI00
aI00
aI00
aI00
aa(lp2455
I176435
aF40.9084
aF438.051
aVp4
p2456
aS'utopia'
p2457
aS'#656565'
p2458
aF8.88595
aI0
aI01
aI00
aI00
aI00
aI00
aI00
aI00
aI00
aa(lp2459
I234378
aF60.9018
aF438.051
aVp4
p2460
aS'utopia'
p2461
aS'#656565'
p2462
aF8.88595
aI0
aI00
aI00
aI00
aI00
aI00
aI00
aI00
aI00
aa(lp2463
I150037
aF67.5663
aF438.051
aVp4
p2464
aS'utopia'
p2465
aS'#656565'
p2466
aF8.88595
aI0
aI01
aI00
aI00
aI00
aI00
aI00
aI00
aI00
aa(lp2467
I176435
aF40.9084
aF452.121
aVp4
p2468
aS'utopia'
p2469
aS'#656565'
p2470
aF8.88595
aI0
aI01
aI00
aI00
aI00
aI00
aI00
aI00
aI00
aa(lp2471
I66756
aF60.9018
aF452.121
aVp4
p2472
aS'utopia'
p2473
aS'#656565'
p2474
aF8.88595
aI0
aI01
aI00
aI00
aI00
aI00
aI00
aI00
aI00
aa(lp2475
I234378
aF105.12885833333334
aF452.121
ag2472
aS'utopia'
p2476
aS'#656565'
p2477
aF8.88595
aI0
aI00
aI00
aI00
aI00
aI00
aI00
aI00
aI00
aa(lp2478
I100815
aF113.477
aF452.121
aVp4
p2479
aS'utopia'
p2480
aS'#656565'
p2481
aF8.88595
aI0
aI01
aI00
aI00
aI00
aI00
aI00
aI00
aI00
aa(lp2482
I177958
aF40.9084
aF466.19
aVp4
p2483
aS'utopia'
p2484
aS'#656565'
p2485
aF8.88595
aI0
aI01
aI00
aI00
aI00
aI00
aI00
aI00
aI00
aa(lp2486
I234378
aF71.2688
aF466.19
aVp4
p2487
aS'utopia'
p2488
aS'#656565'
p2489
aF8.88595
aI0
aI01
aI00
aI00
aI00
aI00
aI00
aI00
aI00
aa(lp2490
I234378
aF96.6393375
aF466.19
ag2487
aS'utopia'
p2491
aS'#656565'
p2492
aF8.88595
aI0
aI00
aI00
aI00
aI00
aI00
aI00
aI00
aI00
aa(lp2493
I194354
aF104.591
aF466.19
aVp4
p2494
aS'utopia'
p2495
aS'#656565'
p2496
aF8.88595
aI0
aI01
aI00
aI00
aI00
aI00
aI00
aI00
aI00
aa(lp2497
I77936
aF121.622
aF466.19
aVp4
p2498
aS'utopia'
p2499
aS'#656565'
p2500
aF8.88595
aI0
aI00
aI00
aI00
aI00
aI00
aI00
aI00
aI00
aa(lp2501
I144489
aF159.388
aF466.19
aVp4
p2502
aS'utopia'
p2503
aS'#656565'
p2504
aF8.88595
aI0
aI00
aI00
aI00
aI00
aI00
aI00
aI00
aI00
aa(lp2505
I46544
aF169.755
aF466.19
aVp4
p2506
aS'utopia'
p2507
aS'#656565'
p2508
aF8.88595
aI0
aI00
aI00
aI00
aI00
aI00
aI00
aI00
aI00
aa(lp2509
I177958
aF186.046
aF466.19
aVp4
p2510
aS'utopia'
p2511
aS'#656565'
p2512
aF8.88595
aI0
aI00
aI00
aI00
aI00
aI00
aI00
aI00
aI00
aa(lp2513
I209115
aF216.406
aF466.19
aVp4
p2514
aS'utopia'
p2515
aS'#656565'
p2516
aF8.88595
aI0
aI00
aI00
aI00
aI00
aI00
aI00
aI00
aI00
aa(lp2517
I89480
aF233.437
aF466.19
aVp4
p2518
aS'utopia'
p2519
aS'#656565'
p2520
aF8.88595
aI0
aI00
aI00
aI00
aI00
aI00
aI00
aI00
aI00
aa(lp2521
I182776
aF243.804
aF466.19
aVp4
p2522
aS'utopia'
p2523
aS'#656565'
p2524
aF8.88595
aI0
aI00
aI00
aI00
aI00
aI00
aI00
aI00
aI00
aa(lp2525
I194354
aF273.424
aF466.19
aVp4
p2526
aS'utopia'
p2527
aS'#656565'
p2528
aF8.88595
aI0
aI00
aI00
aI00
aI00
aI00
aI00
aI00
aI00
aa(lp2529
I75081
aF288.234
aF466.19
aVp4
p2530
aS'utopia'
p2531
aS'#656565'
p2532
aF8.88595
aI0
aI00
aI00
aI00
aI00
aI00
aI00
aI00
aI00
aa(lp2533
I144489
aF322.297
aF466.19
aVp4
p2534
aS'utopia'
p2535
aS'#656565'
p2536
aF8.88595
aI0
aI00
aI00
aI00
aI00
aI00
aI00
aI00
aI00
aa(lp2537
I234378
aF332.664
aF466.19
aVp4
p2538
aS'utopia'
p2539
aS'#656565'
p2540
aF8.88595
aI0
aI00
aI00
aI00
aI00
aI00
aI00
aI00
aI00
aa(lp2541
I234378
aF363.024
aF466.19
aVp4
p2542
aS'utopia'
p2543
aS'#656565'
p2544
aF8.88595
aI0
aI00
aI00
aI00
aI00
aI00
aI00
aI00
aI00
aa(lp2545
I192651
aF391.163
aF466.19
aVp4
p2546
aS'utopia'
p2547
aS'#656565'
p2548
aF8.88595
aI0
aI00
aI00
aI00
aI00
aI00
aI00
aI00
aI00
aa(lp2549
I196036
aF403.011
aF466.19
aVp4
p2550
aS'utopia'
p2551
aS'#656565'
p2552
aF8.88595
aI0
aI00
aI00
aI00
aI00
aI00
aI00
aI00
aI00
aa(lp2553
I161823
aF423.745
aF466.19
aVp4
p2554
aS'utopia'
p2555
aS'#656565'
p2556
aF8.88595
aI0
aI00
aI00
aI00
aI00
aI00
aI00
aI00
aI00
aa(lp2557
I49373
aF457.067
aF466.19
aVp4
p2558
aS'utopia'
p2559
aS'#656565'
p2560
aF8.88595
aI0
aI00
aI00
aI00
aI00
aI00
aI00
aI00
aI00
aa(lp2561
I234378
aF480.022
aF466.19
aVp4
p2562
aS'utopia'
p2563
aS'#656565'
p2564
aF8.88595
aI0
aI00
aI00
aI00
aI00
aI00
aI00
aI00
aI00
aa(lp2565
I16329
aF516.307
aF466.19
aVp4
p2566
aS'utopia'
p2567
aS'#656565'
p2568
aF8.88595
aI0
aI00
aI00
aI00
aI00
aI00
aI00
aI00
aI00
aa(lp2569
I74833
aF40.9084
aF476.557
aVp4
p2570
aS'utopia'
p2571
aS'#656565'
p2572
aF8.88595
aI0
aI01
aI00
aI00
aI00
aI00
aI00
aI00
aI00
aa(lp2573
I131049
aF69.0473
aF476.557
aVp4
p2574
aS'utopia'
p2575
aS'#656565'
p2576
aF8.88595
aI0
aI00
aI00
aI00
aI00
aI00
aI00
aI00
aI00
aa(lp2577
I194354
aF91.2621
aF476.557
aVp4
p2578
aS'utopia'
p2579
aS'#656565'
p2580
aF8.88595
aI0
aI00
aI00
aI00
aI00
aI00
aI00
aI00
aI00
aa(lp2581
I194002
aF106.072
aF476.557
aVp4
p2582
aS'utopia'
p2583
aS'#656565'
p2584
aF8.88595
aI0
aI00
aI00
aI00
aI00
aI00
aI00
aI00
aI00
aa(lp2585
I8241
aF119.401
aF476.557
aVp4
p2586
aS'utopia'
p2587
aS'#656565'
p2588
aF8.88595
aI0
aI00
aI00
aI00
aI00
aI00
aI00
aI00
aI00
aa(lp2589
I85582
aF136.432
aF476.557
aVp4
p2590
aS'utopia'
p2591
aS'#656565'
p2592
aF8.88595
aI0
aI00
aI00
aI00
aI00
aI00
aI00
aI00
aI00
aa(lp2593
I234378
aF170.10382222222222
aF476.557
ag2590
aS'utopia'
p2594
aS'#656565'
p2595
aF8.88595
aI0
aI00
aI00
aI00
aI00
aI00
aI00
aI00
aI00
aa(lp2596
I22476
aF176.419
aF476.557
aVp4
p2597
aS'utopia'
p2598
aS'#656565'
p2599
aF8.88595
aI0
aI01
aI00
aI00
aI00
aI00
aI00
aI00
aI00
aa(lp2600
I105322
aF184.565
aF476.557
aVp4
p2601
aS'utopia'
p2602
aS'#656565'
p2603
aF8.88595
aI0
aI00
aI00
aI00
aI00
aI00
aI00
aI00
aI00
aa(lp2604
I166867
aF220.108
aF476.557
aVp4
p2605
aS'utopia'
p2606
aS'#656565'
p2607
aF8.88595
aI0
aI00
aI00
aI00
aI00
aI00
aI00
aI00
aI00
aa(lp2608
I194354
aF257.133
aF476.557
aVp4
p2609
aS'utopia'
p2610
aS'#656565'
p2611
aF8.88595
aI0
aI00
aI00
aI00
aI00
aI00
aI00
aI00
aI00
aa(lp2612
I234378
aF271.943
aF476.557
aVp4
p2613
aS'utopia'
p2614
aS'#656565'
p2615
aF8.88595
aI0
aI00
aI00
aI00
aI00
aI00
aI00
aI00
aI00
aa(lp2616
I85218
aF308.968
aF476.557
aVp4
p2617
aS'utopia'
p2618
aS'#656565'
p2619
aF8.88595
aI0
aI00
aI00
aI00
aI00
aI00
aI00
aI00
aI00
aa(lp2620
I234378
aF325.999
aF476.557
aVp4
p2621
aS'utopia'
p2622
aS'#656565'
p2623
aF8.88595
aI0
aI00
aI00
aI00
aI00
aI00
aI00
aI00
aI00
aa(lp2624
I194354
aF365.986
aF476.557
aVp4
p2625
aS'utopia'
p2626
aS'#656565'
p2627
aF8.88595
aI0
aI00
aI00
aI00
aI00
aI00
aI00
aI00
aI00
aa(lp2628
I234378
aF380.796
aF476.557
aVp4
p2629
aS'utopia'
p2630
aS'#656565'
p2631
aF8.88595
aI0
aI00
aI00
aI00
aI00
aI00
aI00
aI00
aI00
aa(lp2632
I190806
aF413.378
aF476.557
aVp4
p2633
aS'utopia'
p2634
aS'#656565'
p2635
aF8.88595
aI0
aI00
aI00
aI00
aI00
aI00
aI00
aI00
aI00
aa(lp2636
I196036
aF427.447
aF476.557
aVp4
p2637
aS'utopia'
p2638
aS'#656565'
p2639
aF8.88595
aI0
aI00
aI00
aI00
aI00
aI00
aI00
aI00
aI00
aa(lp2640
I161823
aF448.181
aF476.557
aVp4
p2641
aS'utopia'
p2642
aS'#656565'
p2643
aF8.88595
aI0
aI00
aI00
aI00
aI00
aI00
aI00
aI00
aI00
aa(lp2644
I85218
aF481.503
aF476.557
aVp4
p2645
aS'utopia'
p2646
aS'#656565'
p2647
aF8.88595
aI0
aI00
aI00
aI00
aI00
aI00
aI00
aI00
aI00
aa(lp2648
I194354
aF498.535
aF476.557
aVp4
p2649
aS'utopia'
p2650
aS'#656565'
p2651
aF8.88595
aI0
aI00
aI00
aI00
aI00
aI00
aI00
aI00
aI00
aa(lp2652
I75081
aF513.345
aF476.557
aVp4
p2653
aS'utopia'
p2654
aS'#656565'
p2655
aF8.88595
aI0
aI00
aI00
aI00
aI00
aI00
aI00
aI00
aI00
aa(lp2656
I144489
aF40.9084
aF486.924
aVp4
p2657
aS'utopia'
p2658
aS'#656565'
p2659
aF8.88595
aI0
aI00
aI00
aI00
aI00
aI00
aI00
aI00
aI00
aa(lp2660
I234378
aF51.2754
aF486.924
aVp4
p2661
aS'utopia'
p2662
aS'#656565'
p2663
aF8.88595
aI0
aI00
aI00
aI00
aI00
aI00
aI00
aI00
aI00
aa(lp2664
I234378
aF81.6357
aF486.924
aVp4
p2665
aS'utopia'
p2666
aS'#656565'
p2667
aF8.88595
aI0
aI00
aI00
aI00
aI00
aI00
aI00
aI00
aI00
aa(lp2668
I192651
aF109.775
aF486.924
aVp4
p2669
aS'utopia'
p2670
aS'#656565'
p2671
aF8.88595
aI0
aI00
aI00
aI00
aI00
aI00
aI00
aI00
aI00
aa(lp2672
I194354
aF121.622
aF486.924
aVp4
p2673
aS'utopia'
p2674
aS'#656565'
p2675
aF8.88595
aI0
aI00
aI00
aI00
aI00
aI00
aI00
aI00
aI00
aa(lp2676
I161823
aF136.432
aF486.924
aVp4
p2677
aS'utopia'
p2678
aS'#656565'
p2679
aF8.88595
aI0
aI00
aI00
aI00
aI00
aI00
aI00
aI00
aI00
aa(lp2680
I190806
aF169.755
aF486.924
aVp4
p2681
aS'utopia'
p2682
aS'#656565'
p2683
aF8.88595
aI0
aI00
aI00
aI00
aI00
aI00
aI00
aI00
aI00
aa(lp2684
I194354
aF183.824
aF486.924
aVp4
p2685
aS'utopia'
p2686
aS'#656565'
p2687
aF8.88595
aI0
aI00
aI00
aI00
aI00
aI00
aI00
aI00
aI00
aa(lp2688
I123405
aF198.634
aF486.924
aVp4
p2689
aS'utopia'
p2690
aS'#656565'
p2691
aF8.88595
aI0
aI00
aI00
aI00
aI00
aI00
aI00
aI00
aI00
aa(lp2692
I74833
aF232.697
aF486.924
aVp4
p2693
aS'utopia'
p2694
aS'#656565'
p2695
aF8.88595
aI0
aI00
aI00
aI00
aI00
aI00
aI00
aI00
aI00
aa(lp2696
I144503
aF259.355
aF486.924
aVp4
p2697
aS'utopia'
p2698
aS'#656565'
p2699
aF8.88595
aI0
aI00
aI00
aI00
aI00
aI00
aI00
aI00
aI00
aa(lp2700
I41890
aF270.462
aF486.924
aVp4
p2701
aS'utopia'
p2702
aS'#656565'
p2703
aF8.88595
aI0
aI00
aI00
aI00
aI00
aI00
aI00
aI00
aI00
aa(lp2704
I194354
aF281.57
aF486.924
aVp4
p2705
aS'utopia'
p2706
aS'#656565'
p2707
aF8.88595
aI0
aI00
aI00
aI00
aI00
aI00
aI00
aI00
aI00
aa(lp2708
I234378
aF296.379
aF486.924
aVp4
p2709
aS'utopia'
p2710
aS'#656565'
p2711
aF8.88595
aI0
aI00
aI00
aI00
aI00
aI00
aI00
aI00
aI00
aa(lp2712
I234378
aF323.04532500000005
aF486.924
ag2709
aS'utopia'
p2713
aS'#656565'
p2714
aF8.88595
aI0
aI00
aI00
aI00
aI00
aI00
aI00
aI00
aI00
aa(lp2715
I167832
aF40.9084
aF523.842
aVp4
p2716
aS'utopia'
p2717
aS'#000000'
p2718
aF10.3669
aI1
aI01
aI00
aI00
aI00
aI00
aI00
aI00
aI00
aa(lp2719
I234378
aF81.6357
aF523.842
aVp4
p2720
aS'utopia'
p2721
aS'#000000'
p2722
aF10.3669
aI1
aI01
aI00
aI00
aI00
aI00
aI00
aI00
aI00
aa(lp2723
I234378
aF40.9084
aF540.402
aVp4
p2724
aS'utopia'
p2725
aS'#656565'
p2726
aF10.3669
aI0
aI01
aI01
aI00
aI00
aI00
aI00
aI00
aI00
aa(lp2727
I234378
aF76.4522
aF540.402
aVp4
p2728
aS'utopia'
p2729
aS'#656565'
p2730
aF10.3669
aI0
aI01
aI00
aI00
aI00
aI00
aI00
aI00
aI00
aa(lp2731
I60201
aF114.218
aF540.402
aVp4
p2732
aS'utopia'
p2733
aS'#656565'
p2734
aF10.3669
aI0
aI01
aI00
aI00
aI00
aI00
aI00
aI00
aI00
aa(lp2735
I230071
aF134.211
aF540.402
aVp4
p2736
aS'utopia'
p2737
aS'#656565'
p2738
aF10.3669
aI0
aI01
aI00
aI00
aI00
aI00
aI00
aI00
aI00
aa(lp2739
I131049
aF165.312
aF540.402
aVp4
p2740
aS'utopia'
p2741
aS'#656565'
p2742
aF10.3669
aI0
aI00
aI00
aI00
aI00
aI00
aI00
aI00
aI00
aa(lp2743
I234378
aF189.748
aF540.402
aVp4
p2744
aS'utopia'
p2745
aS'#656565'
p2746
aF10.3669
aI0
aI01
aI00
aI00
aI00
aI00
aI00
aI00
aI01
aa(lp2747
I234378
aF209.741
aF540.402
aVp4
p2748
aS'utopia'
p2749
aS'#656565'
p2750
aF10.3669
aI0
aI00
aI00
aI01
aI01
aI01
aI00
aI00
aI00
aa(lp2751
I89480
aF232.697
aF540.402
aVp4
p2752
aS'utopia'
p2753
aS'#656565'
p2754
aF10.3669
aI0
aI00
aI00
aI00
aI00
aI00
aI00
aI00
aI00
aa(lp2755
I234378
aF244.545
aF540.402
aVp4
p2756
aS'utopia'
p2757
aS'#656565'
p2758
aF10.3669
aI0
aI01
aI00
aI00
aI00
aI00
aI00
aI00
aI01
aa(lp2759
I234378
aF266.019
aF540.402
aVp4
p2760
aS'utopia'
p2761
aS'#656565'
p2762
aF10.3669
aI0
aI00
aI00
aI01
aI01
aI01
aI00
aI00
aI00
aa(lp2763
I234378
aF40.9084
aF556.693
aVp4
p2764
aS'utopia'
p2765
aS'#656565'
p2766
aF10.3669
aI0
aI01
aI00
aI00
aI00
aI00
aI00
aI00
aI00
aa(lp2767
I109610
aF40.9084
aF572.821
aVp4
p2768
aS'utopia'
p2769
aS'#656565'
p2770
aF8.88595
aI0
aI01
aI00
aI00
aI00
aI00
aI00
aI00
aI00
aa(lp2771
I25729
aF58.6803
aF572.821
aVp4
p2772
aS'utopia'
p2773
aS'#656565'
p2774
aF8.88595
aI0
aI01
aI00
aI00
aI00
aI00
aI00
aI00
aI00
aa(lp2775
I234378
aF76.54462000000001
aF572.821
ag2772
aS'utopia'
p2776
aS'#656565'
p2777
aF8.88595
aI0
aI00
aI00
aI00
aI00
aI00
aI00
aI00
aI00
aa(lp2778
I21716
aF85.3382
aF572.821
aVp4
p2779
aS'utopia'
p2780
aS'#656565'
p2781
aF8.88595
aI0
aI01
aI00
aI00
aI00
aI00
aI00
aI00
aI00
aa(lp2782
I234378
aF100.24052
aF572.821
ag2779
aS'utopia'
p2783
aS'#656565'
p2784
aF8.88595
aI0
aI00
aI00
aI00
aI00
aI00
aI00
aI00
aI00
aa(lp2785
I234378
aF106.072
aF572.821
aVp4
p2786
aS'utopia'
p2787
aS'#656565'
p2788
aF8.88595
aI0
aI01
aI01
aI00
aI00
aI00
aI00
aI00
aI00
aa(lp2789
I234378
aF117.26605
aF572.821
ag2786
aS'utopia'
p2790
aS'#656565'
p2791
aF8.88595
aI0
aI00
aI00
aI00
aI00
aI00
aI00
aI00
aI00
aa(lp2792
I234378
aF123.103
aF572.821
aVp4
p2793
aS'utopia'
p2794
aS'#656565'
p2795
aF8.88595
aI0
aI01
aI01
aI00
aI00
aI00
aI00
aI00
aI00
aa(lp2796
I234378
aF145.22755
aF572.821
ag2793
aS'utopia'
p2797
aS'#656565'
p2798
aF8.88595
aI0
aI00
aI00
aI00
aI00
aI00
aI00
aI00
aI00
aa(lp2799
I234378
aF150.7586875
aF572.821
ag2793
aS'utopia'
p2800
aS'#656565'
p2801
aF8.88595
aI0
aI01
aI01
aI00
aI00
aI00
aI00
aI00
aI00
aa(lp2802
I210461
aF40.9084
aF586.891
aVp4
p2803
aS'utopia'
p2804
aS'#656565'
p2805
aF8.88595
aI0
aI01
aI00
aI00
aI00
aI00
aI00
aI00
aI00
aa(lp2806
I340
aF65.3448
aF586.891
aVp4
p2807
aS'utopia'
p2808
aS'#656565'
p2809
aF8.88595
aI0
aI01
aI00
aI00
aI00
aI00
aI00
aI00
aI00
aa(lp2810
I234378
aF79.65472000000001
aF586.891
ag2807
aS'utopia'
p2811
aS'#656565'
p2812
aF8.88595
aI0
aI00
aI00
aI00
aI00
aI00
aI00
aI00
aI00
aa(lp2813
I234378
aF87.5597
aF586.891
aVp4
p2814
aS'utopia'
p2815
aS'#656565'
p2816
aF8.88595
aI0
aI00
aI00
aI01
aI01
aI00
aI00
aI00
aI00
aa(lp2817
I176435
aF40.9084
aF600.96
aVp4
p2818
aS'utopia'
p2819
aS'#656565'
p2820
aF8.88595
aI0
aI01
aI00
aI00
aI00
aI00
aI00
aI00
aI00
aa(lp2821
I234378
aF60.9018
aF600.96
aVp4
p2822
aS'utopia'
p2823
aS'#656565'
p2824
aF8.88595
aI0
aI00
aI00
aI00
aI00
aI00
aI00
aI00
aI00
aa(lp2825
I150037
aF67.5663
aF600.96
aVp4
p2826
aS'utopia'
p2827
aS'#656565'
p2828
aF8.88595
aI0
aI01
aI00
aI00
aI00
aI00
aI00
aI00
aI00
aa(lp2829
I176435
aF40.9084
aF615.03
aVp4
p2830
aS'utopia'
p2831
aS'#656565'
p2832
aF8.88595
aI0
aI01
aI00
aI00
aI00
aI00
aI00
aI00
aI00
aa(lp2833
I66756
aF60.9018
aF615.03
aVp4
p2834
aS'utopia'
p2835
aS'#656565'
p2836
aF8.88595
aI0
aI01
aI00
aI00
aI00
aI00
aI00
aI00
aI00
aa(lp2837
I234378
aF105.12885833333334
aF615.03
ag2834
aS'utopia'
p2838
aS'#656565'
p2839
aF8.88595
aI0
aI00
aI00
aI00
aI00
aI00
aI00
aI00
aI00
aa(lp2840
I100815
aF113.477
aF615.03
aVp4
p2841
aS'utopia'
p2842
aS'#656565'
p2843
aF8.88595
aI0
aI01
aI00
aI00
aI00
aI00
aI00
aI00
aI00
aa(lp2844
I177958
aF40.9084
aF629.099
aVp4
p2845
aS'utopia'
p2846
aS'#656565'
p2847
aF8.88595
aI0
aI01
aI00
aI00
aI00
aI00
aI00
aI00
aI00
aa(lp2848
I234378
aF71.2688
aF629.099
aVp4
p2849
aS'utopia'
p2850
aS'#656565'
p2851
aF8.88595
aI0
aI01
aI00
aI00
aI00
aI00
aI00
aI00
aI00
aa(lp2852
I234378
aF96.6393375
aF629.099
ag2849
aS'utopia'
p2853
aS'#656565'
p2854
aF8.88595
aI0
aI00
aI00
aI00
aI00
aI00
aI00
aI00
aI00
aa(lp2855
I194354
aF104.591
aF629.099
aVp4
p2856
aS'utopia'
p2857
aS'#656565'
p2858
aF8.88595
aI0
aI01
aI00
aI00
aI00
aI00
aI00
aI00
aI00
aa(lp2859
I169406
aF121.622
aF629.099
aVp4
p2860
aS'utopia'
p2861
aS'#656565'
p2862
aF8.88595
aI0
aI00
aI00
aI00
aI00
aI00
aI00
aI00
aI00
aa(lp2863
I40943
aF143.837
aF629.099
aVp4
p2864
aS'utopia'
p2865
aS'#656565'
p2866
aF8.88595
aI0
aI00
aI00
aI00
aI00
aI00
aI00
aI00
aI00
aa(lp2867
I209115
aF167.533
aF629.099
aVp4
p2868
aS'utopia'
p2869
aS'#656565'
p2870
aF8.88595
aI0
aI00
aI00
aI00
aI00
aI00
aI00
aI00
aI00
aa(lp2871
I89480
aF184.565
aF629.099
aVp4
p2872
aS'utopia'
p2873
aS'#656565'
p2874
aF8.88595
aI0
aI00
aI00
aI00
aI00
aI00
aI00
aI00
aI00
aa(lp2875
I211631
aF194.932
aF629.099
aVp4
p2876
aS'utopia'
p2877
aS'#656565'
p2878
aF8.88595
aI0
aI00
aI00
aI00
aI00
aI00
aI00
aI00
aI00
aa(lp2879
I92710
aF239.361
aF629.099
aVp4
p2880
aS'utopia'
p2881
aS'#656565'
p2882
aF8.88595
aI0
aI00
aI00
aI00
aI00
aI00
aI00
aI00
aI00
aa(lp2883
I194354
aF274.905
aF629.099
aVp4
p2884
aS'utopia'
p2885
aS'#656565'
p2886
aF8.88595
aI0
aI00
aI00
aI00
aI00
aI00
aI00
aI00
aI00
aa(lp2887
I170895
aF289.715
aF629.099
aVp4
p2888
aS'utopia'
p2889
aS'#656565'
p2890
aF8.88595
aI0
aI00
aI00
aI00
aI00
aI00
aI00
aI00
aI00
aa(lp2891
I85218
aF314.892
aF629.099
aVp4
p2892
aS'utopia'
p2893
aS'#656565'
p2894
aF8.88595
aI0
aI00
aI00
aI00
aI00
aI00
aI00
aI00
aI00
aa(lp2895
I145346
aF331.923
aF629.099
aVp4
p2896
aS'utopia'
p2897
aS'#656565'
p2898
aF8.88595
aI0
aI00
aI00
aI00
aI00
aI00
aI00
aI00
aI00
aa(lp2899
I234378
aF364.505
aF629.099
aVp4
p2900
aS'utopia'
p2901
aS'#656565'
p2902
aF8.88595
aI0
aI00
aI00
aI00
aI00
aI00
aI00
aI00
aI00
aa(lp2903
I175989
aF401.53
aF629.099
aVp4
p2904
aS'utopia'
p2905
aS'#656565'
p2906
aF8.88595
aI0
aI00
aI00
aI00
aI00
aI00
aI00
aI00
aI00
aa(lp2907
I118076
aF419.302
aF629.099
aVp4
p2908
aS'utopia'
p2909
aS'#656565'
p2910
aF8.88595
aI0
aI00
aI00
aI00
aI00
aI00
aI00
aI00
aI00
aa(lp2911
I234378
aF436.333
aF629.099
aVp4
p2912
aS'utopia'
p2913
aS'#656565'
p2914
aF8.88595
aI0
aI00
aI00
aI00
aI00
aI00
aI00
aI00
aI00
aa(lp2915
I84625
aF464.472
aF629.099
aVp4
p2916
aS'utopia'
p2917
aS'#656565'
p2918
aF8.88595
aI0
aI00
aI00
aI00
aI00
aI00
aI00
aI00
aI00
aa(lp2919
I225147
aF496.313
aF629.099
aVp4
p2920
aS'utopia'
p2921
aS'#656565'
p2922
aF8.88595
aI0
aI00
aI00
aI00
aI00
aI00
aI00
aI00
aI00
aa(lp2923
I144489
aF529.636
aF629.099
aVp4
p2924
aS'utopia'
p2925
aS'#656565'
p2926
aF8.88595
aI0
aI00
aI00
aI00
aI00
aI00
aI00
aI00
aI00
aa(lp2927
I234378
aF40.9084
aF639.466
aVp4
p2928
aS'utopia'
p2929
aS'#656565'
p2930
aF8.88595
aI0
aI00
aI00
aI00
aI00
aI00
aI00
aI00
aI00
aa(lp2931
I49703
aF90.5217
aF639.466
aVp4
p2932
aS'utopia'
p2933
aS'#656565'
p2934
aF8.88595
aI0
aI00
aI00
aI00
aI00
aI00
aI00
aI00
aI00
aa(lp2935
I81196
aF113.477
aF639.466
aVp4
p2936
aS'utopia'
p2937
aS'#656565'
p2938
aF8.88595
aI0
aI00
aI00
aI00
aI00
aI00
aI00
aI00
aI00
aa(lp2939
I89480
aF148.28
aF639.466
aVp4
p2940
aS'utopia'
p2941
aS'#656565'
p2942
aF8.88595
aI0
aI00
aI00
aI00
aI00
aI00
aI00
aI00
aI00
aa(lp2943
I166593
aF158.647
aF639.466
aVp4
p2944
aS'utopia'
p2945
aS'#656565'
p2946
aF8.88595
aI0
aI00
aI00
aI00
aI00
aI00
aI00
aI00
aI00
aa(lp2947
I161823
aF165.312
aF639.466
aVp4
p2948
aS'utopia'
p2949
aS'#656565'
p2950
aF8.88595
aI0
aI00
aI00
aI00
aI00
aI00
aI00
aI00
aI00
aa(lp2951
I85218
aF198.634
aF639.466
aVp4
p2952
aS'utopia'
p2953
aS'#656565'
p2954
aF8.88595
aI0
aI00
aI00
aI00
aI00
aI00
aI00
aI00
aI00
aa(lp2955
I77389
aF215.665
aF639.466
aVp4
p2956
aS'utopia'
p2957
aS'#656565'
p2958
aF8.88595
aI0
aI00
aI00
aI00
aI00
aI00
aI00
aI00
aI00
aa(lp2959
I182776
aF263.798
aF639.466
aVp4
p2960
aS'utopia'
p2961
aS'#656565'
p2962
aF8.88595
aI0
aI00
aI00
aI00
aI00
aI00
aI00
aI00
aI00
aa(lp2963
I22476
aF293.418
aF639.466
aVp4
p2964
aS'utopia'
p2965
aS'#656565'
p2966
aF8.88595
aI0
aI00
aI00
aI00
aI00
aI00
aI00
aI00
aI00
aa(lp2967
I144483
aF300.822
aF639.466
aVp4
p2968
aS'utopia'
p2969
aS'#656565'
p2970
aF8.88595
aI0
aI00
aI00
aI00
aI00
aI00
aI00
aI00
aI00
aa(lp2971
I194354
aF313.411
aF639.466
aVp4
p2972
aS'utopia'
p2973
aS'#656565'
p2974
aF8.88595
aI0
aI00
aI00
aI00
aI00
aI00
aI00
aI00
aI00
aa(lp2975
I168333
aF328.221
aF639.466
aVp4
p2976
aS'utopia'
p2977
aS'#656565'
p2978
aF8.88595
aI0
aI01
aI00
aI00
aI00
aI00
aI00
aI00
aI00
aa(lp2979
I95887
aF370.429
aF639.466
aVp4
p2980
aS'utopia'
p2981
aS'#656565'
p2982
aF8.88595
aI0
aI01
aI00
aI00
aI00
aI00
aI00
aI00
aI00
aa(lp2983
I234378
aF407.454
aF639.466
aVp4
p2984
aS'utopia'
p2985
aS'#656565'
p2986
aF8.88595
aI0
aI01
aI01
aI00
aI00
aI00
aI00
aI00
aI00
aa(lp2987
I234378
aF415.42966666666666
aF639.466
ag2984
aS'utopia'
p2988
aS'#656565'
p2989
aF8.88595
aI0
aI00
aI00
aI00
aI00
aI00
aI00
aI00
aI00
aa(lp2990
I46544
aF421.523
aF639.466
aVp4
p2991
aS'utopia'
p2992
aS'#656565'
p2993
aF8.88595
aI0
aI01
aI00
aI00
aI00
aI00
aI00
aI00
aI00
aa(lp2994
I105322
aF440.036
aF639.466
aVp4
p2995
aS'utopia'
p2996
aS'#656565'
p2997
aF8.88595
aI0
aI00
aI00
aI00
aI00
aI00
aI00
aI00
aI00
aa(lp2998
I166867
aF475.579
aF639.466
aVp4
p2999
aS'utopia'
p3000
aS'#656565'
p3001
aF8.88595
aI0
aI00
aI00
aI00
aI00
aI00
aI00
aI00
aI00
aa(lp3002
I194354
aF512.604
aF639.466
aVp4
p3003
aS'utopia'
p3004
aS'#656565'
p3005
aF8.88595
aI0
aI00
aI00
aI00
aI00
aI00
aI00
aI00
aI00
aa(lp3006
I234378
aF40.9084
aF649.833
aVp4
p3007
aS'utopia'
p3008
aS'#656565'
p3009
aF8.88595
aI0
aI00
aI00
aI00
aI00
aI00
aI00
aI00
aI00
aa(lp3010
I85218
aF77.9332
aF649.833
aVp4
p3011
aS'utopia'
p3012
aS'#656565'
p3013
aF8.88595
aI0
aI00
aI00
aI00
aI00
aI00
aI00
aI00
aI00
aa(lp3014
I163414
aF94.9646
aF649.833
aVp4
p3015
aS'utopia'
p3016
aS'#656565'
p3017
aF8.88595
aI0
aI00
aI00
aI00
aI00
aI00
aI00
aI00
aI00
aa(lp3018
I194354
aF131.249
aF649.833
aVp4
p3019
aS'utopia'
p3020
aS'#656565'
p3021
aF8.88595
aI0
aI00
aI00
aI00
aI00
aI00
aI00
aI00
aI00
aa(lp3022
I170895
aF146.059
aF649.833
aVp4
p3023
aS'utopia'
p3024
aS'#656565'
p3025
aF8.88595
aI0
aI00
aI00
aI00
aI00
aI00
aI00
aI00
aI00
aa(lp3026
I85218
aF171.236
aF649.833
aVp4
p3027
aS'utopia'
p3028
aS'#656565'
p3029
aF8.88595
aI0
aI00
aI00
aI00
aI00
aI00
aI00
aI00
aI00
aa(lp3030
I145346
aF188.267
aF649.833
aVp4
p3031
aS'utopia'
p3032
aS'#656565'
p3033
aF8.88595
aI0
aI00
aI00
aI00
aI00
aI00
aI00
aI00
aI00
aa(lp3034
I234378
aF220.849
aF649.833
aVp4
p3035
aS'utopia'
p3036
aS'#656565'
p3037
aF8.88595
aI0
aI00
aI00
aI00
aI00
aI00
aI00
aI00
aI00
aa(lp3038
I77389
aF257.874
aF649.833
aVp4
p3039
aS'utopia'
p3040
aS'#656565'
p3041
aF8.88595
aI0
aI00
aI00
aI00
aI00
aI00
aI00
aI00
aI00
aa(lp3042
I234378
aF302.10105833333336
aF649.833
ag3039
aS'utopia'
p3043
aS'#656565'
p3044
aF8.88595
aI0
aI00
aI00
aI00
aI00
aI00
aI00
aI00
aI00
aa(lp3045
I58493
aF40.9084
aF686.751
aVp4
p3046
aS'utopia'
p3047
aS'#000000'
p3048
aF10.3669
aI1
aI01
aI01
aI00
aI00
aI00
aI00
aI00
aI00
aa(lp3049
I156028
aF63.8638
aF686.751
aVp4
p3050
aS'utopia'
p3051
aS'#000000'
p3052
aF10.3669
aI1
aI01
aI00
aI00
aI00
aI00
aI00
aI00
aI00
aa(lp3053
I234378
aF40.9084
aF703.312
aVp4
p3054
aS'utopia'
p3055
aS'#656565'
p3056
aF10.3669
aI0
aI01
aI01
aI00
aI00
aI00
aI00
aI00
aI00
aa(lp3057
I234378
aF76.4522
aF703.312
aVp4
p3058
aS'utopia'
p3059
aS'#656565'
p3060
aF10.3669
aI0
aI01
aI00
aI00
aI00
aI00
aI00
aI00
aI00
aa(lp3061
I60201
aF114.218
aF703.312
aVp4
p3062
aS'utopia'
p3063
aS'#656565'
p3064
aF10.3669
aI0
aI01
aI00
aI00
aI00
aI00
aI00
aI00
aI00
aa(lp3065
I230071
aF134.211
aF703.312
aVp4
p3066
aS'utopia'
p3067
aS'#656565'
p3068
aF10.3669
aI0
aI01
aI00
aI00
aI00
aI00
aI00
aI00
aI00
aa(lp3069
I131049
aF165.312
aF703.312
aVp4
p3070
aS'utopia'
p3071
aS'#656565'
p3072
aF10.3669
aI0
aI00
aI00
aI00
aI00
aI00
aI00
aI00
aI00
aa(lp3073
I27216
aF189.748
aF703.312
aVp4
p3074
aS'utopia'
p3075
aS'#656565'
p3076
aF10.3669
aI0
aI01
aI00
aI00
aI00
aI00
aI00
aI00
aI01
aa(lp3077
I234378
aF208.26
aF703.312
aVp4
p3078
aS'utopia'
p3079
aS'#656565'
p3080
aF10.3669
aI0
aI00
aI00
aI01
aI01
aI01
aI00
aI00
aI00
aa(lp3081
I89480
aF231.216
aF703.312
aVp4
p3082
aS'utopia'
p3083
aS'#656565'
p3084
aF10.3669
aI0
aI00
aI00
aI00
aI00
aI00
aI00
aI00
aI00
aa(lp3085
I234378
aF243.064
aF703.312
aVp4
p3086
aS'utopia'
p3087
aS'#656565'
p3088
aF10.3669
aI0
aI01
aI00
aI00
aI00
aI00
aI00
aI00
aI01
aa(lp3089
I234378
aF263.057
aF703.312
aVp4
p3090
aS'utopia'
p3091
aS'#656565'
p3092
aF10.3669
aI0
aI00
aI00
aI01
aI01
aI01
aI00
aI00
aI00
aa(lp3093
I234378
aF40.9084
aF719.602
aVp4
p3094
aS'utopia'
p3095
aS'#656565'
p3096
aF10.3669
aI0
aI01
aI00
aI00
aI00
aI00
aI00
aI00
aI00
aa(lp3097
I109610
aF40.9084
aF735.73
aVp4
p3098
aS'utopia'
p3099
aS'#656565'
p3100
aF8.88595
aI0
aI01
aI00
aI00
aI00
aI00
aI00
aI00
aI00
aa(lp3101
I25729
aF58.6803
aF735.73
aVp4
p3102
aS'utopia'
p3103
aS'#656565'
p3104
aF8.88595
aI0
aI01
aI00
aI00
aI00
aI00
aI00
aI00
aI00
aa(lp3105
I234378
aF76.54462000000001
aF735.73
ag3102
aS'utopia'
p3106
aS'#656565'
p3107
aF8.88595
aI0
aI00
aI00
aI00
aI00
aI00
aI00
aI00
aI00
aa(lp3108
I21716
aF85.3382
aF735.73
aVp4
p3109
aS'utopia'
p3110
aS'#656565'
p3111
aF8.88595
aI0
aI01
aI00
aI00
aI00
aI00
aI00
aI00
aI00
aa(lp3112
I234378
aF101.71897777777778
aF735.73
ag3109
aS'utopia'
p3113
aS'#656565'
p3114
aF8.88595
aI0
aI00
aI00
aI00
aI00
aI00
aI00
aI00
aI00
aa(lp3115
I234378
aF105.81417222222223
aF735.73
ag3109
aS'utopia'
p3116
aS'#656565'
p3117
aF8.88595
aI0
aI01
aI00
aI00
aI00
aI00
aI00
aI00
aI00
aa(lp3118
I234378
aF126.48053333333334
aF735.73
ag3109
aS'utopia'
p3119
aS'#656565'
p3120
aF8.88595
aI0
aI00
aI00
aI00
aI00
aI00
aI00
aI00
aI00
aa(lp3121
I234378
aF138.5757277777778
aF735.73
ag3109
aS'utopia'
p3122
aS'#656565'
p3123
aF8.88595
aI0
aI01
aI01
aI00
aI00
aI00
aI00
aI00
aI00
aa(lp3124
I234378
aF138.86131111111112
aF735.73
ag3109
aS'utopia'
p3125
aS'#656565'
p3126
aF8.88595
aI0
aI00
aI00
aI00
aI00
aI00
aI00
aI00
aI00
aa(lp3127
I234378
aF154.95650555555557
aF735.73
ag3109
aS'utopia'
p3128
aS'#656565'
p3129
aF8.88595
aI0
aI01
aI01
aI00
aI00
aI00
aI00
aI00
aI00
aa(lp3130
I234378
aF151.2420888888889
aF735.73
ag3109
aS'utopia'
p3131
aS'#656565'
p3132
aF8.88595
aI0
aI00
aI00
aI00
aI00
aI00
aI00
aI00
aI00
aa(lp3133
I234378
aF171.33728333333335
aF735.73
ag3109
aS'utopia'
p3134
aS'#656565'
p3135
aF8.88595
aI0
aI01
aI01
aI00
aI00
aI00
aI00
aI00
aI00
aa(lp3136
I234378
aF166.71806111111113
aF735.73
ag3109
aS'utopia'
p3137
aS'#656565'
p3138
aF8.88595
aI0
aI00
aI00
aI00
aI00
aI00
aI00
aI00
aI00
aa(lp3139
I234378
aF191.81325555555557
aF735.73
ag3109
aS'utopia'
p3140
aS'#656565'
p3141
aF8.88595
aI0
aI01
aI00
aI00
aI00
aI00
aI00
aI00
aI00
aa(lp3142
I210461
aF40.9084
aF749.8
aVp4
p3143
aS'utopia'
p3144
aS'#656565'
p3145
aF8.88595
aI0
aI01
aI00
aI00
aI00
aI00
aI00
aI00
aI00
aa(lp3146
I340
aF65.3448
aF749.8
aVp4
p3147
aS'utopia'
p3148
aS'#656565'
p3149
aF8.88595
aI0
aI01
aI00
aI00
aI00
aI00
aI00
aI00
aI00
aa(lp3150
I234378
aF79.65472000000001
aF749.8
ag3147
aS'utopia'
p3151
aS'#656565'
p3152
aF8.88595
aI0
aI00
aI00
aI00
aI00
aI00
aI00
aI00
aI00
aa(lp3153
I234378
aF87.5597
aF749.8
aVp4
p3154
aS'utopia'
p3155
aS'#656565'
p3156
aF8.88595
aI0
aI00
aI00
aI01
aI01
aI00
aI00
aI00
aI00
aa(lp3157
I176435
aF40.9084
aF763.869
aVp4
p3158
aS'utopia'
p3159
aS'#656565'
p3160
aF8.88595
aI0
aI01
aI00
aI00
aI00
aI00
aI00
aI00
aI00
aa(lp3161
I234378
aF60.9018
aF763.869
aVp4
p3162
aS'utopia'
p3163
aS'#656565'
p3164
aF8.88595
aI0
aI00
aI00
aI00
aI00
aI00
aI00
aI00
aI00
aa(lp3165
I150037
aF67.5663
aF763.869
aVp4
p3166
aS'utopia'
p3167
aS'#656565'
p3168
aF8.88595
aI0
aI01
aI00
aI00
aI00
aI00
aI00
aI00
aI00
aa(lp3169
I176435
aF40.9084
aF777.939
aVp4
p3170
aS'utopia'
p3171
aS'#656565'
p3172
aF8.88595
aI0
aI01
aI00
aI00
aI00
aI00
aI00
aI00
aI00
aa(lp3173
I66756
aF60.9018
aF777.939
aVp4
p3174
aS'utopia'
p3175
aS'#656565'
p3176
aF8.88595
aI0
aI01
aI00
aI00
aI00
aI00
aI00
aI00
aI00
aa(lp3177
I234378
aF105.12885833333334
aF777.939
ag3174
aS'utopia'
p3178
aS'#656565'
p3179
aF8.88595
aI0
aI00
aI00
aI00
aI00
aI00
aI00
aI00
aI00
aa(lp3180
I100815
aF113.477
aF777.939
aVp4
p3181
aS'utopia'
p3182
aS'#656565'
p3183
aF8.88595
aI0
aI01
aI00
aI00
aI00
aI00
aI00
aI00
aI00
aa(lp3184
I177958
aF40.9084
aF792.008
aVp4
p3185
aS'utopia'
p3186
aS'#656565'
p3187
aF8.88595
aI0
aI01
aI00
aI00
aI00
aI00
aI00
aI00
aI00
aa(lp3188
I234378
aF71.2688
aF792.008
aVp4
p3189
aS'utopia'
p3190
aS'#656565'
p3191
aF8.88595
aI0
aI01
aI00
aI00
aI00
aI00
aI00
aI00
aI00
aa(lp3192
I234378
aF96.6393375
aF792.008
ag3189
aS'utopia'
p3193
aS'#656565'
p3194
aF8.88595
aI0
aI00
aI00
aI00
aI00
aI00
aI00
aI00
aI00
aa(lp3195
I46544
aF104.591
aF792.008
aVp4
p3196
aS'utopia'
p3197
aS'#656565'
p3198
aF8.88595
aI0
aI01
aI00
aI00
aI00
aI00
aI00
aI00
aI00
aa(lp3199
I177958
aF123.103
aF792.008
aVp4
p3200
aS'utopia'
p3201
aS'#656565'
p3202
aF8.88595
aI0
aI00
aI00
aI00
aI00
aI00
aI00
aI00
aI00
aa(lp3203
I209115
aF153.464
aF792.008
aVp4
p3204
aS'utopia'
p3205
aS'#656565'
p3206
aF8.88595
aI0
aI00
aI00
aI00
aI00
aI00
aI00
aI00
aI00
aa(lp3207
I234378
aF170.495
aF792.008
aVp4
p3208
aS'utopia'
p3209
aS'#656565'
p3210
aF8.88595
aI0
aI00
aI00
aI00
aI00
aI00
aI00
aI00
aI00
aa(lp3211
I190806
aF213.444
aF792.008
aVp4
p3212
aS'utopia'
p3213
aS'#656565'
p3214
aF8.88595
aI0
aI00
aI00
aI00
aI00
aI00
aI00
aI00
aI00
aa(lp3215
I234378
aF227.513
aF792.008
aVp4
p3216
aS'utopia'
p3217
aS'#656565'
p3218
aF8.88595
aI0
aI00
aI00
aI00
aI00
aI00
aI00
aI00
aI00
aa(lp3219
I194354
aF267.5
aF792.008
aVp4
p3220
aS'utopia'
p3221
aS'#656565'
p3222
aF8.88595
aI0
aI00
aI00
aI00
aI00
aI00
aI00
aI00
aI00
aa(lp3223
I174268
aF282.31
aF792.008
aVp4
p3224
aS'utopia'
p3225
aS'#656565'
p3226
aF8.88595
aI0
aI00
aI00
aI00
aI00
aI00
aI00
aI00
aI00
aa(lp3227
I16321
aF313.411
aF792.008
aVp4
p3228
aS'utopia'
p3229
aS'#656565'
p3230
aF8.88595
aI0
aI01
aI00
aI00
aI00
aI00
aI00
aI00
aI00
aa(lp3231
I234378
aF326.74
aF792.008
aVp4
p3232
aS'utopia'
p3233
aS'#656565'
p3234
aF8.88595
aI0
aI00
aI00
aI00
aI00
aI00
aI00
aI00
aI00
aa(lp3235
I102117
aF365.246
aF792.008
aVp4
p3236
aS'utopia'
p3237
aS'#656565'
p3238
aF8.88595
aI0
aI00
aI00
aI00
aI00
aI00
aI00
aI00
aI00
aa(lp3239
I8691
aF397.087
aF792.008
aVp4
p3240
aS'utopia'
p3241
aS'#656565'
p3242
aF8.88595
aI0
aI00
aI00
aI00
aI00
aI00
aI00
aI00
aI00
aa(lp3243
I194354
aF424.485
aF792.008
aVp4
p3244
aS'utopia'
p3245
aS'#656565'
p3246
aF8.88595
aI0
aI00
aI00
aI00
aI00
aI00
aI00
aI00
aI00
aa(lp3247
I234378
aF439.295
aF792.008
aVp4
p3248
aS'utopia'
p3249
aS'#656565'
p3250
aF8.88595
aI0
aI01
aI01
aI00
aI00
aI00
aI00
aI00
aI00
aa(lp3251
I129342
aF465.213
aF792.008
aVp4
p3252
aS'utopia'
p3253
aS'#656565'
p3254
aF8.88595
aI0
aI00
aI00
aI00
aI00
aI00
aI00
aI00
aI00
aa(lp3255
I218914
aF502.237
aF792.008
aVp4
p3256
aS'utopia'
p3257
aS'#656565'
p3258
aF8.88595
aI0
aI00
aI00
aI00
aI00
aI00
aI00
aI00
aI00
aa(lp3259
I234378
aF40.9084
aF802.375
aVp4
p3260
aS'utopia'
p3261
aS'#656565'
p3262
aF8.88595
aI0
aI00
aI00
aI00
aI00
aI00
aI00
aI00
aI00
aa(lp3263
I194354
aF77.9332
aF802.375
aVp4
p3264
aS'utopia'
p3265
aS'#656565'
p3266
aF8.88595
aI0
aI00
aI00
aI00
aI00
aI00
aI00
aI00
aI00
aa(lp3267
I140025
aF92.7431
aF802.375
aVp4
p3268
aS'utopia'
p3269
aS'#656565'
p3270
aF8.88595
aI0
aI00
aI00
aI00
aI00
aI00
aI00
aI00
aI00
aa(lp3271
I157010
aF117.18
aF802.375
aVp4
p3272
aS'utopia'
p3273
aS'#656565'
p3274
aF8.88595
aI0
aI00
aI00
aI00
aI00
aI00
aI00
aI00
aI00
aa(lp3275
I85582
aF148.28
aF802.375
aVp4
p3276
aS'utopia'
p3277
aS'#656565'
p3278
aF8.88595
aI0
aI00
aI00
aI00
aI00
aI00
aI00
aI00
aI00
aa(lp3279
I210945
aF186.046
aF802.375
aVp4
p3280
aS'utopia'
p3281
aS'#656565'
p3282
aF8.88595
aI0
aI00
aI00
aI00
aI00
aI00
aI00
aI00
aI00
aa(lp3283
I194354
aF212.703
aF802.375
aVp4
p3284
aS'utopia'
p3285
aS'#656565'
p3286
aF8.88595
aI0
aI00
aI00
aI00
aI00
aI00
aI00
aI00
aI00
aa(lp3287
I141000
aF227.513
aF802.375
aVp4
p3288
aS'utopia'
p3289
aS'#656565'
p3290
aF8.88595
aI0
aI01
aI00
aI00
aI00
aI00
aI00
aI00
aI00
aa(lp3291
I8241
aF256.393
aF802.375
aVp4
p3292
aS'utopia'
p3293
aS'#656565'
p3294
aF8.88595
aI0
aI00
aI00
aI00
aI00
aI00
aI00
aI00
aI00
aa(lp3295
I234378
aF269.25317499999994
aF802.375
ag3292
aS'utopia'
p3296
aS'#656565'
p3297
aF8.88595
aI0
aI00
aI00
aI00
aI00
aI00
aI00
aI00
aI00
aa(lp3298
I144483
aF275.646
aF802.375
aVp4
p3299
aS'utopia'
p3300
aS'#656565'
p3301
aF8.88595
aI0
aI01
aI00
aI00
aI00
aI00
aI00
aI00
aI00
aa(lp3302
I234378
aF289.715
aF802.375
aVp4
p3303
aS'utopia'
p3304
aS'#656565'
p3305
aF8.88595
aI0
aI00
aI00
aI00
aI00
aI00
aI00
aI00
aI00
aa(lp3306
I166593
aF325.999
aF802.375
aVp4
p3307
aS'utopia'
p3308
aS'#656565'
p3309
aF8.88595
aI0
aI00
aI00
aI00
aI00
aI00
aI00
aI00
aI00
aa(lp3310
I223466
aF332.664
aF802.375
aVp4
p3311
aS'utopia'
p3312
aS'#656565'
p3313
aF8.88595
aI0
aI00
aI00
aI00
aI00
aI00
aI00
aI00
aI00
aa(lp3314
I22476
aF367.467
aF802.375
aVp4
p3315
aS'utopia'
p3316
aS'#656565'
p3317
aF8.88595
aI0
aI00
aI00
aI00
aI00
aI00
aI00
aI00
aI00
aa(lp3318
I208573
aF374.872
aF802.375
aVp4
p3319
aS'utopia'
p3320
aS'#656565'
p3321
aF8.88595
aI0
aI00
aI00
aI00
aI00
aI00
aI00
aI00
aI00
aa(lp3322
I194002
aF401.53
aF802.375
aVp4
p3323
aS'utopia'
p3324
aS'#656565'
p3325
aF8.88595
aI0
aI00
aI00
aI00
aI00
aI00
aI00
aI00
aI00
aa(lp3326
I229025
aF414.859
aF802.375
aVp4
p3327
aS'utopia'
p3328
aS'#656565'
p3329
aF8.88595
aI0
aI00
aI00
aI00
aI00
aI00
aI00
aI00
aI00
aa(lp3330
I194354
aF430.409
aF802.375
aVp4
p3331
aS'utopia'
p3332
aS'#656565'
p3333
aF8.88595
aI0
aI00
aI00
aI00
aI00
aI00
aI00
aI00
aI00
aa(lp3334
I174268
aF445.219
aF802.375
aVp4
p3335
aS'utopia'
p3336
aS'#656565'
p3337
aF8.88595
aI0
aI00
aI00
aI00
aI00
aI00
aI00
aI00
aI00
aa(lp3338
I234378
aF476.32
aF802.375
aVp4
p3339
aS'utopia'
p3340
aS'#656565'
p3341
aF8.88595
aI0
aI00
aI00
aI00
aI00
aI00
aI00
aI00
aI00
aa(lp3342
I102117
aF513.345
aF802.375
aVp4
p3343
aS'utopia'
p3344
aS'#656565'
p3345
aF8.88595
aI0
aI00
aI00
aI00
aI00
aI00
aI00
aI00
aI00
aa(lp3346
I210945
aF40.9084
aF28.557
aVp5
p3347
aS'utopia'
p3348
aS'#656565'
p3349
aF8.88595
aI0
aI00
aI00
aI00
aI00
aI00
aI00
aI00
aI00
aa(lp3350
I22476
aF67.5663
aF28.557
aVp5
p3351
aS'utopia'
p3352
aS'#656565'
p3353
aF8.88595
aI0
aI00
aI00
aI00
aI00
aI00
aI00
aI00
aI00
aa(lp3354
I234378
aF72.57995333333334
aF28.557
ag3351
aS'utopia'
p3355
aS'#656565'
p3356
aF8.88595
aI0
aI00
aI00
aI00
aI00
aI00
aI00
aI00
aI00
aa(lp3357
I228218
aF77.1927
aF28.557
aVp5
p3358
aS'utopia'
p3359
aS'#656565'
p3360
aF8.88595
aI0
aI00
aI00
aI00
aI00
aI00
aI00
aI00
aI00
aa(lp3361
I234378
aF100.148
aF28.557
aVp5
p3362
aS'utopia'
p3363
aS'#656565'
p3364
aF8.88595
aI0
aI00
aI00
aI00
aI00
aI00
aI00
aI00
aI00
aa(lp3365
I3089
aF137.173
aF28.557
aVp5
p3366
aS'utopia'
p3367
aS'#656565'
p3368
aF8.88595
aI0
aI00
aI00
aI00
aI00
aI00
aI00
aI00
aI00
aa(lp3369
I192638
aF161.609
aF28.557
aVp5
p3370
aS'utopia'
p3371
aS'#656565'
p3372
aF8.88595
aI0
aI00
aI00
aI00
aI00
aI00
aI00
aI00
aI00
aa(lp3373
I234378
aF173.457
aF28.557
aVp5
p3374
aS'utopia'
p3375
aS'#656565'
p3376
aF8.88595
aI0
aI00
aI00
aI00
aI00
aI00
aI00
aI00
aI00
aa(lp3377
I144503
aF211.222
aF28.557
aVp5
p3378
aS'utopia'
p3379
aS'#656565'
p3380
aF8.88595
aI0
aI00
aI00
aI00
aI00
aI00
aI00
aI00
aI00
aa(lp3381
I234378
aF222.33
aF28.557
aVp5
p3382
aS'utopia'
p3383
aS'#656565'
p3384
aF8.88595
aI0
aI00
aI00
aI00
aI00
aI00
aI00
aI00
aI00
aa(lp3385
I192651
aF269.722
aF28.557
aVp5
p3386
aS'utopia'
p3387
aS'#656565'
p3388
aF8.88595
aI0
aI00
aI00
aI00
aI00
aI00
aI00
aI00
aI00
aa(lp3389
I218371
aF281.57
aF28.557
aVp5
p3390
aS'utopia'
p3391
aS'#656565'
p3392
aF8.88595
aI0
aI00
aI00
aI00
aI00
aI00
aI00
aI00
aI00
aa(lp3393
I166593
aF304.525
aF28.557
aVp5
p3394
aS'utopia'
p3395
aS'#656565'
p3396
aF8.88595
aI0
aI00
aI00
aI00
aI00
aI00
aI00
aI00
aI00
aa(lp3397
I200001
aF311.189
aF28.557
aVp5
p3398
aS'utopia'
p3399
aS'#656565'
p3400
aF8.88595
aI0
aI00
aI00
aI00
aI00
aI00
aI00
aI00
aI00
aa(lp3401
I135639
aF336.366
aF28.557
aVp5
p3402
aS'utopia'
p3403
aS'#656565'
p3404
aF8.88595
aI0
aI00
aI00
aI00
aI00
aI00
aI00
aI00
aI00
aa(lp3405
I194354
aF345.993
aF28.557
aVp5
p3406
aS'utopia'
p3407
aS'#656565'
p3408
aF8.88595
aI0
aI00
aI00
aI00
aI00
aI00
aI00
aI00
aI00
aa(lp3409
I234378
aF360.803
aF28.557
aVp5
p3410
aS'utopia'
p3411
aS'#656565'
p3412
aF8.88595
aI0
aI00
aI00
aI00
aI00
aI00
aI00
aI00
aI00
aa(lp3413
I89480
aF396.346
aF28.557
aVp5
p3414
aS'utopia'
p3415
aS'#656565'
p3416
aF8.88595
aI0
aI00
aI00
aI00
aI00
aI00
aI00
aI00
aI00
aa(lp3417
I208813
aF406.713
aF28.557
aVp5
p3418
aS'utopia'
p3419
aS'#656565'
p3420
aF8.88595
aI0
aI00
aI00
aI00
aI00
aI00
aI00
aI00
aI00
aa(lp3421
I22476
aF437.074
aF28.557
aVp5
p3422
aS'utopia'
p3423
aS'#656565'
p3424
aF8.88595
aI0
aI00
aI00
aI00
aI00
aI00
aI00
aI00
aI00
aa(lp3425
I77389
aF444.479
aF28.557
aVp5
p3426
aS'utopia'
p3427
aS'#656565'
p3428
aF8.88595
aI0
aI00
aI00
aI00
aI00
aI00
aI00
aI00
aI00
aa(lp3429
I234378
aF488.7060583333333
aF28.557
ag3426
aS'utopia'
p3430
aS'#656565'
p3431
aF8.88595
aI0
aI00
aI00
aI00
aI00
aI00
aI00
aI00
aI00
aa(lp3432
I223003
aF40.9084
aF65.4751
aVp5
p3433
aS'utopia'
p3434
aS'#000000'
p3435
aF10.3669
aI1
aI01
aI00
aI00
aI00
aI00
aI00
aI00
aI00
aa(lp3436
I234378
aF86.8192
aF65.4751
aVp5
p3437
aS'utopia'
p3438
aS'#000000'
p3439
aF10.3669
aI1
aI01
aI00
aI00
aI00
aI00
aI00
aI00
aI00
aa(lp3440
I234378
aF40.9084
aF82.0356
aVp5
p3441
aS'utopia'
p3442
aS'#656565'
p3443
aF10.3669
aI0
aI01
aI01
aI00
aI00
aI00
aI00
aI00
aI00
aa(lp3444
I234378
aF76.4522
aF82.0356
aVp5
p3445
aS'utopia'
p3446
aS'#656565'
p3447
aF10.3669
aI0
aI01
aI00
aI00
aI00
aI00
aI00
aI00
aI00
aa(lp3448
I60201
aF114.218
aF82.0356
aVp5
p3449
aS'utopia'
p3450
aS'#656565'
p3451
aF10.3669
aI0
aI01
aI00
aI00
aI00
aI00
aI00
aI00
aI00
aa(lp3452
I230071
aF134.211
aF82.0356
aVp5
p3453
aS'utopia'
p3454
aS'#656565'
p3455
aF10.3669
aI0
aI01
aI00
aI00
aI00
aI00
aI00
aI00
aI00
aa(lp3456
I131049
aF165.312
aF82.0356
aVp5
p3457
aS'utopia'
p3458
aS'#656565'
p3459
aF10.3669
aI0
aI00
aI00
aI00
aI00
aI00
aI00
aI00
aI00
aa(lp3460
I37510
aF189.748
aF82.0356
aVp5
p3461
aS'utopia'
p3462
aS'#656565'
p3463
aF10.3669
aI0
aI01
aI00
aI00
aI00
aI00
aI00
aI00
aI01
aa(lp3464
I234378
aF210.482
aF82.0356
aVp5
p3465
aS'utopia'
p3466
aS'#656565'
p3467
aF10.3669
aI0
aI00
aI00
aI01
aI01
aI01
aI00
aI00
aI00
aa(lp3468
I89480
aF233.437
aF82.0356
aVp5
p3469
aS'utopia'
p3470
aS'#656565'
p3471
aF10.3669
aI0
aI00
aI00
aI00
aI00
aI00
aI00
aI00
aI00
aa(lp3472
I37515
aF245.285
aF82.0356
aVp5
p3473
aS'utopia'
p3474
aS'#656565'
p3475
aF10.3669
aI0
aI01
aI00
aI00
aI00
aI00
aI00
aI00
aI01
aa(lp3476
I234378
aF267.5
aF82.0356
aVp5
p3477
aS'utopia'
p3478
aS'#656565'
p3479
aF10.3669
aI0
aI00
aI00
aI01
aI01
aI01
aI00
aI00
aI00
aa(lp3480
I234378
aF40.9084
aF98.3265
aVp5
p3481
aS'utopia'
p3482
aS'#656565'
p3483
aF10.3669
aI0
aI01
aI00
aI00
aI00
aI00
aI00
aI00
aI00
aa(lp3484
I109610
aF40.9084
aF114.454
aVp5
p3485
aS'utopia'
p3486
aS'#656565'
p3487
aF8.88595
aI0
aI01
aI00
aI00
aI00
aI00
aI00
aI00
aI00
aa(lp3488
I25729
aF58.6803
aF114.454
aVp5
p3489
aS'utopia'
p3490
aS'#656565'
p3491
aF8.88595
aI0
aI01
aI00
aI00
aI00
aI00
aI00
aI00
aI00
aa(lp3492
I234378
aF76.54462000000001
aF114.454
ag3489
aS'utopia'
p3493
aS'#656565'
p3494
aF8.88595
aI0
aI00
aI00
aI00
aI00
aI00
aI00
aI00
aI00
aa(lp3495
I21716
aF85.3382
aF114.454
aVp5
p3496
aS'utopia'
p3497
aS'#656565'
p3498
aF8.88595
aI0
aI01
aI00
aI00
aI00
aI00
aI00
aI00
aI00
aa(lp3499
I234378
aF102.27348571428571
aF114.454
ag3496
aS'utopia'
p3500
aS'#656565'
p3501
aF8.88595
aI0
aI00
aI00
aI00
aI00
aI00
aI00
aI00
aI00
aa(lp3502
I234378
aF106.50730714285714
aF114.454
ag3496
aS'utopia'
p3503
aS'#656565'
p3504
aF8.88595
aI0
aI01
aI01
aI00
aI00
aI00
aI00
aI00
aI00
aa(lp3505
I234378
aF115.20877142857142
aF114.454
ag3496
aS'utopia'
p3506
aS'#656565'
p3507
aF8.88595
aI0
aI00
aI00
aI00
aI00
aI00
aI00
aI00
aI00
aa(lp3508
I234378
aF123.44259285714286
aF114.454
ag3496
aS'utopia'
p3509
aS'#656565'
p3510
aF8.88595
aI0
aI01
aI01
aI00
aI00
aI00
aI00
aI00
aI00
aa(lp3511
I234378
aF128.14405714285715
aF114.454
ag3496
aS'utopia'
p3512
aS'#656565'
p3513
aF8.88595
aI0
aI00
aI00
aI00
aI00
aI00
aI00
aI00
aI00
aa(lp3514
I234378
aF140.37787857142857
aF114.454
ag3496
aS'utopia'
p3515
aS'#656565'
p3516
aF8.88595
aI0
aI01
aI01
aI00
aI00
aI00
aI00
aI00
aI00
aa(lp3517
I234378
aF144.3131642857143
aF114.454
ag3496
aS'utopia'
p3518
aS'#656565'
p3519
aF8.88595
aI0
aI00
aI00
aI00
aI00
aI00
aI00
aI00
aI00
aa(lp3520
I234378
aF161.5469857142857
aF114.454
ag3496
aS'utopia'
p3521
aS'#656565'
p3522
aF8.88595
aI0
aI01
aI00
aI00
aI00
aI00
aI00
aI00
aI00
aa(lp3523
I210461
aF40.9084
aF128.524
aVp5
p3524
aS'utopia'
p3525
aS'#656565'
p3526
aF8.88595
aI0
aI01
aI00
aI00
aI00
aI00
aI00
aI00
aI00
aa(lp3527
I340
aF65.3448
aF128.524
aVp5
p3528
aS'utopia'
p3529
aS'#656565'
p3530
aF8.88595
aI0
aI01
aI00
aI00
aI00
aI00
aI00
aI00
aI00
aa(lp3531
I234378
aF79.65472000000001
aF128.524
ag3528
aS'utopia'
p3532
aS'#656565'
p3533
aF8.88595
aI0
aI00
aI00
aI00
aI00
aI00
aI00
aI00
aI00
aa(lp3534
I234378
aF87.5597
aF128.524
aVp5
p3535
aS'utopia'
p3536
aS'#656565'
p3537
aF8.88595
aI0
aI00
aI00
aI01
aI01
aI00
aI00
aI00
aI00
aa(lp3538
I176435
aF40.9084
aF142.593
aVp5
p3539
aS'utopia'
p3540
aS'#656565'
p3541
aF8.88595
aI0
aI01
aI00
aI00
aI00
aI00
aI00
aI00
aI00
aa(lp3542
I234378
aF60.9018
aF142.593
aVp5
p3543
aS'utopia'
p3544
aS'#656565'
p3545
aF8.88595
aI0
aI00
aI00
aI00
aI00
aI00
aI00
aI00
aI00
aa(lp3546
I150037
aF67.5663
aF142.593
aVp5
p3547
aS'utopia'
p3548
aS'#656565'
p3549
aF8.88595
aI0
aI01
aI00
aI00
aI00
aI00
aI00
aI00
aI00
aa(lp3550
I176435
aF40.9084
aF156.663
aVp5
p3551
aS'utopia'
p3552
aS'#656565'
p3553
aF8.88595
aI0
aI01
aI00
aI00
aI00
aI00
aI00
aI00
aI00
aa(lp3554
I66756
aF60.9018
aF156.663
aVp5
p3555
aS'utopia'
p3556
aS'#656565'
p3557
aF8.88595
aI0
aI01
aI00
aI00
aI00
aI00
aI00
aI00
aI00
aa(lp3558
I234378
aF105.12885833333334
aF156.663
ag3555
aS'utopia'
p3559
aS'#656565'
p3560
aF8.88595
aI0
aI00
aI00
aI00
aI00
aI00
aI00
aI00
aI00
aa(lp3561
I100815
aF113.477
aF156.663
aVp5
p3562
aS'utopia'
p3563
aS'#656565'
p3564
aF8.88595
aI0
aI01
aI00
aI00
aI00
aI00
aI00
aI00
aI00
aa(lp3565
I177958
aF40.9084
aF170.732
aVp5
p3566
aS'utopia'
p3567
aS'#656565'
p3568
aF8.88595
aI0
aI01
aI00
aI00
aI00
aI00
aI00
aI00
aI00
aa(lp3569
I234378
aF71.2688
aF170.732
aVp5
p3570
aS'utopia'
p3571
aS'#656565'
p3572
aF8.88595
aI0
aI01
aI00
aI00
aI00
aI00
aI00
aI00
aI00
aa(lp3573
I234378
aF96.6393375
aF170.732
ag3570
aS'utopia'
p3574
aS'#656565'
p3575
aF8.88595
aI0
aI00
aI00
aI00
aI00
aI00
aI00
aI00
aI00
aa(lp3576
I194354
aF104.591
aF170.732
aVp5
p3577
aS'utopia'
p3578
aS'#656565'
p3579
aF8.88595
aI0
aI01
aI00
aI00
aI00
aI00
aI00
aI00
aI00
aa(lp3580
I169406
aF121.622
aF170.732
aVp5
p3581
aS'utopia'
p3582
aS'#656565'
p3583
aF8.88595
aI0
aI00
aI00
aI00
aI00
aI00
aI00
aI00
aI00
aa(lp3584
I144540
aF143.837
aF170.732
aVp5
p3585
aS'utopia'
p3586
aS'#656565'
p3587
aF8.88595
aI0
aI00
aI00
aI00
aI00
aI00
aI00
aI00
aI00
aa(lp3588
I144489
aF162.35
aF170.732
aVp5
p3589
aS'utopia'
p3590
aS'#656565'
p3591
aF8.88595
aI0
aI00
aI00
aI00
aI00
aI00
aI00
aI00
aI00
aa(lp3592
I234378
aF172.717
aF170.732
aVp5
p3593
aS'utopia'
p3594
aS'#656565'
p3595
aF8.88595
aI0
aI00
aI00
aI00
aI00
aI00
aI00
aI00
aI00
aa(lp3596
I228218
aF217.887
aF170.732
aVp5
p3597
aS'utopia'
p3598
aS'#656565'
p3599
aF8.88595
aI0
aI00
aI00
aI00
aI00
aI00
aI00
aI00
aI00
aa(lp3600
I234378
aF240.842
aF170.732
aVp5
p3601
aS'utopia'
p3602
aS'#656565'
p3603
aF8.88595
aI0
aI00
aI00
aI00
aI00
aI00
aI00
aI00
aI00
aa(lp3604
I209115
aF271.943
aF170.732
aVp5
p3605
aS'utopia'
p3606
aS'#656565'
p3607
aF8.88595
aI0
aI00
aI00
aI00
aI00
aI00
aI00
aI00
aI00
aa(lp3608
I89480
aF288.975
aF170.732
aVp5
p3609
aS'utopia'
p3610
aS'#656565'
p3611
aF8.88595
aI0
aI00
aI00
aI00
aI00
aI00
aI00
aI00
aI00
aa(lp3612
I52842
aF299.341
aF170.732
aVp5
p3613
aS'utopia'
p3614
aS'#656565'
p3615
aF8.88595
aI0
aI00
aI00
aI00
aI00
aI00
aI00
aI00
aI00
aa(lp3616
I228218
aF327.48
aF170.732
aVp5
p3617
aS'utopia'
p3618
aS'#656565'
p3619
aF8.88595
aI0
aI00
aI00
aI00
aI00
aI00
aI00
aI00
aI00
aa(lp3620
I234378
aF350.436
aF170.732
aVp5
p3621
aS'utopia'
p3622
aS'#656565'
p3623
aF8.88595
aI0
aI00
aI00
aI00
aI00
aI00
aI00
aI00
aI00
aa(lp3624
I98412
aF381.537
aF170.732
aVp5
p3625
aS'utopia'
p3626
aS'#656565'
p3627
aF8.88595
aI0
aI00
aI00
aI00
aI00
aI00
aI00
aI00
aI00
aa(lp3628
I6594
aF420.042
aF170.732
aVp5
p3629
aS'utopia'
p3630
aS'#656565'
p3631
aF8.88595
aI0
aI00
aI00
aI00
aI00
aI00
aI00
aI00
aI00
aa(lp3632
I194354
aF448.181
aF170.732
aVp5
p3633
aS'utopia'
p3634
aS'#656565'
p3635
aF8.88595
aI0
aI00
aI00
aI00
aI00
aI00
aI00
aI00
aI00
aa(lp3636
I91351
aF462.991
aF170.732
aVp5
p3637
aS'utopia'
p3638
aS'#656565'
p3639
aF8.88595
aI0
aI00
aI00
aI00
aI00
aI00
aI00
aI00
aI00
aa(lp3640
I124019
aF493.351
aF170.732
aVp5
p3641
aS'utopia'
p3642
aS'#656565'
p3643
aF8.88595
aI0
aI00
aI00
aI00
aI00
aI00
aI00
aI00
aI00
aa(lp3644
I234378
aF513.1938333333334
aF170.732
ag3641
aS'utopia'
p3645
aS'#656565'
p3646
aF8.88595
aI0
aI00
aI00
aI00
aI00
aI00
aI00
aI00
aI00
aa(lp3647
I188043
aF519.269
aF170.732
aVp5
p3648
aS'utopia'
p3649
aS'#656565'
p3650
aF8.88595
aI0
aI00
aI00
aI00
aI00
aI00
aI00
aI00
aI00
aa(lp3651
I193136
aF40.9084
aF181.099
aVp5
p3652
aS'utopia'
p3653
aS'#656565'
p3654
aF8.88595
aI0
aI00
aI00
aI00
aI00
aI00
aI00
aI00
aI00
aa(lp3655
I209115
aF63.8638
aF181.099
aVp5
p3656
aS'utopia'
p3657
aS'#656565'
p3658
aF8.88595
aI0
aI00
aI00
aI00
aI00
aI00
aI00
aI00
aI00
aa(lp3659
I166593
aF80.8952
aF181.099
aVp5
p3660
aS'utopia'
p3661
aS'#656565'
p3662
aF8.88595
aI0
aI00
aI00
aI00
aI00
aI00
aI00
aI00
aI00
aa(lp3663
I107534
aF87.5597
aF181.099
aVp5
p3664
aS'utopia'
p3665
aS'#656565'
p3666
aF8.88595
aI0
aI00
aI00
aI00
aI00
aI00
aI00
aI00
aI00
aa(lp3667
I135639
aF114.958
aF181.099
aVp5
p3668
aS'utopia'
p3669
aS'#656565'
p3670
aF8.88595
aI0
aI00
aI00
aI00
aI00
aI00
aI00
aI00
aI00
aa(lp3671
I194354
aF124.584
aF181.099
aVp5
p3672
aS'utopia'
p3673
aS'#656565'
p3674
aF8.88595
aI0
aI00
aI00
aI00
aI00
aI00
aI00
aI00
aI00
aa(lp3675
I234378
aF139.394
aF181.099
aVp5
p3676
aS'utopia'
p3677
aS'#656565'
p3678
aF8.88595
aI0
aI00
aI00
aI00
aI00
aI00
aI00
aI00
aI00
aa(lp3679
I89480
aF174.938
aF181.099
aVp5
p3680
aS'utopia'
p3681
aS'#656565'
p3682
aF8.88595
aI0
aI00
aI00
aI00
aI00
aI00
aI00
aI00
aI00
aa(lp3683
I61195
aF185.305
aF181.099
aVp5
p3684
aS'utopia'
p3685
aS'#656565'
p3686
aF8.88595
aI0
aI00
aI00
aI00
aI00
aI00
aI00
aI00
aI00
aa(lp3687
I228218
aF217.887
aF181.099
aVp5
p3688
aS'utopia'
p3689
aS'#656565'
p3690
aF8.88595
aI0
aI00
aI00
aI00
aI00
aI00
aI00
aI00
aI00
aa(lp3691
I234378
aF240.842
aF181.099
aVp5
p3692
aS'utopia'
p3693
aS'#656565'
p3694
aF8.88595
aI0
aI00
aI00
aI00
aI00
aI00
aI00
aI00
aI00
aa(lp3695
I8030
aF271.943
aF181.099
aVp5
p3696
aS'utopia'
p3697
aS'#656565'
p3698
aF8.88595
aI0
aI00
aI00
aI00
aI00
aI00
aI00
aI00
aI00
aa(lp3699
I234378
aF323.62050714285715
aF181.099
ag3696
aS'utopia'
p3700
aS'#656565'
p3701
aF8.88595
aI0
aI00
aI00
aI00
aI00
aI00
aI00
aI00
aI00
aa(lp3702
I228218
aF329.702
aF181.099
aVp5
p3703
aS'utopia'
p3704
aS'#656565'
p3705
aF8.88595
aI0
aI01
aI00
aI00
aI00
aI00
aI00
aI00
aI00
aa(lp3706
I234378
aF354.879
aF181.099
aVp5
p3707
aS'utopia'
p3708
aS'#656565'
p3709
aF8.88595
aI0
aI00
aI00
aI00
aI00
aI00
aI00
aI00
aI00
aa(lp3710
I140393
aF385.979
aF181.099
aVp5
p3711
aS'utopia'
p3712
aS'#656565'
p3713
aF8.88595
aI0
aI00
aI00
aI00
aI00
aI00
aI00
aI00
aI00
aa(lp3714
I8740
aF407.454
aF181.099
aVp5
p3715
aS'utopia'
p3716
aS'#656565'
p3717
aF8.88595
aI0
aI00
aI00
aI00
aI00
aI00
aI00
aI00
aI00
aa(lp3718
I144489
aF440.036
aF181.099
aVp5
p3719
aS'utopia'
p3720
aS'#656565'
p3721
aF8.88595
aI0
aI00
aI00
aI00
aI00
aI00
aI00
aI00
aI00
aa(lp3722
I234378
aF450.403
aF181.099
aVp5
p3723
aS'utopia'
p3724
aS'#656565'
p3725
aF8.88595
aI0
aI00
aI00
aI00
aI00
aI00
aI00
aI00
aI00
aa(lp3726
I166593
aF490.389
aF181.099
aVp5
p3727
aS'utopia'
p3728
aS'#656565'
p3729
aF8.88595
aI0
aI00
aI00
aI00
aI00
aI00
aI00
aI00
aI00
aa(lp3730
I228874
aF497.054
aF181.099
aVp5
p3731
aS'utopia'
p3732
aS'#656565'
p3733
aF8.88595
aI0
aI00
aI00
aI00
aI00
aI00
aI00
aI00
aI00
aa(lp3734
I123405
aF40.9084
aF191.466
aVp5
p3735
aS'utopia'
p3736
aS'#656565'
p3737
aF8.88595
aI0
aI00
aI00
aI00
aI00
aI00
aI00
aI00
aI00
aa(lp3738
I40515
aF74.9712
aF191.466
aVp5
p3739
aS'utopia'
p3740
aS'#656565'
p3741
aF8.88595
aI0
aI00
aI00
aI00
aI00
aI00
aI00
aI00
aI00
aa(lp3742
I144503
aF102.37
aF191.466
aVp5
p3743
aS'utopia'
p3744
aS'#656565'
p3745
aF8.88595
aI0
aI00
aI00
aI00
aI00
aI00
aI00
aI00
aI00
aa(lp3746
I166593
aF113.477
aF191.466
aVp5
p3747
aS'utopia'
p3748
aS'#656565'
p3749
aF8.88595
aI0
aI00
aI00
aI00
aI00
aI00
aI00
aI00
aI00
aa(lp3750
I171173
aF120.141
aF191.466
aVp5
p3751
aS'utopia'
p3752
aS'#656565'
p3753
aF8.88595
aI0
aI00
aI00
aI00
aI00
aI00
aI00
aI00
aI00
aa(lp3754
I144489
aF160.869
aF191.466
aVp5
p3755
aS'utopia'
p3756
aS'#656565'
p3757
aF8.88595
aI0
aI00
aI00
aI00
aI00
aI00
aI00
aI00
aI00
aa(lp3758
I234378
aF171.236
aF191.466
aVp5
p3759
aS'utopia'
p3760
aS'#656565'
p3761
aF8.88595
aI0
aI00
aI00
aI00
aI00
aI00
aI00
aI00
aI00
aa(lp3762
I212148
aF202.337
aF191.466
aVp5
p3763
aS'utopia'
p3764
aS'#656565'
p3765
aF8.88595
aI0
aI00
aI00
aI00
aI00
aI00
aI00
aI00
aI00
aa(lp3766
I104512
aF228.254
aF191.466
aVp5
p3767
aS'utopia'
p3768
aS'#656565'
p3769
aF8.88595
aI0
aI00
aI00
aI00
aI00
aI00
aI00
aI00
aI00
aa(lp3770
I223466
aF239.361
aF191.466
aVp5
p3771
aS'utopia'
p3772
aS'#656565'
p3773
aF8.88595
aI0
aI00
aI00
aI00
aI00
aI00
aI00
aI00
aI00
aa(lp3774
I197030
aF274.165
aF191.466
aVp5
p3775
aS'utopia'
p3776
aS'#656565'
p3777
aF8.88595
aI0
aI00
aI00
aI00
aI00
aI00
aI00
aI00
aI00
aa(lp3778
I234378
aF276.97075
aF191.466
ag3775
aS'utopia'
p3779
aS'#656565'
p3780
aF8.88595
aI0
aI00
aI00
aI00
aI00
aI00
aI00
aI00
aI00
aa(lp3781
I64620
aF279.7765
aF191.466
ag3775
aS'utopia'
p3782
aS'#656565'
p3783
aF8.88595
aI0
aI00
aI00
aI00
aI00
aI00
aI00
aI00
aI00
aa(lp3784
I234378
aF280.58225
aF191.466
ag3775
aS'utopia'
p3785
aS'#656565'
p3786
aF8.88595
aI0
aI00
aI00
aI00
aI00
aI00
aI00
aI00
aI00
aa(lp3787
I223466
aF287.494
aF191.466
aVp5
p3788
aS'utopia'
p3789
aS'#656565'
p3790
aF8.88595
aI0
aI00
aI00
aI00
aI00
aI00
aI00
aI00
aI00
aa(lp3791
I161602
aF322.297
aF191.466
aVp5
p3792
aS'utopia'
p3793
aS'#656565'
p3794
aF8.88595
aI0
aI00
aI00
aI00
aI00
aI00
aI00
aI00
aI00
aa(lp3795
I234378
aF337.79172000000005
aF191.466
ag3792
aS'utopia'
p3796
aS'#656565'
p3797
aF8.88595
aI0
aI00
aI00
aI00
aI00
aI00
aI00
aI00
aI00
aa(lp3798
I228218
aF343.771
aF191.466
aVp5
p3799
aS'utopia'
p3800
aS'#656565'
p3801
aF8.88595
aI0
aI01
aI00
aI00
aI00
aI00
aI00
aI00
aI00
aa(lp3802
I234378
aF368.948
aF191.466
aVp5
p3803
aS'utopia'
p3804
aS'#656565'
p3805
aF8.88595
aI0
aI00
aI00
aI00
aI00
aI00
aI00
aI00
aI00
aa(lp3806
I84932
aF400.049
aF191.466
aVp5
p3807
aS'utopia'
p3808
aS'#656565'
p3809
aF8.88595
aI0
aI00
aI00
aI00
aI00
aI00
aI00
aI00
aI00
aa(lp3810
I234378
aF414.859
aF191.466
aVp5
p3811
aS'utopia'
p3812
aS'#656565'
p3813
aF8.88595
aI0
aI00
aI00
aI00
aI00
aI00
aI00
aI00
aI00
aa(lp3814
I192651
aF446.7
aF191.466
aVp5
p3815
aS'utopia'
p3816
aS'#656565'
p3817
aF8.88595
aI0
aI00
aI00
aI00
aI00
aI00
aI00
aI00
aI00
aa(lp3818
I194354
aF458.548
aF191.466
aVp5
p3819
aS'utopia'
p3820
aS'#656565'
p3821
aF8.88595
aI0
aI00
aI00
aI00
aI00
aI00
aI00
aI00
aI00
aa(lp3822
I120218
aF473.358
aF191.466
aVp5
p3823
aS'utopia'
p3824
aS'#656565'
p3825
aF8.88595
aI0
aI00
aI00
aI00
aI00
aI00
aI00
aI00
aI00
aa(lp3826
I210945
aF513.345
aF191.466
aVp5
p3827
aS'utopia'
p3828
aS'#656565'
p3829
aF8.88595
aI0
aI00
aI00
aI00
aI00
aI00
aI00
aI00
aI00
aa(lp3830
I104512
aF540.003
aF191.466
aVp5
p3831
aS'utopia'
p3832
aS'#656565'
p3833
aF8.88595
aI0
aI00
aI00
aI00
aI00
aI00
aI00
aI00
aI00
aa(lp3834
I234378
aF40.9084
aF201.833
aVp5
p3835
aS'utopia'
p3836
aS'#656565'
p3837
aF8.88595
aI0
aI01
aI00
aI00
aI00
aI00
aI00
aI00
aI00
aa(lp3838
I39311
aF63.1233
aF201.833
aVp5
p3839
aS'utopia'
p3840
aS'#656565'
p3841
aF8.88595
aI0
aI00
aI00
aI00
aI00
aI00
aI00
aI00
aI00
aa(lp3842
I234378
aF93.0293125
aF201.833
ag3839
aS'utopia'
p3843
aS'#656565'
p3844
aF8.88595
aI0
aI00
aI00
aI00
aI00
aI00
aI00
aI00
aI00
aa(lp3845
I194354
aF99.4076
aF201.833
aVp5
p3846
aS'utopia'
p3847
aS'#656565'
p3848
aF8.88595
aI0
aI01
aI00
aI00
aI00
aI00
aI00
aI00
aI00
aa(lp3849
I123405
aF116.439
aF201.833
aVp5
p3850
aS'utopia'
p3851
aS'#656565'
p3852
aF8.88595
aI0
aI00
aI00
aI00
aI00
aI00
aI00
aI00
aI00
aa(lp3853
I40515
aF150.502
aF201.833
aVp5
p3854
aS'utopia'
p3855
aS'#656565'
p3856
aF8.88595
aI0
aI00
aI00
aI00
aI00
aI00
aI00
aI00
aI00
aa(lp3857
I3089
aF177.9
aF201.833
aVp5
p3858
aS'utopia'
p3859
aS'#656565'
p3860
aF8.88595
aI0
aI00
aI00
aI00
aI00
aI00
aI00
aI00
aI00
aa(lp3861
I60534
aF202.337
aF201.833
aVp5
p3862
aS'utopia'
p3863
aS'#656565'
p3864
aF8.88595
aI0
aI00
aI00
aI00
aI00
aI00
aI00
aI00
aI00
aa(lp3865
I182776
aF220.108
aF201.833
aVp5
p3866
aS'utopia'
p3867
aS'#656565'
p3868
aF8.88595
aI0
aI00
aI00
aI00
aI00
aI00
aI00
aI00
aI00
aa(lp3869
I166593
aF249.728
aF201.833
aVp5
p3870
aS'utopia'
p3871
aS'#656565'
p3872
aF8.88595
aI0
aI00
aI00
aI00
aI00
aI00
aI00
aI00
aI00
aa(lp3873
I188319
aF256.393
aF201.833
aVp5
p3874
aS'utopia'
p3875
aS'#656565'
p3876
aF8.88595
aI0
aI00
aI00
aI00
aI00
aI00
aI00
aI00
aI00
aa(lp3877
I66756
aF277.127
aF201.833
aVp5
p3878
aS'utopia'
p3879
aS'#656565'
p3880
aF8.88595
aI0
aI00
aI00
aI00
aI00
aI00
aI00
aI00
aI00
aa(lp3881
I98566
aF323.778
aF201.833
aVp5
p3882
aS'utopia'
p3883
aS'#656565'
p3884
aF8.88595
aI0
aI00
aI00
aI00
aI00
aI00
aI00
aI00
aI00
aa(lp3885
I22476
aF348.955
aF201.833
aVp5
p3886
aS'utopia'
p3887
aS'#656565'
p3888
aF8.88595
aI0
aI00
aI00
aI00
aI00
aI00
aI00
aI00
aI00
aa(lp3889
I234378
aF353.9686533333333
aF201.833
ag3886
aS'utopia'
p3890
aS'#656565'
p3891
aF8.88595
aI0
aI00
aI00
aI00
aI00
aI00
aI00
aI00
aI00
aa(lp3892
I22476
aF358.581
aF201.833
aVp5
p3893
aS'utopia'
p3894
aS'#656565'
p3895
aF8.88595
aI0
aI01
aI00
aI00
aI00
aI00
aI00
aI00
aI00
aa(lp3896
I3089
aF366.727
aF201.833
aVp5
p3897
aS'utopia'
p3898
aS'#656565'
p3899
aF8.88595
aI0
aI00
aI00
aI00
aI00
aI00
aI00
aI00
aI00
aa(lp3900
I60534
aF391.163
aF201.833
aVp5
p3901
aS'utopia'
p3902
aS'#656565'
p3903
aF8.88595
aI0
aI00
aI00
aI00
aI00
aI00
aI00
aI00
aI00
aa(lp3904
I192638
aF408.935
aF201.833
aVp5
p3905
aS'utopia'
p3906
aS'#656565'
p3907
aF8.88595
aI0
aI00
aI00
aI00
aI00
aI00
aI00
aI00
aI00
aa(lp3908
I234378
aF420.783
aF201.833
aVp5
p3909
aS'utopia'
p3910
aS'#656565'
p3911
aF8.88595
aI0
aI00
aI00
aI00
aI00
aI00
aI00
aI00
aI00
aa(lp3912
I89480
aF472.618
aF201.833
aVp5
p3913
aS'utopia'
p3914
aS'#656565'
p3915
aF8.88595
aI0
aI00
aI00
aI00
aI00
aI00
aI00
aI00
aI00
aa(lp3916
I75341
aF482.984
aF201.833
aVp5
p3917
aS'utopia'
p3918
aS'#656565'
p3919
aF8.88595
aI0
aI00
aI00
aI00
aI00
aI00
aI00
aI00
aI00
aa(lp3920
I210945
aF498.535
aF201.833
aVp5
p3921
aS'utopia'
p3922
aS'#656565'
p3923
aF8.88595
aI0
aI00
aI00
aI00
aI00
aI00
aI00
aI00
aI00
aa(lp3924
I166593
aF525.193
aF201.833
aVp5
p3925
aS'utopia'
p3926
aS'#656565'
p3927
aF8.88595
aI0
aI00
aI00
aI00
aI00
aI00
aI00
aI00
aI00
aa(lp3928
I84625
aF40.9084
aF212.2
aVp5
p3929
aS'utopia'
p3930
aS'#656565'
p3931
aF8.88595
aI0
aI00
aI00
aI00
aI00
aI00
aI00
aI00
aI00
aa(lp3932
I230071
aF72.7498
aF212.2
aVp5
p3933
aS'utopia'
p3934
aS'#656565'
p3935
aF8.88595
aI0
aI00
aI00
aI00
aI00
aI00
aI00
aI00
aI00
aa(lp3936
I234378
aF88.83691999999999
aF212.2
ag3933
aS'utopia'
p3937
aS'#656565'
p3938
aF8.88595
aI0
aI00
aI00
aI00
aI00
aI00
aI00
aI00
aI00
aa(lp3939
I234378
aF40.9084
aF249.118
aVp5
p3940
aS'utopia'
p3941
aS'#000000'
p3942
aF10.3669
aI1
aI01
aI01
aI00
aI00
aI00
aI00
aI00
aI00
aa(lp3943
I234378
aF72.7498
aF249.118
aVp5
p3944
aS'utopia'
p3945
aS'#000000'
p3946
aF10.3669
aI1
aI01
aI01
aI00
aI00
aI00
aI00
aI00
aI00
aa(lp3947
I234378
aF40.9084
aF265.679
aVp5
p3948
aS'utopia'
p3949
aS'#656565'
p3950
aF10.3669
aI0
aI01
aI01
aI00
aI00
aI00
aI00
aI00
aI00
aa(lp3951
I234378
aF76.4522
aF265.679
aVp5
p3952
aS'utopia'
p3953
aS'#656565'
p3954
aF10.3669
aI0
aI01
aI00
aI00
aI00
aI00
aI00
aI00
aI00
aa(lp3955
I60201
aF114.218
aF265.679
aVp5
p3956
aS'utopia'
p3957
aS'#656565'
p3958
aF10.3669
aI0
aI01
aI00
aI00
aI00
aI00
aI00
aI00
aI00
aa(lp3959
I230071
aF134.211
aF265.679
aVp5
p3960
aS'utopia'
p3961
aS'#656565'
p3962
aF10.3669
aI0
aI01
aI00
aI00
aI00
aI00
aI00
aI00
aI00
aa(lp3963
I131049
aF165.312
aF265.679
aVp5
p3964
aS'utopia'
p3965
aS'#656565'
p3966
aF10.3669
aI0
aI00
aI00
aI00
aI00
aI00
aI00
aI00
aI00
aa(lp3967
I234378
aF189.748
aF265.679
aVp5
p3968
aS'utopia'
p3969
aS'#656565'
p3970
aF10.3669
aI0
aI01
aI00
aI00
aI00
aI00
aI00
aI00
aI01
aa(lp3971
I234378
aF210.482
aF265.679
aVp5
p3972
aS'utopia'
p3973
aS'#656565'
p3974
aF10.3669
aI0
aI00
aI00
aI01
aI01
aI01
aI00
aI00
aI00
aa(lp3975
I89480
aF233.437
aF265.679
aVp5
p3976
aS'utopia'
p3977
aS'#656565'
p3978
aF10.3669
aI0
aI00
aI00
aI00
aI00
aI00
aI00
aI00
aI00
aa(lp3979
I234378
aF245.285
aF265.679
aVp5
p3980
aS'utopia'
p3981
aS'#656565'
p3982
aF10.3669
aI0
aI01
aI00
aI00
aI00
aI00
aI00
aI00
aI01
aa(lp3983
I234378
aF264.538
aF265.679
aVp5
p3984
aS'utopia'
p3985
aS'#656565'
p3986
aF10.3669
aI0
aI00
aI00
aI01
aI01
aI01
aI00
aI00
aI00
aa(lp3987
I234378
aF40.9084
aF281.969
aVp5
p3988
aS'utopia'
p3989
aS'#656565'
p3990
aF10.3669
aI0
aI01
aI00
aI00
aI00
aI00
aI00
aI00
aI00
aa(lp3991
I109610
aF40.9084
aF298.097
aVp5
p3992
aS'utopia'
p3993
aS'#656565'
p3994
aF8.88595
aI0
aI01
aI00
aI00
aI00
aI00
aI00
aI00
aI00
aa(lp3995
I25729
aF58.6803
aF298.097
aVp5
p3996
aS'utopia'
p3997
aS'#656565'
p3998
aF8.88595
aI0
aI01
aI00
aI00
aI00
aI00
aI00
aI00
aI00
aa(lp3999
I234378
aF76.54462000000001
aF298.097
ag3996
aS'utopia'
p4000
aS'#656565'
p4001
aF8.88595
aI0
aI00
aI00
aI00
aI00
aI00
aI00
aI00
aI00
aa(lp4002
I21716
aF85.3382
aF298.097
aVp5
p4003
aS'utopia'
p4004
aS'#656565'
p4005
aF8.88595
aI0
aI01
aI00
aI00
aI00
aI00
aI00
aI00
aI00
aa(lp4006
I210461
aF40.9084
aF312.167
aVp5
p4007
aS'utopia'
p4008
aS'#656565'
p4009
aF8.88595
aI0
aI01
aI00
aI00
aI00
aI00
aI00
aI00
aI00
aa(lp4010
I340
aF65.3448
aF312.167
aVp5
p4011
aS'utopia'
p4012
aS'#656565'
p4013
aF8.88595
aI0
aI01
aI00
aI00
aI00
aI00
aI00
aI00
aI00
aa(lp4014
I234378
aF79.65472000000001
aF312.167
ag4011
aS'utopia'
p4015
aS'#656565'
p4016
aF8.88595
aI0
aI00
aI00
aI00
aI00
aI00
aI00
aI00
aI00
aa(lp4017
I234378
aF87.5597
aF312.167
aVp5
p4018
aS'utopia'
p4019
aS'#656565'
p4020
aF8.88595
aI0
aI00
aI00
aI01
aI01
aI00
aI00
aI00
aI00
aa(lp4021
I176435
aF40.9084
aF326.236
aVp5
p4022
aS'utopia'
p4023
aS'#656565'
p4024
aF8.88595
aI0
aI01
aI00
aI00
aI00
aI00
aI00
aI00
aI00
aa(lp4025
I234378
aF60.9018
aF326.236
aVp5
p4026
aS'utopia'
p4027
aS'#656565'
p4028
aF8.88595
aI0
aI00
aI00
aI00
aI00
aI00
aI00
aI00
aI00
aa(lp4029
I150037
aF67.5663
aF326.236
aVp5
p4030
aS'utopia'
p4031
aS'#656565'
p4032
aF8.88595
aI0
aI01
aI00
aI00
aI00
aI00
aI00
aI00
aI00
aa(lp4033
I176435
aF40.9084
aF340.306
aVp5
p4034
aS'utopia'
p4035
aS'#656565'
p4036
aF8.88595
aI0
aI01
aI00
aI00
aI00
aI00
aI00
aI00
aI00
aa(lp4037
I66756
aF60.9018
aF340.306
aVp5
p4038
aS'utopia'
p4039
aS'#656565'
p4040
aF8.88595
aI0
aI01
aI00
aI00
aI00
aI00
aI00
aI00
aI00
aa(lp4041
I234378
aF105.12885833333334
aF340.306
ag4038
aS'utopia'
p4042
aS'#656565'
p4043
aF8.88595
aI0
aI00
aI00
aI00
aI00
aI00
aI00
aI00
aI00
aa(lp4044
I100815
aF113.477
aF340.306
aVp5
p4045
aS'utopia'
p4046
aS'#656565'
p4047
aF8.88595
aI0
aI01
aI00
aI00
aI00
aI00
aI00
aI00
aI00
aa(lp4048
I85218
aF156.426
aF340.306
aVp5
p4049
aS'utopia'
p4050
aS'#656565'
p4051
aF8.88595
aI0
aI00
aI00
aI00
aI00
aI00
aI00
aI00
aI00
aa(lp4052
I60259
aF173.457
aF340.306
aVp5
p4053
aS'utopia'
p4054
aS'#656565'
p4055
aF8.88595
aI0
aI01
aI00
aI00
aI00
aI00
aI00
aI00
aI00
aa(lp4056
I177958
aF40.9084
aF354.375
aVp5
p4057
aS'utopia'
p4058
aS'#656565'
p4059
aF8.88595
aI0
aI01
aI00
aI00
aI00
aI00
aI00
aI00
aI00
aa(lp4060
I234378
aF71.2688
aF354.375
aVp5
p4061
aS'utopia'
p4062
aS'#656565'
p4063
aF8.88595
aI0
aI01
aI00
aI00
aI00
aI00
aI00
aI00
aI00
aa(lp4064
I234378
aF96.6393375
aF354.375
ag4061
aS'utopia'
p4065
aS'#656565'
p4066
aF8.88595
aI0
aI00
aI00
aI00
aI00
aI00
aI00
aI00
aI00
aa(lp4067
I234378
aF104.591
aF354.375
aVp5
p4068
aS'utopia'
p4069
aS'#656565'
p4070
aF8.88595
aI0
aI01
aI01
aI00
aI00
aI00
aI00
aI00
aI00
aa(lp4071
I234378
aF130.508
aF354.375
aVp5
p4072
aS'utopia'
p4073
aS'#656565'
p4074
aF8.88595
aI0
aI01
aI01
aI00
aI00
aI00
aI00
aI00
aI00
aa(lp4075
I22474
aF146.799
aF354.375
aVp5
p4076
aS'utopia'
p4077
aS'#656565'
p4078
aF8.88595
aI0
aI00
aI00
aI00
aI00
aI00
aI00
aI00
aI00
aa(lp4079
I166593
aF154.945
aF354.375
aVp5
p4080
aS'utopia'
p4081
aS'#656565'
p4082
aF8.88595
aI0
aI00
aI00
aI00
aI00
aI00
aI00
aI00
aI00
aa(lp4083
I182656
aF161.609
aF354.375
aVp5
p4084
aS'utopia'
p4085
aS'#656565'
p4086
aF8.88595
aI0
aI00
aI00
aI00
aI00
aI00
aI00
aI00
aI00
aa(lp4087
I144489
aF189.748
aF354.375
aVp5
p4088
aS'utopia'
p4089
aS'#656565'
p4090
aF8.88595
aI0
aI00
aI00
aI00
aI00
aI00
aI00
aI00
aI00
aa(lp4091
I228643
aF200.115
aF354.375
aVp5
p4092
aS'utopia'
p4093
aS'#656565'
p4094
aF8.88595
aI0
aI01
aI00
aI00
aI00
aI00
aI00
aI00
aI00
aa(lp4095
I234378
aF220.108
aF354.375
aVp5
p4096
aS'utopia'
p4097
aS'#656565'
p4098
aF8.88595
aI0
aI00
aI00
aI00
aI00
aI00
aI00
aI00
aI00
aa(lp4099
I123665
aF224.141725
aF354.375
ag4096
aS'utopia'
p4100
aS'#656565'
p4101
aF8.88595
aI0
aI01
aI00
aI00
aI00
aI00
aI00
aI00
aI00
aa(lp4102
I234378
aF270.462
aF354.375
aVp5
p4103
aS'utopia'
p4104
aS'#656565'
p4105
aF8.88595
aI0
aI01
aI00
aI00
aI00
aI00
aI00
aI00
aI00
aa(lp4106
I234378
aF327.48
aF354.375
aVp5
p4107
aS'utopia'
p4108
aS'#656565'
p4109
aF8.88595
aI0
aI01
aI00
aI00
aI00
aI00
aI00
aI00
aI00
aa(lp4110
I234378
aF365.96154545454544
aF354.375
ag4107
aS'utopia'
p4111
aS'#656565'
p4112
aF8.88595
aI0
aI00
aI00
aI00
aI00
aI00
aI00
aI00
aI00
aa(lp4113
I190806
aF371.91
aF354.375
aVp5
p4114
aS'utopia'
p4115
aS'#656565'
p4116
aF8.88595
aI0
aI00
aI00
aI00
aI00
aI00
aI00
aI00
aI00
aa(lp4117
I203832
aF385.979
aF354.375
aVp5
p4118
aS'utopia'
p4119
aS'#656565'
p4120
aF8.88595
aI0
aI00
aI00
aI00
aI00
aI00
aI00
aI00
aI00
aa(lp4121
I192651
aF401.53
aF354.375
aVp5
p4122
aS'utopia'
p4123
aS'#656565'
p4124
aF8.88595
aI0
aI00
aI00
aI00
aI00
aI00
aI00
aI00
aI00
aa(lp4125
I194354
aF413.378
aF354.375
aVp5
p4126
aS'utopia'
p4127
aS'#656565'
p4128
aF8.88595
aI0
aI00
aI00
aI00
aI00
aI00
aI00
aI00
aI00
aa(lp4129
I234378
aF428.188
aF354.375
aVp5
p4130
aS'utopia'
p4131
aS'#656565'
p4132
aF8.88595
aI0
aI01
aI01
aI00
aI00
aI00
aI00
aI00
aI00
aa(lp4133
I234378
aF454.105
aF354.375
aVp5
p4134
aS'utopia'
p4135
aS'#656565'
p4136
aF8.88595
aI0
aI00
aI00
aI00
aI00
aI00
aI00
aI00
aI00
aa(lp4137
I234378
aF493.52932000000004
aF354.375
ag4134
aS'utopia'
p4138
aS'#656565'
p4139
aF8.88595
aI0
aI00
aI00
aI00
aI00
aI00
aI00
aI00
aI00
aa(lp4140
I194354
aF500.016
aF354.375
aVp5
p4141
aS'utopia'
p4142
aS'#656565'
p4143
aF8.88595
aI0
aI01
aI00
aI00
aI00
aI00
aI00
aI00
aI00
aa(lp4144
I234378
aF517.047
aF354.375
aVp5
p4145
aS'utopia'
p4146
aS'#656565'
p4147
aF8.88595
aI0
aI01
aI01
aI00
aI00
aI00
aI00
aI00
aI00
aa(lp4148
I234378
aF40.9084
aF364.742
aVp5
p4149
aS'utopia'
p4150
aS'#656565'
p4151
aF8.88595
aI0
aI01
aI01
aI00
aI00
aI00
aI00
aI00
aI00
aa(lp4152
I22474
aF57.1993
aF364.742
aVp5
p4153
aS'utopia'
p4154
aS'#656565'
p4155
aF8.88595
aI0
aI00
aI00
aI00
aI00
aI00
aI00
aI00
aI00
aa(lp4156
I16329
aF65.3448
aF364.742
aVp5
p4157
aS'utopia'
p4158
aS'#656565'
p4159
aF8.88595
aI0
aI00
aI00
aI00
aI00
aI00
aI00
aI00
aI00
aa(lp4160
I219611
aF77.1927
aF364.742
aVp5
p4161
aS'utopia'
p4162
aS'#656565'
p4163
aF8.88595
aI0
aI00
aI00
aI00
aI00
aI00
aI00
aI00
aI00
aa(lp4164
I89480
aF96.4456
aF364.742
aVp5
p4165
aS'utopia'
p4166
aS'#656565'
p4167
aF8.88595
aI0
aI00
aI00
aI00
aI00
aI00
aI00
aI00
aI00
aa(lp4168
I194354
aF106.813
aF364.742
aVp5
p4169
aS'utopia'
p4170
aS'#656565'
p4171
aF8.88595
aI0
aI00
aI00
aI00
aI00
aI00
aI00
aI00
aI00
aa(lp4172
I234378
aF121.622
aF364.742
aVp5
p4173
aS'utopia'
p4174
aS'#656565'
p4175
aF8.88595
aI0
aI01
aI01
aI00
aI00
aI00
aI00
aI00
aI00
aa(lp4176
I137949
aF147.54
aF364.742
aVp5
p4177
aS'utopia'
p4178
aS'#656565'
p4179
aF8.88595
aI0
aI00
aI00
aI00
aI00
aI00
aI00
aI00
aI00
aa(lp4180
I221858
aF166.793
aF364.742
aVp5
p4181
aS'utopia'
p4182
aS'#656565'
p4183
aF8.88595
aI0
aI00
aI00
aI00
aI00
aI00
aI00
aI00
aI00
aa(lp4184
I234378
aF200.21927
aF364.742
ag4181
aS'utopia'
p4185
aS'#656565'
p4186
aF8.88595
aI0
aI00
aI00
aI00
aI00
aI00
aI00
aI00
aI00
aa(lp4187
I22476
aF206.039
aF364.742
aVp5
p4188
aS'utopia'
p4189
aS'#656565'
p4190
aF8.88595
aI0
aI00
aI00
aI00
aI00
aI00
aI00
aI00
aI00
aa(lp4191
I22474
aF213.444
aF364.742
aVp5
p4192
aS'utopia'
p4193
aS'#656565'
p4194
aF8.88595
aI0
aI00
aI00
aI00
aI00
aI00
aI00
aI00
aI00
aa(lp4195
I2002
aF221.589
aF364.742
aVp5
p4196
aS'utopia'
p4197
aS'#656565'
p4198
aF8.88595
aI0
aI00
aI00
aI00
aI00
aI00
aI00
aI00
aI00
aa(lp4199
I144489
aF245.285
aF364.742
aVp5
p4200
aS'utopia'
p4201
aS'#656565'
p4202
aF8.88595
aI0
aI00
aI00
aI00
aI00
aI00
aI00
aI00
aI00
aa(lp4203
I166593
aF255.652
aF364.742
aVp5
p4204
aS'utopia'
p4205
aS'#656565'
p4206
aF8.88595
aI0
aI00
aI00
aI00
aI00
aI00
aI00
aI00
aI00
aa(lp4207
I19490
aF262.317
aF364.742
aVp5
p4208
aS'utopia'
p4209
aS'#656565'
p4210
aF8.88595
aI0
aI00
aI00
aI00
aI00
aI00
aI00
aI00
aI00
aa(lp4211
I35885
aF284.532
aF364.742
aVp5
p4212
aS'utopia'
p4213
aS'#656565'
p4214
aF8.88595
aI0
aI00
aI00
aI00
aI00
aI00
aI00
aI00
aI00
aa(lp4215
I221858
aF309.708
aF364.742
aVp5
p4216
aS'utopia'
p4217
aS'#656565'
p4218
aF8.88595
aI0
aI00
aI00
aI00
aI00
aI00
aI00
aI00
aI00
aa(lp4219
I108590
aF346.733
aF364.742
aVp5
p4220
aS'utopia'
p4221
aS'#656565'
p4222
aF8.88595
aI0
aI00
aI00
aI00
aI00
aI00
aI00
aI00
aI00
aa(lp4223
I49042
aF380.796
aF364.742
aVp5
p4224
aS'utopia'
p4225
aS'#656565'
p4226
aF8.88595
aI0
aI00
aI00
aI00
aI00
aI00
aI00
aI00
aI00
aa(lp4227
I109318
aF397.827
aF364.742
aVp5
p4228
aS'utopia'
p4229
aS'#656565'
p4230
aF8.88595
aI0
aI00
aI00
aI00
aI00
aI00
aI00
aI00
aI00
aa(lp4231
I89480
aF419.302
aF364.742
aVp5
p4232
aS'utopia'
p4233
aS'#656565'
p4234
aF8.88595
aI0
aI00
aI00
aI00
aI00
aI00
aI00
aI00
aI00
aa(lp4235
I25730
aF429.669
aF364.742
aVp5
p4236
aS'utopia'
p4237
aS'#656565'
p4238
aF8.88595
aI0
aI00
aI00
aI00
aI00
aI00
aI00
aI00
aI00
aa(lp4239
I194354
aF452.624
aF364.742
aVp5
p4240
aS'utopia'
p4241
aS'#656565'
p4242
aF8.88595
aI0
aI00
aI00
aI00
aI00
aI00
aI00
aI00
aI00
aa(lp4243
I234378
aF467.434
aF364.742
aVp5
p4244
aS'utopia'
p4245
aS'#656565'
p4246
aF8.88595
aI0
aI00
aI00
aI00
aI00
aI00
aI00
aI00
aI00
aa(lp4247
I234378
aF491.5086625
aF364.742
ag4244
aS'utopia'
p4248
aS'#656565'
p4249
aF8.88595
aI0
aI00
aI00
aI00
aI00
aI00
aI00
aI00
aI00
aa(lp4250
I22476
aF497.054
aF364.742
aVp5
p4251
aS'utopia'
p4252
aS'#656565'
p4253
aF8.88595
aI0
aI01
aI00
aI00
aI00
aI00
aI00
aI00
aI00
aa(lp4254
I22474
aF505.199
aF364.742
aVp5
p4255
aS'utopia'
p4256
aS'#656565'
p4257
aF8.88595
aI0
aI00
aI00
aI00
aI00
aI00
aI00
aI00
aI00
aa(lp4258
I172883
aF513.345
aF364.742
aVp5
p4259
aS'utopia'
p4260
aS'#656565'
p4261
aF8.88595
aI0
aI00
aI00
aI00
aI00
aI00
aI00
aI00
aI00
aa(lp4262
I135639
aF537.041
aF364.742
aVp5
p4263
aS'utopia'
p4264
aS'#656565'
p4265
aF8.88595
aI0
aI00
aI00
aI00
aI00
aI00
aI00
aI00
aI00
aa(lp4266
I93656
aF40.9084
aF375.109
aVp5
p4267
aS'utopia'
p4268
aS'#656565'
p4269
aF8.88595
aI0
aI00
aI00
aI00
aI00
aI00
aI00
aI00
aI00
aa(lp4270
I194354
aF84.5977
aF375.109
aVp5
p4271
aS'utopia'
p4272
aS'#656565'
p4273
aF8.88595
aI0
aI00
aI00
aI00
aI00
aI00
aI00
aI00
aI00
aa(lp4274
I234378
aF99.4076
aF375.109
aVp5
p4275
aS'utopia'
p4276
aS'#656565'
p4277
aF8.88595
aI0
aI00
aI00
aI00
aI00
aI00
aI00
aI00
aI00
aa(lp4278
I16331
aF127.546
aF375.109
aVp5
p4279
aS'utopia'
p4280
aS'#656565'
p4281
aF8.88595
aI0
aI00
aI00
aI00
aI00
aI00
aI00
aI00
aI00
aa(lp4282
I234378
aF137.913
aF375.109
aVp5
p4283
aS'utopia'
p4284
aS'#656565'
p4285
aF8.88595
aI0
aI00
aI00
aI00
aI00
aI00
aI00
aI00
aI00
aa(lp4286
I89480
aF180.862
aF375.109
aVp5
p4287
aS'utopia'
p4288
aS'#656565'
p4289
aF8.88595
aI0
aI00
aI00
aI00
aI00
aI00
aI00
aI00
aI00
aa(lp4290
I194354
aF191.229
aF375.109
aVp5
p4291
aS'utopia'
p4292
aS'#656565'
p4293
aF8.88595
aI0
aI00
aI00
aI00
aI00
aI00
aI00
aI00
aI00
aa(lp4294
I234378
aF206.039
aF375.109
aVp5
p4295
aS'utopia'
p4296
aS'#656565'
p4297
aF8.88595
aI0
aI01
aI01
aI00
aI00
aI00
aI00
aI00
aI00
aa(lp4298
I137949
aF231.956
aF375.109
aVp5
p4299
aS'utopia'
p4300
aS'#656565'
p4301
aF8.88595
aI0
aI00
aI00
aI00
aI00
aI00
aI00
aI00
aI00
aa(lp4302
I221858
aF248.38912
aF375.109
ag4299
aS'utopia'
p4303
aS'#656565'
p4304
aF8.88595
aI0
aI00
aI00
aI00
aI00
aI00
aI00
aI00
aI00
aa(lp4305
I234378
aF283.11364
aF375.109
ag4299
aS'utopia'
p4306
aS'#656565'
p4307
aF8.88595
aI0
aI00
aI00
aI00
aI00
aI00
aI00
aI00
aI00
aa(lp4308
I234378
aF40.9084
aF412.027
aVp5
p4309
aS'utopia'
p4310
aS'#000000'
p4311
aF10.3669
aI1
aI01
aI00
aI00
aI00
aI00
aI00
aI00
aI00
aa(lp4312
I234378
aF66.8258
aF412.027
aVp5
p4313
aS'utopia'
p4314
aS'#000000'
p4315
aF10.3669
aI1
aI01
aI00
aI00
aI00
aI00
aI00
aI00
aI00
aa(lp4316
I234378
aF40.9084
aF428.588
aVp5
p4317
aS'utopia'
p4318
aS'#656565'
p4319
aF10.3669
aI0
aI01
aI00
aI00
aI00
aI00
aI00
aI00
aI00
aa(lp4320
I234378
aF66.8258
aF428.588
aVp5
p4321
aS'utopia'
p4322
aS'#656565'
p4323
aF10.3669
aI0
aI01
aI00
aI00
aI00
aI00
aI00
aI00
aI00
aa(lp4324
I234378
aF119.401
aF428.588
aVp5
p4325
aS'utopia'
p4326
aS'#656565'
p4327
aF10.3669
aI0
aI01
aI00
aI00
aI00
aI00
aI00
aI00
aI00
aa(lp4328
I60201
aF157.166
aF428.588
aVp5
p4329
aS'utopia'
p4330
aS'#656565'
p4331
aF10.3669
aI0
aI01
aI00
aI00
aI00
aI00
aI00
aI00
aI00
aa(lp4332
I230071
aF177.16
aF428.588
aVp5
p4333
aS'utopia'
p4334
aS'#656565'
p4335
aF10.3669
aI0
aI01
aI00
aI00
aI00
aI00
aI00
aI00
aI00
aa(lp4336
I131049
aF208.26
aF428.588
aVp5
p4337
aS'utopia'
p4338
aS'#656565'
p4339
aF10.3669
aI0
aI00
aI00
aI00
aI00
aI00
aI00
aI00
aI00
aa(lp4340
I234378
aF232.697
aF428.588
aVp5
p4341
aS'utopia'
p4342
aS'#656565'
p4343
aF10.3669
aI0
aI01
aI00
aI00
aI00
aI00
aI00
aI00
aI01
aa(lp4344
I234378
aF253.431
aF428.588
aVp5
p4345
aS'utopia'
p4346
aS'#656565'
p4347
aF10.3669
aI0
aI00
aI00
aI01
aI01
aI01
aI00
aI00
aI00
aa(lp4348
I89480
aF276.386
aF428.588
aVp5
p4349
aS'utopia'
p4350
aS'#656565'
p4351
aF10.3669
aI0
aI00
aI00
aI00
aI00
aI00
aI00
aI00
aI00
aa(lp4352
I102117
aF288.234
aF428.588
aVp5
p4353
aS'utopia'
p4354
aS'#656565'
p4355
aF10.3669
aI0
aI01
aI00
aI00
aI00
aI00
aI00
aI00
aI00
aa(lp4356
I234378
aF40.9084
aF444.879
aVp5
p4357
aS'utopia'
p4358
aS'#656565'
p4359
aF10.3669
aI0
aI01
aI00
aI00
aI00
aI00
aI00
aI00
aI00
aa(lp4360
I109610
aF40.9084
aF461.007
aVp5
p4361
aS'utopia'
p4362
aS'#656565'
p4363
aF8.88595
aI0
aI01
aI00
aI00
aI00
aI00
aI00
aI00
aI00
aa(lp4364
I25729
aF58.6803
aF461.007
aVp5
p4365
aS'utopia'
p4366
aS'#656565'
p4367
aF8.88595
aI0
aI01
aI00
aI00
aI00
aI00
aI00
aI00
aI00
aa(lp4368
I234378
aF76.54462000000001
aF461.007
ag4365
aS'utopia'
p4369
aS'#656565'
p4370
aF8.88595
aI0
aI00
aI00
aI00
aI00
aI00
aI00
aI00
aI00
aa(lp4371
I234378
aF85.3382
aF461.007
aVp5
p4372
aS'utopia'
p4373
aS'#656565'
p4374
aF8.88595
aI0
aI01
aI01
aI00
aI00
aI00
aI00
aI00
aI00
aa(lp4375
I234378
aF102.29828695652174
aF461.007
ag4372
aS'utopia'
p4376
aS'#656565'
p4377
aF8.88595
aI0
aI00
aI00
aI00
aI00
aI00
aI00
aI00
aI00
aa(lp4378
I234378
aF106.53830869565218
aF461.007
ag4372
aS'utopia'
p4379
aS'#656565'
p4380
aF8.88595
aI0
aI01
aI00
aI00
aI00
aI00
aI00
aI00
aI00
aa(lp4381
I234378
aF137.93852608695653
aF461.007
ag4372
aS'utopia'
p4382
aS'#656565'
p4383
aF8.88595
aI0
aI00
aI00
aI00
aI00
aI00
aI00
aI00
aI00
aa(lp4384
I234378
aF153.17854782608697
aF461.007
ag4372
aS'utopia'
p4385
aS'#656565'
p4386
aF8.88595
aI0
aI01
aI01
aI00
aI00
aI00
aI00
aI00
aI00
aa(lp4387
I234378
aF154.1386347826087
aF461.007
ag4372
aS'utopia'
p4388
aS'#656565'
p4389
aF8.88595
aI0
aI00
aI00
aI00
aI00
aI00
aI00
aI00
aI00
aa(lp4390
I234378
aF174.37865652173915
aF461.007
ag4372
aS'utopia'
p4391
aS'#656565'
p4392
aF8.88595
aI0
aI01
aI00
aI00
aI00
aI00
aI00
aI00
aI00
aa(lp4393
I234378
aF183.29883043478262
aF461.007
ag4372
aS'utopia'
p4394
aS'#656565'
p4395
aF8.88595
aI0
aI00
aI00
aI00
aI00
aI00
aI00
aI00
aI00
aa(lp4396
I21716
aF187.53885217391306
aF461.007
ag4372
aS'utopia'
p4397
aS'#656565'
p4398
aF8.88595
aI0
aI01
aI00
aI00
aI00
aI00
aI00
aI00
aI00
aa(lp4399
I234378
aF199.4989391304348
aF461.007
ag4372
aS'utopia'
p4400
aS'#656565'
p4401
aF8.88595
aI0
aI00
aI00
aI00
aI00
aI00
aI00
aI00
aI00
aa(lp4402
I234378
aF233.73896086956523
aF461.007
ag4372
aS'utopia'
p4403
aS'#656565'
p4404
aF8.88595
aI0
aI01
aI01
aI00
aI00
aI00
aI00
aI00
aI00
aa(lp4405
I234378
aF212.45902608695653
aF461.007
ag4372
aS'utopia'
p4406
aS'#656565'
p4407
aF8.88595
aI0
aI00
aI00
aI00
aI00
aI00
aI00
aI00
aI00
aa(lp4408
I234378
aF250.69904782608697
aF461.007
ag4372
aS'utopia'
p4409
aS'#656565'
p4410
aF8.88595
aI0
aI01
aI01
aI00
aI00
aI00
aI00
aI00
aI00
aa(lp4411
I234378
aF225.41911304347826
aF461.007
ag4372
aS'utopia'
p4412
aS'#656565'
p4413
aF8.88595
aI0
aI00
aI00
aI00
aI00
aI00
aI00
aI00
aI00
aa(lp4414
I44279
aF267.6591347826087
aF461.007
ag4372
aS'utopia'
p4415
aS'#656565'
p4416
aF8.88595
aI0
aI01
aI01
aI00
aI00
aI00
aI00
aI00
aI00
aa(lp4417
I210461
aF40.9084
aF475.076
aVp5
p4418
aS'utopia'
p4419
aS'#656565'
p4420
aF8.88595
aI0
aI01
aI00
aI00
aI00
aI00
aI00
aI00
aI00
aa(lp4421
I340
aF65.3448
aF475.076
aVp5
p4422
aS'utopia'
p4423
aS'#656565'
p4424
aF8.88595
aI0
aI01
aI00
aI00
aI00
aI00
aI00
aI00
aI00
aa(lp4425
I234378
aF79.65472000000001
aF475.076
ag4422
aS'utopia'
p4426
aS'#656565'
p4427
aF8.88595
aI0
aI00
aI00
aI00
aI00
aI00
aI00
aI00
aI00
aa(lp4428
I234378
aF87.5597
aF475.076
aVp5
p4429
aS'utopia'
p4430
aS'#656565'
p4431
aF8.88595
aI0
aI00
aI00
aI01
aI01
aI00
aI00
aI00
aI00
aa(lp4432
I176435
aF40.9084
aF489.145
aVp5
p4433
aS'utopia'
p4434
aS'#656565'
p4435
aF8.88595
aI0
aI01
aI00
aI00
aI00
aI00
aI00
aI00
aI00
aa(lp4436
I234378
aF60.9018
aF489.145
aVp5
p4437
aS'utopia'
p4438
aS'#656565'
p4439
aF8.88595
aI0
aI00
aI00
aI00
aI00
aI00
aI00
aI00
aI00
aa(lp4440
I150037
aF67.5663
aF489.145
aVp5
p4441
aS'utopia'
p4442
aS'#656565'
p4443
aF8.88595
aI0
aI01
aI00
aI00
aI00
aI00
aI00
aI00
aI00
aa(lp4444
I176435
aF40.9084
aF503.215
aVp5
p4445
aS'utopia'
p4446
aS'#656565'
p4447
aF8.88595
aI0
aI01
aI00
aI00
aI00
aI00
aI00
aI00
aI00
aa(lp4448
I66756
aF60.9018
aF503.215
aVp5
p4449
aS'utopia'
p4450
aS'#656565'
p4451
aF8.88595
aI0
aI01
aI00
aI00
aI00
aI00
aI00
aI00
aI00
aa(lp4452
I234378
aF105.12885833333334
aF503.215
ag4449
aS'utopia'
p4453
aS'#656565'
p4454
aF8.88595
aI0
aI00
aI00
aI00
aI00
aI00
aI00
aI00
aI00
aa(lp4455
I100815
aF113.477
aF503.215
aVp5
p4456
aS'utopia'
p4457
aS'#656565'
p4458
aF8.88595
aI0
aI01
aI00
aI00
aI00
aI00
aI00
aI00
aI00
aa(lp4459
I177958
aF40.9084
aF517.284
aVp5
p4460
aS'utopia'
p4461
aS'#656565'
p4462
aF8.88595
aI0
aI01
aI00
aI00
aI00
aI00
aI00
aI00
aI00
aa(lp4463
I234378
aF71.2688
aF517.284
aVp5
p4464
aS'utopia'
p4465
aS'#656565'
p4466
aF8.88595
aI0
aI01
aI00
aI00
aI00
aI00
aI00
aI00
aI00
aa(lp4467
I234378
aF96.6393375
aF517.284
ag4464
aS'utopia'
p4468
aS'#656565'
p4469
aF8.88595
aI0
aI00
aI00
aI00
aI00
aI00
aI00
aI00
aI00
aa(lp4470
I125458
aF104.591
aF517.284
aVp5
p4471
aS'utopia'
p4472
aS'#656565'
p4473
aF8.88595
aI0
aI01
aI00
aI00
aI00
aI00
aI00
aI00
aI00
aa(lp4474
I144483
aF137.913
aF517.284
aVp5
p4475
aS'utopia'
p4476
aS'#656565'
p4477
aF8.88595
aI0
aI00
aI00
aI00
aI00
aI00
aI00
aI00
aI00
aa(lp4478
I234378
aF150.502
aF517.284
aVp5
p4479
aS'utopia'
p4480
aS'#656565'
p4481
aF8.88595
aI0
aI00
aI00
aI00
aI00
aI00
aI00
aI00
aI00
aa(lp4482
I194354
aF195.672
aF517.284
aVp5
p4483
aS'utopia'
p4484
aS'#656565'
p4485
aF8.88595
aI0
aI00
aI00
aI00
aI00
aI00
aI00
aI00
aI00
aa(lp4486
I234378
aF210.482
aF517.284
aVp5
p4487
aS'utopia'
p4488
aS'#656565'
p4489
aF8.88595
aI0
aI00
aI00
aI00
aI00
aI00
aI00
aI00
aI00
aa(lp4490
I63022
aF250.469
aF517.284
aVp5
p4491
aS'utopia'
p4492
aS'#656565'
p4493
aF8.88595
aI0
aI00
aI00
aI00
aI00
aI00
aI00
aI00
aI00
aa(lp4494
I190806
aF284.532
aF517.284
aVp5
p4495
aS'utopia'
p4496
aS'#656565'
p4497
aF8.88595
aI0
aI00
aI00
aI00
aI00
aI00
aI00
aI00
aI00
aa(lp4498
I194354
aF298.601
aF517.284
aVp5
p4499
aS'utopia'
p4500
aS'#656565'
p4501
aF8.88595
aI0
aI00
aI00
aI00
aI00
aI00
aI00
aI00
aI00
aa(lp4502
I234378
aF313.411
aF517.284
aVp5
p4503
aS'utopia'
p4504
aS'#656565'
p4505
aF8.88595
aI0
aI01
aI00
aI00
aI00
aI00
aI00
aI00
aI00
aa(lp4506
I234378
aF335.626
aF517.284
aVp5
p4507
aS'utopia'
p4508
aS'#656565'
p4509
aF8.88595
aI0
aI00
aI00
aI00
aI00
aI00
aI00
aI00
aI00
aa(lp4510
I177271
aF40.1679
aF560.251
aVp5
p4511
aS'utopia'
p4512
aS'#02304b'
p4513
aF11.8479
aI1
aI01
aI00
aI00
aI00
aI00
aI00
aI00
aI00
aa(lp4514
I234378
aF74.2307
aF560.251
aVp5
p4515
aS'utopia'
p4516
aS'#02304b'
p4517
aF11.8479
aI1
aI01
aI00
aI00
aI00
aI00
aI00
aI00
aI00
aa(lp4518
I7520
aF49.0539
aF584.563
aVp5
p4519
aS'utopia'
p4520
aS'#656565'
p4521
aF10.3669
aI1
aI01
aI00
aI00
aI00
aI00
aI00
aI00
aI00
aa(lp4522
I10865
aF93.4836
aF584.563
aVp5
p4523
aS'utopia'
p4524
aS'#656565'
p4525
aF10.3669
aI1
aI01
aI00
aI00
aI00
aI00
aI00
aI00
aI00
aa(lp4526
I132955
aF49.0539
aF600.22
aVp5
p4527
aS'utopia'
p4528
aS'#656565'
p4529
aF8.88595
aI0
aI01
aI00
aI00
aI00
aI00
aI00
aI00
aI00
aa(lp4530
I144489
aF69.7878
aF600.22
aVp5
p4531
aS'utopia'
p4532
aS'#656565'
p4533
aF8.88595
aI0
aI00
aI00
aI00
aI00
aI00
aI00
aI00
aI00
aa(lp4534
I132529
aF80.1547
aF600.22
aVp5
p4535
aS'utopia'
p4536
aS'#656565'
p4537
aF8.88595
aI0
aI01
aI00
aI00
aI00
aI00
aI00
aI00
aI00
aa(lp4538
I234378
aF98.76336666666667
aF600.22
ag4535
aS'utopia'
p4539
aS'#656565'
p4540
aF8.88595
aI0
aI00
aI00
aI00
aI00
aI00
aI00
aI00
aI00
aa(lp4541
I234378
aF104.591
aF600.22
aVp5
p4542
aS'utopia'
p4543
aS'#434343'
p4544
aF8.88595
aI0
aI00
aI00
aI01
aI01
aI01
aI00
aI00
aI00
aa(lp4545
I234378
aF115.699
aF600.22
aVp5
p4546
aS'utopia'
p4547
aS'#434343'
p4548
aF8.88595
aI0
aI01
aI00
aI00
aI00
aI00
aI00
aI00
aI01
aa(lp4549
I234378
aF133.47
aF600.22
aVp5
p4550
aS'utopia'
p4551
aS'#434343'
p4552
aF8.88595
aI0
aI00
aI00
aI01
aI01
aI01
aI00
aI00
aI00
aa(lp4553
I86794
aF293.418
aF588.265
aVp5
p4554
aS'utopia'
p4555
aS'#656565'
p4556
aF10.3669
aI1
aI01
aI00
aI00
aI00
aI00
aI00
aI00
aI00
aa(lp4557
I131455
aF331.923
aF588.265
aVp5
p4558
aS'utopia'
p4559
aS'#656565'
p4560
aF10.3669
aI1
aI01
aI00
aI00
aI00
aI00
aI00
aI00
aI00
aa(lp4561
I234378
aF349.695
aF588.265
aVp5
p4562
aS'utopia'
p4563
aS'#656565'
p4564
aF10.3669
aI1
aI01
aI00
aI00
aI00
aI00
aI00
aI00
aI00
aa(lp4565
I131455
aF293.418
aF603.922
aVp5
p4566
aS'utopia'
p4567
aS'#656565'
p4568
aF8.88595
aI0
aI01
aI00
aI00
aI00
aI00
aI00
aI00
aI00
aa(lp4569
I197416
aF308.968
aF603.922
aVp5
p4570
aS'utopia'
p4571
aS'#656565'
p4572
aF8.88595
aI0
aI01
aI00
aI00
aI00
aI00
aI00
aI00
aI00
aa(lp4573
I234378
aF326.23992000000004
aF603.922
ag4570
aS'utopia'
p4574
aS'#656565'
p4575
aF8.88595
aI0
aI00
aI00
aI00
aI00
aI00
aI00
aI00
aI00
aa(lp4576
I28425
aF332.664
aF603.922
aVp5
p4577
aS'utopia'
p4578
aS'#434343'
p4579
aF8.88595
aI0
aI01
aI00
aI00
aI00
aI00
aI00
aI00
aI00
aa(lp4580
I108944
aF49.0539
aF615.77
aVp5
p4581
aS'utopia'
p4582
aS'#656565'
p4583
aF8.88595
aI0
aI01
aI00
aI00
aI00
aI00
aI00
aI00
aI00
aa(lp4584
I234378
aF76.44544285714287
aF615.77
ag4581
aS'utopia'
p4585
aS'#656565'
p4586
aF8.88595
aI0
aI00
aI00
aI00
aI00
aI00
aI00
aI00
aI00
aa(lp4587
I186336
aF83.1167
aF615.77
aVp5
p4588
aS'utopia'
p4589
aS'#434343'
p4590
aF8.88595
aI0
aI01
aI00
aI00
aI00
aI00
aI00
aI00
aI00
aa(lp4591
I72722
aF293.418
aF619.473
aVp5
p4592
aS'utopia'
p4593
aS'#656565'
p4594
aF8.88595
aI0
aI01
aI00
aI00
aI00
aI00
aI00
aI00
aI00
aa(lp4595
I12510
aF346.733
aF619.473
aVp5
p4596
aS'utopia'
p4597
aS'#656565'
p4598
aF8.88595
aI0
aI01
aI00
aI00
aI00
aI00
aI00
aI00
aI00
aa(lp4599
I234378
aF369.0469142857143
aF619.473
ag4596
aS'utopia'
p4600
aS'#656565'
p4601
aF8.88595
aI0
aI00
aI00
aI00
aI00
aI00
aI00
aI00
aI00
aa(lp4602
I60201
aF374.872
aF619.473
aVp5
p4603
aS'utopia'
p4604
aS'#434343'
p4605
aF8.88595
aI0
aI01
aI00
aI00
aI00
aI00
aI00
aI00
aI00
aa(lp4606
I230071
aF391.903
aF619.473
aVp5
p4607
aS'utopia'
p4608
aS'#434343'
p4609
aF8.88595
aI0
aI01
aI00
aI00
aI00
aI00
aI00
aI00
aI00
aa(lp4610
I212271
aF49.0539
aF631.321
aVp5
p4611
aS'utopia'
p4612
aS'#656565'
p4613
aF8.88595
aI0
aI01
aI00
aI00
aI00
aI00
aI00
aI00
aI00
aa(lp4614
I12510
aF79.4142
aF631.321
aVp5
p4615
aS'utopia'
p4616
aS'#656565'
p4617
aF8.88595
aI0
aI01
aI00
aI00
aI00
aI00
aI00
aI00
aI00
aa(lp4618
I234378
aF101.72811428571428
aF631.321
ag4615
aS'utopia'
p4619
aS'#656565'
p4620
aF8.88595
aI0
aI00
aI00
aI00
aI00
aI00
aI00
aI00
aI00
aa(lp4621
I97834
aF107.553
aF631.321
aVp5
p4622
aS'utopia'
p4623
aS'#434343'
p4624
aF8.88595
aI0
aI01
aI00
aI00
aI00
aI00
aI00
aI00
aI00
aa(lp4625
I118366
aF49.0539
aF651.207
aVp5
p4626
aS'utopia'
p4627
aS'#656565'
p4628
aF10.3669
aI1
aI01
aI00
aI00
aI00
aI00
aI00
aI00
aI00
aa(lp4629
I234378
aF83.97235
aF651.207
ag4626
aS'utopia'
p4630
aS'#656565'
p4631
aF10.3669
aI1
aI00
aI00
aI00
aI00
aI00
aI00
aI00
aI00
aa(lp4632
I51933
aF293.418
aF639.359
aVp5
p4633
aS'utopia'
p4634
aS'#656565'
p4635
aF10.3669
aI1
aI01
aI00
aI00
aI00
aI00
aI00
aI00
aI00
aa(lp4636
I62768
aF321.556
aF639.359
aVp5
p4637
aS'utopia'
p4638
aS'#656565'
p4639
aF10.3669
aI1
aI01
aI00
aI00
aI00
aI00
aI00
aI00
aI00
aa(lp4640
I234378
aF49.0539
aF663.902
aVp5
p4641
aS'utopia'
p4642
aS'#000000'
p4643
aF8.88595
aI0
aI00
aI00
aI00
aI00
aI00
aI00
aI00
aI00
aa(lp4644
I234378
aF80.09283333333333
aF663.902
ag4641
aS'utopia'
p4645
aS'#000000'
p4646
aF8.88595
aI0
aI00
aI00
aI00
aI00
aI00
aI00
aI00
aI00
aa(lp4647
I234378
aF86.0787
aF663.902
aVp5
p4648
aS'utopia'
p4649
aS'#000000'
p4650
aF8.88595
aI0
aI00
aI00
aI00
aI00
aI00
aI00
aI00
aI00
aa(lp4651
I234378
aF49.0539
aF674.269
aVp5
p4652
aS'utopia'
p4653
aS'#000000'
p4654
aF8.88595
aI0
aI00
aI00
aI01
aI01
aI01
aI00
aI00
aI00
aa(lp4655
I182663
aF49.0539
aF687.598
aVp5
p4656
aS'utopia'
p4657
aS'#656565'
p4658
aF8.88595
aI0
aI01
aI00
aI00
aI00
aI00
aI00
aI00
aI00
aa(lp4659
I82279
aF76.4522
aF687.598
aVp5
p4660
aS'utopia'
p4661
aS'#656565'
p4662
aF8.88595
aI0
aI01
aI00
aI00
aI00
aI00
aI00
aI00
aI00
aa(lp4663
I234378
aF96.09372
aF687.598
ag4660
aS'utopia'
p4664
aS'#656565'
p4665
aF8.88595
aI0
aI00
aI00
aI00
aI00
aI00
aI00
aI00
aI00
aa(lp4666
I234378
aF103.11
aF687.598
aVp5
p4667
aS'utopia'
p4668
aS'#000000'
p4669
aF8.88595
aI0
aI01
aI00
aI00
aI00
aI00
aI00
aI00
aI00
aa(lp4670
I31679
aF293.418
aF655.016
aVp5
p4671
aS'utopia'
p4672
aS'#656565'
p4673
aF8.88595
aI0
aI01
aI01
aI00
aI00
aI00
aI00
aI00
aI00
aa(lp4674
I51933
aF306.746
aF655.016
aVp5
p4675
aS'utopia'
p4676
aS'#656565'
p4677
aF8.88595
aI0
aI01
aI00
aI00
aI00
aI00
aI00
aI00
aI00
aa(lp4678
I12510
aF330.442
aF655.016
aVp5
p4679
aS'utopia'
p4680
aS'#656565'
p4681
aF8.88595
aI0
aI01
aI00
aI00
aI00
aI00
aI00
aI00
aI00
aa(lp4682
I234378
aF352.7559142857143
aF655.016
ag4679
aS'utopia'
p4683
aS'#656565'
p4684
aF8.88595
aI0
aI00
aI00
aI00
aI00
aI00
aI00
aI00
aI00
aa(lp4685
I147321
aF358.581
aF655.016
aVp5
p4686
aS'utopia'
p4687
aS'#434343'
p4688
aF8.88595
aI0
aI01
aI00
aI00
aI00
aI00
aI00
aI00
aI00
aa(lp4689
I89480
aF405.232
aF655.016
aVp5
p4690
aS'utopia'
p4691
aS'#434343'
p4692
aF8.88595
aI0
aI00
aI00
aI00
aI00
aI00
aI00
aI00
aI00
aa(lp4693
I51933
aF415.599
aF655.016
aVp5
p4694
aS'utopia'
p4695
aS'#434343'
p4696
aF8.88595
aI0
aI00
aI00
aI00
aI00
aI00
aI00
aI00
aI00
aa(lp4697
I135639
aF437.814
aF655.016
aVp5
p4698
aS'utopia'
p4699
aS'#434343'
p4700
aF8.88595
aI0
aI00
aI00
aI00
aI00
aI00
aI00
aI00
aI00
aa(lp4701
I31679
aF447.441
aF655.016
aVp5
p4702
aS'utopia'
p4703
aS'#434343'
p4704
aF8.88595
aI0
aI01
aI01
aI00
aI00
aI00
aI00
aI00
aI00
aa(lp4705
I234378
aF293.418
aF670.567
aVp5
p4706
aS'utopia'
p4707
aS'#656565'
p4708
aF8.88595
aI0
aI01
aI00
aI00
aI00
aI00
aI00
aI00
aI00
aa(lp4709
I234378
aF330.17652
aF670.567
ag4706
aS'utopia'
p4710
aS'#656565'
p4711
aF8.88595
aI0
aI00
aI00
aI00
aI00
aI00
aI00
aI00
aI00
aa(lp4712
I227337
aF336.366
aF670.567
aVp5
p4713
aS'utopia'
p4714
aS'#434343'
p4715
aF8.88595
aI0
aI01
aI00
aI00
aI00
aI00
aI00
aI00
aI00
aa(lp4716
I234378
aF365.246
aF670.567
aVp5
p4717
aS'utopia'
p4718
aS'#434343'
p4719
aF8.88595
aI0
aI01
aI00
aI00
aI00
aI00
aI00
aI00
aI00
aa(lp4720
I234378
aF389.2093538461538
aF670.567
ag4717
aS'utopia'
p4721
aS'#434343'
p4722
aF8.88595
aI0
aI00
aI00
aI00
aI00
aI00
aI00
aI00
aI00
aa(lp4723
I227337
aF393.2032461538461
aF670.567
ag4717
aS'utopia'
p4724
aS'#434343'
p4725
aF8.88595
aI0
aI01
aI00
aI00
aI00
aI00
aI00
aI00
aI00
aa(lp4726
I85540
aF419.302
aF670.567
aVp5
p4727
aS'utopia'
p4728
aS'#434343'
p4729
aF8.88595
aI0
aI01
aI00
aI00
aI00
aI00
aI00
aI00
aI00
aa(lp4730
I234378
aF450.89246153846153
aF670.567
ag4727
aS'utopia'
p4731
aS'#434343'
p4732
aF8.88595
aI0
aI00
aI00
aI00
aI00
aI00
aI00
aI00
aI00
aa(lp4733
I164802
aF455.4053846153846
aF670.567
ag4727
aS'utopia'
p4734
aS'#434343'
p4735
aF8.88595
aI0
aI01
aI00
aI00
aI00
aI00
aI00
aI00
aI00
aa(lp4736
I166771
aF293.418
aF690.454
aVp5
p4737
aS'utopia'
p4738
aS'#656565'
p4739
aF10.3669
aI1
aI01
aI00
aI00
aI00
aI00
aI00
aI00
aI00
aa(lp4740
I74833
aF349.695
aF690.454
aVp5
p4741
aS'utopia'
p4742
aS'#656565'
p4743
aF10.3669
aI1
aI01
aI00
aI00
aI00
aI00
aI00
aI00
aI00
aa(lp4744
I233758
aF293.418
aF706.111
aVp5
p4745
aS'utopia'
p4746
aS'#656565'
p4747
aF8.88595
aI0
aI01
aI00
aI00
aI00
aI00
aI00
aI00
aI00
aa(lp4748
I234378
aF327.0898222222222
aF706.111
ag4745
aS'utopia'
p4749
aS'#656565'
p4750
aF8.88595
aI0
aI00
aI00
aI00
aI00
aI00
aI00
aI00
aI00
aa(lp4751
I230332
aF333.404
aF706.111
aVp5
p4752
aS'utopia'
p4753
aS'#434343'
p4754
aF8.88595
aI0
aI01
aI00
aI00
aI00
aI00
aI00
aI00
aI00
aa(lp4755
I151511
aF293.418
aF721.661
aVp5
p4756
aS'utopia'
p4757
aS'#656565'
p4758
aF8.88595
aI0
aI01
aI00
aI00
aI00
aI00
aI00
aI00
aI00
aa(lp4759
I234378
aF334.145
aF721.661
aVp5
p4760
aS'utopia'
p4761
aS'#656565'
p4762
aF8.88595
aI0
aI01
aI00
aI00
aI00
aI00
aI00
aI00
aI00
aa(lp4763
I234378
aF375.9870909090909
aF721.661
ag4760
aS'utopia'
p4764
aS'#656565'
p4765
aF8.88595
aI0
aI00
aI00
aI00
aI00
aI00
aI00
aI00
aI00
aa(lp4766
I201816
aF382.277
aF721.661
aVp5
p4767
aS'utopia'
p4768
aS'#434343'
p4769
aF8.88595
aI0
aI01
aI00
aI00
aI00
aI00
aI00
aI00
aI00
aa(lp4770
I234378
aF301.563
aF141.853
aVp1
p4771
aS'utopia'
p4772
aS'#000000'
p4773
aF8.88595
aI0
aI00
aI00
aI01
aI01
aI01
aI00
aI00
aI00
aa(lp4774
I16915
aF308.227
aF176.656
aVp1
p4775
aS'utopia'
p4776
aS'#878787'
p4777
aF8.88595
aI0
aI01
aI00
aI00
aI00
aI00
aI00
aI00
aI00
aa(lp4778
I60220
aF330.442
aF176.656
aVp1
p4779
aS'utopia'
p4780
aS'#878787'
p4781
aF8.88595
aI0
aI01
aI00
aI00
aI00
aI00
aI00
aI00
aI00
aa(lp4782
I234378
aF372.28409090909093
aF176.656
ag4779
aS'utopia'
p4783
aS'#878787'
p4784
aF8.88595
aI0
aI00
aI00
aI00
aI00
aI00
aI00
aI00
aI00
aa(lp4785
I234378
aF380.796
aF176.656
aVp1
p4786
aS'utopia'
p4787
aS'#000000'
p4788
aF8.88595
aI0
aI00
aI00
aI01
aI01
aI00
aI00
aI00
aI00
aa(lp4789
I91136
aF387.46
aF176.656
aVp1
p4790
aS'utopia'
p4791
aS'#000000'
p4792
aF8.88595
aI0
aI01
aI00
aI00
aI00
aI00
aI00
aI00
aI00
aa(lp4793
I234378
aF403.18559999999997
aF176.656
ag4790
aS'utopia'
p4794
aS'#000000'
p4795
aF8.88595
aI0
aI00
aI00
aI00
aI00
aI00
aI00
aI00
aI00
aa(lp4796
I59734
aF407.11699999999996
aF176.656
ag4790
aS'utopia'
p4797
aS'#000000'
p4798
aF8.88595
aI0
aI00
aI00
aI00
aI00
aI00
aI00
aI00
aI00
aa(lp4799
I234378
aF411.04839999999996
aF176.656
ag4790
aS'utopia'
p4800
aS'#000000'
p4801
aF8.88595
aI0
aI00
aI00
aI00
aI00
aI00
aI00
aI00
aI00
aa(lp4802
I234378
aF417.08
aF176.656
aVp1
p4803
aS'utopia'
p4804
aS'#000000'
p4805
aF8.88595
aI0
aI00
aI00
aI01
aI01
aI00
aI00
aI00
aI00
aa(lp4806
I63729
aF423.745
aF176.656
aVp1
p4807
aS'utopia'
p4808
aS'#000000'
p4809
aF8.88595
aI0
aI01
aI00
aI00
aI00
aI00
aI00
aI00
aI00
aa(lp4810
I234378
aF446.4985625
aF176.656
ag4807
aS'utopia'
p4811
aS'#000000'
p4812
aF8.88595
aI0
aI00
aI00
aI00
aI00
aI00
aI00
aI00
aI00
aa(lp4813
I59734
aF451.04927499999997
aF176.656
ag4807
aS'utopia'
p4814
aS'#000000'
p4815
aF8.88595
aI0
aI00
aI00
aI00
aI00
aI00
aI00
aI00
aI00
aa(lp4816
I234378
aF455.59998749999994
aF176.656
ag4807
aS'utopia'
p4817
aS'#000000'
p4818
aF8.88595
aI0
aI00
aI00
aI00
aI00
aI00
aI00
aI00
aI00
aa(lp4819
I229300
aF308.227
aF194.428
aVp1
p4820
aS'utopia'
p4821
aS'#878787'
p4822
aF8.88595
aI0
aI01
aI00
aI00
aI00
aI00
aI00
aI00
aI00
aa(lp4823
I78894
aF338.588
aF194.428
aVp1
p4824
aS'utopia'
p4825
aS'#878787'
p4826
aF8.88595
aI0
aI01
aI00
aI00
aI00
aI00
aI00
aI00
aI00
aa(lp4827
I234378
aF360.9019142857143
aF194.428
ag4824
aS'utopia'
p4828
aS'#878787'
p4829
aF8.88595
aI0
aI00
aI00
aI00
aI00
aI00
aI00
aI00
aI00
aa(lp4830
I234378
aF368.948
aF194.428
aVp1
p4831
aS'utopia'
p4832
aS'#000000'
p4833
aF8.88595
aI0
aI01
aI00
aI00
aI00
aI00
aI00
aI00
aI00
aa(lp4834
I234378
aF380.796
aF194.428
aVp1
p4835
aS'utopia'
p4836
aS'#000000'
p4837
aF8.88595
aI0
aI00
aI00
aI01
aI01
aI01
aI00
aI00
aI00
aa(lp4838
I234378
aF388.6867
aF194.428
ag4835
aS'utopia'
p4839
aS'#000000'
p4840
aF8.88595
aI0
aI00
aI00
aI00
aI00
aI00
aI00
aI00
aI00
aa(lp4841
I234378
aF392.63205
aF194.428
ag4835
aS'utopia'
p4842
aS'#000000'
p4843
aF8.88595
aI0
aI00
aI00
aI01
aI01
aI00
aI00
aI00
aI00
aa(lp4844
I234378
aF398.568
aF194.428
aVp1
p4845
aS'utopia'
p4846
aS'#000000'
p4847
aF8.88595
aI0
aI01
aI00
aI00
aI00
aI00
aI00
aI00
aI00
aa(lp4848
I234378
aF308.227
aF212.2
aVp1
p4849
aS'utopia'
p4850
aS'#878787'
p4851
aF8.88595
aI0
aI01
aI00
aI00
aI00
aI00
aI00
aI00
aI00
aa(lp4852
I234378
aF346.733
aF212.2
aVp1
p4853
aS'utopia'
p4854
aS'#878787'
p4855
aF8.88595
aI0
aI01
aI01
aI00
aI00
aI00
aI00
aI00
aI00
aa(lp4856
I234378
aF361.2593
aF212.2
ag4853
aS'utopia'
p4857
aS'#878787'
p4858
aF8.88595
aI0
aI00
aI00
aI00
aI00
aI00
aI00
aI00
aI00
aa(lp4859
I63091
aF370.429
aF212.2
aVp1
p4860
aS'utopia'
p4861
aS'#000000'
p4862
aF8.88595
aI0
aI01
aI00
aI00
aI00
aI00
aI00
aI00
aI00
aa(lp4863
I234378
aF387.46
aF212.2
aVp1
p4864
aS'utopia'
p4865
aS'#000000'
p4866
aF8.88595
aI0
aI01
aI00
aI00
aI00
aI00
aI00
aI00
aI00
aa(lp4867
I7204
aF308.227
aF229.972
aVp1
p4868
aS'utopia'
p4869
aS'#878787'
p4870
aF8.88595
aI0
aI01
aI00
aI00
aI00
aI00
aI00
aI00
aI00
aa(lp4871
I189220
aF340.809
aF229.972
aVp1
p4872
aS'utopia'
p4873
aS'#878787'
p4874
aF8.88595
aI0
aI01
aI00
aI00
aI00
aI00
aI00
aI00
aI00
aa(lp4875
I234378
aF366.93111428571433
aF229.972
ag4872
aS'utopia'
p4876
aS'#878787'
p4877
aF8.88595
aI0
aI00
aI00
aI00
aI00
aI00
aI00
aI00
aI00
aa(lp4878
I234378
aF375.613
aF229.972
aVp1
p4879
aS'utopia'
p4880
aS'#000000'
p4881
aF8.88595
aI0
aI01
aI01
aI00
aI00
aI00
aI00
aI00
aI00
aa(lp4882
I48671
aF308.227
aF247.744
aVp1
p4883
aS'utopia'
p4884
aS'#878787'
p4885
aF8.88595
aI0
aI01
aI00
aI00
aI00
aI00
aI00
aI00
aI00
aa(lp4886
I129688
aF336.366
aF247.744
aVp1
p4887
aS'utopia'
p4888
aS'#878787'
p4889
aF8.88595
aI0
aI00
aI00
aI00
aI00
aI00
aI00
aI00
aI00
aa(lp4890
I234378
aF360.58405714285715
aF247.744
ag4887
aS'utopia'
p4891
aS'#878787'
p4892
aF8.88595
aI0
aI00
aI00
aI00
aI00
aI00
aI00
aI00
aI00
aa(lp4893
I230771
aF368.948
aF247.744
aVp1
p4894
aS'utopia'
p4895
aS'#000000'
p4896
aF8.88595
aI0
aI01
aI00
aI00
aI00
aI00
aI00
aI00
aI00
aa(lp4897
I48671
aF400.049
aF247.744
aVp1
p4898
aS'utopia'
p4899
aS'#000000'
p4900
aF8.88595
aI0
aI01
aI00
aI00
aI00
aI00
aI00
aI00
aI00
aa(lp4901
I129688
aF428.188
aF247.744
aVp1
p4902
aS'utopia'
p4903
aS'#000000'
p4904
aF8.88595
aI0
aI01
aI00
aI00
aI00
aI00
aI00
aI00
aI00
aa(lp4905
I1
aI1
aI0
aI0
aI0
aI0
aI0
aI0
aI0
aI0
aI0
aI0
aI0
aI0
aI0
aI0
aI0
aI0
aI0
aI0
aI0
aI0
aI0
aI0
aI0
aI0
aI0
aI0
aI0
aI0
aI0
aI0
aI0
aI0
aI0
aI0
aI0
aI0
aI0
aI0
aI0
aI0
aI0
aI0
aI0
aI0
aI0
aI0
aI0
aI0
aI0
aI0
aI0
aI0
aI0
aI0
aI0
aI0
aI0
aI0
aI0
aI0
aI0
aI0
aI0
aI0
aI0
aI0
aI0
aI0
aI0
aI0
aI0
aI0
aI0
aI0
aI0
aI0
aI0
aI0
aI0
aI0
aI0
aI0
aI0
aI0
aI0
aI0
aI0
aI0
aI0
aI0
aI0
aI0
aI0
aI0
aI0
aI0
aI0
aI0
aI0
aI0
aI0
aI0
aI0
aI0
aI0
aI0
aI0
aI0
aI0
aI0
aI0
aI0
aI0
aI0
aI0
aI0
aI0
aI0
aI1
aI1
aI0
aI0
aI0
aI0
aI0
aI0
aI0
aI0
aI0
aI0
aI0
aI0
aI0
aI0
aI0
aI0
aI0
aI0
aI0
aI0
aI0
aI0
aI0
aI0
aI0
aI0
aI0
aI0
aI0
aI0
aI0
aI0
aI0
aI0
aI0
aI0
aI0
aI0
aI0
aI0
aI0
aI0
aI0
aI0
aI0
aI0
aI0
aI0
aI0
aI0
aI0
aI0
aI0
aI0
aI0
aI0
aI0
aI0
aI0
aI0
aI0
aI0
aI0
aI0
aI0
aI0
aI0
aI0
aI0
aI0
aI0
aI0
aI0
aI0
aI0
aI0
aI0
aI0
aI0
aI0
aI0
aI0
aI0
aI0
aI0
aI0
aI0
aI0
aI0
aI0
aI0
aI0
aI0
aI0
aI0
aI0
aI0
aI0
aI0
aI0
aI0
aI0
aI0
aI0
aI0
aI0
aI0
aI0
aI0
aI0
aI0
aI0
aI0
aI0
aI0
aI0
aI0
aI0
aI0
aI0
aI0
aI0
aI0
aI0
aI0
aI0
aI0
aI0
aI0
aI0
aI0
aI0
aI0
aI0
aI0
aI0
aI0
aI0
aI0
aI0
aI0
aI0
aI0
aI0
aI0
aI0
aI0
aI0
aI0
aI0
aI0
aI0
aI0
aI0
aI0
aI0
aI0
aI0
aI0
aI0
aI0
aI0
aI0
aI0
aI0
aI0
aI0
aI0
aI0
aI0
aI0
aI0
aI0
aI0
aI0
aI0
aI0
aI0
aI0
aI0
aI0
aI0
aI0
aI0
aI0
aI1
aI0
aI0
aI0
aI0
aI0
aI0
aI0
aI0
aI0
aI0
aI0
aI0
aI0
aI0
aI0
aI0
aI0
aI0
aI0
aI0
aI0
aI0
aI0
aI0
aI0
aI0
aI0
aI0
aI0
aI0
aI0
aI1
aI0
aI0
aI0
aI0
aI0
aI0
aI0
aI0
aI0
aI0
aI0
aI0
aI0
aI0
aI0
aI0
aI0
aI0
aI0
aI0
aI0
aI0
aI0
aI0
aI0
aI0
aI0
aI1
aI1
aI0
aI0
aI0
aI0
aI0
aI0
aI0
aI0
aI0
aI0
aI0
aI0
aI0
aI0
aI0
aI0
aI0
aI0
aI0
aI0
aI0
aI0
aI0
aI0
aI0
aI0
aI0
aI0
aI0
aI0
aI0
aI0
aI0
aI0
aI0
aI0
aI0
aI0
aI0
aI0
aI0
aI0
aI0
aI0
aI0
aI0
aI0
aI0
aI0
aI0
aI0
aI0
aI0
aI0
aI0
aI0
aI0
aI0
aI0
aI0
aI0
aI0
aI0
aI0
aI0
aI0
aI0
aI0
aI0
aI0
aI0
aI0
aI0
aI0
aI0
aI0
aI0
aI0
aI0
aI0
aI0
aI0
aI0
aI0
aI0
aI0
aI0
aI0
aI0
aI0
aI0
aI0
aI0
aI0
aI0
aI0
aI0
aI0
aI0
aI0
aI1
aI1
aI0
aI0
aI0
aI0
aI0
aI0
aI0
aI0
aI0
aI0
aI0
aI1
aI0
aI0
aI0
aI0
aI0
aI0
aI0
aI0
aI0
aI0
aI0
aI0
aI0
aI0
aI0
aI0
aI0
aI0
aI0
aI0
aI0
aI0
aI0
aI0
aI0
aI0
aI0
aI0
aI0
aI0
aI0
aI0
aI0
aI0
aI0
aI0
aI0
aI0
aI0
aI0
aI0
aI0
aI0
aI0
aI0
aI0
aI0
aI0
aI0
aI0
aI0
aI0
aI0
aI0
aI0
aI0
aI0
aI0
aI0
aI0
aI0
aI0
aI0
aI0
aI0
aI0
aI0
aI0
aI0
aI0
aI0
aI0
aI0
aI0
aI0
aI0
aI0
aI0
aI0
aI0
aI0
aI0
aI0
aI0
aI0
aI0
aI0
aI0
aI0
aI0
aI0
aI0
aI0
aI0
aI0
aI0
aI0
aI0
aI0
aI0
aI0
aI0
aI0
aI0
aI0
aI0
aI0
aI0
aI0
aI0
aI0
aI0
aI0
aI0
aI0
aI0
aI0
aI0
aI0
aI0
aI0
aI0
aI0
aI0
aI0
aI0
aI0
aI0
aI0
aI0
aI0
aI0
aI0
aI0
aI0
aI0
aI0
aI0
aI0
aI0
aI0
aI0
aI0
aI0
aI0
aI0
aI0
aI0
aI0
aI0
aI0
aI0
aI0
aI0
aI0
aI0
aI0
aI0
aI0
aI0
aI0
aI0
aI0
aI0
aI0
aI0
aI0
aI0
aI0
aI0
aI0
aI0
aI0
aI0
aI0
aI0
aI0
aI0
aI0
aI0
aI0
aI0
aI0
aI0
aI0
aI0
aI0
aI0
aI0
aI0
aI0
aI0
aI0
aI0
aI0
aI0
aI0
aI0
aI0
aI0
aI0
aI0
aI0
aI0
aI0
aI0
aI0
aI0
aI0
aI0
aI0
aI0
aI0
aI0
aI0
aI0
aI0
aI0
aI0
aI0
aI0
aI0
aI0
aI0
aI0
aI0
aI0
aI0
aI0
aI0
aI0
aI0
aI0
aI0
aI0
aI0
aI0
aI0
aI0
aI0
aI0
aI0
aI0
aI0
aI0
aI0
aI0
aI0
aI0
aI0
aI0
aI0
aI0
aI0
aI0
aI0
aI0
aI0
aI0
aI0
aI0
aI0
aI0
aI0
aI0
aI0
aI0
aI0
aI0
aI0
aI0
aI0
aI0
aI0
aI0
aI0
aI0
aI0
aI0
aI0
aI0
aI0
aI0
aI0
aI0
aI0
aI0
aI0
aI0
aI0
aI0
aI0
aI0
aI0
aI0
aI0
aI0
aI0
aI0
aI0
aI0
aI0
aI0
aI0
aI0
aI0
aI0
aI0
aI0
aI0
aI0
aI0
aI0
aI0
aI0
aI0
aI0
aI0
aI0
aI0
aI0
aI0
aI0
aI0
aI0
aI0
aI0
aI0
aI0
aI0
aI0
aI0
aI0
aI0
aI0
aI0
aI0
aI0
aI0
aI0
aI0
aI0
aI0
aI0
aI0
aI0
aI0
aI0
aI0
aI0
aI0
aI0
aI0
aI0
aI0
aI0
aI0
aI0
aI0
aI0
aI0
aI0
aI0
aI0
aI0
aI0
aI0
aI0
aI0
aI0
aI0
aI0
aI0
aI0
aI0
aI0
aI0
aI0
aI0
aI0
aI0
aI0
aI0
aI0
aI0
aI0
aI0
aI0
aI0
aI0
aI0
aI0
aI0
aI0
aI0
aI0
aI0
aI0
aI0
aI0
aI0
aI0
aI0
aI0
aI0
aI0
aI0
aI0
aI0
aI0
aI0
aI0
aI0
aI0
aI0
aI0
aI0
aI0
aI0
aI0
aI0
aI0
aI0
aI0
aI0
aI0
aI0
aI0
aI0
aI0
aI0
aI0
aI0
aI0
aI0
aI0
aI0
aI0
aI0
aI0
aI0
aI0
aI0
aI0
aI0
aI0
aI0
aI0
aI0
aI0
aI0
aI0
aI0
aI0
aI0
aI0
aI0
aI0
aI0
aI0
aI0
aI0
aI0
aI0
aI0
aI0
aI0
aI0
aI0
aI0
aI0
aI0
aI0
aI0
aI0
aI0
aI0
aI0
aI0
aI0
aI0
aI0
aI0
aI0
aI0
aI0
aI0
aI0
aI0
aI0
aI0
aI0
aI0
aI0
aI0
aI0
aI0
aI0
aI0
aI0
aI0
aI0
aI0
aI0
aI0
aI0
aI0
aI0
aI0
aI0
aI0
aI0
aI0
aI0
aI0
aI0
aI0
aI0
aI0
aI0
aI0
aI0
aI0
aI0
aI0
aI0
aI0
aI0
aI0
aI0
aI0
aI0
aI0
aI0
aI0
aI0
aI0
aI0
aI0
aI0
aI0
aI0
aI0
aI0
aI0
aI0
aI0
aI0
aI0
aI0
aI0
aI0
aI0
aI0
aI0
aI0
aI0
aI0
aI0
aI0
aI0
aI0
aI0
aI0
aI0
aI0
aI0
aI0
aI0
aI0
aI0
aI0
aI0
aI0
aI0
aI0
aI0
aI0
aI0
aI0
aI0
aI0
aI0
aI0
aI0
aI0
aI0
aI0
aI0
aI0
aI0
aI0
aI0
aI0
aI0
aI0
aI0
aI0
aI0
aI0
aI0
aI0
aI0
aI0
aI0
aI0
aI0
aI0
aI0
aI0
aI0
aI0
aI0
aI0
aI0
aI0
aI0
aI0
aI0
aI0
aI0
aI0
aI0
aI0
aI0
aI0
aI0
aI0
aI0
aI0
aI0
aI0
aI0
aI0
aI0
aI0
aI0
aI0
aI0
aI0
aI0
aI0
aI0
aI0
aI0
aI0
aI0
aI0
aI0
aI0
aI0
aI0
aI0
aI0
aI0
aI0
aI0
aI0
aI0
aI0
aI0
aI0
aI0
aI0
aI0
aI0
aI0
aI0
aI0
aI0
aI0
aI0
aI0
aI0
aI0
aI0
aI0
aI0
aI0
aI0
aI0
aI0
aI0
aI0
aI0
aI0
aI0
aI0
aI0
aI0
aI0
aI0
aI0
aI0
aI0
aI0
aI0
aI0
aI0
aI0
aI1
aI1
aI0
aI0
aI0
aI0
aI0
aI0
aI0
aI0
aI0
aI0
aI0
aI0
aI0
aI0
aI0
aI0
aI0
aI0
aI0
aI0
aI0
aI0
aI0
aI0
aI0
aI0
aI0
aI0
aI0
aI0
aI0
aI0
aI0
aI0
aI0
aI0
aI0
aI0
aI0
aI0
aI0
aI0
aI0
aI0
aI0
aI0
aI0
aI0
aI0
aI0
aI0
aI0
aI0
aI0
aI0
aI0
aI0
aI0
aI0
aI0
aI0
aI0
aI0
aI0
aI0
aI0
aI0
aI0
aI0
aI0
aI0
aI0
aI0
aI0
aI0
aI0
aI0
aI0
aI0
aI0
aI0
aI0
aI0
aI0
aI0
aI0
aI0
aI0
aI0
aI0
aI0
aI0
aI0
aI0
aI0
aI0
aI0
aI0
aI0
aI0
aI0
aI0
aI0
aI0
atp4906
.