((lp0
(lp1
I234378
aF40.9084
aF53.0111
aVp1
p2
aS'utopia'
p3
aS'#02304b'
p4
aF11.8479
aI1
aI01
aI00
aI00
aI00
aI00
aI00
aI00
aI00
aa(lp5
I234378
aF65.3448
aF53.0111
aVp1
p6
aS'utopia'
p7
aS'#02304b'
p8
aF11.8479
aI1
aI01
aI00
aI00
aI00
aI00
aI00
aI00
aI00
aa(lp9
I234378
aF46.8324
aF74.4677
aVp1
p10
aS'utopia'
p11
aS'#656565'
p12
aF8.88595
aI0
aI00
aI00
aI01
aI01
aI00
aI00
aI00
aI00
aa(lp13
I234378
aF53.4969
aF74.4677
aVp1
p14
aS'utopia'
p15
aS'#656565'
p16
aF8.88595
aI0
aI00
aI00
aI00
aI00
aI00
aI00
aI00
aI00
aa(lp17
I135639
aF76.4522
aF74.4677
aVp1
p18
aS'utopia'
p19
aS'#656565'
p20
aF8.88595
aI0
aI00
aI00
aI00
aI00
aI00
aI00
aI00
aI00
aa(lp21
I22476
aF86.0787
aF74.4677
aVp1
p22
aS'utopia'
p23
aS'#656565'
p24
aF8.88595
aI0
aI01
aI01
aI00
aI00
aI00
aI00
aI00
aI00
aa(lp25
I16331
aF96.4456
aF74.4677
aVp1
p26
aS'utopia'
p27
aS'#656565'
p28
aF8.88595
aI0
aI00
aI00
aI00
aI00
aI00
aI00
aI00
aI00
aa(lp29
I234378
aF106.813
aF74.4677
aVp1
p30
aS'utopia'
p31
aS'#656565'
p32
aF8.88595
aI0
aI01
aI00
aI00
aI00
aI00
aI00
aI00
aI00
aa(lp33
I100815
aF143.837
aF74.4677
aVp1
p34
aS'utopia'
p35
aS'#656565'
p36
aF8.88595
aI0
aI01
aI00
aI00
aI00
aI00
aI00
aI00
aI00
aa(lp37
I234378
aF187.21121428571428
aF74.4677
ag34
aS'utopia'
p38
aS'#656565'
p39
aF8.88595
aI0
aI00
aI00
aI00
aI00
aI00
aI00
aI00
aI00
aa(lp40
I228990
aF192.03057142857142
aF74.4677
ag34
aS'utopia'
p41
aS'#656565'
p42
aF8.88595
aI0
aI01
aI00
aI00
aI00
aI00
aI00
aI00
aI00
aa(lp43
I135639
aF213.444
aF74.4677
aVp1
p44
aS'utopia'
p45
aS'#656565'
p46
aF8.88595
aI0
aI00
aI00
aI00
aI00
aI00
aI00
aI00
aI00
aa(lp47
I84662
aF223.07
aF74.4677
aVp1
p48
aS'utopia'
p49
aS'#656565'
p50
aF8.88595
aI0
aI01
aI00
aI00
aI00
aI00
aI00
aI00
aI00
aa(lp51
I21716
aF244.545
aF74.4677
aVp1
p52
aS'utopia'
p53
aS'#656565'
p54
aF8.88595
aI0
aI01
aI00
aI00
aI00
aI00
aI00
aI00
aI00
aa(lp55
I234378
aF260.9437789473684
aF74.4677
ag52
aS'utopia'
p56
aS'#656565'
p57
aF8.88595
aI0
aI00
aI00
aI00
aI00
aI00
aI00
aI00
aI00
aa(lp58
I234378
aF265.0434736842105
aF74.4677
ag52
aS'utopia'
p59
aS'#656565'
p60
aF8.88595
aI0
aI01
aI00
aI00
aI00
aI00
aI00
aI00
aI00
aa(lp61
I85218
aF324.518
aF74.4677
aVp1
p62
aS'utopia'
p63
aS'#656565'
p64
aF8.88595
aI0
aI00
aI00
aI00
aI00
aI00
aI00
aI00
aI00
aa(lp65
I234378
aF341.55
aF74.4677
aVp1
p66
aS'utopia'
p67
aS'#656565'
p68
aF8.88595
aI0
aI01
aI00
aI00
aI00
aI00
aI00
aI00
aI00
aa(lp69
I234378
aF384.424975
aF74.4677
ag66
aS'utopia'
p70
aS'#656565'
p71
aF8.88595
aI0
aI00
aI00
aI00
aI00
aI00
aI00
aI00
aI00
aa(lp72
I85218
aF390.422
aF74.4677
aVp1
p73
aS'utopia'
p74
aS'#656565'
p75
aF8.88595
aI0
aI00
aI00
aI00
aI00
aI00
aI00
aI00
aI00
aa(lp76
I234378
aF407.454
aF74.4677
aVp1
p77
aS'utopia'
p78
aS'#656565'
p79
aF8.88595
aI0
aI01
aI00
aI00
aI00
aI00
aI00
aI00
aI00
aa(lp80
I4526
aF40.9084
aF84.8346
aVp1
p81
aS'utopia'
p82
aS'#656565'
p83
aF8.88595
aI0
aI00
aI00
aI00
aI00
aI00
aI00
aI00
aI00
aa(lp84
I169745
aF74.9712
aF84.8346
aVp1
p85
aS'utopia'
p86
aS'#656565'
p87
aF8.88595
aI0
aI00
aI00
aI00
aI00
aI00
aI00
aI00
aI00
aa(lp88
I234378
aF94.2241
aF84.8346
aVp1
p89
aS'utopia'
p90
aS'#656565'
p91
aF8.88595
aI0
aI01
aI01
aI00
aI00
aI00
aI00
aI00
aI00
aa(lp92
I234378
aF59.4208
aF124.081
aVp1
p93
aS'utopia'
p94
aS'#0d75b4'
p95
aF8.88595
aI0
aI00
aI00
aI00
aI00
aI00
aI01
aI00
aI00
aa(lp96
I234378
aF301.563
aF124.081
aVp1
p97
aS'utopia'
p98
aS'#000000'
p99
aF8.88595
aI0
aI00
aI00
aI01
aI01
aI01
aI00
aI00
aI00
aa(lp100
I15548
aF55.7183
aF158.884
aVp1
p101
aS'utopia'
p102
aS'#878787'
p103
aF8.88595
aI0
aI01
aI00
aI00
aI00
aI00
aI00
aI00
aI00
aa(lp104
I104542
aF89.0407
aF158.884
aVp1
p105
aS'utopia'
p106
aS'#878787'
p107
aF8.88595
aI0
aI01
aI00
aI00
aI00
aI00
aI00
aI00
aI00
aa(lp108
I234378
aF133.94655
aF158.884
ag105
aS'utopia'
p109
aS'#878787'
p110
aF8.88595
aI0
aI00
aI00
aI00
aI00
aI00
aI00
aI00
aI00
aa(lp111
I234378
aF142.356
aF158.884
aVp1
p112
aS'utopia'
p113
aS'#000000'
p114
aF8.88595
aI0
aI01
aI00
aI00
aI00
aI00
aI00
aI00
aI00
aa(lp115
I132100
aF179.381
aF158.884
aVp1
p116
aS'utopia'
p117
aS'#000000'
p118
aF8.88595
aI0
aI01
aI00
aI00
aI00
aI00
aI00
aI00
aI00
aa(lp119
I16915
aF308.227
aF158.884
aVp1
p120
aS'utopia'
p121
aS'#878787'
p122
aF8.88595
aI0
aI01
aI00
aI00
aI00
aI00
aI00
aI00
aI00
aa(lp123
I60220
aF330.442
aF158.884
aVp1
p124
aS'utopia'
p125
aS'#878787'
p126
aF8.88595
aI0
aI01
aI00
aI00
aI00
aI00
aI00
aI00
aI00
aa(lp127
I234378
aF372.28409090909093
aF158.884
ag124
aS'utopia'
p128
aS'#878787'
p129
aF8.88595
aI0
aI00
aI00
aI00
aI00
aI00
aI00
aI00
aI00
aa(lp130
I234378
aF380.796
aF158.884
aVp1
p131
aS'utopia'
p132
aS'#000000'
p133
aF8.88595
aI0
aI00
aI00
aI01
aI01
aI00
aI00
aI00
aI00
aa(lp134
I91136
aF387.46
aF158.884
aVp1
p135
aS'utopia'
p136
aS'#000000'
p137
aF8.88595
aI0
aI01
aI00
aI00
aI00
aI00
aI00
aI00
aI00
aa(lp138
I234378
aF403.18559999999997
aF158.884
ag135
aS'utopia'
p139
aS'#000000'
p140
aF8.88595
aI0
aI00
aI00
aI00
aI00
aI00
aI00
aI00
aI00
aa(lp141
I59734
aF407.11699999999996
aF158.884
ag135
aS'utopia'
p142
aS'#000000'
p143
aF8.88595
aI0
aI00
aI00
aI00
aI00
aI00
aI00
aI00
aI00
aa(lp144
I234378
aF411.04839999999996
aF158.884
ag135
aS'utopia'
p145
aS'#000000'
p146
aF8.88595
aI0
aI00
aI00
aI00
aI00
aI00
aI00
aI00
aI00
aa(lp147
I234378
aF417.08
aF158.884
aVp1
p148
aS'utopia'
p149
aS'#000000'
p150
aF8.88595
aI0
aI00
aI00
aI01
aI01
aI00
aI00
aI00
aI00
aa(lp151
I63729
aF423.745
aF158.884
aVp1
p152
aS'utopia'
p153
aS'#000000'
p154
aF8.88595
aI0
aI01
aI00
aI00
aI00
aI00
aI00
aI00
aI00
aa(lp155
I234378
aF446.4985625
aF158.884
ag152
aS'utopia'
p156
aS'#000000'
p157
aF8.88595
aI0
aI00
aI00
aI00
aI00
aI00
aI00
aI00
aI00
aa(lp158
I59734
aF451.04927499999997
aF158.884
ag152
aS'utopia'
p159
aS'#000000'
p160
aF8.88595
aI0
aI00
aI00
aI00
aI00
aI00
aI00
aI00
aI00
aa(lp161
I234378
aF455.59998749999994
aF158.884
ag152
aS'utopia'
p162
aS'#000000'
p163
aF8.88595
aI0
aI00
aI00
aI00
aI00
aI00
aI00
aI00
aI00
aa(lp164
I15548
aF55.7183
aF176.656
aVp1
p165
aS'utopia'
p166
aS'#878787'
p167
aF8.88595
aI0
aI01
aI00
aI00
aI00
aI00
aI00
aI00
aI00
aa(lp168
I2006
aF89.0407
aF176.656
aVp1
p169
aS'utopia'
p170
aS'#878787'
p171
aF8.88595
aI0
aI01
aI00
aI00
aI00
aI00
aI00
aI00
aI00
aa(lp172
I234378
aF124.77815
aF176.656
ag169
aS'utopia'
p173
aS'#878787'
p174
aF8.88595
aI0
aI00
aI00
aI00
aI00
aI00
aI00
aI00
aI00
aa(lp175
I234378
aF134.211
aF176.656
aVp1
p176
aS'utopia'
p177
aS'#000000'
p178
aF8.88595
aI0
aI01
aI00
aI00
aI00
aI00
aI00
aI00
aI00
aa(lp179
I40036
aF169.014
aF176.656
aVp1
p180
aS'utopia'
p181
aS'#000000'
p182
aF8.88595
aI0
aI01
aI00
aI00
aI00
aI00
aI00
aI00
aI00
aa(lp183
I229300
aF308.227
aF176.656
aVp1
p184
aS'utopia'
p185
aS'#878787'
p186
aF8.88595
aI0
aI01
aI00
aI00
aI00
aI00
aI00
aI00
aI00
aa(lp187
I78894
aF338.588
aF176.656
aVp1
p188
aS'utopia'
p189
aS'#878787'
p190
aF8.88595
aI0
aI01
aI00
aI00
aI00
aI00
aI00
aI00
aI00
aa(lp191
I234378
aF360.9019142857143
aF176.656
ag188
aS'utopia'
p192
aS'#878787'
p193
aF8.88595
aI0
aI00
aI00
aI00
aI00
aI00
aI00
aI00
aI00
aa(lp194
I234378
aF368.948
aF176.656
aVp1
p195
aS'utopia'
p196
aS'#000000'
p197
aF8.88595
aI0
aI01
aI00
aI00
aI00
aI00
aI00
aI00
aI00
aa(lp198
I234378
aF380.796
aF176.656
aVp1
p199
aS'utopia'
p200
aS'#000000'
p201
aF8.88595
aI0
aI00
aI00
aI01
aI01
aI00
aI00
aI00
aI00
aa(lp202
I234378
aF384.5755
aF176.656
ag199
aS'utopia'
p203
aS'#000000'
p204
aF8.88595
aI0
aI00
aI00
aI00
aI00
aI00
aI00
aI00
aI00
aa(lp205
I234378
aF388.35499999999996
aF176.656
ag199
aS'utopia'
p206
aS'#000000'
p207
aF8.88595
aI0
aI00
aI00
aI01
aI01
aI00
aI00
aI00
aI00
aa(lp208
I234378
aF394.125
aF176.656
aVp1
p209
aS'utopia'
p210
aS'#000000'
p211
aF8.88595
aI0
aI01
aI00
aI00
aI00
aI00
aI00
aI00
aI00
aa(lp212
I15548
aF55.7183
aF194.428
aVp1
p213
aS'utopia'
p214
aS'#878787'
p215
aF8.88595
aI0
aI01
aI00
aI00
aI00
aI00
aI00
aI00
aI00
aa(lp216
I17057
aF89.0407
aF194.428
aVp1
p217
aS'utopia'
p218
aS'#878787'
p219
aF8.88595
aI0
aI01
aI00
aI00
aI00
aI00
aI00
aI00
aI00
aa(lp220
I234378
aF122.05430000000001
aF194.428
ag217
aS'utopia'
p221
aS'#878787'
p222
aF8.88595
aI0
aI00
aI00
aI00
aI00
aI00
aI00
aI00
aI00
aa(lp223
I234378
aF130.508
aF194.428
aVp1
p224
aS'utopia'
p225
aS'#000000'
p226
aF8.88595
aI0
aI01
aI00
aI00
aI00
aI00
aI00
aI00
aI00
aa(lp227
I234378
aF173.457
aF194.428
aVp1
p228
aS'utopia'
p229
aS'#000000'
p230
aF8.88595
aI0
aI00
aI00
aI00
aI00
aI00
aI00
aI00
aI00
aa(lp231
I234378
aF180.122
aF194.428
aVp1
p232
aS'utopia'
p233
aS'#000000'
p234
aF8.88595
aI0
aI01
aI00
aI00
aI00
aI00
aI00
aI00
aI00
aa(lp235
I234378
aF308.227
aF194.428
aVp1
p236
aS'utopia'
p237
aS'#878787'
p238
aF8.88595
aI0
aI01
aI00
aI00
aI00
aI00
aI00
aI00
aI00
aa(lp239
I234378
aF346.733
aF194.428
aVp1
p240
aS'utopia'
p241
aS'#878787'
p242
aF8.88595
aI0
aI01
aI01
aI00
aI00
aI00
aI00
aI00
aI00
aa(lp243
I234378
aF361.2593
aF194.428
ag240
aS'utopia'
p244
aS'#878787'
p245
aF8.88595
aI0
aI00
aI00
aI00
aI00
aI00
aI00
aI00
aI00
aa(lp246
I63091
aF370.429
aF194.428
aVp1
p247
aS'utopia'
p248
aS'#000000'
p249
aF8.88595
aI0
aI01
aI00
aI00
aI00
aI00
aI00
aI00
aI00
aa(lp250
I234378
aF387.46
aF194.428
aVp1
p251
aS'utopia'
p252
aS'#000000'
p253
aF8.88595
aI0
aI01
aI00
aI00
aI00
aI00
aI00
aI00
aI00
aa(lp254
I234378
aF55.7183
aF212.2
aVp1
p255
aS'utopia'
p256
aS'#878787'
p257
aF8.88595
aI0
aI01
aI00
aI00
aI00
aI00
aI00
aI00
aI00
aa(lp258
I234378
aF70.62062
aF212.2
ag255
aS'utopia'
p259
aS'#878787'
p260
aF8.88595
aI0
aI00
aI00
aI00
aI00
aI00
aI00
aI00
aI00
aa(lp261
I17057
aF76.4522
aF212.2
aVp1
p262
aS'utopia'
p263
aS'#878787'
p264
aF8.88595
aI0
aI01
aI00
aI00
aI00
aI00
aI00
aI00
aI00
aa(lp265
I234378
aF109.4658
aF212.2
ag262
aS'utopia'
p266
aS'#878787'
p267
aF8.88595
aI0
aI00
aI00
aI00
aI00
aI00
aI00
aI00
aI00
aa(lp268
I234378
aF117.92
aF212.2
aVp1
p269
aS'utopia'
p270
aS'#000000'
p271
aF8.88595
aI0
aI01
aI00
aI00
aI00
aI00
aI00
aI00
aI00
aa(lp272
I234378
aF160.869
aF212.2
aVp1
p273
aS'utopia'
p274
aS'#000000'
p275
aF8.88595
aI0
aI00
aI00
aI00
aI00
aI00
aI00
aI00
aI00
aa(lp276
I234378
aF167.533
aF212.2
aVp1
p277
aS'utopia'
p278
aS'#000000'
p279
aF8.88595
aI0
aI01
aI00
aI00
aI00
aI00
aI00
aI00
aI00
aa(lp280
I7204
aF308.227
aF212.2
aVp1
p281
aS'utopia'
p282
aS'#878787'
p283
aF8.88595
aI0
aI01
aI00
aI00
aI00
aI00
aI00
aI00
aI00
aa(lp284
I189220
aF340.809
aF212.2
aVp1
p285
aS'utopia'
p286
aS'#878787'
p287
aF8.88595
aI0
aI01
aI00
aI00
aI00
aI00
aI00
aI00
aI00
aa(lp288
I234378
aF366.93111428571433
aF212.2
ag285
aS'utopia'
p289
aS'#878787'
p290
aF8.88595
aI0
aI00
aI00
aI00
aI00
aI00
aI00
aI00
aI00
aa(lp291
I234378
aF375.613
aF212.2
aVp1
p292
aS'utopia'
p293
aS'#000000'
p294
aF8.88595
aI0
aI01
aI01
aI00
aI00
aI00
aI00
aI00
aI00
aa(lp295
I98580
aF55.7183
aF229.972
aVp1
p296
aS'utopia'
p297
aS'#878787'
p298
aF8.88595
aI0
aI01
aI00
aI00
aI00
aI00
aI00
aI00
aI00
aa(lp299
I166289
aF100.148
aF229.972
aVp1
p300
aS'utopia'
p301
aS'#878787'
p302
aF8.88595
aI0
aI01
aI00
aI00
aI00
aI00
aI00
aI00
aI00
aa(lp303
I234378
aF116.82751999999999
aF229.972
ag300
aS'utopia'
p304
aS'#878787'
p305
aF8.88595
aI0
aI00
aI00
aI00
aI00
aI00
aI00
aI00
aI00
aa(lp306
I22476
aF125.325
aF229.972
aVp1
p307
aS'utopia'
p308
aS'#000000'
p309
aF8.88595
aI0
aI01
aI01
aI00
aI00
aI00
aI00
aI00
aI00
aa(lp310
I234378
aF135.692
aF229.972
aVp1
p311
aS'utopia'
p312
aS'#000000'
p313
aF8.88595
aI0
aI01
aI00
aI00
aI00
aI00
aI00
aI00
aI00
aa(lp314
I123665
aF178.641
aF229.972
aVp1
p315
aS'utopia'
p316
aS'#000000'
p317
aF8.88595
aI0
aI01
aI00
aI00
aI00
aI00
aI00
aI00
aI00
aa(lp318
I234378
aF226.032
aF229.972
aVp1
p319
aS'utopia'
p320
aS'#000000'
p321
aF8.88595
aI0
aI01
aI00
aI00
aI00
aI00
aI00
aI00
aI00
aa(lp322
I234378
aF283.051
aF229.972
aVp1
p323
aS'utopia'
p324
aS'#000000'
p325
aF8.88595
aI0
aI00
aI00
aI00
aI00
aI00
aI00
aI00
aI00
aa(lp326
I20593
aF55.7183
aF240.339
aVp1
p327
aS'utopia'
p328
aS'#000000'
p329
aF8.88595
aI0
aI01
aI00
aI00
aI00
aI00
aI00
aI00
aI00
aa(lp330
I48671
aF308.227
aF229.972
aVp1
p331
aS'utopia'
p332
aS'#878787'
p333
aF8.88595
aI0
aI01
aI00
aI00
aI00
aI00
aI00
aI00
aI00
aa(lp334
I129688
aF336.366
aF229.972
aVp1
p335
aS'utopia'
p336
aS'#878787'
p337
aF8.88595
aI0
aI00
aI00
aI00
aI00
aI00
aI00
aI00
aI00
aa(lp338
I234378
aF360.58405714285715
aF229.972
ag335
aS'utopia'
p339
aS'#878787'
p340
aF8.88595
aI0
aI00
aI00
aI00
aI00
aI00
aI00
aI00
aI00
aa(lp341
I234378
aF368.948
aF229.972
aVp1
p342
aS'utopia'
p343
aS'#000000'
p344
aF8.88595
aI0
aI00
aI00
aI01
aI01
aI00
aI00
aI00
aI00
aa(lp345
I234378
aF375.613
aF229.972
aVp1
p346
aS'utopia'
p347
aS'#000000'
p348
aF8.88595
aI0
aI01
aI00
aI00
aI00
aI00
aI00
aI00
aI00
aa(lp349
I176435
aF55.7183
aF258.111
aVp1
p350
aS'utopia'
p351
aS'#878787'
p352
aF8.88595
aI0
aI01
aI00
aI00
aI00
aI00
aI00
aI00
aI00
aa(lp353
I234378
aF71.80542
aF258.111
ag350
aS'utopia'
p354
aS'#878787'
p355
aF8.88595
aI0
aI00
aI00
aI00
aI00
aI00
aI00
aI00
aI00
aa(lp356
I234378
aF80.1547
aF258.111
aVp1
p357
aS'utopia'
p358
aS'#000000'
p359
aF8.88595
aI0
aI01
aI00
aI00
aI00
aI00
aI00
aI00
aI00
aa(lp360
I100815
aF117.18
aF258.111
aVp1
p361
aS'utopia'
p362
aS'#000000'
p363
aF8.88595
aI0
aI01
aI00
aI00
aI00
aI00
aI00
aI00
aI00
aa(lp364
I74589
aF55.7183
aF275.883
aVp1
p365
aS'utopia'
p366
aS'#878787'
p367
aF8.88595
aI0
aI01
aI00
aI00
aI00
aI00
aI00
aI00
aI00
aa(lp368
I234378
aF87.41545555555555
aF275.883
ag365
aS'utopia'
p369
aS'#878787'
p370
aF8.88595
aI0
aI00
aI00
aI00
aI00
aI00
aI00
aI00
aI00
aa(lp371
I22476
aF95.7051
aF275.883
aVp1
p372
aS'utopia'
p373
aS'#000000'
p374
aF8.88595
aI0
aI01
aI01
aI00
aI00
aI00
aI00
aI00
aI00
aa(lp375
I234378
aF105.30374
aF275.883
ag372
aS'utopia'
p376
aS'#000000'
p377
aF8.88595
aI0
aI01
aI00
aI00
aI00
aI00
aI00
aI00
aI00
aa(lp378
I234378
aF139.69830000000002
aF275.883
ag372
aS'utopia'
p379
aS'#000000'
p380
aF8.88595
aI0
aI00
aI00
aI00
aI00
aI00
aI00
aI00
aI00
aa(lp381
I234378
aF134.99762
aF275.883
ag372
aS'utopia'
p382
aS'#000000'
p383
aF8.88595
aI0
aI01
aI00
aI00
aI00
aI00
aI00
aI00
aI00
aa(lp384
I234378
aF183.824
aF275.883
aVp1
p385
aS'utopia'
p386
aS'#000000'
p387
aF8.88595
aI0
aI01
aI00
aI00
aI00
aI00
aI00
aI00
aI00
aa(lp388
I231013
aF55.7183
aF293.654
aVp1
p389
aS'utopia'
p390
aS'#878787'
p391
aF8.88595
aI0
aI01
aI00
aI00
aI00
aI00
aI00
aI00
aI00
aa(lp392
I234378
aF72.7498
aF293.654
aVp1
p393
aS'utopia'
p394
aS'#878787'
p395
aF8.88595
aI0
aI01
aI00
aI00
aI00
aI00
aI00
aI00
aI00
aa(lp396
I234378
aF91.25542857142857
aF293.654
ag393
aS'utopia'
p397
aS'#878787'
p398
aF8.88595
aI0
aI00
aI00
aI00
aI00
aI00
aI00
aI00
aI00
aa(lp399
I84662
aF98.6671
aF293.654
aVp1
p400
aS'utopia'
p401
aS'#000000'
p402
aF8.88595
aI0
aI01
aI00
aI00
aI00
aI00
aI00
aI00
aI00
aa(lp403
I21716
aF120.141
aF293.654
aVp1
p404
aS'utopia'
p405
aS'#000000'
p406
aF8.88595
aI0
aI01
aI00
aI00
aI00
aI00
aI00
aI00
aI00
aa(lp407
I234378
aF136.15882
aF293.654
ag404
aS'utopia'
p408
aS'#000000'
p409
aF8.88595
aI0
aI00
aI00
aI00
aI00
aI00
aI00
aI00
aI00
aa(lp410
I234378
aF140.163275
aF293.654
ag404
aS'utopia'
p411
aS'#000000'
p412
aF8.88595
aI0
aI01
aI00
aI00
aI00
aI00
aI00
aI00
aI00
aa(lp413
I234378
aF196.225645
aF293.654
ag404
aS'utopia'
p414
aS'#000000'
p415
aF8.88595
aI0
aI00
aI00
aI00
aI00
aI00
aI00
aI00
aI00
aa(lp416
I234378
aF202.337
aF293.654
aVp1
p417
aS'utopia'
p418
aS'#000000'
p419
aF8.88595
aI0
aI01
aI01
aI00
aI00
aI00
aI00
aI00
aI00
aa(lp420
I234378
aF222.57092
aF293.654
ag417
aS'utopia'
p421
aS'#000000'
p422
aF8.88595
aI0
aI00
aI00
aI00
aI00
aI00
aI00
aI00
aI00
aa(lp423
I234378
aF229.735
aF293.654
aVp1
p424
aS'utopia'
p425
aS'#000000'
p426
aF8.88595
aI0
aI01
aI01
aI00
aI00
aI00
aI00
aI00
aI00
aa(lp427
I96642
aF248.247
aF293.654
aVp1
p428
aS'utopia'
p429
aS'#000000'
p430
aF8.88595
aI0
aI01
aI00
aI00
aI00
aI00
aI00
aI00
aI00
aa(lp431
I234378
aF271.83034285714285
aF293.654
ag428
aS'utopia'
p432
aS'#000000'
p433
aF8.88595
aI0
aI00
aI00
aI00
aI00
aI00
aI00
aI00
aI00
aa(lp434
I234378
aF277.867
aF293.654
aVp1
p435
aS'utopia'
p436
aS'#000000'
p437
aF8.88595
aI0
aI01
aI01
aI00
aI00
aI00
aI00
aI00
aI00
aa(lp438
I51933
aF40.1679
aF330.697
aVp1
p439
aS'utopia'
p440
aS'#02304b'
p441
aF11.8479
aI1
aI01
aI00
aI00
aI00
aI00
aI00
aI00
aI00
aa(lp442
I60220
aF72.0093
aF330.697
aVp1
p443
aS'utopia'
p444
aS'#02304b'
p445
aF11.8479
aI1
aI01
aI00
aI00
aI00
aI00
aI00
aI00
aI00
aa(lp446
I234378
aF40.9084
aF362.414
aVp1
p447
aS'utopia'
p448
aS'#000000'
p449
aF10.3669
aI1
aI01
aI00
aI00
aI00
aI00
aI00
aI00
aI00
aa(lp450
I40036
aF83.8572
aF362.414
aVp1
p451
aS'utopia'
p452
aS'#000000'
p453
aF10.3669
aI1
aI01
aI00
aI00
aI00
aI00
aI00
aI00
aI00
aa(lp454
I234378
aF122.363
aF362.683
aVp1
p455
aS'utopia'
p456
aS'#656565'
p457
aF10.3669
aI0
aI00
aI00
aI00
aI00
aI00
aI00
aI00
aI00
aa(lp458
I15548
aF127.340425
aF362.683
ag455
aS'utopia'
p459
aS'#656565'
p460
aF10.3669
aI0
aI01
aI00
aI00
aI00
aI00
aI00
aI00
aI00
aa(lp461
I70289
aF164.571
aF362.683
aVp1
p462
aS'utopia'
p463
aS'#656565'
p464
aF10.3669
aI0
aI01
aI00
aI00
aI00
aI00
aI00
aI00
aI00
aa(lp465
I234378
aF207.91997777777777
aF362.683
ag462
aS'utopia'
p466
aS'#656565'
p467
aF10.3669
aI0
aI00
aI00
aI00
aI00
aI00
aI00
aI00
aI00
aa(lp468
I234378
aF40.9084
aF378.974
aVp1
p469
aS'utopia'
p470
aS'#656565'
p471
aF10.3669
aI0
aI01
aI00
aI00
aI00
aI00
aI00
aI00
aI00
aa(lp472
I132100
aF83.8572
aF378.974
aVp1
p473
aS'utopia'
p474
aS'#656565'
p475
aF10.3669
aI0
aI01
aI00
aI00
aI00
aI00
aI00
aI00
aI00
aa(lp476
I234378
aF131.989
aF378.974
aVp1
p477
aS'utopia'
p478
aS'#656565'
p479
aF10.3669
aI0
aI01
aI00
aI00
aI00
aI00
aI00
aI00
aI01
aa(lp480
I234378
aF151.983
aF378.974
aVp1
p481
aS'utopia'
p482
aS'#656565'
p483
aF10.3669
aI0
aI00
aI00
aI01
aI01
aI01
aI00
aI00
aI00
aa(lp484
I228990
aF40.9084
aF398.805
aVp1
p485
aS'utopia'
p486
aS'#656565'
p487
aF8.88595
aI0
aI01
aI00
aI00
aI00
aI00
aI00
aI00
aI00
aa(lp488
I127763
aF65.3448
aF398.805
aVp1
p489
aS'utopia'
p490
aS'#656565'
p491
aF8.88595
aI0
aI01
aI00
aI00
aI00
aI00
aI00
aI00
aI00
aa(lp492
I144489
aF111.256
aF398.805
aVp1
p493
aS'utopia'
p494
aS'#656565'
p495
aF8.88595
aI0
aI00
aI00
aI00
aI00
aI00
aI00
aI00
aI00
aa(lp496
I44084
aF121.622
aF398.805
aVp1
p497
aS'utopia'
p498
aS'#656565'
p499
aF8.88595
aI0
aI01
aI00
aI00
aI00
aI00
aI00
aI00
aI00
aa(lp500
I234378
aF149.761
aF398.805
aVp1
p501
aS'utopia'
p502
aS'#656565'
p503
aF8.88595
aI0
aI01
aI00
aI00
aI00
aI00
aI00
aI00
aI00
aa(lp504
I234378
aF186.786
aF398.805
aVp1
p505
aS'utopia'
p506
aS'#656565'
p507
aF8.88595
aI0
aI01
aI00
aI00
aI00
aI00
aI00
aI00
aI00
aa(lp508
I234378
aF243.804
aF398.805
aVp1
p509
aS'utopia'
p510
aS'#656565'
p511
aF8.88595
aI0
aI00
aI00
aI00
aI00
aI00
aI00
aI00
aI00
aa(lp512
I234378
aF277.47582222222223
aF398.805
ag509
aS'utopia'
p513
aS'#656565'
p514
aF8.88595
aI0
aI00
aI00
aI00
aI00
aI00
aI00
aI00
aI00
aa(lp515
I61354
aF283.791
aF398.805
aVp1
p516
aS'utopia'
p517
aS'#656565'
p518
aF8.88595
aI0
aI01
aI00
aI00
aI00
aI00
aI00
aI00
aI00
aa(lp519
I135639
aF324.518
aF398.805
aVp1
p520
aS'utopia'
p521
aS'#656565'
p522
aF8.88595
aI0
aI00
aI00
aI00
aI00
aI00
aI00
aI00
aI00
aa(lp523
I234378
aF334.145
aF398.805
aVp1
p524
aS'utopia'
p525
aS'#656565'
p526
aF8.88595
aI0
aI01
aI01
aI00
aI00
aI00
aI00
aI00
aI00
aa(lp527
I85218
aF352.657
aF398.805
aVp1
p528
aS'utopia'
p529
aS'#656565'
p530
aF8.88595
aI0
aI00
aI00
aI00
aI00
aI00
aI00
aI00
aI00
aa(lp531
I234378
aF369.689
aF398.805
aVp1
p532
aS'utopia'
p533
aS'#656565'
p534
aF8.88595
aI0
aI00
aI00
aI00
aI00
aI00
aI00
aI00
aI00
aa(lp535
I234378
aF410.8579090909091
aF398.805
ag532
aS'utopia'
p536
aS'#656565'
p537
aF8.88595
aI0
aI00
aI00
aI00
aI00
aI00
aI00
aI00
aI00
aa(lp538
I184357
aF417.08
aF398.805
aVp1
p539
aS'utopia'
p540
aS'#656565'
p541
aF8.88595
aI0
aI01
aI00
aI00
aI00
aI00
aI00
aI00
aI00
aa(lp542
I127763
aF444.479
aF398.805
aVp1
p543
aS'utopia'
p544
aS'#656565'
p545
aF8.88595
aI0
aI00
aI00
aI00
aI00
aI00
aI00
aI00
aI00
aa(lp546
I85218
aF488.908
aF398.805
aVp1
p547
aS'utopia'
p548
aS'#656565'
p549
aF8.88595
aI0
aI00
aI00
aI00
aI00
aI00
aI00
aI00
aI00
aa(lp550
I111798
aF40.9084
aF409.172
aVp1
p551
aS'utopia'
p552
aS'#656565'
p553
aF8.88595
aI0
aI00
aI00
aI00
aI00
aI00
aI00
aI00
aI00
aa(lp554
I144489
aF100.148
aF409.172
aVp1
p555
aS'utopia'
p556
aS'#656565'
p557
aF8.88595
aI0
aI00
aI00
aI00
aI00
aI00
aI00
aI00
aI00
aa(lp558
I23917
aF110.515
aF409.172
aVp1
p559
aS'utopia'
p560
aS'#656565'
p561
aF8.88595
aI0
aI01
aI00
aI00
aI00
aI00
aI00
aI00
aI00
aa(lp562
I87500
aF151.983
aF409.172
aVp1
p563
aS'utopia'
p564
aS'#656565'
p565
aF8.88595
aI0
aI01
aI00
aI00
aI00
aI00
aI00
aI00
aI00
aa(lp566
I234378
aF186.046
aF409.172
aVp1
p567
aS'utopia'
p568
aS'#656565'
p569
aF8.88595
aI0
aI00
aI00
aI00
aI00
aI00
aI00
aI00
aI00
aa(lp570
I15166
aF189.52188333333334
aF409.172
ag567
aS'utopia'
p571
aS'#656565'
p572
aF8.88595
aI0
aI01
aI00
aI00
aI00
aI00
aI00
aI00
aI00
aa(lp573
I234378
aF203.42541666666668
aF409.172
ag567
aS'utopia'
p574
aS'#656565'
p575
aF8.88595
aI0
aI00
aI00
aI00
aI00
aI00
aI00
aI00
aI00
aa(lp576
I105322
aF209.001
aF409.172
aVp1
p577
aS'utopia'
p578
aS'#656565'
p579
aF8.88595
aI0
aI01
aI00
aI00
aI00
aI00
aI00
aI00
aI00
aa(lp580
I135639
aF245.285
aF409.172
aVp1
p581
aS'utopia'
p582
aS'#656565'
p583
aF8.88595
aI0
aI00
aI00
aI00
aI00
aI00
aI00
aI00
aI00
aa(lp584
I41890
aF254.912
aF409.172
aVp1
p585
aS'utopia'
p586
aS'#656565'
p587
aF8.88595
aI0
aI00
aI00
aI00
aI00
aI00
aI00
aI00
aI00
aa(lp588
I113201
aF266.019
aF409.172
aVp1
p589
aS'utopia'
p590
aS'#656565'
p591
aF8.88595
aI0
aI00
aI00
aI00
aI00
aI00
aI00
aI00
aI00
aa(lp592
I144489
aF294.899
aF409.172
aVp1
p593
aS'utopia'
p594
aS'#656565'
p595
aF8.88595
aI0
aI00
aI00
aI00
aI00
aI00
aI00
aI00
aI00
aa(lp596
I234378
aF305.265
aF409.172
aVp1
p597
aS'utopia'
p598
aS'#656565'
p599
aF8.88595
aI0
aI01
aI00
aI00
aI00
aI00
aI00
aI00
aI00
aa(lp600
I68032
aF342.29
aF409.172
aVp1
p601
aS'utopia'
p602
aS'#656565'
p603
aF8.88595
aI0
aI01
aI00
aI00
aI00
aI00
aI00
aI00
aI00
aa(lp604
I15166
aF397.827
aF409.172
aVp1
p605
aS'utopia'
p606
aS'#656565'
p607
aF8.88595
aI0
aI01
aI00
aI00
aI00
aI00
aI00
aI00
aI00
aa(lp608
I231317
aF414.859
aF409.172
aVp1
p609
aS'utopia'
p610
aS'#656565'
p611
aF8.88595
aI0
aI01
aI00
aI00
aI00
aI00
aI00
aI00
aI00
aa(lp612
I234378
aF438.555
aF409.172
aVp1
p613
aS'utopia'
p614
aS'#656565'
p615
aF8.88595
aI0
aI00
aI00
aI00
aI00
aI00
aI00
aI00
aI00
aa(lp616
I234378
aF443.26505000000003
aF409.172
ag613
aS'utopia'
p617
aS'#656565'
p618
aF8.88595
aI0
aI01
aI01
aI00
aI00
aI00
aI00
aI00
aI00
aa(lp619
I234378
aF462.10525
aF409.172
ag613
aS'utopia'
p620
aS'#656565'
p621
aF8.88595
aI0
aI00
aI00
aI00
aI00
aI00
aI00
aI00
aI00
aa(lp622
I234378
aF468.915
aF409.172
aVp1
p623
aS'utopia'
p624
aS'#656565'
p625
aF8.88595
aI0
aI00
aI00
aI00
aI00
aI00
aI00
aI00
aI00
aa(lp626
I51660
aF491.87
aF409.172
aVp1
p627
aS'utopia'
p628
aS'#656565'
p629
aF8.88595
aI0
aI01
aI00
aI00
aI00
aI00
aI00
aI00
aI00
aa(lp630
I131978
aF40.9084
aF419.539
aVp1
p631
aS'utopia'
p632
aS'#656565'
p633
aF8.88595
aI0
aI00
aI00
aI00
aI00
aI00
aI00
aI00
aI00
aa(lp634
I234378
aF91.24458333333334
aF419.539
ag631
aS'utopia'
p635
aS'#656565'
p636
aF8.88595
aI0
aI00
aI00
aI00
aI00
aI00
aI00
aI00
aI00
aa(lp637
I48671
aF40.9084
aF429.906
aVp1
p638
aS'utopia'
p639
aS'#656565'
p640
aF8.88595
aI0
aI01
aI00
aI00
aI00
aI00
aI00
aI00
aI00
aa(lp641
I129688
aF69.0473
aF429.906
aVp1
p642
aS'utopia'
p643
aS'#656565'
p644
aF8.88595
aI0
aI01
aI00
aI00
aI00
aI00
aI00
aI00
aI00
aa(lp645
I234378
aF97.1861
aF429.906
aVp1
p646
aS'utopia'
p647
aS'#656565'
p648
aF8.88595
aI0
aI00
aI00
aI00
aI00
aI00
aI00
aI00
aI00
aa(lp649
I234378
aF101.629
aF429.906
aVp1
p650
aS'utopia'
p651
aS'#656565'
p652
aF8.88595
aI0
aI00
aI00
aI01
aI01
aI00
aI00
aI00
aI00
aa(lp653
I234378
aF108.294
aF429.906
aVp1
p654
aS'utopia'
p655
aS'#656565'
p656
aF8.88595
aI0
aI01
aI00
aI00
aI00
aI00
aI00
aI00
aI00
aa(lp657
I234378
aF40.9084
aF463.121
aVp1
p658
aS'utopia'
p659
aS'#000000'
p660
aF10.3669
aI1
aI01
aI01
aI00
aI00
aI00
aI00
aI00
aI00
aa(lp661
I74911
aF61.6423
aF463.121
aVp1
p662
aS'utopia'
p663
aS'#000000'
p664
aF10.3669
aI1
aI01
aI00
aI00
aI00
aI00
aI00
aI00
aI00
aa(lp665
I234378
aF123.103
aF463.121
aVp1
p666
aS'utopia'
p667
aS'#000000'
p668
aF10.3669
aI1
aI01
aI00
aI00
aI00
aI00
aI00
aI00
aI00
aa(lp669
I11208
aF40.9084
aF479.682
aVp1
p670
aS'utopia'
p671
aS'#656565'
p672
aF10.3669
aI0
aI01
aI00
aI00
aI00
aI00
aI00
aI00
aI00
aa(lp673
I234378
aF86.8192
aF479.682
aVp1
p674
aS'utopia'
p675
aS'#656565'
p676
aF10.3669
aI0
aI01
aI00
aI00
aI00
aI00
aI00
aI00
aI00
aa(lp677
I132100
aF129.768
aF479.682
aVp1
p678
aS'utopia'
p679
aS'#656565'
p680
aF10.3669
aI0
aI01
aI00
aI00
aI00
aI00
aI00
aI00
aI00
aa(lp681
I234378
aF177.9
aF479.682
aVp1
p682
aS'utopia'
p683
aS'#656565'
p684
aF10.3669
aI0
aI01
aI00
aI00
aI00
aI00
aI00
aI00
aI01
aa(lp685
I234378
aF197.153
aF479.682
aVp1
p686
aS'utopia'
p687
aS'#656565'
p688
aF10.3669
aI0
aI00
aI00
aI01
aI01
aI01
aI00
aI00
aI00
aa(lp689
I89480
aF220.108
aF479.682
aVp1
p690
aS'utopia'
p691
aS'#656565'
p692
aF10.3669
aI0
aI01
aI00
aI00
aI00
aI00
aI00
aI00
aI00
aa(lp693
I234378
aF234.918
aF479.682
aVp1
p694
aS'utopia'
p695
aS'#656565'
p696
aF10.3669
aI0
aI01
aI00
aI00
aI00
aI00
aI00
aI00
aI01
aa(lp697
I234378
aF254.912
aF479.682
aVp1
p698
aS'utopia'
p699
aS'#656565'
p700
aF10.3669
aI0
aI00
aI00
aI01
aI01
aI01
aI00
aI00
aI00
aa(lp701
I124531
aF40.1679
aF524.707
aVp1
p702
aS'utopia'
p703
aS'#02304b'
p704
aF11.8479
aI1
aI01
aI00
aI00
aI00
aI00
aI00
aI00
aI00
aa(lp705
I209062
aF40.9084
aF552.991
aVp1
p706
aS'utopia'
p707
aS'#656565'
p708
aF10.3669
aI0
aI01
aI00
aI00
aI00
aI00
aI00
aI00
aI00
aa(lp709
I234378
aF63.1233
aF552.991
aVp1
p710
aS'utopia'
p711
aS'#656565'
p712
aF10.3669
aI0
aI01
aI00
aI00
aI00
aI00
aI00
aI00
aI00
aa(lp713
I234378
aF111.996
aF552.991
aVp1
p714
aS'utopia'
p715
aS'#656565'
p716
aF10.3669
aI0
aI00
aI00
aI00
aI00
aI00
aI00
aI00
aI00
aa(lp717
I60201
aF117.92
aF552.991
aVp1
p718
aS'utopia'
p719
aS'#656565'
p720
aF10.3669
aI0
aI01
aI00
aI00
aI00
aI00
aI00
aI00
aI00
aa(lp721
I230071
aF137.913
aF552.991
aVp1
p722
aS'utopia'
p723
aS'#656565'
p724
aF10.3669
aI0
aI01
aI00
aI00
aI00
aI00
aI00
aI00
aI00
aa(lp725
I234378
aF164.571
aF552.991
aVp1
p726
aS'utopia'
p727
aS'#656565'
p728
aF10.3669
aI0
aI00
aI00
aI00
aI00
aI00
aI00
aI00
aI00
aa(lp729
I234378
aF40.9084
aF569.012
aVp1
p730
aS'utopia'
p731
aS'#000000'
p732
aF10.3669
aI1
aI01
aI01
aI00
aI00
aI00
aI00
aI00
aI00
aa(lp733
I234378
aF66.8258
aF569.012
aVp1
p734
aS'utopia'
p735
aS'#000000'
p736
aF10.3669
aI1
aI00
aI00
aI00
aI00
aI00
aI00
aI00
aI00
aa(lp737
I234378
aF72.41775454545454
aF569.012
ag734
aS'utopia'
p738
aS'#000000'
p739
aF10.3669
aI1
aI01
aI00
aI00
aI00
aI00
aI00
aI00
aI00
aa(lp740
I234378
aF122.74534545454544
aF569.012
ag734
aS'utopia'
p741
aS'#000000'
p742
aF10.3669
aI1
aI00
aI00
aI00
aI00
aI00
aI00
aI00
aI00
aa(lp743
I213496
aF40.9084
aF589.275
aVp1
p744
aS'utopia'
p745
aS'#656565'
p746
aF10.3669
aI0
aI01
aI00
aI00
aI00
aI00
aI00
aI00
aI00
aa(lp747
I234378
aF66.0853
aF589.275
aVp1
p748
aS'utopia'
p749
aS'#656565'
p750
aF10.3669
aI0
aI01
aI00
aI00
aI00
aI00
aI00
aI00
aI00
aa(lp751
I234378
aF103.11
aF589.275
aVp1
p752
aS'utopia'
p753
aS'#656565'
p754
aF10.3669
aI0
aI01
aI00
aI00
aI00
aI00
aI00
aI00
aI00
aa(lp755
I234378
aF160.128
aF589.275
aVp1
p756
aS'utopia'
p757
aS'#656565'
p758
aF10.3669
aI0
aI01
aI00
aI00
aI00
aI00
aI00
aI00
aI00
aa(lp759
I234378
aF239.361
aF589.275
aVp1
p760
aS'utopia'
p761
aS'#656565'
p762
aF10.3669
aI0
aI00
aI00
aI00
aI00
aI00
aI00
aI00
aI00
aa(lp763
I234378
aF244.61661428571426
aF589.275
ag760
aS'utopia'
p764
aS'#656565'
p765
aF10.3669
aI0
aI01
aI01
aI00
aI00
aI00
aI00
aI00
aI00
aa(lp766
I234378
aF265.6390714285714
aF589.275
ag760
aS'utopia'
p767
aS'#656565'
p768
aF10.3669
aI0
aI00
aI00
aI00
aI00
aI00
aI00
aI00
aI00
aa(lp769
I234378
aF270.8946857142857
aF589.275
ag760
aS'utopia'
p770
aS'#656565'
p771
aF10.3669
aI0
aI00
aI00
aI00
aI00
aI00
aI00
aI00
aI00
aa(lp772
I234378
aF278.608
aF589.275
aVp1
p773
aS'utopia'
p774
aS'#656565'
p775
aF10.3669
aI0
aI01
aI00
aI00
aI00
aI00
aI00
aI00
aI00
aa(lp776
I135639
aF319.335
aF589.275
aVp1
p777
aS'utopia'
p778
aS'#656565'
p779
aF10.3669
aI0
aI00
aI00
aI00
aI00
aI00
aI00
aI00
aI00
aa(lp780
I234378
aF331.183
aF589.275
aVp1
p781
aS'utopia'
p782
aS'#656565'
p783
aF10.3669
aI0
aI00
aI00
aI01
aI01
aI01
aI00
aI00
aI00
aa(lp784
I234378
aF40.9084
aF617.414
aVp1
p785
aS'utopia'
p786
aS'#656565'
p787
aF10.3669
aI0
aI01
aI00
aI00
aI00
aI00
aI00
aI00
aI00
aa(lp788
I234378
aF117.18
aF617.414
aVp1
p789
aS'utopia'
p790
aS'#656565'
p791
aF10.3669
aI0
aI00
aI00
aI00
aI00
aI00
aI00
aI00
aI00
aa(lp792
I60201
aF123.103
aF617.414
aVp1
p793
aS'utopia'
p794
aS'#656565'
p795
aF10.3669
aI0
aI01
aI00
aI00
aI00
aI00
aI00
aI00
aI00
aa(lp796
I230071
aF143.097
aF617.414
aVp1
p797
aS'utopia'
p798
aS'#656565'
p799
aF10.3669
aI0
aI01
aI00
aI00
aI00
aI00
aI00
aI00
aI00
aa(lp800
I234378
aF169.755
aF617.414
aVp1
p801
aS'utopia'
p802
aS'#656565'
p803
aF10.3669
aI0
aI00
aI00
aI00
aI00
aI00
aI00
aI00
aI00
aa(lp804
I234378
aF40.9084
aF633.435
aVp1
p805
aS'utopia'
p806
aS'#000000'
p807
aF10.3669
aI1
aI01
aI01
aI00
aI00
aI00
aI00
aI00
aI00
aa(lp808
I234378
aF64.6043
aF633.435
aVp1
p809
aS'utopia'
p810
aS'#000000'
p811
aF10.3669
aI1
aI00
aI00
aI00
aI00
aI00
aI00
aI00
aI00
aa(lp812
I234378
aF70.19625454545454
aF633.435
ag809
aS'utopia'
p813
aS'#000000'
p814
aF10.3669
aI1
aI01
aI00
aI00
aI00
aI00
aI00
aI00
aI00
aa(lp815
I234378
aF120.52384545454544
aF633.435
ag809
aS'utopia'
p816
aS'#000000'
p817
aF10.3669
aI1
aI00
aI00
aI00
aI00
aI00
aI00
aI00
aI00
aa(lp818
I234378
aF40.9084
aF653.698
aVp1
p819
aS'utopia'
p820
aS'#656565'
p821
aF10.3669
aI0
aI01
aI00
aI00
aI00
aI00
aI00
aI00
aI00
aa(lp822
I153079
aF96.4456
aF653.698
aVp1
p823
aS'utopia'
p824
aS'#656565'
p825
aF10.3669
aI0
aI01
aI00
aI00
aI00
aI00
aI00
aI00
aI00
aa(lp826
I135639
aF151.242
aF653.698
aVp1
p827
aS'utopia'
p828
aS'#656565'
p829
aF10.3669
aI0
aI00
aI00
aI00
aI00
aI00
aI00
aI00
aI00
aa(lp830
I234378
aF163.09
aF653.698
aVp1
p831
aS'utopia'
p832
aS'#656565'
p833
aF10.3669
aI0
aI00
aI00
aI01
aI01
aI01
aI00
aI00
aI00
aa(lp834
I22476
aF40.1679
aF687.616
aVp1
p835
aS'utopia'
p836
aS'#02304b'
p837
aF11.8479
aI1
aI01
aI01
aI00
aI00
aI00
aI00
aI00
aI00
aa(lp838
I234378
aF54.2374
aF687.616
aVp1
p839
aS'utopia'
p840
aS'#02304b'
p841
aF11.8479
aI1
aI01
aI00
aI00
aI00
aI00
aI00
aI00
aI00
aa(lp842
I109610
aF48.3134
aF715.506
aVp1
p843
aS'utopia'
p844
aS'#000000'
p845
aF8.88595
aI1
aI01
aI00
aI00
aI00
aI00
aI00
aI00
aI00
aa(lp846
I158577
aF69.7878
aF715.506
aVp1
p847
aS'utopia'
p848
aS'#000000'
p849
aF8.88595
aI1
aI01
aI00
aI00
aI00
aI00
aI00
aI00
aI00
aa(lp850
I194179
aF188.267
aF715.506
aVp1
p851
aS'utopia'
p852
aS'#000000'
p853
aF8.88595
aI1
aI01
aI00
aI00
aI00
aI00
aI00
aI00
aI00
aa(lp854
I177981
aF305.265
aF715.506
aVp1
p855
aS'utopia'
p856
aS'#000000'
p857
aF8.88595
aI1
aI01
aI00
aI00
aI00
aI00
aI00
aI00
aI00
aa(lp858
I25729
aF324.518
aF715.506
aVp1
p859
aS'utopia'
p860
aS'#000000'
p861
aF8.88595
aI1
aI01
aI00
aI00
aI00
aI00
aI00
aI00
aI00
aa(lp862
I60220
aF412.637
aF715.506
aVp1
p863
aS'utopia'
p864
aS'#000000'
p865
aF8.88595
aI1
aI01
aI00
aI00
aI00
aI00
aI00
aI00
aI00
aa(lp866
I105225
aF48.3134
aF734.25
aVp1
p867
aS'utopia'
p868
aS'#656565'
p869
aF8.88595
aI0
aI01
aI01
aI00
aI00
aI00
aI00
aI00
aI00
aa(lp870
I80365
aF69.0473
aF734.25
aVp1
p871
aS'utopia'
p872
aS'#656565'
p873
aF8.88595
aI0
aI01
aI01
aI00
aI00
aI00
aI00
aI00
aI00
aa(lp874
I234378
aF317.113
aF734.25
aVp1
p875
aS'utopia'
p876
aS'#656565'
p877
aF8.88595
aI0
aI00
aI00
aI01
aI01
aI01
aI00
aI00
aI00
aa(lp878
I84662
aF48.3134
aF752.762
aVp1
p879
aS'utopia'
p880
aS'#656565'
p881
aF8.88595
aI0
aI01
aI01
aI00
aI00
aI00
aI00
aI00
aI00
aa(lp882
I21716
aF74.2307
aF752.762
aVp1
p883
aS'utopia'
p884
aS'#656565'
p885
aF8.88595
aI0
aI01
aI01
aI00
aI00
aI00
aI00
aI00
aI00
aa(lp886
I234378
aF317.113
aF752.762
aVp1
p887
aS'utopia'
p888
aS'#656565'
p889
aF8.88595
aI0
aI00
aI00
aI01
aI01
aI01
aI00
aI00
aI00
aa(lp890
I234378
aF422.264
aF752.762
aVp1
p891
aS'utopia'
p892
aS'#656565'
p893
aF8.88595
aI0
aI00
aI00
aI01
aI01
aI00
aI00
aI00
aI00
aa(lp894
I234378
aF428.928
aF752.762
aVp1
p895
aS'utopia'
p896
aS'#656565'
p897
aF8.88595
aI0
aI01
aI00
aI00
aI00
aI00
aI00
aI00
aI00
aa(lp898
I234378
aF48.3134
aF771.274
aVp1
p899
aS'utopia'
p900
aS'#656565'
p901
aF8.88595
aI0
aI01
aI01
aI00
aI00
aI00
aI00
aI00
aI00
aa(lp902
I234378
aF317.113
aF771.274
aVp1
p903
aS'utopia'
p904
aS'#656565'
p905
aF8.88595
aI0
aI00
aI00
aI01
aI01
aI01
aI00
aI00
aI00
aa(lp906
I234378
aF403.011
aF771.274
aVp1
p907
aS'utopia'
p908
aS'#656565'
p909
aF8.88595
aI0
aI00
aI00
aI01
aI01
aI00
aI00
aI00
aI00
aa(lp910
I234378
aF409.675
aF771.274
aVp1
p911
aS'utopia'
p912
aS'#656565'
p913
aF8.88595
aI0
aI01
aI00
aI00
aI00
aI00
aI00
aI00
aI00
aa(lp914
I234378
aF433.371
aF771.274
aVp1
p915
aS'utopia'
p916
aS'#656565'
p917
aF8.88595
aI0
aI00
aI00
aI01
aI01
aI00
aI00
aI00
aI00
aa(lp918
I234378
aF440.036
aF771.274
aVp1
p919
aS'utopia'
p920
aS'#656565'
p921
aF8.88595
aI0
aI01
aI00
aI00
aI00
aI00
aI00
aI00
aI00
aa(lp922
I234378
aF48.3134
aF789.787
aVp1
p923
aS'utopia'
p924
aS'#656565'
p925
aF8.88595
aI0
aI01
aI00
aI00
aI00
aI00
aI00
aI00
aI00
aa(lp926
I210388
aF48.3134
aF28.557
aVp2
p927
aS'utopia'
p928
aS'#656565'
p929
aF8.88595
aI0
aI01
aI01
aI00
aI00
aI00
aI00
aI00
aI00
aa(lp930
I234378
aF48.3134
aF47.0694
aVp2
p931
aS'utopia'
p932
aS'#656565'
p933
aF8.88595
aI0
aI01
aI01
aI00
aI00
aI00
aI00
aI00
aI00
aa(lp934
I4526
aF73.4902
aF47.0694
aVp2
p935
aS'utopia'
p936
aS'#656565'
p937
aF8.88595
aI0
aI01
aI01
aI00
aI00
aI00
aI00
aI00
aI00
aa(lp938
I234378
aF317.113
aF47.0694
aVp2
p939
aS'utopia'
p940
aS'#656565'
p941
aF8.88595
aI0
aI00
aI00
aI01
aI01
aI01
aI00
aI00
aI00
aa(lp942
I234378
aF403.011
aF47.0694
aVp2
p943
aS'utopia'
p944
aS'#656565'
p945
aF8.88595
aI0
aI00
aI00
aI01
aI01
aI00
aI00
aI00
aI00
aa(lp946
I234378
aF409.675
aF47.0694
aVp2
p947
aS'utopia'
p948
aS'#656565'
p949
aF8.88595
aI0
aI01
aI00
aI00
aI00
aI00
aI00
aI00
aI00
aa(lp950
I234378
aF433.371
aF47.0694
aVp2
p951
aS'utopia'
p952
aS'#656565'
p953
aF8.88595
aI0
aI00
aI00
aI01
aI01
aI00
aI00
aI00
aI00
aa(lp954
I234378
aF440.036
aF47.0694
aVp2
p955
aS'utopia'
p956
aS'#656565'
p957
aF8.88595
aI0
aI01
aI00
aI00
aI00
aI00
aI00
aI00
aI00
aa(lp958
I210388
aF48.3134
aF65.5818
aVp2
p959
aS'utopia'
p960
aS'#656565'
p961
aF8.88595
aI0
aI01
aI01
aI00
aI00
aI00
aI00
aI00
aI00
aa(lp962
I234378
aF317.113
aF65.5818
aVp2
p963
aS'utopia'
p964
aS'#656565'
p965
aF8.88595
aI0
aI00
aI00
aI01
aI01
aI01
aI00
aI00
aI00
aa(lp966
I195166
aF40.1679
aF115.953
aVp2
p967
aS'utopia'
p968
aS'#02304b'
p969
aF11.8479
aI1
aI01
aI00
aI00
aI00
aI00
aI00
aI00
aI00
aa(lp970
I136346
aF96.4456
aF115.953
aVp2
p971
aS'utopia'
p972
aS'#02304b'
p973
aF11.8479
aI1
aI01
aI00
aI00
aI00
aI00
aI00
aI00
aI00
aa(lp974
I195166
aF48.3134
aF143.843
aVp2
p975
aS'utopia'
p976
aS'#000000'
p977
aF8.88595
aI1
aI01
aI00
aI00
aI00
aI00
aI00
aI00
aI00
aa(lp978
I164378
aF177.16
aF143.843
aVp2
p979
aS'utopia'
p980
aS'#000000'
p981
aF8.88595
aI1
aI01
aI00
aI00
aI00
aI00
aI00
aI00
aI00
aa(lp982
I175077
aF296.379
aF143.843
aVp2
p983
aS'utopia'
p984
aS'#000000'
p985
aF8.88595
aI1
aI01
aI00
aI00
aI00
aI00
aI00
aI00
aI00
aa(lp986
I224291
aF397.087
aF143.843
aVp2
p987
aS'utopia'
p988
aS'#000000'
p989
aF8.88595
aI1
aI01
aI00
aI00
aI00
aI00
aI00
aI00
aI00
aa(lp990
I165206
aF497.054
aF143.843
aVp2
p991
aS'utopia'
p992
aS'#000000'
p993
aF8.88595
aI1
aI01
aI00
aI00
aI00
aI00
aI00
aI00
aI00
aa(lp994
I58002
aF48.3134
aF162.587
aVp2
p995
aS'utopia'
p996
aS'#656565'
p997
aF8.88595
aI0
aI01
aI00
aI00
aI00
aI00
aI00
aI00
aI00
aa(lp998
I185159
aF177.16
aF162.587
aVp2
p999
aS'utopia'
p1000
aS'#656565'
p1001
aF8.88595
aI0
aI01
aI00
aI00
aI00
aI00
aI00
aI00
aI00
aa(lp1002
I144532
aF48.3134
aF181.099
aVp2
p1003
aS'utopia'
p1004
aS'#656565'
p1005
aF8.88595
aI0
aI01
aI00
aI00
aI00
aI00
aI00
aI00
aI00
aa(lp1006
I185159
aF177.16
aF181.099
aVp2
p1007
aS'utopia'
p1008
aS'#656565'
p1009
aF8.88595
aI0
aI01
aI00
aI00
aI00
aI00
aI00
aI00
aI00
aa(lp1010
I98778
aF48.3134
aF199.611
aVp2
p1011
aS'utopia'
p1012
aS'#656565'
p1013
aF8.88595
aI0
aI01
aI00
aI00
aI00
aI00
aI00
aI00
aI00
aa(lp1014
I17534
aF177.16
aF199.611
aVp2
p1015
aS'utopia'
p1016
aS'#656565'
p1017
aF8.88595
aI0
aI01
aI00
aI00
aI00
aI00
aI00
aI00
aI00
aa(lp1018
I234378
aF40.1679
aF231.471
aVp2
p1019
aS'utopia'
p1020
aS'#02304b'
p1021
aF11.8479
aI1
aI01
aI00
aI00
aI00
aI00
aI00
aI00
aI00
aa(lp1022
I201816
aF40.9084
aF263.294
aVp2
p1023
aS'utopia'
p1024
aS'#000000'
p1025
aF8.88595
aI0
aI01
aI00
aI00
aI00
aI00
aI00
aI00
aI00
aa(lp1026
I234378
aF54.9779
aF263.294
aVp2
p1027
aS'utopia'
p1028
aS'#000000'
p1029
aF8.88595
aI0
aI01
aI00
aI00
aI00
aI00
aI00
aI00
aI00
aa(lp1030
I86196
aF89.0407
aF263.294
aVp2
p1031
aS'utopia'
p1032
aS'#000000'
p1033
aF8.88595
aI0
aI01
aI00
aI00
aI00
aI00
aI00
aI00
aI00
aa(lp1034
I177271
aF40.1679
aF302.558
aVp2
p1035
aS'utopia'
p1036
aS'#02304b'
p1037
aF11.8479
aI1
aI01
aI00
aI00
aI00
aI00
aI00
aI00
aI00
aa(lp1038
I234378
aF74.2307
aF302.558
aVp2
p1039
aS'utopia'
p1040
aS'#02304b'
p1041
aF11.8479
aI1
aI01
aI00
aI00
aI00
aI00
aI00
aI00
aI00
aa(lp1042
I7520
aF49.0539
aF332.054
aVp2
p1043
aS'utopia'
p1044
aS'#656565'
p1045
aF10.3669
aI1
aI01
aI00
aI00
aI00
aI00
aI00
aI00
aI00
aa(lp1046
I10865
aF93.4836
aF332.054
aVp2
p1047
aS'utopia'
p1048
aS'#656565'
p1049
aF10.3669
aI1
aI01
aI00
aI00
aI00
aI00
aI00
aI00
aI00
aa(lp1050
I86794
aF292.677
aF330.573
aVp2
p1051
aS'utopia'
p1052
aS'#656565'
p1053
aF10.3669
aI1
aI01
aI00
aI00
aI00
aI00
aI00
aI00
aI00
aa(lp1054
I131455
aF331.183
aF330.573
aVp2
p1055
aS'utopia'
p1056
aS'#656565'
p1057
aF10.3669
aI1
aI01
aI00
aI00
aI00
aI00
aI00
aI00
aI00
aa(lp1058
I234378
aF348.955
aF330.573
aVp2
p1059
aS'utopia'
p1060
aS'#656565'
p1061
aF10.3669
aI1
aI01
aI00
aI00
aI00
aI00
aI00
aI00
aI00
aa(lp1062
I132955
aF49.0539
aF347.711
aVp2
p1063
aS'utopia'
p1064
aS'#656565'
p1065
aF8.88595
aI0
aI01
aI00
aI00
aI00
aI00
aI00
aI00
aI00
aa(lp1066
I144489
aF69.7878
aF347.711
aVp2
p1067
aS'utopia'
p1068
aS'#656565'
p1069
aF8.88595
aI0
aI00
aI00
aI00
aI00
aI00
aI00
aI00
aI00
aa(lp1070
I132529
aF80.1547
aF347.711
aVp2
p1071
aS'utopia'
p1072
aS'#656565'
p1073
aF8.88595
aI0
aI01
aI00
aI00
aI00
aI00
aI00
aI00
aI00
aa(lp1074
I234378
aF98.76336666666667
aF347.711
ag1071
aS'utopia'
p1075
aS'#656565'
p1076
aF8.88595
aI0
aI00
aI00
aI00
aI00
aI00
aI00
aI00
aI00
aa(lp1077
I234378
aF104.591
aF347.711
aVp2
p1078
aS'utopia'
p1079
aS'#434343'
p1080
aF8.88595
aI0
aI00
aI00
aI01
aI01
aI01
aI00
aI00
aI00
aa(lp1081
I234378
aF115.699
aF347.711
aVp2
p1082
aS'utopia'
p1083
aS'#434343'
p1084
aF8.88595
aI0
aI01
aI00
aI00
aI00
aI00
aI00
aI00
aI01
aa(lp1085
I234378
aF133.47
aF347.711
aVp2
p1086
aS'utopia'
p1087
aS'#434343'
p1088
aF8.88595
aI0
aI00
aI00
aI01
aI01
aI01
aI00
aI00
aI00
aa(lp1089
I131455
aF292.677
aF346.23
aVp2
p1090
aS'utopia'
p1091
aS'#656565'
p1092
aF8.88595
aI0
aI01
aI00
aI00
aI00
aI00
aI00
aI00
aI00
aa(lp1093
I197416
aF308.227
aF346.23
aVp2
p1094
aS'utopia'
p1095
aS'#656565'
p1096
aF8.88595
aI0
aI01
aI00
aI00
aI00
aI00
aI00
aI00
aI00
aa(lp1097
I234378
aF325.49892
aF346.23
ag1094
aS'utopia'
p1098
aS'#656565'
p1099
aF8.88595
aI0
aI00
aI00
aI00
aI00
aI00
aI00
aI00
aI00
aa(lp1100
I28425
aF331.923
aF346.23
aVp2
p1101
aS'utopia'
p1102
aS'#434343'
p1103
aF8.88595
aI0
aI01
aI00
aI00
aI00
aI00
aI00
aI00
aI00
aa(lp1104
I108944
aF49.0539
aF363.261
aVp2
p1105
aS'utopia'
p1106
aS'#656565'
p1107
aF8.88595
aI0
aI01
aI00
aI00
aI00
aI00
aI00
aI00
aI00
aa(lp1108
I234378
aF76.44544285714287
aF363.261
ag1105
aS'utopia'
p1109
aS'#656565'
p1110
aF8.88595
aI0
aI00
aI00
aI00
aI00
aI00
aI00
aI00
aI00
aa(lp1111
I186336
aF83.1167
aF363.261
aVp2
p1112
aS'utopia'
p1113
aS'#434343'
p1114
aF8.88595
aI0
aI01
aI00
aI00
aI00
aI00
aI00
aI00
aI00
aa(lp1115
I72722
aF292.677
aF361.78
aVp2
p1116
aS'utopia'
p1117
aS'#656565'
p1118
aF8.88595
aI0
aI01
aI00
aI00
aI00
aI00
aI00
aI00
aI00
aa(lp1119
I12510
aF345.993
aF361.78
aVp2
p1120
aS'utopia'
p1121
aS'#656565'
p1122
aF8.88595
aI0
aI01
aI00
aI00
aI00
aI00
aI00
aI00
aI00
aa(lp1123
I234378
aF368.3069142857143
aF361.78
ag1120
aS'utopia'
p1124
aS'#656565'
p1125
aF8.88595
aI0
aI00
aI00
aI00
aI00
aI00
aI00
aI00
aI00
aa(lp1126
I60201
aF374.132
aF361.78
aVp2
p1127
aS'utopia'
p1128
aS'#434343'
p1129
aF8.88595
aI0
aI01
aI00
aI00
aI00
aI00
aI00
aI00
aI00
aa(lp1130
I230071
aF391.163
aF361.78
aVp2
p1131
aS'utopia'
p1132
aS'#434343'
p1133
aF8.88595
aI0
aI01
aI00
aI00
aI00
aI00
aI00
aI00
aI00
aa(lp1134
I212271
aF49.0539
aF378.811
aVp2
p1135
aS'utopia'
p1136
aS'#656565'
p1137
aF8.88595
aI0
aI01
aI00
aI00
aI00
aI00
aI00
aI00
aI00
aa(lp1138
I12510
aF79.4142
aF378.811
aVp2
p1139
aS'utopia'
p1140
aS'#656565'
p1141
aF8.88595
aI0
aI01
aI00
aI00
aI00
aI00
aI00
aI00
aI00
aa(lp1142
I234378
aF101.72811428571428
aF378.811
ag1139
aS'utopia'
p1143
aS'#656565'
p1144
aF8.88595
aI0
aI00
aI00
aI00
aI00
aI00
aI00
aI00
aI00
aa(lp1145
I118865
aF107.553
aF378.811
aVp2
p1146
aS'utopia'
p1147
aS'#434343'
p1148
aF8.88595
aI0
aI01
aI00
aI00
aI00
aI00
aI00
aI00
aI00
aa(lp1149
I234378
aF133.68768749999998
aF378.811
ag1146
aS'utopia'
p1150
aS'#434343'
p1151
aF8.88595
aI0
aI00
aI00
aI00
aI00
aI00
aI00
aI00
aI00
aa(lp1152
I136874
aF138.04346875
aF378.811
ag1146
aS'utopia'
p1153
aS'#434343'
p1154
aF8.88595
aI0
aI00
aI00
aI00
aI00
aI00
aI00
aI00
aI00
aa(lp1155
I51933
aF292.677
aF381.667
aVp2
p1156
aS'utopia'
p1157
aS'#656565'
p1158
aF10.3669
aI1
aI01
aI00
aI00
aI00
aI00
aI00
aI00
aI00
aa(lp1159
I62768
aF320.816
aF381.667
aVp2
p1160
aS'utopia'
p1161
aS'#656565'
p1162
aF10.3669
aI1
aI01
aI00
aI00
aI00
aI00
aI00
aI00
aI00
aa(lp1163
I118366
aF49.0539
aF398.698
aVp2
p1164
aS'utopia'
p1165
aS'#656565'
p1166
aF10.3669
aI1
aI01
aI00
aI00
aI00
aI00
aI00
aI00
aI00
aa(lp1167
I234378
aF83.97235
aF398.698
ag1164
aS'utopia'
p1168
aS'#656565'
p1169
aF10.3669
aI1
aI00
aI00
aI00
aI00
aI00
aI00
aI00
aI00
aa(lp1170
I31679
aF292.677
aF397.324
aVp2
p1171
aS'utopia'
p1172
aS'#656565'
p1173
aF8.88595
aI0
aI01
aI01
aI00
aI00
aI00
aI00
aI00
aI00
aa(lp1174
I51933
aF306.006
aF397.324
aVp2
p1175
aS'utopia'
p1176
aS'#656565'
p1177
aF8.88595
aI0
aI01
aI00
aI00
aI00
aI00
aI00
aI00
aI00
aa(lp1178
I12510
aF329.702
aF397.324
aVp2
p1179
aS'utopia'
p1180
aS'#656565'
p1181
aF8.88595
aI0
aI01
aI00
aI00
aI00
aI00
aI00
aI00
aI00
aa(lp1182
I234378
aF352.0159142857143
aF397.324
ag1179
aS'utopia'
p1183
aS'#656565'
p1184
aF8.88595
aI0
aI00
aI00
aI00
aI00
aI00
aI00
aI00
aI00
aa(lp1185
I63091
aF357.841
aF397.324
aVp2
p1186
aS'utopia'
p1187
aS'#434343'
p1188
aF8.88595
aI0
aI01
aI00
aI00
aI00
aI00
aI00
aI00
aI00
aa(lp1189
I234378
aF374.872
aF397.324
aVp2
p1190
aS'utopia'
p1191
aS'#434343'
p1192
aF8.88595
aI0
aI01
aI00
aI00
aI00
aI00
aI00
aI00
aI00
aa(lp1193
I63091
aF49.0539
aF411.393
aVp2
p1194
aS'utopia'
p1195
aS'#000000'
p1196
aF8.88595
aI0
aI01
aI00
aI00
aI00
aI00
aI00
aI00
aI00
aa(lp1197
I234378
aF66.0853
aF411.393
aVp2
p1198
aS'utopia'
p1199
aS'#000000'
p1200
aF8.88595
aI0
aI01
aI00
aI00
aI00
aI00
aI00
aI00
aI00
aa(lp1201
I234378
aF292.677
aF412.874
aVp2
p1202
aS'utopia'
p1203
aS'#656565'
p1204
aF8.88595
aI0
aI01
aI00
aI00
aI00
aI00
aI00
aI00
aI00
aa(lp1205
I234378
aF329.43552
aF412.874
ag1202
aS'utopia'
p1206
aS'#656565'
p1207
aF8.88595
aI0
aI00
aI00
aI00
aI00
aI00
aI00
aI00
aI00
aa(lp1208
I182663
aF49.0539
aF424.722
aVp2
p1209
aS'utopia'
p1210
aS'#656565'
p1211
aF8.88595
aI0
aI01
aI00
aI00
aI00
aI00
aI00
aI00
aI00
aa(lp1212
I82279
aF76.4522
aF424.722
aVp2
p1213
aS'utopia'
p1214
aS'#656565'
p1215
aF8.88595
aI0
aI01
aI00
aI00
aI00
aI00
aI00
aI00
aI00
aa(lp1216
I234378
aF96.09372
aF424.722
ag1213
aS'utopia'
p1217
aS'#656565'
p1218
aF8.88595
aI0
aI00
aI00
aI00
aI00
aI00
aI00
aI00
aI00
aa(lp1219
I63091
aF103.11
aF424.722
aVp2
p1220
aS'utopia'
p1221
aS'#000000'
p1222
aF8.88595
aI0
aI01
aI00
aI00
aI00
aI00
aI00
aI00
aI00
aa(lp1223
I234378
aF120.141
aF424.722
aVp2
p1224
aS'utopia'
p1225
aS'#000000'
p1226
aF8.88595
aI0
aI01
aI00
aI00
aI00
aI00
aI00
aI00
aI00
aa(lp1227
I166771
aF292.677
aF432.761
aVp2
p1228
aS'utopia'
p1229
aS'#656565'
p1230
aF10.3669
aI1
aI01
aI00
aI00
aI00
aI00
aI00
aI00
aI00
aa(lp1231
I74833
aF348.955
aF432.761
aVp2
p1232
aS'utopia'
p1233
aS'#656565'
p1234
aF10.3669
aI1
aI01
aI00
aI00
aI00
aI00
aI00
aI00
aI00
aa(lp1235
I233758
aF292.677
aF448.418
aVp2
p1236
aS'utopia'
p1237
aS'#656565'
p1238
aF8.88595
aI0
aI01
aI00
aI00
aI00
aI00
aI00
aI00
aI00
aa(lp1239
I234378
aF326.3488222222222
aF448.418
ag1236
aS'utopia'
p1240
aS'#656565'
p1241
aF8.88595
aI0
aI00
aI00
aI00
aI00
aI00
aI00
aI00
aI00
aa(lp1242
I230332
aF332.664
aF448.418
aVp2
p1243
aS'utopia'
p1244
aS'#434343'
p1245
aF8.88595
aI0
aI01
aI00
aI00
aI00
aI00
aI00
aI00
aI00
aa(lp1246
I151511
aF292.677
aF463.969
aVp2
p1247
aS'utopia'
p1248
aS'#656565'
p1249
aF8.88595
aI0
aI01
aI00
aI00
aI00
aI00
aI00
aI00
aI00
aa(lp1250
I234378
aF333.404
aF463.969
aVp2
p1251
aS'utopia'
p1252
aS'#656565'
p1253
aF8.88595
aI0
aI01
aI00
aI00
aI00
aI00
aI00
aI00
aI00
aa(lp1254
I234378
aF375.2460909090909
aF463.969
ag1251
aS'utopia'
p1255
aS'#656565'
p1256
aF8.88595
aI0
aI00
aI00
aI00
aI00
aI00
aI00
aI00
aI00
aa(lp1257
I201816
aF381.537
aF463.969
aVp2
p1258
aS'utopia'
p1259
aS'#434343'
p1260
aF8.88595
aI0
aI01
aI00
aI00
aI00
aI00
aI00
aI00
aI00
aa(lp1261
I1
aI1
aI0
aI0
aI0
aI0
aI0
aI0
aI0
aI0
aI0
aI0
aI0
aI0
aI0
aI0
aI0
aI0
aI0
aI0
aI0
aI0
aI0
aI0
aI0
aI0
aI0
aI0
aI0
aI0
aI0
aI0
aI0
aI0
aI0
aI0
aI0
aI0
aI0
aI0
aI0
aI0
aI0
aI0
aI0
aI0
aI0
aI0
aI0
aI0
aI0
aI0
aI0
aI0
aI0
aI0
aI0
aI0
aI0
aI0
aI0
aI0
aI0
aI0
aI0
aI0
aI0
aI0
aI0
aI0
aI0
aI0
aI0
aI0
aI0
aI0
aI0
aI0
aI0
aI0
aI0
aI0
aI0
aI0
aI0
aI0
aI0
aI0
aI0
aI0
aI0
aI0
aI0
aI0
aI0
aI0
aI0
aI0
aI0
aI0
aI0
aI0
aI0
aI0
aI0
aI0
aI0
aI0
aI0
aI0
aI0
aI0
aI0
aI0
aI0
aI0
aI0
aI0
aI1
aI1
aI0
aI0
aI0
aI0
aI0
aI0
aI0
aI0
aI0
aI0
aI0
aI0
aI0
aI0
aI0
aI0
aI0
aI0
aI0
aI0
aI0
aI0
aI0
aI0
aI0
aI0
aI0
aI0
aI0
aI0
aI0
aI0
aI0
aI0
aI0
aI0
aI0
aI0
aI0
aI0
aI0
aI0
aI0
aI0
aI0
aI0
aI0
aI0
aI0
aI0
aI0
aI0
aI0
aI0
aI0
aI0
aI0
aI0
aI0
aI0
aI0
aI0
aI0
aI0
aI0
aI0
aI1
aI0
aI0
aI0
aI0
aI0
aI0
aI0
aI0
aI0
aI0
aI0
aI0
aI0
aI0
aI0
aI0
aI0
aI0
aI0
aI0
aI0
aI0
aI0
aI0
aI0
aI0
aI0
aI0
aI0
aI0
aI0
aI0
aI0
aI0
aI1
aI1
aI0
aI0
aI0
aI0
aI0
aI0
aI0
aI0
aI0
aI0
aI0
aI0
aI0
aI0
aI0
aI0
aI0
aI0
aI0
aI0
aI0
aI0
aI0
aI0
aI0
aI0
aI0
aI0
aI0
aI0
aI0
aI1
aI1
aI0
aI0
aI0
aI0
aI0
aI0
aI0
aI0
aI0
aI0
aI0
aI1
aI0
aI0
aI0
aI1
aI1
aI0
aI0
aI0
aI0
aI0
aI0
aI0
aI0
aI0
aI0
aI0
aI0
aI0
aI0
aI0
aI0
aI0
aI0
aI0
aI0
aI0
aI0
aI0
aI0
aI0
aI0
aI0
aI0
aI0
aI0
aI0
aI0
aI0
aI0
aI0
aI0
aI0
aI0
aI0
aI0
aI0
aI0
aI0
aI0
aI0
aI0
aI0
aI0
aI0
aI0
aI0
aI0
aI0
aI0
aI0
aI0
aI0
aI0
atp1262
.