((lp0
(lp1
I234378
aF40.9084
aF53.0111
aVp1
p2
aS'utopia'
p3
aS'#02304b'
p4
aF11.8479
aI1
aI01
aI00
aI00
aI00
aI00
aI00
aI00
aI00
aa(lp5
I234378
aF87.5597
aF53.0111
aVp1
p6
aS'utopia'
p7
aS'#02304b'
p8
aF11.8479
aI1
aI01
aI00
aI00
aI00
aI00
aI00
aI00
aI00
aa(lp9
I27780
aF46.8324
aF74.4677
aVp1
p10
aS'utopia'
p11
aS'#656565'
p12
aF8.88595
aI0
aI01
aI01
aI00
aI00
aI00
aI00
aI00
aI00
aa(lp13
I234378
aF50.827
aF74.4677
ag10
aS'utopia'
p14
aS'#656565'
p15
aF8.88595
aI0
aI00
aI00
aI00
aI00
aI00
aI00
aI00
aI00
aa(lp16
I2737
aF54.8216
aF74.4677
ag10
aS'utopia'
p17
aS'#656565'
p18
aF8.88595
aI0
aI01
aI00
aI00
aI00
aI00
aI00
aI00
aI00
aa(lp19
I234378
aF65.8
aF74.4677
ag10
aS'utopia'
p20
aS'#656565'
p21
aF8.88595
aI0
aI00
aI00
aI00
aI00
aI00
aI00
aI00
aI00
aa(lp22
I234378
aF74.7946
aF74.4677
ag10
aS'utopia'
p23
aS'#656565'
p24
aF8.88595
aI0
aI00
aI00
aI00
aI00
aI00
aI00
aI00
aI00
aa(lp25
I82380
aF80.8952
aF74.4677
aVp1
p26
aS'utopia'
p27
aS'#656565'
p28
aF8.88595
aI0
aI01
aI00
aI00
aI00
aI00
aI00
aI00
aI00
aa(lp29
I234378
aF112.737
aF74.4677
aVp1
p30
aS'utopia'
p31
aS'#656565'
p32
aF8.88595
aI0
aI00
aI00
aI00
aI00
aI00
aI00
aI00
aI00
aa(lp33
I135639
aF163.09
aF74.4677
aVp1
p34
aS'utopia'
p35
aS'#656565'
p36
aF8.88595
aI0
aI00
aI00
aI00
aI00
aI00
aI00
aI00
aI00
aa(lp37
I123665
aF172.717
aF74.4677
aVp1
p38
aS'utopia'
p39
aS'#656565'
p40
aF8.88595
aI0
aI01
aI00
aI00
aI00
aI00
aI00
aI00
aI00
aa(lp41
I68032
aF220.108
aF74.4677
aVp1
p42
aS'utopia'
p43
aS'#656565'
p44
aF8.88595
aI0
aI01
aI00
aI00
aI00
aI00
aI00
aI00
aI00
aa(lp45
I234378
aF271.122975
aF74.4677
ag42
aS'utopia'
p46
aS'#656565'
p47
aF8.88595
aI0
aI00
aI00
aI00
aI00
aI00
aI00
aI00
aI00
aa(lp48
I17350
aF277.867
aF74.4677
aVp1
p49
aS'utopia'
p50
aS'#656565'
p51
aF8.88595
aI0
aI01
aI00
aI00
aI00
aI00
aI00
aI00
aI00
aa(lp52
I153177
aF297.86
aF74.4677
aVp1
p53
aS'utopia'
p54
aS'#656565'
p55
aF8.88595
aI0
aI01
aI00
aI00
aI00
aI00
aI00
aI00
aI00
aa(lp56
I234378
aF347.107
aF74.4677
ag53
aS'utopia'
p57
aS'#656565'
p58
aF8.88595
aI0
aI00
aI00
aI00
aI00
aI00
aI00
aI00
aI00
aa(lp59
I217975
aF354.138
aF74.4677
aVp1
p60
aS'utopia'
p61
aS'#656565'
p62
aF8.88595
aI0
aI01
aI00
aI00
aI00
aI00
aI00
aI00
aI00
aa(lp63
I117435
aF392.644
aF74.4677
aVp1
p64
aS'utopia'
p65
aS'#656565'
p66
aF8.88595
aI0
aI01
aI00
aI00
aI00
aI00
aI00
aI00
aI00
aa(lp67
I169745
aF433.371
aF74.4677
aVp1
p68
aS'utopia'
p69
aS'#656565'
p70
aF8.88595
aI0
aI00
aI00
aI00
aI00
aI00
aI00
aI00
aI00
aa(lp71
I166593
aF452.624
aF74.4677
aVp1
p72
aS'utopia'
p73
aS'#656565'
p74
aF8.88595
aI0
aI00
aI00
aI00
aI00
aI00
aI00
aI00
aI00
aa(lp75
I166001
aF40.9084
aF84.8346
aVp1
p76
aS'utopia'
p77
aS'#656565'
p78
aF8.88595
aI0
aI00
aI00
aI00
aI00
aI00
aI00
aI00
aI00
aa(lp79
I229426
aF74.2307
aF84.8346
aVp1
p80
aS'utopia'
p81
aS'#656565'
p82
aF8.88595
aI0
aI00
aI00
aI00
aI00
aI00
aI00
aI00
aI00
aa(lp83
I234378
aF122.18473076923077
aF84.8346
ag80
aS'utopia'
p84
aS'#656565'
p85
aF8.88595
aI0
aI00
aI00
aI00
aI00
aI00
aI00
aI00
aI00
aa(lp86
I131972
aF128.287
aF84.8346
aVp1
p87
aS'utopia'
p88
aS'#656565'
p89
aF8.88595
aI0
aI00
aI00
aI00
aI00
aI00
aI00
aI00
aI00
aa(lp90
I135639
aF171.236
aF84.8346
aVp1
p91
aS'utopia'
p92
aS'#656565'
p93
aF8.88595
aI0
aI00
aI00
aI00
aI00
aI00
aI00
aI00
aI00
aa(lp94
I194354
aF180.862
aF84.8346
aVp1
p95
aS'utopia'
p96
aS'#656565'
p97
aF8.88595
aI0
aI00
aI00
aI00
aI00
aI00
aI00
aI00
aI00
aa(lp98
I22476
aF195.672
aF84.8346
aVp1
p99
aS'utopia'
p100
aS'#656565'
p101
aF8.88595
aI0
aI01
aI01
aI00
aI00
aI00
aI00
aI00
aI00
aa(lp102
I74589
aF206.039
aF84.8346
aVp1
p103
aS'utopia'
p104
aS'#656565'
p105
aF8.88595
aI0
aI00
aI00
aI00
aI00
aI00
aI00
aI00
aI00
aa(lp106
I234378
aF59.4208
aF124.081
aVp1
p107
aS'utopia'
p108
aS'#0d75b4'
p109
aF8.88595
aI0
aI00
aI00
aI00
aI00
aI00
aI01
aI00
aI00
aa(lp110
I234378
aF301.563
aF124.081
aVp1
p111
aS'utopia'
p112
aS'#000000'
p113
aF8.88595
aI0
aI00
aI00
aI01
aI01
aI01
aI00
aI00
aI00
aa(lp114
I15548
aF55.7183
aF158.884
aVp1
p115
aS'utopia'
p116
aS'#878787'
p117
aF8.88595
aI0
aI01
aI00
aI00
aI00
aI00
aI00
aI00
aI00
aa(lp118
I104542
aF89.0407
aF158.884
aVp1
p119
aS'utopia'
p120
aS'#878787'
p121
aF8.88595
aI0
aI01
aI00
aI00
aI00
aI00
aI00
aI00
aI00
aa(lp122
I234378
aF133.94655
aF158.884
ag119
aS'utopia'
p123
aS'#878787'
p124
aF8.88595
aI0
aI00
aI00
aI00
aI00
aI00
aI00
aI00
aI00
aa(lp125
I234378
aF142.356
aF158.884
aVp1
p126
aS'utopia'
p127
aS'#000000'
p128
aF8.88595
aI0
aI01
aI00
aI00
aI00
aI00
aI00
aI00
aI00
aa(lp129
I132100
aF179.381
aF158.884
aVp1
p130
aS'utopia'
p131
aS'#000000'
p132
aF8.88595
aI0
aI01
aI00
aI00
aI00
aI00
aI00
aI00
aI00
aa(lp133
I15548
aF55.7183
aF176.656
aVp1
p134
aS'utopia'
p135
aS'#878787'
p136
aF8.88595
aI0
aI01
aI00
aI00
aI00
aI00
aI00
aI00
aI00
aa(lp137
I2006
aF89.0407
aF176.656
aVp1
p138
aS'utopia'
p139
aS'#878787'
p140
aF8.88595
aI0
aI01
aI00
aI00
aI00
aI00
aI00
aI00
aI00
aa(lp141
I234378
aF124.77815
aF176.656
ag138
aS'utopia'
p142
aS'#878787'
p143
aF8.88595
aI0
aI00
aI00
aI00
aI00
aI00
aI00
aI00
aI00
aa(lp144
I230332
aF134.211
aF176.656
aVp1
p145
aS'utopia'
p146
aS'#000000'
p147
aF8.88595
aI0
aI01
aI00
aI00
aI00
aI00
aI00
aI00
aI00
aa(lp148
I188670
aF167.533
aF176.656
aVp1
p149
aS'utopia'
p150
aS'#000000'
p151
aF8.88595
aI0
aI01
aI00
aI00
aI00
aI00
aI00
aI00
aI00
aa(lp152
I15548
aF55.7183
aF194.428
aVp1
p153
aS'utopia'
p154
aS'#878787'
p155
aF8.88595
aI0
aI01
aI00
aI00
aI00
aI00
aI00
aI00
aI00
aa(lp156
I17057
aF89.0407
aF194.428
aVp1
p157
aS'utopia'
p158
aS'#878787'
p159
aF8.88595
aI0
aI01
aI00
aI00
aI00
aI00
aI00
aI00
aI00
aa(lp160
I234378
aF122.05430000000001
aF194.428
ag157
aS'utopia'
p161
aS'#878787'
p162
aF8.88595
aI0
aI00
aI00
aI00
aI00
aI00
aI00
aI00
aI00
aa(lp163
I234378
aF130.508
aF194.428
aVp1
p164
aS'utopia'
p165
aS'#000000'
p166
aF8.88595
aI0
aI01
aI00
aI00
aI00
aI00
aI00
aI00
aI00
aa(lp167
I234378
aF173.457
aF194.428
aVp1
p168
aS'utopia'
p169
aS'#000000'
p170
aF8.88595
aI0
aI00
aI00
aI00
aI00
aI00
aI00
aI00
aI00
aa(lp171
I234378
aF180.122
aF194.428
aVp1
p172
aS'utopia'
p173
aS'#000000'
p174
aF8.88595
aI0
aI01
aI00
aI00
aI00
aI00
aI00
aI00
aI00
aa(lp175
I234378
aF55.7183
aF212.2
aVp1
p176
aS'utopia'
p177
aS'#878787'
p178
aF8.88595
aI0
aI01
aI00
aI00
aI00
aI00
aI00
aI00
aI00
aa(lp179
I234378
aF70.62062
aF212.2
ag176
aS'utopia'
p180
aS'#878787'
p181
aF8.88595
aI0
aI00
aI00
aI00
aI00
aI00
aI00
aI00
aI00
aa(lp182
I17057
aF76.4522
aF212.2
aVp1
p183
aS'utopia'
p184
aS'#878787'
p185
aF8.88595
aI0
aI01
aI00
aI00
aI00
aI00
aI00
aI00
aI00
aa(lp186
I234378
aF109.4658
aF212.2
ag183
aS'utopia'
p187
aS'#878787'
p188
aF8.88595
aI0
aI00
aI00
aI00
aI00
aI00
aI00
aI00
aI00
aa(lp189
I234378
aF117.92
aF212.2
aVp1
p190
aS'utopia'
p191
aS'#000000'
p192
aF8.88595
aI0
aI01
aI00
aI00
aI00
aI00
aI00
aI00
aI00
aa(lp193
I234378
aF160.869
aF212.2
aVp1
p194
aS'utopia'
p195
aS'#000000'
p196
aF8.88595
aI0
aI00
aI00
aI00
aI00
aI00
aI00
aI00
aI00
aa(lp197
I234378
aF167.533
aF212.2
aVp1
p198
aS'utopia'
p199
aS'#000000'
p200
aF8.88595
aI0
aI01
aI00
aI00
aI00
aI00
aI00
aI00
aI00
aa(lp201
I234378
aF205.62442
aF212.2
ag198
aS'utopia'
p202
aS'#000000'
p203
aF8.88595
aI0
aI00
aI00
aI00
aI00
aI00
aI00
aI00
aI00
aa(lp204
I234378
aF211.963
aF212.2
aVp1
p205
aS'utopia'
p206
aS'#000000'
p207
aF8.88595
aI0
aI01
aI00
aI00
aI00
aI00
aI00
aI00
aI00
aa(lp208
I234378
aF254.05311999999998
aF212.2
ag205
aS'utopia'
p209
aS'#000000'
p210
aF8.88595
aI0
aI00
aI00
aI00
aI00
aI00
aI00
aI00
aI00
aa(lp211
I234378
aF55.7183
aF222.567
aVp1
p212
aS'utopia'
p213
aS'#000000'
p214
aF8.88595
aI0
aI01
aI00
aI00
aI00
aI00
aI00
aI00
aI00
aa(lp215
I98580
aF55.7183
aF240.339
aVp1
p216
aS'utopia'
p217
aS'#878787'
p218
aF8.88595
aI0
aI01
aI00
aI00
aI00
aI00
aI00
aI00
aI00
aa(lp219
I166289
aF100.148
aF240.339
aVp1
p220
aS'utopia'
p221
aS'#878787'
p222
aF8.88595
aI0
aI01
aI00
aI00
aI00
aI00
aI00
aI00
aI00
aa(lp223
I234378
aF116.82751999999999
aF240.339
ag220
aS'utopia'
p224
aS'#878787'
p225
aF8.88595
aI0
aI00
aI00
aI00
aI00
aI00
aI00
aI00
aI00
aa(lp226
I22476
aF125.325
aF240.339
aVp1
p227
aS'utopia'
p228
aS'#000000'
p229
aF8.88595
aI0
aI01
aI01
aI00
aI00
aI00
aI00
aI00
aI00
aa(lp230
I234378
aF135.692
aF240.339
aVp1
p231
aS'utopia'
p232
aS'#000000'
p233
aF8.88595
aI0
aI01
aI00
aI00
aI00
aI00
aI00
aI00
aI00
aa(lp234
I123665
aF178.641
aF240.339
aVp1
p235
aS'utopia'
p236
aS'#000000'
p237
aF8.88595
aI0
aI01
aI00
aI00
aI00
aI00
aI00
aI00
aI00
aa(lp238
I234378
aF226.032
aF240.339
aVp1
p239
aS'utopia'
p240
aS'#000000'
p241
aF8.88595
aI0
aI01
aI00
aI00
aI00
aI00
aI00
aI00
aI00
aa(lp242
I234378
aF283.051
aF240.339
aVp1
p243
aS'utopia'
p244
aS'#000000'
p245
aF8.88595
aI0
aI00
aI00
aI00
aI00
aI00
aI00
aI00
aI00
aa(lp246
I20593
aF55.7183
aF250.706
aVp1
p247
aS'utopia'
p248
aS'#000000'
p249
aF8.88595
aI0
aI01
aI00
aI00
aI00
aI00
aI00
aI00
aI00
aa(lp250
I176435
aF55.7183
aF268.478
aVp1
p251
aS'utopia'
p252
aS'#878787'
p253
aF8.88595
aI0
aI01
aI00
aI00
aI00
aI00
aI00
aI00
aI00
aa(lp254
I234378
aF71.80542
aF268.478
ag251
aS'utopia'
p255
aS'#878787'
p256
aF8.88595
aI0
aI00
aI00
aI00
aI00
aI00
aI00
aI00
aI00
aa(lp257
I234378
aF80.1547
aF268.478
aVp1
p258
aS'utopia'
p259
aS'#000000'
p260
aF8.88595
aI0
aI01
aI00
aI00
aI00
aI00
aI00
aI00
aI00
aa(lp261
I100815
aF117.18
aF268.478
aVp1
p262
aS'utopia'
p263
aS'#000000'
p264
aF8.88595
aI0
aI01
aI00
aI00
aI00
aI00
aI00
aI00
aI00
aa(lp265
I74589
aF55.7183
aF286.25
aVp1
p266
aS'utopia'
p267
aS'#878787'
p268
aF8.88595
aI0
aI01
aI00
aI00
aI00
aI00
aI00
aI00
aI00
aa(lp269
I234378
aF87.41545555555555
aF286.25
ag266
aS'utopia'
p270
aS'#878787'
p271
aF8.88595
aI0
aI00
aI00
aI00
aI00
aI00
aI00
aI00
aI00
aa(lp272
I22476
aF95.7051
aF286.25
aVp1
p273
aS'utopia'
p274
aS'#000000'
p275
aF8.88595
aI0
aI01
aI01
aI00
aI00
aI00
aI00
aI00
aI00
aa(lp276
I234378
aF105.30374
aF286.25
ag273
aS'utopia'
p277
aS'#000000'
p278
aF8.88595
aI0
aI01
aI00
aI00
aI00
aI00
aI00
aI00
aI00
aa(lp279
I234378
aF139.69830000000002
aF286.25
ag273
aS'utopia'
p280
aS'#000000'
p281
aF8.88595
aI0
aI00
aI00
aI00
aI00
aI00
aI00
aI00
aI00
aa(lp282
I234378
aF134.99762
aF286.25
ag273
aS'utopia'
p283
aS'#000000'
p284
aF8.88595
aI0
aI01
aI00
aI00
aI00
aI00
aI00
aI00
aI00
aa(lp285
I234378
aF183.824
aF286.25
aVp1
p286
aS'utopia'
p287
aS'#000000'
p288
aF8.88595
aI0
aI01
aI00
aI00
aI00
aI00
aI00
aI00
aI00
aa(lp289
I231013
aF55.7183
aF304.021
aVp1
p290
aS'utopia'
p291
aS'#878787'
p292
aF8.88595
aI0
aI01
aI00
aI00
aI00
aI00
aI00
aI00
aI00
aa(lp293
I234378
aF72.7498
aF304.021
aVp1
p294
aS'utopia'
p295
aS'#878787'
p296
aF8.88595
aI0
aI01
aI00
aI00
aI00
aI00
aI00
aI00
aI00
aa(lp297
I234378
aF91.25542857142857
aF304.021
ag294
aS'utopia'
p298
aS'#878787'
p299
aF8.88595
aI0
aI00
aI00
aI00
aI00
aI00
aI00
aI00
aI00
aa(lp300
I84662
aF98.6671
aF304.021
aVp1
p301
aS'utopia'
p302
aS'#000000'
p303
aF8.88595
aI0
aI01
aI00
aI00
aI00
aI00
aI00
aI00
aI00
aa(lp304
I21716
aF120.141
aF304.021
aVp1
p305
aS'utopia'
p306
aS'#000000'
p307
aF8.88595
aI0
aI01
aI00
aI00
aI00
aI00
aI00
aI00
aI00
aa(lp308
I234378
aF135.04332
aF304.021
ag305
aS'utopia'
p309
aS'#000000'
p310
aF8.88595
aI0
aI00
aI00
aI00
aI00
aI00
aI00
aI00
aI00
aa(lp311
I21716
aF140.875
aF304.021
aVp1
p312
aS'utopia'
p313
aS'#000000'
p314
aF8.88595
aI0
aI01
aI00
aI00
aI00
aI00
aI00
aI00
aI00
aa(lp315
I234378
aF155.77732
aF304.021
ag312
aS'utopia'
p316
aS'#000000'
p317
aF8.88595
aI0
aI00
aI00
aI00
aI00
aI00
aI00
aI00
aI00
aa(lp318
I234378
aF161.609
aF304.021
aVp1
p319
aS'utopia'
p320
aS'#000000'
p321
aF8.88595
aI0
aI01
aI00
aI01
aI00
aI00
aI00
aI00
aI00
aa(lp322
I234378
aF177.10372
aF304.021
ag319
aS'utopia'
p323
aS'#000000'
p324
aF8.88595
aI0
aI00
aI00
aI00
aI00
aI00
aI00
aI00
aI00
aa(lp325
I148996
aF183.084
aF304.021
aVp1
p326
aS'utopia'
p327
aS'#000000'
p328
aF8.88595
aI0
aI01
aI00
aI00
aI00
aI00
aI00
aI00
aI00
aa(lp329
I234378
aF206.66734285714287
aF304.021
ag326
aS'utopia'
p330
aS'#000000'
p331
aF8.88595
aI0
aI00
aI00
aI00
aI00
aI00
aI00
aI00
aI00
aa(lp332
I176767
aF212.703
aF304.021
aVp1
p333
aS'utopia'
p334
aS'#000000'
p335
aF8.88595
aI0
aI01
aI00
aI00
aI00
aI00
aI00
aI00
aI00
aa(lp336
I234378
aF250.79442
aF304.021
ag333
aS'utopia'
p337
aS'#000000'
p338
aF8.88595
aI0
aI00
aI00
aI00
aI00
aI00
aI00
aI00
aI00
aa(lp339
I148996
aF257.133
aF304.021
aVp1
p340
aS'utopia'
p341
aS'#000000'
p342
aF8.88595
aI0
aI01
aI00
aI00
aI00
aI00
aI00
aI00
aI00
aa(lp343
I234378
aF284.532
aF304.021
aVp1
p344
aS'utopia'
p345
aS'#000000'
p346
aF8.88595
aI0
aI01
aI00
aI00
aI00
aI00
aI00
aI00
aI00
aa(lp347
I234378
aF299.0583
aF304.021
ag344
aS'utopia'
p348
aS'#000000'
p349
aF8.88595
aI0
aI00
aI00
aI00
aI00
aI00
aI00
aI00
aI00
aa(lp350
I234378
aF55.7183
aF314.388
aVp1
p351
aS'utopia'
p352
aS'#000000'
p353
aF8.88595
aI0
aI01
aI01
aI00
aI00
aI00
aI00
aI00
aI00
aa(lp354
I234378
aF69.13385
aF314.388
ag351
aS'utopia'
p355
aS'#000000'
p356
aF8.88595
aI0
aI00
aI00
aI00
aI00
aI00
aI00
aI00
aI00
aa(lp357
I234378
aF75.7117
aF314.388
aVp1
p358
aS'utopia'
p359
aS'#000000'
p360
aF8.88595
aI0
aI01
aI01
aI00
aI00
aI00
aI00
aI00
aI00
aa(lp361
I234378
aF94.76082
aF314.388
ag358
aS'utopia'
p362
aS'#000000'
p363
aF8.88595
aI0
aI00
aI00
aI00
aI00
aI00
aI00
aI00
aI00
aa(lp364
I234378
aF101.629
aF314.388
aVp1
p365
aS'utopia'
p366
aS'#000000'
p367
aF8.88595
aI0
aI01
aI00
aI00
aI00
aI00
aI00
aI00
aI00
aa(lp368
I234378
aF130.69326666666666
aF314.388
ag365
aS'utopia'
p369
aS'#000000'
p370
aF8.88595
aI0
aI00
aI00
aI00
aI00
aI00
aI00
aI00
aI00
aa(lp371
I234378
aF136.432
aF314.388
aVp1
p372
aS'utopia'
p373
aS'#000000'
p374
aF8.88595
aI0
aI01
aI01
aI00
aI00
aI00
aI00
aI00
aI00
aa(lp375
I234378
aF147.62605
aF314.388
ag372
aS'utopia'
p376
aS'#000000'
p377
aF8.88595
aI0
aI00
aI00
aI00
aI00
aI00
aI00
aI00
aI00
aa(lp378
I234378
aF153.464
aF314.388
aVp1
p379
aS'utopia'
p380
aS'#000000'
p381
aF8.88595
aI0
aI01
aI00
aI00
aI00
aI00
aI00
aI00
aI00
aa(lp382
I234378
aF175.1432
aF314.388
ag379
aS'utopia'
p383
aS'#000000'
p384
aF8.88595
aI0
aI00
aI00
aI00
aI00
aI00
aI00
aI00
aI00
aa(lp385
I17350
aF180.862
aF314.388
aVp1
p386
aS'utopia'
p387
aS'#000000'
p388
aF8.88595
aI0
aI01
aI00
aI00
aI00
aI00
aI00
aI00
aI00
aa(lp389
I234378
aF200.856
aF314.388
aVp1
p390
aS'utopia'
p391
aS'#000000'
p392
aF8.88595
aI0
aI01
aI00
aI00
aI00
aI00
aI00
aI00
aI00
aa(lp393
I234378
aF231.2367111111111
aF314.388
ag390
aS'utopia'
p394
aS'#000000'
p395
aF8.88595
aI0
aI00
aI00
aI00
aI00
aI00
aI00
aI00
aI00
aa(lp396
I106895
aF237.14
aF314.388
aVp1
p397
aS'utopia'
p398
aS'#000000'
p399
aF8.88595
aI0
aI01
aI01
aI00
aI00
aI00
aI00
aI00
aI00
aa(lp400
I234378
aF256.78152
aF314.388
ag397
aS'utopia'
p401
aS'#000000'
p402
aF8.88595
aI0
aI00
aI00
aI00
aI00
aI00
aI00
aI00
aI00
aa(lp403
I89217
aF263.798
aF314.388
aVp1
p404
aS'utopia'
p405
aS'#000000'
p406
aF8.88595
aI0
aI01
aI00
aI00
aI00
aI00
aI00
aI00
aI00
aa(lp407
I234378
aF279.29272000000003
aF314.388
ag404
aS'utopia'
p408
aS'#000000'
p409
aF8.88595
aI0
aI00
aI00
aI00
aI00
aI00
aI00
aI00
aI00
aa(lp410
I234378
aF55.7183
aF324.755
aVp1
p411
aS'utopia'
p412
aS'#000000'
p413
aF8.88595
aI0
aI00
aI00
aI00
aI00
aI00
aI00
aI00
aI00
aa(lp414
I234378
aF80.57107142857143
aF324.755
ag411
aS'utopia'
p415
aS'#000000'
p416
aF8.88595
aI0
aI00
aI00
aI00
aI00
aI00
aI00
aI00
aI00
aa(lp417
I234378
aF86.8192
aF324.755
aVp1
p418
aS'utopia'
p419
aS'#000000'
p420
aF8.88595
aI0
aI01
aI00
aI00
aI00
aI00
aI00
aI00
aI00
aa(lp421
I234378
aF123.94901818181818
aF324.755
ag418
aS'utopia'
p422
aS'#000000'
p423
aF8.88595
aI0
aI00
aI00
aI00
aI00
aI00
aI00
aI00
aI00
aa(lp424
I51933
aF40.1679
aF34.4987
aVp2
p425
aS'utopia'
p426
aS'#02304b'
p427
aF11.8479
aI1
aI01
aI00
aI00
aI00
aI00
aI00
aI00
aI00
aa(lp428
I60220
aF72.0093
aF34.4987
aVp2
p429
aS'utopia'
p430
aS'#02304b'
p431
aF11.8479
aI1
aI01
aI00
aI00
aI00
aI00
aI00
aI00
aI00
aa(lp432
I230332
aF40.9084
aF66.2156
aVp2
p433
aS'utopia'
p434
aS'#000000'
p435
aF10.3669
aI1
aI01
aI00
aI00
aI00
aI00
aI00
aI00
aI00
aa(lp436
I188670
aF80.8952
aF66.2156
aVp2
p437
aS'utopia'
p438
aS'#000000'
p439
aF10.3669
aI1
aI01
aI00
aI00
aI00
aI00
aI00
aI00
aI00
aa(lp440
I234378
aF119.401
aF66.4852
aVp2
p441
aS'utopia'
p442
aS'#656565'
p443
aF10.3669
aI0
aI00
aI00
aI00
aI00
aI00
aI00
aI00
aI00
aa(lp444
I15548
aF124.378425
aF66.4852
ag441
aS'utopia'
p445
aS'#656565'
p446
aF10.3669
aI0
aI01
aI00
aI00
aI00
aI00
aI00
aI00
aI00
aa(lp447
I70289
aF161.609
aF66.4852
aVp2
p448
aS'utopia'
p449
aS'#656565'
p450
aF10.3669
aI0
aI01
aI00
aI00
aI00
aI00
aI00
aI00
aI00
aa(lp451
I234378
aF204.95797777777778
aF66.4852
ag448
aS'utopia'
p452
aS'#656565'
p453
aF10.3669
aI0
aI00
aI00
aI00
aI00
aI00
aI00
aI00
aI00
aa(lp454
I234378
aF40.9084
aF82.7761
aVp2
p455
aS'utopia'
p456
aS'#656565'
p457
aF10.3669
aI0
aI01
aI00
aI00
aI00
aI00
aI00
aI00
aI00
aa(lp458
I132100
aF83.8572
aF82.7761
aVp2
p459
aS'utopia'
p460
aS'#656565'
p461
aF10.3669
aI0
aI01
aI00
aI00
aI00
aI00
aI00
aI00
aI00
aa(lp462
I234378
aF131.989
aF82.7761
aVp2
p463
aS'utopia'
p464
aS'#656565'
p465
aF10.3669
aI0
aI01
aI00
aI00
aI00
aI00
aI00
aI00
aI01
aa(lp466
I234378
aF151.983
aF82.7761
aVp2
p467
aS'utopia'
p468
aS'#656565'
p469
aF10.3669
aI0
aI00
aI00
aI01
aI01
aI01
aI00
aI00
aI00
aa(lp470
I48671
aF40.9084
aF102.607
aVp2
p471
aS'utopia'
p472
aS'#656565'
p473
aF8.88595
aI0
aI01
aI00
aI00
aI00
aI00
aI00
aI00
aI00
aa(lp474
I129688
aF69.0473
aF102.607
aVp2
p475
aS'utopia'
p476
aS'#656565'
p477
aF8.88595
aI0
aI01
aI00
aI00
aI00
aI00
aI00
aI00
aI00
aa(lp478
I234378
aF97.1861
aF102.607
aVp2
p479
aS'utopia'
p480
aS'#656565'
p481
aF8.88595
aI0
aI00
aI00
aI00
aI00
aI00
aI00
aI00
aI00
aa(lp482
I234378
aF101.629
aF102.607
aVp2
p483
aS'utopia'
p484
aS'#656565'
p485
aF8.88595
aI0
aI00
aI00
aI01
aI01
aI00
aI00
aI00
aI00
aa(lp486
I234378
aF108.294
aF102.607
aVp2
p487
aS'utopia'
p488
aS'#656565'
p489
aF8.88595
aI0
aI01
aI00
aI00
aI00
aI00
aI00
aI00
aI00
aa(lp490
I234378
aF40.9084
aF135.822
aVp2
p491
aS'utopia'
p492
aS'#000000'
p493
aF10.3669
aI1
aI01
aI01
aI00
aI00
aI00
aI00
aI00
aI00
aa(lp494
I69205
aF66.8258
aF135.822
aVp2
p495
aS'utopia'
p496
aS'#000000'
p497
aF10.3669
aI1
aI01
aI00
aI00
aI00
aI00
aI00
aI00
aI00
aa(lp498
I123665
aF40.9084
aF152.383
aVp2
p499
aS'utopia'
p500
aS'#656565'
p501
aF10.3669
aI0
aI01
aI00
aI00
aI00
aI00
aI00
aI00
aI00
aa(lp502
I100815
aF98.6671
aF152.383
aVp2
p503
aS'utopia'
p504
aS'#656565'
p505
aF10.3669
aI0
aI01
aI00
aI00
aI00
aI00
aI00
aI00
aI00
aa(lp506
I234378
aF153.464
aF152.383
aVp2
p507
aS'utopia'
p508
aS'#656565'
p509
aF10.3669
aI0
aI01
aI00
aI00
aI00
aI00
aI00
aI00
aI01
aa(lp510
I234378
aF174.938
aF152.383
aVp2
p511
aS'utopia'
p512
aS'#656565'
p513
aF10.3669
aI0
aI00
aI00
aI01
aI01
aI01
aI00
aI00
aI00
aa(lp514
I89480
aF197.894
aF152.383
aVp2
p515
aS'utopia'
p516
aS'#656565'
p517
aF10.3669
aI0
aI01
aI00
aI00
aI00
aI00
aI00
aI00
aI00
aa(lp518
I234378
aF212.703
aF152.383
aVp2
p519
aS'utopia'
p520
aS'#656565'
p521
aF10.3669
aI0
aI01
aI00
aI00
aI00
aI00
aI00
aI00
aI01
aa(lp522
I234378
aF232.697
aF152.383
aVp2
p523
aS'utopia'
p524
aS'#656565'
p525
aF10.3669
aI0
aI00
aI00
aI01
aI01
aI01
aI00
aI00
aI00
aa(lp526
I107562
aF40.9084
aF172.213
aVp2
p527
aS'utopia'
p528
aS'#656565'
p529
aF8.88595
aI0
aI01
aI00
aI00
aI00
aI00
aI00
aI00
aI00
aa(lp530
I234378
aF57.04873333333333
aF172.213
ag527
aS'utopia'
p531
aS'#656565'
p532
aF8.88595
aI0
aI00
aI00
aI00
aI00
aI00
aI00
aI00
aI00
aa(lp533
I137949
aF62.3828
aF172.213
aVp2
p534
aS'utopia'
p535
aS'#656565'
p536
aF8.88595
aI0
aI01
aI00
aI00
aI00
aI00
aI00
aI00
aI00
aa(lp537
I233748
aF83.1167
aF172.213
aVp2
p538
aS'utopia'
p539
aS'#656565'
p540
aF8.88595
aI0
aI01
aI00
aI00
aI00
aI00
aI00
aI00
aI00
aa(lp541
I129688
aF132.73
aF172.213
aVp2
p542
aS'utopia'
p543
aS'#656565'
p544
aF8.88595
aI0
aI01
aI00
aI00
aI00
aI00
aI00
aI00
aI00
aa(lp545
I234378
aF156.94805714285712
aF172.213
ag542
aS'utopia'
p546
aS'#656565'
p547
aF8.88595
aI0
aI00
aI00
aI00
aI00
aI00
aI00
aI00
aI00
aa(lp548
I234378
aF163.09
aF172.213
aVp2
p549
aS'utopia'
p550
aS'#656565'
p551
aF8.88595
aI0
aI01
aI00
aI00
aI00
aI00
aI00
aI00
aI01
aa(lp552
I234378
aF177.6452
aF172.213
ag549
aS'utopia'
p553
aS'#656565'
p554
aF8.88595
aI0
aI00
aI00
aI00
aI00
aI00
aI00
aI00
aI00
aa(lp555
I234378
aF182.49693333333332
aF172.213
ag549
aS'utopia'
p556
aS'#656565'
p557
aF8.88595
aI0
aI00
aI00
aI01
aI01
aI01
aI00
aI00
aI00
aa(lp558
I89480
aF194.191
aF172.213
aVp2
p559
aS'utopia'
p560
aS'#656565'
p561
aF8.88595
aI0
aI00
aI00
aI00
aI00
aI00
aI00
aI00
aI00
aa(lp562
I36403
aF204.558
aF172.213
aVp2
p563
aS'utopia'
p564
aS'#656565'
p565
aF8.88595
aI0
aI01
aI00
aI00
aI00
aI00
aI00
aI00
aI00
aa(lp566
I129342
aF218.627
aF172.213
aVp2
p567
aS'utopia'
p568
aS'#656565'
p569
aF8.88595
aI0
aI01
aI00
aI00
aI00
aI00
aI00
aI00
aI00
aa(lp570
I234378
aF251.6406
aF172.213
ag567
aS'utopia'
p571
aS'#656565'
p572
aF8.88595
aI0
aI00
aI00
aI00
aI00
aI00
aI00
aI00
aI00
aa(lp573
I21716
aF257.874
aF172.213
aVp2
p574
aS'utopia'
p575
aS'#656565'
p576
aF8.88595
aI0
aI01
aI00
aI00
aI00
aI00
aI00
aI00
aI00
aa(lp577
I234378
aF272.77632
aF172.213
ag574
aS'utopia'
p578
aS'#656565'
p579
aF8.88595
aI0
aI00
aI00
aI00
aI00
aI00
aI00
aI00
aI00
aa(lp580
I148996
aF278.608
aF172.213
aVp2
p581
aS'utopia'
p582
aS'#656565'
p583
aF8.88595
aI0
aI01
aI00
aI00
aI00
aI00
aI00
aI00
aI00
aa(lp584
I234378
aF302.19134285714284
aF172.213
ag581
aS'utopia'
p585
aS'#656565'
p586
aF8.88595
aI0
aI00
aI00
aI00
aI00
aI00
aI00
aI00
aI00
aa(lp587
I176767
aF308.227
aF172.213
aVp2
p588
aS'utopia'
p589
aS'#656565'
p590
aF8.88595
aI0
aI01
aI00
aI00
aI00
aI00
aI00
aI00
aI00
aa(lp591
I234378
aF350.436
aF172.213
aVp2
p592
aS'utopia'
p593
aS'#656565'
p594
aF8.88595
aI0
aI00
aI00
aI00
aI00
aI00
aI00
aI00
aI00
aa(lp595
I234378
aF354.879
aF172.213
aVp2
p596
aS'utopia'
p597
aS'#656565'
p598
aF8.88595
aI0
aI01
aI00
aI00
aI00
aI00
aI00
aI00
aI00
aa(lp599
I234378
aF398.06745454545455
aF172.213
ag596
aS'utopia'
p600
aS'#656565'
p601
aF8.88595
aI0
aI00
aI00
aI00
aI00
aI00
aI00
aI00
aI00
aa(lp602
I45445
aF404.492
aF172.213
aVp2
p603
aS'utopia'
p604
aS'#656565'
p605
aF8.88595
aI0
aI01
aI00
aI00
aI00
aI00
aI00
aI00
aI00
aa(lp606
I234378
aF432.631
aF172.213
aVp2
p607
aS'utopia'
p608
aS'#656565'
p609
aF8.88595
aI0
aI00
aI00
aI01
aI00
aI00
aI00
aI00
aI00
aa(lp610
I234378
aF444.38042499999995
aF172.213
ag607
aS'utopia'
p611
aS'#656565'
p612
aF8.88595
aI0
aI00
aI00
aI00
aI00
aI00
aI00
aI00
aI00
aa(lp613
I234378
aF450.403
aF172.213
aVp2
p614
aS'utopia'
p615
aS'#656565'
p616
aF8.88595
aI0
aI01
aI00
aI00
aI00
aI00
aI00
aI00
aI00
aa(lp617
I234378
aF475.8904857142857
aF172.213
ag614
aS'utopia'
p618
aS'#656565'
p619
aF8.88595
aI0
aI00
aI00
aI00
aI00
aI00
aI00
aI00
aI00
aa(lp620
I234378
aF482.244
aF172.213
aVp2
p621
aS'utopia'
p622
aS'#656565'
p623
aF8.88595
aI0
aI01
aI00
aI00
aI00
aI00
aI00
aI00
aI00
aa(lp624
I66756
aF502.978
aF172.213
aVp2
p625
aS'utopia'
p626
aS'#656565'
p627
aF8.88595
aI0
aI01
aI00
aI00
aI00
aI00
aI00
aI00
aI00
aa(lp628
I234378
aF547.2050583333333
aF172.213
ag625
aS'utopia'
p629
aS'#656565'
p630
aF8.88595
aI0
aI00
aI00
aI00
aI00
aI00
aI00
aI00
aI00
aa(lp631
I137949
aF40.9084
aF182.58
aVp2
p632
aS'utopia'
p633
aS'#656565'
p634
aF8.88595
aI0
aI01
aI00
aI00
aI00
aI00
aI00
aI00
aI00
aa(lp635
I233748
aF61.6423
aF182.58
aVp2
p636
aS'utopia'
p637
aS'#656565'
p638
aF8.88595
aI0
aI01
aI00
aI00
aI00
aI00
aI00
aI00
aI00
aa(lp639
I119502
aF111.256
aF182.58
aVp2
p640
aS'utopia'
p641
aS'#656565'
p642
aF8.88595
aI0
aI01
aI00
aI00
aI00
aI00
aI00
aI00
aI00
aa(lp643
I234378
aF141.616
aF182.58
aVp2
p644
aS'utopia'
p645
aS'#656565'
p646
aF8.88595
aI0
aI00
aI00
aI00
aI00
aI00
aI00
aI00
aI00
aa(lp647
I166593
aF177.9
aF182.58
aVp2
p648
aS'utopia'
p649
aS'#656565'
p650
aF8.88595
aI0
aI00
aI00
aI00
aI00
aI00
aI00
aI00
aI00
aa(lp651
I101862
aF184.565
aF182.58
aVp2
p652
aS'utopia'
p653
aS'#656565'
p654
aF8.88595
aI0
aI00
aI00
aI00
aI00
aI00
aI00
aI00
aI00
aa(lp655
I144489
aF197.894
aF182.58
aVp2
p656
aS'utopia'
p657
aS'#656565'
p658
aF8.88595
aI0
aI00
aI00
aI00
aI00
aI00
aI00
aI00
aI00
aa(lp659
I234378
aF208.26
aF182.58
aVp2
p660
aS'utopia'
p661
aS'#656565'
p662
aF8.88595
aI0
aI00
aI00
aI00
aI00
aI00
aI00
aI00
aI00
aa(lp663
I190806
aF241.583
aF182.58
aVp2
p664
aS'utopia'
p665
aS'#656565'
p666
aF8.88595
aI0
aI00
aI00
aI00
aI00
aI00
aI00
aI00
aI00
aa(lp667
I234378
aF255.652
aF182.58
aVp2
p668
aS'utopia'
p669
aS'#656565'
p670
aF8.88595
aI0
aI00
aI00
aI00
aI00
aI00
aI00
aI00
aI00
aa(lp671
I166593
aF299.341
aF182.58
aVp2
p672
aS'utopia'
p673
aS'#656565'
p674
aF8.88595
aI0
aI00
aI00
aI00
aI00
aI00
aI00
aI00
aI00
aa(lp675
I137949
aF306.006
aF182.58
aVp2
p676
aS'utopia'
p677
aS'#656565'
p678
aF8.88595
aI0
aI00
aI00
aI00
aI00
aI00
aI00
aI00
aI00
aa(lp679
I8691
aF325.259
aF182.58
aVp2
p680
aS'utopia'
p681
aS'#656565'
p682
aF8.88595
aI0
aI00
aI00
aI00
aI00
aI00
aI00
aI00
aI00
aa(lp683
I194354
aF352.657
aF182.58
aVp2
p684
aS'utopia'
p685
aS'#656565'
p686
aF8.88595
aI0
aI00
aI00
aI00
aI00
aI00
aI00
aI00
aI00
aa(lp687
I234378
aF367.467
aF182.58
aVp2
p688
aS'utopia'
p689
aS'#656565'
p690
aF8.88595
aI0
aI01
aI01
aI00
aI00
aI00
aI00
aI00
aI00
aa(lp691
I129342
aF394.865
aF182.58
aVp2
p692
aS'utopia'
p693
aS'#656565'
p694
aF8.88595
aI0
aI00
aI00
aI00
aI00
aI00
aI00
aI00
aI00
aa(lp695
I234378
aF427.8786
aF182.58
ag692
aS'utopia'
p696
aS'#656565'
p697
aF8.88595
aI0
aI00
aI00
aI00
aI00
aI00
aI00
aI00
aI00
aa(lp698
I194354
aF434.112
aF182.58
aVp2
p699
aS'utopia'
p700
aS'#656565'
p701
aF8.88595
aI0
aI01
aI00
aI00
aI00
aI00
aI00
aI00
aI00
aa(lp702
I234378
aF451.143
aF182.58
aVp2
p703
aS'utopia'
p704
aS'#656565'
p705
aF8.88595
aI0
aI00
aI00
aI00
aI00
aI00
aI00
aI00
aI00
aa(lp706
I233748
aF480.022
aF182.58
aVp2
p707
aS'utopia'
p708
aS'#656565'
p709
aF8.88595
aI0
aI00
aI00
aI00
aI00
aI00
aI00
aI00
aI00
aa(lp710
I123665
aF40.9084
aF192.947
aVp2
p711
aS'utopia'
p712
aS'#656565'
p713
aF8.88595
aI0
aI00
aI00
aI00
aI00
aI00
aI00
aI00
aI00
aa(lp714
I234378
aF86.8192
aF192.947
aVp2
p715
aS'utopia'
p716
aS'#656565'
p717
aF8.88595
aI0
aI00
aI00
aI00
aI00
aI00
aI00
aI00
aI00
aa(lp718
I46544
aF116.439
aF192.947
aVp2
p719
aS'utopia'
p720
aS'#656565'
p721
aF8.88595
aI0
aI00
aI00
aI00
aI00
aI00
aI00
aI00
aI00
aa(lp722
I233748
aF132.73
aF192.947
aVp2
p723
aS'utopia'
p724
aS'#656565'
p725
aF8.88595
aI0
aI00
aI00
aI00
aI00
aI00
aI00
aI00
aI00
aa(lp726
I119502
aF180.122
aF192.947
aVp2
p727
aS'utopia'
p728
aS'#656565'
p729
aF8.88595
aI0
aI00
aI00
aI00
aI00
aI00
aI00
aI00
aI00
aa(lp730
I89480
aF209.741
aF192.947
aVp2
p731
aS'utopia'
p732
aS'#656565'
p733
aF8.88595
aI0
aI00
aI00
aI00
aI00
aI00
aI00
aI00
aI00
aa(lp734
I179418
aF220.108
aF192.947
aVp2
p735
aS'utopia'
p736
aS'#656565'
p737
aF8.88595
aI0
aI00
aI00
aI00
aI00
aI00
aI00
aI00
aI00
aa(lp738
I38740
aF252.69
aF192.947
aVp2
p739
aS'utopia'
p740
aS'#656565'
p741
aF8.88595
aI0
aI00
aI00
aI00
aI00
aI00
aI00
aI00
aI00
aa(lp742
I233748
aF291.196
aF192.947
aVp2
p743
aS'utopia'
p744
aS'#656565'
p745
aF8.88595
aI0
aI00
aI00
aI00
aI00
aI00
aI00
aI00
aI00
aa(lp746
I234378
aF338.588
aF192.947
aVp2
p747
aS'utopia'
p748
aS'#656565'
p749
aF8.88595
aI0
aI00
aI00
aI00
aI00
aI00
aI00
aI00
aI00
aa(lp750
I234378
aF363.024
aF192.947
aVp2
p751
aS'utopia'
p752
aS'#656565'
p753
aF8.88595
aI0
aI00
aI00
aI00
aI00
aI00
aI00
aI00
aI00
aa(lp754
I234378
aF367.4911666666667
aF192.947
ag751
aS'utopia'
p755
aS'#656565'
p756
aF8.88595
aI0
aI00
aI00
aI00
aI00
aI00
aI00
aI00
aI00
aa(lp757
I169745
aF391.903
aF192.947
aVp2
p758
aS'utopia'
p759
aS'#656565'
p760
aF8.88595
aI0
aI00
aI00
aI00
aI00
aI00
aI00
aI00
aI00
aa(lp761
I183441
aF411.156
aF192.947
aVp2
p762
aS'utopia'
p763
aS'#656565'
p764
aF8.88595
aI0
aI00
aI00
aI00
aI00
aI00
aI00
aI00
aI00
aa(lp765
I137949
aF433.371
aF192.947
aVp2
p766
aS'utopia'
p767
aS'#656565'
p768
aF8.88595
aI0
aI00
aI00
aI00
aI00
aI00
aI00
aI00
aI00
aa(lp769
I127485
aF452.624
aF192.947
aVp2
p770
aS'utopia'
p771
aS'#656565'
p772
aF8.88595
aI0
aI00
aI00
aI00
aI00
aI00
aI00
aI00
aI00
aa(lp773
I234378
aF480.763
aF192.947
aVp2
p774
aS'utopia'
p775
aS'#656565'
p776
aF8.88595
aI0
aI00
aI00
aI00
aI00
aI00
aI00
aI00
aI00
aa(lp777
I234378
aF516.6499166666666
aF192.947
ag774
aS'utopia'
p778
aS'#656565'
p779
aF8.88595
aI0
aI00
aI00
aI00
aI00
aI00
aI00
aI00
aI00
aa(lp780
I234378
aF520.2386083333333
aF192.947
ag774
aS'utopia'
p781
aS'#656565'
p782
aF8.88595
aI0
aI00
aI00
aI00
aI00
aI00
aI00
aI00
aI00
aa(lp783
I218914
aF525.933
aF192.947
aVp2
p784
aS'utopia'
p785
aS'#656565'
p786
aF8.88595
aI0
aI00
aI00
aI00
aI00
aI00
aI00
aI00
aI00
aa(lp787
I33705
aF40.9084
aF203.314
aVp2
p788
aS'utopia'
p789
aS'#656565'
p790
aF8.88595
aI0
aI00
aI00
aI00
aI00
aI00
aI00
aI00
aI00
aa(lp791
I192638
aF57.1993
aF203.314
aVp2
p792
aS'utopia'
p793
aS'#656565'
p794
aF8.88595
aI0
aI00
aI00
aI00
aI00
aI00
aI00
aI00
aI00
aa(lp795
I25729
aF69.0473
aF203.314
aVp2
p796
aS'utopia'
p797
aS'#656565'
p798
aF8.88595
aI0
aI00
aI00
aI00
aI00
aI00
aI00
aI00
aI00
aa(lp799
I192651
aF89.7812
aF203.314
aVp2
p800
aS'utopia'
p801
aS'#656565'
p802
aF8.88595
aI0
aI00
aI00
aI00
aI00
aI00
aI00
aI00
aI00
aa(lp803
I177271
aF101.629
aF203.314
aVp2
p804
aS'utopia'
p805
aS'#656565'
p806
aF8.88595
aI0
aI00
aI00
aI00
aI00
aI00
aI00
aI00
aI00
aa(lp807
I234378
aF125.325
aF203.314
aVp2
p808
aS'utopia'
p809
aS'#656565'
p810
aF8.88595
aI0
aI01
aI01
aI00
aI00
aI00
aI00
aI00
aI00
aa(lp811
I166245
aF146.799
aF203.314
aVp2
p812
aS'utopia'
p813
aS'#656565'
p814
aF8.88595
aI0
aI00
aI00
aI00
aI00
aI00
aI00
aI00
aI00
aa(lp815
I234378
aF182.343
aF203.314
aVp2
p816
aS'utopia'
p817
aS'#656565'
p818
aF8.88595
aI0
aI00
aI00
aI00
aI00
aI00
aI00
aI00
aI00
aa(lp819
I234378
aF231.956
aF203.314
aVp2
p820
aS'utopia'
p821
aS'#656565'
p822
aF8.88595
aI0
aI01
aI00
aI00
aI00
aI00
aI00
aI00
aI00
aa(lp823
I234378
aF263.798
aF203.314
aVp2
p824
aS'utopia'
p825
aS'#656565'
p826
aF8.88595
aI0
aI00
aI00
aI00
aI00
aI00
aI00
aI00
aI00
aa(lp827
I234378
aF321.0556
aF203.314
ag824
aS'utopia'
p828
aS'#656565'
p829
aF8.88595
aI0
aI00
aI00
aI00
aI00
aI00
aI00
aI00
aI00
aa(lp830
I105322
aF326.74
aF203.314
aVp2
p831
aS'utopia'
p832
aS'#656565'
p833
aF8.88595
aI0
aI01
aI00
aI00
aI00
aI00
aI00
aI00
aI00
aa(lp834
I135639
aF363.024
aF203.314
aVp2
p835
aS'utopia'
p836
aS'#656565'
p837
aF8.88595
aI0
aI00
aI00
aI00
aI00
aI00
aI00
aI00
aI00
aa(lp838
I194354
aF372.651
aF203.314
aVp2
p839
aS'utopia'
p840
aS'#656565'
p841
aF8.88595
aI0
aI00
aI00
aI00
aI00
aI00
aI00
aI00
aI00
aa(lp842
I1109
aF387.46
aF203.314
aVp2
p843
aS'utopia'
p844
aS'#656565'
p845
aF8.88595
aI0
aI00
aI00
aI00
aI00
aI00
aI00
aI00
aI00
aa(lp846
I234378
aF425.966
aF203.314
aVp2
p847
aS'utopia'
p848
aS'#656565'
p849
aF8.88595
aI0
aI00
aI00
aI00
aI00
aI00
aI00
aI00
aI00
aa(lp850
I234378
aF459.0567272727273
aF203.314
ag847
aS'utopia'
p851
aS'#656565'
p852
aF8.88595
aI0
aI00
aI00
aI00
aI00
aI00
aI00
aI00
aI00
aa(lp853
I48565
aF464.472
aF203.314
aVp2
p854
aS'utopia'
p855
aS'#656565'
p856
aF8.88595
aI0
aI01
aI00
aI00
aI00
aI00
aI00
aI00
aI00
aa(lp857
I194354
aF497.054
aF203.314
aVp2
p858
aS'utopia'
p859
aS'#656565'
p860
aF8.88595
aI0
aI00
aI00
aI00
aI00
aI00
aI00
aI00
aI00
aa(lp861
I234378
aF40.9084
aF213.681
aVp2
p862
aS'utopia'
p863
aS'#656565'
p864
aF8.88595
aI0
aI00
aI00
aI00
aI00
aI00
aI00
aI00
aI00
aa(lp865
I85218
aF96.4456
aF213.681
aVp2
p866
aS'utopia'
p867
aS'#656565'
p868
aF8.88595
aI0
aI00
aI00
aI00
aI00
aI00
aI00
aI00
aI00
aa(lp869
I24205
aF113.477
aF213.681
aVp2
p870
aS'utopia'
p871
aS'#656565'
p872
aF8.88595
aI0
aI00
aI00
aI00
aI00
aI00
aI00
aI00
aI00
aa(lp873
I149270
aF140.135
aF213.681
aVp2
p874
aS'utopia'
p875
aS'#656565'
p876
aF8.88595
aI0
aI00
aI00
aI00
aI00
aI00
aI00
aI00
aI00
aa(lp877
I234378
aF177.9
aF213.681
aVp2
p878
aS'utopia'
p879
aS'#656565'
p880
aF8.88595
aI0
aI00
aI00
aI00
aI00
aI00
aI00
aI00
aI00
aa(lp881
I234378
aF233.437
aF213.681
aVp2
p882
aS'utopia'
p883
aS'#656565'
p884
aF8.88595
aI0
aI01
aI00
aI00
aI00
aI00
aI00
aI00
aI00
aa(lp885
I194354
aF277.867
aF213.681
aVp2
p886
aS'utopia'
p887
aS'#656565'
p888
aF8.88595
aI0
aI00
aI00
aI00
aI00
aI00
aI00
aI00
aI00
aa(lp889
I174268
aF292.677
aF213.681
aVp2
p890
aS'utopia'
p891
aS'#656565'
p892
aF8.88595
aI0
aI00
aI00
aI00
aI00
aI00
aI00
aI00
aI00
aa(lp893
I80364
aF323.778
aF213.681
aVp2
p894
aS'utopia'
p895
aS'#656565'
p896
aF8.88595
aI0
aI00
aI00
aI00
aI00
aI00
aI00
aI00
aI00
aa(lp897
I234378
aF342.29
aF213.681
aVp2
p898
aS'utopia'
p899
aS'#656565'
p900
aF8.88595
aI0
aI00
aI00
aI00
aI00
aI00
aI00
aI00
aI00
aa(lp901
I85218
aF397.827
aF213.681
aVp2
p902
aS'utopia'
p903
aS'#656565'
p904
aF8.88595
aI0
aI00
aI00
aI00
aI00
aI00
aI00
aI00
aI00
aa(lp905
I234378
aF414.859
aF213.681
aVp2
p906
aS'utopia'
p907
aS'#656565'
p908
aF8.88595
aI0
aI01
aI00
aI00
aI00
aI00
aI00
aI00
aI00
aa(lp909
I216993
aF475.579
aF213.681
aVp2
p910
aS'utopia'
p911
aS'#656565'
p912
aF8.88595
aI0
aI00
aI00
aI00
aI00
aI00
aI00
aI00
aI00
aa(lp913
I192651
aF498.535
aF213.681
aVp2
p914
aS'utopia'
p915
aS'#656565'
p916
aF8.88595
aI0
aI00
aI00
aI00
aI00
aI00
aI00
aI00
aI00
aa(lp917
I234378
aF510.383
aF213.681
aVp2
p918
aS'utopia'
p919
aS'#656565'
p920
aF8.88595
aI0
aI00
aI00
aI00
aI00
aI00
aI00
aI00
aI00
aa(lp921
I125458
aF40.9084
aF224.048
aVp2
p922
aS'utopia'
p923
aS'#656565'
p924
aF8.88595
aI0
aI01
aI00
aI00
aI00
aI00
aI00
aI00
aI00
aa(lp925
I149323
aF74.2307
aF224.048
aVp2
p926
aS'utopia'
p927
aS'#656565'
p928
aF8.88595
aI0
aI00
aI00
aI00
aI00
aI00
aI00
aI00
aI00
aa(lp929
I169745
aF116.439
aF224.048
aVp2
p930
aS'utopia'
p931
aS'#656565'
p932
aF8.88595
aI0
aI00
aI00
aI00
aI00
aI00
aI00
aI00
aI00
aa(lp933
I147316
aF135.692
aF224.048
aVp2
p934
aS'utopia'
p935
aS'#656565'
p936
aF8.88595
aI0
aI01
aI00
aI00
aI00
aI00
aI00
aI00
aI00
aa(lp937
I210461
aF169.755
aF224.048
aVp2
p938
aS'utopia'
p939
aS'#656565'
p940
aF8.88595
aI0
aI00
aI00
aI00
aI00
aI00
aI00
aI00
aI00
aa(lp941
I190806
aF191.97
aF224.048
aVp2
p942
aS'utopia'
p943
aS'#656565'
p944
aF8.88595
aI0
aI00
aI00
aI00
aI00
aI00
aI00
aI00
aI00
aa(lp945
I234378
aF206.039
aF224.048
aVp2
p946
aS'utopia'
p947
aS'#656565'
p948
aF8.88595
aI0
aI00
aI00
aI00
aI00
aI00
aI00
aI00
aI00
aa(lp949
I194354
aF243.804
aF224.048
aVp2
p950
aS'utopia'
p951
aS'#656565'
p952
aF8.88595
aI0
aI00
aI00
aI00
aI00
aI00
aI00
aI00
aI00
aa(lp953
I234378
aF258.614
aF224.048
aVp2
p954
aS'utopia'
p955
aS'#656565'
p956
aF8.88595
aI0
aI00
aI00
aI00
aI00
aI00
aI00
aI00
aI00
aa(lp957
I147288
aF288.975
aF224.048
aVp2
p958
aS'utopia'
p959
aS'#656565'
p960
aF8.88595
aI0
aI00
aI00
aI00
aI00
aI00
aI00
aI00
aI00
aa(lp961
I192651
aF314.892
aF224.048
aVp2
p962
aS'utopia'
p963
aS'#656565'
p964
aF8.88595
aI0
aI00
aI00
aI00
aI00
aI00
aI00
aI00
aI00
aa(lp965
I234378
aF326.74
aF224.048
aVp2
p966
aS'utopia'
p967
aS'#656565'
p968
aF8.88595
aI0
aI00
aI00
aI00
aI00
aI00
aI00
aI00
aI00
aa(lp969
I2737
aF40.9084
aF257.264
aVp2
p970
aS'utopia'
p971
aS'#000000'
p972
aF10.3669
aI1
aI01
aI00
aI00
aI00
aI00
aI00
aI00
aI00
aa(lp973
I234378
aF66.8258
aF257.264
aVp2
p974
aS'utopia'
p975
aS'#000000'
p976
aF10.3669
aI1
aI01
aI00
aI00
aI00
aI00
aI00
aI00
aI00
aa(lp977
I234378
aF117.18
aF257.264
aVp2
p978
aS'utopia'
p979
aS'#000000'
p980
aF10.3669
aI1
aI01
aI00
aI00
aI00
aI00
aI00
aI00
aI00
aa(lp981
I149270
aF40.9084
aF273.824
aVp2
p982
aS'utopia'
p983
aS'#656565'
p984
aF10.3669
aI0
aI01
aI00
aI00
aI00
aI00
aI00
aI00
aI00
aa(lp985
I11208
aF89.7812
aF273.824
aVp2
p986
aS'utopia'
p987
aS'#656565'
p988
aF10.3669
aI0
aI01
aI00
aI00
aI00
aI00
aI00
aI00
aI00
aa(lp989
I234378
aF140.135
aF273.824
aVp2
p990
aS'utopia'
p991
aS'#656565'
p992
aF10.3669
aI0
aI01
aI00
aI00
aI00
aI00
aI00
aI00
aI01
aa(lp993
I234378
aF159.388
aF273.824
aVp2
p994
aS'utopia'
p995
aS'#656565'
p996
aF10.3669
aI0
aI00
aI00
aI01
aI01
aI01
aI00
aI00
aI00
aa(lp997
I89480
aF182.343
aF273.824
aVp2
p998
aS'utopia'
p999
aS'#656565'
p1000
aF10.3669
aI0
aI01
aI00
aI00
aI00
aI00
aI00
aI00
aI00
aa(lp1001
I234378
aF197.153
aF273.824
aVp2
p1002
aS'utopia'
p1003
aS'#656565'
p1004
aF10.3669
aI0
aI01
aI00
aI00
aI00
aI00
aI00
aI00
aI01
aa(lp1005
I234378
aF218.627
aF273.824
aVp2
p1006
aS'utopia'
p1007
aS'#656565'
p1008
aF10.3669
aI0
aI00
aI00
aI01
aI01
aI01
aI00
aI00
aI00
aa(lp1009
I107562
aF40.9084
aF293.654
aVp2
p1010
aS'utopia'
p1011
aS'#656565'
p1012
aF8.88595
aI0
aI01
aI00
aI00
aI00
aI00
aI00
aI00
aI00
aa(lp1013
I234378
aF57.04873333333333
aF293.654
ag1010
aS'utopia'
p1014
aS'#656565'
p1015
aF8.88595
aI0
aI00
aI00
aI00
aI00
aI00
aI00
aI00
aI00
aa(lp1016
I63541
aF62.3828
aF293.654
aVp2
p1017
aS'utopia'
p1018
aS'#656565'
p1019
aF8.88595
aI0
aI01
aI01
aI00
aI00
aI00
aI00
aI00
aI00
aa(lp1020
I25931
aF83.8572
aF293.654
aVp2
p1021
aS'utopia'
p1022
aS'#656565'
p1023
aF8.88595
aI0
aI01
aI00
aI00
aI00
aI00
aI00
aI00
aI00
aa(lp1024
I234378
aF105.53640000000001
aF293.654
ag1021
aS'utopia'
p1025
aS'#656565'
p1026
aF8.88595
aI0
aI00
aI00
aI00
aI00
aI00
aI00
aI00
aI00
aa(lp1027
I234378
aF111.256
aF293.654
aVp2
p1028
aS'utopia'
p1029
aS'#656565'
p1030
aF8.88595
aI0
aI01
aI01
aI00
aI00
aI00
aI00
aI00
aI00
aa(lp1031
I234378
aF120.21893333333334
aF293.654
ag1028
aS'utopia'
p1032
aS'#656565'
p1033
aF8.88595
aI0
aI00
aI00
aI00
aI00
aI00
aI00
aI00
aI00
aa(lp1034
I234378
aF126.806
aF293.654
aVp2
p1035
aS'utopia'
p1036
aS'#656565'
p1037
aF8.88595
aI0
aI01
aI01
aI00
aI00
aI00
aI00
aI00
aI00
aa(lp1038
I129688
aF141.616
aF293.654
aVp2
p1039
aS'utopia'
p1040
aS'#656565'
p1041
aF8.88595
aI0
aI01
aI00
aI00
aI00
aI00
aI00
aI00
aI00
aa(lp1042
I234378
aF165.83405714285715
aF293.654
ag1039
aS'utopia'
p1043
aS'#656565'
p1044
aF8.88595
aI0
aI00
aI00
aI00
aI00
aI00
aI00
aI00
aI00
aa(lp1045
I137578
aF171.976
aF293.654
aVp2
p1046
aS'utopia'
p1047
aS'#656565'
p1048
aF8.88595
aI0
aI01
aI00
aI00
aI00
aI00
aI00
aI00
aI00
aa(lp1049
I234378
aF194.932
aF293.654
aVp2
p1050
aS'utopia'
p1051
aS'#656565'
p1052
aF8.88595
aI0
aI01
aI00
aI00
aI00
aI00
aI00
aI00
aI01
aa(lp1053
I234378
aF208.63594999999998
aF293.654
ag1050
aS'utopia'
p1054
aS'#656565'
p1055
aF8.88595
aI0
aI00
aI00
aI01
aI01
aI01
aI00
aI00
aI00
aa(lp1056
I129342
aF222.33
aF293.654
aVp2
p1057
aS'utopia'
p1058
aS'#656565'
p1059
aF8.88595
aI0
aI01
aI00
aI00
aI00
aI00
aI00
aI00
aI00
aa(lp1060
I234378
aF255.3436
aF293.654
ag1057
aS'utopia'
p1061
aS'#656565'
p1062
aF8.88595
aI0
aI00
aI00
aI00
aI00
aI00
aI00
aI00
aI00
aa(lp1063
I21716
aF261.576
aF293.654
aVp2
p1064
aS'utopia'
p1065
aS'#656565'
p1066
aF8.88595
aI0
aI01
aI00
aI00
aI00
aI00
aI00
aI00
aI00
aa(lp1067
I234378
aF280.089
aF293.654
aVp2
p1068
aS'utopia'
p1069
aS'#656565'
p1070
aF8.88595
aI0
aI00
aI00
aI01
aI01
aI00
aI00
aI00
aI00
aa(lp1071
I234378
aF283.47899
aF293.654
ag1068
aS'utopia'
p1072
aS'#656565'
p1073
aF8.88595
aI0
aI00
aI00
aI00
aI00
aI00
aI00
aI00
aI00
aa(lp1074
I148996
aF288.975
aF293.654
aVp2
p1075
aS'utopia'
p1076
aS'#656565'
p1077
aF8.88595
aI0
aI01
aI00
aI00
aI00
aI00
aI00
aI00
aI00
aa(lp1078
I234378
aF312.55834285714286
aF293.654
ag1075
aS'utopia'
p1079
aS'#656565'
p1080
aF8.88595
aI0
aI00
aI00
aI00
aI00
aI00
aI00
aI00
aI00
aa(lp1081
I234378
aF318.594
aF293.654
aVp2
p1082
aS'utopia'
p1083
aS'#656565'
p1084
aF8.88595
aI0
aI01
aI00
aI00
aI00
aI00
aI00
aI00
aI00
aa(lp1085
I234378
aF361.7824545454545
aF293.654
ag1082
aS'utopia'
p1086
aS'#656565'
p1087
aF8.88595
aI0
aI00
aI00
aI00
aI00
aI00
aI00
aI00
aI00
aa(lp1088
I176767
aF368.208
aF293.654
aVp2
p1089
aS'utopia'
p1090
aS'#656565'
p1091
aF8.88595
aI0
aI01
aI00
aI00
aI00
aI00
aI00
aI00
aI00
aa(lp1092
I234378
aF406.29942000000005
aF293.654
ag1089
aS'utopia'
p1093
aS'#656565'
p1094
aF8.88595
aI0
aI00
aI00
aI00
aI00
aI00
aI00
aI00
aI00
aa(lp1095
I234378
aF412.637
aF293.654
aVp2
p1096
aS'utopia'
p1097
aS'#656565'
p1098
aF8.88595
aI0
aI01
aI00
aI00
aI00
aI00
aI00
aI00
aI00
aa(lp1099
I234378
aF438.1244857142857
aF293.654
ag1096
aS'utopia'
p1100
aS'#656565'
p1101
aF8.88595
aI0
aI00
aI00
aI00
aI00
aI00
aI00
aI00
aI00
aa(lp1102
I234378
aF444.479
aF293.654
aVp2
p1103
aS'utopia'
p1104
aS'#656565'
p1105
aF8.88595
aI0
aI01
aI00
aI00
aI00
aI00
aI00
aI00
aI00
aa(lp1106
I234378
aF461.15852
aF293.654
ag1103
aS'utopia'
p1107
aS'#656565'
p1108
aF8.88595
aI0
aI00
aI00
aI00
aI00
aI00
aI00
aI00
aI00
aa(lp1109
I45445
aF467.434
aF293.654
aVp2
p1110
aS'utopia'
p1111
aS'#656565'
p1112
aF8.88595
aI0
aI01
aI00
aI00
aI00
aI00
aI00
aI00
aI00
aa(lp1113
I234378
aF491.6520571428572
aF293.654
ag1110
aS'utopia'
p1114
aS'#656565'
p1115
aF8.88595
aI0
aI00
aI00
aI00
aI00
aI00
aI00
aI00
aI00
aa(lp1116
I110786
aF497.794
aF293.654
aVp2
p1117
aS'utopia'
p1118
aS'#656565'
p1119
aF8.88595
aI0
aI01
aI00
aI00
aI00
aI00
aI00
aI00
aI00
aa(lp1120
I96642
aF40.9084
aF304.021
aVp2
p1121
aS'utopia'
p1122
aS'#656565'
p1123
aF8.88595
aI0
aI01
aI00
aI00
aI00
aI00
aI00
aI00
aI00
aa(lp1124
I234378
aF68.3068
aF304.021
aVp2
p1125
aS'utopia'
p1126
aS'#656565'
p1127
aF8.88595
aI0
aI00
aI00
aI01
aI01
aI00
aI00
aI00
aI00
aa(lp1128
I234378
aF72.0863
aF304.021
ag1125
aS'utopia'
p1129
aS'#656565'
p1130
aF8.88595
aI0
aI00
aI00
aI00
aI00
aI00
aI00
aI00
aI00
aa(lp1131
I234378
aF73.8658
aF304.021
ag1125
aS'utopia'
p1132
aS'#656565'
p1133
aF8.88595
aI0
aI00
aI00
aI01
aI01
aI00
aI00
aI00
aI00
aa(lp1134
I66756
aF81.6357
aF304.021
aVp2
p1135
aS'utopia'
p1136
aS'#656565'
p1137
aF8.88595
aI0
aI01
aI00
aI00
aI00
aI00
aI00
aI00
aI00
aa(lp1138
I234378
aF125.86275833333335
aF304.021
ag1135
aS'utopia'
p1139
aS'#656565'
p1140
aF8.88595
aI0
aI00
aI00
aI00
aI00
aI00
aI00
aI00
aI00
aa(lp1141
I194354
aF131.989
aF304.021
aVp2
p1142
aS'utopia'
p1143
aS'#656565'
p1144
aF8.88595
aI0
aI01
aI00
aI00
aI00
aI00
aI00
aI00
aI00
aa(lp1145
I177958
aF149.021
aF304.021
aVp2
p1146
aS'utopia'
p1147
aS'#656565'
p1148
aF8.88595
aI0
aI00
aI00
aI00
aI00
aI00
aI00
aI00
aI00
aa(lp1149
I234378
aF179.381
aF304.021
aVp2
p1150
aS'utopia'
p1151
aS'#656565'
p1152
aF8.88595
aI0
aI00
aI00
aI00
aI00
aI00
aI00
aI00
aI00
aa(lp1153
I89480
aF206.039
aF304.021
aVp2
p1154
aS'utopia'
p1155
aS'#656565'
p1156
aF8.88595
aI0
aI00
aI00
aI00
aI00
aI00
aI00
aI00
aI00
aa(lp1157
I120366
aF216.406
aF304.021
aVp2
p1158
aS'utopia'
p1159
aS'#656565'
p1160
aF8.88595
aI0
aI00
aI00
aI00
aI00
aI00
aI00
aI00
aI00
aa(lp1161
I16329
aF249.728
aF304.021
aVp2
p1162
aS'utopia'
p1163
aS'#656565'
p1164
aF8.88595
aI0
aI00
aI00
aI00
aI00
aI00
aI00
aI00
aI00
aa(lp1165
I123665
aF261.576
aF304.021
aVp2
p1166
aS'utopia'
p1167
aS'#656565'
p1168
aF8.88595
aI0
aI00
aI00
aI00
aI00
aI00
aI00
aI00
aI00
aa(lp1169
I89480
aF307.487
aF304.021
aVp2
p1170
aS'utopia'
p1171
aS'#656565'
p1172
aF8.88595
aI0
aI00
aI00
aI00
aI00
aI00
aI00
aI00
aI00
aa(lp1173
I123814
aF317.854
aF304.021
aVp2
p1174
aS'utopia'
p1175
aS'#656565'
p1176
aF8.88595
aI0
aI00
aI00
aI00
aI00
aI00
aI00
aI00
aI00
aa(lp1177
I194354
aF351.176
aF304.021
aVp2
p1178
aS'utopia'
p1179
aS'#656565'
p1180
aF8.88595
aI0
aI00
aI00
aI00
aI00
aI00
aI00
aI00
aI00
aa(lp1181
I234378
aF365.986
aF304.021
aVp2
p1182
aS'utopia'
p1183
aS'#656565'
p1184
aF8.88595
aI0
aI01
aI01
aI00
aI00
aI00
aI00
aI00
aI00
aa(lp1185
I118366
aF376.353
aF304.021
aVp2
p1186
aS'utopia'
p1187
aS'#656565'
p1188
aF8.88595
aI0
aI00
aI00
aI00
aI00
aI00
aI00
aI00
aI00
aa(lp1189
I122758
aF408.935
aF304.021
aVp2
p1190
aS'utopia'
p1191
aS'#656565'
p1192
aF8.88595
aI0
aI00
aI00
aI00
aI00
aI00
aI00
aI00
aI00
aa(lp1193
I190806
aF428.928
aF304.021
aVp2
p1194
aS'utopia'
p1195
aS'#656565'
p1196
aF8.88595
aI0
aI00
aI00
aI00
aI00
aI00
aI00
aI00
aI00
aa(lp1197
I194354
aF442.998
aF304.021
aVp2
p1198
aS'utopia'
p1199
aS'#656565'
p1200
aF8.88595
aI0
aI00
aI00
aI00
aI00
aI00
aI00
aI00
aI00
aa(lp1201
I195933
aF457.808
aF304.021
aVp2
p1202
aS'utopia'
p1203
aS'#656565'
p1204
aF8.88595
aI0
aI01
aI00
aI00
aI00
aI00
aI00
aI00
aI00
aa(lp1205
I40824
aF488.908
aF304.021
aVp2
p1206
aS'utopia'
p1207
aS'#656565'
p1208
aF8.88595
aI0
aI01
aI00
aI00
aI00
aI00
aI00
aI00
aI00
aa(lp1209
I234378
aF507.421
aF304.021
aVp2
p1210
aS'utopia'
p1211
aS'#656565'
p1212
aF8.88595
aI0
aI00
aI00
aI00
aI00
aI00
aI00
aI00
aI00
aa(lp1213
I233063
aF511.7092
aF304.021
ag1210
aS'utopia'
p1214
aS'#656565'
p1215
aF8.88595
aI0
aI01
aI01
aI00
aI00
aI00
aI00
aI00
aI00
aa(lp1216
I234378
aF516.9974
aF304.021
ag1210
aS'utopia'
p1217
aS'#656565'
p1218
aF8.88595
aI0
aI00
aI00
aI00
aI00
aI00
aI00
aI00
aI00
aa(lp1219
I119502
aF40.9084
aF314.388
aVp2
p1220
aS'utopia'
p1221
aS'#656565'
p1222
aF8.88595
aI0
aI01
aI00
aI00
aI00
aI00
aI00
aI00
aI00
aa(lp1223
I234378
aF67.574725
aF314.388
ag1220
aS'utopia'
p1224
aS'#656565'
p1225
aF8.88595
aI0
aI00
aI00
aI00
aI00
aI00
aI00
aI00
aI00
aa(lp1226
I22476
aF73.4902
aF314.388
aVp2
p1227
aS'utopia'
p1228
aS'#656565'
p1229
aF8.88595
aI0
aI01
aI00
aI00
aI00
aI00
aI00
aI00
aI00
aa(lp1230
I234378
aF81.6357
aF314.388
aVp2
p1231
aS'utopia'
p1232
aS'#656565'
p1233
aF8.88595
aI0
aI00
aI00
aI00
aI00
aI00
aI00
aI00
aI00
aa(lp1234
I39932
aF97.1861
aF314.388
aVp2
p1235
aS'utopia'
p1236
aS'#656565'
p1237
aF8.88595
aI0
aI00
aI00
aI00
aI00
aI00
aI00
aI00
aI00
aa(lp1238
I234378
aF118.66
aF314.388
aVp2
p1239
aS'utopia'
p1240
aS'#656565'
p1241
aF8.88595
aI0
aI00
aI00
aI00
aI00
aI00
aI00
aI00
aI00
aa(lp1242
I108725
aF156.426
aF314.388
aVp2
p1243
aS'utopia'
p1244
aS'#656565'
p1245
aF8.88595
aI0
aI00
aI00
aI00
aI00
aI00
aI00
aI00
aI00
aa(lp1246
I234378
aF180.122
aF314.388
aVp2
p1247
aS'utopia'
p1248
aS'#656565'
p1249
aF8.88595
aI0
aI00
aI00
aI00
aI00
aI00
aI00
aI00
aI00
aa(lp1250
I192651
aF220.849
aF314.388
aVp2
p1251
aS'utopia'
p1252
aS'#656565'
p1253
aF8.88595
aI0
aI00
aI00
aI00
aI00
aI00
aI00
aI00
aI00
aa(lp1254
I225172
aF232.697
aF314.388
aVp2
p1255
aS'utopia'
p1256
aS'#656565'
p1257
aF8.88595
aI0
aI01
aI01
aI00
aI00
aI00
aI00
aI00
aI00
aa(lp1258
I190806
aF254.171
aF314.388
aVp2
p1259
aS'utopia'
p1260
aS'#656565'
p1261
aF8.88595
aI0
aI00
aI00
aI00
aI00
aI00
aI00
aI00
aI00
aa(lp1262
I194354
aF268.241
aF314.388
aVp2
p1263
aS'utopia'
p1264
aS'#656565'
p1265
aF8.88595
aI0
aI00
aI00
aI00
aI00
aI00
aI00
aI00
aI00
aa(lp1266
I233063
aF283.051
aF314.388
aVp2
p1267
aS'utopia'
p1268
aS'#656565'
p1269
aF8.88595
aI0
aI01
aI01
aI00
aI00
aI00
aI00
aI00
aI00
aa(lp1270
I119502
aF296.379
aF314.388
aVp2
p1271
aS'utopia'
p1272
aS'#656565'
p1273
aF8.88595
aI0
aI01
aI00
aI00
aI00
aI00
aI00
aI00
aI00
aa(lp1274
I234378
aF323.04532500000005
aF314.388
ag1271
aS'utopia'
p1275
aS'#656565'
p1276
aF8.88595
aI0
aI00
aI00
aI00
aI00
aI00
aI00
aI00
aI00
aa(lp1277
I63541
aF328.961
aF314.388
aVp2
p1278
aS'utopia'
p1279
aS'#656565'
p1280
aF8.88595
aI0
aI01
aI01
aI00
aI00
aI00
aI00
aI00
aI00
aa(lp1281
I234378
aF350.436
aF314.388
aVp2
p1282
aS'utopia'
p1283
aS'#656565'
p1284
aF8.88595
aI0
aI00
aI00
aI00
aI00
aI00
aI00
aI00
aI00
aa(lp1285
I177449
aF380.056
aF314.388
aVp2
p1286
aS'utopia'
p1287
aS'#656565'
p1288
aF8.88595
aI0
aI00
aI00
aI00
aI00
aI00
aI00
aI00
aI00
aa(lp1289
I118366
aF403.011
aF314.388
aVp2
p1290
aS'utopia'
p1291
aS'#656565'
p1292
aF8.88595
aI0
aI00
aI00
aI00
aI00
aI00
aI00
aI00
aI00
aa(lp1293
I234378
aF435.593
aF314.388
aVp2
p1294
aS'utopia'
p1295
aS'#656565'
p1296
aF8.88595
aI0
aI00
aI00
aI00
aI00
aI00
aI00
aI00
aI00
aa(lp1297
I89480
aF462.991
aF314.388
aVp2
p1298
aS'utopia'
p1299
aS'#656565'
p1300
aF8.88595
aI0
aI00
aI00
aI00
aI00
aI00
aI00
aI00
aI00
aa(lp1301
I234378
aF473.358
aF314.388
aVp2
p1302
aS'utopia'
p1303
aS'#656565'
p1304
aF8.88595
aI0
aI01
aI00
aI00
aI00
aI00
aI00
aI00
aI00
aa(lp1305
I131049
aF497.054
aF314.388
aVp2
p1306
aS'utopia'
p1307
aS'#656565'
p1308
aF8.88595
aI0
aI00
aI00
aI00
aI00
aI00
aI00
aI00
aI00
aa(lp1309
I194354
aF519.269
aF314.388
aVp2
p1310
aS'utopia'
p1311
aS'#656565'
p1312
aF8.88595
aI0
aI00
aI00
aI00
aI00
aI00
aI00
aI00
aI00
aa(lp1313
I234378
aF40.9084
aF324.755
aVp2
p1314
aS'utopia'
p1315
aS'#656565'
p1316
aF8.88595
aI0
aI00
aI00
aI00
aI00
aI00
aI00
aI00
aI00
aa(lp1317
I118366
aF66.0853
aF324.755
aVp2
p1318
aS'utopia'
p1319
aS'#656565'
p1320
aF8.88595
aI0
aI00
aI00
aI00
aI00
aI00
aI00
aI00
aI00
aa(lp1321
I234378
aF98.6671
aF324.755
aVp2
p1322
aS'utopia'
p1323
aS'#656565'
p1324
aF8.88595
aI0
aI00
aI00
aI00
aI00
aI00
aI00
aI00
aI00
aa(lp1325
I234378
aF126.065
aF324.755
aVp2
p1326
aS'utopia'
p1327
aS'#656565'
p1328
aF8.88595
aI0
aI00
aI00
aI00
aI00
aI00
aI00
aI00
aI00
aa(lp1329
I144483
aF163.831
aF324.755
aVp2
p1330
aS'utopia'
p1331
aS'#656565'
p1332
aF8.88595
aI0
aI00
aI00
aI00
aI00
aI00
aI00
aI00
aI00
aa(lp1333
I24385
aF176.419
aF324.755
aVp2
p1334
aS'utopia'
p1335
aS'#656565'
p1336
aF8.88595
aI0
aI00
aI00
aI00
aI00
aI00
aI00
aI00
aI00
aa(lp1337
I9657
aF191.97
aF324.755
aVp2
p1338
aS'utopia'
p1339
aS'#656565'
p1340
aF8.88595
aI0
aI01
aI00
aI00
aI00
aI00
aI00
aI00
aI00
aa(lp1341
I144489
aF214.925
aF324.755
aVp2
p1342
aS'utopia'
p1343
aS'#656565'
p1344
aF8.88595
aI0
aI00
aI00
aI00
aI00
aI00
aI00
aI00
aI00
aa(lp1345
I55406
aF225.292
aF324.755
aVp2
p1346
aS'utopia'
p1347
aS'#656565'
p1348
aF8.88595
aI0
aI01
aI00
aI00
aI00
aI00
aI00
aI00
aI00
aa(lp1349
I234378
aF263.057
aF324.755
aVp2
p1350
aS'utopia'
p1351
aS'#656565'
p1352
aF8.88595
aI0
aI00
aI00
aI00
aI00
aI00
aI00
aI00
aI00
aa(lp1353
I41539
aF267.37616
aF324.755
ag1350
aS'utopia'
p1354
aS'#656565'
p1355
aF8.88595
aI0
aI01
aI00
aI00
aI00
aI00
aI00
aI00
aI00
aa(lp1356
I234378
aF280.33364
aF324.755
ag1350
aS'utopia'
p1357
aS'#656565'
p1358
aF8.88595
aI0
aI00
aI00
aI00
aI00
aI00
aI00
aI00
aI00
aa(lp1359
I164516
aF286.753
aF324.755
aVp2
p1360
aS'utopia'
p1361
aS'#656565'
p1362
aF8.88595
aI0
aI00
aI00
aI00
aI00
aI00
aI00
aI00
aI00
aa(lp1363
I234378
aF304.7445833333333
aF324.755
ag1360
aS'utopia'
p1364
aS'#656565'
p1365
aF8.88595
aI0
aI00
aI00
aI00
aI00
aI00
aI00
aI00
aI00
aa(lp1366
I194354
aF310.449
aF324.755
aVp2
p1367
aS'utopia'
p1368
aS'#656565'
p1369
aF8.88595
aI0
aI01
aI00
aI00
aI00
aI00
aI00
aI00
aI00
aa(lp1370
I41539
aF327.48
aF324.755
aVp2
p1371
aS'utopia'
p1372
aS'#656565'
p1373
aF8.88595
aI0
aI01
aI00
aI00
aI00
aI00
aI00
aI00
aI00
aa(lp1374
I118366
aF345.252
aF324.755
aVp2
p1375
aS'utopia'
p1376
aS'#656565'
p1377
aF8.88595
aI0
aI00
aI00
aI00
aI00
aI00
aI00
aI00
aI00
aa(lp1378
I234378
aF377.834
aF324.755
aVp2
p1379
aS'utopia'
p1380
aS'#656565'
p1381
aF8.88595
aI0
aI00
aI00
aI00
aI00
aI00
aI00
aI00
aI00
aa(lp1382
I84932
aF405.232
aF324.755
aVp2
p1383
aS'utopia'
p1384
aS'#656565'
p1385
aF8.88595
aI0
aI00
aI00
aI00
aI00
aI00
aI00
aI00
aI00
aa(lp1386
I97333
aF420.042
aF324.755
aVp2
p1387
aS'utopia'
p1388
aS'#656565'
p1389
aF8.88595
aI0
aI00
aI00
aI00
aI00
aI00
aI00
aI00
aI00
aa(lp1390
I144483
aF465.213
aF324.755
aVp2
p1391
aS'utopia'
p1392
aS'#656565'
p1393
aF8.88595
aI0
aI00
aI00
aI00
aI00
aI00
aI00
aI00
aI00
aa(lp1394
I166593
aF477.801
aF324.755
aVp2
p1395
aS'utopia'
p1396
aS'#656565'
p1397
aF8.88595
aI0
aI00
aI00
aI00
aI00
aI00
aI00
aI00
aI00
aa(lp1398
I24385
aF484.465
aF324.755
aVp2
p1399
aS'utopia'
p1400
aS'#656565'
p1401
aF8.88595
aI0
aI00
aI00
aI00
aI00
aI00
aI00
aI00
aI00
aa(lp1402
I109318
aF500.016
aF324.755
aVp2
p1403
aS'utopia'
p1404
aS'#656565'
p1405
aF8.88595
aI0
aI00
aI00
aI00
aI00
aI00
aI00
aI00
aI00
aa(lp1406
I164516
aF521.49
aF324.755
aVp2
p1407
aS'utopia'
p1408
aS'#656565'
p1409
aF8.88595
aI0
aI00
aI00
aI00
aI00
aI00
aI00
aI00
aI00
aa(lp1410
I131049
aF40.9084
aF335.122
aVp2
p1411
aS'utopia'
p1412
aS'#656565'
p1413
aF8.88595
aI0
aI00
aI00
aI00
aI00
aI00
aI00
aI00
aI00
aa(lp1414
I194354
aF63.1233
aF335.122
aVp2
p1415
aS'utopia'
p1416
aS'#656565'
p1417
aF8.88595
aI0
aI00
aI00
aI00
aI00
aI00
aI00
aI00
aI00
aa(lp1418
I70370
aF77.9332
aF335.122
aVp2
p1419
aS'utopia'
p1420
aS'#656565'
p1421
aF8.88595
aI0
aI00
aI00
aI00
aI00
aI00
aI00
aI00
aI00
aa(lp1422
I118366
aF106.813
aF335.122
aVp2
p1423
aS'utopia'
p1424
aS'#656565'
p1425
aF8.88595
aI0
aI00
aI00
aI00
aI00
aI00
aI00
aI00
aI00
aa(lp1426
I16126
aF139.394
aF335.122
aVp2
p1427
aS'utopia'
p1428
aS'#656565'
p1429
aF8.88595
aI0
aI00
aI00
aI00
aI00
aI00
aI00
aI00
aI00
aa(lp1430
I190806
aF180.122
aF335.122
aVp2
p1431
aS'utopia'
p1432
aS'#656565'
p1433
aF8.88595
aI0
aI00
aI00
aI00
aI00
aI00
aI00
aI00
aI00
aa(lp1434
I194354
aF194.191
aF335.122
aVp2
p1435
aS'utopia'
p1436
aS'#656565'
p1437
aF8.88595
aI0
aI00
aI00
aI00
aI00
aI00
aI00
aI00
aI00
aa(lp1438
I233063
aF209.001
aF335.122
aVp2
p1439
aS'utopia'
p1440
aS'#656565'
p1441
aF8.88595
aI0
aI01
aI01
aI00
aI00
aI00
aI00
aI00
aI00
aa(lp1442
I119502
aF222.33
aF335.122
aVp2
p1443
aS'utopia'
p1444
aS'#656565'
p1445
aF8.88595
aI0
aI00
aI00
aI00
aI00
aI00
aI00
aI00
aI00
aa(lp1446
I234378
aF248.348475
aF335.122
ag1443
aS'utopia'
p1447
aS'#656565'
p1448
aF8.88595
aI0
aI00
aI00
aI00
aI00
aI00
aI00
aI00
aI00
aa(lp1449
I194354
aF254.171
aF335.122
aVp2
p1450
aS'utopia'
p1451
aS'#656565'
p1452
aF8.88595
aI0
aI01
aI00
aI00
aI00
aI00
aI00
aI00
aI00
aa(lp1453
I63541
aF271.203
aF335.122
aVp2
p1454
aS'utopia'
p1455
aS'#656565'
p1456
aF8.88595
aI0
aI01
aI01
aI00
aI00
aI00
aI00
aI00
aI00
aa(lp1457
I234378
aF292.677
aF335.122
aVp2
p1458
aS'utopia'
p1459
aS'#656565'
p1460
aF8.88595
aI0
aI00
aI00
aI00
aI00
aI00
aI00
aI00
aI00
aa(lp1461
I194354
aF331.183
aF335.122
aVp2
p1462
aS'utopia'
p1463
aS'#656565'
p1464
aF8.88595
aI0
aI00
aI00
aI00
aI00
aI00
aI00
aI00
aI00
aa(lp1465
I70370
aF345.993
aF335.122
aVp2
p1466
aS'utopia'
p1467
aS'#656565'
p1468
aF8.88595
aI0
aI00
aI00
aI00
aI00
aI00
aI00
aI00
aI00
aa(lp1469
I61195
aF374.872
aF335.122
aVp2
p1470
aS'utopia'
p1471
aS'#656565'
p1472
aF8.88595
aI0
aI00
aI00
aI00
aI00
aI00
aI00
aI00
aI00
aa(lp1473
I131049
aF407.454
aF335.122
aVp2
p1474
aS'utopia'
p1475
aS'#656565'
p1476
aF8.88595
aI0
aI00
aI00
aI00
aI00
aI00
aI00
aI00
aI00
aa(lp1477
I118366
aF429.669
aF335.122
aVp2
p1478
aS'utopia'
p1479
aS'#656565'
p1480
aF8.88595
aI0
aI00
aI00
aI00
aI00
aI00
aI00
aI00
aI00
aa(lp1481
I16126
aF462.251
aF335.122
aVp2
p1482
aS'utopia'
p1483
aS'#656565'
p1484
aF8.88595
aI0
aI00
aI00
aI00
aI00
aI00
aI00
aI00
aI00
aa(lp1485
I190806
aF502.978
aF335.122
aVp2
p1486
aS'utopia'
p1487
aS'#656565'
p1488
aF8.88595
aI0
aI00
aI00
aI00
aI00
aI00
aI00
aI00
aI00
aa(lp1489
I194354
aF517.047
aF335.122
aVp2
p1490
aS'utopia'
p1491
aS'#656565'
p1492
aF8.88595
aI0
aI00
aI00
aI00
aI00
aI00
aI00
aI00
aI00
aa(lp1493
I119502
aF40.9084
aF345.489
aVp2
p1494
aS'utopia'
p1495
aS'#656565'
p1496
aF8.88595
aI0
aI00
aI00
aI00
aI00
aI00
aI00
aI00
aI00
aa(lp1497
I89480
aF70.5283
aF345.489
aVp2
p1498
aS'utopia'
p1499
aS'#656565'
p1500
aF8.88595
aI0
aI00
aI00
aI00
aI00
aI00
aI00
aI00
aI00
aa(lp1501
I194354
aF80.8952
aF345.489
aVp2
p1502
aS'utopia'
p1503
aS'#656565'
p1504
aF8.88595
aI0
aI00
aI00
aI00
aI00
aI00
aI00
aI00
aI00
aa(lp1505
I29352
aF95.7051
aF345.489
aVp2
p1506
aS'utopia'
p1507
aS'#656565'
p1508
aF8.88595
aI0
aI00
aI00
aI00
aI00
aI00
aI00
aI00
aI00
aa(lp1509
I144489
aF142.356
aF345.489
aVp2
p1510
aS'utopia'
p1511
aS'#656565'
p1512
aF8.88595
aI0
aI00
aI00
aI00
aI00
aI00
aI00
aI00
aI00
aa(lp1513
I145945
aF152.723
aF345.489
aVp2
p1514
aS'utopia'
p1515
aS'#656565'
p1516
aF8.88595
aI0
aI00
aI00
aI00
aI00
aI00
aI00
aI00
aI00
aa(lp1517
I234378
aF193.451
aF345.489
aVp2
p1518
aS'utopia'
p1519
aS'#656565'
p1520
aF8.88595
aI0
aI00
aI00
aI01
aI01
aI01
aI00
aI00
aI00
aa(lp1521
I118366
aF203.06977999999998
aF345.489
ag1518
aS'utopia'
p1522
aS'#656565'
p1523
aF8.88595
aI0
aI00
aI00
aI00
aI00
aI00
aI00
aI00
aI00
aa(lp1524
I49897
aF238.621
aF345.489
aVp2
p1525
aS'utopia'
p1526
aS'#656565'
p1527
aF8.88595
aI0
aI00
aI00
aI00
aI00
aI00
aI00
aI00
aI00
aa(lp1528
I89480
aF262.317
aF345.489
aVp2
p1529
aS'utopia'
p1530
aS'#656565'
p1531
aF8.88595
aI0
aI00
aI00
aI00
aI00
aI00
aI00
aI00
aI00
aa(lp1532
I194354
aF272.684
aF345.489
aVp2
p1533
aS'utopia'
p1534
aS'#656565'
p1535
aF8.88595
aI0
aI00
aI00
aI00
aI00
aI00
aI00
aI00
aI00
aa(lp1536
I234378
aF287.494
aF345.489
aVp2
p1537
aS'utopia'
p1538
aS'#656565'
p1539
aF8.88595
aI0
aI01
aI00
aI00
aI00
aI00
aI00
aI00
aI00
aa(lp1540
I234378
aF306.54312000000004
aF345.489
ag1537
aS'utopia'
p1541
aS'#656565'
p1542
aF8.88595
aI0
aI00
aI00
aI00
aI00
aI00
aI00
aI00
aI00
aa(lp1543
I22476
aF313.411
aF345.489
aVp2
p1544
aS'utopia'
p1545
aS'#656565'
p1546
aF8.88595
aI0
aI01
aI00
aI00
aI00
aI00
aI00
aI00
aI00
aa(lp1547
I22474
aF321.556
aF345.489
aVp2
p1548
aS'utopia'
p1549
aS'#656565'
p1550
aF8.88595
aI0
aI00
aI00
aI00
aI00
aI00
aI00
aI00
aI00
aa(lp1551
I173426
aF329.702
aF345.489
aVp2
p1552
aS'utopia'
p1553
aS'#656565'
p1554
aF8.88595
aI0
aI00
aI00
aI00
aI00
aI00
aI00
aI00
aI00
aa(lp1555
I89480
aF366.727
aF345.489
aVp2
p1556
aS'utopia'
p1557
aS'#656565'
p1558
aF8.88595
aI0
aI00
aI00
aI00
aI00
aI00
aI00
aI00
aI00
aa(lp1559
I123814
aF377.094
aF345.489
aVp2
p1560
aS'utopia'
p1561
aS'#656565'
p1562
aF8.88595
aI0
aI00
aI00
aI00
aI00
aI00
aI00
aI00
aI00
aa(lp1563
I234378
aF410.416
aF345.489
aVp2
p1564
aS'utopia'
p1565
aS'#656565'
p1566
aF8.88595
aI0
aI00
aI00
aI00
aI00
aI00
aI00
aI00
aI00
aa(lp1567
I144489
aF434.112
aF345.489
aVp2
p1568
aS'utopia'
p1569
aS'#656565'
p1570
aF8.88595
aI0
aI00
aI00
aI00
aI00
aI00
aI00
aI00
aI00
aa(lp1571
I234378
aF444.479
aF345.489
aVp2
p1572
aS'utopia'
p1573
aS'#656565'
p1574
aF8.88595
aI0
aI01
aI01
aI00
aI00
aI00
aI00
aI00
aI00
aa(lp1575
I234378
aF454.846
aF345.489
aVp2
p1576
aS'utopia'
p1577
aS'#656565'
p1578
aF8.88595
aI0
aI00
aI00
aI00
aI00
aI00
aI00
aI00
aI00
aa(lp1579
I234378
aF495.573
aF345.489
aVp2
p1580
aS'utopia'
p1581
aS'#656565'
p1582
aF8.88595
aI0
aI00
aI00
aI00
aI00
aI00
aI00
aI00
aI00
aa(lp1583
I144483
aF540.743
aF345.489
aVp2
p1584
aS'utopia'
p1585
aS'#656565'
p1586
aF8.88595
aI0
aI00
aI00
aI00
aI00
aI00
aI00
aI00
aI00
aa(lp1587
I234378
aF40.9084
aF355.856
aVp2
p1588
aS'utopia'
p1589
aS'#656565'
p1590
aF8.88595
aI0
aI01
aI01
aI00
aI00
aI00
aI00
aI00
aI00
aa(lp1591
I59734
aF50.49665
aF355.856
ag1588
aS'utopia'
p1592
aS'#656565'
p1593
aF8.88595
aI0
aI00
aI00
aI00
aI00
aI00
aI00
aI00
aI00
aa(lp1594
I234378
aF60.1613
aF355.856
aVp2
p1595
aS'utopia'
p1596
aS'#656565'
p1597
aF8.88595
aI0
aI00
aI00
aI00
aI00
aI00
aI00
aI00
aI00
aa(lp1598
I223466
aF106.072
aF355.856
aVp2
p1599
aS'utopia'
p1600
aS'#656565'
p1601
aF8.88595
aI0
aI00
aI00
aI00
aI00
aI00
aI00
aI00
aI00
aa(lp1602
I135639
aF140.875
aF355.856
aVp2
p1603
aS'utopia'
p1604
aS'#656565'
p1605
aF8.88595
aI0
aI00
aI00
aI00
aI00
aI00
aI00
aI00
aI00
aa(lp1606
I164851
aF150.502
aF355.856
aVp2
p1607
aS'utopia'
p1608
aS'#656565'
p1609
aF8.88595
aI0
aI00
aI00
aI00
aI00
aI00
aI00
aI00
aI00
aa(lp1610
I89480
aF174.938
aF355.856
aVp2
p1611
aS'utopia'
p1612
aS'#656565'
p1613
aF8.88595
aI0
aI00
aI00
aI00
aI00
aI00
aI00
aI00
aI00
aa(lp1614
I147316
aF185.305
aF355.856
aVp2
p1615
aS'utopia'
p1616
aS'#656565'
p1617
aF8.88595
aI0
aI00
aI00
aI00
aI00
aI00
aI00
aI00
aI00
aa(lp1618
I194354
aF218.627
aF355.856
aVp2
p1619
aS'utopia'
p1620
aS'#656565'
p1621
aF8.88595
aI0
aI00
aI00
aI00
aI00
aI00
aI00
aI00
aI00
aa(lp1622
I195933
aF233.437
aF355.856
aVp2
p1623
aS'utopia'
p1624
aS'#656565'
p1625
aF8.88595
aI0
aI00
aI00
aI00
aI00
aI00
aI00
aI00
aI00
aa(lp1626
I119502
aF268.241
aF355.856
aVp2
p1627
aS'utopia'
p1628
aS'#656565'
p1629
aF8.88595
aI0
aI00
aI00
aI00
aI00
aI00
aI00
aI00
aI00
aa(lp1630
I234378
aF294.259475
aF355.856
ag1627
aS'utopia'
p1631
aS'#656565'
p1632
aF8.88595
aI0
aI00
aI00
aI00
aI00
aI00
aI00
aI00
aI00
aa(lp1633
I194354
aF300.082
aF355.856
aVp2
p1634
aS'utopia'
p1635
aS'#656565'
p1636
aF8.88595
aI0
aI01
aI00
aI00
aI00
aI00
aI00
aI00
aI00
aa(lp1637
I123665
aF317.113
aF355.856
aVp2
p1638
aS'utopia'
p1639
aS'#656565'
p1640
aF8.88595
aI0
aI00
aI00
aI00
aI00
aI00
aI00
aI00
aI00
aa(lp1641
I85582
aF363.024
aF355.856
aVp2
p1642
aS'utopia'
p1643
aS'#656565'
p1644
aF8.88595
aI0
aI00
aI00
aI00
aI00
aI00
aI00
aI00
aI00
aa(lp1645
I194354
aF400.789
aF355.856
aVp2
p1646
aS'utopia'
p1647
aS'#656565'
p1648
aF8.88595
aI0
aI00
aI00
aI00
aI00
aI00
aI00
aI00
aI00
aa(lp1649
I23621
aF415.599
aF355.856
aVp2
p1650
aS'utopia'
p1651
aS'#656565'
p1652
aF8.88595
aI0
aI00
aI00
aI00
aI00
aI00
aI00
aI00
aI00
aa(lp1653
I122758
aF447.441
aF355.856
aVp2
p1654
aS'utopia'
p1655
aS'#656565'
p1656
aF8.88595
aI0
aI00
aI00
aI00
aI00
aI00
aI00
aI00
aI00
aa(lp1657
I144489
aF467.434
aF355.856
aVp2
p1658
aS'utopia'
p1659
aS'#656565'
p1660
aF8.88595
aI0
aI00
aI00
aI00
aI00
aI00
aI00
aI00
aI00
aa(lp1661
I234378
aF477.801
aF355.856
aVp2
p1662
aS'utopia'
p1663
aS'#656565'
p1664
aF8.88595
aI0
aI00
aI00
aI00
aI00
aI00
aI00
aI00
aI00
aa(lp1665
I144483
aF518.528
aF355.856
aVp2
p1666
aS'utopia'
p1667
aS'#656565'
p1668
aF8.88595
aI0
aI00
aI00
aI00
aI00
aI00
aI00
aI00
aI00
aa(lp1669
I166593
aF531.117
aF355.856
aVp2
p1670
aS'utopia'
p1671
aS'#656565'
p1672
aF8.88595
aI0
aI00
aI00
aI00
aI00
aI00
aI00
aI00
aI00
aa(lp1673
I234378
aF40.9084
aF366.223
aVp2
p1674
aS'utopia'
p1675
aS'#656565'
p1676
aF8.88595
aI0
aI01
aI01
aI00
aI00
aI00
aI00
aI00
aI00
aa(lp1677
I188043
aF65.3448
aF366.223
aVp2
p1678
aS'utopia'
p1679
aS'#656565'
p1680
aF8.88595
aI0
aI00
aI00
aI00
aI00
aI00
aI00
aI00
aI00
aa(lp1681
I22476
aF89.0407
aF366.223
aVp2
p1682
aS'utopia'
p1683
aS'#656565'
p1684
aF8.88595
aI0
aI00
aI00
aI00
aI00
aI00
aI00
aI00
aI00
aa(lp1685
I22474
aF96.4456
aF366.223
aVp2
p1686
aS'utopia'
p1687
aS'#656565'
p1688
aF8.88595
aI0
aI00
aI00
aI00
aI00
aI00
aI00
aI00
aI00
aa(lp1689
I174282
aF104.591
aF366.223
aVp2
p1690
aS'utopia'
p1691
aS'#656565'
p1692
aF8.88595
aI0
aI00
aI00
aI00
aI00
aI00
aI00
aI00
aI00
aa(lp1693
I234378
aF134.951
aF366.223
aVp2
p1694
aS'utopia'
p1695
aS'#656565'
p1696
aF8.88595
aI0
aI00
aI00
aI00
aI00
aI00
aI00
aI00
aI00
aa(lp1697
I15726
aF173.457
aF366.223
aVp2
p1698
aS'utopia'
p1699
aS'#656565'
p1700
aF8.88595
aI0
aI00
aI00
aI00
aI00
aI00
aI00
aI00
aI00
aa(lp1701
I194354
aF191.229
aF366.223
aVp2
p1702
aS'utopia'
p1703
aS'#656565'
p1704
aF8.88595
aI0
aI00
aI00
aI00
aI00
aI00
aI00
aI00
aI00
aa(lp1705
I223466
aF206.039
aF366.223
aVp2
p1706
aS'utopia'
p1707
aS'#656565'
p1708
aF8.88595
aI0
aI00
aI00
aI00
aI00
aI00
aI00
aI00
aI00
aa(lp1709
I234378
aF236.59294999999997
aF366.223
ag1706
aS'utopia'
p1710
aS'#656565'
p1711
aF8.88595
aI0
aI00
aI00
aI00
aI00
aI00
aI00
aI00
aI00
aa(lp1712
I85218
aF243.064
aF366.223
aVp2
p1713
aS'utopia'
p1714
aS'#656565'
p1715
aF8.88595
aI0
aI00
aI00
aI00
aI00
aI00
aI00
aI00
aI00
aa(lp1716
I79436
aF260.095
aF366.223
aVp2
p1717
aS'utopia'
p1718
aS'#656565'
p1719
aF8.88595
aI0
aI00
aI00
aI00
aI00
aI00
aI00
aI00
aI00
aa(lp1720
I234378
aF280.089
aF366.223
aVp2
p1721
aS'utopia'
p1722
aS'#656565'
p1723
aF8.88595
aI0
aI00
aI00
aI00
aI00
aI00
aI00
aI00
aI00
aa(lp1724
I175989
aF324.518
aF366.223
aVp2
p1725
aS'utopia'
p1726
aS'#656565'
p1727
aF8.88595
aI0
aI00
aI00
aI00
aI00
aI00
aI00
aI00
aI00
aa(lp1728
I122758
aF342.29
aF366.223
aVp2
p1729
aS'utopia'
p1730
aS'#656565'
p1731
aF8.88595
aI0
aI00
aI00
aI00
aI00
aI00
aI00
aI00
aI00
aa(lp1732
I192651
aF362.284
aF366.223
aVp2
p1733
aS'utopia'
p1734
aS'#656565'
p1735
aF8.88595
aI0
aI00
aI00
aI00
aI00
aI00
aI00
aI00
aI00
aa(lp1736
I101554
aF374.132
aF366.223
aVp2
p1737
aS'utopia'
p1738
aS'#656565'
p1739
aF8.88595
aI0
aI00
aI00
aI00
aI00
aI00
aI00
aI00
aI00
aa(lp1740
I22476
aF403.011
aF366.223
aVp2
p1741
aS'utopia'
p1742
aS'#656565'
p1743
aF8.88595
aI0
aI00
aI00
aI00
aI00
aI00
aI00
aI00
aI00
aa(lp1744
I101504
aF410.416
aF366.223
aVp2
p1745
aS'utopia'
p1746
aS'#656565'
p1747
aF8.88595
aI0
aI00
aI00
aI00
aI00
aI00
aI00
aI00
aI00
aa(lp1748
I142772
aF431.89
aF366.223
aVp2
p1749
aS'utopia'
p1750
aS'#656565'
p1751
aF8.88595
aI0
aI00
aI00
aI00
aI00
aI00
aI00
aI00
aI00
aa(lp1752
I9231
aF455.586
aF366.223
aVp2
p1753
aS'utopia'
p1754
aS'#656565'
p1755
aF8.88595
aI0
aI00
aI00
aI00
aI00
aI00
aI00
aI00
aI00
aa(lp1756
I234378
aF477.06
aF366.223
aVp2
p1757
aS'utopia'
p1758
aS'#656565'
p1759
aF8.88595
aI0
aI00
aI00
aI00
aI00
aI00
aI00
aI00
aI00
aa(lp1760
I192651
aF481.26206666666667
aF366.223
ag1757
aS'utopia'
p1761
aS'#656565'
p1762
aF8.88595
aI0
aI00
aI00
aI00
aI00
aI00
aI00
aI00
aI00
aa(lp1763
I180950
aF491.87
aF366.223
aVp2
p1764
aS'utopia'
p1765
aS'#656565'
p1766
aF8.88595
aI0
aI00
aI00
aI00
aI00
aI00
aI00
aI00
aI00
aa(lp1767
I234378
aF517.888475
aF366.223
ag1764
aS'utopia'
p1768
aS'#656565'
p1769
aF8.88595
aI0
aI00
aI00
aI00
aI00
aI00
aI00
aI00
aI00
aa(lp1770
I25394
aF523.712
aF366.223
aVp2
p1771
aS'utopia'
p1772
aS'#656565'
p1773
aF8.88595
aI0
aI00
aI00
aI00
aI00
aI00
aI00
aI00
aI00
aa(lp1774
I46544
aF539.262
aF366.223
aVp2
p1775
aS'utopia'
p1776
aS'#656565'
p1777
aF8.88595
aI0
aI00
aI00
aI00
aI00
aI00
aI00
aI00
aI00
aa(lp1778
I22474
aF40.9084
aF376.59
aVp2
p1779
aS'utopia'
p1780
aS'#656565'
p1781
aF8.88595
aI0
aI00
aI00
aI00
aI00
aI00
aI00
aI00
aI00
aa(lp1782
I234378
aF49.0539
aF376.59
aVp2
p1783
aS'utopia'
p1784
aS'#656565'
p1785
aF8.88595
aI0
aI00
aI00
aI00
aI00
aI00
aI00
aI00
aI00
aa(lp1786
I234378
aF96.1215
aF376.59
ag1783
aS'utopia'
p1787
aS'#656565'
p1788
aF8.88595
aI0
aI00
aI00
aI00
aI00
aI00
aI00
aI00
aI00
aa(lp1789
I234378
aF100.0438
aF376.59
ag1783
aS'utopia'
p1790
aS'#656565'
p1791
aF8.88595
aI0
aI00
aI00
aI00
aI00
aI00
aI00
aI00
aI00
aa(lp1792
I63541
aF106.072
aF376.59
aVp2
p1793
aS'utopia'
p1794
aS'#656565'
p1795
aF8.88595
aI0
aI01
aI01
aI00
aI00
aI00
aI00
aI00
aI00
aa(lp1796
I156038
aF127.546
aF376.59
aVp2
p1797
aS'utopia'
p1798
aS'#656565'
p1799
aF8.88595
aI0
aI00
aI00
aI00
aI00
aI00
aI00
aI00
aI00
aa(lp1800
I166593
aF147.54
aF376.59
aVp2
p1801
aS'utopia'
p1802
aS'#656565'
p1803
aF8.88595
aI0
aI00
aI00
aI00
aI00
aI00
aI00
aI00
aI00
aa(lp1804
I50303
aF154.204
aF376.59
aVp2
p1805
aS'utopia'
p1806
aS'#656565'
p1807
aF8.88595
aI0
aI00
aI00
aI00
aI00
aI00
aI00
aI00
aI00
aa(lp1808
I144489
aF190.489
aF376.59
aVp2
p1809
aS'utopia'
p1810
aS'#656565'
p1811
aF8.88595
aI0
aI00
aI00
aI00
aI00
aI00
aI00
aI00
aI00
aa(lp1812
I30174
aF200.856
aF376.59
aVp2
p1813
aS'utopia'
p1814
aS'#656565'
p1815
aF8.88595
aI0
aI00
aI00
aI00
aI00
aI00
aI00
aI00
aI00
aa(lp1816
I100065
aF220.108
aF376.59
aVp2
p1817
aS'utopia'
p1818
aS'#656565'
p1819
aF8.88595
aI0
aI00
aI00
aI00
aI00
aI00
aI00
aI00
aI00
aa(lp1820
I144489
aF244.545
aF376.59
aVp2
p1821
aS'utopia'
p1822
aS'#656565'
p1823
aF8.88595
aI0
aI00
aI00
aI00
aI00
aI00
aI00
aI00
aI00
aa(lp1824
I194354
aF254.912
aF376.59
aVp2
p1825
aS'utopia'
p1826
aS'#656565'
p1827
aF8.88595
aI0
aI00
aI00
aI00
aI00
aI00
aI00
aI00
aI00
aa(lp1828
I234378
aF269.722
aF376.59
aVp2
p1829
aS'utopia'
p1830
aS'#656565'
p1831
aF8.88595
aI0
aI00
aI00
aI00
aI00
aI00
aI00
aI00
aI00
aa(lp1832
I135639
aF310.449
aF376.59
aVp2
p1833
aS'utopia'
p1834
aS'#656565'
p1835
aF8.88595
aI0
aI00
aI00
aI00
aI00
aI00
aI00
aI00
aI00
aa(lp1836
I194354
aF320.075
aF376.59
aVp2
p1837
aS'utopia'
p1838
aS'#656565'
p1839
aF8.88595
aI0
aI00
aI00
aI00
aI00
aI00
aI00
aI00
aI00
aa(lp1840
I122758
aF334.885
aF376.59
aVp2
p1841
aS'utopia'
p1842
aS'#656565'
p1843
aF8.88595
aI0
aI00
aI00
aI00
aI00
aI00
aI00
aI00
aI00
aa(lp1844
I84932
aF354.879
aF376.59
aVp2
p1845
aS'utopia'
p1846
aS'#656565'
p1847
aF8.88595
aI0
aI00
aI00
aI00
aI00
aI00
aI00
aI00
aI00
aa(lp1848
I163337
aF369.689
aF376.59
aVp2
p1849
aS'utopia'
p1850
aS'#656565'
p1851
aF8.88595
aI0
aI00
aI00
aI00
aI00
aI00
aI00
aI00
aI00
aa(lp1852
I1629
aF408.194
aF376.59
aVp2
p1853
aS'utopia'
p1854
aS'#656565'
p1855
aF8.88595
aI0
aI00
aI00
aI00
aI00
aI00
aI00
aI00
aI00
aa(lp1856
I234378
aF431.89
aF376.59
aVp2
p1857
aS'utopia'
p1858
aS'#656565'
p1859
aF8.88595
aI0
aI00
aI00
aI00
aI00
aI00
aI00
aI00
aI00
aa(lp1860
I192651
aF462.251
aF376.59
aVp2
p1861
aS'utopia'
p1862
aS'#656565'
p1863
aF8.88595
aI0
aI00
aI00
aI00
aI00
aI00
aI00
aI00
aI00
aa(lp1864
I16329
aF474.099
aF376.59
aVp2
p1865
aS'utopia'
p1866
aS'#656565'
p1867
aF8.88595
aI0
aI00
aI00
aI00
aI00
aI00
aI00
aI00
aI00
aa(lp1868
I170895
aF485.946
aF376.59
aVp2
p1869
aS'utopia'
p1870
aS'#656565'
p1871
aF8.88595
aI0
aI00
aI00
aI00
aI00
aI00
aI00
aI00
aI00
aa(lp1872
I177991
aF40.9084
aF386.957
aVp2
p1873
aS'utopia'
p1874
aS'#656565'
p1875
aF8.88595
aI0
aI00
aI00
aI00
aI00
aI00
aI00
aI00
aI00
aa(lp1876
I234378
aF83.42367272727273
aF386.957
ag1873
aS'utopia'
p1877
aS'#656565'
p1878
aF8.88595
aI0
aI00
aI00
aI00
aI00
aI00
aI00
aI00
aI00
aa(lp1879
I234378
aF89.7812
aF386.957
aVp2
p1880
aS'utopia'
p1881
aS'#656565'
p1882
aF8.88595
aI0
aI01
aI00
aI00
aI00
aI00
aI00
aI00
aI00
aa(lp1883
I234378
aF121.622
aF386.957
aVp2
p1884
aS'utopia'
p1885
aS'#656565'
p1886
aF8.88595
aI0
aI00
aI00
aI00
aI00
aI00
aI00
aI00
aI00
aa(lp1887
I234378
aF178.87959999999998
aF386.957
ag1884
aS'utopia'
p1888
aS'#656565'
p1889
aF8.88595
aI0
aI00
aI00
aI00
aI00
aI00
aI00
aI00
aI00
aa(lp1890
I23398
aF184.565
aF386.957
aVp2
p1891
aS'utopia'
p1892
aS'#656565'
p1893
aF8.88595
aI0
aI01
aI00
aI00
aI00
aI00
aI00
aI00
aI00
aa(lp1894
I190806
aF236.399
aF386.957
aVp2
p1895
aS'utopia'
p1896
aS'#656565'
p1897
aF8.88595
aI0
aI00
aI00
aI00
aI00
aI00
aI00
aI00
aI00
aa(lp1898
I234378
aF247.037675
aF386.957
ag1895
aS'utopia'
p1899
aS'#656565'
p1900
aF8.88595
aI0
aI00
aI00
aI00
aI00
aI00
aI00
aI00
aI00
aa(lp1901
I117435
aF252.69
aF386.957
aVp2
p1902
aS'utopia'
p1903
aS'#656565'
p1904
aF8.88595
aI0
aI01
aI00
aI00
aI00
aI00
aI00
aI00
aI00
aa(lp1905
I104705
aF293.418
aF386.957
aVp2
p1906
aS'utopia'
p1907
aS'#656565'
p1908
aF8.88595
aI0
aI00
aI00
aI00
aI00
aI00
aI00
aI00
aI00
aa(lp1909
I234378
aF313.411
aF386.957
aVp2
p1910
aS'utopia'
p1911
aS'#656565'
p1912
aF8.88595
aI0
aI00
aI00
aI00
aI00
aI00
aI00
aI00
aI00
aa(lp1913
I200058
aF359.322
aF386.957
aVp2
p1914
aS'utopia'
p1915
aS'#656565'
p1916
aF8.88595
aI0
aI00
aI00
aI00
aI00
aI00
aI00
aI00
aI00
aa(lp1917
I234378
aF384.499
aF386.957
aVp2
p1918
aS'utopia'
p1919
aS'#656565'
p1920
aF8.88595
aI0
aI00
aI00
aI00
aI00
aI00
aI00
aI00
aI00
aa(lp1921
I190806
aF431.89
aF386.957
aVp2
p1922
aS'utopia'
p1923
aS'#656565'
p1924
aF8.88595
aI0
aI00
aI00
aI00
aI00
aI00
aI00
aI00
aI00
aa(lp1925
I166245
aF445.96
aF386.957
aVp2
p1926
aS'utopia'
p1927
aS'#656565'
p1928
aF8.88595
aI0
aI00
aI00
aI00
aI00
aI00
aI00
aI00
aI00
aa(lp1929
I224801
aF481.503
aF386.957
aVp2
p1930
aS'utopia'
p1931
aS'#656565'
p1932
aF8.88595
aI0
aI00
aI00
aI00
aI00
aI00
aI00
aI00
aI00
aa(lp1933
I234378
aF40.9084
aF397.324
aVp2
p1934
aS'utopia'
p1935
aS'#656565'
p1936
aF8.88595
aI0
aI01
aI00
aI00
aI00
aI00
aI00
aI00
aI00
aa(lp1937
I194354
aF83.1167
aF397.324
aVp2
p1938
aS'utopia'
p1939
aS'#656565'
p1940
aF8.88595
aI0
aI00
aI00
aI00
aI00
aI00
aI00
aI00
aI00
aa(lp1941
I210461
aF97.9266
aF397.324
aVp2
p1942
aS'utopia'
p1943
aS'#656565'
p1944
aF8.88595
aI0
aI00
aI00
aI00
aI00
aI00
aI00
aI00
aI00
aa(lp1945
I234378
aF120.141
aF397.324
aVp2
p1946
aS'utopia'
p1947
aS'#656565'
p1948
aF8.88595
aI0
aI00
aI00
aI00
aI00
aI00
aI00
aI00
aI00
aa(lp1949
I68032
aF160.128
aF397.324
aVp2
p1950
aS'utopia'
p1951
aS'#656565'
p1952
aF8.88595
aI0
aI00
aI00
aI00
aI00
aI00
aI00
aI00
aI00
aa(lp1953
I51933
aF214.184
aF397.324
aVp2
p1954
aS'utopia'
p1955
aS'#656565'
p1956
aF8.88595
aI0
aI00
aI00
aI00
aI00
aI00
aI00
aI00
aI00
aa(lp1957
I234378
aF236.399
aF397.324
aVp2
p1958
aS'utopia'
p1959
aS'#656565'
p1960
aF8.88595
aI0
aI01
aI00
aI00
aI00
aI00
aI00
aI00
aI00
aa(lp1961
I194354
aF272.684
aF397.324
aVp2
p1962
aS'utopia'
p1963
aS'#656565'
p1964
aF8.88595
aI0
aI00
aI00
aI00
aI00
aI00
aI00
aI00
aI00
aa(lp1965
I210461
aF287.494
aF397.324
aVp2
p1966
aS'utopia'
p1967
aS'#656565'
p1968
aF8.88595
aI0
aI00
aI00
aI00
aI00
aI00
aI00
aI00
aI00
aa(lp1969
I190806
aF309.708
aF397.324
aVp2
p1970
aS'utopia'
p1971
aS'#656565'
p1972
aF8.88595
aI0
aI00
aI00
aI00
aI00
aI00
aI00
aI00
aI00
aa(lp1973
I234378
aF323.778
aF397.324
aVp2
p1974
aS'utopia'
p1975
aS'#656565'
p1976
aF8.88595
aI0
aI00
aI00
aI00
aI00
aI00
aI00
aI00
aI00
aa(lp1977
I194354
aF361.543
aF397.324
aVp2
p1978
aS'utopia'
p1979
aS'#656565'
p1980
aF8.88595
aI0
aI00
aI00
aI00
aI00
aI00
aI00
aI00
aI00
aa(lp1981
I234378
aF376.353
aF397.324
aVp2
p1982
aS'utopia'
p1983
aS'#656565'
p1984
aF8.88595
aI0
aI00
aI00
aI00
aI00
aI00
aI00
aI00
aI00
aa(lp1985
I147288
aF406.713
aF397.324
aVp2
p1986
aS'utopia'
p1987
aS'#656565'
p1988
aF8.88595
aI0
aI00
aI00
aI00
aI00
aI00
aI00
aI00
aI00
aa(lp1989
I192651
aF432.631
aF397.324
aVp2
p1990
aS'utopia'
p1991
aS'#656565'
p1992
aF8.88595
aI0
aI00
aI00
aI00
aI00
aI00
aI00
aI00
aI00
aa(lp1993
I194354
aF444.479
aF397.324
aVp2
p1994
aS'utopia'
p1995
aS'#656565'
p1996
aF8.88595
aI0
aI00
aI00
aI00
aI00
aI00
aI00
aI00
aI00
aa(lp1997
I234378
aF459.289
aF397.324
aVp2
p1998
aS'utopia'
p1999
aS'#656565'
p2000
aF8.88595
aI0
aI00
aI00
aI00
aI00
aI00
aI00
aI00
aI00
aa(lp2001
I234378
aF502.978
aF397.324
aVp2
p2002
aS'utopia'
p2003
aS'#656565'
p2004
aF8.88595
aI0
aI01
aI00
aI00
aI00
aI00
aI00
aI00
aI00
aa(lp2005
I169745
aF532.598
aF397.324
aVp2
p2006
aS'utopia'
p2007
aS'#656565'
p2008
aF8.88595
aI0
aI00
aI00
aI00
aI00
aI00
aI00
aI00
aI00
aa(lp2009
I194354
aF40.9084
aF407.691
aVp2
p2010
aS'utopia'
p2011
aS'#656565'
p2012
aF8.88595
aI0
aI00
aI00
aI00
aI00
aI00
aI00
aI00
aI00
aa(lp2013
I234378
aF55.7183
aF407.691
aVp2
p2014
aS'utopia'
p2015
aS'#656565'
p2016
aF8.88595
aI0
aI01
aI01
aI00
aI00
aI00
aI00
aI00
aI00
aa(lp2017
I234378
aF71.53085
aF407.691
ag2014
aS'utopia'
p2018
aS'#656565'
p2019
aF8.88595
aI0
aI00
aI00
aI00
aI00
aI00
aI00
aI00
aI00
aa(lp2020
I12878
aF79.4142
aF407.691
aVp2
p2021
aS'utopia'
p2022
aS'#656565'
p2023
aF8.88595
aI0
aI01
aI00
aI00
aI00
aI00
aI00
aI00
aI00
aa(lp2024
I234378
aF133.47
aF407.691
aVp2
p2025
aS'utopia'
p2026
aS'#656565'
p2027
aF8.88595
aI0
aI00
aI00
aI00
aI00
aI00
aI00
aI00
aI00
aa(lp2028
I135639
aF159.388
aF407.691
aVp2
p2029
aS'utopia'
p2030
aS'#656565'
p2031
aF8.88595
aI0
aI00
aI00
aI00
aI00
aI00
aI00
aI00
aI00
aa(lp2032
I142554
aF169.014
aF407.691
aVp2
p2033
aS'utopia'
p2034
aS'#656565'
p2035
aF8.88595
aI0
aI00
aI00
aI00
aI00
aI00
aI00
aI00
aI00
aa(lp2036
I234378
aF218.627
aF407.691
aVp2
p2037
aS'utopia'
p2038
aS'#656565'
p2039
aF8.88595
aI0
aI00
aI00
aI00
aI00
aI00
aI00
aI00
aI00
aa(lp2040
I234378
aF254.912
aF407.691
aVp2
p2041
aS'utopia'
p2042
aS'#656565'
p2043
aF8.88595
aI0
aI01
aI00
aI00
aI00
aI00
aI00
aI00
aI00
aa(lp2044
I194354
aF299.341
aF407.691
aVp2
p2045
aS'utopia'
p2046
aS'#656565'
p2047
aF8.88595
aI0
aI00
aI00
aI00
aI00
aI00
aI00
aI00
aI00
aa(lp2048
I174268
aF314.151
aF407.691
aVp2
p2049
aS'utopia'
p2050
aS'#656565'
p2051
aF8.88595
aI0
aI00
aI00
aI00
aI00
aI00
aI00
aI00
aI00
aa(lp2052
I234378
aF345.252
aF407.691
aVp2
p2053
aS'utopia'
p2054
aS'#656565'
p2055
aF8.88595
aI0
aI00
aI00
aI00
aI00
aI00
aI00
aI00
aI00
aa(lp2056
I85218
aF400.789
aF407.691
aVp2
p2057
aS'utopia'
p2058
aS'#656565'
p2059
aF8.88595
aI0
aI00
aI00
aI00
aI00
aI00
aI00
aI00
aI00
aa(lp2060
I157027
aF417.821
aF407.691
aVp2
p2061
aS'utopia'
p2062
aS'#656565'
p2063
aF8.88595
aI0
aI00
aI00
aI00
aI00
aI00
aI00
aI00
aI00
aa(lp2064
I194354
aF446.7
aF407.691
aVp2
p2065
aS'utopia'
p2066
aS'#656565'
p2067
aF8.88595
aI0
aI00
aI00
aI00
aI00
aI00
aI00
aI00
aI00
aa(lp2068
I234378
aF461.51
aF407.691
aVp2
p2069
aS'utopia'
p2070
aS'#656565'
p2071
aF8.88595
aI0
aI00
aI00
aI00
aI00
aI00
aI00
aI00
aI00
aa(lp2072
I169745
aF512.604
aF407.691
aVp2
p2073
aS'utopia'
p2074
aS'#656565'
p2075
aF8.88595
aI0
aI00
aI00
aI00
aI00
aI00
aI00
aI00
aI00
aa(lp2076
I135639
aF531.857
aF407.691
aVp2
p2077
aS'utopia'
p2078
aS'#656565'
p2079
aF8.88595
aI0
aI00
aI00
aI00
aI00
aI00
aI00
aI00
aI00
aa(lp2080
I230071
aF40.9084
aF418.058
aVp2
p2081
aS'utopia'
p2082
aS'#656565'
p2083
aF8.88595
aI0
aI00
aI00
aI00
aI00
aI00
aI00
aI00
aI00
aa(lp2084
I111798
aF60.9018
aF418.058
aVp2
p2085
aS'utopia'
p2086
aS'#656565'
p2087
aF8.88595
aI0
aI01
aI00
aI00
aI00
aI00
aI00
aI00
aI00
aa(lp2088
I194354
aF121.622
aF418.058
aVp2
p2089
aS'utopia'
p2090
aS'#656565'
p2091
aF8.88595
aI0
aI00
aI00
aI00
aI00
aI00
aI00
aI00
aI00
aa(lp2092
I80364
aF136.432
aF418.058
aVp2
p2093
aS'utopia'
p2094
aS'#656565'
p2095
aF8.88595
aI0
aI00
aI00
aI00
aI00
aI00
aI00
aI00
aI00
aa(lp2096
I234378
aF154.945
aF418.058
aVp2
p2097
aS'utopia'
p2098
aS'#656565'
p2099
aF8.88595
aI0
aI00
aI00
aI00
aI00
aI00
aI00
aI00
aI00
aa(lp2100
I85218
aF210.482
aF418.058
aVp2
p2101
aS'utopia'
p2102
aS'#656565'
p2103
aF8.88595
aI0
aI00
aI00
aI00
aI00
aI00
aI00
aI00
aI00
aa(lp2104
I11472
aF227.513
aF418.058
aVp2
p2105
aS'utopia'
p2106
aS'#656565'
p2107
aF8.88595
aI0
aI00
aI00
aI00
aI00
aI00
aI00
aI00
aI00
aa(lp2108
I194354
aF267.5
aF418.058
aVp2
p2109
aS'utopia'
p2110
aS'#656565'
p2111
aF8.88595
aI0
aI00
aI00
aI00
aI00
aI00
aI00
aI00
aI00
aa(lp2112
I230071
aF282.31
aF418.058
aVp2
p2113
aS'utopia'
p2114
aS'#656565'
p2115
aF8.88595
aI0
aI00
aI00
aI00
aI00
aI00
aI00
aI00
aI00
aa(lp2116
I234378
aF302.303
aF418.058
aVp2
p2117
aS'utopia'
p2118
aS'#656565'
p2119
aF8.88595
aI0
aI00
aI00
aI00
aI00
aI00
aI00
aI00
aI00
aa(lp2120
I234378
aF337.72862
aF418.058
ag2117
aS'utopia'
p2121
aS'#656565'
p2122
aF8.88595
aI0
aI00
aI00
aI00
aI00
aI00
aI00
aI00
aI00
aa(lp2123
I234378
aF343.771
aF418.058
aVp2
p2124
aS'utopia'
p2125
aS'#656565'
p2126
aF8.88595
aI0
aI01
aI00
aI00
aI00
aI00
aI00
aI00
aI00
aa(lp2127
I135639
aF393.384
aF418.058
aVp2
p2128
aS'utopia'
p2129
aS'#656565'
p2130
aF8.88595
aI0
aI00
aI00
aI00
aI00
aI00
aI00
aI00
aI00
aa(lp2131
I221291
aF403.011
aF418.058
aVp2
p2132
aS'utopia'
p2133
aS'#656565'
p2134
aF8.88595
aI0
aI00
aI00
aI00
aI00
aI00
aI00
aI00
aI00
aa(lp2135
I234378
aF424.485
aF418.058
aVp2
p2136
aS'utopia'
p2137
aS'#656565'
p2138
aF8.88595
aI0
aI00
aI00
aI00
aI00
aI00
aI00
aI00
aI00
aa(lp2139
I85218
aF456.327
aF418.058
aVp2
p2140
aS'utopia'
p2141
aS'#656565'
p2142
aF8.88595
aI0
aI00
aI00
aI00
aI00
aI00
aI00
aI00
aI00
aa(lp2143
I85582
aF473.358
aF418.058
aVp2
p2144
aS'utopia'
p2145
aS'#656565'
p2146
aF8.88595
aI0
aI00
aI00
aI00
aI00
aI00
aI00
aI00
aI00
aa(lp2147
I56042
aF511.123
aF418.058
aVp2
p2148
aS'utopia'
p2149
aS'#656565'
p2150
aF8.88595
aI0
aI00
aI00
aI00
aI00
aI00
aI00
aI00
aI00
aa(lp2151
I234378
aF40.9084
aF428.425
aVp2
p2152
aS'utopia'
p2153
aS'#656565'
p2154
aF8.88595
aI0
aI00
aI00
aI00
aI00
aI00
aI00
aI00
aI00
aa(lp2155
I89480
aF85.3382
aF428.425
aVp2
p2156
aS'utopia'
p2157
aS'#656565'
p2158
aF8.88595
aI0
aI00
aI00
aI00
aI00
aI00
aI00
aI00
aI00
aa(lp2159
I194354
aF95.7051
aF428.425
aVp2
p2160
aS'utopia'
p2161
aS'#656565'
p2162
aF8.88595
aI0
aI00
aI00
aI00
aI00
aI00
aI00
aI00
aI00
aa(lp2163
I234378
aF110.515
aF428.425
aVp2
p2164
aS'utopia'
p2165
aS'#656565'
p2166
aF8.88595
aI0
aI00
aI00
aI00
aI00
aI00
aI00
aI00
aI00
aa(lp2167
I125458
aF134.211
aF428.425
aVp2
p2168
aS'utopia'
p2169
aS'#656565'
p2170
aF8.88595
aI0
aI01
aI00
aI00
aI00
aI00
aI00
aI00
aI00
aa(lp2171
I149323
aF167.533
aF428.425
aVp2
p2172
aS'utopia'
p2173
aS'#656565'
p2174
aF8.88595
aI0
aI00
aI00
aI00
aI00
aI00
aI00
aI00
aI00
aa(lp2175
I169745
aF209.741
aF428.425
aVp2
p2176
aS'utopia'
p2177
aS'#656565'
p2178
aF8.88595
aI0
aI00
aI00
aI00
aI00
aI00
aI00
aI00
aI00
aa(lp2179
I234378
aF228.994
aF428.425
aVp2
p2180
aS'utopia'
p2181
aS'#656565'
p2182
aF8.88595
aI0
aI01
aI01
aI00
aI00
aI00
aI00
aI00
aI00
aa(lp2183
I210461
aF248.247
aF428.425
aVp2
p2184
aS'utopia'
p2185
aS'#656565'
p2186
aF8.88595
aI0
aI00
aI00
aI00
aI00
aI00
aI00
aI00
aI00
aa(lp2187
I190806
aF270.462
aF428.425
aVp2
p2188
aS'utopia'
p2189
aS'#656565'
p2190
aF8.88595
aI0
aI00
aI00
aI00
aI00
aI00
aI00
aI00
aI00
aa(lp2191
I234378
aF284.532
aF428.425
aVp2
p2192
aS'utopia'
p2193
aS'#656565'
p2194
aF8.88595
aI0
aI00
aI00
aI00
aI00
aI00
aI00
aI00
aI00
aa(lp2195
I194354
aF322.297
aF428.425
aVp2
p2196
aS'utopia'
p2197
aS'#656565'
p2198
aF8.88595
aI0
aI00
aI00
aI00
aI00
aI00
aI00
aI00
aI00
aa(lp2199
I234378
aF337.107
aF428.425
aVp2
p2200
aS'utopia'
p2201
aS'#656565'
p2202
aF8.88595
aI0
aI00
aI00
aI00
aI00
aI00
aI00
aI00
aI00
aa(lp2203
I147288
aF367.467
aF428.425
aVp2
p2204
aS'utopia'
p2205
aS'#656565'
p2206
aF8.88595
aI0
aI00
aI00
aI00
aI00
aI00
aI00
aI00
aI00
aa(lp2207
I192651
aF393.384
aF428.425
aVp2
p2208
aS'utopia'
p2209
aS'#656565'
p2210
aF8.88595
aI0
aI00
aI00
aI00
aI00
aI00
aI00
aI00
aI00
aa(lp2211
I234378
aF405.232
aF428.425
aVp2
p2212
aS'utopia'
p2213
aS'#656565'
p2214
aF8.88595
aI0
aI00
aI00
aI00
aI00
aI00
aI00
aI00
aI00
aa(lp2215
I107562
aF448.922
aF428.425
aVp2
p2216
aS'utopia'
p2217
aS'#656565'
p2218
aF8.88595
aI0
aI01
aI00
aI00
aI00
aI00
aI00
aI00
aI00
aa(lp2219
I234378
aF465.06233333333336
aF428.425
ag2216
aS'utopia'
p2220
aS'#656565'
p2221
aF8.88595
aI0
aI00
aI00
aI00
aI00
aI00
aI00
aI00
aI00
aa(lp2222
I234378
aF470.396
aF428.425
aVp2
p2223
aS'utopia'
p2224
aS'#656565'
p2225
aF8.88595
aI0
aI01
aI01
aI00
aI00
aI00
aI00
aI00
aI00
aa(lp2226
I234378
aF489.649
aF428.425
aVp2
p2227
aS'utopia'
p2228
aS'#656565'
p2229
aF8.88595
aI0
aI01
aI01
aI00
aI00
aI00
aI00
aI00
aI00
aa(lp2230
I25931
aF40.9084
aF438.792
aVp2
p2231
aS'utopia'
p2232
aS'#656565'
p2233
aF8.88595
aI0
aI01
aI00
aI00
aI00
aI00
aI00
aI00
aI00
aa(lp2234
I234378
aF62.5876
aF438.792
ag2231
aS'utopia'
p2235
aS'#656565'
p2236
aF8.88595
aI0
aI00
aI00
aI00
aI00
aI00
aI00
aI00
aI00
aa(lp2237
I33878
aF68.3068
aF438.792
aVp2
p2238
aS'utopia'
p2239
aS'#656565'
p2240
aF8.88595
aI0
aI01
aI00
aI00
aI00
aI00
aI00
aI00
aI00
aa(lp2241
I234378
aF96.4456
aF438.792
aVp2
p2242
aS'utopia'
p2243
aS'#656565'
p2244
aF8.88595
aI0
aI01
aI00
aI00
aI00
aI00
aI00
aI00
aI00
aa(lp2245
I234378
aF128.295425
aF438.792
ag2242
aS'utopia'
p2246
aS'#656565'
p2247
aF8.88595
aI0
aI00
aI00
aI00
aI00
aI00
aI00
aI00
aI00
aa(lp2248
I234378
aF134.951
aF438.792
aVp2
p2249
aS'utopia'
p2250
aS'#656565'
p2251
aF8.88595
aI0
aI01
aI01
aI00
aI00
aI00
aI00
aI00
aI00
aa(lp2252
I129688
aF149.761
aF438.792
aVp2
p2253
aS'utopia'
p2254
aS'#656565'
p2255
aF8.88595
aI0
aI01
aI00
aI00
aI00
aI00
aI00
aI00
aI00
aa(lp2256
I234378
aF173.97905714285713
aF438.792
ag2253
aS'utopia'
p2257
aS'#656565'
p2258
aF8.88595
aI0
aI00
aI00
aI00
aI00
aI00
aI00
aI00
aI00
aa(lp2259
I37515
aF180.122
aF438.792
aVp2
p2260
aS'utopia'
p2261
aS'#656565'
p2262
aF8.88595
aI0
aI01
aI00
aI00
aI00
aI00
aI00
aI00
aI01
aa(lp2263
I234378
aF195.30695000000003
aF438.792
ag2260
aS'utopia'
p2264
aS'#656565'
p2265
aF8.88595
aI0
aI00
aI00
aI01
aI01
aI01
aI00
aI00
aI00
aa(lp2266
I89480
aF210.482
aF438.792
aVp2
p2267
aS'utopia'
p2268
aS'#656565'
p2269
aF8.88595
aI0
aI00
aI00
aI00
aI00
aI00
aI00
aI00
aI00
aa(lp2270
I234378
aF220.849
aF438.792
aVp2
p2271
aS'utopia'
p2272
aS'#656565'
p2273
aF8.88595
aI0
aI01
aI00
aI00
aI00
aI00
aI00
aI00
aI01
aa(lp2274
I234378
aF234.55294999999998
aF438.792
ag2271
aS'utopia'
p2275
aS'#656565'
p2276
aF8.88595
aI0
aI00
aI00
aI01
aI01
aI01
aI00
aI00
aI00
aa(lp2277
I129342
aF248.247
aF438.792
aVp2
p2278
aS'utopia'
p2279
aS'#656565'
p2280
aF8.88595
aI0
aI01
aI00
aI00
aI00
aI00
aI00
aI00
aI00
aa(lp2281
I234378
aF281.2606
aF438.792
ag2278
aS'utopia'
p2282
aS'#656565'
p2283
aF8.88595
aI0
aI00
aI00
aI00
aI00
aI00
aI00
aI00
aI00
aa(lp2284
I21716
aF287.494
aF438.792
aVp2
p2285
aS'utopia'
p2286
aS'#656565'
p2287
aF8.88595
aI0
aI01
aI00
aI00
aI00
aI00
aI00
aI00
aI00
aa(lp2288
I234378
aF302.39632
aF438.792
ag2285
aS'utopia'
p2289
aS'#656565'
p2290
aF8.88595
aI0
aI00
aI00
aI00
aI00
aI00
aI00
aI00
aI00
aa(lp2291
I234378
aF308.227
aF438.792
aVp2
p2292
aS'utopia'
p2293
aS'#656565'
p2294
aF8.88595
aI0
aI01
aI01
aI00
aI00
aI00
aI00
aI00
aI00
aa(lp2295
I234378
aF319.42105
aF438.792
ag2292
aS'utopia'
p2296
aS'#656565'
p2297
aF8.88595
aI0
aI00
aI00
aI00
aI00
aI00
aI00
aI00
aI00
aa(lp2298
I234378
aF325.259
aF438.792
aVp2
p2299
aS'utopia'
p2300
aS'#656565'
p2301
aF8.88595
aI0
aI01
aI00
aI00
aI00
aI00
aI00
aI00
aI00
aa(lp2302
I234378
aF354.32326666666665
aF438.792
ag2299
aS'utopia'
p2303
aS'#656565'
p2304
aF8.88595
aI0
aI00
aI00
aI00
aI00
aI00
aI00
aI00
aI00
aa(lp2305
I234378
aF360.062
aF438.792
aVp2
p2306
aS'utopia'
p2307
aS'#656565'
p2308
aF8.88595
aI0
aI01
aI01
aI00
aI00
aI00
aI00
aI00
aI00
aa(lp2309
I234378
aF383.758
aF438.792
aVp2
p2310
aS'utopia'
p2311
aS'#656565'
p2312
aF8.88595
aI0
aI00
aI00
aI00
aI00
aI00
aI00
aI00
aI00
aa(lp2313
I234378
aF388.201
aF438.792
aVp2
p2314
aS'utopia'
p2315
aS'#656565'
p2316
aF8.88595
aI0
aI01
aI01
aI00
aI00
aI00
aI00
aI00
aI00
aa(lp2317
I234378
aF406.06532000000004
aF438.792
ag2314
aS'utopia'
p2318
aS'#656565'
p2319
aF8.88595
aI0
aI00
aI00
aI00
aI00
aI00
aI00
aI00
aI00
aa(lp2320
I234378
aF412.637
aF438.792
aVp2
p2321
aS'utopia'
p2322
aS'#656565'
p2323
aF8.88595
aI0
aI01
aI00
aI00
aI00
aI00
aI00
aI00
aI00
aa(lp2324
I234378
aF438.1244857142857
aF438.792
ag2321
aS'utopia'
p2325
aS'#656565'
p2326
aF8.88595
aI0
aI00
aI00
aI00
aI00
aI00
aI00
aI00
aI00
aa(lp2327
I234378
aF444.479
aF438.792
aVp2
p2328
aS'utopia'
p2329
aS'#656565'
p2330
aF8.88595
aI0
aI01
aI00
aI00
aI00
aI00
aI00
aI00
aI00
aa(lp2331
I234378
aF482.984
aF438.792
aVp2
p2332
aS'utopia'
p2333
aS'#656565'
p2334
aF8.88595
aI0
aI00
aI00
aI01
aI01
aI01
aI00
aI00
aI00
aa(lp2335
I234378
aF490.13896
aF438.792
ag2332
aS'utopia'
p2336
aS'#656565'
p2337
aF8.88595
aI0
aI00
aI00
aI00
aI00
aI00
aI00
aI00
aI00
aa(lp2338
I234378
aF493.71644
aF438.792
ag2332
aS'utopia'
p2339
aS'#656565'
p2340
aF8.88595
aI0
aI00
aI00
aI01
aI01
aI00
aI00
aI00
aI00
aa(lp2341
I234378
aF497.29391999999996
aF438.792
ag2332
aS'utopia'
p2342
aS'#656565'
p2343
aF8.88595
aI0
aI00
aI00
aI00
aI00
aI00
aI00
aI00
aI00
aa(lp2344
I150890
aF502.978
aF438.792
aVp2
p2345
aS'utopia'
p2346
aS'#656565'
p2347
aF8.88595
aI0
aI01
aI01
aI00
aI00
aI00
aI00
aI00
aI00
aa(lp2348
I234378
aF516.39355
aF438.792
ag2345
aS'utopia'
p2349
aS'#656565'
p2350
aF8.88595
aI0
aI00
aI00
aI00
aI00
aI00
aI00
aI00
aI00
aa(lp2351
I45445
aF522.971
aF438.792
aVp2
p2352
aS'utopia'
p2353
aS'#656565'
p2354
aF8.88595
aI0
aI01
aI00
aI00
aI00
aI00
aI00
aI00
aI00
aa(lp2355
I234378
aF40.9084
aF449.159
aVp2
p2356
aS'utopia'
p2357
aS'#656565'
p2358
aF8.88595
aI0
aI00
aI00
aI01
aI00
aI00
aI00
aI00
aI00
aa(lp2359
I234378
aF52.657825
aF449.159
ag2356
aS'utopia'
p2360
aS'#656565'
p2361
aF8.88595
aI0
aI00
aI00
aI00
aI00
aI00
aI00
aI00
aI00
aa(lp2362
I234378
aF58.6803
aF449.159
aVp2
p2363
aS'utopia'
p2364
aS'#656565'
p2365
aF8.88595
aI0
aI01
aI00
aI00
aI00
aI00
aI00
aI00
aI00
aa(lp2366
I66756
aF79.4142
aF449.159
aVp2
p2367
aS'utopia'
p2368
aS'#656565'
p2369
aF8.88595
aI0
aI01
aI00
aI00
aI00
aI00
aI00
aI00
aI00
aa(lp2370
I234378
aF123.64125833333333
aF449.159
ag2367
aS'utopia'
p2371
aS'#656565'
p2372
aF8.88595
aI0
aI00
aI00
aI00
aI00
aI00
aI00
aI00
aI00
aa(lp2373
I22476
aF129.768
aF449.159
aVp2
p2374
aS'utopia'
p2375
aS'#656565'
p2376
aF8.88595
aI0
aI01
aI00
aI00
aI00
aI00
aI00
aI00
aI00
aa(lp2377
I234378
aF137.913
aF449.159
aVp2
p2378
aS'utopia'
p2379
aS'#656565'
p2380
aF8.88595
aI0
aI00
aI00
aI00
aI00
aI00
aI00
aI00
aI00
aa(lp2381
I16334
aF164.571
aF449.159
aVp2
p2382
aS'utopia'
p2383
aS'#656565'
p2384
aF8.88595
aI0
aI00
aI00
aI00
aI00
aI00
aI00
aI00
aI00
aa(lp2385
I234378
aF174.198
aF449.159
aVp2
p2386
aS'utopia'
p2387
aS'#656565'
p2388
aF8.88595
aI0
aI00
aI00
aI00
aI00
aI00
aI00
aI00
aI00
aa(lp2389
I16329
aF219.368
aF449.159
aVp2
p2390
aS'utopia'
p2391
aS'#656565'
p2392
aF8.88595
aI0
aI00
aI00
aI00
aI00
aI00
aI00
aI00
aI00
aa(lp2393
I123665
aF231.216
aF449.159
aVp2
p2394
aS'utopia'
p2395
aS'#656565'
p2396
aF8.88595
aI0
aI00
aI00
aI00
aI00
aI00
aI00
aI00
aI00
aa(lp2397
I190806
aF277.127
aF449.159
aVp2
p2398
aS'utopia'
p2399
aS'#656565'
p2400
aF8.88595
aI0
aI00
aI00
aI00
aI00
aI00
aI00
aI00
aI00
aa(lp2401
I234378
aF291.196
aF449.159
aVp2
p2402
aS'utopia'
p2403
aS'#656565'
p2404
aF8.88595
aI0
aI00
aI00
aI00
aI00
aI00
aI00
aI00
aI00
aa(lp2405
I143270
aF337.847
aF449.159
aVp2
p2406
aS'utopia'
p2407
aS'#656565'
p2408
aF8.88595
aI0
aI00
aI00
aI00
aI00
aI00
aI00
aI00
aI00
aa(lp2409
I234378
aF372.651
aF449.159
aVp2
p2410
aS'utopia'
p2411
aS'#656565'
p2412
aF8.88595
aI0
aI00
aI00
aI00
aI00
aI00
aI00
aI00
aI00
aa(lp2413
I144489
aF413.378
aF449.159
aVp2
p2414
aS'utopia'
p2415
aS'#656565'
p2416
aF8.88595
aI0
aI00
aI00
aI00
aI00
aI00
aI00
aI00
aI00
aa(lp2417
I194354
aF423.745
aF449.159
aVp2
p2418
aS'utopia'
p2419
aS'#656565'
p2420
aF8.88595
aI0
aI00
aI00
aI00
aI00
aI00
aI00
aI00
aI00
aa(lp2421
I223466
aF438.555
aF449.159
aVp2
p2422
aS'utopia'
p2423
aS'#656565'
p2424
aF8.88595
aI0
aI00
aI00
aI00
aI00
aI00
aI00
aI00
aI00
aa(lp2425
I234378
aF473.358
aF449.159
aVp2
p2426
aS'utopia'
p2427
aS'#656565'
p2428
aF8.88595
aI0
aI00
aI00
aI00
aI00
aI00
aI00
aI00
aI00
aa(lp2429
I85218
aF514.085
aF449.159
aVp2
p2430
aS'utopia'
p2431
aS'#656565'
p2432
aF8.88595
aI0
aI00
aI00
aI00
aI00
aI00
aI00
aI00
aI00
aa(lp2433
I122483
aF40.9084
aF459.526
aVp2
p2434
aS'utopia'
p2435
aS'#656565'
p2436
aF8.88595
aI0
aI00
aI00
aI00
aI00
aI00
aI00
aI00
aI00
aa(lp2437
I234378
aF66.8258
aF459.526
aVp2
p2438
aS'utopia'
p2439
aS'#656565'
p2440
aF8.88595
aI0
aI00
aI00
aI00
aI00
aI00
aI00
aI00
aI00
aa(lp2441
I89480
aF97.1861
aF459.526
aVp2
p2442
aS'utopia'
p2443
aS'#656565'
p2444
aF8.88595
aI0
aI00
aI00
aI00
aI00
aI00
aI00
aI00
aI00
aa(lp2445
I19671
aF107.553
aF459.526
aVp2
p2446
aS'utopia'
p2447
aS'#656565'
p2448
aF8.88595
aI0
aI00
aI00
aI00
aI00
aI00
aI00
aI00
aI00
aa(lp2449
I164454
aF152.723
aF459.526
aVp2
p2450
aS'utopia'
p2451
aS'#656565'
p2452
aF8.88595
aI0
aI00
aI00
aI00
aI00
aI00
aI00
aI00
aI00
aa(lp2453
I144489
aF197.894
aF459.526
aVp2
p2454
aS'utopia'
p2455
aS'#656565'
p2456
aF8.88595
aI0
aI00
aI00
aI00
aI00
aI00
aI00
aI00
aI00
aa(lp2457
I194354
aF208.26
aF459.526
aVp2
p2458
aS'utopia'
p2459
aS'#656565'
p2460
aF8.88595
aI0
aI00
aI00
aI00
aI00
aI00
aI00
aI00
aI00
aa(lp2461
I223466
aF223.07
aF459.526
aVp2
p2462
aS'utopia'
p2463
aS'#656565'
p2464
aF8.88595
aI0
aI00
aI00
aI00
aI00
aI00
aI00
aI00
aI00
aa(lp2465
I143270
aF257.874
aF459.526
aVp2
p2466
aS'utopia'
p2467
aS'#656565'
p2468
aF8.88595
aI0
aI00
aI00
aI00
aI00
aI00
aI00
aI00
aI00
aa(lp2469
I35885
aF292.677
aF459.526
aVp2
p2470
aS'utopia'
p2471
aS'#656565'
p2472
aF8.88595
aI0
aI00
aI00
aI00
aI00
aI00
aI00
aI00
aI00
aa(lp2473
I144483
aF317.854
aF459.526
aVp2
p2474
aS'utopia'
p2475
aS'#656565'
p2476
aF8.88595
aI0
aI00
aI00
aI00
aI00
aI00
aI00
aI00
aI00
aa(lp2477
I101862
aF330.442
aF459.526
aVp2
p2478
aS'utopia'
p2479
aS'#656565'
p2480
aF8.88595
aI0
aI00
aI00
aI00
aI00
aI00
aI00
aI00
aI00
aa(lp2481
I234378
aF343.771
aF459.526
aVp2
p2482
aS'utopia'
p2483
aS'#656565'
p2484
aF8.88595
aI0
aI00
aI00
aI00
aI00
aI00
aI00
aI00
aI00
aa(lp2485
I85218
aF387.46
aF459.526
aVp2
p2486
aS'utopia'
p2487
aS'#656565'
p2488
aF8.88595
aI0
aI00
aI00
aI00
aI00
aI00
aI00
aI00
aI00
aa(lp2489
I234378
aF404.492
aF459.526
aVp2
p2490
aS'utopia'
p2491
aS'#656565'
p2492
aF8.88595
aI0
aI00
aI00
aI00
aI00
aI00
aI00
aI00
aI00
aa(lp2493
I234378
aF445.219
aF459.526
aVp2
p2494
aS'utopia'
p2495
aS'#656565'
p2496
aF8.88595
aI0
aI00
aI00
aI00
aI00
aI00
aI00
aI00
aI00
aa(lp2497
I234378
aF468.80234285714283
aF459.526
ag2494
aS'utopia'
p2498
aS'#656565'
p2499
aF8.88595
aI0
aI00
aI00
aI00
aI00
aI00
aI00
aI00
aI00
aa(lp2500
I234378
aF474.839
aF459.526
aVp2
p2501
aS'utopia'
p2502
aS'#656565'
p2503
aF8.88595
aI0
aI01
aI00
aI00
aI00
aI00
aI00
aI00
aI00
aa(lp2504
I234378
aF40.9084
aF469.892
aVp2
p2505
aS'utopia'
p2506
aS'#656565'
p2507
aF8.88595
aI0
aI00
aI00
aI00
aI00
aI00
aI00
aI00
aI00
aa(lp2508
I234378
aF98.166
aF469.892
ag2505
aS'utopia'
p2509
aS'#656565'
p2510
aF8.88595
aI0
aI00
aI00
aI00
aI00
aI00
aI00
aI00
aI00
aa(lp2511
I105322
aF103.851
aF469.892
aVp2
p2512
aS'utopia'
p2513
aS'#656565'
p2514
aF8.88595
aI0
aI01
aI00
aI00
aI00
aI00
aI00
aI00
aI00
aa(lp2515
I135639
aF140.135
aF469.892
aVp2
p2516
aS'utopia'
p2517
aS'#656565'
p2518
aF8.88595
aI0
aI00
aI00
aI00
aI00
aI00
aI00
aI00
aI00
aa(lp2519
I194354
aF149.761
aF469.892
aVp2
p2520
aS'utopia'
p2521
aS'#656565'
p2522
aF8.88595
aI0
aI00
aI00
aI00
aI00
aI00
aI00
aI00
aI00
aa(lp2523
I1109
aF164.571
aF469.892
aVp2
p2524
aS'utopia'
p2525
aS'#656565'
p2526
aF8.88595
aI0
aI00
aI00
aI00
aI00
aI00
aI00
aI00
aI00
aa(lp2527
I234378
aF203.077
aF469.892
aVp2
p2528
aS'utopia'
p2529
aS'#656565'
p2530
aF8.88595
aI0
aI00
aI00
aI00
aI00
aI00
aI00
aI00
aI00
aa(lp2531
I234378
aF236.16772727272726
aF469.892
ag2528
aS'utopia'
p2532
aS'#656565'
p2533
aF8.88595
aI0
aI00
aI00
aI00
aI00
aI00
aI00
aI00
aI00
aa(lp2534
I144690
aF241.583
aF469.892
aVp2
p2535
aS'utopia'
p2536
aS'#656565'
p2537
aF8.88595
aI0
aI01
aI00
aI00
aI00
aI00
aI00
aI00
aI00
aa(lp2538
I92750
aF270.462
aF469.892
aVp2
p2539
aS'utopia'
p2540
aS'#656565'
p2541
aF8.88595
aI0
aI00
aI00
aI00
aI00
aI00
aI00
aI00
aI00
aa(lp2542
I234378
aF308.227
aF469.892
aVp2
p2543
aS'utopia'
p2544
aS'#656565'
p2545
aF8.88595
aI0
aI00
aI00
aI00
aI00
aI00
aI00
aI00
aI00
aa(lp2546
I169745
aF327.48
aF469.892
aVp2
p2547
aS'utopia'
p2548
aS'#656565'
p2549
aF8.88595
aI0
aI00
aI00
aI00
aI00
aI00
aI00
aI00
aI00
aa(lp2550
I234378
aF346.733
aF469.892
aVp2
p2551
aS'utopia'
p2552
aS'#656565'
p2553
aF8.88595
aI0
aI00
aI00
aI00
aI00
aI00
aI00
aI00
aI00
aa(lp2554
I234378
aF382.15862
aF469.892
ag2551
aS'utopia'
p2555
aS'#656565'
p2556
aF8.88595
aI0
aI00
aI00
aI00
aI00
aI00
aI00
aI00
aI00
aa(lp2557
I48565
aF388.201
aF469.892
aVp2
p2558
aS'utopia'
p2559
aS'#656565'
p2560
aF8.88595
aI0
aI00
aI00
aI00
aI00
aI00
aI00
aI00
aI00
aa(lp2561
I194354
aF419.302
aF469.892
aVp2
p2562
aS'utopia'
p2563
aS'#656565'
p2564
aF8.88595
aI0
aI00
aI00
aI00
aI00
aI00
aI00
aI00
aI00
aa(lp2565
I234378
aF434.112
aF469.892
aVp2
p2566
aS'utopia'
p2567
aS'#656565'
p2568
aF8.88595
aI0
aI00
aI00
aI00
aI00
aI00
aI00
aI00
aI00
aa(lp2569
I85218
aF489.649
aF469.892
aVp2
p2570
aS'utopia'
p2571
aS'#656565'
p2572
aF8.88595
aI0
aI00
aI00
aI00
aI00
aI00
aI00
aI00
aI00
aa(lp2573
I24205
aF506.68
aF469.892
aVp2
p2574
aS'utopia'
p2575
aS'#656565'
p2576
aF8.88595
aI0
aI00
aI00
aI00
aI00
aI00
aI00
aI00
aI00
aa(lp2577
I149270
aF40.9084
aF480.259
aVp2
p2578
aS'utopia'
p2579
aS'#656565'
p2580
aF8.88595
aI0
aI00
aI00
aI00
aI00
aI00
aI00
aI00
aI00
aa(lp2581
I234378
aF78.6737
aF480.259
aVp2
p2582
aS'utopia'
p2583
aS'#656565'
p2584
aF8.88595
aI0
aI00
aI00
aI00
aI00
aI00
aI00
aI00
aI00
aa(lp2585
I179418
aF134.211
aF480.259
aVp2
p2586
aS'utopia'
p2587
aS'#656565'
p2588
aF8.88595
aI0
aI01
aI00
aI00
aI00
aI00
aI00
aI00
aI00
aa(lp2589
I154812
aF166.793
aF480.259
aVp2
p2590
aS'utopia'
p2591
aS'#656565'
p2592
aF8.88595
aI0
aI00
aI00
aI00
aI00
aI00
aI00
aI00
aI00
aa(lp2593
I144483
aF210.482
aF480.259
aVp2
p2594
aS'utopia'
p2595
aS'#656565'
p2596
aF8.88595
aI0
aI00
aI00
aI00
aI00
aI00
aI00
aI00
aI00
aa(lp2597
I144690
aF223.07
aF480.259
aVp2
p2598
aS'utopia'
p2599
aS'#656565'
p2600
aF8.88595
aI0
aI00
aI00
aI00
aI00
aI00
aI00
aI00
aI00
aa(lp2601
I234378
aF250.469
aF480.259
aVp2
p2602
aS'utopia'
p2603
aS'#656565'
p2604
aF8.88595
aI0
aI00
aI00
aI00
aI00
aI00
aI00
aI00
aI00
aa(lp2605
I6594
aF310.449
aF480.259
aVp2
p2606
aS'utopia'
p2607
aS'#656565'
p2608
aF8.88595
aI0
aI00
aI00
aI00
aI00
aI00
aI00
aI00
aI00
aa(lp2609
I68032
aF338.588
aF480.259
aVp2
p2610
aS'utopia'
p2611
aS'#656565'
p2612
aF8.88595
aI0
aI00
aI00
aI00
aI00
aI00
aI00
aI00
aI00
aa(lp2613
I165056
aF392.644
aF480.259
aVp2
p2614
aS'utopia'
p2615
aS'#656565'
p2616
aF8.88595
aI0
aI00
aI00
aI00
aI00
aI00
aI00
aI00
aI00
aa(lp2617
I85218
aF417.821
aF480.259
aVp2
p2618
aS'utopia'
p2619
aS'#656565'
p2620
aF8.88595
aI0
aI00
aI00
aI00
aI00
aI00
aI00
aI00
aI00
aa(lp2621
I234378
aF434.852
aF480.259
aVp2
p2622
aS'utopia'
p2623
aS'#656565'
p2624
aF8.88595
aI0
aI00
aI00
aI00
aI00
aI00
aI00
aI00
aI00
aa(lp2625
I234378
aF466.694
aF480.259
aVp2
p2626
aS'utopia'
p2627
aS'#656565'
p2628
aF8.88595
aI0
aI00
aI00
aI00
aI00
aI00
aI00
aI00
aI00
aa(lp2629
I115769
aF502.237
aF480.259
aVp2
p2630
aS'utopia'
p2631
aS'#656565'
p2632
aF8.88595
aI0
aI00
aI00
aI00
aI00
aI00
aI00
aI00
aI00
aa(lp2633
I190806
aF40.9084
aF490.626
aVp2
p2634
aS'utopia'
p2635
aS'#656565'
p2636
aF8.88595
aI0
aI00
aI00
aI00
aI00
aI00
aI00
aI00
aI00
aa(lp2637
I234378
aF54.9779
aF490.626
aVp2
p2638
aS'utopia'
p2639
aS'#656565'
p2640
aF8.88595
aI0
aI01
aI00
aI00
aI00
aI00
aI00
aI00
aI00
aa(lp2641
I234378
aF79.14031666666666
aF490.626
ag2638
aS'utopia'
p2642
aS'#656565'
p2643
aF8.88595
aI0
aI00
aI00
aI00
aI00
aI00
aI00
aI00
aI00
aa(lp2644
I234378
aF86.0787
aF490.626
aVp2
p2645
aS'utopia'
p2646
aS'#656565'
p2647
aF8.88595
aI0
aI00
aI00
aI00
aI00
aI00
aI00
aI00
aI00
aa(lp2648
I19490
aF117.92
aF490.626
aVp2
p2649
aS'utopia'
p2650
aS'#656565'
p2651
aF8.88595
aI0
aI01
aI00
aI00
aI00
aI00
aI00
aI00
aI00
aa(lp2652
I174268
aF142.356
aF490.626
aVp2
p2653
aS'utopia'
p2654
aS'#656565'
p2655
aF8.88595
aI0
aI00
aI00
aI00
aI00
aI00
aI00
aI00
aI00
aa(lp2656
I234378
aF173.457
aF490.626
aVp2
p2657
aS'utopia'
p2658
aS'#656565'
p2659
aF8.88595
aI0
aI00
aI00
aI00
aI00
aI00
aI00
aI00
aI00
aa(lp2660
I234378
aF205.299
aF490.626
aVp2
p2661
aS'utopia'
p2662
aS'#656565'
p2663
aF8.88595
aI0
aI00
aI00
aI00
aI00
aI00
aI00
aI00
aI00
aa(lp2664
I234378
aF228.254
aF490.626
aVp2
p2665
aS'utopia'
p2666
aS'#656565'
p2667
aF8.88595
aI0
aI01
aI01
aI01
aI00
aI00
aI00
aI00
aI00
aa(lp2668
I234378
aF244.34112
aF490.626
ag2665
aS'utopia'
p2669
aS'#656565'
p2670
aF8.88595
aI0
aI00
aI00
aI00
aI00
aI00
aI00
aI00
aI00
aa(lp2671
I234378
aF250.469
aF490.626
aVp2
p2672
aS'utopia'
p2673
aS'#656565'
p2674
aF8.88595
aI0
aI01
aI01
aI00
aI00
aI00
aI00
aI00
aI00
aa(lp2675
I234378
aF268.33332
aF490.626
ag2672
aS'utopia'
p2676
aS'#656565'
p2677
aF8.88595
aI0
aI00
aI00
aI00
aI00
aI00
aI00
aI00
aI00
aa(lp2678
I234378
aF274.905
aF490.626
aVp2
p2679
aS'utopia'
p2680
aS'#656565'
p2681
aF8.88595
aI0
aI01
aI00
aI00
aI00
aI00
aI00
aI00
aI00
aa(lp2682
I85218
aF303.044
aF490.626
aVp2
p2683
aS'utopia'
p2684
aS'#656565'
p2685
aF8.88595
aI0
aI00
aI00
aI00
aI00
aI00
aI00
aI00
aI00
aa(lp2686
I139589
aF320.075
aF490.626
aVp2
p2687
aS'utopia'
p2688
aS'#656565'
p2689
aF8.88595
aI0
aI00
aI00
aI00
aI00
aI00
aI00
aI00
aI00
aa(lp2690
I169745
aF357.1
aF490.626
aVp2
p2691
aS'utopia'
p2692
aS'#656565'
p2693
aF8.88595
aI0
aI00
aI00
aI00
aI00
aI00
aI00
aI00
aI00
aa(lp2694
I150890
aF376.353
aF490.626
aVp2
p2695
aS'utopia'
p2696
aS'#656565'
p2697
aF8.88595
aI0
aI01
aI01
aI00
aI00
aI00
aI00
aI00
aI00
aa(lp2698
I234378
aF394.125
aF490.626
aVp2
p2699
aS'utopia'
p2700
aS'#656565'
p2701
aF8.88595
aI0
aI01
aI00
aI00
aI00
aI00
aI00
aI00
aI00
aa(lp2702
I69610
aF418.561
aF490.626
aVp2
p2703
aS'utopia'
p2704
aS'#656565'
p2705
aF8.88595
aI0
aI00
aI00
aI00
aI00
aI00
aI00
aI00
aI00
aa(lp2706
I144483
aF460.77
aF490.626
aVp2
p2707
aS'utopia'
p2708
aS'#656565'
p2709
aF8.88595
aI0
aI00
aI00
aI00
aI00
aI00
aI00
aI00
aI00
aa(lp2710
I51082
aF469.6666571428571
aF490.626
ag2707
aS'utopia'
p2711
aS'#656565'
p2712
aF8.88595
aI0
aI00
aI00
aI00
aI00
aI00
aI00
aI00
aI00
aa(lp2713
I147316
aF490.389
aF490.626
aVp2
p2714
aS'utopia'
p2715
aS'#656565'
p2716
aF8.88595
aI0
aI00
aI00
aI00
aI00
aI00
aI00
aI00
aI00
aa(lp2717
I190806
aF523.712
aF490.626
aVp2
p2718
aS'utopia'
p2719
aS'#656565'
p2720
aF8.88595
aI0
aI00
aI00
aI00
aI00
aI00
aI00
aI00
aI00
aa(lp2721
I142554
aF40.9084
aF500.993
aVp2
p2722
aS'utopia'
p2723
aS'#656565'
p2724
aF8.88595
aI0
aI00
aI00
aI00
aI00
aI00
aI00
aI00
aI00
aa(lp2725
I234378
aF90.5217
aF500.993
aVp2
p2726
aS'utopia'
p2727
aS'#656565'
p2728
aF8.88595
aI0
aI00
aI00
aI00
aI00
aI00
aI00
aI00
aI00
aa(lp2729
I54866
aF126.806
aF500.993
aVp2
p2730
aS'utopia'
p2731
aS'#656565'
p2732
aF8.88595
aI0
aI00
aI00
aI00
aI00
aI00
aI00
aI00
aI00
aa(lp2733
I234378
aF146.799
aF500.993
aVp2
p2734
aS'utopia'
p2735
aS'#656565'
p2736
aF8.88595
aI0
aI00
aI00
aI00
aI00
aI00
aI00
aI00
aI00
aa(lp2737
I234378
aF183.10371111111112
aF500.993
ag2734
aS'utopia'
p2738
aS'#656565'
p2739
aF8.88595
aI0
aI00
aI00
aI00
aI00
aI00
aI00
aI00
aI00
aa(lp2740
I207288
aF189.748
aF500.993
aVp2
p2741
aS'utopia'
p2742
aS'#656565'
p2743
aF8.88595
aI0
aI01
aI01
aI00
aI00
aI00
aI00
aI00
aI00
aa(lp2744
I234378
aF204.2965375
aF500.993
ag2741
aS'utopia'
p2745
aS'#656565'
p2746
aF8.88595
aI0
aI00
aI00
aI00
aI00
aI00
aI00
aI00
aI00
aa(lp2747
I234378
aF209.14605
aF500.993
ag2741
aS'utopia'
p2748
aS'#656565'
p2749
aF8.88595
aI0
aI01
aI01
aI00
aI00
aI00
aI00
aI00
aI00
aa(lp2750
I147316
aF230.475
aF500.993
aVp2
p2751
aS'utopia'
p2752
aS'#656565'
p2753
aF8.88595
aI0
aI00
aI00
aI00
aI00
aI00
aI00
aI00
aI00
aa(lp2754
I85218
aF263.798
aF500.993
aVp2
p2755
aS'utopia'
p2756
aS'#656565'
p2757
aF8.88595
aI0
aI00
aI00
aI00
aI00
aI00
aI00
aI00
aI00
aa(lp2758
I136483
aF280.829
aF500.993
aVp2
p2759
aS'utopia'
p2760
aS'#656565'
p2761
aF8.88595
aI0
aI00
aI00
aI00
aI00
aI00
aI00
aI00
aI00
aa(lp2762
I147316
aF296.379
aF500.993
aVp2
p2763
aS'utopia'
p2764
aS'#656565'
p2765
aF8.88595
aI0
aI00
aI00
aI00
aI00
aI00
aI00
aI00
aI00
aa(lp2766
I234378
aF329.702
aF500.993
aVp2
p2767
aS'utopia'
p2768
aS'#656565'
p2769
aF8.88595
aI0
aI00
aI00
aI00
aI00
aI00
aI00
aI00
aI00
aa(lp2770
I234378
aF342.778775
aF500.993
ag2767
aS'utopia'
p2771
aS'#656565'
p2772
aF8.88595
aI0
aI00
aI00
aI00
aI00
aI00
aI00
aI00
aI00
aa(lp2773
I209062
aF347.1377
aF500.993
ag2767
aS'utopia'
p2774
aS'#656565'
p2775
aF8.88595
aI0
aI00
aI00
aI00
aI00
aI00
aI00
aI00
aI00
aa(lp2776
I142554
aF366.727
aF500.993
aVp2
p2777
aS'utopia'
p2778
aS'#656565'
p2779
aF8.88595
aI0
aI00
aI00
aI00
aI00
aI00
aI00
aI00
aI00
aa(lp2780
I124531
aF40.1679
aF536.555
aVp2
p2781
aS'utopia'
p2782
aS'#02304b'
p2783
aF11.8479
aI1
aI01
aI00
aI00
aI00
aI00
aI00
aI00
aI00
aa(lp2784
I234378
aF40.9084
aF564.839
aVp2
p2785
aS'utopia'
p2786
aS'#656565'
p2787
aF10.3669
aI0
aI01
aI00
aI00
aI00
aI00
aI00
aI00
aI00
aa(lp2788
I234378
aF117.18
aF564.839
aVp2
p2789
aS'utopia'
p2790
aS'#656565'
p2791
aF10.3669
aI0
aI00
aI00
aI00
aI00
aI00
aI00
aI00
aI00
aa(lp2792
I60201
aF123.103
aF564.839
aVp2
p2793
aS'utopia'
p2794
aS'#656565'
p2795
aF10.3669
aI0
aI01
aI00
aI00
aI00
aI00
aI00
aI00
aI00
aa(lp2796
I230071
aF143.097
aF564.839
aVp2
p2797
aS'utopia'
p2798
aS'#656565'
p2799
aF10.3669
aI0
aI01
aI00
aI00
aI00
aI00
aI00
aI00
aI00
aa(lp2800
I234378
aF169.755
aF564.839
aVp2
p2801
aS'utopia'
p2802
aS'#656565'
p2803
aF10.3669
aI0
aI00
aI00
aI00
aI00
aI00
aI00
aI00
aI00
aa(lp2804
I27780
aF40.9084
aF580.86
aVp2
p2805
aS'utopia'
p2806
aS'#000000'
p2807
aF10.3669
aI1
aI01
aI01
aI00
aI00
aI00
aI00
aI00
aI00
aa(lp2808
I234378
aF46.15191818181818
aF580.86
ag2805
aS'utopia'
p2809
aS'#000000'
p2810
aF10.3669
aI1
aI00
aI00
aI00
aI00
aI00
aI00
aI00
aI00
aa(lp2811
I2737
aF51.395436363636364
aF580.86
ag2805
aS'utopia'
p2812
aS'#000000'
p2813
aF10.3669
aI1
aI01
aI00
aI00
aI00
aI00
aI00
aI00
aI00
aa(lp2814
I234378
aF72.36950909090909
aF580.86
ag2805
aS'utopia'
p2815
aS'#000000'
p2816
aF10.3669
aI1
aI00
aI00
aI00
aI00
aI00
aI00
aI00
aI00
aa(lp2817
I27780
aF70.61302727272727
aF580.86
ag2805
aS'utopia'
p2818
aS'#000000'
p2819
aF10.3669
aI1
aI01
aI01
aI00
aI00
aI00
aI00
aI00
aI00
aa(lp2820
I234378
aF75.85654545454545
aF580.86
ag2805
aS'utopia'
p2821
aS'#000000'
p2822
aF10.3669
aI1
aI00
aI00
aI00
aI00
aI00
aI00
aI00
aI00
aa(lp2823
I64620
aF88.10006363636364
aF580.86
ag2805
aS'utopia'
p2824
aS'#000000'
p2825
aF10.3669
aI1
aI01
aI01
aI00
aI00
aI00
aI00
aI00
aI00
aa(lp2826
I234378
aF84.34358181818183
aF580.86
ag2805
aS'utopia'
p2827
aS'#000000'
p2828
aF10.3669
aI1
aI00
aI00
aI00
aI00
aI00
aI00
aI00
aI00
aa(lp2829
I234378
aF100.889
aF580.86
aVp2
p2830
aS'utopia'
p2831
aS'#000000'
p2832
aF10.3669
aI1
aI00
aI00
aI00
aI00
aI00
aI00
aI00
aI00
aa(lp2833
I234378
aF106.48095454545454
aF580.86
ag2830
aS'utopia'
p2834
aS'#000000'
p2835
aF10.3669
aI1
aI01
aI00
aI00
aI00
aI00
aI00
aI00
aI00
aa(lp2836
I234378
aF156.80854545454542
aF580.86
ag2830
aS'utopia'
p2837
aS'#000000'
p2838
aF10.3669
aI1
aI00
aI00
aI00
aI00
aI00
aI00
aI00
aI00
aa(lp2839
I234378
aF40.9084
aF601.123
aVp2
p2840
aS'utopia'
p2841
aS'#656565'
p2842
aF10.3669
aI0
aI01
aI00
aI00
aI00
aI00
aI00
aI00
aI00
aa(lp2843
I234378
aF92.0026
aF601.123
aVp2
p2844
aS'utopia'
p2845
aS'#656565'
p2846
aF10.3669
aI0
aI01
aI00
aI00
aI00
aI00
aI00
aI00
aI00
aa(lp2847
I40624
aF123.844
aF601.123
aVp2
p2848
aS'utopia'
p2849
aS'#656565'
p2850
aF10.3669
aI0
aI01
aI00
aI00
aI00
aI00
aI00
aI00
aI00
aa(lp2851
I153079
aF192.71
aF601.123
aVp2
p2852
aS'utopia'
p2853
aS'#656565'
p2854
aF10.3669
aI0
aI01
aI00
aI00
aI00
aI00
aI00
aI00
aI00
aa(lp2855
I234378
aF243.064
aF601.123
aVp2
p2856
aS'utopia'
p2857
aS'#656565'
p2858
aF10.3669
aI0
aI00
aI00
aI00
aI00
aI00
aI00
aI00
aI00
aa(lp2859
I234378
aF248.72361666666666
aF601.123
ag2856
aS'utopia'
p2860
aS'#656565'
p2861
aF10.3669
aI0
aI01
aI01
aI00
aI00
aI00
aI00
aI00
aI00
aa(lp2862
I234378
aF271.3620833333333
aF601.123
ag2856
aS'utopia'
p2863
aS'#656565'
p2864
aF10.3669
aI0
aI00
aI00
aI00
aI00
aI00
aI00
aI00
aI00
aa(lp2865
I135639
aF283.791
aF601.123
aVp2
p2866
aS'utopia'
p2867
aS'#656565'
p2868
aF10.3669
aI0
aI00
aI00
aI00
aI00
aI00
aI00
aI00
aI00
aa(lp2869
I234378
aF295.639
aF601.123
aVp2
p2870
aS'utopia'
p2871
aS'#656565'
p2872
aF10.3669
aI0
aI00
aI00
aI01
aI01
aI01
aI00
aI00
aI00
aa(lp2873
I234378
aF40.9084
aF629.262
aVp2
p2874
aS'utopia'
p2875
aS'#656565'
p2876
aF10.3669
aI0
aI01
aI00
aI00
aI00
aI00
aI00
aI00
aI00
aa(lp2877
I234378
aF117.18
aF629.262
aVp2
p2878
aS'utopia'
p2879
aS'#656565'
p2880
aF10.3669
aI0
aI00
aI00
aI00
aI00
aI00
aI00
aI00
aI00
aa(lp2881
I60201
aF123.103
aF629.262
aVp2
p2882
aS'utopia'
p2883
aS'#656565'
p2884
aF10.3669
aI0
aI01
aI00
aI00
aI00
aI00
aI00
aI00
aI00
aa(lp2885
I230071
aF143.097
aF629.262
aVp2
p2886
aS'utopia'
p2887
aS'#656565'
p2888
aF10.3669
aI0
aI01
aI00
aI00
aI00
aI00
aI00
aI00
aI00
aa(lp2889
I234378
aF169.755
aF629.262
aVp2
p2890
aS'utopia'
p2891
aS'#656565'
p2892
aF10.3669
aI0
aI00
aI00
aI00
aI00
aI00
aI00
aI00
aI00
aa(lp2893
I27780
aF40.9084
aF645.283
aVp2
p2894
aS'utopia'
p2895
aS'#000000'
p2896
aF10.3669
aI1
aI01
aI01
aI00
aI00
aI00
aI00
aI00
aI00
aa(lp2897
I234378
aF46.15191818181818
aF645.283
ag2894
aS'utopia'
p2898
aS'#000000'
p2899
aF10.3669
aI1
aI00
aI00
aI00
aI00
aI00
aI00
aI00
aI00
aa(lp2900
I2737
aF51.395436363636364
aF645.283
ag2894
aS'utopia'
p2901
aS'#000000'
p2902
aF10.3669
aI1
aI01
aI00
aI00
aI00
aI00
aI00
aI00
aI00
aa(lp2903
I234378
aF72.36950909090909
aF645.283
ag2894
aS'utopia'
p2904
aS'#000000'
p2905
aF10.3669
aI1
aI00
aI00
aI00
aI00
aI00
aI00
aI00
aI00
aa(lp2906
I27780
aF70.61302727272727
aF645.283
ag2894
aS'utopia'
p2907
aS'#000000'
p2908
aF10.3669
aI1
aI01
aI01
aI00
aI00
aI00
aI00
aI00
aI00
aa(lp2909
I234378
aF75.85654545454545
aF645.283
ag2894
aS'utopia'
p2910
aS'#000000'
p2911
aF10.3669
aI1
aI00
aI00
aI00
aI00
aI00
aI00
aI00
aI00
aa(lp2912
I64620
aF88.10006363636364
aF645.283
ag2894
aS'utopia'
p2913
aS'#000000'
p2914
aF10.3669
aI1
aI01
aI01
aI00
aI00
aI00
aI00
aI00
aI00
aa(lp2915
I234378
aF84.34358181818183
aF645.283
ag2894
aS'utopia'
p2916
aS'#000000'
p2917
aF10.3669
aI1
aI00
aI00
aI00
aI00
aI00
aI00
aI00
aI00
aa(lp2918
I234378
aF100.889
aF645.283
aVp2
p2919
aS'utopia'
p2920
aS'#000000'
p2921
aF10.3669
aI1
aI00
aI00
aI00
aI00
aI00
aI00
aI00
aI00
aa(lp2922
I177271
aF105.97388571428571
aF645.283
ag2919
aS'utopia'
p2923
aS'#000000'
p2924
aF10.3669
aI1
aI01
aI00
aI00
aI00
aI00
aI00
aI00
aI00
aa(lp2925
I234378
aF131.3983142857143
aF645.283
ag2919
aS'utopia'
p2926
aS'#000000'
p2927
aF10.3669
aI1
aI00
aI00
aI00
aI00
aI00
aI00
aI00
aI00
aa(lp2928
I22476
aF40.1679
aF686.876
aVp2
p2929
aS'utopia'
p2930
aS'#02304b'
p2931
aF11.8479
aI1
aI01
aI01
aI00
aI00
aI00
aI00
aI00
aI00
aa(lp2932
I234378
aF54.2374
aF686.876
aVp2
p2933
aS'utopia'
p2934
aS'#02304b'
p2935
aF11.8479
aI1
aI01
aI00
aI00
aI00
aI00
aI00
aI00
aI00
aa(lp2936
I109610
aF48.3134
aF714.766
aVp2
p2937
aS'utopia'
p2938
aS'#000000'
p2939
aF8.88595
aI1
aI01
aI00
aI00
aI00
aI00
aI00
aI00
aI00
aa(lp2940
I158577
aF69.7878
aF714.766
aVp2
p2941
aS'utopia'
p2942
aS'#000000'
p2943
aF8.88595
aI1
aI01
aI00
aI00
aI00
aI00
aI00
aI00
aI00
aa(lp2944
I194179
aF188.267
aF714.766
aVp2
p2945
aS'utopia'
p2946
aS'#000000'
p2947
aF8.88595
aI1
aI01
aI00
aI00
aI00
aI00
aI00
aI00
aI00
aa(lp2948
I177981
aF305.265
aF714.766
aVp2
p2949
aS'utopia'
p2950
aS'#000000'
p2951
aF8.88595
aI1
aI01
aI00
aI00
aI00
aI00
aI00
aI00
aI00
aa(lp2952
I25729
aF324.518
aF714.766
aVp2
p2953
aS'utopia'
p2954
aS'#000000'
p2955
aF8.88595
aI1
aI01
aI00
aI00
aI00
aI00
aI00
aI00
aI00
aa(lp2956
I60220
aF412.637
aF714.766
aVp2
p2957
aS'utopia'
p2958
aS'#000000'
p2959
aF8.88595
aI1
aI01
aI00
aI00
aI00
aI00
aI00
aI00
aI00
aa(lp2960
I45445
aF48.3134
aF733.509
aVp2
p2961
aS'utopia'
p2962
aS'#656565'
p2963
aF8.88595
aI0
aI01
aI00
aI00
aI00
aI00
aI00
aI00
aI00
aa(lp2964
I234378
aF76.4522
aF733.509
aVp2
p2965
aS'utopia'
p2966
aS'#656565'
p2967
aF8.88595
aI0
aI00
aI00
aI01
aI00
aI00
aI00
aI00
aI00
aa(lp2968
I234378
aF84.38242222222223
aF733.509
ag2965
aS'utopia'
p2969
aS'#656565'
p2970
aF8.88595
aI0
aI00
aI00
aI00
aI00
aI00
aI00
aI00
aI00
aa(lp2971
I234378
aF88.34753333333335
aF733.509
ag2965
aS'utopia'
p2972
aS'#656565'
p2973
aF8.88595
aI0
aI00
aI00
aI01
aI00
aI00
aI00
aI00
aI00
aa(lp2974
I234378
aF93.27775555555557
aF733.509
ag2965
aS'utopia'
p2975
aS'#656565'
p2976
aF8.88595
aI0
aI00
aI00
aI00
aI00
aI00
aI00
aI00
aI00
aa(lp2977
I234378
aF100.24286666666669
aF733.509
ag2965
aS'utopia'
p2978
aS'#656565'
p2979
aF8.88595
aI0
aI00
aI00
aI01
aI00
aI00
aI00
aI00
aI00
aa(lp2980
I21716
aF48.3134
aF752.021
aVp2
p2981
aS'utopia'
p2982
aS'#656565'
p2983
aF8.88595
aI0
aI01
aI01
aI00
aI00
aI00
aI00
aI00
aI00
aa(lp2984
I234378
aF66.77012
aF752.021
ag2981
aS'utopia'
p2985
aS'#656565'
p2986
aF8.88595
aI0
aI00
aI00
aI00
aI00
aI00
aI00
aI00
aI00
aa(lp2987
I233063
aF73.4902
aF752.021
aVp2
p2988
aS'utopia'
p2989
aS'#656565'
p2990
aF8.88595
aI0
aI01
aI01
aI00
aI00
aI00
aI00
aI00
aI00
aa(lp2991
I234378
aF77.62068500000001
aF752.021
ag2988
aS'utopia'
p2992
aS'#656565'
p2993
aF8.88595
aI0
aI00
aI00
aI00
aI00
aI00
aI00
aI00
aI00
aa(lp2994
I233063
aF83.8572
aF752.021
aVp2
p2995
aS'utopia'
p2996
aS'#656565'
p2997
aF8.88595
aI0
aI01
aI01
aI00
aI00
aI00
aI00
aI00
aI00
aa(lp2998
I234378
aF90.6722
aF752.021
ag2995
aS'utopia'
p2999
aS'#656565'
p3000
aF8.88595
aI0
aI00
aI00
aI00
aI00
aI00
aI00
aI00
aI00
aa(lp3001
I24461
aF95.4872
aF752.021
ag2995
aS'utopia'
p3002
aS'#656565'
p3003
aF8.88595
aI0
aI01
aI00
aI00
aI00
aI00
aI00
aI00
aI00
aa(lp3004
I85218
aF134.211
aF752.021
aVp2
p3005
aS'utopia'
p3006
aS'#656565'
p3007
aF8.88595
aI0
aI00
aI00
aI00
aI00
aI00
aI00
aI00
aI00
aa(lp3008
I234378
aF151.242
aF752.021
aVp2
p3009
aS'utopia'
p3010
aS'#656565'
p3011
aF8.88595
aI0
aI01
aI00
aI00
aI00
aI00
aI00
aI00
aI00
aa(lp3012
I234378
aF48.3134
aF770.534
aVp2
p3013
aS'utopia'
p3014
aS'#656565'
p3015
aF8.88595
aI0
aI01
aI00
aI00
aI00
aI00
aI00
aI00
aI00
aa(lp3016
I234378
aF69.99260000000001
aF770.534
ag3013
aS'utopia'
p3017
aS'#656565'
p3018
aF8.88595
aI0
aI00
aI00
aI00
aI00
aI00
aI00
aI00
aI00
aa(lp3019
I148996
aF75.7117
aF770.534
aVp2
p3020
aS'utopia'
p3021
aS'#656565'
p3022
aF8.88595
aI0
aI01
aI00
aI00
aI00
aI00
aI00
aI00
aI00
aa(lp3023
I234378
aF99.29504285714285
aF770.534
ag3020
aS'utopia'
p3024
aS'#656565'
p3025
aF8.88595
aI0
aI00
aI00
aI00
aI00
aI00
aI00
aI00
aI00
aa(lp3026
I176767
aF105.332
aF770.534
aVp2
p3027
aS'utopia'
p3028
aS'#656565'
p3029
aF8.88595
aI0
aI01
aI00
aI00
aI00
aI00
aI00
aI00
aI00
aa(lp3030
I234378
aF48.3134
aF789.046
aVp2
p3031
aS'utopia'
p3032
aS'#656565'
p3033
aF8.88595
aI0
aI01
aI01
aI01
aI00
aI00
aI00
aI00
aI00
aa(lp3034
I234378
aF64.40052
aF789.046
ag3031
aS'utopia'
p3035
aS'#656565'
p3036
aF8.88595
aI0
aI00
aI00
aI00
aI00
aI00
aI00
aI00
aI00
aa(lp3037
I234378
aF70.5283
aF789.046
aVp2
p3038
aS'utopia'
p3039
aS'#656565'
p3040
aF8.88595
aI0
aI01
aI01
aI00
aI00
aI00
aI00
aI00
aI00
aa(lp3041
I234378
aF81.72235
aF789.046
ag3038
aS'utopia'
p3042
aS'#656565'
p3043
aF8.88595
aI0
aI00
aI00
aI00
aI00
aI00
aI00
aI00
aI00
aa(lp3044
I234378
aF87.5597
aF789.046
aVp2
p3045
aS'utopia'
p3046
aS'#656565'
p3047
aF8.88595
aI0
aI01
aI00
aI00
aI00
aI00
aI00
aI00
aI00
aa(lp3048
I234378
aF112.9302375
aF789.046
ag3045
aS'utopia'
p3049
aS'#656565'
p3050
aF8.88595
aI0
aI00
aI00
aI00
aI00
aI00
aI00
aI00
aI00
aa(lp3051
I234378
aF118.66
aF789.046
aVp2
p3052
aS'utopia'
p3053
aS'#656565'
p3054
aF8.88595
aI0
aI01
aI01
aI00
aI00
aI00
aI00
aI00
aI00
aa(lp3055
I234378
aF137.70911999999998
aF789.046
ag3052
aS'utopia'
p3056
aS'#656565'
p3057
aF8.88595
aI0
aI00
aI00
aI00
aI00
aI00
aI00
aI00
aI00
aa(lp3058
I234378
aF144.578
aF789.046
aVp2
p3059
aS'utopia'
p3060
aS'#656565'
p3061
aF8.88595
aI0
aI01
aI01
aI00
aI00
aI00
aI00
aI00
aI00
aa(lp3062
I234378
aF48.3134
aF28.557
aVp3
p3063
aS'utopia'
p3064
aS'#656565'
p3065
aF8.88595
aI0
aI01
aI00
aI00
aI00
aI00
aI00
aI00
aI00
aa(lp3066
I234378
aF89.7812
aF28.557
aVp3
p3067
aS'utopia'
p3068
aS'#656565'
p3069
aF8.88595
aI0
aI00
aI00
aI01
aI01
aI01
aI00
aI00
aI00
aa(lp3070
I234378
aF96.93616
aF28.557
ag3067
aS'utopia'
p3071
aS'#656565'
p3072
aF8.88595
aI0
aI00
aI00
aI00
aI00
aI00
aI00
aI00
aI00
aa(lp3073
I234378
aF100.51364
aF28.557
ag3067
aS'utopia'
p3074
aS'#656565'
p3075
aF8.88595
aI0
aI00
aI00
aI01
aI01
aI00
aI00
aI00
aI00
aa(lp3076
I234378
aF104.09111999999999
aF28.557
ag3067
aS'utopia'
p3077
aS'#656565'
p3078
aF8.88595
aI0
aI00
aI00
aI00
aI00
aI00
aI00
aI00
aI00
aa(lp3079
I110786
aF109.775
aF28.557
aVp3
p3080
aS'utopia'
p3081
aS'#656565'
p3082
aF8.88595
aI0
aI01
aI00
aI00
aI00
aI00
aI00
aI00
aI00
aa(lp3083
I234378
aF142.356
aF28.557
aVp3
p3084
aS'utopia'
p3085
aS'#656565'
p3086
aF8.88595
aI0
aI00
aI00
aI01
aI01
aI00
aI00
aI00
aI00
aa(lp3087
I234378
aF146.1355
aF28.557
ag3084
aS'utopia'
p3088
aS'#656565'
p3089
aF8.88595
aI0
aI00
aI00
aI00
aI00
aI00
aI00
aI00
aI00
aa(lp3090
I234378
aF149.91500000000002
aF28.557
ag3084
aS'utopia'
p3091
aS'#656565'
p3092
aF8.88595
aI0
aI00
aI00
aI01
aI01
aI00
aI00
aI00
aI00
aa(lp3093
I234378
aF48.3134
aF47.0694
aVp3
p3094
aS'utopia'
p3095
aS'#656565'
p3096
aF8.88595
aI0
aI01
aI00
aI00
aI00
aI00
aI00
aI00
aI00
aa(lp3097
I234378
aF86.8192
aF47.0694
aVp3
p3098
aS'utopia'
p3099
aS'#656565'
p3100
aF8.88595
aI0
aI01
aI01
aI00
aI00
aI00
aI00
aI00
aI00
aa(lp3101
I234378
aF96.13005454545454
aF47.0694
ag3098
aS'utopia'
p3102
aS'#656565'
p3103
aF8.88595
aI0
aI00
aI00
aI00
aI00
aI00
aI00
aI00
aI00
aa(lp3104
I234378
aF100.78548181818181
aF47.0694
ag3098
aS'utopia'
p3105
aS'#656565'
p3106
aF8.88595
aI0
aI01
aI01
aI00
aI00
aI00
aI00
aI00
aI00
aa(lp3107
I234378
aF107.09633636363635
aF47.0694
ag3098
aS'utopia'
p3108
aS'#656565'
p3109
aF8.88595
aI0
aI00
aI00
aI00
aI00
aI00
aI00
aI00
aI00
aa(lp3110
I234378
aF114.75176363636362
aF47.0694
ag3098
aS'utopia'
p3111
aS'#656565'
p3112
aF8.88595
aI0
aI00
aI00
aI01
aI01
aI01
aI00
aI00
aI00
aa(lp3113
I234378
aF133.3734727272727
aF47.0694
ag3098
aS'utopia'
p3114
aS'#656565'
p3115
aF8.88595
aI0
aI00
aI00
aI00
aI00
aI00
aI00
aI00
aI00
aa(lp3116
I234378
aF140.135
aF47.0694
aVp3
p3117
aS'utopia'
p3118
aS'#656565'
p3119
aF8.88595
aI0
aI01
aI01
aI00
aI00
aI00
aI00
aI00
aI00
aa(lp3120
I234378
aF159.18411999999998
aF47.0694
ag3117
aS'utopia'
p3121
aS'#656565'
p3122
aF8.88595
aI0
aI00
aI00
aI00
aI00
aI00
aI00
aI00
aI00
aa(lp3123
I234378
aF48.3134
aF57.4363
aVp3
p3124
aS'utopia'
p3125
aS'#656565'
p3126
aF8.88595
aI0
aI01
aI01
aI00
aI00
aI00
aI00
aI00
aI00
aa(lp3127
I97163
aF48.3134
aF75.9487
aVp3
p3128
aS'utopia'
p3129
aS'#656565'
p3130
aF8.88595
aI0
aI01
aI00
aI00
aI00
aI00
aI00
aI00
aI00
aa(lp3131
I109247
aF84.5977
aF75.9487
aVp3
p3132
aS'utopia'
p3133
aS'#656565'
p3134
aF8.88595
aI0
aI01
aI00
aI00
aI00
aI00
aI00
aI00
aI00
aa(lp3135
I25230
aF114.958
aF75.9487
aVp3
p3136
aS'utopia'
p3137
aS'#656565'
p3138
aF8.88595
aI0
aI01
aI00
aI00
aI00
aI00
aI00
aI00
aI00
aa(lp3139
I234378
aF139.81077142857143
aF75.9487
ag3136
aS'utopia'
p3140
aS'#656565'
p3141
aF8.88595
aI0
aI00
aI00
aI00
aI00
aI00
aI00
aI00
aI00
aa(lp3142
I234378
aF146.059
aF75.9487
aVp3
p3143
aS'utopia'
p3144
aS'#656565'
p3145
aF8.88595
aI0
aI01
aI00
aI00
aI00
aI00
aI00
aI00
aI00
aa(lp3146
I234378
aF170.22141666666667
aF75.9487
ag3143
aS'utopia'
p3147
aS'#656565'
p3148
aF8.88595
aI0
aI00
aI00
aI00
aI00
aI00
aI00
aI00
aI00
aa(lp3149
I234378
aF48.3134
aF94.4611
aVp3
p3150
aS'utopia'
p3151
aS'#656565'
p3152
aF8.88595
aI0
aI01
aI01
aI00
aI00
aI00
aI00
aI00
aI00
aa(lp3153
I195166
aF40.1679
aF144.833
aVp3
p3154
aS'utopia'
p3155
aS'#02304b'
p3156
aF11.8479
aI1
aI01
aI00
aI00
aI00
aI00
aI00
aI00
aI00
aa(lp3157
I136346
aF96.4456
aF144.833
aVp3
p3158
aS'utopia'
p3159
aS'#02304b'
p3160
aF11.8479
aI1
aI01
aI00
aI00
aI00
aI00
aI00
aI00
aI00
aa(lp3161
I195166
aF48.3134
aF172.723
aVp3
p3162
aS'utopia'
p3163
aS'#000000'
p3164
aF8.88595
aI1
aI01
aI00
aI00
aI00
aI00
aI00
aI00
aI00
aa(lp3165
I164378
aF177.16
aF172.723
aVp3
p3166
aS'utopia'
p3167
aS'#000000'
p3168
aF8.88595
aI1
aI01
aI00
aI00
aI00
aI00
aI00
aI00
aI00
aa(lp3169
I175077
aF296.379
aF172.723
aVp3
p3170
aS'utopia'
p3171
aS'#000000'
p3172
aF8.88595
aI1
aI01
aI00
aI00
aI00
aI00
aI00
aI00
aI00
aa(lp3173
I224291
aF397.087
aF172.723
aVp3
p3174
aS'utopia'
p3175
aS'#000000'
p3176
aF8.88595
aI1
aI01
aI00
aI00
aI00
aI00
aI00
aI00
aI00
aa(lp3177
I165206
aF497.054
aF172.723
aVp3
p3178
aS'utopia'
p3179
aS'#000000'
p3180
aF8.88595
aI1
aI01
aI00
aI00
aI00
aI00
aI00
aI00
aI00
aa(lp3181
I58002
aF48.3134
aF191.466
aVp3
p3182
aS'utopia'
p3183
aS'#656565'
p3184
aF8.88595
aI0
aI01
aI00
aI00
aI00
aI00
aI00
aI00
aI00
aa(lp3185
I106589
aF48.3134
aF209.978
aVp3
p3186
aS'utopia'
p3187
aS'#656565'
p3188
aF8.88595
aI0
aI01
aI00
aI00
aI00
aI00
aI00
aI00
aI00
aa(lp3189
I144532
aF48.3134
aF228.491
aVp3
p3190
aS'utopia'
p3191
aS'#656565'
p3192
aF8.88595
aI0
aI01
aI00
aI00
aI00
aI00
aI00
aI00
aI00
aa(lp3193
I234378
aF40.1679
aF260.35
aVp3
p3194
aS'utopia'
p3195
aS'#02304b'
p3196
aF11.8479
aI1
aI01
aI00
aI00
aI00
aI00
aI00
aI00
aI00
aa(lp3197
I201816
aF40.9084
aF292.173
aVp3
p3198
aS'utopia'
p3199
aS'#000000'
p3200
aF8.88595
aI0
aI01
aI00
aI00
aI00
aI00
aI00
aI00
aI00
aa(lp3201
I234378
aF54.9779
aF292.173
aVp3
p3202
aS'utopia'
p3203
aS'#000000'
p3204
aF8.88595
aI0
aI01
aI00
aI00
aI00
aI00
aI00
aI00
aI00
aa(lp3205
I86196
aF89.0407
aF292.173
aVp3
p3206
aS'utopia'
p3207
aS'#000000'
p3208
aF8.88595
aI0
aI01
aI00
aI00
aI00
aI00
aI00
aI00
aI00
aa(lp3209
I177271
aF40.1679
aF331.438
aVp3
p3210
aS'utopia'
p3211
aS'#02304b'
p3212
aF11.8479
aI1
aI01
aI00
aI00
aI00
aI00
aI00
aI00
aI00
aa(lp3213
I234378
aF74.2307
aF331.438
aVp3
p3214
aS'utopia'
p3215
aS'#02304b'
p3216
aF11.8479
aI1
aI01
aI00
aI00
aI00
aI00
aI00
aI00
aI00
aa(lp3217
I7520
aF49.0539
aF352.047
aVp3
p3218
aS'utopia'
p3219
aS'#656565'
p3220
aF10.3669
aI1
aI01
aI00
aI00
aI00
aI00
aI00
aI00
aI00
aa(lp3221
I10865
aF93.4836
aF352.047
aVp3
p3222
aS'utopia'
p3223
aS'#656565'
p3224
aF10.3669
aI1
aI01
aI00
aI00
aI00
aI00
aI00
aI00
aI00
aa(lp3225
I132955
aF49.0539
aF367.704
aVp3
p3226
aS'utopia'
p3227
aS'#656565'
p3228
aF8.88595
aI0
aI01
aI00
aI00
aI00
aI00
aI00
aI00
aI00
aa(lp3229
I144489
aF69.7878
aF367.704
aVp3
p3230
aS'utopia'
p3231
aS'#656565'
p3232
aF8.88595
aI0
aI00
aI00
aI00
aI00
aI00
aI00
aI00
aI00
aa(lp3233
I132529
aF80.1547
aF367.704
aVp3
p3234
aS'utopia'
p3235
aS'#656565'
p3236
aF8.88595
aI0
aI01
aI00
aI00
aI00
aI00
aI00
aI00
aI00
aa(lp3237
I234378
aF98.76336666666667
aF367.704
ag3234
aS'utopia'
p3238
aS'#656565'
p3239
aF8.88595
aI0
aI00
aI00
aI00
aI00
aI00
aI00
aI00
aI00
aa(lp3240
I234378
aF104.591
aF367.704
aVp3
p3241
aS'utopia'
p3242
aS'#434343'
p3243
aF8.88595
aI0
aI00
aI00
aI01
aI01
aI01
aI00
aI00
aI00
aa(lp3244
I234378
aF115.699
aF367.704
aVp3
p3245
aS'utopia'
p3246
aS'#434343'
p3247
aF8.88595
aI0
aI01
aI00
aI00
aI00
aI00
aI00
aI00
aI01
aa(lp3248
I234378
aF128.287
aF367.704
aVp3
p3249
aS'utopia'
p3250
aS'#434343'
p3251
aF8.88595
aI0
aI00
aI00
aI01
aI01
aI01
aI00
aI00
aI00
aa(lp3252
I86794
aF313.411
aF360.192
aVp3
p3253
aS'utopia'
p3254
aS'#656565'
p3255
aF10.3669
aI1
aI01
aI00
aI00
aI00
aI00
aI00
aI00
aI00
aa(lp3256
I131455
aF351.917
aF360.192
aVp3
p3257
aS'utopia'
p3258
aS'#656565'
p3259
aF10.3669
aI1
aI01
aI00
aI00
aI00
aI00
aI00
aI00
aI00
aa(lp3260
I234378
aF369.689
aF360.192
aVp3
p3261
aS'utopia'
p3262
aS'#656565'
p3263
aF10.3669
aI1
aI01
aI00
aI00
aI00
aI00
aI00
aI00
aI00
aa(lp3264
I108944
aF49.0539
aF383.254
aVp3
p3265
aS'utopia'
p3266
aS'#656565'
p3267
aF8.88595
aI0
aI01
aI00
aI00
aI00
aI00
aI00
aI00
aI00
aa(lp3268
I234378
aF76.44544285714287
aF383.254
ag3265
aS'utopia'
p3269
aS'#656565'
p3270
aF8.88595
aI0
aI00
aI00
aI00
aI00
aI00
aI00
aI00
aI00
aa(lp3271
I104428
aF83.1167
aF383.254
aVp3
p3272
aS'utopia'
p3273
aS'#434343'
p3274
aF8.88595
aI0
aI01
aI00
aI00
aI00
aI00
aI00
aI00
aI00
aa(lp3275
I131455
aF313.411
aF375.85
aVp3
p3276
aS'utopia'
p3277
aS'#656565'
p3278
aF8.88595
aI0
aI01
aI00
aI00
aI00
aI00
aI00
aI00
aI00
aa(lp3279
I197416
aF328.961
aF375.85
aVp3
p3280
aS'utopia'
p3281
aS'#656565'
p3282
aF8.88595
aI0
aI01
aI00
aI00
aI00
aI00
aI00
aI00
aI00
aa(lp3283
I234378
aF346.23292000000004
aF375.85
ag3280
aS'utopia'
p3284
aS'#656565'
p3285
aF8.88595
aI0
aI00
aI00
aI00
aI00
aI00
aI00
aI00
aI00
aa(lp3286
I28425
aF352.657
aF375.85
aVp3
p3287
aS'utopia'
p3288
aS'#434343'
p3289
aF8.88595
aI0
aI01
aI00
aI00
aI00
aI00
aI00
aI00
aI00
aa(lp3290
I234378
aF398.568
aF375.85
aVp3
p3291
aS'utopia'
p3292
aS'#434343'
p3293
aF8.88595
aI0
aI00
aI00
aI00
aI00
aI00
aI00
aI00
aI00
aa(lp3294
I137944
aF403.1228636363636
aF375.85
ag3291
aS'utopia'
p3295
aS'#434343'
p3296
aF8.88595
aI0
aI01
aI00
aI00
aI00
aI00
aI00
aI00
aI00
aa(lp3297
I234378
aF434.1166363636363
aF375.85
ag3291
aS'utopia'
p3298
aS'#434343'
p3299
aF8.88595
aI0
aI00
aI00
aI00
aI00
aI00
aI00
aI00
aI00
aa(lp3300
I42298
aF448.6714999999999
aF375.85
ag3291
aS'utopia'
p3301
aS'#434343'
p3302
aF8.88595
aI0
aI01
aI00
aI00
aI00
aI00
aI00
aI00
aI00
aa(lp3303
I212271
aF49.0539
aF398.805
aVp3
p3304
aS'utopia'
p3305
aS'#656565'
p3306
aF8.88595
aI0
aI01
aI00
aI00
aI00
aI00
aI00
aI00
aI00
aa(lp3307
I12510
aF79.4142
aF398.805
aVp3
p3308
aS'utopia'
p3309
aS'#656565'
p3310
aF8.88595
aI0
aI01
aI00
aI00
aI00
aI00
aI00
aI00
aI00
aa(lp3311
I234378
aF101.72811428571428
aF398.805
ag3308
aS'utopia'
p3312
aS'#656565'
p3313
aF8.88595
aI0
aI00
aI00
aI00
aI00
aI00
aI00
aI00
aI00
aa(lp3314
I97834
aF107.553
aF398.805
aVp3
p3315
aS'utopia'
p3316
aS'#434343'
p3317
aF8.88595
aI0
aI01
aI00
aI00
aI00
aI00
aI00
aI00
aI00
aa(lp3318
I72722
aF313.411
aF391.4
aVp3
p3319
aS'utopia'
p3320
aS'#656565'
p3321
aF8.88595
aI0
aI01
aI00
aI00
aI00
aI00
aI00
aI00
aI00
aa(lp3322
I12510
aF366.727
aF391.4
aVp3
p3323
aS'utopia'
p3324
aS'#656565'
p3325
aF8.88595
aI0
aI01
aI00
aI00
aI00
aI00
aI00
aI00
aI00
aa(lp3326
I234378
aF389.0409142857143
aF391.4
ag3323
aS'utopia'
p3327
aS'#656565'
p3328
aF8.88595
aI0
aI00
aI00
aI00
aI00
aI00
aI00
aI00
aI00
aa(lp3329
I60201
aF394.865
aF391.4
aVp3
p3330
aS'utopia'
p3331
aS'#434343'
p3332
aF8.88595
aI0
aI01
aI00
aI00
aI00
aI00
aI00
aI00
aI00
aa(lp3333
I230071
aF411.897
aF391.4
aVp3
p3334
aS'utopia'
p3335
aS'#434343'
p3336
aF8.88595
aI0
aI01
aI00
aI00
aI00
aI00
aI00
aI00
aI00
aa(lp3337
I118366
aF49.0539
aF418.692
aVp3
p3338
aS'utopia'
p3339
aS'#656565'
p3340
aF10.3669
aI1
aI01
aI00
aI00
aI00
aI00
aI00
aI00
aI00
aa(lp3341
I234378
aF83.97235
aF418.692
ag3338
aS'utopia'
p3342
aS'#656565'
p3343
aF10.3669
aI1
aI00
aI00
aI00
aI00
aI00
aI00
aI00
aI00
aa(lp3344
I51933
aF313.411
aF411.287
aVp3
p3345
aS'utopia'
p3346
aS'#656565'
p3347
aF10.3669
aI1
aI01
aI00
aI00
aI00
aI00
aI00
aI00
aI00
aa(lp3348
I62768
aF341.55
aF411.287
aVp3
p3349
aS'utopia'
p3350
aS'#656565'
p3351
aF10.3669
aI1
aI01
aI00
aI00
aI00
aI00
aI00
aI00
aI00
aa(lp3352
I234378
aF49.0539
aF431.387
aVp3
p3353
aS'utopia'
p3354
aS'#000000'
p3355
aF8.88595
aI0
aI00
aI00
aI01
aI01
aI00
aI00
aI00
aI00
aa(lp3356
I234378
aF54.359833333333334
aF431.387
ag3353
aS'utopia'
p3357
aS'#000000'
p3358
aF8.88595
aI0
aI00
aI00
aI01
aI01
aI01
aI00
aI00
aI00
aa(lp3359
I234378
aF63.9717
aF431.387
ag3353
aS'utopia'
p3360
aS'#000000'
p3361
aF8.88595
aI0
aI00
aI00
aI01
aI01
aI00
aI00
aI00
aI00
aa(lp3362
I234378
aF68.27763333333333
aF431.387
ag3353
aS'utopia'
p3363
aS'#000000'
p3364
aF8.88595
aI0
aI00
aI00
aI00
aI00
aI00
aI00
aI00
aI00
aa(lp3365
I234378
aF65.58356666666666
aF431.387
ag3353
aS'utopia'
p3366
aS'#000000'
p3367
aF8.88595
aI0
aI00
aI00
aI01
aI01
aI00
aI00
aI00
aI00
aa(lp3368
I234378
aF76.88949999999998
aF431.387
ag3353
aS'utopia'
p3369
aS'#000000'
p3370
aF8.88595
aI0
aI00
aI00
aI00
aI00
aI00
aI00
aI00
aI00
aa(lp3371
I234378
aF81.19543333333331
aF431.387
ag3353
aS'utopia'
p3372
aS'#000000'
p3373
aF8.88595
aI0
aI01
aI00
aI00
aI00
aI00
aI00
aI00
aI00
aa(lp3374
I234378
aF115.699
aF431.387
aVp3
p3375
aS'utopia'
p3376
aS'#000000'
p3377
aF8.88595
aI0
aI01
aI00
aI00
aI00
aI00
aI00
aI00
aI00
aa(lp3378
I234378
aF137.39308333333332
aF431.387
ag3375
aS'utopia'
p3379
aS'#000000'
p3380
aF8.88595
aI0
aI00
aI00
aI00
aI00
aI00
aI00
aI00
aI00
aa(lp3381
I234378
aF155.685
aF441.754
aVp3
p3382
aS'utopia'
p3383
aS'#000000'
p3384
aF8.88595
aI0
aI01
aI00
aI00
aI00
aI00
aI00
aI00
aI00
aa(lp3385
I234378
aF215.9582307692308
aF441.754
ag3382
aS'utopia'
p3386
aS'#000000'
p3387
aF8.88595
aI0
aI00
aI00
aI00
aI00
aI00
aI00
aI00
aI00
aa(lp3388
I234378
aF220.26346153846157
aF441.754
ag3382
aS'utopia'
p3389
aS'#000000'
p3390
aF8.88595
aI0
aI01
aI00
aI00
aI00
aI00
aI00
aI00
aI00
aa(lp3391
I234378
aF254.7053076923077
aF441.754
ag3382
aS'utopia'
p3392
aS'#000000'
p3393
aF8.88595
aI0
aI00
aI00
aI00
aI00
aI00
aI00
aI00
aI00
aa(lp3394
I95395
aF259.0105384615385
aF441.754
ag3382
aS'utopia'
p3395
aS'#000000'
p3396
aF8.88595
aI0
aI01
aI01
aI00
aI00
aI00
aI00
aI00
aI00
aa(lp3397
I234378
aF263.31576923076926
aF441.754
ag3382
aS'utopia'
p3398
aS'#000000'
p3399
aF8.88595
aI0
aI00
aI00
aI00
aI00
aI00
aI00
aI00
aI00
aa(lp3400
I234378
aF49.0539
aF452.121
aVp3
p3401
aS'utopia'
p3402
aS'#000000'
p3403
aF8.88595
aI0
aI00
aI00
aI01
aI01
aI01
aI00
aI00
aI00
aa(lp3404
I31679
aF313.411
aF426.944
aVp3
p3405
aS'utopia'
p3406
aS'#656565'
p3407
aF8.88595
aI0
aI01
aI01
aI00
aI00
aI00
aI00
aI00
aI00
aa(lp3408
I51933
aF326.74
aF426.944
aVp3
p3409
aS'utopia'
p3410
aS'#656565'
p3411
aF8.88595
aI0
aI01
aI00
aI00
aI00
aI00
aI00
aI00
aI00
aa(lp3412
I12510
aF350.436
aF426.944
aVp3
p3413
aS'utopia'
p3414
aS'#656565'
p3415
aF8.88595
aI0
aI01
aI00
aI00
aI00
aI00
aI00
aI00
aI00
aa(lp3416
I234378
aF372.7499142857143
aF426.944
ag3413
aS'utopia'
p3417
aS'#656565'
p3418
aF8.88595
aI0
aI00
aI00
aI00
aI00
aI00
aI00
aI00
aI00
aa(lp3419
I63091
aF378.575
aF426.944
aVp3
p3420
aS'utopia'
p3421
aS'#434343'
p3422
aF8.88595
aI0
aI01
aI00
aI00
aI00
aI00
aI00
aI00
aI00
aa(lp3423
I234378
aF395.606
aF426.944
aVp3
p3424
aS'utopia'
p3425
aS'#434343'
p3426
aF8.88595
aI0
aI01
aI00
aI00
aI00
aI00
aI00
aI00
aI00
aa(lp3427
I234378
aF313.411
aF442.494
aVp3
p3428
aS'utopia'
p3429
aS'#656565'
p3430
aF8.88595
aI0
aI01
aI00
aI00
aI00
aI00
aI00
aI00
aI00
aa(lp3431
I234378
aF350.16952
aF442.494
ag3428
aS'utopia'
p3432
aS'#656565'
p3433
aF8.88595
aI0
aI00
aI00
aI00
aI00
aI00
aI00
aI00
aI00
aa(lp3434
I182663
aF49.0539
aF465.45
aVp3
p3435
aS'utopia'
p3436
aS'#656565'
p3437
aF8.88595
aI0
aI01
aI00
aI00
aI00
aI00
aI00
aI00
aI00
aa(lp3438
I82279
aF76.4522
aF465.45
aVp3
p3439
aS'utopia'
p3440
aS'#656565'
p3441
aF8.88595
aI0
aI01
aI00
aI00
aI00
aI00
aI00
aI00
aI00
aa(lp3442
I234378
aF96.09372
aF465.45
ag3439
aS'utopia'
p3443
aS'#656565'
p3444
aF8.88595
aI0
aI00
aI00
aI00
aI00
aI00
aI00
aI00
aI00
aa(lp3445
I234378
aF103.11
aF465.45
aVp3
p3446
aS'utopia'
p3447
aS'#000000'
p3448
aF8.88595
aI0
aI01
aI00
aI00
aI00
aI00
aI00
aI00
aI00
aa(lp3449
I166771
aF313.411
aF462.381
aVp3
p3450
aS'utopia'
p3451
aS'#656565'
p3452
aF10.3669
aI1
aI01
aI00
aI00
aI00
aI00
aI00
aI00
aI00
aa(lp3453
I74833
aF369.689
aF462.381
aVp3
p3454
aS'utopia'
p3455
aS'#656565'
p3456
aF10.3669
aI1
aI01
aI00
aI00
aI00
aI00
aI00
aI00
aI00
aa(lp3457
I233758
aF313.411
aF478.038
aVp3
p3458
aS'utopia'
p3459
aS'#656565'
p3460
aF8.88595
aI0
aI01
aI00
aI00
aI00
aI00
aI00
aI00
aI00
aa(lp3461
I234378
aF347.0828222222222
aF478.038
ag3458
aS'utopia'
p3462
aS'#656565'
p3463
aF8.88595
aI0
aI00
aI00
aI00
aI00
aI00
aI00
aI00
aI00
aa(lp3464
I63091
aF353.398
aF478.038
aVp3
p3465
aS'utopia'
p3466
aS'#434343'
p3467
aF8.88595
aI0
aI01
aI00
aI00
aI00
aI00
aI00
aI00
aI00
aa(lp3468
I234378
aF370.429
aF478.038
aVp3
p3469
aS'utopia'
p3470
aS'#434343'
p3471
aF8.88595
aI0
aI01
aI00
aI00
aI00
aI00
aI00
aI00
aI00
aa(lp3472
I151511
aF313.411
aF493.588
aVp3
p3473
aS'utopia'
p3474
aS'#656565'
p3475
aF8.88595
aI0
aI01
aI00
aI00
aI00
aI00
aI00
aI00
aI00
aa(lp3476
I234378
aF354.138
aF493.588
aVp3
p3477
aS'utopia'
p3478
aS'#656565'
p3479
aF8.88595
aI0
aI01
aI00
aI00
aI00
aI00
aI00
aI00
aI00
aa(lp3480
I234378
aF395.9800909090909
aF493.588
ag3477
aS'utopia'
p3481
aS'#656565'
p3482
aF8.88595
aI0
aI00
aI00
aI00
aI00
aI00
aI00
aI00
aI00
aa(lp3483
I201816
aF402.27
aF493.588
aVp3
p3484
aS'utopia'
p3485
aS'#434343'
p3486
aF8.88595
aI0
aI01
aI00
aI00
aI00
aI00
aI00
aI00
aI00
aa(lp3487
I16915
aF308.227
aF158.884
aVp1
p3488
aS'utopia'
p3489
aS'#878787'
p3490
aF8.88595
aI0
aI01
aI00
aI00
aI00
aI00
aI00
aI00
aI00
aa(lp3491
I60220
aF330.442
aF158.884
aVp1
p3492
aS'utopia'
p3493
aS'#878787'
p3494
aF8.88595
aI0
aI01
aI00
aI00
aI00
aI00
aI00
aI00
aI00
aa(lp3495
I234378
aF372.28409090909093
aF158.884
ag3492
aS'utopia'
p3496
aS'#878787'
p3497
aF8.88595
aI0
aI00
aI00
aI00
aI00
aI00
aI00
aI00
aI00
aa(lp3498
I234378
aF380.796
aF158.884
aVp1
p3499
aS'utopia'
p3500
aS'#000000'
p3501
aF8.88595
aI0
aI00
aI00
aI01
aI01
aI00
aI00
aI00
aI00
aa(lp3502
I91136
aF387.46
aF158.884
aVp1
p3503
aS'utopia'
p3504
aS'#000000'
p3505
aF8.88595
aI0
aI01
aI00
aI00
aI00
aI00
aI00
aI00
aI00
aa(lp3506
I234378
aF403.18559999999997
aF158.884
ag3503
aS'utopia'
p3507
aS'#000000'
p3508
aF8.88595
aI0
aI00
aI00
aI00
aI00
aI00
aI00
aI00
aI00
aa(lp3509
I59734
aF407.11699999999996
aF158.884
ag3503
aS'utopia'
p3510
aS'#000000'
p3511
aF8.88595
aI0
aI00
aI00
aI00
aI00
aI00
aI00
aI00
aI00
aa(lp3512
I234378
aF411.04839999999996
aF158.884
ag3503
aS'utopia'
p3513
aS'#000000'
p3514
aF8.88595
aI0
aI00
aI00
aI00
aI00
aI00
aI00
aI00
aI00
aa(lp3515
I234378
aF417.08
aF158.884
aVp1
p3516
aS'utopia'
p3517
aS'#000000'
p3518
aF8.88595
aI0
aI00
aI00
aI01
aI01
aI00
aI00
aI00
aI00
aa(lp3519
I63729
aF423.745
aF158.884
aVp1
p3520
aS'utopia'
p3521
aS'#000000'
p3522
aF8.88595
aI0
aI01
aI00
aI00
aI00
aI00
aI00
aI00
aI00
aa(lp3523
I234378
aF446.4985625
aF158.884
ag3520
aS'utopia'
p3524
aS'#000000'
p3525
aF8.88595
aI0
aI00
aI00
aI00
aI00
aI00
aI00
aI00
aI00
aa(lp3526
I59734
aF451.04927499999997
aF158.884
ag3520
aS'utopia'
p3527
aS'#000000'
p3528
aF8.88595
aI0
aI00
aI00
aI00
aI00
aI00
aI00
aI00
aI00
aa(lp3529
I234378
aF455.59998749999994
aF158.884
ag3520
aS'utopia'
p3530
aS'#000000'
p3531
aF8.88595
aI0
aI00
aI00
aI00
aI00
aI00
aI00
aI00
aI00
aa(lp3532
I229300
aF308.227
aF176.656
aVp1
p3533
aS'utopia'
p3534
aS'#878787'
p3535
aF8.88595
aI0
aI01
aI00
aI00
aI00
aI00
aI00
aI00
aI00
aa(lp3536
I78894
aF338.588
aF176.656
aVp1
p3537
aS'utopia'
p3538
aS'#878787'
p3539
aF8.88595
aI0
aI01
aI00
aI00
aI00
aI00
aI00
aI00
aI00
aa(lp3540
I234378
aF360.9019142857143
aF176.656
ag3537
aS'utopia'
p3541
aS'#878787'
p3542
aF8.88595
aI0
aI00
aI00
aI00
aI00
aI00
aI00
aI00
aI00
aa(lp3543
I234378
aF368.948
aF176.656
aVp1
p3544
aS'utopia'
p3545
aS'#000000'
p3546
aF8.88595
aI0
aI01
aI00
aI00
aI00
aI00
aI00
aI00
aI00
aa(lp3547
I234378
aF380.796
aF176.656
aVp1
p3548
aS'utopia'
p3549
aS'#000000'
p3550
aF8.88595
aI0
aI00
aI00
aI01
aI01
aI01
aI00
aI00
aI00
aa(lp3551
I234378
aF388.6867
aF176.656
ag3548
aS'utopia'
p3552
aS'#000000'
p3553
aF8.88595
aI0
aI00
aI00
aI00
aI00
aI00
aI00
aI00
aI00
aa(lp3554
I234378
aF389.63205
aF176.656
ag3548
aS'utopia'
p3555
aS'#000000'
p3556
aF8.88595
aI0
aI00
aI00
aI01
aI01
aI00
aI00
aI00
aI00
aa(lp3557
I234378
aF398.568
aF176.656
aVp1
p3558
aS'utopia'
p3559
aS'#000000'
p3560
aF8.88595
aI0
aI01
aI00
aI00
aI00
aI00
aI00
aI00
aI00
aa(lp3561
I234378
aF308.227
aF194.428
aVp1
p3562
aS'utopia'
p3563
aS'#878787'
p3564
aF8.88595
aI0
aI01
aI00
aI00
aI00
aI00
aI00
aI00
aI00
aa(lp3565
I234378
aF346.733
aF194.428
aVp1
p3566
aS'utopia'
p3567
aS'#878787'
p3568
aF8.88595
aI0
aI01
aI01
aI00
aI00
aI00
aI00
aI00
aI00
aa(lp3569
I234378
aF361.2593
aF194.428
ag3566
aS'utopia'
p3570
aS'#878787'
p3571
aF8.88595
aI0
aI00
aI00
aI00
aI00
aI00
aI00
aI00
aI00
aa(lp3572
I63091
aF370.429
aF194.428
aVp1
p3573
aS'utopia'
p3574
aS'#000000'
p3575
aF8.88595
aI0
aI01
aI00
aI00
aI00
aI00
aI00
aI00
aI00
aa(lp3576
I234378
aF387.46
aF194.428
aVp1
p3577
aS'utopia'
p3578
aS'#000000'
p3579
aF8.88595
aI0
aI01
aI00
aI00
aI00
aI00
aI00
aI00
aI00
aa(lp3580
I7204
aF308.227
aF212.2
aVp1
p3581
aS'utopia'
p3582
aS'#878787'
p3583
aF8.88595
aI0
aI01
aI00
aI00
aI00
aI00
aI00
aI00
aI00
aa(lp3584
I189220
aF340.809
aF212.2
aVp1
p3585
aS'utopia'
p3586
aS'#878787'
p3587
aF8.88595
aI0
aI01
aI00
aI00
aI00
aI00
aI00
aI00
aI00
aa(lp3588
I234378
aF366.93111428571433
aF212.2
ag3585
aS'utopia'
p3589
aS'#878787'
p3590
aF8.88595
aI0
aI00
aI00
aI00
aI00
aI00
aI00
aI00
aI00
aa(lp3591
I27780
aF375.613
aF212.2
aVp1
p3592
aS'utopia'
p3593
aS'#000000'
p3594
aF8.88595
aI0
aI01
aI01
aI00
aI00
aI00
aI00
aI00
aI00
aa(lp3595
I234378
aF379.93184545454545
aF212.2
ag3592
aS'utopia'
p3596
aS'#000000'
p3597
aF8.88595
aI0
aI00
aI00
aI00
aI00
aI00
aI00
aI00
aI00
aa(lp3598
I2737
aF384.2506909090909
aF212.2
ag3592
aS'utopia'
p3599
aS'#000000'
p3600
aF8.88595
aI0
aI01
aI00
aI00
aI00
aI00
aI00
aI00
aI00
aa(lp3601
I234378
aF401.5260727272727
aF212.2
ag3592
aS'utopia'
p3602
aS'#000000'
p3603
aF8.88595
aI0
aI00
aI00
aI00
aI00
aI00
aI00
aI00
aI00
aa(lp3604
I27780
aF398.8449181818182
aF212.2
ag3592
aS'utopia'
p3605
aS'#000000'
p3606
aF8.88595
aI0
aI01
aI01
aI00
aI00
aI00
aI00
aI00
aI00
aa(lp3607
I234378
aF403.1637636363636
aF212.2
ag3592
aS'utopia'
p3608
aS'#000000'
p3609
aF8.88595
aI0
aI00
aI00
aI00
aI00
aI00
aI00
aI00
aI00
aa(lp3610
I64620
aF414.4826090909091
aF212.2
ag3592
aS'utopia'
p3611
aS'#000000'
p3612
aF8.88595
aI0
aI01
aI01
aI00
aI00
aI00
aI00
aI00
aI00
aa(lp3613
I234378
aF409.80145454545453
aF212.2
ag3592
aS'utopia'
p3614
aS'#000000'
p3615
aF8.88595
aI0
aI00
aI00
aI00
aI00
aI00
aI00
aI00
aI00
aa(lp3616
I48671
aF308.227
aF229.972
aVp1
p3617
aS'utopia'
p3618
aS'#878787'
p3619
aF8.88595
aI0
aI01
aI00
aI00
aI00
aI00
aI00
aI00
aI00
aa(lp3620
I129688
aF336.366
aF229.972
aVp1
p3621
aS'utopia'
p3622
aS'#878787'
p3623
aF8.88595
aI0
aI00
aI00
aI00
aI00
aI00
aI00
aI00
aI00
aa(lp3624
I234378
aF360.58405714285715
aF229.972
ag3621
aS'utopia'
p3625
aS'#878787'
p3626
aF8.88595
aI0
aI00
aI00
aI00
aI00
aI00
aI00
aI00
aI00
aa(lp3627
I234378
aF368.948
aF229.972
aVp1
p3628
aS'utopia'
p3629
aS'#000000'
p3630
aF8.88595
aI0
aI00
aI00
aI01
aI01
aI00
aI00
aI00
aI00
aa(lp3631
I234378
aF375.613
aF229.972
aVp1
p3632
aS'utopia'
p3633
aS'#000000'
p3634
aF8.88595
aI0
aI01
aI00
aI00
aI00
aI00
aI00
aI00
aI00
aa(lp3635
I1
aI1
aI0
aI0
aI0
aI0
aI0
aI0
aI0
aI0
aI0
aI0
aI0
aI0
aI0
aI0
aI0
aI0
aI0
aI0
aI0
aI0
aI0
aI0
aI0
aI0
aI0
aI0
aI0
aI0
aI0
aI0
aI0
aI0
aI0
aI0
aI0
aI0
aI0
aI0
aI0
aI0
aI0
aI0
aI0
aI0
aI0
aI0
aI0
aI0
aI0
aI0
aI0
aI0
aI0
aI0
aI0
aI0
aI0
aI0
aI0
aI0
aI0
aI0
aI0
aI0
aI0
aI0
aI0
aI0
aI0
aI0
aI0
aI0
aI0
aI0
aI0
aI0
aI0
aI0
aI0
aI0
aI0
aI0
aI0
aI0
aI0
aI0
aI0
aI0
aI0
aI0
aI0
aI0
aI0
aI0
aI0
aI0
aI0
aI0
aI0
aI0
aI0
aI0
aI0
aI0
aI0
aI0
aI0
aI0
aI0
aI0
aI0
aI0
aI0
aI1
aI1
aI0
aI0
aI0
aI0
aI0
aI0
aI0
aI0
aI0
aI0
aI0
aI0
aI0
aI0
aI0
aI0
aI0
aI0
aI0
aI0
aI0
aI0
aI0
aI0
aI0
aI0
aI0
aI0
aI0
aI0
aI0
aI0
aI0
aI0
aI0
aI0
aI0
aI0
aI0
aI0
aI0
aI0
aI0
aI0
aI0
aI0
aI0
aI0
aI0
aI0
aI0
aI0
aI0
aI0
aI0
aI0
aI0
aI0
aI0
aI0
aI0
aI0
aI0
aI0
aI0
aI0
aI0
aI0
aI0
aI0
aI0
aI0
aI0
aI0
aI0
aI0
aI0
aI0
aI0
aI0
aI0
aI0
aI0
aI0
aI0
aI0
aI0
aI0
aI0
aI0
aI0
aI0
aI0
aI0
aI0
aI0
aI0
aI0
aI0
aI0
aI0
aI0
aI0
aI0
aI0
aI0
aI0
aI0
aI0
aI0
aI0
aI0
aI0
aI0
aI0
aI0
aI0
aI0
aI0
aI0
aI0
aI0
aI0
aI0
aI0
aI0
aI0
aI0
aI0
aI0
aI0
aI0
aI0
aI0
aI0
aI0
aI0
aI0
aI0
aI0
aI0
aI0
aI0
aI0
aI0
aI0
aI0
aI0
aI0
aI0
aI0
aI0
aI0
aI0
aI0
aI0
aI0
aI0
aI0
aI0
aI0
aI0
aI0
aI0
aI0
aI0
aI0
aI0
aI0
aI0
aI0
aI0
aI0
aI0
aI0
aI0
aI0
aI0
aI0
aI0
aI0
aI0
aI0
aI0
aI0
aI0
aI0
aI0
aI0
aI0
aI0
aI0
aI0
aI0
aI0
aI0
aI0
aI0
aI0
aI0
aI0
aI0
aI0
aI0
aI0
aI0
aI0
aI0
aI0
aI0
aI0
aI0
aI0
aI0
aI0
aI0
aI0
aI0
aI0
aI0
aI0
aI0
aI0
aI0
aI0
aI0
aI0
aI0
aI0
aI0
aI0
aI0
aI0
aI0
aI0
aI0
aI0
aI0
aI0
aI0
aI0
aI0
aI0
aI0
aI0
aI0
aI0
aI0
aI0
aI0
aI0
aI0
aI0
aI0
aI0
aI0
aI0
aI0
aI0
aI0
aI0
aI0
aI0
aI0
aI0
aI0
aI0
aI0
aI0
aI0
aI0
aI0
aI0
aI0
aI0
aI0
aI0
aI0
aI0
aI0
aI0
aI0
aI0
aI0
aI0
aI0
aI0
aI0
aI0
aI0
aI0
aI0
aI0
aI0
aI0
aI0
aI0
aI0
aI0
aI0
aI0
aI0
aI0
aI0
aI0
aI0
aI0
aI0
aI0
aI0
aI0
aI0
aI0
aI0
aI0
aI0
aI0
aI0
aI0
aI0
aI0
aI0
aI0
aI0
aI0
aI0
aI0
aI0
aI0
aI0
aI0
aI0
aI0
aI0
aI0
aI0
aI0
aI0
aI0
aI0
aI0
aI0
aI0
aI0
aI0
aI0
aI0
aI0
aI0
aI0
aI0
aI0
aI0
aI0
aI0
aI0
aI0
aI0
aI0
aI0
aI0
aI0
aI0
aI0
aI0
aI0
aI0
aI0
aI0
aI0
aI0
aI0
aI0
aI0
aI0
aI0
aI0
aI0
aI0
aI0
aI0
aI0
aI0
aI0
aI0
aI0
aI0
aI0
aI0
aI0
aI0
aI0
aI0
aI0
aI0
aI0
aI0
aI0
aI0
aI0
aI0
aI0
aI0
aI0
aI0
aI0
aI0
aI0
aI0
aI0
aI0
aI0
aI0
aI0
aI0
aI0
aI0
aI0
aI0
aI0
aI0
aI0
aI0
aI0
aI0
aI0
aI0
aI0
aI0
aI0
aI0
aI0
aI0
aI0
aI0
aI0
aI0
aI0
aI0
aI0
aI0
aI0
aI0
aI0
aI0
aI0
aI0
aI0
aI0
aI0
aI0
aI0
aI0
aI0
aI0
aI0
aI0
aI0
aI0
aI0
aI0
aI0
aI0
aI0
aI0
aI0
aI0
aI0
aI0
aI0
aI0
aI0
aI0
aI0
aI0
aI0
aI0
aI0
aI0
aI0
aI0
aI0
aI0
aI0
aI0
aI0
aI0
aI0
aI0
aI0
aI0
aI0
aI0
aI0
aI0
aI0
aI0
aI0
aI0
aI0
aI0
aI0
aI0
aI0
aI0
aI0
aI0
aI0
aI0
aI0
aI0
aI0
aI0
aI0
aI0
aI0
aI0
aI0
aI0
aI0
aI0
aI0
aI0
aI0
aI0
aI0
aI0
aI0
aI0
aI0
aI0
aI0
aI0
aI0
aI0
aI0
aI0
aI0
aI0
aI0
aI0
aI0
aI0
aI0
aI0
aI0
aI0
aI0
aI0
aI0
aI0
aI0
aI0
aI0
aI0
aI0
aI0
aI0
aI0
aI0
aI0
aI0
aI0
aI0
aI0
aI0
aI0
aI0
aI0
aI0
aI0
aI0
aI0
aI0
aI0
aI0
aI0
aI0
aI0
aI0
aI0
aI0
aI0
aI0
aI0
aI0
aI0
aI0
aI0
aI0
aI0
aI0
aI0
aI0
aI0
aI0
aI0
aI0
aI0
aI0
aI0
aI0
aI0
aI0
aI0
aI0
aI0
aI0
aI0
aI1
aI0
aI0
aI0
aI0
aI0
aI0
aI0
aI0
aI0
aI0
aI0
aI0
aI0
aI0
aI0
aI0
aI0
aI0
aI0
aI0
aI0
aI0
aI0
aI0
aI0
aI0
aI0
aI0
aI0
aI0
aI0
aI0
aI0
aI0
aI0
aI0
aI0
aI0
aI0
aI0
aI0
aI1
aI1
aI0
aI0
aI0
aI0
aI0
aI0
aI0
aI0
aI0
aI0
aI0
aI0
aI0
aI0
aI0
aI0
aI0
aI0
aI0
aI0
aI0
aI0
aI0
aI0
aI0
aI0
aI0
aI0
aI0
aI0
aI0
aI0
aI0
aI0
aI0
aI0
aI0
aI0
aI0
aI0
aI0
aI0
aI0
aI0
aI0
aI0
aI0
aI0
aI0
aI0
aI0
aI0
aI0
aI0
aI0
aI0
aI0
aI0
aI0
aI0
aI0
aI1
aI1
aI0
aI0
aI0
aI0
aI0
aI0
aI0
aI0
aI1
aI0
aI0
aI0
aI1
aI1
aI0
aI0
aI0
aI0
aI0
aI0
aI0
aI0
aI0
aI0
aI0
aI0
aI0
aI0
aI0
aI0
aI0
aI0
aI0
aI0
aI0
aI0
aI0
aI0
aI0
aI0
aI0
aI0
aI0
aI0
aI0
aI0
aI0
aI0
aI0
aI0
aI0
aI0
aI0
aI0
aI0
aI0
aI0
aI0
aI0
aI0
aI0
aI0
aI0
aI0
aI0
aI0
aI0
aI0
aI0
aI0
aI0
aI0
aI0
aI0
aI0
aI0
aI0
aI0
aI0
aI0
aI0
aI0
aI0
aI0
aI0
aI0
aI0
aI0
aI0
aI0
aI0
aI0
aI0
aI0
aI0
aI0
aI0
aI0
aI0
aI0
aI0
aI0
aI0
aI0
aI0
aI0
aI0
aI0
aI0
aI0
aI0
aI0
aI0
aI0
aI0
aI0
aI0
aI0
aI0
aI0
aI0
aI0
aI0
aI0
aI0
aI0
aI0
aI0
aI0
aI0
atp3636
.