((lp0
(lp1
I234378
aF40.9084
aF53.0111
aVp1
p2
aS'utopia'
p3
aS'#02304b'
p4
aF11.8479
aI1
aI01
aI00
aI00
aI00
aI00
aI00
aI00
aI00
aa(lp5
I234378
aF46.8324
aF74.4677
aVp1
p6
aS'utopia'
p7
aS'#656565'
p8
aF8.88595
aI0
aI01
aI00
aI00
aI00
aI00
aI00
aI00
aI00
aa(lp9
I68032
aF83.8572
aF74.4677
aVp1
p10
aS'utopia'
p11
aS'#656565'
p12
aF8.88595
aI0
aI01
aI00
aI00
aI00
aI00
aI00
aI00
aI00
aa(lp13
I135639
aF139.394
aF74.4677
aVp1
p14
aS'utopia'
p15
aS'#656565'
p16
aF8.88595
aI0
aI00
aI00
aI00
aI00
aI00
aI00
aI00
aI00
aa(lp17
I84662
aF149.021
aF74.4677
aVp1
p18
aS'utopia'
p19
aS'#656565'
p20
aF8.88595
aI0
aI01
aI00
aI00
aI00
aI00
aI00
aI00
aI00
aa(lp21
I21716
aF170.495
aF74.4677
aVp1
p22
aS'utopia'
p23
aS'#656565'
p24
aF8.88595
aI0
aI01
aI00
aI00
aI00
aI00
aI00
aI00
aI00
aa(lp25
I234378
aF185.39732
aF74.4677
ag22
aS'utopia'
p26
aS'#656565'
p27
aF8.88595
aI0
aI00
aI00
aI00
aI00
aI00
aI00
aI00
aI00
aa(lp28
I77592
aF191.229
aF74.4677
aVp1
p29
aS'utopia'
p30
aS'#656565'
p31
aF8.88595
aI0
aI01
aI00
aI00
aI00
aI00
aI00
aI00
aI00
aa(lp32
I48371
aF223.07
aF74.4677
aVp1
p33
aS'utopia'
p34
aS'#656565'
p35
aF8.88595
aI0
aI01
aI00
aI00
aI00
aI00
aI00
aI00
aI00
aa(lp36
I234378
aF247.507
aF74.4677
aVp1
p37
aS'utopia'
p38
aS'#656565'
p39
aF8.88595
aI0
aI00
aI00
aI00
aI00
aI00
aI00
aI00
aI00
aa(lp40
I77592
aF251.95
aF74.4677
aVp1
p41
aS'utopia'
p42
aS'#656565'
p43
aF8.88595
aI0
aI01
aI00
aI00
aI00
aI00
aI00
aI00
aI00
aa(lp44
I45106
aF283.791
aF74.4677
aVp1
p45
aS'utopia'
p46
aS'#656565'
p47
aF8.88595
aI0
aI01
aI00
aI00
aI00
aI00
aI00
aI00
aI00
aa(lp48
I234378
aF304.2509166666667
aF74.4677
ag45
aS'utopia'
p49
aS'#656565'
p50
aF8.88595
aI0
aI00
aI00
aI00
aI00
aI00
aI00
aI00
aI00
aa(lp51
I89217
aF310.449
aF74.4677
aVp1
p52
aS'utopia'
p53
aS'#656565'
p54
aF8.88595
aI0
aI01
aI00
aI00
aI00
aI00
aI00
aI00
aI00
aa(lp55
I119502
aF329.702
aF74.4677
aVp1
p56
aS'utopia'
p57
aS'#656565'
p58
aF8.88595
aI0
aI01
aI00
aI00
aI00
aI00
aI00
aI00
aI00
aa(lp59
I234378
aF356.368325
aF74.4677
ag56
aS'utopia'
p60
aS'#656565'
p61
aF8.88595
aI0
aI00
aI00
aI00
aI00
aI00
aI00
aI00
aI00
aa(lp62
I97333
aF362.284
aF74.4677
aVp1
p63
aS'utopia'
p64
aS'#656565'
p65
aF8.88595
aI0
aI01
aI00
aI00
aI00
aI00
aI00
aI00
aI00
aa(lp66
I234378
aF408.935
aF74.4677
aVp1
p67
aS'utopia'
p68
aS'#656565'
p69
aF8.88595
aI0
aI01
aI00
aI00
aI00
aI00
aI00
aI00
aI00
aa(lp70
I234378
aF438.8410125
aF74.4677
ag67
aS'utopia'
p71
aS'#656565'
p72
aF8.88595
aI0
aI00
aI00
aI00
aI00
aI00
aI00
aI00
aI00
aa(lp73
I144690
aF40.9084
aF84.8346
aVp1
p74
aS'utopia'
p75
aS'#656565'
p76
aF8.88595
aI0
aI01
aI00
aI00
aI00
aI00
aI00
aI00
aI00
aa(lp77
I157010
aF69.7878
aF84.8346
aVp1
p78
aS'utopia'
p79
aS'#656565'
p80
aF8.88595
aI0
aI01
aI00
aI00
aI00
aI00
aI00
aI00
aI00
aa(lp81
I234378
aF97.1020625
aF84.8346
ag78
aS'utopia'
p82
aS'#656565'
p83
aF8.88595
aI0
aI00
aI00
aI00
aI00
aI00
aI00
aI00
aI00
aa(lp84
I234378
aF103.11
aF84.8346
aVp1
p85
aS'utopia'
p86
aS'#656565'
p87
aF8.88595
aI0
aI01
aI01
aI00
aI00
aI00
aI00
aI00
aI00
aa(lp88
I234378
aF122.15912
aF84.8346
ag85
aS'utopia'
p89
aS'#656565'
p90
aF8.88595
aI0
aI00
aI00
aI00
aI00
aI00
aI00
aI00
aI00
aa(lp91
I234378
aF129.027
aF84.8346
aVp1
p92
aS'utopia'
p93
aS'#656565'
p94
aF8.88595
aI0
aI01
aI01
aI00
aI00
aI00
aI00
aI00
aI00
aa(lp95
I234378
aF146.330175
aF84.8346
ag92
aS'utopia'
p96
aS'#656565'
p97
aF8.88595
aI0
aI00
aI00
aI00
aI00
aI00
aI00
aI00
aI00
aa(lp98
I234378
aF154.204
aF84.8346
aVp1
p99
aS'utopia'
p100
aS'#656565'
p101
aF8.88595
aI0
aI01
aI00
aI00
aI00
aI00
aI00
aI00
aI00
aa(lp102
I234378
aF175.37234375
aF84.8346
ag99
aS'utopia'
p103
aS'#656565'
p104
aF8.88595
aI0
aI00
aI00
aI00
aI00
aI00
aI00
aI00
aI00
aa(lp105
I234378
aF211.6753625
aF84.8346
ag99
aS'utopia'
p106
aS'#656565'
p107
aF8.88595
aI0
aI00
aI00
aI00
aI00
aI00
aI00
aI00
aI00
aa(lp108
I234378
aF220.849
aF84.8346
aVp1
p109
aS'utopia'
p110
aS'#656565'
p111
aF8.88595
aI0
aI01
aI00
aI00
aI00
aI00
aI00
aI00
aI00
aa(lp112
I234378
aF273.9017214285714
aF84.8346
ag109
aS'utopia'
p113
aS'#656565'
p114
aF8.88595
aI0
aI00
aI00
aI00
aI00
aI00
aI00
aI00
aI00
aa(lp115
I227584
aF280.089
aF84.8346
aVp1
p116
aS'utopia'
p117
aS'#656565'
p118
aF8.88595
aI0
aI01
aI00
aI00
aI00
aI00
aI00
aI00
aI00
aa(lp119
I234378
aF301.563
aF84.8346
aVp1
p120
aS'utopia'
p121
aS'#656565'
p122
aF8.88595
aI0
aI00
aI00
aI00
aI00
aI00
aI00
aI00
aI00
aa(lp123
I112493
aF305.29361666666665
aF84.8346
ag120
aS'utopia'
p124
aS'#656565'
p125
aF8.88595
aI0
aI01
aI00
aI00
aI00
aI00
aI00
aI00
aI00
aa(lp126
I234378
aF59.4208
aF122.6
aVp1
p127
aS'utopia'
p128
aS'#0d75b4'
p129
aF8.88595
aI0
aI00
aI00
aI00
aI00
aI00
aI01
aI00
aI00
aa(lp130
I234378
aF59.4208
aF139.631
aVp1
p131
aS'utopia'
p132
aS'#0d75b4'
p133
aF8.88595
aI0
aI00
aI00
aI00
aI00
aI00
aI01
aI00
aI00
aa(lp134
I234378
aF301.563
aF130.745
aVp1
p135
aS'utopia'
p136
aS'#000000'
p137
aF8.88595
aI0
aI00
aI00
aI01
aI01
aI01
aI00
aI00
aI00
aa(lp138
I15548
aF55.7183
aF172.213
aVp1
p139
aS'utopia'
p140
aS'#878787'
p141
aF8.88595
aI0
aI01
aI00
aI00
aI00
aI00
aI00
aI00
aI00
aa(lp142
I104542
aF89.0407
aF172.213
aVp1
p143
aS'utopia'
p144
aS'#878787'
p145
aF8.88595
aI0
aI01
aI00
aI00
aI00
aI00
aI00
aI00
aI00
aa(lp146
I234378
aF133.94655
aF172.213
ag143
aS'utopia'
p147
aS'#878787'
p148
aF8.88595
aI0
aI00
aI00
aI00
aI00
aI00
aI00
aI00
aI00
aa(lp149
I234378
aF142.356
aF172.213
aVp1
p150
aS'utopia'
p151
aS'#000000'
p152
aF8.88595
aI0
aI01
aI00
aI00
aI00
aI00
aI00
aI00
aI00
aa(lp153
I68032
aF179.381
aF172.213
aVp1
p154
aS'utopia'
p155
aS'#000000'
p156
aF8.88595
aI0
aI01
aI00
aI00
aI00
aI00
aI00
aI00
aI00
aa(lp157
I132100
aF234.918
aF172.213
aVp1
p158
aS'utopia'
p159
aS'#000000'
p160
aF8.88595
aI0
aI01
aI00
aI00
aI00
aI00
aI00
aI00
aI00
aa(lp161
I16915
aF308.227
aF172.213
aVp1
p162
aS'utopia'
p163
aS'#878787'
p164
aF8.88595
aI0
aI01
aI00
aI00
aI00
aI00
aI00
aI00
aI00
aa(lp165
I60220
aF330.442
aF172.213
aVp1
p166
aS'utopia'
p167
aS'#878787'
p168
aF8.88595
aI0
aI01
aI00
aI00
aI00
aI00
aI00
aI00
aI00
aa(lp169
I234378
aF372.28409090909093
aF172.213
ag166
aS'utopia'
p170
aS'#878787'
p171
aF8.88595
aI0
aI00
aI00
aI00
aI00
aI00
aI00
aI00
aI00
aa(lp172
I234378
aF380.796
aF172.213
aVp1
p173
aS'utopia'
p174
aS'#000000'
p175
aF8.88595
aI0
aI00
aI00
aI01
aI01
aI00
aI00
aI00
aI00
aa(lp176
I91136
aF387.46
aF172.213
aVp1
p177
aS'utopia'
p178
aS'#000000'
p179
aF8.88595
aI0
aI01
aI00
aI00
aI00
aI00
aI00
aI00
aI00
aa(lp180
I234378
aF403.18559999999997
aF172.213
ag177
aS'utopia'
p181
aS'#000000'
p182
aF8.88595
aI0
aI00
aI00
aI00
aI00
aI00
aI00
aI00
aI00
aa(lp183
I59734
aF407.11699999999996
aF172.213
ag177
aS'utopia'
p184
aS'#000000'
p185
aF8.88595
aI0
aI00
aI00
aI00
aI00
aI00
aI00
aI00
aI00
aa(lp186
I234378
aF411.04839999999996
aF172.213
ag177
aS'utopia'
p187
aS'#000000'
p188
aF8.88595
aI0
aI00
aI00
aI00
aI00
aI00
aI00
aI00
aI00
aa(lp189
I234378
aF417.08
aF172.213
aVp1
p190
aS'utopia'
p191
aS'#000000'
p192
aF8.88595
aI0
aI00
aI00
aI01
aI01
aI00
aI00
aI00
aI00
aa(lp193
I63729
aF423.745
aF172.213
aVp1
p194
aS'utopia'
p195
aS'#000000'
p196
aF8.88595
aI0
aI01
aI00
aI00
aI00
aI00
aI00
aI00
aI00
aa(lp197
I234378
aF446.4985625
aF172.213
ag194
aS'utopia'
p198
aS'#000000'
p199
aF8.88595
aI0
aI00
aI00
aI00
aI00
aI00
aI00
aI00
aI00
aa(lp200
I59734
aF451.04927499999997
aF172.213
ag194
aS'utopia'
p201
aS'#000000'
p202
aF8.88595
aI0
aI00
aI00
aI00
aI00
aI00
aI00
aI00
aI00
aa(lp203
I234378
aF455.59998749999994
aF172.213
ag194
aS'utopia'
p204
aS'#000000'
p205
aF8.88595
aI0
aI00
aI00
aI00
aI00
aI00
aI00
aI00
aI00
aa(lp206
I15548
aF55.7183
aF189.985
aVp1
p207
aS'utopia'
p208
aS'#878787'
p209
aF8.88595
aI0
aI01
aI00
aI00
aI00
aI00
aI00
aI00
aI00
aa(lp210
I2006
aF89.0407
aF189.985
aVp1
p211
aS'utopia'
p212
aS'#878787'
p213
aF8.88595
aI0
aI01
aI00
aI00
aI00
aI00
aI00
aI00
aI00
aa(lp214
I234378
aF124.77815
aF189.985
ag211
aS'utopia'
p215
aS'#878787'
p216
aF8.88595
aI0
aI00
aI00
aI00
aI00
aI00
aI00
aI00
aI00
aa(lp217
I160422
aF134.211
aF189.985
aVp1
p218
aS'utopia'
p219
aS'#000000'
p220
aF8.88595
aI0
aI01
aI00
aI00
aI00
aI00
aI00
aI00
aI00
aa(lp221
I127730
aF160.128
aF189.985
aVp1
p222
aS'utopia'
p223
aS'#000000'
p224
aF8.88595
aI0
aI01
aI00
aI00
aI00
aI00
aI00
aI00
aI00
aa(lp225
I229300
aF308.227
aF189.985
aVp1
p226
aS'utopia'
p227
aS'#878787'
p228
aF8.88595
aI0
aI01
aI00
aI00
aI00
aI00
aI00
aI00
aI00
aa(lp229
I78894
aF338.588
aF189.985
aVp1
p230
aS'utopia'
p231
aS'#878787'
p232
aF8.88595
aI0
aI01
aI00
aI00
aI00
aI00
aI00
aI00
aI00
aa(lp233
I234378
aF360.9019142857143
aF189.985
ag230
aS'utopia'
p234
aS'#878787'
p235
aF8.88595
aI0
aI00
aI00
aI00
aI00
aI00
aI00
aI00
aI00
aa(lp236
I234378
aF368.948
aF189.985
aVp1
p237
aS'utopia'
p238
aS'#000000'
p239
aF8.88595
aI0
aI01
aI00
aI00
aI00
aI00
aI00
aI00
aI00
aa(lp240
I234378
aF380.796
aF189.985
aVp1
p241
aS'utopia'
p242
aS'#000000'
p243
aF8.88595
aI0
aI00
aI00
aI01
aI01
aI01
aI00
aI00
aI00
aa(lp244
I234378
aF388.88576
aF189.985
ag241
aS'utopia'
p245
aS'#000000'
p246
aF8.88595
aI0
aI00
aI00
aI00
aI00
aI00
aI00
aI00
aI00
aa(lp247
I234378
aF392.93064
aF189.985
ag241
aS'utopia'
p248
aS'#000000'
p249
aF8.88595
aI0
aI00
aI00
aI01
aI01
aI01
aI00
aI00
aI00
aa(lp250
I234378
aF403.011
aF189.985
aVp1
p251
aS'utopia'
p252
aS'#000000'
p253
aF8.88595
aI0
aI01
aI00
aI00
aI00
aI00
aI00
aI00
aI00
aa(lp254
I15548
aF55.7183
aF207.757
aVp1
p255
aS'utopia'
p256
aS'#878787'
p257
aF8.88595
aI0
aI01
aI00
aI00
aI00
aI00
aI00
aI00
aI00
aa(lp258
I17057
aF89.0407
aF207.757
aVp1
p259
aS'utopia'
p260
aS'#878787'
p261
aF8.88595
aI0
aI01
aI00
aI00
aI00
aI00
aI00
aI00
aI00
aa(lp262
I234378
aF122.05430000000001
aF207.757
ag259
aS'utopia'
p263
aS'#878787'
p264
aF8.88595
aI0
aI00
aI00
aI00
aI00
aI00
aI00
aI00
aI00
aa(lp265
I234378
aF130.508
aF207.757
aVp1
p266
aS'utopia'
p267
aS'#000000'
p268
aF8.88595
aI0
aI01
aI00
aI00
aI00
aI00
aI00
aI00
aI00
aa(lp269
I234378
aF173.457
aF207.757
aVp1
p270
aS'utopia'
p271
aS'#000000'
p272
aF8.88595
aI0
aI00
aI00
aI00
aI00
aI00
aI00
aI00
aI00
aa(lp273
I234378
aF180.122
aF207.757
aVp1
p274
aS'utopia'
p275
aS'#000000'
p276
aF8.88595
aI0
aI01
aI00
aI00
aI00
aI00
aI00
aI00
aI00
aa(lp277
I234378
aF308.227
aF207.757
aVp1
p278
aS'utopia'
p279
aS'#878787'
p280
aF8.88595
aI0
aI01
aI00
aI00
aI00
aI00
aI00
aI00
aI00
aa(lp281
I234378
aF346.733
aF207.757
aVp1
p282
aS'utopia'
p283
aS'#878787'
p284
aF8.88595
aI0
aI01
aI01
aI00
aI00
aI00
aI00
aI00
aI00
aa(lp285
I234378
aF361.2593
aF207.757
ag282
aS'utopia'
p286
aS'#878787'
p287
aF8.88595
aI0
aI00
aI00
aI00
aI00
aI00
aI00
aI00
aI00
aa(lp288
I63091
aF370.429
aF207.757
aVp1
p289
aS'utopia'
p290
aS'#000000'
p291
aF8.88595
aI0
aI01
aI00
aI00
aI00
aI00
aI00
aI00
aI00
aa(lp292
I234378
aF387.46
aF207.757
aVp1
p293
aS'utopia'
p294
aS'#000000'
p295
aF8.88595
aI0
aI01
aI00
aI00
aI00
aI00
aI00
aI00
aI00
aa(lp296
I234378
aF55.7183
aF225.529
aVp1
p297
aS'utopia'
p298
aS'#878787'
p299
aF8.88595
aI0
aI01
aI00
aI00
aI00
aI00
aI00
aI00
aI00
aa(lp300
I234378
aF70.62062
aF225.529
ag297
aS'utopia'
p301
aS'#878787'
p302
aF8.88595
aI0
aI00
aI00
aI00
aI00
aI00
aI00
aI00
aI00
aa(lp303
I17057
aF76.4522
aF225.529
aVp1
p304
aS'utopia'
p305
aS'#878787'
p306
aF8.88595
aI0
aI01
aI00
aI00
aI00
aI00
aI00
aI00
aI00
aa(lp307
I234378
aF109.4658
aF225.529
ag304
aS'utopia'
p308
aS'#878787'
p309
aF8.88595
aI0
aI00
aI00
aI00
aI00
aI00
aI00
aI00
aI00
aa(lp310
I234378
aF117.92
aF225.529
aVp1
p311
aS'utopia'
p312
aS'#000000'
p313
aF8.88595
aI0
aI01
aI00
aI00
aI00
aI00
aI00
aI00
aI00
aa(lp314
I234378
aF160.869
aF225.529
aVp1
p315
aS'utopia'
p316
aS'#000000'
p317
aF8.88595
aI0
aI00
aI00
aI00
aI00
aI00
aI00
aI00
aI00
aa(lp318
I234378
aF167.533
aF225.529
aVp1
p319
aS'utopia'
p320
aS'#000000'
p321
aF8.88595
aI0
aI01
aI00
aI00
aI00
aI00
aI00
aI00
aI00
aa(lp322
I234378
aF205.62442
aF225.529
ag319
aS'utopia'
p323
aS'#000000'
p324
aF8.88595
aI0
aI00
aI00
aI00
aI00
aI00
aI00
aI00
aI00
aa(lp325
I70852
aF211.963
aF225.529
aVp1
p326
aS'utopia'
p327
aS'#000000'
p328
aF8.88595
aI0
aI01
aI00
aI00
aI00
aI00
aI00
aI00
aI00
aa(lp329
I234378
aF234.918
aF225.529
aVp1
p330
aS'utopia'
p331
aS'#000000'
p332
aF8.88595
aI0
aI00
aI00
aI00
aI00
aI00
aI00
aI00
aI00
aa(lp333
I234378
aF241.583
aF225.529
aVp1
p334
aS'utopia'
p335
aS'#000000'
p336
aF8.88595
aI0
aI01
aI01
aI00
aI00
aI00
aI00
aI00
aI00
aa(lp337
I234378
aF257.22005
aF225.529
ag334
aS'utopia'
p338
aS'#000000'
p339
aF8.88595
aI0
aI00
aI00
aI00
aI00
aI00
aI00
aI00
aI00
aa(lp340
I234378
aF264.538
aF225.529
aVp1
p341
aS'utopia'
p342
aS'#000000'
p343
aF8.88595
aI0
aI01
aI00
aI00
aI00
aI00
aI00
aI00
aI00
aa(lp344
I7204
aF308.227
aF225.529
aVp1
p345
aS'utopia'
p346
aS'#878787'
p347
aF8.88595
aI0
aI01
aI00
aI00
aI00
aI00
aI00
aI00
aI00
aa(lp348
I189220
aF340.809
aF225.529
aVp1
p349
aS'utopia'
p350
aS'#878787'
p351
aF8.88595
aI0
aI01
aI00
aI00
aI00
aI00
aI00
aI00
aI00
aa(lp352
I234378
aF366.93111428571433
aF225.529
ag349
aS'utopia'
p353
aS'#878787'
p354
aF8.88595
aI0
aI00
aI00
aI00
aI00
aI00
aI00
aI00
aI00
aa(lp355
I177271
aF375.613
aF225.529
aVp1
p356
aS'utopia'
p357
aS'#000000'
p358
aF8.88595
aI0
aI01
aI00
aI00
aI00
aI00
aI00
aI00
aI00
aa(lp359
I98580
aF55.7183
aF243.301
aVp1
p360
aS'utopia'
p361
aS'#878787'
p362
aF8.88595
aI0
aI01
aI00
aI00
aI00
aI00
aI00
aI00
aI00
aa(lp363
I166289
aF100.148
aF243.301
aVp1
p364
aS'utopia'
p365
aS'#878787'
p366
aF8.88595
aI0
aI01
aI00
aI00
aI00
aI00
aI00
aI00
aI00
aa(lp367
I234378
aF116.82751999999999
aF243.301
ag364
aS'utopia'
p368
aS'#878787'
p369
aF8.88595
aI0
aI00
aI00
aI00
aI00
aI00
aI00
aI00
aI00
aa(lp370
I22476
aF125.325
aF243.301
aVp1
p371
aS'utopia'
p372
aS'#000000'
p373
aF8.88595
aI0
aI01
aI01
aI00
aI00
aI00
aI00
aI00
aI00
aa(lp374
I234378
aF135.692
aF243.301
aVp1
p375
aS'utopia'
p376
aS'#000000'
p377
aF8.88595
aI0
aI01
aI00
aI00
aI00
aI00
aI00
aI00
aI00
aa(lp378
I123665
aF178.641
aF243.301
aVp1
p379
aS'utopia'
p380
aS'#000000'
p381
aF8.88595
aI0
aI01
aI00
aI00
aI00
aI00
aI00
aI00
aI00
aa(lp382
I234378
aF226.032
aF243.301
aVp1
p383
aS'utopia'
p384
aS'#000000'
p385
aF8.88595
aI0
aI01
aI00
aI00
aI00
aI00
aI00
aI00
aI00
aa(lp386
I234378
aF283.051
aF243.301
aVp1
p387
aS'utopia'
p388
aS'#000000'
p389
aF8.88595
aI0
aI00
aI00
aI00
aI00
aI00
aI00
aI00
aI00
aa(lp390
I20593
aF55.7183
aF253.668
aVp1
p391
aS'utopia'
p392
aS'#000000'
p393
aF8.88595
aI0
aI01
aI00
aI00
aI00
aI00
aI00
aI00
aI00
aa(lp394
I48671
aF308.227
aF243.301
aVp1
p395
aS'utopia'
p396
aS'#878787'
p397
aF8.88595
aI0
aI01
aI00
aI00
aI00
aI00
aI00
aI00
aI00
aa(lp398
I129688
aF336.366
aF243.301
aVp1
p399
aS'utopia'
p400
aS'#878787'
p401
aF8.88595
aI0
aI00
aI00
aI00
aI00
aI00
aI00
aI00
aI00
aa(lp402
I234378
aF360.58405714285715
aF243.301
ag399
aS'utopia'
p403
aS'#878787'
p404
aF8.88595
aI0
aI00
aI00
aI00
aI00
aI00
aI00
aI00
aI00
aa(lp405
I234378
aF368.948
aF243.301
aVp1
p406
aS'utopia'
p407
aS'#000000'
p408
aF8.88595
aI0
aI00
aI00
aI01
aI01
aI00
aI00
aI00
aI00
aa(lp409
I234378
aF375.613
aF243.301
aVp1
p410
aS'utopia'
p411
aS'#000000'
p412
aF8.88595
aI0
aI01
aI00
aI00
aI00
aI00
aI00
aI00
aI00
aa(lp413
I176435
aF55.7183
aF271.44
aVp1
p414
aS'utopia'
p415
aS'#878787'
p416
aF8.88595
aI0
aI01
aI00
aI00
aI00
aI00
aI00
aI00
aI00
aa(lp417
I234378
aF71.80542
aF271.44
ag414
aS'utopia'
p418
aS'#878787'
p419
aF8.88595
aI0
aI00
aI00
aI00
aI00
aI00
aI00
aI00
aI00
aa(lp420
I234378
aF80.1547
aF271.44
aVp1
p421
aS'utopia'
p422
aS'#000000'
p423
aF8.88595
aI0
aI01
aI00
aI00
aI00
aI00
aI00
aI00
aI00
aa(lp424
I100815
aF117.18
aF271.44
aVp1
p425
aS'utopia'
p426
aS'#000000'
p427
aF8.88595
aI0
aI01
aI00
aI00
aI00
aI00
aI00
aI00
aI00
aa(lp428
I74589
aF55.7183
aF289.211
aVp1
p429
aS'utopia'
p430
aS'#878787'
p431
aF8.88595
aI0
aI01
aI00
aI00
aI00
aI00
aI00
aI00
aI00
aa(lp432
I234378
aF87.41545555555555
aF289.211
ag429
aS'utopia'
p433
aS'#878787'
p434
aF8.88595
aI0
aI00
aI00
aI00
aI00
aI00
aI00
aI00
aI00
aa(lp435
I22476
aF95.7051
aF289.211
aVp1
p436
aS'utopia'
p437
aS'#000000'
p438
aF8.88595
aI0
aI01
aI01
aI00
aI00
aI00
aI00
aI00
aI00
aa(lp439
I234378
aF105.30374
aF289.211
ag436
aS'utopia'
p440
aS'#000000'
p441
aF8.88595
aI0
aI01
aI00
aI00
aI00
aI00
aI00
aI00
aI00
aa(lp442
I234378
aF139.69830000000002
aF289.211
ag436
aS'utopia'
p443
aS'#000000'
p444
aF8.88595
aI0
aI00
aI00
aI00
aI00
aI00
aI00
aI00
aI00
aa(lp445
I234378
aF134.99762
aF289.211
ag436
aS'utopia'
p446
aS'#000000'
p447
aF8.88595
aI0
aI01
aI00
aI00
aI00
aI00
aI00
aI00
aI00
aa(lp448
I234378
aF183.824
aF289.211
aVp1
p449
aS'utopia'
p450
aS'#000000'
p451
aF8.88595
aI0
aI01
aI00
aI00
aI00
aI00
aI00
aI00
aI00
aa(lp452
I231013
aF55.7183
aF306.983
aVp1
p453
aS'utopia'
p454
aS'#878787'
p455
aF8.88595
aI0
aI01
aI00
aI00
aI00
aI00
aI00
aI00
aI00
aa(lp456
I234378
aF72.7498
aF306.983
aVp1
p457
aS'utopia'
p458
aS'#878787'
p459
aF8.88595
aI0
aI01
aI00
aI00
aI00
aI00
aI00
aI00
aI00
aa(lp460
I234378
aF91.25542857142857
aF306.983
ag457
aS'utopia'
p461
aS'#878787'
p462
aF8.88595
aI0
aI00
aI00
aI00
aI00
aI00
aI00
aI00
aI00
aa(lp463
I84662
aF98.6671
aF306.983
aVp1
p464
aS'utopia'
p465
aS'#000000'
p466
aF8.88595
aI0
aI00
aI00
aI00
aI00
aI00
aI00
aI00
aI00
aa(lp467
I21716
aF118.66
aF306.983
aVp1
p468
aS'utopia'
p469
aS'#000000'
p470
aF8.88595
aI0
aI00
aI00
aI00
aI00
aI00
aI00
aI00
aI00
aa(lp471
I234378
aF132.96992
aF306.983
ag468
aS'utopia'
p472
aS'#000000'
p473
aF8.88595
aI0
aI00
aI00
aI00
aI00
aI00
aI00
aI00
aI00
aa(lp474
I8546
aF138.654
aF306.983
aVp1
p475
aS'utopia'
p476
aS'#000000'
p477
aF8.88595
aI0
aI01
aI00
aI00
aI00
aI00
aI00
aI00
aI00
aa(lp478
I234378
aF177.41187
aF306.983
ag475
aS'utopia'
p479
aS'#000000'
p480
aF8.88595
aI0
aI00
aI00
aI00
aI00
aI00
aI00
aI00
aI00
aa(lp481
I77592
aF183.824
aF306.983
aVp1
p482
aS'utopia'
p483
aS'#000000'
p484
aF8.88595
aI0
aI00
aI00
aI00
aI00
aI00
aI00
aI00
aI00
aa(lp485
I48371
aF214.184
aF306.983
aVp1
p486
aS'utopia'
p487
aS'#000000'
p488
aF8.88595
aI0
aI00
aI00
aI00
aI00
aI00
aI00
aI00
aI00
aa(lp489
I234378
aF237.14
aF306.983
aVp1
p490
aS'utopia'
p491
aS'#000000'
p492
aF8.88595
aI0
aI00
aI00
aI00
aI00
aI00
aI00
aI00
aI00
aa(lp493
I234378
aF241.583
aF306.983
aVp1
p494
aS'utopia'
p495
aS'#000000'
p496
aF8.88595
aI0
aI01
aI00
aI00
aI00
aI00
aI00
aI00
aI00
aa(lp497
I234378
aF294.6357214285714
aF306.983
ag494
aS'utopia'
p498
aS'#000000'
p499
aF8.88595
aI0
aI00
aI00
aI00
aI00
aI00
aI00
aI00
aI00
aa(lp500
I77592
aF55.7183
aF317.35
aVp1
p501
aS'utopia'
p502
aS'#000000'
p503
aF8.88595
aI0
aI00
aI00
aI00
aI00
aI00
aI00
aI00
aI00
aa(lp504
I45106
aF86.0787
aF317.35
aVp1
p505
aS'utopia'
p506
aS'#000000'
p507
aF8.88595
aI0
aI01
aI00
aI00
aI00
aI00
aI00
aI00
aI00
aa(lp508
I234378
aF106.53861666666666
aF317.35
ag505
aS'utopia'
p509
aS'#000000'
p510
aF8.88595
aI0
aI00
aI00
aI00
aI00
aI00
aI00
aI00
aI00
aa(lp511
I112493
aF112.737
aF317.35
aVp1
p512
aS'utopia'
p513
aS'#000000'
p514
aF8.88595
aI0
aI01
aI00
aI00
aI00
aI00
aI00
aI00
aI00
aa(lp515
I234378
aF134.951
aF317.35
aVp1
p516
aS'utopia'
p517
aS'#000000'
p518
aF8.88595
aI0
aI00
aI00
aI00
aI00
aI00
aI00
aI00
aI00
aa(lp519
I227584
aF139.394
aF317.35
aVp1
p520
aS'utopia'
p521
aS'#000000'
p522
aF8.88595
aI0
aI01
aI00
aI00
aI00
aI00
aI00
aI00
aI00
aa(lp523
I234378
aF156.66592
aF317.35
ag520
aS'utopia'
p524
aS'#000000'
p525
aF8.88595
aI0
aI00
aI00
aI00
aI00
aI00
aI00
aI00
aI00
aa(lp526
I234378
aF163.09
aF317.35
aVp1
p527
aS'utopia'
p528
aS'#000000'
p529
aF8.88595
aI0
aI00
aI00
aI00
aI00
aI00
aI00
aI00
aI00
aa(lp530
I234378
aF184.25834375
aF317.35
ag527
aS'utopia'
p531
aS'#000000'
p532
aF8.88595
aI0
aI00
aI00
aI00
aI00
aI00
aI00
aI00
aI00
aa(lp533
I234378
aF220.5613625
aF317.35
ag527
aS'utopia'
p534
aS'#000000'
p535
aF8.88595
aI0
aI00
aI00
aI00
aI00
aI00
aI00
aI00
aI00
aa(lp536
I260
aF229.735
aF317.35
aVp1
p537
aS'utopia'
p538
aS'#000000'
p539
aF8.88595
aI0
aI00
aI00
aI00
aI00
aI00
aI00
aI00
aI00
aa(lp540
I234378
aF282.31
aF317.35
aVp1
p541
aS'utopia'
p542
aS'#000000'
p543
aF8.88595
aI0
aI00
aI00
aI00
aI00
aI00
aI00
aI00
aI00
aa(lp544
I234378
aF292.948675
aF317.35
ag541
aS'utopia'
p545
aS'#000000'
p546
aF8.88595
aI0
aI00
aI00
aI00
aI00
aI00
aI00
aI00
aI00
aa(lp547
I97333
aF55.7183
aF327.717
aVp1
p548
aS'utopia'
p549
aS'#000000'
p550
aF8.88595
aI0
aI00
aI00
aI00
aI00
aI00
aI00
aI00
aI00
aa(lp551
I234378
aF100.889
aF327.717
aVp1
p552
aS'utopia'
p553
aS'#000000'
p554
aF8.88595
aI0
aI00
aI00
aI00
aI00
aI00
aI00
aI00
aI00
aa(lp555
I234378
aF130.147075
aF327.717
ag552
aS'utopia'
p556
aS'#000000'
p557
aF8.88595
aI0
aI00
aI00
aI00
aI00
aI00
aI00
aI00
aI00
aa(lp558
I144690
aF136.432
aF327.717
aVp1
p559
aS'utopia'
p560
aS'#000000'
p561
aF8.88595
aI0
aI00
aI00
aI00
aI00
aI00
aI00
aI00
aI00
aa(lp562
I157010
aF163.831
aF327.717
aVp1
p563
aS'utopia'
p564
aS'#000000'
p565
aF8.88595
aI0
aI00
aI00
aI00
aI00
aI00
aI00
aI00
aI00
aa(lp566
I234378
aF191.1452625
aF327.717
ag563
aS'utopia'
p567
aS'#000000'
p568
aF8.88595
aI0
aI00
aI00
aI00
aI00
aI00
aI00
aI00
aI00
aa(lp569
I234378
aF197.153
aF327.717
aVp1
p570
aS'utopia'
p571
aS'#000000'
p572
aF8.88595
aI0
aI01
aI01
aI00
aI00
aI00
aI00
aI00
aI00
aa(lp573
I234378
aF216.20211999999998
aF327.717
ag570
aS'utopia'
p574
aS'#000000'
p575
aF8.88595
aI0
aI00
aI00
aI00
aI00
aI00
aI00
aI00
aI00
aa(lp576
I234378
aF223.07
aF327.717
aVp1
p577
aS'utopia'
p578
aS'#000000'
p579
aF8.88595
aI0
aI00
aI00
aI00
aI00
aI00
aI00
aI00
aI00
aa(lp580
I234378
aF244.545
aF327.717
aVp1
p581
aS'utopia'
p582
aS'#000000'
p583
aF8.88595
aI0
aI00
aI00
aI00
aI00
aI00
aI00
aI00
aI00
aa(lp584
I234378
aF248.988
aF327.717
aVp1
p585
aS'utopia'
p586
aS'#000000'
p587
aF8.88595
aI0
aI01
aI00
aI00
aI00
aI00
aI00
aI00
aI00
aa(lp588
I234378
aF278.246075
aF327.717
ag585
aS'utopia'
p589
aS'#000000'
p590
aF8.88595
aI0
aI00
aI00
aI00
aI00
aI00
aI00
aI00
aI00
aa(lp591
I84662
aF284.532
aF327.717
aVp1
p592
aS'utopia'
p593
aS'#000000'
p594
aF8.88595
aI0
aI01
aI00
aI00
aI00
aI00
aI00
aI00
aI00
aa(lp595
I21716
aF55.7183
aF338.084
aVp1
p596
aS'utopia'
p597
aS'#000000'
p598
aF8.88595
aI0
aI01
aI00
aI00
aI00
aI00
aI00
aI00
aI00
aa(lp599
I234378
aF70.62062
aF338.084
ag596
aS'utopia'
p600
aS'#000000'
p601
aF8.88595
aI0
aI00
aI00
aI00
aI00
aI00
aI00
aI00
aI00
aa(lp602
I51933
aF40.1679
aF375.127
aVp1
p603
aS'utopia'
p604
aS'#02304b'
p605
aF11.8479
aI1
aI01
aI00
aI00
aI00
aI00
aI00
aI00
aI00
aa(lp606
I60220
aF72.0093
aF375.127
aVp1
p607
aS'utopia'
p608
aS'#02304b'
p609
aF11.8479
aI1
aI01
aI00
aI00
aI00
aI00
aI00
aI00
aI00
aa(lp610
I160422
aF40.9084
aF406.844
aVp1
p611
aS'utopia'
p612
aS'#000000'
p613
aF10.3669
aI1
aI01
aI00
aI00
aI00
aI00
aI00
aI00
aI00
aa(lp614
I127730
aF72.7498
aF406.844
aVp1
p615
aS'utopia'
p616
aS'#000000'
p617
aF10.3669
aI1
aI01
aI00
aI00
aI00
aI00
aI00
aI00
aI00
aa(lp618
I234378
aF117.92
aF407.113
aVp1
p619
aS'utopia'
p620
aS'#656565'
p621
aF10.3669
aI0
aI00
aI00
aI00
aI00
aI00
aI00
aI00
aI00
aa(lp622
I15548
aF122.897425
aF407.113
ag619
aS'utopia'
p623
aS'#656565'
p624
aF10.3669
aI0
aI01
aI00
aI00
aI00
aI00
aI00
aI00
aI00
aa(lp625
I70289
aF160.128
aF407.113
aVp1
p626
aS'utopia'
p627
aS'#656565'
p628
aF10.3669
aI0
aI01
aI00
aI00
aI00
aI00
aI00
aI00
aI00
aa(lp629
I234378
aF203.47697777777776
aF407.113
ag626
aS'utopia'
p630
aS'#656565'
p631
aF10.3669
aI0
aI00
aI00
aI00
aI00
aI00
aI00
aI00
aI00
aa(lp632
I234378
aF40.9084
aF423.404
aVp1
p633
aS'utopia'
p634
aS'#656565'
p635
aF10.3669
aI0
aI01
aI00
aI00
aI00
aI00
aI00
aI00
aI00
aa(lp636
I68032
aF83.8572
aF423.404
aVp1
p637
aS'utopia'
p638
aS'#656565'
p639
aF10.3669
aI0
aI01
aI00
aI00
aI00
aI00
aI00
aI00
aI00
aa(lp640
I132100
aF150.502
aF423.404
aVp1
p641
aS'utopia'
p642
aS'#656565'
p643
aF10.3669
aI0
aI01
aI00
aI00
aI00
aI00
aI00
aI00
aI00
aa(lp644
I234378
aF198.634
aF423.404
aVp1
p645
aS'utopia'
p646
aS'#656565'
p647
aF10.3669
aI0
aI01
aI00
aI00
aI00
aI00
aI00
aI00
aI01
aa(lp648
I234378
aF219.368
aF423.404
aVp1
p649
aS'utopia'
p650
aS'#656565'
p651
aF10.3669
aI0
aI00
aI00
aI01
aI01
aI01
aI00
aI00
aI00
aa(lp652
I48671
aF40.9084
aF443.235
aVp1
p653
aS'utopia'
p654
aS'#656565'
p655
aF8.88595
aI0
aI01
aI00
aI00
aI00
aI00
aI00
aI00
aI00
aa(lp656
I129688
aF69.0473
aF443.235
aVp1
p657
aS'utopia'
p658
aS'#656565'
p659
aF8.88595
aI0
aI01
aI00
aI00
aI00
aI00
aI00
aI00
aI00
aa(lp660
I234378
aF97.1861
aF443.235
aVp1
p661
aS'utopia'
p662
aS'#656565'
p663
aF8.88595
aI0
aI00
aI00
aI00
aI00
aI00
aI00
aI00
aI00
aa(lp664
I234378
aF101.629
aF443.235
aVp1
p665
aS'utopia'
p666
aS'#656565'
p667
aF8.88595
aI0
aI00
aI00
aI01
aI01
aI00
aI00
aI00
aI00
aa(lp668
I234378
aF108.294
aF443.235
aVp1
p669
aS'utopia'
p670
aS'#656565'
p671
aF8.88595
aI0
aI01
aI00
aI00
aI00
aI00
aI00
aI00
aI00
aa(lp672
I234378
aF40.9084
aF476.45
aVp1
p673
aS'utopia'
p674
aS'#000000'
p675
aF10.3669
aI1
aI01
aI00
aI00
aI00
aI00
aI00
aI00
aI00
aa(lp676
I234378
aF77.1927
aF476.45
aVp1
p677
aS'utopia'
p678
aS'#000000'
p679
aF10.3669
aI1
aI00
aI00
aI00
aI00
aI00
aI00
aI00
aI00
aa(lp680
I146209
aF40.9084
aF493.011
aVp1
p681
aS'utopia'
p682
aS'#656565'
p683
aF10.3669
aI0
aI01
aI00
aI00
aI00
aI00
aI00
aI00
aI00
aa(lp684
I149270
aF82.3762
aF493.011
aVp1
p685
aS'utopia'
p686
aS'#656565'
p687
aF10.3669
aI0
aI01
aI00
aI00
aI00
aI00
aI00
aI00
aI00
aa(lp688
I215197
aF131.249
aF493.011
aVp1
p689
aS'utopia'
p690
aS'#656565'
p691
aF10.3669
aI0
aI01
aI00
aI00
aI00
aI00
aI00
aI00
aI00
aa(lp692
I234378
aF158.647
aF493.011
aVp1
p693
aS'utopia'
p694
aS'#656565'
p695
aF10.3669
aI0
aI01
aI00
aI00
aI00
aI00
aI00
aI00
aI01
aa(lp696
I234378
aF173.457
aF493.011
aVp1
p697
aS'utopia'
p698
aS'#656565'
p699
aF10.3669
aI0
aI00
aI00
aI01
aI01
aI01
aI00
aI00
aI00
aa(lp700
I89480
aF196.413
aF493.011
aVp1
p701
aS'utopia'
p702
aS'#656565'
p703
aF10.3669
aI0
aI01
aI00
aI00
aI00
aI00
aI00
aI00
aI00
aa(lp704
I234378
aF211.222
aF493.011
aVp1
p705
aS'utopia'
p706
aS'#656565'
p707
aF10.3669
aI0
aI01
aI00
aI00
aI00
aI00
aI00
aI00
aI01
aa(lp708
I234378
aF231.956
aF493.011
aVp1
p709
aS'utopia'
p710
aS'#656565'
p711
aF10.3669
aI0
aI00
aI00
aI01
aI01
aI01
aI00
aI00
aI00
aa(lp712
I124531
aF40.1679
aF538.036
aVp1
p713
aS'utopia'
p714
aS'#02304b'
p715
aF11.8479
aI1
aI01
aI00
aI00
aI00
aI00
aI00
aI00
aI00
aa(lp716
I209062
aF40.9084
aF566.32
aVp1
p717
aS'utopia'
p718
aS'#656565'
p719
aF10.3669
aI0
aI01
aI00
aI00
aI00
aI00
aI00
aI00
aI00
aa(lp720
I234378
aF63.1233
aF566.32
aVp1
p721
aS'utopia'
p722
aS'#656565'
p723
aF10.3669
aI0
aI01
aI00
aI00
aI00
aI00
aI00
aI00
aI00
aa(lp724
I234378
aF111.996
aF566.32
aVp1
p725
aS'utopia'
p726
aS'#656565'
p727
aF10.3669
aI0
aI00
aI00
aI00
aI00
aI00
aI00
aI00
aI00
aa(lp728
I60201
aF117.92
aF566.32
aVp1
p729
aS'utopia'
p730
aS'#656565'
p731
aF10.3669
aI0
aI01
aI00
aI00
aI00
aI00
aI00
aI00
aI00
aa(lp732
I230071
aF137.913
aF566.32
aVp1
p733
aS'utopia'
p734
aS'#656565'
p735
aF10.3669
aI0
aI01
aI00
aI00
aI00
aI00
aI00
aI00
aI00
aa(lp736
I234378
aF164.571
aF566.32
aVp1
p737
aS'utopia'
p738
aS'#656565'
p739
aF10.3669
aI0
aI00
aI00
aI00
aI00
aI00
aI00
aI00
aI00
aa(lp740
I177271
aF40.9084
aF582.341
aVp1
p741
aS'utopia'
p742
aS'#000000'
p743
aF10.3669
aI1
aI01
aI00
aI00
aI00
aI00
aI00
aI00
aI00
aa(lp744
I234378
aF71.2688
aF582.341
aVp1
p745
aS'utopia'
p746
aS'#000000'
p747
aF10.3669
aI1
aI00
aI00
aI00
aI00
aI00
aI00
aI00
aI00
aa(lp748
I177271
aF76.35368571428572
aF582.341
ag745
aS'utopia'
p749
aS'#000000'
p750
aF10.3669
aI1
aI01
aI00
aI00
aI00
aI00
aI00
aI00
aI00
aa(lp751
I234378
aF101.77811428571428
aF582.341
ag745
aS'utopia'
p752
aS'#000000'
p753
aF10.3669
aI1
aI00
aI00
aI00
aI00
aI00
aI00
aI00
aI00
aa(lp754
I234378
aF40.9084
aF618.155
aVp1
p755
aS'utopia'
p756
aS'#656565'
p757
aF10.3669
aI0
aI01
aI00
aI00
aI00
aI00
aI00
aI00
aI00
aa(lp758
I234378
aF117.18
aF618.155
aVp1
p759
aS'utopia'
p760
aS'#656565'
p761
aF10.3669
aI0
aI00
aI00
aI00
aI00
aI00
aI00
aI00
aI00
aa(lp762
I60201
aF123.103
aF618.155
aVp1
p763
aS'utopia'
p764
aS'#656565'
p765
aF10.3669
aI0
aI01
aI00
aI00
aI00
aI00
aI00
aI00
aI00
aa(lp766
I230071
aF143.097
aF618.155
aVp1
p767
aS'utopia'
p768
aS'#656565'
p769
aF10.3669
aI0
aI01
aI00
aI00
aI00
aI00
aI00
aI00
aI00
aa(lp770
I234378
aF169.755
aF618.155
aVp1
p771
aS'utopia'
p772
aS'#656565'
p773
aF10.3669
aI0
aI00
aI00
aI00
aI00
aI00
aI00
aI00
aI00
aa(lp774
I27780
aF40.9084
aF634.176
aVp1
p775
aS'utopia'
p776
aS'#000000'
p777
aF10.3669
aI1
aI01
aI01
aI00
aI00
aI00
aI00
aI00
aI00
aa(lp778
I234378
aF46.15191818181818
aF634.176
ag775
aS'utopia'
p779
aS'#000000'
p780
aF10.3669
aI1
aI00
aI00
aI00
aI00
aI00
aI00
aI00
aI00
aa(lp781
I2737
aF51.395436363636364
aF634.176
ag775
aS'utopia'
p782
aS'#000000'
p783
aF10.3669
aI1
aI01
aI00
aI00
aI00
aI00
aI00
aI00
aI00
aa(lp784
I234378
aF72.36950909090909
aF634.176
ag775
aS'utopia'
p785
aS'#000000'
p786
aF10.3669
aI1
aI00
aI00
aI00
aI00
aI00
aI00
aI00
aI00
aa(lp787
I27780
aF70.61302727272727
aF634.176
ag775
aS'utopia'
p788
aS'#000000'
p789
aF10.3669
aI1
aI01
aI01
aI00
aI00
aI00
aI00
aI00
aI00
aa(lp790
I234378
aF75.85654545454545
aF634.176
ag775
aS'utopia'
p791
aS'#000000'
p792
aF10.3669
aI1
aI00
aI00
aI00
aI00
aI00
aI00
aI00
aI00
aa(lp793
I64620
aF88.10006363636364
aF634.176
ag775
aS'utopia'
p794
aS'#000000'
p795
aF10.3669
aI1
aI01
aI01
aI00
aI00
aI00
aI00
aI00
aI00
aa(lp796
I234378
aF84.34358181818183
aF634.176
ag775
aS'utopia'
p797
aS'#000000'
p798
aF10.3669
aI1
aI00
aI00
aI00
aI00
aI00
aI00
aI00
aI00
aa(lp799
I234378
aF100.889
aF634.176
aVp1
p800
aS'utopia'
p801
aS'#000000'
p802
aF10.3669
aI1
aI00
aI00
aI00
aI00
aI00
aI00
aI00
aI00
aa(lp803
I234378
aF106.48095454545454
aF634.176
ag800
aS'utopia'
p804
aS'#000000'
p805
aF10.3669
aI1
aI01
aI00
aI00
aI00
aI00
aI00
aI00
aI00
aa(lp806
I234378
aF156.80854545454542
aF634.176
ag800
aS'utopia'
p807
aS'#000000'
p808
aF10.3669
aI1
aI00
aI00
aI00
aI00
aI00
aI00
aI00
aI00
aa(lp809
I234378
aF40.9084
aF654.439
aVp1
p810
aS'utopia'
p811
aS'#656565'
p812
aF10.3669
aI0
aI01
aI00
aI00
aI00
aI00
aI00
aI00
aI00
aa(lp813
I234378
aF67.5663
aF654.439
aVp1
p814
aS'utopia'
p815
aS'#656565'
p816
aF10.3669
aI0
aI01
aI00
aI00
aI00
aI00
aI00
aI00
aI00
aa(lp817
I149270
aF106.813
aF654.439
aVp1
p818
aS'utopia'
p819
aS'#656565'
p820
aF10.3669
aI0
aI01
aI00
aI00
aI00
aI00
aI00
aI00
aI00
aa(lp821
I153079
aF155.685
aF654.439
aVp1
p822
aS'utopia'
p823
aS'#656565'
p824
aF10.3669
aI0
aI01
aI00
aI00
aI00
aI00
aI00
aI00
aI00
aa(lp825
I234378
aF206.039
aF654.439
aVp1
p826
aS'utopia'
p827
aS'#656565'
p828
aF10.3669
aI0
aI00
aI00
aI00
aI00
aI00
aI00
aI00
aI00
aa(lp829
I234378
aF212.06885
aF654.439
ag826
aS'utopia'
p830
aS'#656565'
p831
aF10.3669
aI0
aI01
aI01
aI00
aI00
aI00
aI00
aI00
aI00
aa(lp832
I234378
aF236.18824999999998
aF654.439
ag826
aS'utopia'
p833
aS'#656565'
p834
aF10.3669
aI0
aI00
aI00
aI00
aI00
aI00
aI00
aI00
aI00
aa(lp835
I135639
aF248.988
aF654.439
aVp1
p836
aS'utopia'
p837
aS'#656565'
p838
aF10.3669
aI0
aI00
aI00
aI00
aI00
aI00
aI00
aI00
aI00
aa(lp839
I234378
aF260.836
aF654.439
aVp1
p840
aS'utopia'
p841
aS'#656565'
p842
aF10.3669
aI0
aI00
aI00
aI01
aI01
aI01
aI00
aI00
aI00
aa(lp843
I22476
aF40.1679
aF688.357
aVp1
p844
aS'utopia'
p845
aS'#02304b'
p846
aF11.8479
aI1
aI01
aI01
aI00
aI00
aI00
aI00
aI00
aI00
aa(lp847
I234378
aF54.2374
aF688.357
aVp1
p848
aS'utopia'
p849
aS'#02304b'
p850
aF11.8479
aI1
aI01
aI00
aI00
aI00
aI00
aI00
aI00
aI00
aa(lp851
I109610
aF48.3134
aF716.247
aVp1
p852
aS'utopia'
p853
aS'#000000'
p854
aF8.88595
aI1
aI01
aI00
aI00
aI00
aI00
aI00
aI00
aI00
aa(lp855
I158577
aF69.7878
aF716.247
aVp1
p856
aS'utopia'
p857
aS'#000000'
p858
aF8.88595
aI1
aI01
aI00
aI00
aI00
aI00
aI00
aI00
aI00
aa(lp859
I194179
aF188.267
aF716.247
aVp1
p860
aS'utopia'
p861
aS'#000000'
p862
aF8.88595
aI1
aI01
aI00
aI00
aI00
aI00
aI00
aI00
aI00
aa(lp863
I177981
aF305.265
aF716.247
aVp1
p864
aS'utopia'
p865
aS'#000000'
p866
aF8.88595
aI1
aI01
aI00
aI00
aI00
aI00
aI00
aI00
aI00
aa(lp867
I25729
aF324.518
aF716.247
aVp1
p868
aS'utopia'
p869
aS'#000000'
p870
aF8.88595
aI1
aI01
aI00
aI00
aI00
aI00
aI00
aI00
aI00
aa(lp871
I60220
aF412.637
aF716.247
aVp1
p872
aS'utopia'
p873
aS'#000000'
p874
aF8.88595
aI1
aI01
aI00
aI00
aI00
aI00
aI00
aI00
aI00
aa(lp875
I234378
aF48.3134
aF734.99
aVp1
p876
aS'utopia'
p877
aS'#656565'
p878
aF8.88595
aI0
aI01
aI00
aI00
aI00
aI00
aI00
aI00
aI00
aa(lp879
I234378
aF188.267
aF734.99
aVp1
p880
aS'utopia'
p881
aS'#656565'
p882
aF8.88595
aI0
aI00
aI00
aI01
aI01
aI00
aI00
aI00
aI00
aa(lp883
I234378
aF192.0465
aF734.99
ag880
aS'utopia'
p884
aS'#656565'
p885
aF8.88595
aI0
aI00
aI00
aI00
aI00
aI00
aI00
aI00
aI00
aa(lp886
I234378
aF195.82600000000002
aF734.99
ag880
aS'utopia'
p887
aS'#656565'
p888
aF8.88595
aI0
aI00
aI00
aI01
aI01
aI00
aI00
aI00
aI00
aa(lp889
I234378
aF317.113
aF734.99
aVp1
p890
aS'utopia'
p891
aS'#656565'
p892
aF8.88595
aI0
aI00
aI00
aI01
aI01
aI01
aI00
aI00
aI00
aa(lp893
I234378
aF404.492
aF734.99
aVp1
p894
aS'utopia'
p895
aS'#656565'
p896
aF8.88595
aI0
aI00
aI00
aI01
aI01
aI00
aI00
aI00
aI00
aa(lp897
I234378
aF411.156
aF734.99
aVp1
p898
aS'utopia'
p899
aS'#656565'
p900
aF8.88595
aI0
aI01
aI00
aI00
aI00
aI00
aI00
aI00
aI00
aa(lp901
I234378
aF434.852
aF734.99
aVp1
p902
aS'utopia'
p903
aS'#656565'
p904
aF8.88595
aI0
aI00
aI00
aI01
aI01
aI00
aI00
aI00
aI00
aa(lp905
I63729
aF441.517
aF734.99
aVp1
p906
aS'utopia'
p907
aS'#656565'
p908
aF8.88595
aI0
aI01
aI00
aI00
aI00
aI00
aI00
aI00
aI00
aa(lp909
I234378
aF48.3134
aF753.502
aVp1
p910
aS'utopia'
p911
aS'#656565'
p912
aF8.88595
aI0
aI01
aI00
aI00
aI00
aI00
aI00
aI00
aI00
aa(lp913
I234378
aF188.267
aF753.502
aVp1
p914
aS'utopia'
p915
aS'#656565'
p916
aF8.88595
aI0
aI00
aI00
aI01
aI01
aI00
aI00
aI00
aI00
aa(lp917
I234378
aF192.0465
aF753.502
ag914
aS'utopia'
p918
aS'#656565'
p919
aF8.88595
aI0
aI00
aI00
aI00
aI00
aI00
aI00
aI00
aI00
aa(lp920
I234378
aF195.82600000000002
aF753.502
ag914
aS'utopia'
p921
aS'#656565'
p922
aF8.88595
aI0
aI00
aI00
aI01
aI01
aI00
aI00
aI00
aI00
aa(lp923
I234378
aF317.113
aF753.502
aVp1
p924
aS'utopia'
p925
aS'#656565'
p926
aF8.88595
aI0
aI00
aI00
aI01
aI01
aI01
aI00
aI00
aI00
aa(lp927
I234378
aF404.492
aF753.502
aVp1
p928
aS'utopia'
p929
aS'#656565'
p930
aF8.88595
aI0
aI00
aI00
aI01
aI01
aI00
aI00
aI00
aI00
aa(lp931
I234378
aF411.156
aF753.502
aVp1
p932
aS'utopia'
p933
aS'#656565'
p934
aF8.88595
aI0
aI01
aI00
aI00
aI00
aI00
aI00
aI00
aI00
aa(lp935
I234378
aF434.852
aF753.502
aVp1
p936
aS'utopia'
p937
aS'#656565'
p938
aF8.88595
aI0
aI00
aI00
aI01
aI01
aI00
aI00
aI00
aI00
aa(lp939
I63729
aF441.517
aF753.502
aVp1
p940
aS'utopia'
p941
aS'#656565'
p942
aF8.88595
aI0
aI01
aI00
aI00
aI00
aI00
aI00
aI00
aI00
aa(lp943
I45106
aF48.3134
aF772.015
aVp1
p944
aS'utopia'
p945
aS'#656565'
p946
aF8.88595
aI0
aI01
aI01
aI00
aI00
aI00
aI00
aI00
aI00
aa(lp947
I234378
aF317.113
aF772.015
aVp1
p948
aS'utopia'
p949
aS'#656565'
p950
aF8.88595
aI0
aI00
aI00
aI01
aI01
aI01
aI00
aI00
aI00
aa(lp951
I234378
aF404.492
aF772.015
aVp1
p952
aS'utopia'
p953
aS'#656565'
p954
aF8.88595
aI0
aI00
aI00
aI01
aI01
aI00
aI00
aI00
aI00
aa(lp955
I234378
aF411.156
aF772.015
aVp1
p956
aS'utopia'
p957
aS'#656565'
p958
aF8.88595
aI0
aI01
aI00
aI00
aI00
aI00
aI00
aI00
aI00
aa(lp959
I234378
aF434.852
aF772.015
aVp1
p960
aS'utopia'
p961
aS'#656565'
p962
aF8.88595
aI0
aI00
aI00
aI01
aI01
aI00
aI00
aI00
aI00
aa(lp963
I63729
aF441.517
aF772.015
aVp1
p964
aS'utopia'
p965
aS'#656565'
p966
aF8.88595
aI0
aI01
aI00
aI00
aI00
aI00
aI00
aI00
aI00
aa(lp967
I48371
aF48.3134
aF790.527
aVp1
p968
aS'utopia'
p969
aS'#656565'
p970
aF8.88595
aI0
aI01
aI00
aI00
aI00
aI00
aI00
aI00
aI00
aa(lp971
I234378
aF317.113
aF790.527
aVp1
p972
aS'utopia'
p973
aS'#656565'
p974
aF8.88595
aI0
aI00
aI00
aI01
aI01
aI01
aI00
aI00
aI00
aa(lp975
I234378
aF404.492
aF790.527
aVp1
p976
aS'utopia'
p977
aS'#656565'
p978
aF8.88595
aI0
aI00
aI00
aI01
aI01
aI00
aI00
aI00
aI00
aa(lp979
I234378
aF411.156
aF790.527
aVp1
p980
aS'utopia'
p981
aS'#656565'
p982
aF8.88595
aI0
aI01
aI00
aI00
aI00
aI00
aI00
aI00
aI00
aa(lp983
I234378
aF434.852
aF790.527
aVp1
p984
aS'utopia'
p985
aS'#656565'
p986
aF8.88595
aI0
aI00
aI00
aI01
aI01
aI00
aI00
aI00
aI00
aa(lp987
I63729
aF441.517
aF790.527
aVp1
p988
aS'utopia'
p989
aS'#656565'
p990
aF8.88595
aI0
aI01
aI00
aI00
aI00
aI00
aI00
aI00
aI00
aa(lp991
I144690
aF48.3134
aF28.557
aVp2
p992
aS'utopia'
p993
aS'#656565'
p994
aF8.88595
aI0
aI01
aI01
aI00
aI00
aI00
aI00
aI00
aI00
aa(lp995
I157010
aF83.1167
aF28.557
aVp2
p996
aS'utopia'
p997
aS'#656565'
p998
aF8.88595
aI0
aI01
aI01
aI00
aI00
aI00
aI00
aI00
aI00
aa(lp999
I234378
aF317.113
aF28.557
aVp2
p1000
aS'utopia'
p1001
aS'#656565'
p1002
aF8.88595
aI0
aI00
aI00
aI01
aI01
aI01
aI00
aI00
aI00
aa(lp1003
I234378
aF404.492
aF28.557
aVp2
p1004
aS'utopia'
p1005
aS'#656565'
p1006
aF8.88595
aI0
aI00
aI00
aI01
aI01
aI00
aI00
aI00
aI00
aa(lp1007
I234378
aF411.156
aF28.557
aVp2
p1008
aS'utopia'
p1009
aS'#656565'
p1010
aF8.88595
aI0
aI01
aI00
aI00
aI00
aI00
aI00
aI00
aI00
aa(lp1011
I234378
aF434.852
aF28.557
aVp2
p1012
aS'utopia'
p1013
aS'#656565'
p1014
aF8.88595
aI0
aI00
aI00
aI01
aI01
aI00
aI00
aI00
aI00
aa(lp1015
I63729
aF441.517
aF28.557
aVp2
p1016
aS'utopia'
p1017
aS'#656565'
p1018
aF8.88595
aI0
aI01
aI00
aI00
aI00
aI00
aI00
aI00
aI00
aa(lp1019
I8546
aF48.3134
aF47.0694
aVp2
p1020
aS'utopia'
p1021
aS'#656565'
p1022
aF8.88595
aI0
aI01
aI00
aI00
aI00
aI00
aI00
aI00
aI00
aa(lp1023
I234378
aF317.113
aF47.0694
aVp2
p1024
aS'utopia'
p1025
aS'#656565'
p1026
aF8.88595
aI0
aI00
aI00
aI01
aI01
aI01
aI00
aI00
aI00
aa(lp1027
I234378
aF404.492
aF47.0694
aVp2
p1028
aS'utopia'
p1029
aS'#656565'
p1030
aF8.88595
aI0
aI00
aI00
aI01
aI01
aI00
aI00
aI00
aI00
aa(lp1031
I234378
aF411.156
aF47.0694
aVp2
p1032
aS'utopia'
p1033
aS'#656565'
p1034
aF8.88595
aI0
aI01
aI00
aI00
aI00
aI00
aI00
aI00
aI00
aa(lp1035
I234378
aF434.852
aF47.0694
aVp2
p1036
aS'utopia'
p1037
aS'#656565'
p1038
aF8.88595
aI0
aI00
aI00
aI01
aI01
aI00
aI00
aI00
aI00
aa(lp1039
I63729
aF441.517
aF47.0694
aVp2
p1040
aS'utopia'
p1041
aS'#656565'
p1042
aF8.88595
aI0
aI01
aI00
aI00
aI00
aI00
aI00
aI00
aI00
aa(lp1043
I222873
aF48.3134
aF65.5818
aVp2
p1044
aS'utopia'
p1045
aS'#656565'
p1046
aF8.88595
aI0
aI01
aI00
aI00
aI00
aI00
aI00
aI00
aI00
aa(lp1047
I195166
aF40.1679
aF115.953
aVp2
p1048
aS'utopia'
p1049
aS'#02304b'
p1050
aF11.8479
aI1
aI01
aI00
aI00
aI00
aI00
aI00
aI00
aI00
aa(lp1051
I136346
aF96.4456
aF115.953
aVp2
p1052
aS'utopia'
p1053
aS'#02304b'
p1054
aF11.8479
aI1
aI01
aI00
aI00
aI00
aI00
aI00
aI00
aI00
aa(lp1055
I195166
aF48.3134
aF143.843
aVp2
p1056
aS'utopia'
p1057
aS'#000000'
p1058
aF8.88595
aI1
aI01
aI00
aI00
aI00
aI00
aI00
aI00
aI00
aa(lp1059
I164378
aF177.16
aF143.843
aVp2
p1060
aS'utopia'
p1061
aS'#000000'
p1062
aF8.88595
aI1
aI01
aI00
aI00
aI00
aI00
aI00
aI00
aI00
aa(lp1063
I175077
aF296.379
aF143.843
aVp2
p1064
aS'utopia'
p1065
aS'#000000'
p1066
aF8.88595
aI1
aI01
aI00
aI00
aI00
aI00
aI00
aI00
aI00
aa(lp1067
I224291
aF397.087
aF143.843
aVp2
p1068
aS'utopia'
p1069
aS'#000000'
p1070
aF8.88595
aI1
aI01
aI00
aI00
aI00
aI00
aI00
aI00
aI00
aa(lp1071
I165206
aF497.054
aF143.843
aVp2
p1072
aS'utopia'
p1073
aS'#000000'
p1074
aF8.88595
aI1
aI01
aI00
aI00
aI00
aI00
aI00
aI00
aI00
aa(lp1075
I58002
aF48.3134
aF162.587
aVp2
p1076
aS'utopia'
p1077
aS'#656565'
p1078
aF8.88595
aI0
aI01
aI00
aI00
aI00
aI00
aI00
aI00
aI00
aa(lp1079
I61354
aF177.16
aF162.587
aVp2
p1080
aS'utopia'
p1081
aS'#656565'
p1082
aF8.88595
aI0
aI01
aI00
aI00
aI00
aI00
aI00
aI00
aI00
aa(lp1083
I144532
aF48.3134
aF181.099
aVp2
p1084
aS'utopia'
p1085
aS'#656565'
p1086
aF8.88595
aI0
aI00
aI00
aI00
aI00
aI00
aI00
aI00
aI00
aa(lp1087
I61354
aF177.16
aF181.099
aVp2
p1088
aS'utopia'
p1089
aS'#656565'
p1090
aF8.88595
aI0
aI01
aI00
aI00
aI00
aI00
aI00
aI00
aI00
aa(lp1091
I234378
aF40.1679
aF212.958
aVp2
p1092
aS'utopia'
p1093
aS'#02304b'
p1094
aF11.8479
aI1
aI01
aI00
aI00
aI00
aI00
aI00
aI00
aI00
aa(lp1095
I201816
aF40.9084
aF244.782
aVp2
p1096
aS'utopia'
p1097
aS'#000000'
p1098
aF8.88595
aI0
aI01
aI00
aI00
aI00
aI00
aI00
aI00
aI00
aa(lp1099
I234378
aF54.9779
aF244.782
aVp2
p1100
aS'utopia'
p1101
aS'#000000'
p1102
aF8.88595
aI0
aI01
aI00
aI00
aI00
aI00
aI00
aI00
aI00
aa(lp1103
I86196
aF89.0407
aF244.782
aVp2
p1104
aS'utopia'
p1105
aS'#000000'
p1106
aF8.88595
aI0
aI01
aI00
aI00
aI00
aI00
aI00
aI00
aI00
aa(lp1107
I177271
aF40.1679
aF284.046
aVp2
p1108
aS'utopia'
p1109
aS'#02304b'
p1110
aF11.8479
aI1
aI01
aI00
aI00
aI00
aI00
aI00
aI00
aI00
aa(lp1111
I234378
aF74.2307
aF284.046
aVp2
p1112
aS'utopia'
p1113
aS'#02304b'
p1114
aF11.8479
aI1
aI01
aI00
aI00
aI00
aI00
aI00
aI00
aI00
aa(lp1115
I7520
aF49.0539
aF308.358
aVp2
p1116
aS'utopia'
p1117
aS'#656565'
p1118
aF10.3669
aI1
aI01
aI00
aI00
aI00
aI00
aI00
aI00
aI00
aa(lp1119
I10865
aF93.4836
aF308.358
aVp2
p1120
aS'utopia'
p1121
aS'#656565'
p1122
aF10.3669
aI1
aI01
aI00
aI00
aI00
aI00
aI00
aI00
aI00
aa(lp1123
I132955
aF49.0539
aF324.015
aVp2
p1124
aS'utopia'
p1125
aS'#656565'
p1126
aF8.88595
aI0
aI01
aI00
aI00
aI00
aI00
aI00
aI00
aI00
aa(lp1127
I144489
aF69.7878
aF324.015
aVp2
p1128
aS'utopia'
p1129
aS'#656565'
p1130
aF8.88595
aI0
aI00
aI00
aI00
aI00
aI00
aI00
aI00
aI00
aa(lp1131
I132529
aF80.1547
aF324.015
aVp2
p1132
aS'utopia'
p1133
aS'#656565'
p1134
aF8.88595
aI0
aI01
aI00
aI00
aI00
aI00
aI00
aI00
aI00
aa(lp1135
I234378
aF98.76336666666667
aF324.015
ag1132
aS'utopia'
p1136
aS'#656565'
p1137
aF8.88595
aI0
aI00
aI00
aI00
aI00
aI00
aI00
aI00
aI00
aa(lp1138
I234378
aF104.591
aF324.015
aVp2
p1139
aS'utopia'
p1140
aS'#434343'
p1141
aF8.88595
aI0
aI00
aI00
aI01
aI01
aI01
aI00
aI00
aI00
aa(lp1142
I234378
aF115.699
aF324.015
aVp2
p1143
aS'utopia'
p1144
aS'#434343'
p1145
aF8.88595
aI0
aI01
aI00
aI00
aI00
aI00
aI00
aI00
aI01
aa(lp1146
I234378
aF132.73
aF324.015
aVp2
p1147
aS'utopia'
p1148
aS'#434343'
p1149
aF8.88595
aI0
aI00
aI00
aI01
aI01
aI01
aI00
aI00
aI00
aa(lp1150
I86794
aF293.418
aF312.06
aVp2
p1151
aS'utopia'
p1152
aS'#656565'
p1153
aF10.3669
aI1
aI01
aI00
aI00
aI00
aI00
aI00
aI00
aI00
aa(lp1154
I131455
aF331.923
aF312.06
aVp2
p1155
aS'utopia'
p1156
aS'#656565'
p1157
aF10.3669
aI1
aI01
aI00
aI00
aI00
aI00
aI00
aI00
aI00
aa(lp1158
I234378
aF349.695
aF312.06
aVp2
p1159
aS'utopia'
p1160
aS'#656565'
p1161
aF10.3669
aI1
aI01
aI00
aI00
aI00
aI00
aI00
aI00
aI00
aa(lp1162
I131455
aF293.418
aF327.717
aVp2
p1163
aS'utopia'
p1164
aS'#656565'
p1165
aF8.88595
aI0
aI01
aI00
aI00
aI00
aI00
aI00
aI00
aI00
aa(lp1166
I197416
aF308.968
aF327.717
aVp2
p1167
aS'utopia'
p1168
aS'#656565'
p1169
aF8.88595
aI0
aI01
aI00
aI00
aI00
aI00
aI00
aI00
aI00
aa(lp1170
I234378
aF326.23992000000004
aF327.717
ag1167
aS'utopia'
p1171
aS'#656565'
p1172
aF8.88595
aI0
aI00
aI00
aI00
aI00
aI00
aI00
aI00
aI00
aa(lp1173
I28425
aF332.664
aF327.717
aVp2
p1174
aS'utopia'
p1175
aS'#434343'
p1176
aF8.88595
aI0
aI01
aI00
aI00
aI00
aI00
aI00
aI00
aI00
aa(lp1177
I108944
aF49.0539
aF339.565
aVp2
p1178
aS'utopia'
p1179
aS'#656565'
p1180
aF8.88595
aI0
aI01
aI00
aI00
aI00
aI00
aI00
aI00
aI00
aa(lp1181
I234378
aF76.44544285714287
aF339.565
ag1178
aS'utopia'
p1182
aS'#656565'
p1183
aF8.88595
aI0
aI00
aI00
aI00
aI00
aI00
aI00
aI00
aI00
aa(lp1184
I104428
aF83.1167
aF339.565
aVp2
p1185
aS'utopia'
p1186
aS'#434343'
p1187
aF8.88595
aI0
aI01
aI00
aI00
aI00
aI00
aI00
aI00
aI00
aa(lp1188
I72722
aF293.418
aF343.268
aVp2
p1189
aS'utopia'
p1190
aS'#656565'
p1191
aF8.88595
aI0
aI01
aI00
aI00
aI00
aI00
aI00
aI00
aI00
aa(lp1192
I12510
aF346.733
aF343.268
aVp2
p1193
aS'utopia'
p1194
aS'#656565'
p1195
aF8.88595
aI0
aI01
aI00
aI00
aI00
aI00
aI00
aI00
aI00
aa(lp1196
I234378
aF369.0469142857143
aF343.268
ag1193
aS'utopia'
p1197
aS'#656565'
p1198
aF8.88595
aI0
aI00
aI00
aI00
aI00
aI00
aI00
aI00
aI00
aa(lp1199
I60201
aF374.872
aF343.268
aVp2
p1200
aS'utopia'
p1201
aS'#434343'
p1202
aF8.88595
aI0
aI01
aI00
aI00
aI00
aI00
aI00
aI00
aI00
aa(lp1203
I230071
aF391.903
aF343.268
aVp2
p1204
aS'utopia'
p1205
aS'#434343'
p1206
aF8.88595
aI0
aI01
aI00
aI00
aI00
aI00
aI00
aI00
aI00
aa(lp1207
I234378
aF414.118
aF343.268
aVp2
p1208
aS'utopia'
p1209
aS'#434343'
p1210
aF8.88595
aI0
aI00
aI00
aI00
aI00
aI00
aI00
aI00
aI00
aa(lp1211
I38609
aF420.783
aF343.268
aVp2
p1212
aS'utopia'
p1213
aS'#434343'
p1214
aF8.88595
aI0
aI01
aI00
aI00
aI00
aI00
aI00
aI00
aI00
aa(lp1215
I230071
aF439.295
aF343.268
aVp2
p1216
aS'utopia'
p1217
aS'#434343'
p1218
aF8.88595
aI0
aI01
aI00
aI00
aI00
aI00
aI00
aI00
aI00
aa(lp1219
I212271
aF49.0539
aF355.116
aVp2
p1220
aS'utopia'
p1221
aS'#656565'
p1222
aF8.88595
aI0
aI01
aI00
aI00
aI00
aI00
aI00
aI00
aI00
aa(lp1223
I12510
aF79.4142
aF355.116
aVp2
p1224
aS'utopia'
p1225
aS'#656565'
p1226
aF8.88595
aI0
aI01
aI00
aI00
aI00
aI00
aI00
aI00
aI00
aa(lp1227
I234378
aF101.72811428571428
aF355.116
ag1224
aS'utopia'
p1228
aS'#656565'
p1229
aF8.88595
aI0
aI00
aI00
aI00
aI00
aI00
aI00
aI00
aI00
aa(lp1230
I118865
aF107.553
aF355.116
aVp2
p1231
aS'utopia'
p1232
aS'#434343'
p1233
aF8.88595
aI0
aI01
aI00
aI00
aI00
aI00
aI00
aI00
aI00
aa(lp1234
I234378
aF133.68768749999998
aF355.116
ag1231
aS'utopia'
p1235
aS'#434343'
p1236
aF8.88595
aI0
aI00
aI00
aI00
aI00
aI00
aI00
aI00
aI00
aa(lp1237
I136874
aF138.04346875
aF355.116
ag1231
aS'utopia'
p1238
aS'#434343'
p1239
aF8.88595
aI0
aI00
aI00
aI00
aI00
aI00
aI00
aI00
aI00
aa(lp1240
I118366
aF49.0539
aF375.002
aVp2
p1241
aS'utopia'
p1242
aS'#656565'
p1243
aF10.3669
aI1
aI01
aI00
aI00
aI00
aI00
aI00
aI00
aI00
aa(lp1244
I234378
aF83.97235
aF375.002
ag1241
aS'utopia'
p1245
aS'#656565'
p1246
aF10.3669
aI1
aI00
aI00
aI00
aI00
aI00
aI00
aI00
aI00
aa(lp1247
I51933
aF293.418
aF363.154
aVp2
p1248
aS'utopia'
p1249
aS'#656565'
p1250
aF10.3669
aI1
aI01
aI00
aI00
aI00
aI00
aI00
aI00
aI00
aa(lp1251
I62768
aF321.556
aF363.154
aVp2
p1252
aS'utopia'
p1253
aS'#656565'
p1254
aF10.3669
aI1
aI01
aI00
aI00
aI00
aI00
aI00
aI00
aI00
aa(lp1255
I234378
aF49.0539
aF387.697
aVp2
p1256
aS'utopia'
p1257
aS'#000000'
p1258
aF8.88595
aI0
aI01
aI01
aI00
aI00
aI00
aI00
aI00
aI00
aa(lp1259
I154600
aF63.1233
aF387.697
aVp2
p1260
aS'utopia'
p1261
aS'#000000'
p1262
aF8.88595
aI0
aI01
aI00
aI00
aI00
aI00
aI00
aI00
aI00
aa(lp1263
I234378
aF93.4836
aF387.697
aVp2
p1264
aS'utopia'
p1265
aS'#000000'
p1266
aF8.88595
aI0
aI01
aI00
aI00
aI00
aI00
aI00
aI00
aI00
aa(lp1267
I234378
aF119.401
aF387.697
aVp2
p1268
aS'utopia'
p1269
aS'#000000'
p1270
aF8.88595
aI0
aI01
aI00
aI00
aI00
aI00
aI00
aI00
aI00
aa(lp1271
I234378
aF49.0539
aF398.064
aVp2
p1272
aS'utopia'
p1273
aS'#000000'
p1274
aF8.88595
aI0
aI00
aI00
aI01
aI01
aI01
aI00
aI00
aI00
aa(lp1275
I31679
aF293.418
aF378.811
aVp2
p1276
aS'utopia'
p1277
aS'#656565'
p1278
aF8.88595
aI0
aI01
aI01
aI00
aI00
aI00
aI00
aI00
aI00
aa(lp1279
I51933
aF306.746
aF378.811
aVp2
p1280
aS'utopia'
p1281
aS'#656565'
p1282
aF8.88595
aI0
aI01
aI00
aI00
aI00
aI00
aI00
aI00
aI00
aa(lp1283
I12510
aF330.442
aF378.811
aVp2
p1284
aS'utopia'
p1285
aS'#656565'
p1286
aF8.88595
aI0
aI01
aI00
aI00
aI00
aI00
aI00
aI00
aI00
aa(lp1287
I234378
aF352.7559142857143
aF378.811
ag1284
aS'utopia'
p1288
aS'#656565'
p1289
aF8.88595
aI0
aI00
aI00
aI00
aI00
aI00
aI00
aI00
aI00
aa(lp1290
I63091
aF358.581
aF378.811
aVp2
p1291
aS'utopia'
p1292
aS'#434343'
p1293
aF8.88595
aI0
aI01
aI00
aI00
aI00
aI00
aI00
aI00
aI00
aa(lp1294
I234378
aF375.613
aF378.811
aVp2
p1295
aS'utopia'
p1296
aS'#434343'
p1297
aF8.88595
aI0
aI01
aI00
aI00
aI00
aI00
aI00
aI00
aI00
aa(lp1298
I234378
aF293.418
aF394.362
aVp2
p1299
aS'utopia'
p1300
aS'#656565'
p1301
aF8.88595
aI0
aI01
aI00
aI00
aI00
aI00
aI00
aI00
aI00
aa(lp1302
I234378
aF330.17652
aF394.362
ag1299
aS'utopia'
p1303
aS'#656565'
p1304
aF8.88595
aI0
aI00
aI00
aI00
aI00
aI00
aI00
aI00
aI00
aa(lp1305
I164802
aF336.366
aF394.362
aVp2
p1306
aS'utopia'
p1307
aS'#434343'
p1308
aF8.88595
aI0
aI01
aI00
aI00
aI00
aI00
aI00
aI00
aI00
aa(lp1309
I182663
aF49.0539
aF411.393
aVp2
p1310
aS'utopia'
p1311
aS'#656565'
p1312
aF8.88595
aI0
aI01
aI00
aI00
aI00
aI00
aI00
aI00
aI00
aa(lp1313
I82279
aF76.4522
aF411.393
aVp2
p1314
aS'utopia'
p1315
aS'#656565'
p1316
aF8.88595
aI0
aI01
aI00
aI00
aI00
aI00
aI00
aI00
aI00
aa(lp1317
I234378
aF96.09372
aF411.393
ag1314
aS'utopia'
p1318
aS'#656565'
p1319
aF8.88595
aI0
aI00
aI00
aI00
aI00
aI00
aI00
aI00
aI00
aa(lp1320
I234378
aF103.11
aF411.393
aVp2
p1321
aS'utopia'
p1322
aS'#000000'
p1323
aF8.88595
aI0
aI01
aI00
aI00
aI00
aI00
aI00
aI00
aI00
aa(lp1324
I166771
aF293.418
aF414.249
aVp2
p1325
aS'utopia'
p1326
aS'#656565'
p1327
aF10.3669
aI1
aI01
aI00
aI00
aI00
aI00
aI00
aI00
aI00
aa(lp1328
I74833
aF349.695
aF414.249
aVp2
p1329
aS'utopia'
p1330
aS'#656565'
p1331
aF10.3669
aI1
aI01
aI00
aI00
aI00
aI00
aI00
aI00
aI00
aa(lp1332
I233758
aF293.418
aF429.906
aVp2
p1333
aS'utopia'
p1334
aS'#656565'
p1335
aF8.88595
aI0
aI01
aI00
aI00
aI00
aI00
aI00
aI00
aI00
aa(lp1336
I234378
aF327.0898222222222
aF429.906
ag1333
aS'utopia'
p1337
aS'#656565'
p1338
aF8.88595
aI0
aI00
aI00
aI00
aI00
aI00
aI00
aI00
aI00
aa(lp1339
I230332
aF333.404
aF429.906
aVp2
p1340
aS'utopia'
p1341
aS'#434343'
p1342
aF8.88595
aI0
aI01
aI00
aI00
aI00
aI00
aI00
aI00
aI00
aa(lp1343
I151511
aF293.418
aF445.456
aVp2
p1344
aS'utopia'
p1345
aS'#656565'
p1346
aF8.88595
aI0
aI01
aI00
aI00
aI00
aI00
aI00
aI00
aI00
aa(lp1347
I234378
aF334.145
aF445.456
aVp2
p1348
aS'utopia'
p1349
aS'#656565'
p1350
aF8.88595
aI0
aI01
aI00
aI00
aI00
aI00
aI00
aI00
aI00
aa(lp1351
I234378
aF375.9870909090909
aF445.456
ag1348
aS'utopia'
p1352
aS'#656565'
p1353
aF8.88595
aI0
aI00
aI00
aI00
aI00
aI00
aI00
aI00
aI00
aa(lp1354
I201816
aF382.277
aF445.456
aVp2
p1355
aS'utopia'
p1356
aS'#434343'
p1357
aF8.88595
aI0
aI01
aI00
aI00
aI00
aI00
aI00
aI00
aI00
aa(lp1358
I1
aI0
aI0
aI0
aI0
aI0
aI0
aI0
aI0
aI0
aI0
aI0
aI0
aI0
aI0
aI0
aI0
aI0
aI0
aI0
aI0
aI0
aI0
aI0
aI0
aI0
aI0
aI0
aI0
aI0
aI0
aI0
aI0
aI0
aI0
aI0
aI0
aI0
aI0
aI0
aI0
aI0
aI0
aI0
aI0
aI0
aI0
aI0
aI0
aI0
aI0
aI0
aI0
aI0
aI0
aI0
aI0
aI0
aI0
aI0
aI0
aI0
aI0
aI0
aI0
aI0
aI0
aI0
aI0
aI0
aI0
aI0
aI0
aI0
aI0
aI0
aI0
aI0
aI0
aI0
aI0
aI0
aI0
aI0
aI0
aI0
aI0
aI0
aI0
aI0
aI0
aI0
aI0
aI0
aI0
aI0
aI0
aI0
aI0
aI0
aI0
aI0
aI0
aI0
aI0
aI0
aI0
aI0
aI0
aI0
aI0
aI0
aI0
aI0
aI0
aI0
aI0
aI0
aI0
aI0
aI0
aI0
aI0
aI0
aI0
aI0
aI0
aI0
aI0
aI0
aI0
aI0
aI0
aI0
aI0
aI0
aI0
aI0
aI0
aI0
aI0
aI0
aI0
aI0
aI0
aI0
aI0
aI0
aI0
aI0
aI0
aI0
aI0
aI0
aI0
aI0
aI0
aI0
aI0
aI0
aI0
aI0
aI0
aI1
aI1
aI0
aI0
aI0
aI0
aI0
aI0
aI0
aI0
aI0
aI0
aI0
aI0
aI0
aI0
aI0
aI0
aI0
aI0
aI0
aI0
aI0
aI0
aI0
aI0
aI0
aI0
aI1
aI0
aI0
aI0
aI0
aI0
aI0
aI0
aI0
aI0
aI0
aI0
aI0
aI0
aI0
aI0
aI0
aI0
aI0
aI0
aI0
aI0
aI0
aI0
aI0
aI0
aI0
aI0
aI0
aI0
aI0
aI0
aI0
aI0
aI0
aI0
aI1
aI1
aI0
aI0
aI0
aI0
aI0
aI0
aI0
aI0
aI0
aI0
aI0
aI0
aI0
aI0
aI0
aI0
aI0
aI0
aI0
aI0
aI0
aI0
aI0
aI0
aI0
aI0
aI0
aI0
aI0
aI0
aI0
aI0
aI0
aI0
aI0
aI0
aI0
aI0
aI0
aI0
aI0
aI0
aI0
aI0
aI0
aI0
aI0
aI0
aI0
aI0
aI1
aI1
aI0
aI0
aI0
aI0
aI0
aI0
aI0
aI0
aI0
aI1
aI0
aI0
aI0
aI1
aI1
aI0
aI0
aI0
aI0
aI0
aI0
aI0
aI0
aI0
aI0
aI0
aI0
aI0
aI0
aI0
aI0
aI0
aI0
aI0
aI0
aI0
aI0
aI0
aI0
aI0
aI0
aI0
aI0
aI0
aI0
aI0
aI0
aI0
aI0
aI0
aI0
aI0
aI0
aI0
aI0
aI0
aI0
aI0
aI0
aI0
aI0
aI0
aI0
aI0
aI0
aI0
aI0
aI0
aI0
aI0
aI0
aI0
aI0
aI0
aI0
aI0
aI0
aI0
aI0
atp1359
.