((lp0
(lp1
I234378
aF40.9084
aF53.0111
aVp1
p2
aS'utopia'
p3
aS'#02304b'
p4
aF11.8479
aI1
aI01
aI00
aI00
aI00
aI00
aI00
aI00
aI00
aa(lp5
I234378
aF72.7498
aF53.0111
aVp1
p6
aS'utopia'
p7
aS'#02304b'
p8
aF11.8479
aI1
aI01
aI00
aI00
aI00
aI00
aI00
aI00
aI00
aa(lp9
I234378
aF46.8324
aF74.4677
aVp1
p10
aS'utopia'
p11
aS'#656565'
p12
aF8.88595
aI0
aI01
aI00
aI00
aI00
aI00
aI00
aI00
aI00
aa(lp13
I234378
aF77.1927
aF74.4677
aVp1
p14
aS'utopia'
p15
aS'#656565'
p16
aF8.88595
aI0
aI00
aI00
aI01
aI01
aI00
aI00
aI00
aI00
aa(lp17
I234378
aF89.0407
aF74.4677
aVp1
p18
aS'utopia'
p19
aS'#656565'
p20
aF8.88595
aI0
aI00
aI00
aI00
aI00
aI00
aI00
aI00
aI00
aa(lp21
I135639
aF111.996
aF74.4677
aVp1
p22
aS'utopia'
p23
aS'#656565'
p24
aF8.88595
aI0
aI00
aI00
aI00
aI00
aI00
aI00
aI00
aI00
aa(lp25
I21716
aF121.622
aF74.4677
aVp1
p26
aS'utopia'
p27
aS'#656565'
p28
aF8.88595
aI0
aI01
aI00
aI00
aI00
aI00
aI00
aI00
aI00
aa(lp29
I68032
aF140.135
aF74.4677
aVp1
p30
aS'utopia'
p31
aS'#656565'
p32
aF8.88595
aI0
aI01
aI00
aI00
aI00
aI00
aI00
aI00
aI00
aa(lp33
I166268
aF203.818
aF74.4677
aVp1
p34
aS'utopia'
p35
aS'#656565'
p36
aF8.88595
aI0
aI01
aI00
aI00
aI00
aI00
aI00
aI00
aI00
aa(lp37
I234378
aF260.836
aF74.4677
aVp1
p38
aS'utopia'
p39
aS'#656565'
p40
aF8.88595
aI0
aI00
aI00
aI00
aI00
aI00
aI00
aI00
aI00
aa(lp41
I84662
aF265.29674
aF74.4677
ag38
aS'utopia'
p42
aS'#656565'
p43
aF8.88595
aI0
aI01
aI00
aI00
aI00
aI00
aI00
aI00
aI00
aa(lp44
I21716
aF285.272
aF74.4677
aVp1
p45
aS'utopia'
p46
aS'#656565'
p47
aF8.88595
aI0
aI01
aI00
aI00
aI00
aI00
aI00
aI00
aI00
aa(lp48
I234378
aF300.17431999999997
aF74.4677
ag45
aS'utopia'
p49
aS'#656565'
p50
aF8.88595
aI0
aI00
aI00
aI00
aI00
aI00
aI00
aI00
aI00
aa(lp51
I155019
aF306.006
aF74.4677
aVp1
p52
aS'utopia'
p53
aS'#656565'
p54
aF8.88595
aI0
aI01
aI00
aI00
aI00
aI00
aI00
aI00
aI00
aa(lp55
I21716
aF342.29
aF74.4677
aVp1
p56
aS'utopia'
p57
aS'#656565'
p58
aF8.88595
aI0
aI01
aI00
aI00
aI00
aI00
aI00
aI00
aI00
aa(lp59
I234378
aF357.19232
aF74.4677
ag56
aS'utopia'
p60
aS'#656565'
p61
aF8.88595
aI0
aI00
aI00
aI00
aI00
aI00
aI00
aI00
aI00
aa(lp62
I148996
aF363.024
aF74.4677
aVp1
p63
aS'utopia'
p64
aS'#656565'
p65
aF8.88595
aI0
aI01
aI00
aI00
aI00
aI00
aI00
aI00
aI00
aa(lp66
I234378
aF386.60734285714284
aF74.4677
ag63
aS'utopia'
p67
aS'#656565'
p68
aF8.88595
aI0
aI00
aI00
aI00
aI00
aI00
aI00
aI00
aI00
aa(lp69
I176767
aF392.644
aF74.4677
aVp1
p70
aS'utopia'
p71
aS'#656565'
p72
aF8.88595
aI0
aI01
aI00
aI00
aI00
aI00
aI00
aI00
aI00
aa(lp73
I234378
aF430.73542
aF74.4677
ag70
aS'utopia'
p74
aS'#656565'
p75
aF8.88595
aI0
aI00
aI00
aI00
aI00
aI00
aI00
aI00
aI00
aa(lp76
I234378
aF40.9084
aF84.8346
aVp1
p77
aS'utopia'
p78
aS'#656565'
p79
aF8.88595
aI0
aI01
aI00
aI00
aI00
aI00
aI00
aI00
aI00
aa(lp80
I234378
aF77.00047
aF84.8346
ag77
aS'utopia'
p81
aS'#656565'
p82
aF8.88595
aI0
aI00
aI00
aI00
aI00
aI00
aI00
aI00
aI00
aa(lp83
I89217
aF83.1167
aF84.8346
aVp1
p84
aS'utopia'
p85
aS'#656565'
p86
aF8.88595
aI0
aI01
aI01
aI00
aI00
aI00
aI00
aI00
aI00
aa(lp87
I234378
aF102.26905555555555
aF84.8346
ag84
aS'utopia'
p88
aS'#656565'
p89
aF8.88595
aI0
aI01
aI01
aI00
aI00
aI00
aI00
aI00
aI00
aa(lp90
I234378
aF115.88332222222222
aF84.8346
ag84
aS'utopia'
p91
aS'#656565'
p92
aF8.88595
aI0
aI00
aI00
aI00
aI00
aI00
aI00
aI00
aI00
aa(lp93
I234378
aF126.065
aF84.8346
aVp1
p94
aS'utopia'
p95
aS'#656565'
p96
aF8.88595
aI0
aI01
aI00
aI00
aI00
aI00
aI00
aI00
aI00
aa(lp97
I234378
aF152.07858333333334
aF84.8346
ag94
aS'utopia'
p98
aS'#656565'
p99
aF8.88595
aI0
aI00
aI00
aI00
aI00
aI00
aI00
aI00
aI00
aa(lp100
I234378
aF159.388
aF84.8346
aVp1
p101
aS'utopia'
p102
aS'#656565'
p103
aF8.88595
aI0
aI01
aI00
aI00
aI00
aI00
aI00
aI00
aI00
aa(lp104
I234378
aF197.191
aF84.8346
ag101
aS'utopia'
p105
aS'#656565'
p106
aF8.88595
aI0
aI00
aI00
aI00
aI00
aI00
aI00
aI00
aI00
aa(lp107
I234378
aF203.077
aF84.8346
aVp1
p108
aS'utopia'
p109
aS'#656565'
p110
aF8.88595
aI0
aI01
aI01
aI01
aI00
aI00
aI00
aI00
aI00
aa(lp111
I234378
aF230.32475
aF84.8346
ag108
aS'utopia'
p112
aS'#656565'
p113
aF8.88595
aI0
aI00
aI00
aI00
aI00
aI00
aI00
aI00
aI00
aa(lp114
I234378
aF237.88
aF84.8346
aVp1
p115
aS'utopia'
p116
aS'#656565'
p117
aF8.88595
aI0
aI01
aI01
aI00
aI00
aI00
aI00
aI00
aI00
aa(lp118
I234378
aF250.740175
aF84.8346
ag115
aS'utopia'
p119
aS'#656565'
p120
aF8.88595
aI0
aI00
aI00
aI00
aI00
aI00
aI00
aI00
aI00
aa(lp121
I234378
aF257.133
aF84.8346
aVp1
p122
aS'utopia'
p123
aS'#656565'
p124
aF8.88595
aI0
aI01
aI00
aI00
aI00
aI00
aI00
aI00
aI00
aa(lp125
I234378
aF282.6204857142857
aF84.8346
ag122
aS'utopia'
p126
aS'#656565'
p127
aF8.88595
aI0
aI00
aI00
aI00
aI00
aI00
aI00
aI00
aI00
aa(lp128
I234378
aF288.975
aF84.8346
aVp1
p129
aS'utopia'
p130
aS'#656565'
p131
aF8.88595
aI0
aI01
aI00
aI00
aI00
aI00
aI00
aI00
aI00
aa(lp132
I85218
aF331.923
aF84.8346
aVp1
p133
aS'utopia'
p134
aS'#656565'
p135
aF8.88595
aI0
aI00
aI00
aI00
aI00
aI00
aI00
aI00
aI00
aa(lp136
I17350
aF348.955
aF84.8346
aVp1
p137
aS'utopia'
p138
aS'#656565'
p139
aF8.88595
aI0
aI01
aI00
aI00
aI00
aI00
aI00
aI00
aI00
aa(lp140
I234378
aF368.948
aF84.8346
aVp1
p141
aS'utopia'
p142
aS'#656565'
p143
aF8.88595
aI0
aI01
aI00
aI00
aI00
aI00
aI00
aI00
aI00
aa(lp144
I89217
aF406.713
aF84.8346
aVp1
p145
aS'utopia'
p146
aS'#656565'
p147
aF8.88595
aI0
aI01
aI01
aI00
aI00
aI00
aI00
aI00
aI00
aa(lp148
I234378
aF425.76684
aF84.8346
ag145
aS'utopia'
p149
aS'#656565'
p150
aF8.88595
aI0
aI00
aI00
aI00
aI00
aI00
aI00
aI00
aI00
aa(lp151
I234378
aF59.4208
aF132.967
aVp1
p152
aS'utopia'
p153
aS'#0d75b4'
p154
aF8.88595
aI0
aI00
aI00
aI00
aI00
aI00
aI01
aI00
aI00
aa(lp155
I234378
aF301.563
aF124.081
aVp1
p156
aS'utopia'
p157
aS'#000000'
p158
aF8.88595
aI0
aI00
aI00
aI01
aI01
aI01
aI00
aI00
aI00
aa(lp159
I15548
aF55.7183
aF176.656
aVp1
p160
aS'utopia'
p161
aS'#878787'
p162
aF8.88595
aI0
aI01
aI00
aI00
aI00
aI00
aI00
aI00
aI00
aa(lp163
I104542
aF89.0407
aF176.656
aVp1
p164
aS'utopia'
p165
aS'#878787'
p166
aF8.88595
aI0
aI01
aI00
aI00
aI00
aI00
aI00
aI00
aI00
aa(lp167
I234378
aF133.94655
aF176.656
ag164
aS'utopia'
p168
aS'#878787'
p169
aF8.88595
aI0
aI00
aI00
aI00
aI00
aI00
aI00
aI00
aI00
aa(lp170
I234378
aF142.356
aF176.656
aVp1
p171
aS'utopia'
p172
aS'#000000'
p173
aF8.88595
aI0
aI01
aI00
aI00
aI00
aI00
aI00
aI00
aI00
aa(lp174
I234378
aF149.34433333333334
aF176.656
ag171
aS'utopia'
p175
aS'#000000'
p176
aF8.88595
aI0
aI00
aI00
aI00
aI00
aI00
aI00
aI00
aI00
aa(lp177
I63022
aF154.945
aF176.656
aVp1
p178
aS'utopia'
p179
aS'#000000'
p180
aF8.88595
aI0
aI01
aI00
aI00
aI00
aI00
aI00
aI00
aI00
aa(lp181
I100815
aF189.008
aF176.656
aVp1
p182
aS'utopia'
p183
aS'#000000'
p184
aF8.88595
aI0
aI01
aI00
aI00
aI00
aI00
aI00
aI00
aI00
aa(lp185
I234378
aF231.5439125
aF176.656
ag182
aS'utopia'
p186
aS'#000000'
p187
aF8.88595
aI0
aI00
aI00
aI00
aI00
aI00
aI00
aI00
aI00
aa(lp188
I43275
aF236.270125
aF176.656
ag182
aS'utopia'
p189
aS'#000000'
p190
aF8.88595
aI0
aI01
aI00
aI00
aI00
aI00
aI00
aI00
aI00
aa(lp191
I175409
aF266.76
aF176.656
aVp1
p192
aS'utopia'
p193
aS'#000000'
p194
aF8.88595
aI0
aI01
aI00
aI00
aI00
aI00
aI00
aI00
aI00
aa(lp195
I234378
aF55.7183
aF187.023
aVp1
p196
aS'utopia'
p197
aS'#000000'
p198
aF8.88595
aI0
aI01
aI01
aI00
aI00
aI00
aI00
aI00
aI00
aa(lp199
I234378
aF104.591
aF187.023
aVp1
p200
aS'utopia'
p201
aS'#000000'
p202
aF8.88595
aI0
aI01
aI00
aI00
aI00
aI00
aI00
aI00
aI00
aa(lp203
I15548
aF55.7183
aF204.795
aVp1
p204
aS'utopia'
p205
aS'#878787'
p206
aF8.88595
aI0
aI01
aI00
aI00
aI00
aI00
aI00
aI00
aI00
aa(lp207
I2006
aF89.0407
aF204.795
aVp1
p208
aS'utopia'
p209
aS'#878787'
p210
aF8.88595
aI0
aI01
aI00
aI00
aI00
aI00
aI00
aI00
aI00
aa(lp211
I234378
aF124.77815
aF204.795
ag208
aS'utopia'
p212
aS'#878787'
p213
aF8.88595
aI0
aI00
aI00
aI00
aI00
aI00
aI00
aI00
aI00
aa(lp214
I234378
aF134.211
aF204.795
aVp1
p215
aS'utopia'
p216
aS'#000000'
p217
aF8.88595
aI0
aI01
aI00
aI00
aI00
aI00
aI00
aI00
aI00
aa(lp218
I234378
aF166.3519
aF204.795
ag215
aS'utopia'
p219
aS'#000000'
p220
aF8.88595
aI0
aI01
aI00
aI00
aI00
aI00
aI00
aI00
aI00
aa(lp221
I15548
aF55.7183
aF222.567
aVp1
p222
aS'utopia'
p223
aS'#878787'
p224
aF8.88595
aI0
aI01
aI00
aI00
aI00
aI00
aI00
aI00
aI00
aa(lp225
I17057
aF89.0407
aF222.567
aVp1
p226
aS'utopia'
p227
aS'#878787'
p228
aF8.88595
aI0
aI01
aI00
aI00
aI00
aI00
aI00
aI00
aI00
aa(lp229
I234378
aF122.05430000000001
aF222.567
ag226
aS'utopia'
p230
aS'#878787'
p231
aF8.88595
aI0
aI00
aI00
aI00
aI00
aI00
aI00
aI00
aI00
aa(lp232
I234378
aF130.508
aF222.567
aVp1
p233
aS'utopia'
p234
aS'#000000'
p235
aF8.88595
aI0
aI01
aI00
aI00
aI00
aI00
aI00
aI00
aI00
aa(lp236
I234378
aF173.457
aF222.567
aVp1
p237
aS'utopia'
p238
aS'#000000'
p239
aF8.88595
aI0
aI00
aI00
aI00
aI00
aI00
aI00
aI00
aI00
aa(lp240
I234378
aF180.122
aF222.567
aVp1
p241
aS'utopia'
p242
aS'#000000'
p243
aF8.88595
aI0
aI01
aI00
aI00
aI00
aI00
aI00
aI00
aI00
aa(lp244
I234378
aF55.7183
aF240.339
aVp1
p245
aS'utopia'
p246
aS'#878787'
p247
aF8.88595
aI0
aI01
aI00
aI00
aI00
aI00
aI00
aI00
aI00
aa(lp248
I234378
aF70.62062
aF240.339
ag245
aS'utopia'
p249
aS'#878787'
p250
aF8.88595
aI0
aI00
aI00
aI00
aI00
aI00
aI00
aI00
aI00
aa(lp251
I17057
aF76.4522
aF240.339
aVp1
p252
aS'utopia'
p253
aS'#878787'
p254
aF8.88595
aI0
aI01
aI00
aI00
aI00
aI00
aI00
aI00
aI00
aa(lp255
I234378
aF109.4658
aF240.339
ag252
aS'utopia'
p256
aS'#878787'
p257
aF8.88595
aI0
aI00
aI00
aI00
aI00
aI00
aI00
aI00
aI00
aa(lp258
I234378
aF117.92
aF240.339
aVp1
p259
aS'utopia'
p260
aS'#000000'
p261
aF8.88595
aI0
aI01
aI00
aI00
aI00
aI00
aI00
aI00
aI00
aa(lp262
I234378
aF160.869
aF240.339
aVp1
p263
aS'utopia'
p264
aS'#000000'
p265
aF8.88595
aI0
aI00
aI00
aI00
aI00
aI00
aI00
aI00
aI00
aa(lp266
I234378
aF167.533
aF240.339
aVp1
p267
aS'utopia'
p268
aS'#000000'
p269
aF8.88595
aI0
aI01
aI00
aI00
aI00
aI00
aI00
aI00
aI00
aa(lp270
I234378
aF205.62442
aF240.339
ag267
aS'utopia'
p271
aS'#000000'
p272
aF8.88595
aI0
aI00
aI00
aI00
aI00
aI00
aI00
aI00
aI00
aa(lp273
I234378
aF211.963
aF240.339
aVp1
p274
aS'utopia'
p275
aS'#000000'
p276
aF8.88595
aI0
aI01
aI00
aI00
aI00
aI00
aI00
aI00
aI00
aa(lp277
I234378
aF229.82732
aF240.339
ag274
aS'utopia'
p278
aS'#000000'
p279
aF8.88595
aI0
aI00
aI00
aI00
aI00
aI00
aI00
aI00
aI00
aa(lp280
I234378
aF236.399
aF240.339
aVp1
p281
aS'utopia'
p282
aS'#000000'
p283
aF8.88595
aI0
aI01
aI00
aI00
aI00
aI00
aI00
aI00
aI00
aa(lp284
I98580
aF55.7183
aF258.111
aVp1
p285
aS'utopia'
p286
aS'#878787'
p287
aF8.88595
aI0
aI01
aI00
aI00
aI00
aI00
aI00
aI00
aI00
aa(lp288
I166289
aF100.148
aF258.111
aVp1
p289
aS'utopia'
p290
aS'#878787'
p291
aF8.88595
aI0
aI01
aI00
aI00
aI00
aI00
aI00
aI00
aI00
aa(lp292
I234378
aF116.82751999999999
aF258.111
ag289
aS'utopia'
p293
aS'#878787'
p294
aF8.88595
aI0
aI00
aI00
aI00
aI00
aI00
aI00
aI00
aI00
aa(lp295
I22476
aF125.325
aF258.111
aVp1
p296
aS'utopia'
p297
aS'#000000'
p298
aF8.88595
aI0
aI01
aI01
aI00
aI00
aI00
aI00
aI00
aI00
aa(lp299
I234378
aF135.692
aF258.111
aVp1
p300
aS'utopia'
p301
aS'#000000'
p302
aF8.88595
aI0
aI01
aI00
aI00
aI00
aI00
aI00
aI00
aI00
aa(lp303
I123665
aF178.641
aF258.111
aVp1
p304
aS'utopia'
p305
aS'#000000'
p306
aF8.88595
aI0
aI01
aI00
aI00
aI00
aI00
aI00
aI00
aI00
aa(lp307
I234378
aF226.032
aF258.111
aVp1
p308
aS'utopia'
p309
aS'#000000'
p310
aF8.88595
aI0
aI01
aI00
aI00
aI00
aI00
aI00
aI00
aI00
aa(lp311
I234378
aF283.051
aF258.111
aVp1
p312
aS'utopia'
p313
aS'#000000'
p314
aF8.88595
aI0
aI00
aI00
aI00
aI00
aI00
aI00
aI00
aI00
aa(lp315
I20593
aF55.7183
aF268.478
aVp1
p316
aS'utopia'
p317
aS'#000000'
p318
aF8.88595
aI0
aI01
aI00
aI00
aI00
aI00
aI00
aI00
aI00
aa(lp319
I176435
aF55.7183
aF286.25
aVp1
p320
aS'utopia'
p321
aS'#878787'
p322
aF8.88595
aI0
aI01
aI00
aI00
aI00
aI00
aI00
aI00
aI00
aa(lp323
I234378
aF71.80542
aF286.25
ag320
aS'utopia'
p324
aS'#878787'
p325
aF8.88595
aI0
aI00
aI00
aI00
aI00
aI00
aI00
aI00
aI00
aa(lp326
I210461
aF80.1547
aF286.25
aVp1
p327
aS'utopia'
p328
aS'#000000'
p329
aF8.88595
aI0
aI01
aI00
aI00
aI00
aI00
aI00
aI00
aI00
aa(lp330
I175409
aF104.591
aF286.25
aVp1
p331
aS'utopia'
p332
aS'#000000'
p333
aF8.88595
aI0
aI01
aI00
aI00
aI00
aI00
aI00
aI00
aI00
aa(lp334
I234378
aF123.75304444444444
aF286.25
ag331
aS'utopia'
p335
aS'#000000'
p336
aF8.88595
aI0
aI00
aI00
aI00
aI00
aI00
aI00
aI00
aI00
aa(lp337
I2737
aF128.54355555555554
aF286.25
ag331
aS'utopia'
p338
aS'#000000'
p339
aF8.88595
aI0
aI01
aI00
aI00
aI00
aI00
aI00
aI00
aI00
aa(lp340
I175409
aF149.761
aF286.25
aVp1
p341
aS'utopia'
p342
aS'#000000'
p343
aF8.88595
aI0
aI01
aI00
aI00
aI00
aI00
aI00
aI00
aI00
aa(lp344
I74589
aF55.7183
aF304.021
aVp1
p345
aS'utopia'
p346
aS'#878787'
p347
aF8.88595
aI0
aI01
aI00
aI00
aI00
aI00
aI00
aI00
aI00
aa(lp348
I234378
aF87.41545555555555
aF304.021
ag345
aS'utopia'
p349
aS'#878787'
p350
aF8.88595
aI0
aI00
aI00
aI00
aI00
aI00
aI00
aI00
aI00
aa(lp351
I22476
aF95.7051
aF304.021
aVp1
p352
aS'utopia'
p353
aS'#000000'
p354
aF8.88595
aI0
aI01
aI01
aI00
aI00
aI00
aI00
aI00
aI00
aa(lp355
I234378
aF105.30374
aF304.021
ag352
aS'utopia'
p356
aS'#000000'
p357
aF8.88595
aI0
aI01
aI00
aI00
aI00
aI00
aI00
aI00
aI00
aa(lp358
I234378
aF139.69830000000002
aF304.021
ag352
aS'utopia'
p359
aS'#000000'
p360
aF8.88595
aI0
aI00
aI00
aI00
aI00
aI00
aI00
aI00
aI00
aa(lp361
I234378
aF134.99762
aF304.021
ag352
aS'utopia'
p362
aS'#000000'
p363
aF8.88595
aI0
aI01
aI00
aI00
aI00
aI00
aI00
aI00
aI00
aa(lp364
I234378
aF183.824
aF304.021
aVp1
p365
aS'utopia'
p366
aS'#000000'
p367
aF8.88595
aI0
aI01
aI00
aI00
aI00
aI00
aI00
aI00
aI00
aa(lp368
I231013
aF55.7183
aF321.793
aVp1
p369
aS'utopia'
p370
aS'#878787'
p371
aF8.88595
aI0
aI01
aI00
aI00
aI00
aI00
aI00
aI00
aI00
aa(lp372
I234378
aF72.7498
aF321.793
aVp1
p373
aS'utopia'
p374
aS'#878787'
p375
aF8.88595
aI0
aI01
aI00
aI00
aI00
aI00
aI00
aI00
aI00
aa(lp376
I234378
aF91.25542857142857
aF321.793
ag373
aS'utopia'
p377
aS'#878787'
p378
aF8.88595
aI0
aI00
aI00
aI00
aI00
aI00
aI00
aI00
aI00
aa(lp379
I84662
aF98.6671
aF321.793
aVp1
p380
aS'utopia'
p381
aS'#000000'
p382
aF8.88595
aI0
aI01
aI00
aI00
aI00
aI00
aI00
aI00
aI00
aa(lp383
I21716
aF120.141
aF321.793
aVp1
p384
aS'utopia'
p385
aS'#000000'
p386
aF8.88595
aI0
aI01
aI00
aI00
aI00
aI00
aI00
aI00
aI00
aa(lp387
I234378
aF135.04332
aF321.793
ag384
aS'utopia'
p388
aS'#000000'
p389
aF8.88595
aI0
aI00
aI00
aI00
aI00
aI00
aI00
aI00
aI00
aa(lp390
I155019
aF140.875
aF321.793
aVp1
p391
aS'utopia'
p392
aS'#000000'
p393
aF8.88595
aI0
aI01
aI00
aI00
aI00
aI00
aI00
aI00
aI00
aa(lp394
I21716
aF177.16
aF321.793
aVp1
p395
aS'utopia'
p396
aS'#000000'
p397
aF8.88595
aI0
aI01
aI00
aI00
aI00
aI00
aI00
aI00
aI00
aa(lp398
I171173
aF199.375
aF321.793
aVp1
p399
aS'utopia'
p400
aS'#000000'
p401
aF8.88595
aI0
aI01
aI00
aI00
aI00
aI00
aI00
aI00
aI00
aa(lp402
I234378
aF237.85118181818183
aF321.793
ag399
aS'utopia'
p403
aS'#000000'
p404
aF8.88595
aI0
aI00
aI00
aI00
aI00
aI00
aI00
aI00
aI00
aa(lp405
I197030
aF243.804
aF321.793
aVp1
p406
aS'utopia'
p407
aS'#000000'
p408
aF8.88595
aI0
aI01
aI01
aI00
aI00
aI00
aI00
aI00
aI00
aa(lp409
I234378
aF248.51156666666668
aF321.793
ag406
aS'utopia'
p410
aS'#000000'
p411
aF8.88595
aI0
aI00
aI00
aI00
aI00
aI00
aI00
aI00
aI00
aa(lp412
I161851
aF253.21913333333336
aF321.793
ag406
aS'utopia'
p413
aS'#000000'
p414
aF8.88595
aI0
aI01
aI01
aI00
aI00
aI00
aI00
aI00
aI00
aa(lp415
I234378
aF260.095
aF321.793
aVp1
p416
aS'utopia'
p417
aS'#000000'
p418
aF8.88595
aI0
aI01
aI00
aI00
aI00
aI00
aI00
aI00
aI00
aa(lp419
I234378
aF293.1086
aF321.793
ag416
aS'utopia'
p420
aS'#000000'
p421
aF8.88595
aI0
aI00
aI00
aI00
aI00
aI00
aI00
aI00
aI00
aa(lp422
I234378
aF55.7183
aF332.16
aVp1
p423
aS'utopia'
p424
aS'#000000'
p425
aF8.88595
aI0
aI01
aI01
aI00
aI00
aI00
aI00
aI00
aI00
aa(lp426
I234378
aF74.76742
aF332.16
ag423
aS'utopia'
p427
aS'#000000'
p428
aF8.88595
aI0
aI00
aI00
aI00
aI00
aI00
aI00
aI00
aI00
aa(lp429
I21606
aF81.6357
aF332.16
aVp1
p430
aS'utopia'
p431
aS'#000000'
p432
aF8.88595
aI0
aI01
aI00
aI00
aI00
aI00
aI00
aI00
aI00
aa(lp433
I234378
aF120.11188181818181
aF332.16
ag430
aS'utopia'
p434
aS'#000000'
p435
aF8.88595
aI0
aI00
aI00
aI00
aI00
aI00
aI00
aI00
aI00
aa(lp436
I234378
aF126.065
aF332.16
aVp1
p437
aS'utopia'
p438
aS'#000000'
p439
aF8.88595
aI0
aI01
aI01
aI00
aI00
aI00
aI00
aI00
aI00
aa(lp440
I234378
aF145.11411999999999
aF332.16
ag437
aS'utopia'
p441
aS'#000000'
p442
aF8.88595
aI0
aI00
aI00
aI00
aI00
aI00
aI00
aI00
aI00
aa(lp443
I234378
aF151.983
aF332.16
aVp1
p444
aS'utopia'
p445
aS'#000000'
p446
aF8.88595
aI0
aI01
aI00
aI00
aI00
aI00
aI00
aI00
aI00
aa(lp447
I234378
aF188.74152
aF332.16
ag444
aS'utopia'
p448
aS'#000000'
p449
aF8.88595
aI0
aI00
aI00
aI00
aI00
aI00
aI00
aI00
aI00
aa(lp450
I234378
aF194.932
aF332.16
aVp1
p451
aS'utopia'
p452
aS'#000000'
p453
aF8.88595
aI0
aI01
aI01
aI01
aI00
aI00
aI00
aI00
aI00
aa(lp454
I234378
aF220.5652727272727
aF332.16
ag451
aS'utopia'
p455
aS'#000000'
p456
aF8.88595
aI0
aI00
aI00
aI00
aI00
aI00
aI00
aI00
aI00
aa(lp457
I234378
aF225.69192727272727
aF332.16
ag451
aS'utopia'
p458
aS'#000000'
p459
aF8.88595
aI0
aI01
aI01
aI01
aI00
aI00
aI00
aI00
aI00
aa(lp460
I234378
aF246.19854545454547
aF332.16
ag451
aS'utopia'
p461
aS'#000000'
p462
aF8.88595
aI0
aI00
aI00
aI00
aI00
aI00
aI00
aI00
aI00
aa(lp463
I148996
aF253.431
aF332.16
aVp1
p464
aS'utopia'
p465
aS'#000000'
p466
aF8.88595
aI0
aI01
aI00
aI00
aI00
aI00
aI00
aI00
aI00
aa(lp467
I234378
aF277.0143428571429
aF332.16
ag464
aS'utopia'
p468
aS'#000000'
p469
aF8.88595
aI0
aI00
aI00
aI00
aI00
aI00
aI00
aI00
aI00
aa(lp470
I176767
aF55.7183
aF342.527
aVp1
p471
aS'utopia'
p472
aS'#000000'
p473
aF8.88595
aI0
aI01
aI00
aI00
aI00
aI00
aI00
aI00
aI00
aa(lp474
I234378
aF93.80972
aF342.527
ag471
aS'utopia'
p475
aS'#000000'
p476
aF8.88595
aI0
aI00
aI00
aI00
aI00
aI00
aI00
aI00
aI00
aa(lp477
I234378
aF100.148
aF342.527
aVp1
p478
aS'utopia'
p479
aS'#000000'
p480
aF8.88595
aI0
aI01
aI00
aI01
aI00
aI00
aI00
aI00
aI00
aa(lp481
I234378
aF120.60791666666665
aF342.527
ag478
aS'utopia'
p482
aS'#000000'
p483
aF8.88595
aI0
aI00
aI00
aI00
aI00
aI00
aI00
aI00
aI00
aa(lp484
I44279
aF126.806
aF342.527
aVp1
p485
aS'utopia'
p486
aS'#000000'
p487
aF8.88595
aI0
aI01
aI00
aI00
aI00
aI00
aI00
aI00
aI00
aa(lp488
I234378
aF139.11079999999998
aF342.527
ag485
aS'utopia'
p489
aS'#000000'
p490
aF8.88595
aI0
aI00
aI00
aI00
aI00
aI00
aI00
aI00
aI00
aa(lp491
I17350
aF145.318
aF342.527
aVp1
p492
aS'utopia'
p493
aS'#000000'
p494
aF8.88595
aI0
aI01
aI00
aI00
aI00
aI00
aI00
aI00
aI00
aa(lp495
I234378
aF159.3144105263158
aF342.527
ag492
aS'utopia'
p496
aS'#000000'
p497
aF8.88595
aI0
aI01
aI00
aI00
aI00
aI00
aI00
aI00
aI00
aa(lp498
I234378
aF193.97150526315792
aF342.527
ag492
aS'utopia'
p499
aS'#000000'
p500
aF8.88595
aI0
aI00
aI00
aI00
aI00
aI00
aI00
aI00
aI00
aa(lp501
I89217
aF198.30364210526318
aF342.527
ag492
aS'utopia'
p502
aS'#000000'
p503
aF8.88595
aI0
aI01
aI01
aI00
aI00
aI00
aI00
aI00
aI00
aa(lp504
I234378
aF215.63218947368424
aF342.527
ag492
aS'utopia'
p505
aS'#000000'
p506
aF8.88595
aI0
aI00
aI00
aI00
aI00
aI00
aI00
aI00
aI00
aa(lp507
I234378
aF219.9643263157895
aF342.527
ag492
aS'utopia'
p508
aS'#000000'
p509
aF8.88595
aI0
aI00
aI00
aI00
aI00
aI00
aI00
aI00
aI00
aa(lp510
I234378
aF229.735
aF342.527
aVp1
p511
aS'utopia'
p512
aS'#000000'
p513
aF8.88595
aI0
aI01
aI01
aI00
aI00
aI00
aI00
aI00
aI00
aa(lp514
I234378
aF255.652
aF342.527
aVp1
p515
aS'utopia'
p516
aS'#000000'
p517
aF8.88595
aI0
aI01
aI01
aI01
aI00
aI00
aI00
aI00
aI00
aa(lp518
I29356
aF55.7183
aF352.894
aVp1
p519
aS'utopia'
p520
aS'#000000'
p521
aF8.88595
aI0
aI01
aI00
aI00
aI00
aI00
aI00
aI00
aI00
aa(lp522
I121293
aF103.851
aF352.894
aVp1
p523
aS'utopia'
p524
aS'#000000'
p525
aF8.88595
aI0
aI01
aI00
aI00
aI00
aI00
aI00
aI00
aI00
aa(lp526
I51933
aF40.1679
aF389.937
aVp1
p527
aS'utopia'
p528
aS'#02304b'
p529
aF11.8479
aI1
aI01
aI00
aI00
aI00
aI00
aI00
aI00
aI00
aa(lp530
I60220
aF72.0093
aF389.937
aVp1
p531
aS'utopia'
p532
aS'#02304b'
p533
aF11.8479
aI1
aI01
aI00
aI00
aI00
aI00
aI00
aI00
aI00
aa(lp534
I234378
aF40.9084
aF421.654
aVp1
p535
aS'utopia'
p536
aS'#000000'
p537
aF10.3669
aI1
aI01
aI00
aI00
aI00
aI00
aI00
aI00
aI00
aa(lp538
I234378
aF79.71315999999999
aF421.654
ag535
aS'utopia'
p539
aS'#000000'
p540
aF10.3669
aI1
aI01
aI00
aI00
aI00
aI00
aI00
aI00
aI00
aa(lp541
I234378
aF123.844
aF421.923
aVp1
p542
aS'utopia'
p543
aS'#656565'
p544
aF10.3669
aI0
aI00
aI00
aI00
aI00
aI00
aI00
aI00
aI00
aa(lp545
I15548
aF128.821425
aF421.923
ag542
aS'utopia'
p546
aS'#656565'
p547
aF10.3669
aI0
aI01
aI00
aI00
aI00
aI00
aI00
aI00
aI00
aa(lp548
I70289
aF166.052
aF421.923
aVp1
p549
aS'utopia'
p550
aS'#656565'
p551
aF10.3669
aI0
aI01
aI00
aI00
aI00
aI00
aI00
aI00
aI00
aa(lp552
I234378
aF209.40097777777777
aF421.923
ag549
aS'utopia'
p553
aS'#656565'
p554
aF10.3669
aI0
aI00
aI00
aI00
aI00
aI00
aI00
aI00
aI00
aa(lp555
I234378
aF40.9084
aF438.214
aVp1
p556
aS'utopia'
p557
aS'#656565'
p558
aF10.3669
aI0
aI01
aI00
aI00
aI00
aI00
aI00
aI00
aI00
aa(lp559
I234378
aF49.14373333333333
aF438.214
ag556
aS'utopia'
p560
aS'#656565'
p561
aF10.3669
aI0
aI00
aI00
aI00
aI00
aI00
aI00
aI00
aI00
aa(lp562
I63022
aF55.7183
aF438.214
aVp1
p563
aS'utopia'
p564
aS'#656565'
p565
aF10.3669
aI0
aI01
aI00
aI00
aI00
aI00
aI00
aI00
aI00
aa(lp566
I100815
aF94.2241
aF438.214
aVp1
p567
aS'utopia'
p568
aS'#656565'
p569
aF10.3669
aI0
aI01
aI00
aI00
aI00
aI00
aI00
aI00
aI00
aa(lp570
I234378
aF143.84936875
aF438.214
ag567
aS'utopia'
p571
aS'#656565'
p572
aF10.3669
aI0
aI00
aI00
aI00
aI00
aI00
aI00
aI00
aI00
aa(lp573
I43275
aF149.36328749999998
aF438.214
ag567
aS'utopia'
p574
aS'#656565'
p575
aF10.3669
aI0
aI01
aI00
aI00
aI00
aI00
aI00
aI00
aI00
aa(lp576
I175409
aF184.565
aF438.214
aVp1
p577
aS'utopia'
p578
aS'#656565'
p579
aF10.3669
aI0
aI01
aI00
aI00
aI00
aI00
aI00
aI00
aI00
aa(lp580
I234378
aF214.925
aF438.214
aVp1
p581
aS'utopia'
p582
aS'#656565'
p583
aF10.3669
aI0
aI01
aI01
aI00
aI00
aI00
aI00
aI00
aI00
aa(lp584
I234378
aF271.943
aF438.214
aVp1
p585
aS'utopia'
p586
aS'#656565'
p587
aF10.3669
aI0
aI01
aI00
aI00
aI00
aI00
aI00
aI00
aI00
aa(lp588
I234378
aF300.082
aF438.214
aVp1
p589
aS'utopia'
p590
aS'#656565'
p591
aF10.3669
aI0
aI01
aI00
aI00
aI00
aI00
aI00
aI00
aI01
aa(lp592
I234378
aF319.335
aF438.214
aVp1
p593
aS'utopia'
p594
aS'#656565'
p595
aF10.3669
aI0
aI00
aI00
aI01
aI01
aI01
aI00
aI00
aI00
aa(lp596
I75739
aF40.9084
aF458.045
aVp1
p597
aS'utopia'
p598
aS'#656565'
p599
aF8.88595
aI0
aI01
aI00
aI00
aI00
aI00
aI00
aI00
aI00
aa(lp600
I135639
aF57.9398
aF458.045
aVp1
p601
aS'utopia'
p602
aS'#656565'
p603
aF8.88595
aI0
aI00
aI00
aI00
aI00
aI00
aI00
aI00
aI00
aa(lp604
I177958
aF67.5663
aF458.045
aVp1
p605
aS'utopia'
p606
aS'#656565'
p607
aF8.88595
aI0
aI00
aI00
aI00
aI00
aI00
aI00
aI00
aI00
aa(lp608
I133618
aF97.9266
aF458.045
aVp1
p609
aS'utopia'
p610
aS'#656565'
p611
aF8.88595
aI0
aI00
aI00
aI00
aI00
aI00
aI00
aI00
aI00
aa(lp612
I144690
aF131.249
aF458.045
aVp1
p613
aS'utopia'
p614
aS'#656565'
p615
aF8.88595
aI0
aI00
aI00
aI00
aI00
aI00
aI00
aI00
aI00
aa(lp616
I113201
aF158.647
aF458.045
aVp1
p617
aS'utopia'
p618
aS'#656565'
p619
aF8.88595
aI0
aI00
aI00
aI00
aI00
aI00
aI00
aI00
aI00
aa(lp620
I234378
aF183.49977142857142
aF458.045
ag617
aS'utopia'
p621
aS'#656565'
p622
aF8.88595
aI0
aI00
aI00
aI00
aI00
aI00
aI00
aI00
aI00
aa(lp623
I234378
aF189.748
aF458.045
aVp1
p624
aS'utopia'
p625
aS'#656565'
p626
aF8.88595
aI0
aI00
aI00
aI00
aI00
aI00
aI00
aI00
aI00
aa(lp627
I234378
aF229.9024
aF458.045
ag624
aS'utopia'
p628
aS'#656565'
p629
aF8.88595
aI0
aI00
aI00
aI00
aI00
aI00
aI00
aI00
aI00
aa(lp630
I234378
aF235.659
aF458.045
aVp1
p631
aS'utopia'
p632
aS'#656565'
p633
aF8.88595
aI0
aI00
aI00
aI00
aI00
aI00
aI00
aI00
aI00
aa(lp634
I85218
aF269.722
aF458.045
aVp1
p635
aS'utopia'
p636
aS'#656565'
p637
aF8.88595
aI0
aI00
aI00
aI00
aI00
aI00
aI00
aI00
aI00
aa(lp638
I234378
aF286.753
aF458.045
aVp1
p639
aS'utopia'
p640
aS'#656565'
p641
aF8.88595
aI0
aI00
aI00
aI00
aI00
aI00
aI00
aI00
aI00
aa(lp642
I149270
aF324.518
aF458.045
aVp1
p643
aS'utopia'
p644
aS'#656565'
p645
aF8.88595
aI0
aI00
aI00
aI00
aI00
aI00
aI00
aI00
aI00
aa(lp646
I234378
aF362.284
aF458.045
aVp1
p647
aS'utopia'
p648
aS'#656565'
p649
aF8.88595
aI0
aI00
aI00
aI00
aI00
aI00
aI00
aI00
aI00
aa(lp650
I85218
aF387.46
aF458.045
aVp1
p651
aS'utopia'
p652
aS'#656565'
p653
aF8.88595
aI0
aI00
aI00
aI00
aI00
aI00
aI00
aI00
aI00
aa(lp654
I234378
aF404.492
aF458.045
aVp1
p655
aS'utopia'
p656
aS'#656565'
p657
aF8.88595
aI0
aI00
aI00
aI00
aI00
aI00
aI00
aI00
aI00
aa(lp658
I14859
aF440.776
aF458.045
aVp1
p659
aS'utopia'
p660
aS'#656565'
p661
aF8.88595
aI0
aI00
aI00
aI00
aI00
aI00
aI00
aI00
aI00
aa(lp662
I124676
aF474.839
aF458.045
aVp1
p663
aS'utopia'
p664
aS'#656565'
p665
aF8.88595
aI0
aI00
aI00
aI00
aI00
aI00
aI00
aI00
aI00
aa(lp666
I25931
aF492.611
aF458.045
aVp1
p667
aS'utopia'
p668
aS'#656565'
p669
aF8.88595
aI0
aI00
aI00
aI00
aI00
aI00
aI00
aI00
aI00
aa(lp670
I55730
aF516.307
aF458.045
aVp1
p671
aS'utopia'
p672
aS'#656565'
p673
aF8.88595
aI0
aI00
aI00
aI00
aI00
aI00
aI00
aI00
aI00
aa(lp674
I85218
aF40.9084
aF468.411
aVp1
p675
aS'utopia'
p676
aS'#656565'
p677
aF8.88595
aI0
aI00
aI00
aI00
aI00
aI00
aI00
aI00
aI00
aa(lp678
I63022
aF57.9398
aF468.411
aVp1
p679
aS'utopia'
p680
aS'#656565'
p681
aF8.88595
aI0
aI00
aI00
aI00
aI00
aI00
aI00
aI00
aI00
aa(lp682
I44160
aF92.0026
aF468.411
aVp1
p683
aS'utopia'
p684
aS'#656565'
p685
aF8.88595
aI0
aI00
aI00
aI00
aI00
aI00
aI00
aI00
aI00
aa(lp686
I234378
aF121.622
aF468.411
aVp1
p687
aS'utopia'
p688
aS'#656565'
p689
aF8.88595
aI0
aI00
aI00
aI00
aI00
aI00
aI00
aI00
aI00
aa(lp690
I234378
aF146.55952
aF468.411
ag687
aS'utopia'
p691
aS'#656565'
p692
aF8.88595
aI0
aI00
aI00
aI00
aI00
aI00
aI00
aI00
aI00
aa(lp693
I163414
aF150.71577333333332
aF468.411
ag687
aS'utopia'
p694
aS'#656565'
p695
aF8.88595
aI0
aI01
aI00
aI00
aI00
aI00
aI00
aI00
aI00
aa(lp696
I166593
aF186.046
aF468.411
aVp1
p697
aS'utopia'
p698
aS'#656565'
p699
aF8.88595
aI0
aI00
aI00
aI00
aI00
aI00
aI00
aI00
aI00
aa(lp700
I210461
aF192.71
aF468.411
aVp1
p701
aS'utopia'
p702
aS'#656565'
p703
aF8.88595
aI0
aI00
aI00
aI00
aI00
aI00
aI00
aI00
aI00
aa(lp704
I144489
aF214.925
aF468.411
aVp1
p705
aS'utopia'
p706
aS'#656565'
p707
aF8.88595
aI0
aI00
aI00
aI00
aI00
aI00
aI00
aI00
aI00
aa(lp708
I234378
aF225.292
aF468.411
aVp1
p709
aS'utopia'
p710
aS'#656565'
p711
aF8.88595
aI0
aI00
aI00
aI01
aI01
aI00
aI00
aI00
aI00
aa(lp712
I234378
aF231.956
aF468.411
aVp1
p713
aS'utopia'
p714
aS'#656565'
p715
aF8.88595
aI0
aI00
aI00
aI00
aI00
aI00
aI00
aI00
aI00
aa(lp716
I234378
aF277.127
aF468.411
aVp1
p717
aS'utopia'
p718
aS'#656565'
p719
aF8.88595
aI0
aI00
aI00
aI00
aI00
aI00
aI00
aI00
aI00
aa(lp720
I45324
aF300.082
aF468.411
aVp1
p721
aS'utopia'
p722
aS'#656565'
p723
aF8.88595
aI0
aI01
aI01
aI00
aI00
aI00
aI00
aI00
aI00
aa(lp724
I131978
aF333.404
aF468.411
aVp1
p725
aS'utopia'
p726
aS'#656565'
p727
aF8.88595
aI0
aI00
aI00
aI00
aI00
aI00
aI00
aI00
aI00
aa(lp728
I234378
aF383.74018333333333
aF468.411
ag725
aS'utopia'
p729
aS'#656565'
p730
aF8.88595
aI0
aI00
aI00
aI00
aI00
aI00
aI00
aI00
aI00
aa(lp731
I234378
aF390.422
aF468.411
aVp1
p732
aS'utopia'
p733
aS'#656565'
p734
aF8.88595
aI0
aI01
aI00
aI00
aI00
aI00
aI00
aI00
aI00
aa(lp735
I135639
aF425.226
aF468.411
aVp1
p736
aS'utopia'
p737
aS'#656565'
p738
aF8.88595
aI0
aI00
aI00
aI00
aI00
aI00
aI00
aI00
aI00
aa(lp739
I60201
aF434.852
aF468.411
aVp1
p740
aS'utopia'
p741
aS'#656565'
p742
aF8.88595
aI0
aI00
aI00
aI00
aI00
aI00
aI00
aI00
aI00
aa(lp743
I46145
aF449.662
aF468.411
aVp1
p744
aS'utopia'
p745
aS'#656565'
p746
aF8.88595
aI0
aI00
aI00
aI00
aI00
aI00
aI00
aI00
aI00
aa(lp747
I68032
aF471.877
aF468.411
aVp1
p748
aS'utopia'
p749
aS'#656565'
p750
aF8.88595
aI0
aI00
aI00
aI00
aI00
aI00
aI00
aI00
aI00
aa(lp751
I190806
aF525.933
aF468.411
aVp1
p752
aS'utopia'
p753
aS'#656565'
p754
aF8.88595
aI0
aI00
aI00
aI00
aI00
aI00
aI00
aI00
aI00
aa(lp755
I174268
aF40.9084
aF478.778
aVp1
p756
aS'utopia'
p757
aS'#656565'
p758
aF8.88595
aI0
aI00
aI00
aI00
aI00
aI00
aI00
aI00
aI00
aa(lp759
I63022
aF72.0093
aF478.778
aVp1
p760
aS'utopia'
p761
aS'#656565'
p762
aF8.88595
aI0
aI00
aI00
aI00
aI00
aI00
aI00
aI00
aI00
aa(lp763
I234378
aF106.072
aF478.778
aVp1
p764
aS'utopia'
p765
aS'#656565'
p766
aF8.88595
aI0
aI00
aI00
aI00
aI00
aI00
aI00
aI00
aI00
aa(lp767
I234378
aF135.7944888888889
aF478.778
ag764
aS'utopia'
p768
aS'#656565'
p769
aF8.88595
aI0
aI00
aI00
aI00
aI00
aI00
aI00
aI00
aI00
aa(lp770
I48671
aF40.9084
aF489.145
aVp1
p771
aS'utopia'
p772
aS'#656565'
p773
aF8.88595
aI0
aI01
aI00
aI00
aI00
aI00
aI00
aI00
aI00
aa(lp774
I129688
aF69.0473
aF489.145
aVp1
p775
aS'utopia'
p776
aS'#656565'
p777
aF8.88595
aI0
aI01
aI00
aI00
aI00
aI00
aI00
aI00
aI00
aa(lp778
I234378
aF97.1861
aF489.145
aVp1
p779
aS'utopia'
p780
aS'#656565'
p781
aF8.88595
aI0
aI00
aI00
aI00
aI00
aI00
aI00
aI00
aI00
aa(lp782
I234378
aF101.629
aF489.145
aVp1
p783
aS'utopia'
p784
aS'#656565'
p785
aF8.88595
aI0
aI00
aI00
aI01
aI01
aI00
aI00
aI00
aI00
aa(lp786
I234378
aF108.294
aF489.145
aVp1
p787
aS'utopia'
p788
aS'#656565'
p789
aF8.88595
aI0
aI01
aI00
aI00
aI00
aI00
aI00
aI00
aI00
aa(lp790
I234378
aF40.9084
aF522.361
aVp1
p791
aS'utopia'
p792
aS'#000000'
p793
aF10.3669
aI1
aI01
aI01
aI00
aI00
aI00
aI00
aI00
aI00
aa(lp794
I234378
aF60.9018
aF522.361
aVp1
p795
aS'utopia'
p796
aS'#000000'
p797
aF10.3669
aI1
aI01
aI00
aI00
aI00
aI00
aI00
aI00
aI00
aa(lp798
I164802
aF103.851
aF522.361
aVp1
p799
aS'utopia'
p800
aS'#000000'
p801
aF10.3669
aI1
aI01
aI00
aI00
aI00
aI00
aI00
aI00
aI00
aa(lp802
I40036
aF131.249
aF522.361
aVp1
p803
aS'utopia'
p804
aS'#000000'
p805
aF10.3669
aI1
aI01
aI00
aI00
aI00
aI00
aI00
aI00
aI00
aa(lp806
I210461
aF40.9084
aF538.922
aVp1
p807
aS'utopia'
p808
aS'#656565'
p809
aF10.3669
aI0
aI01
aI00
aI00
aI00
aI00
aI00
aI00
aI00
aa(lp810
I175409
aF69.7878
aF538.922
aVp1
p811
aS'utopia'
p812
aS'#656565'
p813
aF10.3669
aI0
aI01
aI00
aI00
aI00
aI00
aI00
aI00
aI00
aa(lp814
I37510
aF98.6671
aF538.922
aVp1
p815
aS'utopia'
p816
aS'#656565'
p817
aF10.3669
aI0
aI01
aI00
aI00
aI00
aI00
aI00
aI00
aI01
aa(lp818
I234378
aF119.401
aF538.922
aVp1
p819
aS'utopia'
p820
aS'#656565'
p821
aF10.3669
aI0
aI00
aI00
aI01
aI01
aI01
aI00
aI00
aI00
aa(lp822
I89480
aF142.356
aF538.922
aVp1
p823
aS'utopia'
p824
aS'#656565'
p825
aF10.3669
aI0
aI01
aI00
aI00
aI00
aI00
aI00
aI00
aI00
aa(lp826
I27216
aF157.166
aF538.922
aVp1
p827
aS'utopia'
p828
aS'#656565'
p829
aF10.3669
aI0
aI01
aI00
aI00
aI00
aI00
aI00
aI00
aI01
aa(lp830
I234378
aF175.679
aF538.922
aVp1
p831
aS'utopia'
p832
aS'#656565'
p833
aF10.3669
aI0
aI00
aI00
aI01
aI01
aI01
aI00
aI00
aI00
aa(lp834
I123583
aF40.9084
aF558.752
aVp1
p835
aS'utopia'
p836
aS'#656565'
p837
aF8.88595
aI0
aI01
aI00
aI00
aI00
aI00
aI00
aI00
aI00
aa(lp838
I16331
aF76.4522
aF558.752
aVp1
p839
aS'utopia'
p840
aS'#656565'
p841
aF8.88595
aI0
aI00
aI00
aI00
aI00
aI00
aI00
aI00
aI00
aa(lp842
I166593
aF86.8192
aF558.752
aVp1
p843
aS'utopia'
p844
aS'#656565'
p845
aF8.88595
aI0
aI00
aI00
aI00
aI00
aI00
aI00
aI00
aI00
aa(lp846
I210461
aF93.4836
aF558.752
aVp1
p847
aS'utopia'
p848
aS'#656565'
p849
aF8.88595
aI0
aI01
aI00
aI00
aI00
aI00
aI00
aI00
aI00
aa(lp850
I175409
aF117.92
aF558.752
aVp1
p851
aS'utopia'
p852
aS'#656565'
p853
aF8.88595
aI0
aI01
aI00
aI00
aI00
aI00
aI00
aI00
aI00
aa(lp854
I135639
aF139.394
aF558.752
aVp1
p855
aS'utopia'
p856
aS'#656565'
p857
aF8.88595
aI0
aI00
aI00
aI00
aI00
aI00
aI00
aI00
aI00
aa(lp858
I21716
aF149.021
aF558.752
aVp1
p859
aS'utopia'
p860
aS'#656565'
p861
aF8.88595
aI0
aI01
aI00
aI00
aI00
aI00
aI00
aI00
aI00
aa(lp862
I234378
aF175.679
aF558.752
aVp1
p863
aS'utopia'
p864
aS'#656565'
p865
aF8.88595
aI0
aI01
aI01
aI01
aI00
aI00
aI00
aI00
aI00
aa(lp866
I43052
aF195.672
aF558.752
aVp1
p867
aS'utopia'
p868
aS'#656565'
p869
aF8.88595
aI0
aI01
aI00
aI00
aI00
aI00
aI00
aI00
aI00
aa(lp870
I85218
aF243.804
aF558.752
aVp1
p871
aS'utopia'
p872
aS'#656565'
p873
aF8.88595
aI0
aI00
aI00
aI00
aI00
aI00
aI00
aI00
aI00
aa(lp874
I89958
aF260.836
aF558.752
aVp1
p875
aS'utopia'
p876
aS'#656565'
p877
aF8.88595
aI0
aI01
aI00
aI00
aI00
aI00
aI00
aI00
aI00
aa(lp878
I87500
aF294.899
aF558.752
aVp1
p879
aS'utopia'
p880
aS'#656565'
p881
aF8.88595
aI0
aI01
aI00
aI00
aI00
aI00
aI00
aI00
aI00
aa(lp882
I234378
aF40.9084
aF591.968
aVp1
p883
aS'utopia'
p884
aS'#000000'
p885
aF10.3669
aI1
aI00
aI00
aI01
aI00
aI00
aI00
aI00
aI00
aa(lp886
I234378
aF52.0159
aF591.968
aVp1
p887
aS'utopia'
p888
aS'#000000'
p889
aF10.3669
aI1
aI01
aI00
aI00
aI00
aI00
aI00
aI00
aI00
aa(lp890
I234378
aF94.9646
aF591.968
aVp1
p891
aS'utopia'
p892
aS'#000000'
p893
aF10.3669
aI1
aI01
aI00
aI00
aI00
aI00
aI00
aI00
aI00
aa(lp894
I234378
aF112.737
aF591.968
aVp1
p895
aS'utopia'
p896
aS'#000000'
p897
aF10.3669
aI1
aI01
aI00
aI00
aI00
aI00
aI00
aI00
aI00
aa(lp898
I234378
aF126.56129999999999
aF591.968
ag895
aS'utopia'
p899
aS'#000000'
p900
aF10.3669
aI1
aI00
aI00
aI00
aI00
aI00
aI00
aI00
aI00
aa(lp901
I234378
aF40.9084
aF608.528
aVp1
p902
aS'utopia'
p903
aS'#656565'
p904
aF10.3669
aI0
aI01
aI00
aI00
aI00
aI00
aI00
aI00
aI00
aa(lp905
I234378
aF49.14373333333333
aF608.528
ag902
aS'utopia'
p906
aS'#656565'
p907
aF10.3669
aI0
aI00
aI00
aI00
aI00
aI00
aI00
aI00
aI00
aa(lp908
I234378
aF55.7183
aF608.528
aVp1
p909
aS'utopia'
p910
aS'#656565'
p911
aF10.3669
aI0
aI01
aI00
aI00
aI00
aI00
aI00
aI00
aI00
aa(lp912
I132100
aF98.6671
aF608.528
aVp1
p913
aS'utopia'
p914
aS'#656565'
p915
aF10.3669
aI0
aI01
aI00
aI00
aI00
aI00
aI00
aI00
aI00
aa(lp916
I234378
aF146.799
aF608.528
aVp1
p917
aS'utopia'
p918
aS'#656565'
p919
aF10.3669
aI0
aI01
aI00
aI00
aI00
aI00
aI00
aI00
aI01
aa(lp920
I234378
aF161.609
aF608.528
aVp1
p921
aS'utopia'
p922
aS'#656565'
p923
aF10.3669
aI0
aI00
aI00
aI01
aI01
aI01
aI00
aI00
aI00
aa(lp924
I89480
aF184.565
aF608.528
aVp1
p925
aS'utopia'
p926
aS'#656565'
p927
aF10.3669
aI0
aI01
aI00
aI00
aI00
aI00
aI00
aI00
aI00
aa(lp928
I234378
aF199.375
aF608.528
aVp1
p929
aS'utopia'
p930
aS'#656565'
p931
aF10.3669
aI0
aI01
aI00
aI00
aI00
aI00
aI00
aI00
aI01
aa(lp932
I234378
aF218.627
aF608.528
aVp1
p933
aS'utopia'
p934
aS'#656565'
p935
aF10.3669
aI0
aI00
aI00
aI01
aI01
aI01
aI00
aI00
aI00
aa(lp936
I123583
aF40.9084
aF628.359
aVp1
p937
aS'utopia'
p938
aS'#656565'
p939
aF8.88595
aI0
aI01
aI00
aI00
aI00
aI00
aI00
aI00
aI00
aa(lp940
I16331
aF76.4522
aF628.359
aVp1
p941
aS'utopia'
p942
aS'#656565'
p943
aF8.88595
aI0
aI00
aI00
aI00
aI00
aI00
aI00
aI00
aI00
aa(lp944
I166593
aF86.8192
aF628.359
aVp1
p945
aS'utopia'
p946
aS'#656565'
p947
aF8.88595
aI0
aI00
aI00
aI00
aI00
aI00
aI00
aI00
aI00
aa(lp948
I234378
aF93.4836
aF628.359
aVp1
p949
aS'utopia'
p950
aS'#656565'
p951
aF8.88595
aI0
aI01
aI00
aI00
aI00
aI00
aI00
aI00
aI00
aa(lp952
I234378
aF100.47193333333333
aF628.359
ag949
aS'utopia'
p953
aS'#656565'
p954
aF8.88595
aI0
aI00
aI00
aI00
aI00
aI00
aI00
aI00
aI00
aa(lp955
I234378
aF106.072
aF628.359
aVp1
p956
aS'utopia'
p957
aS'#656565'
p958
aF8.88595
aI0
aI01
aI00
aI00
aI00
aI00
aI00
aI00
aI00
aa(lp959
I132100
aF143.097
aF628.359
aVp1
p960
aS'utopia'
p961
aS'#656565'
p962
aF8.88595
aI0
aI01
aI00
aI00
aI00
aI00
aI00
aI00
aI00
aa(lp963
I135639
aF180.122
aF628.359
aVp1
p964
aS'utopia'
p965
aS'#656565'
p966
aF8.88595
aI0
aI00
aI00
aI00
aI00
aI00
aI00
aI00
aI00
aa(lp967
I21716
aF189.748
aF628.359
aVp1
p968
aS'utopia'
p969
aS'#656565'
p970
aF8.88595
aI0
aI01
aI00
aI00
aI00
aI00
aI00
aI00
aI00
aa(lp971
I85218
aF208.26
aF628.359
aVp1
p972
aS'utopia'
p973
aS'#656565'
p974
aF8.88595
aI0
aI00
aI00
aI00
aI00
aI00
aI00
aI00
aI00
aa(lp975
I234378
aF225.292
aF628.359
aVp1
p976
aS'utopia'
p977
aS'#656565'
p978
aF8.88595
aI0
aI01
aI01
aI01
aI00
aI00
aI00
aI00
aI00
aa(lp979
I43052
aF245.285
aF628.359
aVp1
p980
aS'utopia'
p981
aS'#656565'
p982
aF8.88595
aI0
aI01
aI00
aI00
aI00
aI00
aI00
aI00
aI00
aa(lp983
I234378
aF287.3426666666667
aF628.359
ag980
aS'utopia'
p984
aS'#656565'
p985
aF8.88595
aI0
aI00
aI00
aI00
aI00
aI00
aI00
aI00
aI00
aa(lp986
I234378
aF290.5484333333333
aF628.359
ag980
aS'utopia'
p987
aS'#656565'
p988
aF8.88595
aI0
aI00
aI00
aI00
aI00
aI00
aI00
aI00
aI00
aa(lp989
I234378
aF40.9084
aF661.574
aVp1
p990
aS'utopia'
p991
aS'#000000'
p992
aF10.3669
aI1
aI01
aI01
aI00
aI00
aI00
aI00
aI00
aI00
aa(lp993
I164802
aF63.8638
aF661.574
aVp1
p994
aS'utopia'
p995
aS'#000000'
p996
aF10.3669
aI1
aI01
aI00
aI00
aI00
aI00
aI00
aI00
aI00
aa(lp997
I234378
aF91.2621
aF661.574
aVp1
p998
aS'utopia'
p999
aS'#000000'
p1000
aF10.3669
aI1
aI01
aI00
aI00
aI00
aI00
aI00
aI00
aI00
aa(lp1001
I234378
aF109.034
aF661.574
aVp1
p1002
aS'utopia'
p1003
aS'#000000'
p1004
aF10.3669
aI1
aI01
aI00
aI00
aI00
aI00
aI00
aI00
aI00
aa(lp1005
I234378
aF122.85830000000001
aF661.574
ag1002
aS'utopia'
p1006
aS'#000000'
p1007
aF10.3669
aI1
aI00
aI00
aI00
aI00
aI00
aI00
aI00
aI00
aa(lp1008
I207716
aF40.9084
aF678.135
aVp1
p1009
aS'utopia'
p1010
aS'#656565'
p1011
aF10.3669
aI0
aI01
aI00
aI00
aI00
aI00
aI00
aI00
aI00
aa(lp1012
I132100
aF77.1927
aF678.135
aVp1
p1013
aS'utopia'
p1014
aS'#656565'
p1015
aF10.3669
aI0
aI01
aI00
aI00
aI00
aI00
aI00
aI00
aI00
aa(lp1016
I234378
aF125.325
aF678.135
aVp1
p1017
aS'utopia'
p1018
aS'#656565'
p1019
aF10.3669
aI0
aI01
aI00
aI00
aI00
aI00
aI00
aI00
aI01
aa(lp1020
I234378
aF145.318
aF678.135
aVp1
p1021
aS'utopia'
p1022
aS'#656565'
p1023
aF10.3669
aI0
aI00
aI00
aI01
aI01
aI01
aI00
aI00
aI00
aa(lp1024
I89480
aF168.274
aF678.135
aVp1
p1025
aS'utopia'
p1026
aS'#656565'
p1027
aF10.3669
aI0
aI01
aI00
aI00
aI00
aI00
aI00
aI00
aI00
aa(lp1028
I27216
aF183.084
aF678.135
aVp1
p1029
aS'utopia'
p1030
aS'#656565'
p1031
aF10.3669
aI0
aI01
aI00
aI00
aI00
aI00
aI00
aI00
aI01
aa(lp1032
I234378
aF201.596
aF678.135
aVp1
p1033
aS'utopia'
p1034
aS'#656565'
p1035
aF10.3669
aI0
aI00
aI00
aI01
aI01
aI01
aI00
aI00
aI00
aa(lp1036
I125458
aF40.9084
aF697.965
aVp1
p1037
aS'utopia'
p1038
aS'#656565'
p1039
aF8.88595
aI0
aI01
aI00
aI00
aI00
aI00
aI00
aI00
aI00
aa(lp1040
I16331
aF74.2307
aF697.965
aVp1
p1041
aS'utopia'
p1042
aS'#656565'
p1043
aF8.88595
aI0
aI01
aI00
aI00
aI00
aI00
aI00
aI00
aI00
aa(lp1044
I166593
aF86.0787
aF697.965
aVp1
p1045
aS'utopia'
p1046
aS'#656565'
p1047
aF8.88595
aI0
aI01
aI01
aI00
aI00
aI00
aI00
aI00
aI00
aa(lp1048
I207716
aF94.2241
aF697.965
aVp1
p1049
aS'utopia'
p1050
aS'#656565'
p1051
aF8.88595
aI0
aI01
aI00
aI00
aI00
aI00
aI00
aI00
aI00
aa(lp1052
I132100
aF124.584
aF697.965
aVp1
p1053
aS'utopia'
p1054
aS'#656565'
p1055
aF8.88595
aI0
aI01
aI00
aI00
aI00
aI00
aI00
aI00
aI00
aa(lp1056
I135639
aF161.609
aF697.965
aVp1
p1057
aS'utopia'
p1058
aS'#656565'
p1059
aF8.88595
aI0
aI00
aI00
aI00
aI00
aI00
aI00
aI00
aI00
aa(lp1060
I21716
aF171.236
aF697.965
aVp1
p1061
aS'utopia'
p1062
aS'#656565'
p1063
aF8.88595
aI0
aI01
aI00
aI00
aI00
aI00
aI00
aI00
aI00
aa(lp1064
I234378
aF197.894
aF697.965
aVp1
p1065
aS'utopia'
p1066
aS'#656565'
p1067
aF8.88595
aI0
aI01
aI01
aI01
aI00
aI00
aI00
aI00
aI00
aa(lp1068
I85218
aF217.887
aF697.965
aVp1
p1069
aS'utopia'
p1070
aS'#656565'
p1071
aF8.88595
aI0
aI00
aI00
aI00
aI00
aI00
aI00
aI00
aI00
aa(lp1072
I234378
aF234.918
aF697.965
aVp1
p1073
aS'utopia'
p1074
aS'#656565'
p1075
aF8.88595
aI0
aI01
aI00
aI00
aI00
aI00
aI00
aI00
aI00
aa(lp1076
I43052
aF280.829
aF697.965
aVp1
p1077
aS'utopia'
p1078
aS'#656565'
p1079
aF8.88595
aI0
aI01
aI00
aI00
aI00
aI00
aI00
aI00
aI00
aa(lp1080
I234378
aF322.88666666666666
aF697.965
ag1077
aS'utopia'
p1081
aS'#656565'
p1082
aF8.88595
aI0
aI00
aI00
aI00
aI00
aI00
aI00
aI00
aI00
aa(lp1083
I234378
aF326.0924333333333
aF697.965
ag1077
aS'utopia'
p1084
aS'#656565'
p1085
aF8.88595
aI0
aI00
aI00
aI00
aI00
aI00
aI00
aI00
aI00
aa(lp1086
I124531
aF40.1679
aF34.4987
aVp2
p1087
aS'utopia'
p1088
aS'#02304b'
p1089
aF11.8479
aI1
aI01
aI00
aI00
aI00
aI00
aI00
aI00
aI00
aa(lp1090
I209062
aF40.9084
aF62.7827
aVp2
p1091
aS'utopia'
p1092
aS'#656565'
p1093
aF10.3669
aI0
aI01
aI00
aI00
aI00
aI00
aI00
aI00
aI00
aa(lp1094
I234378
aF63.1233
aF62.7827
aVp2
p1095
aS'utopia'
p1096
aS'#656565'
p1097
aF10.3669
aI0
aI01
aI00
aI00
aI00
aI00
aI00
aI00
aI00
aa(lp1098
I234378
aF111.996
aF62.7827
aVp2
p1099
aS'utopia'
p1100
aS'#656565'
p1101
aF10.3669
aI0
aI00
aI00
aI00
aI00
aI00
aI00
aI00
aI00
aa(lp1102
I60201
aF117.92
aF62.7827
aVp2
p1103
aS'utopia'
p1104
aS'#656565'
p1105
aF10.3669
aI0
aI01
aI00
aI00
aI00
aI00
aI00
aI00
aI00
aa(lp1106
I230071
aF137.913
aF62.7827
aVp2
p1107
aS'utopia'
p1108
aS'#656565'
p1109
aF10.3669
aI0
aI01
aI00
aI00
aI00
aI00
aI00
aI00
aI00
aa(lp1110
I234378
aF164.571
aF62.7827
aVp2
p1111
aS'utopia'
p1112
aS'#656565'
p1113
aF10.3669
aI0
aI00
aI00
aI00
aI00
aI00
aI00
aI00
aI00
aa(lp1114
I234378
aF40.9084
aF78.804
aVp2
p1115
aS'utopia'
p1116
aS'#000000'
p1117
aF10.3669
aI1
aI01
aI01
aI00
aI00
aI00
aI00
aI00
aI00
aa(lp1118
I234378
aF66.8258
aF78.804
aVp2
p1119
aS'utopia'
p1120
aS'#000000'
p1121
aF10.3669
aI1
aI00
aI00
aI00
aI00
aI00
aI00
aI00
aI00
aa(lp1122
I234378
aF72.41775454545454
aF78.804
ag1119
aS'utopia'
p1123
aS'#000000'
p1124
aF10.3669
aI1
aI01
aI00
aI00
aI00
aI00
aI00
aI00
aI00
aa(lp1125
I234378
aF122.74534545454544
aF78.804
ag1119
aS'utopia'
p1126
aS'#000000'
p1127
aF10.3669
aI1
aI00
aI00
aI00
aI00
aI00
aI00
aI00
aI00
aa(lp1128
I234378
aF40.9084
aF99.067
aVp2
p1129
aS'utopia'
p1130
aS'#656565'
p1131
aF10.3669
aI0
aI01
aI00
aI00
aI00
aI00
aI00
aI00
aI00
aa(lp1132
I153079
aF66.8258
aF99.067
aVp2
p1133
aS'utopia'
p1134
aS'#656565'
p1135
aF10.3669
aI0
aI01
aI00
aI00
aI00
aI00
aI00
aI00
aI00
aa(lp1136
I135639
aF121.622
aF99.067
aVp2
p1137
aS'utopia'
p1138
aS'#656565'
p1139
aF10.3669
aI0
aI00
aI00
aI00
aI00
aI00
aI00
aI00
aI00
aa(lp1140
I234378
aF133.47
aF99.067
aVp2
p1141
aS'utopia'
p1142
aS'#656565'
p1143
aF10.3669
aI0
aI00
aI00
aI01
aI01
aI01
aI00
aI00
aI00
aa(lp1144
I234378
aF40.9084
aF127.206
aVp2
p1145
aS'utopia'
p1146
aS'#656565'
p1147
aF10.3669
aI0
aI01
aI00
aI00
aI00
aI00
aI00
aI00
aI00
aa(lp1148
I234378
aF117.18
aF127.206
aVp2
p1149
aS'utopia'
p1150
aS'#656565'
p1151
aF10.3669
aI0
aI00
aI00
aI00
aI00
aI00
aI00
aI00
aI00
aa(lp1152
I60201
aF123.103
aF127.206
aVp2
p1153
aS'utopia'
p1154
aS'#656565'
p1155
aF10.3669
aI0
aI01
aI00
aI00
aI00
aI00
aI00
aI00
aI00
aa(lp1156
I230071
aF143.097
aF127.206
aVp2
p1157
aS'utopia'
p1158
aS'#656565'
p1159
aF10.3669
aI0
aI01
aI00
aI00
aI00
aI00
aI00
aI00
aI00
aa(lp1160
I234378
aF169.755
aF127.206
aVp2
p1161
aS'utopia'
p1162
aS'#656565'
p1163
aF10.3669
aI0
aI00
aI00
aI00
aI00
aI00
aI00
aI00
aI00
aa(lp1164
I27780
aF40.9084
aF143.227
aVp2
p1165
aS'utopia'
p1166
aS'#000000'
p1167
aF10.3669
aI1
aI01
aI01
aI00
aI00
aI00
aI00
aI00
aI00
aa(lp1168
I234378
aF46.12271666666667
aF143.227
ag1165
aS'utopia'
p1169
aS'#000000'
p1170
aF10.3669
aI1
aI00
aI00
aI00
aI00
aI00
aI00
aI00
aI00
aa(lp1171
I27780
aF49.33703333333334
aF143.227
ag1165
aS'utopia'
p1172
aS'#000000'
p1173
aF10.3669
aI1
aI01
aI01
aI00
aI00
aI00
aI00
aI00
aI00
aa(lp1174
I234378
aF54.551350000000006
aF143.227
ag1165
aS'utopia'
p1175
aS'#000000'
p1176
aF10.3669
aI1
aI00
aI00
aI00
aI00
aI00
aI00
aI00
aI00
aa(lp1177
I166593
aF61.765666666666675
aF143.227
ag1165
aS'utopia'
p1178
aS'#000000'
p1179
aF10.3669
aI1
aI01
aI01
aI00
aI00
aI00
aI00
aI00
aI00
aa(lp1180
I234378
aF66.97998333333334
aF143.227
ag1165
aS'utopia'
p1181
aS'#000000'
p1182
aF10.3669
aI1
aI00
aI00
aI00
aI00
aI00
aI00
aI00
aI00
aa(lp1183
I27780
aF74.2307
aF143.227
aVp2
p1184
aS'utopia'
p1185
aS'#000000'
p1186
aF10.3669
aI1
aI01
aI01
aI00
aI00
aI00
aI00
aI00
aI00
aa(lp1187
I234378
aF79.97666
aF143.227
ag1184
aS'utopia'
p1188
aS'#000000'
p1189
aF10.3669
aI1
aI00
aI00
aI00
aI00
aI00
aI00
aI00
aI00
aa(lp1190
I95395
aF85.72261999999999
aF143.227
ag1184
aS'utopia'
p1191
aS'#000000'
p1192
aF10.3669
aI1
aI01
aI01
aI00
aI00
aI00
aI00
aI00
aI00
aa(lp1193
I234378
aF89.46857999999999
aF143.227
ag1184
aS'utopia'
p1194
aS'#000000'
p1195
aF10.3669
aI1
aI00
aI00
aI00
aI00
aI00
aI00
aI00
aI00
aa(lp1196
I59734
aF97.21453999999999
aF143.227
ag1184
aS'utopia'
p1197
aS'#000000'
p1198
aF10.3669
aI1
aI01
aI01
aI00
aI00
aI00
aI00
aI00
aI00
aa(lp1199
I234378
aF105.332
aF143.227
aVp2
p1200
aS'utopia'
p1201
aS'#000000'
p1202
aF10.3669
aI1
aI00
aI00
aI00
aI00
aI00
aI00
aI00
aI00
aa(lp1203
I153177
aF111.26016666666666
aF143.227
ag1200
aS'utopia'
p1204
aS'#000000'
p1205
aF10.3669
aI1
aI01
aI00
aI00
aI00
aI00
aI00
aI00
aI00
aa(lp1206
I234378
aF170.54183333333333
aF143.227
ag1200
aS'utopia'
p1207
aS'#000000'
p1208
aF10.3669
aI1
aI00
aI00
aI00
aI00
aI00
aI00
aI00
aI00
aa(lp1209
I234378
aF40.9084
aF163.49
aVp2
p1210
aS'utopia'
p1211
aS'#656565'
p1212
aF10.3669
aI0
aI01
aI00
aI00
aI00
aI00
aI00
aI00
aI00
aa(lp1213
I153079
aF69.0473
aF163.49
aVp2
p1214
aS'utopia'
p1215
aS'#656565'
p1216
aF10.3669
aI0
aI01
aI00
aI00
aI00
aI00
aI00
aI00
aI00
aa(lp1217
I135639
aF123.844
aF163.49
aVp2
p1218
aS'utopia'
p1219
aS'#656565'
p1220
aF10.3669
aI0
aI00
aI00
aI00
aI00
aI00
aI00
aI00
aI00
aa(lp1221
I234378
aF135.692
aF163.49
aVp2
p1222
aS'utopia'
p1223
aS'#656565'
p1224
aF10.3669
aI0
aI00
aI00
aI01
aI01
aI01
aI00
aI00
aI00
aa(lp1225
I234378
aF40.1679
aF197.408
aVp2
p1226
aS'utopia'
p1227
aS'#02304b'
p1228
aF11.8479
aI1
aI01
aI00
aI00
aI00
aI00
aI00
aI00
aI00
aa(lp1229
I22476
aF40.1679
aF289.229
aVp2
p1230
aS'utopia'
p1231
aS'#02304b'
p1232
aF11.8479
aI1
aI01
aI01
aI00
aI00
aI00
aI00
aI00
aI00
aa(lp1233
I234378
aF54.2374
aF289.229
aVp2
p1234
aS'utopia'
p1235
aS'#02304b'
p1236
aF11.8479
aI1
aI01
aI00
aI00
aI00
aI00
aI00
aI00
aI00
aa(lp1237
I109610
aF48.3134
aF317.119
aVp2
p1238
aS'utopia'
p1239
aS'#000000'
p1240
aF8.88595
aI1
aI01
aI00
aI00
aI00
aI00
aI00
aI00
aI00
aa(lp1241
I158577
aF69.7878
aF317.119
aVp2
p1242
aS'utopia'
p1243
aS'#000000'
p1244
aF8.88595
aI1
aI01
aI00
aI00
aI00
aI00
aI00
aI00
aI00
aa(lp1245
I194179
aF188.267
aF317.119
aVp2
p1246
aS'utopia'
p1247
aS'#000000'
p1248
aF8.88595
aI1
aI01
aI00
aI00
aI00
aI00
aI00
aI00
aI00
aa(lp1249
I177981
aF305.265
aF317.119
aVp2
p1250
aS'utopia'
p1251
aS'#000000'
p1252
aF8.88595
aI1
aI01
aI00
aI00
aI00
aI00
aI00
aI00
aI00
aa(lp1253
I25729
aF324.518
aF317.119
aVp2
p1254
aS'utopia'
p1255
aS'#000000'
p1256
aF8.88595
aI1
aI01
aI00
aI00
aI00
aI00
aI00
aI00
aI00
aa(lp1257
I60220
aF412.637
aF317.119
aVp2
p1258
aS'utopia'
p1259
aS'#000000'
p1260
aF8.88595
aI1
aI01
aI00
aI00
aI00
aI00
aI00
aI00
aI00
aa(lp1261
I84662
aF48.3134
aF335.863
aVp2
p1262
aS'utopia'
p1263
aS'#656565'
p1264
aF8.88595
aI0
aI01
aI01
aI00
aI00
aI00
aI00
aI00
aI00
aa(lp1265
I21716
aF74.2307
aF335.863
aVp2
p1266
aS'utopia'
p1267
aS'#656565'
p1268
aF8.88595
aI0
aI01
aI01
aI00
aI00
aI00
aI00
aI00
aI00
aa(lp1269
I234378
aF317.113
aF335.863
aVp2
p1270
aS'utopia'
p1271
aS'#656565'
p1272
aF8.88595
aI0
aI00
aI00
aI01
aI01
aI01
aI00
aI00
aI00
aa(lp1273
I234378
aF403.011
aF335.863
aVp2
p1274
aS'utopia'
p1275
aS'#656565'
p1276
aF8.88595
aI0
aI00
aI00
aI01
aI01
aI00
aI00
aI00
aI00
aa(lp1277
I234378
aF409.675
aF335.863
aVp2
p1278
aS'utopia'
p1279
aS'#656565'
p1280
aF8.88595
aI0
aI01
aI00
aI00
aI00
aI00
aI00
aI00
aI00
aa(lp1281
I234378
aF433.371
aF335.863
aVp2
p1282
aS'utopia'
p1283
aS'#656565'
p1284
aF8.88595
aI0
aI00
aI00
aI01
aI01
aI00
aI00
aI00
aI00
aa(lp1285
I234378
aF440.036
aF335.863
aVp2
p1286
aS'utopia'
p1287
aS'#656565'
p1288
aF8.88595
aI0
aI01
aI00
aI00
aI00
aI00
aI00
aI00
aI00
aa(lp1289
I234378
aF48.3134
aF354.375
aVp2
p1290
aS'utopia'
p1291
aS'#656565'
p1292
aF8.88595
aI0
aI01
aI01
aI00
aI00
aI00
aI00
aI00
aI00
aa(lp1293
I234378
aF317.113
aF354.375
aVp2
p1294
aS'utopia'
p1295
aS'#656565'
p1296
aF8.88595
aI0
aI00
aI00
aI01
aI01
aI01
aI00
aI00
aI00
aa(lp1297
I234378
aF403.011
aF354.375
aVp2
p1298
aS'utopia'
p1299
aS'#656565'
p1300
aF8.88595
aI0
aI00
aI00
aI01
aI01
aI00
aI00
aI00
aI00
aa(lp1301
I234378
aF409.675
aF354.375
aVp2
p1302
aS'utopia'
p1303
aS'#656565'
p1304
aF8.88595
aI0
aI01
aI00
aI00
aI00
aI00
aI00
aI00
aI00
aa(lp1305
I234378
aF433.371
aF354.375
aVp2
p1306
aS'utopia'
p1307
aS'#656565'
p1308
aF8.88595
aI0
aI00
aI00
aI01
aI01
aI00
aI00
aI00
aI00
aa(lp1309
I234378
aF440.036
aF354.375
aVp2
p1310
aS'utopia'
p1311
aS'#656565'
p1312
aF8.88595
aI0
aI01
aI00
aI00
aI00
aI00
aI00
aI00
aI00
aa(lp1313
I234378
aF48.3134
aF372.888
aVp2
p1314
aS'utopia'
p1315
aS'#656565'
p1316
aF8.88595
aI0
aI01
aI01
aI00
aI00
aI00
aI00
aI00
aI00
aa(lp1317
I234378
aF317.113
aF372.888
aVp2
p1318
aS'utopia'
p1319
aS'#656565'
p1320
aF8.88595
aI0
aI00
aI00
aI01
aI01
aI01
aI00
aI00
aI00
aa(lp1321
I234378
aF403.011
aF372.888
aVp2
p1322
aS'utopia'
p1323
aS'#656565'
p1324
aF8.88595
aI0
aI00
aI00
aI01
aI01
aI00
aI00
aI00
aI00
aa(lp1325
I234378
aF409.675
aF372.888
aVp2
p1326
aS'utopia'
p1327
aS'#656565'
p1328
aF8.88595
aI0
aI01
aI00
aI00
aI00
aI00
aI00
aI00
aI00
aa(lp1329
I234378
aF433.371
aF372.888
aVp2
p1330
aS'utopia'
p1331
aS'#656565'
p1332
aF8.88595
aI0
aI00
aI00
aI01
aI01
aI00
aI00
aI00
aI00
aa(lp1333
I234378
aF440.036
aF372.888
aVp2
p1334
aS'utopia'
p1335
aS'#656565'
p1336
aF8.88595
aI0
aI01
aI00
aI00
aI00
aI00
aI00
aI00
aI00
aa(lp1337
I234378
aF48.3134
aF391.4
aVp2
p1338
aS'utopia'
p1339
aS'#656565'
p1340
aF8.88595
aI0
aI01
aI00
aI00
aI00
aI00
aI00
aI00
aI00
aa(lp1341
I234378
aF317.113
aF391.4
aVp2
p1342
aS'utopia'
p1343
aS'#656565'
p1344
aF8.88595
aI0
aI00
aI00
aI01
aI01
aI01
aI00
aI00
aI00
aa(lp1345
I234378
aF403.011
aF391.4
aVp2
p1346
aS'utopia'
p1347
aS'#656565'
p1348
aF8.88595
aI0
aI00
aI00
aI01
aI01
aI00
aI00
aI00
aI00
aa(lp1349
I234378
aF409.675
aF391.4
aVp2
p1350
aS'utopia'
p1351
aS'#656565'
p1352
aF8.88595
aI0
aI01
aI00
aI00
aI00
aI00
aI00
aI00
aI00
aa(lp1353
I234378
aF433.371
aF391.4
aVp2
p1354
aS'utopia'
p1355
aS'#656565'
p1356
aF8.88595
aI0
aI00
aI00
aI01
aI01
aI00
aI00
aI00
aI00
aa(lp1357
I234378
aF440.036
aF391.4
aVp2
p1358
aS'utopia'
p1359
aS'#656565'
p1360
aF8.88595
aI0
aI01
aI00
aI00
aI00
aI00
aI00
aI00
aI00
aa(lp1361
I155019
aF48.3134
aF409.912
aVp2
p1362
aS'utopia'
p1363
aS'#656565'
p1364
aF8.88595
aI0
aI01
aI01
aI00
aI00
aI00
aI00
aI00
aI00
aa(lp1365
I21716
aF92.7431
aF409.912
aVp2
p1366
aS'utopia'
p1367
aS'#656565'
p1368
aF8.88595
aI0
aI01
aI01
aI00
aI00
aI00
aI00
aI00
aI00
aa(lp1369
I234378
aF317.113
aF409.912
aVp2
p1370
aS'utopia'
p1371
aS'#656565'
p1372
aF8.88595
aI0
aI00
aI00
aI01
aI01
aI01
aI00
aI00
aI00
aa(lp1373
I234378
aF403.011
aF409.912
aVp2
p1374
aS'utopia'
p1375
aS'#656565'
p1376
aF8.88595
aI0
aI00
aI00
aI01
aI01
aI00
aI00
aI00
aI00
aa(lp1377
I234378
aF409.675
aF409.912
aVp2
p1378
aS'utopia'
p1379
aS'#656565'
p1380
aF8.88595
aI0
aI01
aI00
aI00
aI00
aI00
aI00
aI00
aI00
aa(lp1381
I234378
aF433.371
aF409.912
aVp2
p1382
aS'utopia'
p1383
aS'#656565'
p1384
aF8.88595
aI0
aI00
aI00
aI01
aI01
aI00
aI00
aI00
aI00
aa(lp1385
I234378
aF440.036
aF409.912
aVp2
p1386
aS'utopia'
p1387
aS'#656565'
p1388
aF8.88595
aI0
aI01
aI00
aI00
aI00
aI00
aI00
aI00
aI00
aa(lp1389
I148996
aF48.3134
aF428.425
aVp2
p1390
aS'utopia'
p1391
aS'#656565'
p1392
aF8.88595
aI0
aI01
aI00
aI00
aI00
aI00
aI00
aI00
aI00
aa(lp1393
I234378
aF317.113
aF428.425
aVp2
p1394
aS'utopia'
p1395
aS'#656565'
p1396
aF8.88595
aI0
aI00
aI00
aI01
aI01
aI01
aI00
aI00
aI00
aa(lp1397
I234378
aF422.264
aF428.425
aVp2
p1398
aS'utopia'
p1399
aS'#656565'
p1400
aF8.88595
aI0
aI00
aI00
aI01
aI01
aI00
aI00
aI00
aI00
aa(lp1401
I234378
aF428.928
aF428.425
aVp2
p1402
aS'utopia'
p1403
aS'#656565'
p1404
aF8.88595
aI0
aI01
aI00
aI00
aI00
aI00
aI00
aI00
aI00
aa(lp1405
I234378
aF48.3134
aF446.937
aVp2
p1406
aS'utopia'
p1407
aS'#656565'
p1408
aF8.88595
aI0
aI01
aI01
aI01
aI00
aI00
aI00
aI00
aI00
aa(lp1409
I234378
aF317.113
aF446.937
aVp2
p1410
aS'utopia'
p1411
aS'#656565'
p1412
aF8.88595
aI0
aI00
aI00
aI01
aI01
aI01
aI00
aI00
aI00
aa(lp1413
I234378
aF422.264
aF446.937
aVp2
p1414
aS'utopia'
p1415
aS'#656565'
p1416
aF8.88595
aI0
aI00
aI00
aI01
aI01
aI00
aI00
aI00
aI00
aa(lp1417
I234378
aF428.928
aF446.937
aVp2
p1418
aS'utopia'
p1419
aS'#656565'
p1420
aF8.88595
aI0
aI01
aI00
aI00
aI00
aI00
aI00
aI00
aI00
aa(lp1421
I176767
aF48.3134
aF465.45
aVp2
p1422
aS'utopia'
p1423
aS'#656565'
p1424
aF8.88595
aI0
aI01
aI00
aI00
aI00
aI00
aI00
aI00
aI00
aa(lp1425
I234378
aF317.113
aF465.45
aVp2
p1426
aS'utopia'
p1427
aS'#656565'
p1428
aF8.88595
aI0
aI00
aI00
aI01
aI01
aI01
aI00
aI00
aI00
aa(lp1429
I234378
aF422.264
aF465.45
aVp2
p1430
aS'utopia'
p1431
aS'#656565'
p1432
aF8.88595
aI0
aI00
aI00
aI01
aI01
aI00
aI00
aI00
aI00
aa(lp1433
I234378
aF428.928
aF465.45
aVp2
p1434
aS'utopia'
p1435
aS'#656565'
p1436
aF8.88595
aI0
aI01
aI00
aI00
aI00
aI00
aI00
aI00
aI00
aa(lp1437
I195166
aF40.1679
aF515.821
aVp2
p1438
aS'utopia'
p1439
aS'#02304b'
p1440
aF11.8479
aI1
aI01
aI00
aI00
aI00
aI00
aI00
aI00
aI00
aa(lp1441
I136346
aF96.4456
aF515.821
aVp2
p1442
aS'utopia'
p1443
aS'#02304b'
p1444
aF11.8479
aI1
aI01
aI00
aI00
aI00
aI00
aI00
aI00
aI00
aa(lp1445
I195166
aF48.3134
aF543.711
aVp2
p1446
aS'utopia'
p1447
aS'#000000'
p1448
aF8.88595
aI1
aI01
aI00
aI00
aI00
aI00
aI00
aI00
aI00
aa(lp1449
I164378
aF177.16
aF543.711
aVp2
p1450
aS'utopia'
p1451
aS'#000000'
p1452
aF8.88595
aI1
aI01
aI00
aI00
aI00
aI00
aI00
aI00
aI00
aa(lp1453
I175077
aF296.379
aF543.711
aVp2
p1454
aS'utopia'
p1455
aS'#000000'
p1456
aF8.88595
aI1
aI01
aI00
aI00
aI00
aI00
aI00
aI00
aI00
aa(lp1457
I224291
aF397.087
aF543.711
aVp2
p1458
aS'utopia'
p1459
aS'#000000'
p1460
aF8.88595
aI1
aI01
aI00
aI00
aI00
aI00
aI00
aI00
aI00
aa(lp1461
I165206
aF497.054
aF543.711
aVp2
p1462
aS'utopia'
p1463
aS'#000000'
p1464
aF8.88595
aI1
aI01
aI00
aI00
aI00
aI00
aI00
aI00
aI00
aa(lp1465
I58002
aF48.3134
aF562.454
aVp2
p1466
aS'utopia'
p1467
aS'#656565'
p1468
aF8.88595
aI0
aI01
aI00
aI00
aI00
aI00
aI00
aI00
aI00
aa(lp1469
I185159
aF177.16
aF562.454
aVp2
p1470
aS'utopia'
p1471
aS'#656565'
p1472
aF8.88595
aI0
aI01
aI00
aI00
aI00
aI00
aI00
aI00
aI00
aa(lp1473
I144532
aF48.3134
aF580.967
aVp2
p1474
aS'utopia'
p1475
aS'#656565'
p1476
aF8.88595
aI0
aI01
aI00
aI00
aI00
aI00
aI00
aI00
aI00
aa(lp1477
I185159
aF177.16
aF580.967
aVp2
p1478
aS'utopia'
p1479
aS'#656565'
p1480
aF8.88595
aI0
aI01
aI00
aI00
aI00
aI00
aI00
aI00
aI00
aa(lp1481
I234378
aF40.1679
aF34.4987
aVp3
p1482
aS'utopia'
p1483
aS'#02304b'
p1484
aF11.8479
aI1
aI01
aI00
aI00
aI00
aI00
aI00
aI00
aI00
aa(lp1485
I210461
aF40.9084
aF66.2156
aVp3
p1486
aS'utopia'
p1487
aS'#000000'
p1488
aF10.3669
aI1
aI01
aI00
aI00
aI00
aI00
aI00
aI00
aI00
aa(lp1489
I90974
aF70.5283
aF66.2156
aVp3
p1490
aS'utopia'
p1491
aS'#000000'
p1492
aF10.3669
aI1
aI01
aI00
aI00
aI00
aI00
aI00
aI00
aI00
aa(lp1493
I17350
aF96.4456
aF66.2156
aVp3
p1494
aS'utopia'
p1495
aS'#000000'
p1496
aF10.3669
aI1
aI01
aI00
aI00
aI00
aI00
aI00
aI00
aI00
aa(lp1497
I110153
aF119.401
aF66.2156
aVp3
p1498
aS'utopia'
p1499
aS'#000000'
p1500
aF10.3669
aI1
aI01
aI00
aI00
aI00
aI00
aI00
aI00
aI00
aa(lp1501
I153177
aF160.869
aF66.2156
aVp3
p1502
aS'utopia'
p1503
aS'#000000'
p1504
aF10.3669
aI1
aI01
aI00
aI00
aI00
aI00
aI00
aI00
aI00
aa(lp1505
I234378
aF226.773
aF66.2156
aVp3
p1506
aS'utopia'
p1507
aS'#000000'
p1508
aF10.3669
aI1
aI00
aI00
aI00
aI00
aI00
aI00
aI00
aI00
aa(lp1509
I234378
aF233.59564
aF66.2156
ag1506
aS'utopia'
p1510
aS'#000000'
p1511
aF10.3669
aI1
aI01
aI01
aI00
aI00
aI00
aI00
aI00
aI00
aa(lp1512
I234378
aF254.06356
aF66.2156
ag1506
aS'utopia'
p1513
aS'#000000'
p1514
aF10.3669
aI1
aI00
aI00
aI00
aI00
aI00
aI00
aI00
aI00
aa(lp1515
I35425
aF263.057
aF66.2156
aVp3
p1516
aS'utopia'
p1517
aS'#000000'
p1518
aF10.3669
aI1
aI01
aI00
aI00
aI00
aI00
aI00
aI00
aI00
aa(lp1519
I234378
aF40.9084
aF82.7761
aVp3
p1520
aS'utopia'
p1521
aS'#656565'
p1522
aF10.3669
aI0
aI01
aI00
aI00
aI00
aI00
aI00
aI00
aI00
aa(lp1523
I234378
aF77.95149333333333
aF82.7761
ag1520
aS'utopia'
p1524
aS'#656565'
p1525
aF10.3669
aI0
aI01
aI00
aI00
aI00
aI00
aI00
aI00
aI00
aa(lp1526
I234378
aF120.141
aF82.7761
aVp3
p1527
aS'utopia'
p1528
aS'#656565'
p1529
aF10.3669
aI0
aI00
aI00
aI00
aI00
aI00
aI00
aI00
aI00
aa(lp1530
I234378
aF125.59964000000001
aF82.7761
ag1527
aS'utopia'
p1531
aS'#656565'
p1532
aF10.3669
aI0
aI01
aI01
aI00
aI00
aI00
aI00
aI00
aI00
aa(lp1533
I234378
aF141.97556
aF82.7761
ag1527
aS'utopia'
p1534
aS'#656565'
p1535
aF10.3669
aI0
aI00
aI00
aI00
aI00
aI00
aI00
aI00
aI00
aa(lp1536
I234378
aF154.204
aF82.7761
aVp3
p1537
aS'utopia'
p1538
aS'#656565'
p1539
aF10.3669
aI0
aI01
aI00
aI00
aI00
aI00
aI00
aI00
aI00
aa(lp1540
I60201
aF191.229
aF82.7761
aVp3
p1541
aS'utopia'
p1542
aS'#656565'
p1543
aF10.3669
aI0
aI01
aI00
aI00
aI00
aI00
aI00
aI00
aI00
aa(lp1544
I230071
aF211.222
aF82.7761
aVp3
p1545
aS'utopia'
p1546
aS'#656565'
p1547
aF10.3669
aI0
aI01
aI00
aI00
aI00
aI00
aI00
aI00
aI00
aa(lp1548
I131049
aF242.323
aF82.7761
aVp3
p1549
aS'utopia'
p1550
aS'#656565'
p1551
aF10.3669
aI0
aI00
aI00
aI00
aI00
aI00
aI00
aI00
aI00
aa(lp1552
I234378
aF266.76
aF82.7761
aVp3
p1553
aS'utopia'
p1554
aS'#656565'
p1555
aF10.3669
aI0
aI01
aI00
aI00
aI00
aI00
aI00
aI00
aI01
aa(lp1556
I234378
aF286.013
aF82.7761
aVp3
p1557
aS'utopia'
p1558
aS'#656565'
p1559
aF10.3669
aI0
aI00
aI00
aI01
aI01
aI01
aI00
aI00
aI00
aa(lp1560
I89480
aF308.968
aF82.7761
aVp3
p1561
aS'utopia'
p1562
aS'#656565'
p1563
aF10.3669
aI0
aI00
aI00
aI00
aI00
aI00
aI00
aI00
aI00
aa(lp1564
I234378
aF320.816
aF82.7761
aVp3
p1565
aS'utopia'
p1566
aS'#656565'
p1567
aF10.3669
aI0
aI01
aI00
aI00
aI00
aI00
aI00
aI00
aI01
aa(lp1568
I234378
aF340.069
aF82.7761
aVp3
p1569
aS'utopia'
p1570
aS'#656565'
p1571
aF10.3669
aI0
aI00
aI00
aI01
aI01
aI01
aI00
aI00
aI00
aa(lp1572
I234378
aF40.9084
aF99.067
aVp3
p1573
aS'utopia'
p1574
aS'#656565'
p1575
aF10.3669
aI0
aI01
aI00
aI00
aI00
aI00
aI00
aI00
aI00
aa(lp1576
I109610
aF40.9084
aF115.195
aVp3
p1577
aS'utopia'
p1578
aS'#656565'
p1579
aF8.88595
aI0
aI01
aI00
aI00
aI00
aI00
aI00
aI00
aI00
aa(lp1580
I25729
aF58.6803
aF115.195
aVp3
p1581
aS'utopia'
p1582
aS'#656565'
p1583
aF8.88595
aI0
aI01
aI00
aI00
aI00
aI00
aI00
aI00
aI00
aa(lp1584
I234378
aF76.54462000000001
aF115.195
ag1581
aS'utopia'
p1585
aS'#656565'
p1586
aF8.88595
aI0
aI00
aI00
aI00
aI00
aI00
aI00
aI00
aI00
aa(lp1587
I84662
aF85.3382
aF115.195
aVp3
p1588
aS'utopia'
p1589
aS'#656565'
p1590
aF8.88595
aI0
aI01
aI00
aI00
aI00
aI00
aI00
aI00
aI00
aa(lp1591
I21716
aF106.813
aF115.195
aVp3
p1592
aS'utopia'
p1593
aS'#656565'
p1594
aF8.88595
aI0
aI01
aI00
aI00
aI00
aI00
aI00
aI00
aI00
aa(lp1595
I171173
aF129.027
aF115.195
aVp3
p1596
aS'utopia'
p1597
aS'#656565'
p1598
aF8.88595
aI0
aI01
aI00
aI00
aI00
aI00
aI00
aI00
aI00
aa(lp1599
I234378
aF167.50318181818182
aF115.195
ag1596
aS'utopia'
p1600
aS'#656565'
p1601
aF8.88595
aI0
aI00
aI00
aI00
aI00
aI00
aI00
aI00
aI00
aa(lp1602
I234378
aF173.457
aF115.195
aVp3
p1603
aS'utopia'
p1604
aS'#656565'
p1605
aF8.88595
aI0
aI01
aI00
aI00
aI00
aI00
aI00
aI00
aI00
aa(lp1606
I234378
aF230.23745333333332
aF115.195
ag1603
aS'utopia'
p1607
aS'#656565'
p1608
aF8.88595
aI0
aI00
aI00
aI00
aI00
aI00
aI00
aI00
aI00
aa(lp1609
I89217
aF236.399
aF115.195
aVp3
p1610
aS'utopia'
p1611
aS'#656565'
p1612
aF8.88595
aI0
aI01
aI01
aI00
aI00
aI00
aI00
aI00
aI00
aa(lp1613
I234378
aF255.55135555555555
aF115.195
ag1610
aS'utopia'
p1614
aS'#656565'
p1615
aF8.88595
aI0
aI01
aI01
aI00
aI00
aI00
aI00
aI00
aI00
aa(lp1616
I234378
aF269.1656222222222
aF115.195
ag1610
aS'utopia'
p1617
aS'#656565'
p1618
aF8.88595
aI0
aI00
aI00
aI00
aI00
aI00
aI00
aI00
aI00
aa(lp1619
I165851
aF279.348
aF115.195
aVp3
p1620
aS'utopia'
p1621
aS'#656565'
p1622
aF8.88595
aI0
aI01
aI00
aI00
aI00
aI00
aI00
aI00
aI00
aa(lp1623
I234378
aF312.67
aF115.195
aVp3
p1624
aS'utopia'
p1625
aS'#656565'
p1626
aF8.88595
aI0
aI01
aI01
aI00
aI00
aI00
aI00
aI00
aI00
aa(lp1627
I234378
aF319.16464
aF115.195
ag1624
aS'utopia'
p1628
aS'#656565'
p1629
aF8.88595
aI0
aI00
aI00
aI00
aI00
aI00
aI00
aI00
aI00
aa(lp1630
I234378
aF324.518
aF115.195
aVp3
p1631
aS'utopia'
p1632
aS'#656565'
p1633
aF8.88595
aI0
aI01
aI01
aI00
aI00
aI00
aI00
aI00
aI00
aa(lp1634
I234378
aF345.63235555555553
aF115.195
ag1631
aS'utopia'
p1635
aS'#656565'
p1636
aF8.88595
aI0
aI00
aI00
aI00
aI00
aI00
aI00
aI00
aI00
aa(lp1637
I234378
aF350.9109444444444
aF115.195
ag1631
aS'utopia'
p1638
aS'#656565'
p1639
aF8.88595
aI0
aI01
aI01
aI00
aI00
aI00
aI00
aI00
aI00
aa(lp1640
I234378
aF366.74671111111104
aF115.195
ag1631
aS'utopia'
p1641
aS'#656565'
p1642
aF8.88595
aI0
aI00
aI00
aI00
aI00
aI00
aI00
aI00
aI00
aa(lp1643
I155019
aF374.132
aF115.195
aVp3
p1644
aS'utopia'
p1645
aS'#656565'
p1646
aF8.88595
aI0
aI01
aI00
aI00
aI00
aI00
aI00
aI00
aI00
aa(lp1647
I21716
aF410.416
aF115.195
aVp3
p1648
aS'utopia'
p1649
aS'#656565'
p1650
aF8.88595
aI0
aI01
aI00
aI00
aI00
aI00
aI00
aI00
aI00
aa(lp1651
I234378
aF425.31831999999997
aF115.195
ag1648
aS'utopia'
p1652
aS'#656565'
p1653
aF8.88595
aI0
aI00
aI00
aI00
aI00
aI00
aI00
aI00
aI00
aa(lp1654
I115769
aF431.15
aF115.195
aVp3
p1655
aS'utopia'
p1656
aS'#656565'
p1657
aF8.88595
aI0
aI01
aI00
aI00
aI00
aI00
aI00
aI00
aI00
aa(lp1658
I148996
aF472.98199411764705
aF115.195
ag1655
aS'utopia'
p1659
aS'#656565'
p1660
aF8.88595
aI0
aI01
aI00
aI00
aI00
aI00
aI00
aI00
aI00
aa(lp1661
I234378
aF500.20332352941176
aF115.195
ag1655
aS'utopia'
p1662
aS'#656565'
p1663
aF8.88595
aI0
aI00
aI00
aI00
aI00
aI00
aI00
aI00
aI00
aa(lp1664
I176767
aF510.383
aF115.195
aVp3
p1665
aS'utopia'
p1666
aS'#656565'
p1667
aF8.88595
aI0
aI01
aI00
aI00
aI00
aI00
aI00
aI00
aI00
aa(lp1668
I234378
aF548.47442
aF115.195
ag1665
aS'utopia'
p1669
aS'#656565'
p1670
aF8.88595
aI0
aI00
aI00
aI00
aI00
aI00
aI00
aI00
aI00
aa(lp1671
I234378
aF40.9084
aF125.562
aVp3
p1672
aS'utopia'
p1673
aS'#656565'
p1674
aF8.88595
aI0
aI01
aI00
aI00
aI00
aI00
aI00
aI00
aI00
aa(lp1675
I234378
aF72.0093
aF125.562
aVp3
p1676
aS'utopia'
p1677
aS'#656565'
p1678
aF8.88595
aI0
aI01
aI00
aI00
aI00
aI00
aI00
aI00
aI00
aa(lp1679
I234378
aF81.46589999999999
aF125.562
ag1676
aS'utopia'
p1680
aS'#656565'
p1681
aF8.88595
aI0
aI00
aI00
aI00
aI00
aI00
aI00
aI00
aI00
aa(lp1682
I234378
aF88.3002
aF125.562
aVp3
p1683
aS'utopia'
p1684
aS'#656565'
p1685
aF8.88595
aI0
aI01
aI00
aI00
aI00
aI00
aI00
aI00
aI00
aa(lp1686
I234378
aF117.36446666666667
aF125.562
ag1683
aS'utopia'
p1687
aS'#656565'
p1688
aF8.88595
aI0
aI00
aI00
aI00
aI00
aI00
aI00
aI00
aI00
aa(lp1689
I234378
aF123.103
aF125.562
aVp3
p1690
aS'utopia'
p1691
aS'#656565'
p1692
aF8.88595
aI0
aI01
aI01
aI00
aI00
aI00
aI00
aI00
aI00
aa(lp1693
I234378
aF134.29704999999998
aF125.562
ag1690
aS'utopia'
p1694
aS'#656565'
p1695
aF8.88595
aI0
aI00
aI00
aI00
aI00
aI00
aI00
aI00
aI00
aa(lp1696
I234378
aF140.135
aF125.562
aVp3
p1697
aS'utopia'
p1698
aS'#656565'
p1699
aF8.88595
aI0
aI01
aI01
aI00
aI00
aI00
aI00
aI00
aI00
aa(lp1700
I234378
aF159.18411999999998
aF125.562
ag1697
aS'utopia'
p1701
aS'#656565'
p1702
aF8.88595
aI0
aI00
aI00
aI00
aI00
aI00
aI00
aI00
aI00
aa(lp1703
I234378
aF166.052
aF125.562
aVp3
p1704
aS'utopia'
p1705
aS'#656565'
p1706
aF8.88595
aI0
aI01
aI00
aI00
aI00
aI00
aI00
aI00
aI00
aa(lp1707
I234378
aF204.14342
aF125.562
ag1704
aS'utopia'
p1708
aS'#656565'
p1709
aF8.88595
aI0
aI00
aI00
aI00
aI00
aI00
aI00
aI00
aI00
aa(lp1710
I234378
aF210.482
aF125.562
aVp3
p1711
aS'utopia'
p1712
aS'#656565'
p1713
aF8.88595
aI0
aI01
aI00
aI01
aI00
aI00
aI00
aI00
aI00
aa(lp1714
I234378
aF230.32483333333334
aF125.562
ag1711
aS'utopia'
p1715
aS'#656565'
p1716
aF8.88595
aI0
aI00
aI00
aI00
aI00
aI00
aI00
aI00
aI00
aa(lp1717
I234378
aF236.399
aF125.562
aVp3
p1718
aS'utopia'
p1719
aS'#656565'
p1720
aF8.88595
aI0
aI01
aI00
aI00
aI00
aI00
aI00
aI00
aI00
aa(lp1721
I234378
aF255.00766666666667
aF125.562
ag1718
aS'utopia'
p1722
aS'#656565'
p1723
aF8.88595
aI0
aI00
aI00
aI00
aI00
aI00
aI00
aI00
aI00
aa(lp1724
I44279
aF260.836
aF125.562
aVp3
p1725
aS'utopia'
p1726
aS'#656565'
p1727
aF8.88595
aI0
aI01
aI00
aI00
aI00
aI00
aI00
aI00
aI00
aa(lp1728
I210461
aF40.9084
aF139.631
aVp3
p1729
aS'utopia'
p1730
aS'#656565'
p1731
aF8.88595
aI0
aI01
aI00
aI00
aI00
aI00
aI00
aI00
aI00
aa(lp1732
I340
aF65.3448
aF139.631
aVp3
p1733
aS'utopia'
p1734
aS'#656565'
p1735
aF8.88595
aI0
aI01
aI00
aI00
aI00
aI00
aI00
aI00
aI00
aa(lp1736
I234378
aF79.65472000000001
aF139.631
ag1733
aS'utopia'
p1737
aS'#656565'
p1738
aF8.88595
aI0
aI00
aI00
aI00
aI00
aI00
aI00
aI00
aI00
aa(lp1739
I234378
aF87.5597
aF139.631
aVp3
p1740
aS'utopia'
p1741
aS'#656565'
p1742
aF8.88595
aI0
aI00
aI00
aI01
aI01
aI01
aI00
aI00
aI00
aa(lp1743
I176435
aF40.9084
aF153.701
aVp3
p1744
aS'utopia'
p1745
aS'#656565'
p1746
aF8.88595
aI0
aI01
aI00
aI00
aI00
aI00
aI00
aI00
aI00
aa(lp1747
I234378
aF60.9018
aF153.701
aVp3
p1748
aS'utopia'
p1749
aS'#656565'
p1750
aF8.88595
aI0
aI00
aI00
aI00
aI00
aI00
aI00
aI00
aI00
aa(lp1751
I43275
aF67.5663
aF153.701
aVp3
p1752
aS'utopia'
p1753
aS'#656565'
p1754
aF8.88595
aI0
aI01
aI00
aI00
aI00
aI00
aI00
aI00
aI00
aa(lp1755
I234229
aF100.148
aF153.701
aVp3
p1756
aS'utopia'
p1757
aS'#656565'
p1758
aF8.88595
aI0
aI01
aI00
aI00
aI00
aI00
aI00
aI00
aI00
aa(lp1759
I176435
aF40.9084
aF167.77
aVp3
p1760
aS'utopia'
p1761
aS'#656565'
p1762
aF8.88595
aI0
aI01
aI00
aI00
aI00
aI00
aI00
aI00
aI00
aa(lp1763
I66756
aF60.9018
aF167.77
aVp3
p1764
aS'utopia'
p1765
aS'#656565'
p1766
aF8.88595
aI0
aI01
aI00
aI00
aI00
aI00
aI00
aI00
aI00
aa(lp1767
I234378
aF105.12885833333334
aF167.77
ag1764
aS'utopia'
p1768
aS'#656565'
p1769
aF8.88595
aI0
aI00
aI00
aI00
aI00
aI00
aI00
aI00
aI00
aa(lp1770
I75739
aF113.477
aF167.77
aVp3
p1771
aS'utopia'
p1772
aS'#656565'
p1773
aF8.88595
aI0
aI01
aI00
aI00
aI00
aI00
aI00
aI00
aI00
aa(lp1774
I135639
aF130.508
aF167.77
aVp3
p1775
aS'utopia'
p1776
aS'#656565'
p1777
aF8.88595
aI0
aI00
aI00
aI00
aI00
aI00
aI00
aI00
aI00
aa(lp1778
I177958
aF140.135
aF167.77
aVp3
p1779
aS'utopia'
p1780
aS'#656565'
p1781
aF8.88595
aI0
aI00
aI00
aI00
aI00
aI00
aI00
aI00
aI00
aa(lp1782
I133618
aF170.495
aF167.77
aVp3
p1783
aS'utopia'
p1784
aS'#656565'
p1785
aF8.88595
aI0
aI00
aI00
aI00
aI00
aI00
aI00
aI00
aI00
aa(lp1786
I144690
aF203.818
aF167.77
aVp3
p1787
aS'utopia'
p1788
aS'#656565'
p1789
aF8.88595
aI0
aI00
aI00
aI00
aI00
aI00
aI00
aI00
aI00
aa(lp1790
I113201
aF231.216
aF167.77
aVp3
p1791
aS'utopia'
p1792
aS'#656565'
p1793
aF8.88595
aI0
aI00
aI00
aI00
aI00
aI00
aI00
aI00
aI00
aa(lp1794
I234378
aF256.06877142857144
aF167.77
ag1791
aS'utopia'
p1795
aS'#656565'
p1796
aF8.88595
aI0
aI00
aI00
aI00
aI00
aI00
aI00
aI00
aI00
aa(lp1797
I234378
aF262.317
aF167.77
aVp3
p1798
aS'utopia'
p1799
aS'#656565'
p1800
aF8.88595
aI0
aI00
aI00
aI00
aI00
aI00
aI00
aI00
aI00
aa(lp1801
I234378
aF302.4714
aF167.77
ag1798
aS'utopia'
p1802
aS'#656565'
p1803
aF8.88595
aI0
aI00
aI00
aI00
aI00
aI00
aI00
aI00
aI00
aa(lp1804
I234378
aF308.227
aF167.77
aVp3
p1805
aS'utopia'
p1806
aS'#656565'
p1807
aF8.88595
aI0
aI00
aI00
aI00
aI00
aI00
aI00
aI00
aI00
aa(lp1808
I85218
aF342.29
aF167.77
aVp3
p1809
aS'utopia'
p1810
aS'#656565'
p1811
aF8.88595
aI0
aI00
aI00
aI00
aI00
aI00
aI00
aI00
aI00
aa(lp1812
I234378
aF359.322
aF167.77
aVp3
p1813
aS'utopia'
p1814
aS'#656565'
p1815
aF8.88595
aI0
aI00
aI00
aI00
aI00
aI00
aI00
aI00
aI00
aa(lp1816
I149270
aF397.087
aF167.77
aVp3
p1817
aS'utopia'
p1818
aS'#656565'
p1819
aF8.88595
aI0
aI00
aI00
aI00
aI00
aI00
aI00
aI00
aI00
aa(lp1820
I234378
aF434.852
aF167.77
aVp3
p1821
aS'utopia'
p1822
aS'#656565'
p1823
aF8.88595
aI0
aI00
aI00
aI00
aI00
aI00
aI00
aI00
aI00
aa(lp1824
I85218
aF460.029
aF167.77
aVp3
p1825
aS'utopia'
p1826
aS'#656565'
p1827
aF8.88595
aI0
aI00
aI00
aI00
aI00
aI00
aI00
aI00
aI00
aa(lp1828
I234378
aF477.06
aF167.77
aVp3
p1829
aS'utopia'
p1830
aS'#656565'
p1831
aF8.88595
aI0
aI00
aI00
aI00
aI00
aI00
aI00
aI00
aI00
aa(lp1832
I14859
aF513.345
aF167.77
aVp3
p1833
aS'utopia'
p1834
aS'#656565'
p1835
aF8.88595
aI0
aI00
aI00
aI00
aI00
aI00
aI00
aI00
aI00
aa(lp1836
I124676
aF40.9084
aF178.137
aVp3
p1837
aS'utopia'
p1838
aS'#656565'
p1839
aF8.88595
aI0
aI00
aI00
aI00
aI00
aI00
aI00
aI00
aI00
aa(lp1840
I25931
aF58.6803
aF178.137
aVp3
p1841
aS'utopia'
p1842
aS'#656565'
p1843
aF8.88595
aI0
aI00
aI00
aI00
aI00
aI00
aI00
aI00
aI00
aa(lp1844
I55730
aF82.3762
aF178.137
aVp3
p1845
aS'utopia'
p1846
aS'#656565'
p1847
aF8.88595
aI0
aI00
aI00
aI00
aI00
aI00
aI00
aI00
aI00
aa(lp1848
I85218
aF107.553
aF178.137
aVp3
p1849
aS'utopia'
p1850
aS'#656565'
p1851
aF8.88595
aI0
aI00
aI00
aI00
aI00
aI00
aI00
aI00
aI00
aa(lp1852
I63022
aF124.584
aF178.137
aVp3
p1853
aS'utopia'
p1854
aS'#656565'
p1855
aF8.88595
aI0
aI00
aI00
aI00
aI00
aI00
aI00
aI00
aI00
aa(lp1856
I44160
aF158.647
aF178.137
aVp3
p1857
aS'utopia'
p1858
aS'#656565'
p1859
aF8.88595
aI0
aI00
aI00
aI00
aI00
aI00
aI00
aI00
aI00
aa(lp1860
I234378
aF188.267
aF178.137
aVp3
p1861
aS'utopia'
p1862
aS'#656565'
p1863
aF8.88595
aI0
aI00
aI00
aI00
aI00
aI00
aI00
aI00
aI00
aa(lp1864
I234378
aF210.58091428571427
aF178.137
ag1861
aS'utopia'
p1865
aS'#656565'
p1866
aF8.88595
aI0
aI00
aI00
aI00
aI00
aI00
aI00
aI00
aI00
aa(lp1867
I163414
aF216.406
aF178.137
aVp3
p1868
aS'utopia'
p1869
aS'#656565'
p1870
aF8.88595
aI0
aI01
aI00
aI00
aI00
aI00
aI00
aI00
aI00
aa(lp1871
I166593
aF254.912
aF178.137
aVp3
p1872
aS'utopia'
p1873
aS'#656565'
p1874
aF8.88595
aI0
aI00
aI00
aI00
aI00
aI00
aI00
aI00
aI00
aa(lp1875
I210461
aF261.576
aF178.137
aVp3
p1876
aS'utopia'
p1877
aS'#656565'
p1878
aF8.88595
aI0
aI00
aI00
aI00
aI00
aI00
aI00
aI00
aI00
aa(lp1879
I144489
aF283.791
aF178.137
aVp3
p1880
aS'utopia'
p1881
aS'#656565'
p1882
aF8.88595
aI0
aI00
aI00
aI00
aI00
aI00
aI00
aI00
aI00
aa(lp1883
I234378
aF294.158
aF178.137
aVp3
p1884
aS'utopia'
p1885
aS'#656565'
p1886
aF8.88595
aI0
aI00
aI00
aI01
aI01
aI00
aI00
aI00
aI00
aa(lp1887
I234378
aF300.822
aF178.137
aVp3
p1888
aS'utopia'
p1889
aS'#656565'
p1890
aF8.88595
aI0
aI00
aI00
aI00
aI00
aI00
aI00
aI00
aI00
aa(lp1891
I234378
aF345.993
aF178.137
aVp3
p1892
aS'utopia'
p1893
aS'#656565'
p1894
aF8.88595
aI0
aI00
aI00
aI00
aI00
aI00
aI00
aI00
aI00
aa(lp1895
I45324
aF368.948
aF178.137
aVp3
p1896
aS'utopia'
p1897
aS'#656565'
p1898
aF8.88595
aI0
aI01
aI01
aI00
aI00
aI00
aI00
aI00
aI00
aa(lp1899
I131978
aF402.27
aF178.137
aVp3
p1900
aS'utopia'
p1901
aS'#656565'
p1902
aF8.88595
aI0
aI00
aI00
aI00
aI00
aI00
aI00
aI00
aI00
aa(lp1903
I234378
aF452.6061833333333
aF178.137
ag1900
aS'utopia'
p1904
aS'#656565'
p1905
aF8.88595
aI0
aI00
aI00
aI00
aI00
aI00
aI00
aI00
aI00
aa(lp1906
I207845
aF459.289
aF178.137
aVp3
p1907
aS'utopia'
p1908
aS'#656565'
p1909
aF8.88595
aI0
aI01
aI00
aI00
aI00
aI00
aI00
aI00
aI00
aa(lp1910
I60201
aF490.389
aF178.137
aVp3
p1911
aS'utopia'
p1912
aS'#656565'
p1913
aF8.88595
aI0
aI00
aI00
aI00
aI00
aI00
aI00
aI00
aI00
aa(lp1914
I46145
aF505.199
aF178.137
aVp3
p1915
aS'utopia'
p1916
aS'#656565'
p1917
aF8.88595
aI0
aI00
aI00
aI00
aI00
aI00
aI00
aI00
aI00
aa(lp1918
I68032
aF40.9084
aF188.504
aVp3
p1919
aS'utopia'
p1920
aS'#656565'
p1921
aF8.88595
aI0
aI00
aI00
aI00
aI00
aI00
aI00
aI00
aI00
aa(lp1922
I234378
aF90.56579166666666
aF188.504
ag1919
aS'utopia'
p1923
aS'#656565'
p1924
aF8.88595
aI0
aI00
aI00
aI00
aI00
aI00
aI00
aI00
aI00
aa(lp1925
I177958
aF40.9084
aF202.573
aVp3
p1926
aS'utopia'
p1927
aS'#656565'
p1928
aF8.88595
aI0
aI01
aI00
aI00
aI00
aI00
aI00
aI00
aI00
aa(lp1929
I234378
aF71.2688
aF202.573
aVp3
p1930
aS'utopia'
p1931
aS'#656565'
p1932
aF8.88595
aI0
aI01
aI00
aI00
aI00
aI00
aI00
aI00
aI00
aa(lp1933
I234378
aF96.6393375
aF202.573
ag1930
aS'utopia'
p1934
aS'#656565'
p1935
aF8.88595
aI0
aI00
aI00
aI00
aI00
aI00
aI00
aI00
aI00
aa(lp1936
I210461
aF104.591
aF202.573
aVp3
p1937
aS'utopia'
p1938
aS'#656565'
p1939
aF8.88595
aI0
aI01
aI00
aI00
aI00
aI00
aI00
aI00
aI00
aa(lp1940
I90974
aF129.027
aF202.573
aVp3
p1941
aS'utopia'
p1942
aS'#656565'
p1943
aF8.88595
aI0
aI01
aI00
aI00
aI00
aI00
aI00
aI00
aI00
aa(lp1944
I16329
aF145.318
aF202.573
aVp3
p1945
aS'utopia'
p1946
aS'#656565'
p1947
aF8.88595
aI0
aI00
aI00
aI00
aI00
aI00
aI00
aI00
aI00
aa(lp1948
I44367
aF157.166
aF202.573
aVp3
p1949
aS'utopia'
p1950
aS'#656565'
p1951
aF8.88595
aI0
aI00
aI00
aI00
aI00
aI00
aI00
aI00
aI00
aa(lp1952
I89480
aF174.24856666666668
aF202.573
ag1949
aS'utopia'
p1953
aS'#656565'
p1954
aF8.88595
aI0
aI00
aI00
aI00
aI00
aI00
aI00
aI00
aI00
aa(lp1955
I203832
aF183.28985
aF202.573
ag1949
aS'utopia'
p1956
aS'#656565'
p1957
aF8.88595
aI0
aI00
aI00
aI00
aI00
aI00
aI00
aI00
aI00
aa(lp1958
I234378
aF195.351775
aF202.573
ag1949
aS'utopia'
p1959
aS'#656565'
p1960
aF8.88595
aI0
aI00
aI00
aI00
aI00
aI00
aI00
aI00
aI00
aa(lp1961
I95346
aF207.52
aF202.573
aVp3
p1962
aS'utopia'
p1963
aS'#656565'
p1964
aF8.88595
aI0
aI00
aI00
aI00
aI00
aI00
aI00
aI00
aI00
aa(lp1965
I17350
aF241.583
aF202.573
aVp3
p1966
aS'utopia'
p1967
aS'#656565'
p1968
aF8.88595
aI0
aI00
aI00
aI00
aI00
aI00
aI00
aI00
aI00
aa(lp1969
I110153
aF260.095
aF202.573
aVp3
p1970
aS'utopia'
p1971
aS'#656565'
p1972
aF8.88595
aI0
aI00
aI00
aI00
aI00
aI00
aI00
aI00
aI00
aa(lp1973
I153177
aF292.677
aF202.573
aVp3
p1974
aS'utopia'
p1975
aS'#656565'
p1976
aF8.88595
aI0
aI00
aI00
aI00
aI00
aI00
aI00
aI00
aI00
aa(lp1977
I234378
aF346.733
aF202.573
aVp3
p1978
aS'utopia'
p1979
aS'#656565'
p1980
aF8.88595
aI0
aI00
aI00
aI00
aI00
aI00
aI00
aI00
aI00
aa(lp1981
I234378
aF352.38506
aF202.573
ag1978
aS'utopia'
p1982
aS'#656565'
p1983
aF8.88595
aI0
aI01
aI01
aI00
aI00
aI00
aI00
aI00
aI00
aa(lp1984
I234378
aF369.34124
aF202.573
ag1978
aS'utopia'
p1985
aS'#656565'
p1986
aF8.88595
aI0
aI00
aI00
aI00
aI00
aI00
aI00
aI00
aI00
aa(lp1987
I129342
aF377.094
aF202.573
aVp3
p1988
aS'utopia'
p1989
aS'#656565'
p1990
aF8.88595
aI0
aI00
aI00
aI00
aI00
aI00
aI00
aI00
aI00
aa(lp1991
I175989
aF414.118
aF202.573
aVp3
p1992
aS'utopia'
p1993
aS'#656565'
p1994
aF8.88595
aI0
aI00
aI00
aI00
aI00
aI00
aI00
aI00
aI00
aa(lp1995
I234378
aF431.89
aF202.573
aVp3
p1996
aS'utopia'
p1997
aS'#656565'
p1998
aF8.88595
aI0
aI00
aI00
aI00
aI00
aI00
aI00
aI00
aI00
aa(lp1999
I49042
aF454.846
aF202.573
aVp3
p2000
aS'utopia'
p2001
aS'#656565'
p2002
aF8.88595
aI0
aI00
aI00
aI00
aI00
aI00
aI00
aI00
aI00
aa(lp2003
I133174
aF471.877
aF202.573
aVp3
p2004
aS'utopia'
p2005
aS'#656565'
p2006
aF8.88595
aI0
aI00
aI00
aI00
aI00
aI00
aI00
aI00
aI00
aa(lp2007
I226160
aF490.389
aF202.573
aVp3
p2008
aS'utopia'
p2009
aS'#656565'
p2010
aF8.88595
aI0
aI00
aI00
aI00
aI00
aI00
aI00
aI00
aI00
aa(lp2011
I144489
aF521.49
aF202.573
aVp3
p2012
aS'utopia'
p2013
aS'#656565'
p2014
aF8.88595
aI0
aI00
aI00
aI00
aI00
aI00
aI00
aI00
aI00
aa(lp2015
I61342
aF531.857
aF202.573
aVp3
p2016
aS'utopia'
p2017
aS'#656565'
p2018
aF8.88595
aI0
aI00
aI00
aI00
aI00
aI00
aI00
aI00
aI00
aa(lp2019
I234378
aF40.9084
aF212.94
aVp3
p2020
aS'utopia'
p2021
aS'#656565'
p2022
aF8.88595
aI0
aI00
aI00
aI00
aI00
aI00
aI00
aI00
aI00
aa(lp2023
I198119
aF94.9646
aF212.94
aVp3
p2024
aS'utopia'
p2025
aS'#656565'
p2026
aF8.88595
aI0
aI00
aI00
aI00
aI00
aI00
aI00
aI00
aI00
aa(lp2027
I234378
aF120.882
aF212.94
aVp3
p2028
aS'utopia'
p2029
aS'#656565'
p2030
aF8.88595
aI0
aI00
aI00
aI00
aI00
aI00
aI00
aI00
aI00
aa(lp2031
I234378
aF165.78785
aF212.94
ag2028
aS'utopia'
p2032
aS'#656565'
p2033
aF8.88595
aI0
aI00
aI00
aI00
aI00
aI00
aI00
aI00
aI00
aa(lp2034
I90974
aF171.976
aF212.94
aVp3
p2035
aS'utopia'
p2036
aS'#656565'
p2037
aF8.88595
aI0
aI00
aI00
aI00
aI00
aI00
aI00
aI00
aI00
aa(lp2038
I144690
aF187.527
aF212.94
aVp3
p2039
aS'utopia'
p2040
aS'#656565'
p2041
aF8.88595
aI0
aI00
aI00
aI00
aI00
aI00
aI00
aI00
aI00
aa(lp2042
I234378
aF211.11034285714285
aF212.94
ag2039
aS'utopia'
p2043
aS'#656565'
p2044
aF8.88595
aI0
aI00
aI00
aI00
aI00
aI00
aI00
aI00
aI00
aa(lp2045
I29523
aF217.146
aF212.94
aVp3
p2046
aS'utopia'
p2047
aS'#656565'
p2048
aF8.88595
aI0
aI00
aI00
aI00
aI00
aI00
aI00
aI00
aI00
aa(lp2049
I234378
aF240.09462857142856
aF212.94
ag2046
aS'utopia'
p2050
aS'#656565'
p2051
aF8.88595
aI0
aI00
aI00
aI00
aI00
aI00
aI00
aI00
aI00
aa(lp2052
I176040
aF246.026
aF212.94
aVp3
p2053
aS'utopia'
p2054
aS'#656565'
p2055
aF8.88595
aI0
aI00
aI00
aI00
aI00
aI00
aI00
aI00
aI00
aa(lp2056
I195214
aF263.798
aF212.94
aVp3
p2057
aS'utopia'
p2058
aS'#656565'
p2059
aF8.88595
aI0
aI00
aI00
aI00
aI00
aI00
aI00
aI00
aI00
aa(lp2060
I153177
aF290.456
aF212.94
aVp3
p2061
aS'utopia'
p2062
aS'#656565'
p2063
aF8.88595
aI0
aI00
aI00
aI00
aI00
aI00
aI00
aI00
aI00
aa(lp2064
I234378
aF339.70300000000003
aF212.94
ag2061
aS'utopia'
p2065
aS'#656565'
p2066
aF8.88595
aI0
aI00
aI00
aI00
aI00
aI00
aI00
aI00
aI00
aa(lp2067
I85218
aF346.733
aF212.94
aVp3
p2068
aS'utopia'
p2069
aS'#656565'
p2070
aF8.88595
aI0
aI00
aI00
aI00
aI00
aI00
aI00
aI00
aI00
aa(lp2071
I171360
aF363.765
aF212.94
aVp3
p2072
aS'utopia'
p2073
aS'#656565'
p2074
aF8.88595
aI0
aI00
aI00
aI00
aI00
aI00
aI00
aI00
aI00
aa(lp2075
I234378
aF396.52482
aF212.94
ag2072
aS'utopia'
p2076
aS'#656565'
p2077
aF8.88595
aI0
aI00
aI00
aI00
aI00
aI00
aI00
aI00
aI00
aa(lp2078
I194354
aF402.27
aF212.94
aVp3
p2079
aS'utopia'
p2080
aS'#656565'
p2081
aF8.88595
aI0
aI01
aI00
aI00
aI00
aI00
aI00
aI00
aI00
aa(lp2082
I234378
aF419.302
aF212.94
aVp3
p2083
aS'utopia'
p2084
aS'#656565'
p2085
aF8.88595
aI0
aI01
aI01
aI00
aI00
aI00
aI00
aI00
aI00
aa(lp2086
I17350
aF434.112
aF212.94
aVp3
p2087
aS'utopia'
p2088
aS'#656565'
p2089
aF8.88595
aI0
aI01
aI00
aI00
aI00
aI00
aI00
aI00
aI00
aa(lp2090
I14859
aF454.105
aF212.94
aVp3
p2091
aS'utopia'
p2092
aS'#656565'
p2093
aF8.88595
aI0
aI00
aI00
aI00
aI00
aI00
aI00
aI00
aI00
aa(lp2094
I154254
aF488.168
aF212.94
aVp3
p2095
aS'utopia'
p2096
aS'#656565'
p2097
aF8.88595
aI0
aI00
aI00
aI00
aI00
aI00
aI00
aI00
aI00
aa(lp2098
I234378
aF538.522
aF212.94
aVp3
p2099
aS'utopia'
p2100
aS'#656565'
p2101
aF8.88595
aI0
aI00
aI00
aI00
aI00
aI00
aI00
aI00
aI00
aa(lp2102
I48815
aF40.9084
aF223.307
aVp3
p2103
aS'utopia'
p2104
aS'#656565'
p2105
aF8.88595
aI0
aI00
aI00
aI00
aI00
aI00
aI00
aI00
aI00
aa(lp2106
I111861
aF57.9398
aF223.307
aVp3
p2107
aS'utopia'
p2108
aS'#656565'
p2109
aF8.88595
aI0
aI00
aI00
aI00
aI00
aI00
aI00
aI00
aI00
aa(lp2110
I234378
aF85.68762222222222
aF223.307
ag2107
aS'utopia'
p2111
aS'#656565'
p2112
aF8.88595
aI0
aI00
aI00
aI00
aI00
aI00
aI00
aI00
aI00
aa(lp2113
I234378
aF91.2621
aF223.307
aVp3
p2114
aS'utopia'
p2115
aS'#656565'
p2116
aF8.88595
aI0
aI00
aI00
aI00
aI00
aI00
aI00
aI00
aI00
aa(lp2117
I234378
aF134.951
aF223.307
aVp3
p2118
aS'utopia'
p2119
aS'#656565'
p2120
aF8.88595
aI0
aI00
aI00
aI00
aI00
aI00
aI00
aI00
aI00
aa(lp2121
I234378
aF153.55966666666666
aF223.307
ag2118
aS'utopia'
p2122
aS'#656565'
p2123
aF8.88595
aI0
aI00
aI00
aI00
aI00
aI00
aI00
aI00
aI00
aa(lp2124
I16329
aF159.388
aF223.307
aVp3
p2125
aS'utopia'
p2126
aS'#656565'
p2127
aF8.88595
aI0
aI01
aI00
aI00
aI00
aI00
aI00
aI00
aI00
aa(lp2128
I234378
aF172.717
aF223.307
aVp3
p2129
aS'utopia'
p2130
aS'#656565'
p2131
aF8.88595
aI0
aI00
aI00
aI00
aI00
aI00
aI00
aI00
aI00
aa(lp2132
I38609
aF213.444
aF223.307
aVp3
p2133
aS'utopia'
p2134
aS'#656565'
p2135
aF8.88595
aI0
aI00
aI00
aI00
aI00
aI00
aI00
aI00
aI00
aa(lp2136
I234378
aF228.34632
aF223.307
ag2133
aS'utopia'
p2137
aS'#656565'
p2138
aF8.88595
aI0
aI00
aI00
aI00
aI00
aI00
aI00
aI00
aI00
aa(lp2139
I37654
aF234.178
aF223.307
aVp3
p2140
aS'utopia'
p2141
aS'#656565'
p2142
aF8.88595
aI0
aI00
aI00
aI00
aI00
aI00
aI00
aI00
aI00
aa(lp2143
I110153
aF260.836
aF223.307
aVp3
p2144
aS'utopia'
p2145
aS'#656565'
p2146
aF8.88595
aI0
aI00
aI00
aI00
aI00
aI00
aI00
aI00
aI00
aa(lp2147
I85218
aF293.418
aF223.307
aVp3
p2148
aS'utopia'
p2149
aS'#656565'
p2150
aF8.88595
aI0
aI00
aI00
aI00
aI00
aI00
aI00
aI00
aI00
aa(lp2151
I234378
aF310.449
aF223.307
aVp3
p2152
aS'utopia'
p2153
aS'#656565'
p2154
aF8.88595
aI0
aI00
aI00
aI00
aI00
aI00
aI00
aI00
aI00
aa(lp2155
I84932
aF349.695
aF223.307
aVp3
p2156
aS'utopia'
p2157
aS'#656565'
p2158
aF8.88595
aI0
aI00
aI00
aI00
aI00
aI00
aI00
aI00
aI00
aa(lp2159
I234378
aF364.505
aF223.307
aVp3
p2160
aS'utopia'
p2161
aS'#656565'
p2162
aF8.88595
aI0
aI00
aI00
aI00
aI00
aI00
aI00
aI00
aI00
aa(lp2163
I85218
aF396.346
aF223.307
aVp3
p2164
aS'utopia'
p2165
aS'#656565'
p2166
aF8.88595
aI0
aI00
aI00
aI00
aI00
aI00
aI00
aI00
aI00
aa(lp2167
I234378
aF413.378
aF223.307
aVp3
p2168
aS'utopia'
p2169
aS'#656565'
p2170
aF8.88595
aI0
aI00
aI00
aI00
aI00
aI00
aI00
aI00
aI00
aa(lp2171
I234378
aF447.1716375
aF223.307
ag2168
aS'utopia'
p2172
aS'#656565'
p2173
aF8.88595
aI0
aI00
aI00
aI00
aI00
aI00
aI00
aI00
aI00
aa(lp2174
I85218
aF454.105
aF223.307
aVp3
p2175
aS'utopia'
p2176
aS'#656565'
p2177
aF8.88595
aI0
aI00
aI00
aI00
aI00
aI00
aI00
aI00
aI00
aa(lp2178
I166593
aF471.137
aF223.307
aVp3
p2179
aS'utopia'
p2180
aS'#656565'
p2181
aF8.88595
aI0
aI00
aI00
aI00
aI00
aI00
aI00
aI00
aI00
aa(lp2182
I234378
aF477.801
aF223.307
aVp3
p2183
aS'utopia'
p2184
aS'#656565'
p2185
aF8.88595
aI0
aI00
aI00
aI00
aI00
aI00
aI00
aI00
aI00
aa(lp2186
I38609
aF511.864
aF223.307
aVp3
p2187
aS'utopia'
p2188
aS'#656565'
p2189
aF8.88595
aI0
aI00
aI00
aI00
aI00
aI00
aI00
aI00
aI00
aa(lp2190
I175989
aF530.376
aF223.307
aVp3
p2191
aS'utopia'
p2192
aS'#656565'
p2193
aF8.88595
aI0
aI00
aI00
aI00
aI00
aI00
aI00
aI00
aI00
aa(lp2194
I234378
aF40.9084
aF233.674
aVp3
p2195
aS'utopia'
p2196
aS'#656565'
p2197
aF8.88595
aI0
aI00
aI00
aI00
aI00
aI00
aI00
aI00
aI00
aa(lp2198
I194354
aF72.0093
aF233.674
aVp3
p2199
aS'utopia'
p2200
aS'#656565'
p2201
aF8.88595
aI0
aI00
aI00
aI00
aI00
aI00
aI00
aI00
aI00
aa(lp2202
I136483
aF86.8192
aF233.674
aVp3
p2203
aS'utopia'
p2204
aS'#656565'
p2205
aF8.88595
aI0
aI00
aI00
aI00
aI00
aI00
aI00
aI00
aI00
aa(lp2206
I17350
aF102.37
aF233.674
aVp3
p2207
aS'utopia'
p2208
aS'#656565'
p2209
aF8.88595
aI0
aI01
aI00
aI00
aI00
aI00
aI00
aI00
aI00
aa(lp2210
I90974
aF122.363
aF233.674
aVp3
p2211
aS'utopia'
p2212
aS'#656565'
p2213
aF8.88595
aI0
aI00
aI00
aI00
aI00
aI00
aI00
aI00
aI00
aa(lp2214
I234378
aF134.89572
aF233.674
ag2211
aS'utopia'
p2215
aS'#656565'
p2216
aF8.88595
aI0
aI00
aI00
aI00
aI00
aI00
aI00
aI00
aI00
aa(lp2217
I234378
aF140.135
aF233.674
aVp3
p2218
aS'utopia'
p2219
aS'#656565'
p2220
aF8.88595
aI0
aI01
aI00
aI00
aI00
aI00
aI00
aI00
aI00
aa(lp2221
I135639
aF175.679
aF233.674
aVp3
p2222
aS'utopia'
p2223
aS'#656565'
p2224
aF8.88595
aI0
aI00
aI00
aI00
aI00
aI00
aI00
aI00
aI00
aa(lp2225
I176802
aF185.305
aF233.674
aVp3
p2226
aS'utopia'
p2227
aS'#656565'
p2228
aF8.88595
aI0
aI01
aI00
aI00
aI00
aI00
aI00
aI00
aI00
aa(lp2229
I12878
aF203.818
aF233.674
aVp3
p2230
aS'utopia'
p2231
aS'#656565'
p2232
aF8.88595
aI0
aI00
aI00
aI00
aI00
aI00
aI00
aI00
aI00
aa(lp2233
I84932
aF257.133
aF233.674
aVp3
p2234
aS'utopia'
p2235
aS'#656565'
p2236
aF8.88595
aI0
aI00
aI00
aI00
aI00
aI00
aI00
aI00
aI00
aa(lp2237
I20356
aF271.943
aF233.674
aVp3
p2238
aS'utopia'
p2239
aS'#656565'
p2240
aF8.88595
aI0
aI00
aI00
aI00
aI00
aI00
aI00
aI00
aI00
aa(lp2241
I135639
aF308.968
aF233.674
aVp3
p2242
aS'utopia'
p2243
aS'#656565'
p2244
aF8.88595
aI0
aI00
aI00
aI00
aI00
aI00
aI00
aI00
aI00
aa(lp2245
I194354
aF318.594
aF233.674
aVp3
p2246
aS'utopia'
p2247
aS'#656565'
p2248
aF8.88595
aI0
aI00
aI00
aI00
aI00
aI00
aI00
aI00
aI00
aa(lp2249
I177271
aF333.404
aF233.674
aVp3
p2250
aS'utopia'
p2251
aS'#656565'
p2252
aF8.88595
aI0
aI00
aI00
aI00
aI00
aI00
aI00
aI00
aI00
aa(lp2253
I209676
aF357.1
aF233.674
aVp3
p2254
aS'utopia'
p2255
aS'#656565'
p2256
aF8.88595
aI0
aI00
aI00
aI00
aI00
aI00
aI00
aI00
aI00
aa(lp2257
I184870
aF376.353
aF233.674
aVp3
p2258
aS'utopia'
p2259
aS'#656565'
p2260
aF8.88595
aI0
aI00
aI00
aI00
aI00
aI00
aI00
aI00
aI00
aa(lp2261
I16329
aF410.416
aF233.674
aVp3
p2262
aS'utopia'
p2263
aS'#656565'
p2264
aF8.88595
aI0
aI00
aI00
aI00
aI00
aI00
aI00
aI00
aI00
aa(lp2265
I75654
aF422.264
aF233.674
aVp3
p2266
aS'utopia'
p2267
aS'#656565'
p2268
aF8.88595
aI0
aI00
aI00
aI00
aI00
aI00
aI00
aI00
aI00
aa(lp2269
I85218
aF468.175
aF233.674
aVp3
p2270
aS'utopia'
p2271
aS'#656565'
p2272
aF8.88595
aI0
aI00
aI00
aI00
aI00
aI00
aI00
aI00
aI00
aa(lp2273
I234378
aF485.206
aF233.674
aVp3
p2274
aS'utopia'
p2275
aS'#656565'
p2276
aF8.88595
aI0
aI00
aI00
aI00
aI00
aI00
aI00
aI00
aI00
aa(lp2277
I166245
aF40.9084
aF244.041
aVp3
p2278
aS'utopia'
p2279
aS'#656565'
p2280
aF8.88595
aI0
aI00
aI00
aI00
aI00
aI00
aI00
aI00
aI00
aa(lp2281
I61195
aF76.4522
aF244.041
aVp3
p2282
aS'utopia'
p2283
aS'#656565'
p2284
aF8.88595
aI0
aI00
aI00
aI00
aI00
aI00
aI00
aI00
aI00
aa(lp2285
I234378
aF105.06233750000001
aF244.041
ag2282
aS'utopia'
p2286
aS'#656565'
p2287
aF8.88595
aI0
aI00
aI00
aI00
aI00
aI00
aI00
aI00
aI00
aa(lp2288
I210461
aF111.256
aF244.041
aVp3
p2289
aS'utopia'
p2290
aS'#656565'
p2291
aF8.88595
aI0
aI01
aI00
aI00
aI00
aI00
aI00
aI00
aI00
aa(lp2292
I90974
aF135.692
aF244.041
aVp3
p2293
aS'utopia'
p2294
aS'#656565'
p2295
aF8.88595
aI0
aI01
aI00
aI00
aI00
aI00
aI00
aI00
aI00
aa(lp2296
I234378
aF151.983
aF244.041
aVp3
p2297
aS'utopia'
p2298
aS'#656565'
p2299
aF8.88595
aI0
aI00
aI00
aI00
aI00
aI00
aI00
aI00
aI00
aa(lp2300
I194354
aF191.229
aF244.041
aVp3
p2301
aS'utopia'
p2302
aS'#656565'
p2303
aF8.88595
aI0
aI00
aI00
aI00
aI00
aI00
aI00
aI00
aI00
aa(lp2304
I8059
aF206.039
aF244.041
aVp3
p2305
aS'utopia'
p2306
aS'#656565'
p2307
aF8.88595
aI0
aI00
aI00
aI00
aI00
aI00
aI00
aI00
aI00
aa(lp2308
I234378
aF237.0779333333333
aF244.041
ag2305
aS'utopia'
p2309
aS'#656565'
p2310
aF8.88595
aI0
aI00
aI00
aI00
aI00
aI00
aI00
aI00
aI00
aa(lp2311
I153177
aF243.064
aF244.041
aVp3
p2312
aS'utopia'
p2313
aS'#656565'
p2314
aF8.88595
aI0
aI00
aI00
aI00
aI00
aI00
aI00
aI00
aI00
aa(lp2315
I85218
aF297.12
aF244.041
aVp3
p2316
aS'utopia'
p2317
aS'#656565'
p2318
aF8.88595
aI0
aI00
aI00
aI00
aI00
aI00
aI00
aI00
aI00
aa(lp2319
I234378
aF314.151
aF244.041
aVp3
p2320
aS'utopia'
p2321
aS'#656565'
p2322
aF8.88595
aI0
aI00
aI00
aI00
aI00
aI00
aI00
aI00
aI00
aa(lp2323
I144489
aF357.1
aF244.041
aVp3
p2324
aS'utopia'
p2325
aS'#656565'
p2326
aF8.88595
aI0
aI00
aI00
aI00
aI00
aI00
aI00
aI00
aI00
aa(lp2327
I145330
aF367.467
aF244.041
aVp3
p2328
aS'utopia'
p2329
aS'#656565'
p2330
aF8.88595
aI0
aI00
aI00
aI00
aI00
aI00
aI00
aI00
aI00
aa(lp2331
I110153
aF411.156
aF244.041
aVp3
p2332
aS'utopia'
p2333
aS'#656565'
p2334
aF8.88595
aI0
aI00
aI00
aI00
aI00
aI00
aI00
aI00
aI00
aa(lp2335
I85218
aF443.738
aF244.041
aVp3
p2336
aS'utopia'
p2337
aS'#656565'
p2338
aF8.88595
aI0
aI00
aI00
aI00
aI00
aI00
aI00
aI00
aI00
aa(lp2339
I17350
aF460.77
aF244.041
aVp3
p2340
aS'utopia'
p2341
aS'#656565'
p2342
aF8.88595
aI0
aI01
aI00
aI00
aI00
aI00
aI00
aI00
aI00
aa(lp2343
I234378
aF480.763
aF244.041
aVp3
p2344
aS'utopia'
p2345
aS'#656565'
p2346
aF8.88595
aI0
aI00
aI00
aI00
aI00
aI00
aI00
aI00
aI00
aa(lp2347
I234378
aF501.22291666666666
aF244.041
ag2344
aS'utopia'
p2348
aS'#656565'
p2349
aF8.88595
aI0
aI00
aI00
aI00
aI00
aI00
aI00
aI00
aI00
aa(lp2350
I210461
aF507.421
aF244.041
aVp3
p2351
aS'utopia'
p2352
aS'#656565'
p2353
aF8.88595
aI0
aI01
aI00
aI00
aI00
aI00
aI00
aI00
aI00
aa(lp2354
I90974
aF531.857
aF244.041
aVp3
p2355
aS'utopia'
p2356
aS'#656565'
p2357
aF8.88595
aI0
aI01
aI00
aI00
aI00
aI00
aI00
aI00
aI00
aa(lp2358
I203832
aF40.9084
aF254.408
aVp3
p2359
aS'utopia'
p2360
aS'#656565'
p2361
aF8.88595
aI0
aI00
aI00
aI00
aI00
aI00
aI00
aI00
aI00
aa(lp2362
I194354
aF56.4588
aF254.408
aVp3
p2363
aS'utopia'
p2364
aS'#656565'
p2365
aF8.88595
aI0
aI00
aI00
aI00
aI00
aI00
aI00
aI00
aI00
aa(lp2366
I30288
aF71.2688
aF254.408
aVp3
p2367
aS'utopia'
p2368
aS'#656565'
p2369
aF8.88595
aI0
aI01
aI00
aI00
aI00
aI00
aI00
aI00
aI00
aa(lp2370
I35847
aF94.9646
aF254.408
aVp3
p2371
aS'utopia'
p2372
aS'#656565'
p2373
aF8.88595
aI0
aI01
aI00
aI00
aI00
aI00
aI00
aI00
aI00
aa(lp2374
I63022
aF125.325
aF254.408
aVp3
p2375
aS'utopia'
p2376
aS'#656565'
p2377
aF8.88595
aI0
aI00
aI00
aI00
aI00
aI00
aI00
aI00
aI00
aa(lp2378
I89480
aF159.388
aF254.408
aVp3
p2379
aS'utopia'
p2380
aS'#656565'
p2381
aF8.88595
aI0
aI00
aI00
aI00
aI00
aI00
aI00
aI00
aI00
aa(lp2382
I104380
aF169.755
aF254.408
aVp3
p2383
aS'utopia'
p2384
aS'#656565'
p2385
aF8.88595
aI0
aI00
aI00
aI00
aI00
aI00
aI00
aI00
aI00
aa(lp2386
I194354
aF190.489
aF254.408
aVp3
p2387
aS'utopia'
p2388
aS'#656565'
p2389
aF8.88595
aI0
aI00
aI00
aI00
aI00
aI00
aI00
aI00
aI00
aa(lp2390
I110153
aF205.299
aF254.408
aVp3
p2391
aS'utopia'
p2392
aS'#656565'
p2393
aF8.88595
aI0
aI00
aI00
aI00
aI00
aI00
aI00
aI00
aI00
aa(lp2394
I131049
aF237.88
aF254.408
aVp3
p2395
aS'utopia'
p2396
aS'#656565'
p2397
aF8.88595
aI0
aI00
aI00
aI00
aI00
aI00
aI00
aI00
aI00
aa(lp2398
I194354
aF260.095
aF254.408
aVp3
p2399
aS'utopia'
p2400
aS'#656565'
p2401
aF8.88595
aI0
aI00
aI00
aI00
aI00
aI00
aI00
aI00
aI00
aa(lp2402
I110153
aF274.905
aF254.408
aVp3
p2403
aS'utopia'
p2404
aS'#656565'
p2405
aF8.88595
aI0
aI01
aI00
aI00
aI00
aI00
aI00
aI00
aI00
aa(lp2406
I153177
aF308.968
aF254.408
aVp3
p2407
aS'utopia'
p2408
aS'#656565'
p2409
aF8.88595
aI0
aI01
aI00
aI00
aI00
aI00
aI00
aI00
aI00
aa(lp2410
I207716
aF363.024
aF254.408
aVp3
p2411
aS'utopia'
p2412
aS'#656565'
p2413
aF8.88595
aI0
aI01
aI00
aI00
aI00
aI00
aI00
aI00
aI00
aa(lp2414
I89480
aF393.384
aF254.408
aVp3
p2415
aS'utopia'
p2416
aS'#656565'
p2417
aF8.88595
aI0
aI00
aI00
aI00
aI00
aI00
aI00
aI00
aI00
aa(lp2418
I194354
aF403.751
aF254.408
aVp3
p2419
aS'utopia'
p2420
aS'#656565'
p2421
aF8.88595
aI0
aI00
aI00
aI00
aI00
aI00
aI00
aI00
aI00
aa(lp2422
I96642
aF418.561
aF254.408
aVp3
p2423
aS'utopia'
p2424
aS'#656565'
p2425
aF8.88595
aI0
aI00
aI00
aI00
aI00
aI00
aI00
aI00
aI00
aa(lp2426
I234378
aF441.3505333333333
aF254.408
ag2423
aS'utopia'
p2427
aS'#656565'
p2428
aF8.88595
aI0
aI00
aI00
aI00
aI00
aI00
aI00
aI00
aI00
aa(lp2429
I59734
aF438.1487888888889
aF254.408
ag2423
aS'utopia'
p2430
aS'#656565'
p2431
aF8.88595
aI0
aI00
aI00
aI00
aI00
aI00
aI00
aI00
aI00
aa(lp2432
I234378
aF448.94704444444443
aF254.408
ag2423
aS'utopia'
p2433
aS'#656565'
p2434
aF8.88595
aI0
aI00
aI00
aI00
aI00
aI00
aI00
aI00
aI00
aa(lp2435
I135639
aF454.846
aF254.408
aVp3
p2436
aS'utopia'
p2437
aS'#656565'
p2438
aF8.88595
aI0
aI00
aI00
aI00
aI00
aI00
aI00
aI00
aI00
aa(lp2439
I194354
aF464.472
aF254.408
aVp3
p2440
aS'utopia'
p2441
aS'#656565'
p2442
aF8.88595
aI0
aI00
aI00
aI00
aI00
aI00
aI00
aI00
aI00
aa(lp2443
I136483
aF479.282
aF254.408
aVp3
p2444
aS'utopia'
p2445
aS'#656565'
p2446
aF8.88595
aI0
aI00
aI00
aI00
aI00
aI00
aI00
aI00
aI00
aa(lp2447
I12878
aF494.832
aF254.408
aVp3
p2448
aS'utopia'
p2449
aS'#656565'
p2450
aF8.88595
aI0
aI00
aI00
aI00
aI00
aI00
aI00
aI00
aI00
aa(lp2451
I234378
aF543.8106
aF254.408
ag2448
aS'utopia'
p2452
aS'#656565'
p2453
aF8.88595
aI0
aI00
aI00
aI00
aI00
aI00
aI00
aI00
aI00
aa(lp2454
I210461
aF40.9084
aF291.326
aVp3
p2455
aS'utopia'
p2456
aS'#000000'
p2457
aF10.3669
aI1
aI01
aI00
aI00
aI00
aI00
aI00
aI00
aI00
aa(lp2458
I175409
aF70.5283
aF291.326
aVp3
p2459
aS'utopia'
p2460
aS'#000000'
p2461
aF10.3669
aI1
aI01
aI00
aI00
aI00
aI00
aI00
aI00
aI00
aa(lp2462
I234378
aF40.9084
aF307.887
aVp3
p2463
aS'utopia'
p2464
aS'#656565'
p2465
aF10.3669
aI0
aI01
aI00
aI00
aI00
aI00
aI00
aI00
aI00
aa(lp2466
I91539
aF77.9332
aF307.887
aVp3
p2467
aS'utopia'
p2468
aS'#656565'
p2469
aF10.3669
aI0
aI01
aI01
aI00
aI00
aI00
aI00
aI00
aI00
aa(lp2470
I234378
aF108.294
aF307.887
aVp3
p2471
aS'utopia'
p2472
aS'#656565'
p2473
aF10.3669
aI0
aI00
aI00
aI00
aI00
aI00
aI00
aI00
aI00
aa(lp2474
I48416
aF113.95945555555555
aF307.887
ag2471
aS'utopia'
p2475
aS'#656565'
p2476
aF10.3669
aI0
aI01
aI00
aI00
aI00
aI00
aI00
aI00
aI00
aa(lp2477
I234378
aF153.61764444444444
aF307.887
ag2471
aS'utopia'
p2478
aS'#656565'
p2479
aF10.3669
aI0
aI00
aI00
aI00
aI00
aI00
aI00
aI00
aI00
aa(lp2480
I234378
aF166.052
aF307.887
aVp3
p2481
aS'utopia'
p2482
aS'#656565'
p2483
aF10.3669
aI0
aI01
aI00
aI00
aI00
aI00
aI00
aI00
aI00
aa(lp2484
I60201
aF203.077
aF307.887
aVp3
p2485
aS'utopia'
p2486
aS'#656565'
p2487
aF10.3669
aI0
aI01
aI00
aI00
aI00
aI00
aI00
aI00
aI00
aa(lp2488
I230071
aF223.07
aF307.887
aVp3
p2489
aS'utopia'
p2490
aS'#656565'
p2491
aF10.3669
aI0
aI01
aI00
aI00
aI00
aI00
aI00
aI00
aI00
aa(lp2492
I131049
aF254.171
aF307.887
aVp3
p2493
aS'utopia'
p2494
aS'#656565'
p2495
aF10.3669
aI0
aI00
aI00
aI00
aI00
aI00
aI00
aI00
aI00
aa(lp2496
I37510
aF278.608
aF307.887
aVp3
p2497
aS'utopia'
p2498
aS'#656565'
p2499
aF10.3669
aI0
aI01
aI00
aI00
aI00
aI00
aI00
aI00
aI01
aa(lp2500
I234378
aF299.341
aF307.887
aVp3
p2501
aS'utopia'
p2502
aS'#656565'
p2503
aF10.3669
aI0
aI00
aI00
aI01
aI01
aI01
aI00
aI00
aI00
aa(lp2504
I89480
aF322.297
aF307.887
aVp3
p2505
aS'utopia'
p2506
aS'#656565'
p2507
aF10.3669
aI0
aI00
aI00
aI00
aI00
aI00
aI00
aI00
aI00
aa(lp2508
I27216
aF334.145
aF307.887
aVp3
p2509
aS'utopia'
p2510
aS'#656565'
p2511
aF10.3669
aI0
aI01
aI00
aI00
aI00
aI00
aI00
aI00
aI01
aa(lp2512
I234378
aF352.657
aF307.887
aVp3
p2513
aS'utopia'
p2514
aS'#656565'
p2515
aF10.3669
aI0
aI00
aI00
aI01
aI01
aI01
aI00
aI00
aI00
aa(lp2516
I234378
aF40.9084
aF324.178
aVp3
p2517
aS'utopia'
p2518
aS'#656565'
p2519
aF10.3669
aI0
aI01
aI00
aI00
aI00
aI00
aI00
aI00
aI00
aa(lp2520
I109610
aF40.9084
aF340.306
aVp3
p2521
aS'utopia'
p2522
aS'#656565'
p2523
aF8.88595
aI0
aI01
aI00
aI00
aI00
aI00
aI00
aI00
aI00
aa(lp2524
I25729
aF58.6803
aF340.306
aVp3
p2525
aS'utopia'
p2526
aS'#656565'
p2527
aF8.88595
aI0
aI01
aI00
aI00
aI00
aI00
aI00
aI00
aI00
aa(lp2528
I234378
aF76.54462000000001
aF340.306
ag2525
aS'utopia'
p2529
aS'#656565'
p2530
aF8.88595
aI0
aI00
aI00
aI00
aI00
aI00
aI00
aI00
aI00
aa(lp2531
I84662
aF85.3382
aF340.306
aVp3
p2532
aS'utopia'
p2533
aS'#656565'
p2534
aF8.88595
aI0
aI01
aI00
aI00
aI00
aI00
aI00
aI00
aI00
aa(lp2535
I21716
aF106.813
aF340.306
aVp3
p2536
aS'utopia'
p2537
aS'#656565'
p2538
aF8.88595
aI0
aI01
aI00
aI00
aI00
aI00
aI00
aI00
aI00
aa(lp2539
I171173
aF123.3923
aF340.306
ag2536
aS'utopia'
p2540
aS'#656565'
p2541
aF8.88595
aI0
aI01
aI00
aI00
aI00
aI00
aI00
aI00
aI00
aa(lp2542
I234378
aF162.34055
aF340.306
ag2536
aS'utopia'
p2543
aS'#656565'
p2544
aF8.88595
aI0
aI00
aI00
aI00
aI00
aI00
aI00
aI00
aI00
aa(lp2545
I234378
aF171.236
aF340.306
aVp3
p2546
aS'utopia'
p2547
aS'#656565'
p2548
aF8.88595
aI0
aI01
aI00
aI00
aI00
aI00
aI00
aI00
aI00
aa(lp2549
I234378
aF228.01645333333332
aF340.306
ag2546
aS'utopia'
p2550
aS'#656565'
p2551
aF8.88595
aI0
aI00
aI00
aI00
aI00
aI00
aI00
aI00
aI00
aa(lp2552
I234378
aF234.178
aF340.306
aVp3
p2553
aS'utopia'
p2554
aS'#656565'
p2555
aF8.88595
aI0
aI01
aI00
aI00
aI00
aI00
aI00
aI00
aI00
aa(lp2556
I148996
aF281.4337058823529
aF340.306
ag2553
aS'utopia'
p2557
aS'#656565'
p2558
aF8.88595
aI0
aI01
aI00
aI00
aI00
aI00
aI00
aI00
aI00
aa(lp2559
I234378
aF314.892
aF340.306
aVp3
p2560
aS'utopia'
p2561
aS'#656565'
p2562
aF8.88595
aI0
aI00
aI00
aI00
aI00
aI00
aI00
aI00
aI00
aa(lp2563
I84662
aF319.61474545454547
aF340.306
ag2560
aS'utopia'
p2564
aS'#656565'
p2565
aF8.88595
aI0
aI01
aI00
aI00
aI00
aI00
aI00
aI00
aI00
aa(lp2566
I234378
aF338.5057272727273
aF340.306
ag2560
aS'utopia'
p2567
aS'#656565'
p2568
aF8.88595
aI0
aI00
aI00
aI00
aI00
aI00
aI00
aI00
aI00
aa(lp2569
I234378
aF343.2284727272728
aF340.306
ag2560
aS'utopia'
p2570
aS'#656565'
p2571
aF8.88595
aI0
aI01
aI01
aI00
aI00
aI00
aI00
aI00
aI00
aa(lp2572
I234378
aF357.39670909090916
aF340.306
ag2560
aS'utopia'
p2573
aS'#656565'
p2574
aF8.88595
aI0
aI00
aI00
aI00
aI00
aI00
aI00
aI00
aI00
aa(lp2575
I234378
aF362.11945454545463
aF340.306
ag2560
aS'utopia'
p2576
aS'#656565'
p2577
aF8.88595
aI0
aI00
aI00
aI00
aI00
aI00
aI00
aI00
aI00
aa(lp2578
I176767
aF368.948
aF340.306
aVp3
p2579
aS'utopia'
p2580
aS'#656565'
p2581
aF8.88595
aI0
aI01
aI00
aI00
aI00
aI00
aI00
aI00
aI00
aa(lp2582
I234378
aF411.49213999999995
aF340.306
ag2579
aS'utopia'
p2583
aS'#656565'
p2584
aF8.88595
aI0
aI00
aI00
aI00
aI00
aI00
aI00
aI00
aI00
aa(lp2585
I234378
aF416.2192666666666
aF340.306
ag2579
aS'utopia'
p2586
aS'#656565'
p2587
aF8.88595
aI0
aI01
aI00
aI00
aI00
aI00
aI00
aI00
aI00
aa(lp2588
I85218
aF442.257
aF340.306
aVp3
p2589
aS'utopia'
p2590
aS'#656565'
p2591
aF8.88595
aI0
aI00
aI00
aI00
aI00
aI00
aI00
aI00
aI00
aa(lp2592
I17350
aF459.289
aF340.306
aVp3
p2593
aS'utopia'
p2594
aS'#656565'
p2595
aF8.88595
aI0
aI01
aI00
aI00
aI00
aI00
aI00
aI00
aI00
aa(lp2596
I234378
aF479.282
aF340.306
aVp3
p2597
aS'utopia'
p2598
aS'#656565'
p2599
aF8.88595
aI0
aI01
aI00
aI00
aI00
aI00
aI00
aI00
aI00
aa(lp2600
I106895
aF515.8895692307692
aF340.306
ag2597
aS'utopia'
p2601
aS'#656565'
p2602
aF8.88595
aI0
aI01
aI01
aI00
aI00
aI00
aI00
aI00
aI00
aa(lp2603
I210461
aF40.9084
aF354.375
aVp3
p2604
aS'utopia'
p2605
aS'#656565'
p2606
aF8.88595
aI0
aI01
aI00
aI00
aI00
aI00
aI00
aI00
aI00
aa(lp2607
I340
aF65.3448
aF354.375
aVp3
p2608
aS'utopia'
p2609
aS'#656565'
p2610
aF8.88595
aI0
aI01
aI00
aI00
aI00
aI00
aI00
aI00
aI00
aa(lp2611
I234378
aF79.65472000000001
aF354.375
ag2608
aS'utopia'
p2612
aS'#656565'
p2613
aF8.88595
aI0
aI00
aI00
aI00
aI00
aI00
aI00
aI00
aI00
aa(lp2614
I234378
aF87.5597
aF354.375
aVp3
p2615
aS'utopia'
p2616
aS'#656565'
p2617
aF8.88595
aI0
aI00
aI00
aI01
aI01
aI01
aI00
aI00
aI00
aa(lp2618
I176435
aF40.9084
aF368.445
aVp3
p2619
aS'utopia'
p2620
aS'#656565'
p2621
aF8.88595
aI0
aI01
aI00
aI00
aI00
aI00
aI00
aI00
aI00
aa(lp2622
I234378
aF60.9018
aF368.445
aVp3
p2623
aS'utopia'
p2624
aS'#656565'
p2625
aF8.88595
aI0
aI00
aI00
aI00
aI00
aI00
aI00
aI00
aI00
aa(lp2626
I177958
aF67.5663
aF368.445
aVp3
p2627
aS'utopia'
p2628
aS'#656565'
p2629
aF8.88595
aI0
aI01
aI00
aI00
aI00
aI00
aI00
aI00
aI00
aa(lp2630
I234229
aF97.9266
aF368.445
aVp3
p2631
aS'utopia'
p2632
aS'#656565'
p2633
aF8.88595
aI0
aI01
aI00
aI00
aI00
aI00
aI00
aI00
aI00
aa(lp2634
I176435
aF40.9084
aF382.514
aVp3
p2635
aS'utopia'
p2636
aS'#656565'
p2637
aF8.88595
aI0
aI01
aI00
aI00
aI00
aI00
aI00
aI00
aI00
aa(lp2638
I66756
aF60.9018
aF382.514
aVp3
p2639
aS'utopia'
p2640
aS'#656565'
p2641
aF8.88595
aI0
aI01
aI00
aI00
aI00
aI00
aI00
aI00
aI00
aa(lp2642
I234378
aF105.12885833333334
aF382.514
ag2639
aS'utopia'
p2643
aS'#656565'
p2644
aF8.88595
aI0
aI00
aI00
aI00
aI00
aI00
aI00
aI00
aI00
aa(lp2645
I176435
aF113.477
aF382.514
aVp3
p2646
aS'utopia'
p2647
aS'#656565'
p2648
aF8.88595
aI0
aI01
aI00
aI00
aI00
aI00
aI00
aI00
aI00
aa(lp2649
I210461
aF139.394
aF382.514
aVp3
p2650
aS'utopia'
p2651
aS'#656565'
p2652
aF8.88595
aI0
aI01
aI00
aI00
aI00
aI00
aI00
aI00
aI00
aa(lp2653
I175409
aF163.831
aF382.514
aVp3
p2654
aS'utopia'
p2655
aS'#656565'
p2656
aF8.88595
aI0
aI01
aI00
aI00
aI00
aI00
aI00
aI00
aI00
aa(lp2657
I234378
aF182.95753333333332
aF382.514
ag2654
aS'utopia'
p2658
aS'#656565'
p2659
aF8.88595
aI0
aI00
aI00
aI00
aI00
aI00
aI00
aI00
aI00
aa(lp2660
I175409
aF182.73916666666665
aF382.514
ag2654
aS'utopia'
p2661
aS'#656565'
p2662
aF8.88595
aI0
aI01
aI00
aI00
aI00
aI00
aI00
aI00
aI00
aa(lp2663
I89147
aF209.001
aF382.514
aVp3
p2664
aS'utopia'
p2665
aS'#656565'
p2666
aF8.88595
aI0
aI01
aI00
aI00
aI00
aI00
aI00
aI00
aI00
aa(lp2667
I75739
aF254.171
aF382.514
aVp3
p2668
aS'utopia'
p2669
aS'#656565'
p2670
aF8.88595
aI0
aI01
aI00
aI00
aI00
aI00
aI00
aI00
aI00
aa(lp2671
I135639
aF271.203
aF382.514
aVp3
p2672
aS'utopia'
p2673
aS'#656565'
p2674
aF8.88595
aI0
aI00
aI00
aI00
aI00
aI00
aI00
aI00
aI00
aa(lp2675
I177958
aF280.829
aF382.514
aVp3
p2676
aS'utopia'
p2677
aS'#656565'
p2678
aF8.88595
aI0
aI00
aI00
aI00
aI00
aI00
aI00
aI00
aI00
aa(lp2679
I133618
aF311.189
aF382.514
aVp3
p2680
aS'utopia'
p2681
aS'#656565'
p2682
aF8.88595
aI0
aI00
aI00
aI00
aI00
aI00
aI00
aI00
aI00
aa(lp2683
I144690
aF344.512
aF382.514
aVp3
p2684
aS'utopia'
p2685
aS'#656565'
p2686
aF8.88595
aI0
aI00
aI00
aI00
aI00
aI00
aI00
aI00
aI00
aa(lp2687
I113201
aF371.91
aF382.514
aVp3
p2688
aS'utopia'
p2689
aS'#656565'
p2690
aF8.88595
aI0
aI00
aI00
aI00
aI00
aI00
aI00
aI00
aI00
aa(lp2691
I234378
aF396.76277142857145
aF382.514
ag2688
aS'utopia'
p2692
aS'#656565'
p2693
aF8.88595
aI0
aI00
aI00
aI00
aI00
aI00
aI00
aI00
aI00
aa(lp2694
I234378
aF403.011
aF382.514
aVp3
p2695
aS'utopia'
p2696
aS'#656565'
p2697
aF8.88595
aI0
aI00
aI00
aI00
aI00
aI00
aI00
aI00
aI00
aa(lp2698
I234378
aF443.16540000000003
aF382.514
ag2695
aS'utopia'
p2699
aS'#656565'
p2700
aF8.88595
aI0
aI00
aI00
aI00
aI00
aI00
aI00
aI00
aI00
aa(lp2701
I234378
aF448.922
aF382.514
aVp3
p2702
aS'utopia'
p2703
aS'#656565'
p2704
aF8.88595
aI0
aI00
aI00
aI00
aI00
aI00
aI00
aI00
aI00
aa(lp2705
I85218
aF482.984
aF382.514
aVp3
p2706
aS'utopia'
p2707
aS'#656565'
p2708
aF8.88595
aI0
aI00
aI00
aI00
aI00
aI00
aI00
aI00
aI00
aa(lp2709
I234378
aF500.016
aF382.514
aVp3
p2710
aS'utopia'
p2711
aS'#656565'
p2712
aF8.88595
aI0
aI00
aI00
aI00
aI00
aI00
aI00
aI00
aI00
aa(lp2713
I149270
aF40.9084
aF392.881
aVp3
p2714
aS'utopia'
p2715
aS'#656565'
p2716
aF8.88595
aI0
aI00
aI00
aI00
aI00
aI00
aI00
aI00
aI00
aa(lp2717
I234378
aF78.6737
aF392.881
aVp3
p2718
aS'utopia'
p2719
aS'#656565'
p2720
aF8.88595
aI0
aI00
aI00
aI00
aI00
aI00
aI00
aI00
aI00
aa(lp2721
I85218
aF103.851
aF392.881
aVp3
p2722
aS'utopia'
p2723
aS'#656565'
p2724
aF8.88595
aI0
aI00
aI00
aI00
aI00
aI00
aI00
aI00
aI00
aa(lp2725
I234378
aF120.882
aF392.881
aVp3
p2726
aS'utopia'
p2727
aS'#656565'
p2728
aF8.88595
aI0
aI00
aI00
aI00
aI00
aI00
aI00
aI00
aI00
aa(lp2729
I14859
aF157.166
aF392.881
aVp3
p2730
aS'utopia'
p2731
aS'#656565'
p2732
aF8.88595
aI0
aI00
aI00
aI00
aI00
aI00
aI00
aI00
aI00
aa(lp2733
I124676
aF191.229
aF392.881
aVp3
p2734
aS'utopia'
p2735
aS'#656565'
p2736
aF8.88595
aI0
aI00
aI00
aI00
aI00
aI00
aI00
aI00
aI00
aa(lp2737
I25931
aF209.001
aF392.881
aVp3
p2738
aS'utopia'
p2739
aS'#656565'
p2740
aF8.88595
aI0
aI00
aI00
aI00
aI00
aI00
aI00
aI00
aI00
aa(lp2741
I55730
aF232.697
aF392.881
aVp3
p2742
aS'utopia'
p2743
aS'#656565'
p2744
aF8.88595
aI0
aI00
aI00
aI00
aI00
aI00
aI00
aI00
aI00
aa(lp2745
I85218
aF257.874
aF392.881
aVp3
p2746
aS'utopia'
p2747
aS'#656565'
p2748
aF8.88595
aI0
aI00
aI00
aI00
aI00
aI00
aI00
aI00
aI00
aa(lp2749
I177958
aF274.905
aF392.881
aVp3
p2750
aS'utopia'
p2751
aS'#656565'
p2752
aF8.88595
aI0
aI00
aI00
aI00
aI00
aI00
aI00
aI00
aI00
aa(lp2753
I234378
aF305.265
aF392.881
aVp3
p2754
aS'utopia'
p2755
aS'#656565'
p2756
aF8.88595
aI0
aI00
aI00
aI00
aI00
aI00
aI00
aI00
aI00
aa(lp2757
I234378
aF350.4848769230769
aF392.881
ag2754
aS'utopia'
p2758
aS'#656565'
p2759
aF8.88595
aI0
aI00
aI00
aI00
aI00
aI00
aI00
aI00
aI00
aa(lp2760
I234378
aF356.36
aF392.881
aVp3
p2761
aS'utopia'
p2762
aS'#656565'
p2763
aF8.88595
aI0
aI01
aI00
aI00
aI00
aI00
aI00
aI00
aI00
aa(lp2764
I41890
aF395.606
aF392.881
aVp3
p2765
aS'utopia'
p2766
aS'#656565'
p2767
aF8.88595
aI0
aI00
aI00
aI00
aI00
aI00
aI00
aI00
aI00
aa(lp2768
I234378
aF406.713
aF392.881
aVp3
p2769
aS'utopia'
p2770
aS'#656565'
p2771
aF8.88595
aI0
aI00
aI00
aI00
aI00
aI00
aI00
aI00
aI00
aa(lp2772
I144489
aF431.89
aF392.881
aVp3
p2773
aS'utopia'
p2774
aS'#656565'
p2775
aF8.88595
aI0
aI00
aI00
aI00
aI00
aI00
aI00
aI00
aI00
aa(lp2776
I177958
aF442.257
aF392.881
aVp3
p2777
aS'utopia'
p2778
aS'#656565'
p2779
aF8.88595
aI0
aI00
aI00
aI00
aI00
aI00
aI00
aI00
aI00
aa(lp2780
I15166
aF472.618
aF392.881
aVp3
p2781
aS'utopia'
p2782
aS'#656565'
p2783
aF8.88595
aI0
aI00
aI00
aI00
aI00
aI00
aI00
aI00
aI00
aa(lp2784
I231317
aF486.687
aF392.881
aVp3
p2785
aS'utopia'
p2786
aS'#656565'
p2787
aF8.88595
aI0
aI00
aI00
aI00
aI00
aI00
aI00
aI00
aI00
aa(lp2788
I144690
aF514.826
aF392.881
aVp3
p2789
aS'utopia'
p2790
aS'#656565'
p2791
aF8.88595
aI0
aI00
aI00
aI00
aI00
aI00
aI00
aI00
aI00
aa(lp2792
I234378
aF538.4093428571429
aF392.881
ag2789
aS'utopia'
p2793
aS'#656565'
p2794
aF8.88595
aI0
aI00
aI00
aI00
aI00
aI00
aI00
aI00
aI00
aa(lp2795
I82284
aF40.9084
aF403.248
aVp3
p2796
aS'utopia'
p2797
aS'#656565'
p2798
aF8.88595
aI0
aI00
aI00
aI00
aI00
aI00
aI00
aI00
aI00
aa(lp2799
I234378
aF53.2132
aF403.248
ag2796
aS'utopia'
p2800
aS'#656565'
p2801
aF8.88595
aI0
aI00
aI00
aI00
aI00
aI00
aI00
aI00
aI00
aa(lp2802
I177958
aF40.9084
aF417.317
aVp3
p2803
aS'utopia'
p2804
aS'#656565'
p2805
aF8.88595
aI0
aI01
aI00
aI00
aI00
aI00
aI00
aI00
aI00
aa(lp2806
I234378
aF71.2688
aF417.317
aVp3
p2807
aS'utopia'
p2808
aS'#656565'
p2809
aF8.88595
aI0
aI01
aI00
aI00
aI00
aI00
aI00
aI00
aI00
aa(lp2810
I234378
aF96.6393375
aF417.317
ag2807
aS'utopia'
p2811
aS'#656565'
p2812
aF8.88595
aI0
aI00
aI00
aI00
aI00
aI00
aI00
aI00
aI00
aa(lp2813
I194354
aF104.591
aF417.317
aVp3
p2814
aS'utopia'
p2815
aS'#656565'
p2816
aF8.88595
aI0
aI01
aI00
aI00
aI00
aI00
aI00
aI00
aI00
aa(lp2817
I183441
aF121.622
aF417.317
aVp3
p2818
aS'utopia'
p2819
aS'#656565'
p2820
aF8.88595
aI0
aI00
aI00
aI00
aI00
aI00
aI00
aI00
aI00
aa(lp2821
I92750
aF143.837
aF417.317
aVp3
p2822
aS'utopia'
p2823
aS'#656565'
p2824
aF8.88595
aI0
aI00
aI00
aI00
aI00
aI00
aI00
aI00
aI00
aa(lp2825
I144489
aF181.603
aF417.317
aVp3
p2826
aS'utopia'
p2827
aS'#656565'
p2828
aF8.88595
aI0
aI00
aI00
aI00
aI00
aI00
aI00
aI00
aI00
aa(lp2829
I234378
aF191.97
aF417.317
aVp3
p2830
aS'utopia'
p2831
aS'#656565'
p2832
aF8.88595
aI0
aI01
aI01
aI00
aI00
aI00
aI00
aI00
aI00
aa(lp2833
I177958
aF209.001
aF417.317
aVp3
p2834
aS'utopia'
p2835
aS'#656565'
p2836
aF8.88595
aI0
aI00
aI00
aI00
aI00
aI00
aI00
aI00
aI00
aa(lp2837
I22474
aF239.361
aF417.317
aVp3
p2838
aS'utopia'
p2839
aS'#656565'
p2840
aF8.88595
aI0
aI00
aI00
aI00
aI00
aI00
aI00
aI00
aI00
aa(lp2841
I188043
aF247.507
aF417.317
aVp3
p2842
aS'utopia'
p2843
aS'#656565'
p2844
aF8.88595
aI0
aI00
aI00
aI00
aI00
aI00
aI00
aI00
aI00
aa(lp2845
I166593
aF271.203
aF417.317
aVp3
p2846
aS'utopia'
p2847
aS'#656565'
p2848
aF8.88595
aI0
aI00
aI00
aI00
aI00
aI00
aI00
aI00
aI00
aa(lp2849
I120218
aF277.867
aF417.317
aVp3
p2850
aS'utopia'
p2851
aS'#656565'
p2852
aF8.88595
aI0
aI00
aI00
aI00
aI00
aI00
aI00
aI00
aI00
aa(lp2853
I234378
aF317.854
aF417.317
aVp3
p2854
aS'utopia'
p2855
aS'#656565'
p2856
aF8.88595
aI0
aI00
aI00
aI00
aI00
aI00
aI00
aI00
aI00
aa(lp2857
I89480
aF333.404
aF417.317
aVp3
p2858
aS'utopia'
p2859
aS'#656565'
p2860
aF8.88595
aI0
aI00
aI00
aI00
aI00
aI00
aI00
aI00
aI00
aa(lp2861
I98224
aF343.771
aF417.317
aVp3
p2862
aS'utopia'
p2863
aS'#656565'
p2864
aF8.88595
aI0
aI00
aI00
aI00
aI00
aI00
aI00
aI00
aI00
aa(lp2865
I85235
aF375.613
aF417.317
aVp3
p2866
aS'utopia'
p2867
aS'#656565'
p2868
aF8.88595
aI0
aI00
aI00
aI00
aI00
aI00
aI00
aI00
aI00
aa(lp2869
I119502
aF391.903
aF417.317
aVp3
p2870
aS'utopia'
p2871
aS'#656565'
p2872
aF8.88595
aI0
aI00
aI00
aI00
aI00
aI00
aI00
aI00
aI00
aa(lp2873
I144503
aF421.523
aF417.317
aVp3
p2874
aS'utopia'
p2875
aS'#656565'
p2876
aF8.88595
aI0
aI00
aI00
aI00
aI00
aI00
aI00
aI00
aI00
aa(lp2877
I40515
aF432.631
aF417.317
aVp3
p2878
aS'utopia'
p2879
aS'#656565'
p2880
aF8.88595
aI0
aI00
aI00
aI00
aI00
aI00
aI00
aI00
aI00
aa(lp2881
I131049
aF460.029
aF417.317
aVp3
p2882
aS'utopia'
p2883
aS'#656565'
p2884
aF8.88595
aI0
aI00
aI00
aI00
aI00
aI00
aI00
aI00
aI00
aa(lp2885
I194354
aF482.244
aF417.317
aVp3
p2886
aS'utopia'
p2887
aS'#656565'
p2888
aF8.88595
aI0
aI00
aI00
aI00
aI00
aI00
aI00
aI00
aI00
aa(lp2889
I91539
aF497.054
aF417.317
aVp3
p2890
aS'utopia'
p2891
aS'#656565'
p2892
aF8.88595
aI0
aI00
aI00
aI00
aI00
aI00
aI00
aI00
aI00
aa(lp2893
I117724
aF518.528
aF417.317
aVp3
p2894
aS'utopia'
p2895
aS'#656565'
p2896
aF8.88595
aI0
aI00
aI00
aI00
aI00
aI00
aI00
aI00
aI00
aa(lp2897
I113929
aF530.376
aF417.317
aVp3
p2898
aS'utopia'
p2899
aS'#656565'
p2900
aF8.88595
aI0
aI00
aI00
aI00
aI00
aI00
aI00
aI00
aI00
aa(lp2901
I125801
aF40.9084
aF427.684
aVp3
p2902
aS'utopia'
p2903
aS'#656565'
p2904
aF8.88595
aI0
aI00
aI00
aI00
aI00
aI00
aI00
aI00
aI00
aa(lp2905
I206661
aF58.6803
aF427.684
aVp3
p2906
aS'utopia'
p2907
aS'#656565'
p2908
aF8.88595
aI0
aI00
aI00
aI00
aI00
aI00
aI00
aI00
aI00
aa(lp2909
I166593
aF90.5217
aF427.684
aVp3
p2910
aS'utopia'
p2911
aS'#656565'
p2912
aF8.88595
aI0
aI00
aI00
aI00
aI00
aI00
aI00
aI00
aI00
aa(lp2913
I213740
aF97.1861
aF427.684
aVp3
p2914
aS'utopia'
p2915
aS'#656565'
p2916
aF8.88595
aI0
aI00
aI00
aI00
aI00
aI00
aI00
aI00
aI00
aa(lp2917
I164851
aF111.256
aF427.684
aVp3
p2918
aS'utopia'
p2919
aS'#656565'
p2920
aF8.88595
aI0
aI00
aI00
aI00
aI00
aI00
aI00
aI00
aI00
aa(lp2921
I98224
aF135.692
aF427.684
aVp3
p2922
aS'utopia'
p2923
aS'#656565'
p2924
aF8.88595
aI0
aI00
aI00
aI00
aI00
aI00
aI00
aI00
aI00
aa(lp2925
I184870
aF167.533
aF427.684
aVp3
p2926
aS'utopia'
p2927
aS'#656565'
p2928
aF8.88595
aI0
aI00
aI00
aI00
aI00
aI00
aI00
aI00
aI00
aa(lp2929
I52532
aF201.596
aF427.684
aVp3
p2930
aS'utopia'
p2931
aS'#656565'
p2932
aF8.88595
aI0
aI00
aI00
aI00
aI00
aI00
aI00
aI00
aI00
aa(lp2933
I173351
aF237.88
aF427.684
aVp3
p2934
aS'utopia'
p2935
aS'#656565'
p2936
aF8.88595
aI0
aI00
aI00
aI00
aI00
aI00
aI00
aI00
aI00
aa(lp2937
I10716
aF259.355
aF427.684
aVp3
p2938
aS'utopia'
p2939
aS'#656565'
p2940
aF8.88595
aI0
aI00
aI00
aI00
aI00
aI00
aI00
aI00
aI00
aa(lp2941
I89958
aF274.905
aF427.684
aVp3
p2942
aS'utopia'
p2943
aS'#656565'
p2944
aF8.88595
aI0
aI00
aI00
aI00
aI00
aI00
aI00
aI00
aI00
aa(lp2945
I234378
aF308.227
aF427.684
aVp3
p2946
aS'utopia'
p2947
aS'#656565'
p2948
aF8.88595
aI0
aI00
aI00
aI00
aI00
aI00
aI00
aI00
aI00
aa(lp2949
I144503
aF334.885
aF427.684
aVp3
p2950
aS'utopia'
p2951
aS'#656565'
p2952
aF8.88595
aI0
aI00
aI00
aI00
aI00
aI00
aI00
aI00
aI00
aa(lp2953
I192651
aF345.993
aF427.684
aVp3
p2954
aS'utopia'
p2955
aS'#656565'
p2956
aF8.88595
aI0
aI00
aI00
aI00
aI00
aI00
aI00
aI00
aI00
aa(lp2957
I113173
aF357.841
aF427.684
aVp3
p2958
aS'utopia'
p2959
aS'#656565'
p2960
aF8.88595
aI0
aI00
aI00
aI00
aI00
aI00
aI00
aI00
aI00
aa(lp2961
I120218
aF385.239
aF427.684
aVp3
p2962
aS'utopia'
p2963
aS'#656565'
p2964
aF8.88595
aI0
aI00
aI00
aI00
aI00
aI00
aI00
aI00
aI00
aa(lp2965
I33871
aF425.226
aF427.684
aVp3
p2966
aS'utopia'
p2967
aS'#656565'
p2968
aF8.88595
aI0
aI00
aI00
aI00
aI00
aI00
aI00
aI00
aI00
aa(lp2969
I119502
aF444.479
aF427.684
aVp3
p2970
aS'utopia'
p2971
aS'#656565'
p2972
aF8.88595
aI0
aI00
aI00
aI00
aI00
aI00
aI00
aI00
aI00
aa(lp2973
I234378
aF474.099
aF427.684
aVp3
p2974
aS'utopia'
p2975
aS'#656565'
p2976
aF8.88595
aI0
aI00
aI00
aI00
aI00
aI00
aI00
aI00
aI00
aa(lp2977
I234378
aF484.73767499999997
aF427.684
ag2974
aS'utopia'
p2978
aS'#656565'
p2979
aF8.88595
aI0
aI00
aI00
aI00
aI00
aI00
aI00
aI00
aI00
aa(lp2980
I194354
aF490.389
aF427.684
aVp3
p2981
aS'utopia'
p2982
aS'#656565'
p2983
aF8.88595
aI0
aI01
aI00
aI00
aI00
aI00
aI00
aI00
aI00
aa(lp2984
I169406
aF507.421
aF427.684
aVp3
p2985
aS'utopia'
p2986
aS'#656565'
p2987
aF8.88595
aI0
aI00
aI00
aI00
aI00
aI00
aI00
aI00
aI00
aa(lp2988
I77936
aF40.9084
aF438.051
aVp3
p2989
aS'utopia'
p2990
aS'#656565'
p2991
aF8.88595
aI0
aI00
aI00
aI00
aI00
aI00
aI00
aI00
aI00
aa(lp2992
I144489
aF78.6737
aF438.051
aVp3
p2993
aS'utopia'
p2994
aS'#656565'
p2995
aF8.88595
aI0
aI00
aI00
aI00
aI00
aI00
aI00
aI00
aI00
aa(lp2996
I194354
aF89.0407
aF438.051
aVp3
p2997
aS'utopia'
p2998
aS'#656565'
p2999
aF8.88595
aI0
aI00
aI00
aI00
aI00
aI00
aI00
aI00
aI00
aa(lp3000
I234378
aF103.851
aF438.051
aVp3
p3001
aS'utopia'
p3002
aS'#656565'
p3003
aF8.88595
aI0
aI01
aI01
aI00
aI00
aI00
aI00
aI00
aI00
aa(lp3004
I177958
aF151.242
aF438.051
aVp3
p3005
aS'utopia'
p3006
aS'#656565'
p3007
aF8.88595
aI0
aI00
aI00
aI00
aI00
aI00
aI00
aI00
aI00
aa(lp3008
I22474
aF181.603
aF438.051
aVp3
p3009
aS'utopia'
p3010
aS'#656565'
p3011
aF8.88595
aI0
aI00
aI00
aI00
aI00
aI00
aI00
aI00
aI00
aa(lp3012
I89480
aF189.748
aF438.051
aVp3
p3013
aS'utopia'
p3014
aS'#656565'
p3015
aF8.88595
aI0
aI00
aI00
aI00
aI00
aI00
aI00
aI00
aI00
aa(lp3016
I79698
aF200.115
aF438.051
aVp3
p3017
aS'utopia'
p3018
aS'#656565'
p3019
aF8.88595
aI0
aI00
aI00
aI00
aI00
aI00
aI00
aI00
aI00
aa(lp3020
I15429
aF220.849
aF438.051
aVp3
p3021
aS'utopia'
p3022
aS'#656565'
p3023
aF8.88595
aI0
aI00
aI00
aI00
aI00
aI00
aI00
aI00
aI00
aa(lp3024
I234378
aF233.437
aF438.051
aVp3
p3025
aS'utopia'
p3026
aS'#656565'
p3027
aF8.88595
aI0
aI01
aI01
aI00
aI00
aI00
aI00
aI00
aI00
aa(lp3028
I120218
aF250.469
aF438.051
aVp3
p3029
aS'utopia'
p3030
aS'#656565'
p3031
aF8.88595
aI0
aI00
aI00
aI00
aI00
aI00
aI00
aI00
aI00
aa(lp3032
I234378
aF290.456
aF438.051
aVp3
p3033
aS'utopia'
p3034
aS'#656565'
p3035
aF8.88595
aI0
aI00
aI00
aI00
aI00
aI00
aI00
aI00
aI00
aa(lp3036
I85218
aF326.74
aF438.051
aVp3
p3037
aS'utopia'
p3038
aS'#656565'
p3039
aF8.88595
aI0
aI00
aI00
aI00
aI00
aI00
aI00
aI00
aI00
aa(lp3040
I234378
aF343.771
aF438.051
aVp3
p3041
aS'utopia'
p3042
aS'#656565'
p3043
aF8.88595
aI0
aI00
aI00
aI00
aI00
aI00
aI00
aI00
aI00
aa(lp3044
I89480
aF391.163
aF438.051
aVp3
p3045
aS'utopia'
p3046
aS'#656565'
p3047
aF8.88595
aI0
aI00
aI00
aI00
aI00
aI00
aI00
aI00
aI00
aa(lp3048
I11076
aF401.53
aF438.051
aVp3
p3049
aS'utopia'
p3050
aS'#656565'
p3051
aF8.88595
aI0
aI00
aI00
aI00
aI00
aI00
aI00
aI00
aI00
aa(lp3052
I80364
aF429.669
aF438.051
aVp3
p3053
aS'utopia'
p3054
aS'#656565'
p3055
aF8.88595
aI0
aI00
aI00
aI00
aI00
aI00
aI00
aI00
aI00
aa(lp3056
I234378
aF448.181
aF438.051
aVp3
p3057
aS'utopia'
p3058
aS'#656565'
p3059
aF8.88595
aI0
aI01
aI01
aI00
aI00
aI00
aI00
aI00
aI00
aa(lp3060
I234378
aF465.213
aF438.051
aVp3
p3061
aS'utopia'
p3062
aS'#656565'
p3063
aF8.88595
aI0
aI00
aI00
aI00
aI00
aI00
aI00
aI00
aI00
aa(lp3064
I234378
aF505.7739230769231
aF438.051
ag3061
aS'utopia'
p3065
aS'#656565'
p3066
aF8.88595
aI0
aI00
aI00
aI00
aI00
aI00
aI00
aI00
aI00
aa(lp3067
I194354
aF510.28069230769233
aF438.051
ag3061
aS'utopia'
p3068
aS'#656565'
p3069
aF8.88595
aI0
aI01
aI00
aI00
aI00
aI00
aI00
aI00
aI00
aa(lp3070
I98224
aF40.9084
aF448.418
aVp3
p3071
aS'utopia'
p3072
aS'#656565'
p3073
aF8.88595
aI0
aI00
aI00
aI00
aI00
aI00
aI00
aI00
aI00
aa(lp3074
I22474
aF72.7498
aF448.418
aVp3
p3075
aS'utopia'
p3076
aS'#656565'
p3077
aF8.88595
aI0
aI00
aI00
aI00
aI00
aI00
aI00
aI00
aI00
aa(lp3078
I234378
aF80.8952
aF448.418
aVp3
p3079
aS'utopia'
p3080
aS'#656565'
p3081
aF8.88595
aI0
aI00
aI00
aI00
aI00
aI00
aI00
aI00
aI00
aa(lp3082
I85218
aF123.103
aF448.418
aVp3
p3083
aS'utopia'
p3084
aS'#656565'
p3085
aF8.88595
aI0
aI00
aI00
aI00
aI00
aI00
aI00
aI00
aI00
aa(lp3086
I194354
aF140.135
aF448.418
aVp3
p3087
aS'utopia'
p3088
aS'#656565'
p3089
aF8.88595
aI0
aI00
aI00
aI00
aI00
aI00
aI00
aI00
aI00
aa(lp3090
I40515
aF154.945
aF448.418
aVp3
p3091
aS'utopia'
p3092
aS'#656565'
p3093
aF8.88595
aI0
aI00
aI00
aI00
aI00
aI00
aI00
aI00
aI00
aa(lp3094
I22474
aF182.343
aF448.418
aVp3
p3095
aS'utopia'
p3096
aS'#656565'
p3097
aF8.88595
aI0
aI00
aI00
aI00
aI00
aI00
aI00
aI00
aI00
aa(lp3098
I234378
aF190.489
aF448.418
aVp3
p3099
aS'utopia'
p3100
aS'#656565'
p3101
aF8.88595
aI0
aI00
aI00
aI00
aI00
aI00
aI00
aI00
aI00
aa(lp3102
I135639
aF217.887
aF448.418
aVp3
p3103
aS'utopia'
p3104
aS'#656565'
p3105
aF8.88595
aI0
aI00
aI00
aI00
aI00
aI00
aI00
aI00
aI00
aa(lp3106
I179573
aF227.513
aF448.418
aVp3
p3107
aS'utopia'
p3108
aS'#656565'
p3109
aF8.88595
aI0
aI01
aI00
aI00
aI00
aI00
aI00
aI00
aI00
aa(lp3110
I209062
aF269.722
aF448.418
aVp3
p3111
aS'utopia'
p3112
aS'#656565'
p3113
aF8.88595
aI0
aI01
aI00
aI00
aI00
aI00
aI00
aI00
aI00
aa(lp3114
I85663
aF288.975
aF448.418
aVp3
p3115
aS'utopia'
p3116
aS'#656565'
p3117
aF8.88595
aI0
aI01
aI00
aI00
aI00
aI00
aI00
aI00
aI00
aa(lp3118
I234378
aF317.113
aF448.418
aVp3
p3119
aS'utopia'
p3120
aS'#656565'
p3121
aF8.88595
aI0
aI00
aI00
aI00
aI00
aI00
aI00
aI00
aI00
aa(lp3122
I234378
aF321.87646
aF448.418
ag3119
aS'utopia'
p3123
aS'#656565'
p3124
aF8.88595
aI0
aI01
aI01
aI00
aI00
aI00
aI00
aI00
aI00
aa(lp3125
I234378
aF336.16684000000004
aF448.418
ag3119
aS'utopia'
p3126
aS'#656565'
p3127
aF8.88595
aI0
aI00
aI00
aI00
aI00
aI00
aI00
aI00
aI00
aa(lp3128
I218914
aF343.031
aF448.418
aVp3
p3129
aS'utopia'
p3130
aS'#656565'
p3131
aF8.88595
aI0
aI00
aI00
aI00
aI00
aI00
aI00
aI00
aI00
aa(lp3132
I33705
aF368.948
aF448.418
aVp3
p3133
aS'utopia'
p3134
aS'#656565'
p3135
aF8.88595
aI0
aI00
aI00
aI00
aI00
aI00
aI00
aI00
aI00
aa(lp3136
I192638
aF385.239
aF448.418
aVp3
p3137
aS'utopia'
p3138
aS'#656565'
p3139
aF8.88595
aI0
aI00
aI00
aI00
aI00
aI00
aI00
aI00
aI00
aa(lp3140
I183670
aF397.087
aF448.418
aVp3
p3141
aS'utopia'
p3142
aS'#656565'
p3143
aF8.88595
aI0
aI00
aI00
aI00
aI00
aI00
aI00
aI00
aI00
aa(lp3144
I89480
aF415.599
aF448.418
aVp3
p3145
aS'utopia'
p3146
aS'#656565'
p3147
aF8.88595
aI0
aI00
aI00
aI00
aI00
aI00
aI00
aI00
aI00
aa(lp3148
I194354
aF425.966
aF448.418
aVp3
p3149
aS'utopia'
p3150
aS'#656565'
p3151
aF8.88595
aI0
aI00
aI00
aI00
aI00
aI00
aI00
aI00
aI00
aa(lp3152
I120218
aF440.776
aF448.418
aVp3
p3153
aS'utopia'
p3154
aS'#656565'
p3155
aF8.88595
aI0
aI00
aI00
aI00
aI00
aI00
aI00
aI00
aI00
aa(lp3156
I144503
aF480.763
aF448.418
aVp3
p3157
aS'utopia'
p3158
aS'#656565'
p3159
aF8.88595
aI0
aI00
aI00
aI00
aI00
aI00
aI00
aI00
aI00
aa(lp3160
I234378
aF491.87
aF448.418
aVp3
p3161
aS'utopia'
p3162
aS'#656565'
p3163
aF8.88595
aI0
aI00
aI00
aI00
aI00
aI00
aI00
aI00
aI00
aa(lp3164
I234378
aF528.895
aF448.418
aVp3
p3165
aS'utopia'
p3166
aS'#656565'
p3167
aF8.88595
aI0
aI00
aI00
aI00
aI00
aI00
aI00
aI00
aI00
aa(lp3168
I234378
aF40.9084
aF458.785
aVp3
p3169
aS'utopia'
p3170
aS'#656565'
p3171
aF8.88595
aI0
aI00
aI00
aI00
aI00
aI00
aI00
aI00
aI00
aa(lp3172
I192651
aF78.6737
aF458.785
aVp3
p3173
aS'utopia'
p3174
aS'#656565'
p3175
aF8.88595
aI0
aI00
aI00
aI00
aI00
aI00
aI00
aI00
aI00
aa(lp3176
I194354
aF90.5217
aF458.785
aVp3
p3177
aS'utopia'
p3178
aS'#656565'
p3179
aF8.88595
aI0
aI00
aI00
aI00
aI00
aI00
aI00
aI00
aI00
aa(lp3180
I120218
aF105.332
aF458.785
aVp3
p3181
aS'utopia'
p3182
aS'#656565'
p3183
aF8.88595
aI0
aI00
aI00
aI00
aI00
aI00
aI00
aI00
aI00
aa(lp3184
I234378
aF140.97848888888888
aF458.785
ag3181
aS'utopia'
p3185
aS'#656565'
p3186
aF8.88595
aI0
aI00
aI00
aI00
aI00
aI00
aI00
aI00
aI00
aa(lp3187
I131675
aF40.9084
aF495.703
aVp3
p3188
aS'utopia'
p3189
aS'#000000'
p3190
aF10.3669
aI1
aI01
aI00
aI00
aI00
aI00
aI00
aI00
aI00
aa(lp3191
I207716
aF83.1167
aF495.703
aVp3
p3192
aS'utopia'
p3193
aS'#000000'
p3194
aF10.3669
aI1
aI01
aI00
aI00
aI00
aI00
aI00
aI00
aI00
aa(lp3195
I234378
aF117.9452
aF495.703
ag3192
aS'utopia'
p3196
aS'#000000'
p3197
aF10.3669
aI1
aI00
aI00
aI00
aI00
aI00
aI00
aI00
aI00
aa(lp3198
I234378
aF123.74995
aF495.703
ag3192
aS'utopia'
p3199
aS'#000000'
p3200
aF10.3669
aI1
aI01
aI01
aI00
aI00
aI00
aI00
aI00
aI00
aa(lp3201
I234378
aF146.96895
aF495.703
ag3192
aS'utopia'
p3202
aS'#000000'
p3203
aF10.3669
aI1
aI00
aI00
aI00
aI00
aI00
aI00
aI00
aI00
aa(lp3204
I89347
aF154.945
aF495.703
aVp3
p3205
aS'utopia'
p3206
aS'#000000'
p3207
aF10.3669
aI1
aI01
aI00
aI00
aI00
aI00
aI00
aI00
aI00
aa(lp3208
I119502
aF202.337
aF495.703
aVp3
p3209
aS'utopia'
p3210
aS'#000000'
p3211
aF10.3669
aI1
aI01
aI00
aI00
aI00
aI00
aI00
aI00
aI00
aa(lp3212
I38691
aF238.621
aF495.703
aVp3
p3213
aS'utopia'
p3214
aS'#000000'
p3215
aF10.3669
aI1
aI01
aI00
aI00
aI00
aI00
aI00
aI00
aI00
aa(lp3216
I123665
aF271.203
aF495.703
aVp3
p3217
aS'utopia'
p3218
aS'#000000'
p3219
aF10.3669
aI1
aI01
aI00
aI00
aI00
aI00
aI00
aI00
aI00
aa(lp3220
I234378
aF40.9084
aF512.264
aVp3
p3221
aS'utopia'
p3222
aS'#656565'
p3223
aF10.3669
aI0
aI01
aI01
aI00
aI00
aI00
aI00
aI00
aI00
aa(lp3224
I91539
aF64.6043
aF512.264
aVp3
p3225
aS'utopia'
p3226
aS'#656565'
p3227
aF10.3669
aI0
aI01
aI00
aI00
aI00
aI00
aI00
aI00
aI00
aa(lp3228
I234378
aF87.13685
aF512.264
ag3225
aS'utopia'
p3229
aS'#656565'
p3230
aF10.3669
aI0
aI00
aI00
aI00
aI00
aI00
aI00
aI00
aI00
aa(lp3231
I31679
aF92.7699875
aF512.264
ag3225
aS'utopia'
p3232
aS'#656565'
p3233
aF10.3669
aI0
aI01
aI01
aI00
aI00
aI00
aI00
aI00
aI00
aa(lp3234
I234378
aF104.03626249999999
aF512.264
ag3225
aS'utopia'
p3235
aS'#656565'
p3236
aF10.3669
aI0
aI00
aI00
aI00
aI00
aI00
aI00
aI00
aI00
aa(lp3237
I234378
aF116.439
aF512.264
aVp3
p3238
aS'utopia'
p3239
aS'#656565'
p3240
aF10.3669
aI0
aI01
aI00
aI00
aI00
aI00
aI00
aI00
aI00
aa(lp3241
I60201
aF153.464
aF512.264
aVp3
p3242
aS'utopia'
p3243
aS'#656565'
p3244
aF10.3669
aI0
aI01
aI00
aI00
aI00
aI00
aI00
aI00
aI00
aa(lp3245
I230071
aF173.457
aF512.264
aVp3
p3246
aS'utopia'
p3247
aS'#656565'
p3248
aF10.3669
aI0
aI01
aI00
aI00
aI00
aI00
aI00
aI00
aI00
aa(lp3249
I131049
aF204.558
aF512.264
aVp3
p3250
aS'utopia'
p3251
aS'#656565'
p3252
aF10.3669
aI0
aI00
aI00
aI00
aI00
aI00
aI00
aI00
aI00
aa(lp3253
I234378
aF228.994
aF512.264
aVp3
p3254
aS'utopia'
p3255
aS'#656565'
p3256
aF10.3669
aI0
aI01
aI00
aI00
aI00
aI00
aI00
aI00
aI01
aa(lp3257
I234378
aF243.804
aF512.264
aVp3
p3258
aS'utopia'
p3259
aS'#656565'
p3260
aF10.3669
aI0
aI00
aI00
aI01
aI01
aI01
aI00
aI00
aI00
aa(lp3261
I89480
aF266.76
aF512.264
aVp3
p3262
aS'utopia'
p3263
aS'#656565'
p3264
aF10.3669
aI0
aI00
aI00
aI00
aI00
aI00
aI00
aI00
aI00
aa(lp3265
I234378
aF278.608
aF512.264
aVp3
p3266
aS'utopia'
p3267
aS'#656565'
p3268
aF10.3669
aI0
aI01
aI00
aI00
aI00
aI00
aI00
aI00
aI01
aa(lp3269
I234378
aF297.86
aF512.264
aVp3
p3270
aS'utopia'
p3271
aS'#656565'
p3272
aF10.3669
aI0
aI00
aI00
aI01
aI01
aI01
aI00
aI00
aI00
aa(lp3273
I234378
aF40.9084
aF528.555
aVp3
p3274
aS'utopia'
p3275
aS'#656565'
p3276
aF10.3669
aI0
aI01
aI00
aI00
aI00
aI00
aI00
aI00
aI00
aa(lp3277
I109610
aF40.9084
aF544.683
aVp3
p3278
aS'utopia'
p3279
aS'#656565'
p3280
aF8.88595
aI0
aI01
aI00
aI00
aI00
aI00
aI00
aI00
aI00
aa(lp3281
I25729
aF58.6803
aF544.683
aVp3
p3282
aS'utopia'
p3283
aS'#656565'
p3284
aF8.88595
aI0
aI01
aI00
aI00
aI00
aI00
aI00
aI00
aI00
aa(lp3285
I234378
aF76.54462000000001
aF544.683
ag3282
aS'utopia'
p3286
aS'#656565'
p3287
aF8.88595
aI0
aI00
aI00
aI00
aI00
aI00
aI00
aI00
aI00
aa(lp3288
I84662
aF85.3382
aF544.683
aVp3
p3289
aS'utopia'
p3290
aS'#656565'
p3291
aF8.88595
aI0
aI01
aI00
aI00
aI00
aI00
aI00
aI00
aI00
aa(lp3292
I21716
aF106.813
aF544.683
aVp3
p3293
aS'utopia'
p3294
aS'#656565'
p3295
aF8.88595
aI0
aI01
aI00
aI00
aI00
aI00
aI00
aI00
aI00
aa(lp3296
I171173
aF123.3923
aF544.683
ag3293
aS'utopia'
p3297
aS'#656565'
p3298
aF8.88595
aI0
aI01
aI00
aI00
aI00
aI00
aI00
aI00
aI00
aa(lp3299
I234378
aF162.34055
aF544.683
ag3293
aS'utopia'
p3300
aS'#656565'
p3301
aF8.88595
aI0
aI00
aI00
aI00
aI00
aI00
aI00
aI00
aI00
aa(lp3302
I234378
aF171.236
aF544.683
aVp3
p3303
aS'utopia'
p3304
aS'#656565'
p3305
aF8.88595
aI0
aI01
aI00
aI00
aI00
aI00
aI00
aI00
aI00
aa(lp3306
I234378
aF228.01645333333332
aF544.683
ag3303
aS'utopia'
p3307
aS'#656565'
p3308
aF8.88595
aI0
aI00
aI00
aI00
aI00
aI00
aI00
aI00
aI00
aa(lp3309
I234378
aF234.178
aF544.683
aVp3
p3310
aS'utopia'
p3311
aS'#656565'
p3312
aF8.88595
aI0
aI01
aI00
aI00
aI00
aI00
aI00
aI00
aI00
aa(lp3313
I148996
aF281.4337058823529
aF544.683
ag3310
aS'utopia'
p3314
aS'#656565'
p3315
aF8.88595
aI0
aI01
aI00
aI00
aI00
aI00
aI00
aI00
aI00
aa(lp3316
I234378
aF314.892
aF544.683
aVp3
p3317
aS'utopia'
p3318
aS'#656565'
p3319
aF8.88595
aI0
aI00
aI00
aI00
aI00
aI00
aI00
aI00
aI00
aa(lp3320
I84662
aF319.61474545454547
aF544.683
ag3317
aS'utopia'
p3321
aS'#656565'
p3322
aF8.88595
aI0
aI01
aI00
aI00
aI00
aI00
aI00
aI00
aI00
aa(lp3323
I234378
aF338.5057272727273
aF544.683
ag3317
aS'utopia'
p3324
aS'#656565'
p3325
aF8.88595
aI0
aI00
aI00
aI00
aI00
aI00
aI00
aI00
aI00
aa(lp3326
I234378
aF343.2284727272728
aF544.683
ag3317
aS'utopia'
p3327
aS'#656565'
p3328
aF8.88595
aI0
aI01
aI01
aI00
aI00
aI00
aI00
aI00
aI00
aa(lp3329
I234378
aF357.39670909090916
aF544.683
ag3317
aS'utopia'
p3330
aS'#656565'
p3331
aF8.88595
aI0
aI00
aI00
aI00
aI00
aI00
aI00
aI00
aI00
aa(lp3332
I234378
aF362.11945454545463
aF544.683
ag3317
aS'utopia'
p3333
aS'#656565'
p3334
aF8.88595
aI0
aI00
aI00
aI00
aI00
aI00
aI00
aI00
aI00
aa(lp3335
I176767
aF368.948
aF544.683
aVp3
p3336
aS'utopia'
p3337
aS'#656565'
p3338
aF8.88595
aI0
aI01
aI00
aI00
aI00
aI00
aI00
aI00
aI00
aa(lp3339
I234378
aF407.03941999999995
aF544.683
ag3336
aS'utopia'
p3340
aS'#656565'
p3341
aF8.88595
aI0
aI00
aI00
aI00
aI00
aI00
aI00
aI00
aI00
aa(lp3342
I234378
aF413.378
aF544.683
aVp3
p3343
aS'utopia'
p3344
aS'#656565'
p3345
aF8.88595
aI0
aI01
aI00
aI00
aI00
aI00
aI00
aI00
aI00
aa(lp3346
I85218
aF444.479
aF544.683
aVp3
p3347
aS'utopia'
p3348
aS'#656565'
p3349
aF8.88595
aI0
aI00
aI00
aI00
aI00
aI00
aI00
aI00
aI00
aa(lp3350
I17350
aF461.51
aF544.683
aVp3
p3351
aS'utopia'
p3352
aS'#656565'
p3353
aF8.88595
aI0
aI01
aI00
aI00
aI00
aI00
aI00
aI00
aI00
aa(lp3354
I234378
aF481.503
aF544.683
aVp3
p3355
aS'utopia'
p3356
aS'#656565'
p3357
aF8.88595
aI0
aI01
aI00
aI00
aI00
aI00
aI00
aI00
aI00
aa(lp3358
I106895
aF518.1105692307692
aF544.683
ag3355
aS'utopia'
p3359
aS'#656565'
p3360
aF8.88595
aI0
aI01
aI01
aI00
aI00
aI00
aI00
aI00
aI00
aa(lp3361
I210461
aF40.9084
aF558.752
aVp3
p3362
aS'utopia'
p3363
aS'#656565'
p3364
aF8.88595
aI0
aI01
aI00
aI00
aI00
aI00
aI00
aI00
aI00
aa(lp3365
I340
aF65.3448
aF558.752
aVp3
p3366
aS'utopia'
p3367
aS'#656565'
p3368
aF8.88595
aI0
aI01
aI00
aI00
aI00
aI00
aI00
aI00
aI00
aa(lp3369
I234378
aF79.65472000000001
aF558.752
ag3366
aS'utopia'
p3370
aS'#656565'
p3371
aF8.88595
aI0
aI00
aI00
aI00
aI00
aI00
aI00
aI00
aI00
aa(lp3372
I234378
aF87.5597
aF558.752
aVp3
p3373
aS'utopia'
p3374
aS'#656565'
p3375
aF8.88595
aI0
aI00
aI00
aI01
aI01
aI01
aI00
aI00
aI00
aa(lp3376
I176435
aF40.9084
aF572.821
aVp3
p3377
aS'utopia'
p3378
aS'#656565'
p3379
aF8.88595
aI0
aI01
aI00
aI00
aI00
aI00
aI00
aI00
aI00
aa(lp3380
I234378
aF60.9018
aF572.821
aVp3
p3381
aS'utopia'
p3382
aS'#656565'
p3383
aF8.88595
aI0
aI00
aI00
aI00
aI00
aI00
aI00
aI00
aI00
aa(lp3384
I43275
aF67.5663
aF572.821
aVp3
p3385
aS'utopia'
p3386
aS'#656565'
p3387
aF8.88595
aI0
aI01
aI00
aI00
aI00
aI00
aI00
aI00
aI00
aa(lp3388
I234229
aF100.148
aF572.821
aVp3
p3389
aS'utopia'
p3390
aS'#656565'
p3391
aF8.88595
aI0
aI01
aI00
aI00
aI00
aI00
aI00
aI00
aI00
aa(lp3392
I176435
aF40.9084
aF586.891
aVp3
p3393
aS'utopia'
p3394
aS'#656565'
p3395
aF8.88595
aI0
aI01
aI00
aI00
aI00
aI00
aI00
aI00
aI00
aa(lp3396
I66756
aF60.9018
aF586.891
aVp3
p3397
aS'utopia'
p3398
aS'#656565'
p3399
aF8.88595
aI0
aI01
aI00
aI00
aI00
aI00
aI00
aI00
aI00
aa(lp3400
I234378
aF105.12885833333334
aF586.891
ag3397
aS'utopia'
p3401
aS'#656565'
p3402
aF8.88595
aI0
aI00
aI00
aI00
aI00
aI00
aI00
aI00
aI00
aa(lp3403
I75739
aF113.477
aF586.891
aVp3
p3404
aS'utopia'
p3405
aS'#656565'
p3406
aF8.88595
aI0
aI01
aI00
aI00
aI00
aI00
aI00
aI00
aI00
aa(lp3407
I135639
aF130.508
aF586.891
aVp3
p3408
aS'utopia'
p3409
aS'#656565'
p3410
aF8.88595
aI0
aI00
aI00
aI00
aI00
aI00
aI00
aI00
aI00
aa(lp3411
I177958
aF140.135
aF586.891
aVp3
p3412
aS'utopia'
p3413
aS'#656565'
p3414
aF8.88595
aI0
aI00
aI00
aI00
aI00
aI00
aI00
aI00
aI00
aa(lp3415
I133618
aF170.495
aF586.891
aVp3
p3416
aS'utopia'
p3417
aS'#656565'
p3418
aF8.88595
aI0
aI00
aI00
aI00
aI00
aI00
aI00
aI00
aI00
aa(lp3419
I144690
aF203.818
aF586.891
aVp3
p3420
aS'utopia'
p3421
aS'#656565'
p3422
aF8.88595
aI0
aI00
aI00
aI00
aI00
aI00
aI00
aI00
aI00
aa(lp3423
I113201
aF231.216
aF586.891
aVp3
p3424
aS'utopia'
p3425
aS'#656565'
p3426
aF8.88595
aI0
aI00
aI00
aI00
aI00
aI00
aI00
aI00
aI00
aa(lp3427
I234378
aF256.06877142857144
aF586.891
ag3424
aS'utopia'
p3428
aS'#656565'
p3429
aF8.88595
aI0
aI00
aI00
aI00
aI00
aI00
aI00
aI00
aI00
aa(lp3430
I234378
aF262.317
aF586.891
aVp3
p3431
aS'utopia'
p3432
aS'#656565'
p3433
aF8.88595
aI0
aI00
aI00
aI00
aI00
aI00
aI00
aI00
aI00
aa(lp3434
I234378
aF302.4714
aF586.891
ag3431
aS'utopia'
p3435
aS'#656565'
p3436
aF8.88595
aI0
aI00
aI00
aI00
aI00
aI00
aI00
aI00
aI00
aa(lp3437
I234378
aF308.227
aF586.891
aVp3
p3438
aS'utopia'
p3439
aS'#656565'
p3440
aF8.88595
aI0
aI00
aI00
aI00
aI00
aI00
aI00
aI00
aI00
aa(lp3441
I85218
aF342.29
aF586.891
aVp3
p3442
aS'utopia'
p3443
aS'#656565'
p3444
aF8.88595
aI0
aI00
aI00
aI00
aI00
aI00
aI00
aI00
aI00
aa(lp3445
I234378
aF359.322
aF586.891
aVp3
p3446
aS'utopia'
p3447
aS'#656565'
p3448
aF8.88595
aI0
aI00
aI00
aI00
aI00
aI00
aI00
aI00
aI00
aa(lp3449
I149270
aF397.087
aF586.891
aVp3
p3450
aS'utopia'
p3451
aS'#656565'
p3452
aF8.88595
aI0
aI00
aI00
aI00
aI00
aI00
aI00
aI00
aI00
aa(lp3453
I234378
aF434.852
aF586.891
aVp3
p3454
aS'utopia'
p3455
aS'#656565'
p3456
aF8.88595
aI0
aI00
aI00
aI00
aI00
aI00
aI00
aI00
aI00
aa(lp3457
I85218
aF460.029
aF586.891
aVp3
p3458
aS'utopia'
p3459
aS'#656565'
p3460
aF8.88595
aI0
aI00
aI00
aI00
aI00
aI00
aI00
aI00
aI00
aa(lp3461
I234378
aF477.06
aF586.891
aVp3
p3462
aS'utopia'
p3463
aS'#656565'
p3464
aF8.88595
aI0
aI00
aI00
aI00
aI00
aI00
aI00
aI00
aI00
aa(lp3465
I14859
aF513.345
aF586.891
aVp3
p3466
aS'utopia'
p3467
aS'#656565'
p3468
aF8.88595
aI0
aI00
aI00
aI00
aI00
aI00
aI00
aI00
aI00
aa(lp3469
I124676
aF40.9084
aF597.258
aVp3
p3470
aS'utopia'
p3471
aS'#656565'
p3472
aF8.88595
aI0
aI00
aI00
aI00
aI00
aI00
aI00
aI00
aI00
aa(lp3473
I25931
aF58.6803
aF597.258
aVp3
p3474
aS'utopia'
p3475
aS'#656565'
p3476
aF8.88595
aI0
aI00
aI00
aI00
aI00
aI00
aI00
aI00
aI00
aa(lp3477
I55730
aF82.3762
aF597.258
aVp3
p3478
aS'utopia'
p3479
aS'#656565'
p3480
aF8.88595
aI0
aI00
aI00
aI00
aI00
aI00
aI00
aI00
aI00
aa(lp3481
I85218
aF107.553
aF597.258
aVp3
p3482
aS'utopia'
p3483
aS'#656565'
p3484
aF8.88595
aI0
aI00
aI00
aI00
aI00
aI00
aI00
aI00
aI00
aa(lp3485
I177958
aF124.584
aF597.258
aVp3
p3486
aS'utopia'
p3487
aS'#656565'
p3488
aF8.88595
aI0
aI00
aI00
aI00
aI00
aI00
aI00
aI00
aI00
aa(lp3489
I234378
aF154.945
aF597.258
aVp3
p3490
aS'utopia'
p3491
aS'#656565'
p3492
aF8.88595
aI0
aI00
aI00
aI00
aI00
aI00
aI00
aI00
aI00
aa(lp3493
I234378
aF200.16487692307692
aF597.258
ag3490
aS'utopia'
p3494
aS'#656565'
p3495
aF8.88595
aI0
aI00
aI00
aI00
aI00
aI00
aI00
aI00
aI00
aa(lp3496
I234378
aF206.039
aF597.258
aVp3
p3497
aS'utopia'
p3498
aS'#656565'
p3499
aF8.88595
aI0
aI01
aI00
aI00
aI00
aI00
aI00
aI00
aI00
aa(lp3500
I41890
aF245.285
aF597.258
aVp3
p3501
aS'utopia'
p3502
aS'#656565'
p3503
aF8.88595
aI0
aI00
aI00
aI00
aI00
aI00
aI00
aI00
aI00
aa(lp3504
I234378
aF256.393
aF597.258
aVp3
p3505
aS'utopia'
p3506
aS'#656565'
p3507
aF8.88595
aI0
aI00
aI00
aI00
aI00
aI00
aI00
aI00
aI00
aa(lp3508
I144489
aF281.57
aF597.258
aVp3
p3509
aS'utopia'
p3510
aS'#656565'
p3511
aF8.88595
aI0
aI00
aI00
aI00
aI00
aI00
aI00
aI00
aI00
aa(lp3512
I177958
aF291.937
aF597.258
aVp3
p3513
aS'utopia'
p3514
aS'#656565'
p3515
aF8.88595
aI0
aI00
aI00
aI00
aI00
aI00
aI00
aI00
aI00
aa(lp3516
I15166
aF322.297
aF597.258
aVp3
p3517
aS'utopia'
p3518
aS'#656565'
p3519
aF8.88595
aI0
aI00
aI00
aI00
aI00
aI00
aI00
aI00
aI00
aa(lp3520
I231317
aF336.366
aF597.258
aVp3
p3521
aS'utopia'
p3522
aS'#656565'
p3523
aF8.88595
aI0
aI00
aI00
aI00
aI00
aI00
aI00
aI00
aI00
aa(lp3524
I144690
aF364.505
aF597.258
aVp3
p3525
aS'utopia'
p3526
aS'#656565'
p3527
aF8.88595
aI0
aI00
aI00
aI00
aI00
aI00
aI00
aI00
aI00
aa(lp3528
I234378
aF388.08834285714283
aF597.258
ag3525
aS'utopia'
p3529
aS'#656565'
p3530
aF8.88595
aI0
aI00
aI00
aI00
aI00
aI00
aI00
aI00
aI00
aa(lp3531
I68032
aF394.125
aF597.258
aVp3
p3532
aS'utopia'
p3533
aS'#656565'
p3534
aF8.88595
aI0
aI00
aI00
aI00
aI00
aI00
aI00
aI00
aI00
aa(lp3535
I234378
aF443.7823916666667
aF597.258
ag3532
aS'utopia'
p3536
aS'#656565'
p3537
aF8.88595
aI0
aI00
aI00
aI00
aI00
aI00
aI00
aI00
aI00
aa(lp3538
I125078
aF450.403
aF597.258
aVp3
p3539
aS'utopia'
p3540
aS'#656565'
p3541
aF8.88595
aI0
aI00
aI00
aI00
aI00
aI00
aI00
aI00
aI00
aa(lp3542
I234378
aF475.1256
aF597.258
ag3539
aS'utopia'
p3543
aS'#656565'
p3544
aF8.88595
aI0
aI00
aI00
aI00
aI00
aI00
aI00
aI00
aI00
aa(lp3545
I85218
aF480.763
aF597.258
aVp3
p3546
aS'utopia'
p3547
aS'#656565'
p3548
aF8.88595
aI0
aI00
aI00
aI00
aI00
aI00
aI00
aI00
aI00
aa(lp3549
I142554
aF497.794
aF597.258
aVp3
p3550
aS'utopia'
p3551
aS'#656565'
p3552
aF8.88595
aI0
aI00
aI00
aI00
aI00
aI00
aI00
aI00
aI00
aa(lp3553
I234378
aF543.0019090909091
aF597.258
ag3550
aS'utopia'
p3554
aS'#656565'
p3555
aF8.88595
aI0
aI00
aI00
aI00
aI00
aI00
aI00
aI00
aI00
aa(lp3556
I177958
aF40.9084
aF611.327
aVp3
p3557
aS'utopia'
p3558
aS'#656565'
p3559
aF8.88595
aI0
aI01
aI00
aI00
aI00
aI00
aI00
aI00
aI00
aa(lp3560
I234378
aF71.2688
aF611.327
aVp3
p3561
aS'utopia'
p3562
aS'#656565'
p3563
aF8.88595
aI0
aI01
aI00
aI00
aI00
aI00
aI00
aI00
aI00
aa(lp3564
I234378
aF96.6393375
aF611.327
ag3561
aS'utopia'
p3565
aS'#656565'
p3566
aF8.88595
aI0
aI00
aI00
aI00
aI00
aI00
aI00
aI00
aI00
aa(lp3567
I131675
aF104.591
aF611.327
aVp3
p3568
aS'utopia'
p3569
aS'#656565'
p3570
aF8.88595
aI0
aI01
aI00
aI00
aI00
aI00
aI00
aI00
aI00
aa(lp3571
I22474
aF140.875
aF611.327
aVp3
p3572
aS'utopia'
p3573
aS'#656565'
p3574
aF8.88595
aI0
aI00
aI00
aI00
aI00
aI00
aI00
aI00
aI00
aa(lp3575
I166593
aF149.021
aF611.327
aVp3
p3576
aS'utopia'
p3577
aS'#656565'
p3578
aF8.88595
aI0
aI00
aI00
aI00
aI00
aI00
aI00
aI00
aI00
aa(lp3579
I171173
aF155.685
aF611.327
aVp3
p3580
aS'utopia'
p3581
aS'#656565'
p3582
aF8.88595
aI0
aI01
aI00
aI00
aI00
aI00
aI00
aI00
aI00
aa(lp3583
I119502
aF197.894
aF611.327
aVp3
p3584
aS'utopia'
p3585
aS'#656565'
p3586
aF8.88595
aI0
aI00
aI00
aI00
aI00
aI00
aI00
aI00
aI00
aa(lp3587
I192651
aF227.513
aF611.327
aVp3
p3588
aS'utopia'
p3589
aS'#656565'
p3590
aF8.88595
aI0
aI00
aI00
aI00
aI00
aI00
aI00
aI00
aI00
aa(lp3591
I194354
aF239.361
aF611.327
aVp3
p3592
aS'utopia'
p3593
aS'#656565'
p3594
aF8.88595
aI0
aI00
aI00
aI00
aI00
aI00
aI00
aI00
aI00
aa(lp3595
I91539
aF254.171
aF611.327
aVp3
p3596
aS'utopia'
p3597
aS'#656565'
p3598
aF8.88595
aI0
aI01
aI00
aI00
aI00
aI00
aI00
aI00
aI00
aa(lp3599
I89480
aF276.386
aF611.327
aVp3
p3600
aS'utopia'
p3601
aS'#656565'
p3602
aF8.88595
aI0
aI00
aI00
aI00
aI00
aI00
aI00
aI00
aI00
aa(lp3603
I61195
aF286.753
aF611.327
aVp3
p3604
aS'utopia'
p3605
aS'#656565'
p3606
aF8.88595
aI0
aI00
aI00
aI00
aI00
aI00
aI00
aI00
aI00
aa(lp3607
I234378
aF319.335
aF611.327
aVp3
p3608
aS'utopia'
p3609
aS'#656565'
p3610
aF8.88595
aI0
aI00
aI00
aI00
aI00
aI00
aI00
aI00
aI00
aa(lp3611
I69419
aF365.246
aF611.327
aVp3
p3612
aS'utopia'
p3613
aS'#656565'
p3614
aF8.88595
aI0
aI00
aI00
aI00
aI00
aI00
aI00
aI00
aI00
aa(lp3615
I85218
aF411.156
aF611.327
aVp3
p3616
aS'utopia'
p3617
aS'#656565'
p3618
aF8.88595
aI0
aI00
aI00
aI00
aI00
aI00
aI00
aI00
aI00
aa(lp3619
I127730
aF428.188
aF611.327
aVp3
p3620
aS'utopia'
p3621
aS'#656565'
p3622
aF8.88595
aI0
aI00
aI00
aI00
aI00
aI00
aI00
aI00
aI00
aa(lp3623
I84932
aF465.213
aF611.327
aVp3
p3624
aS'utopia'
p3625
aS'#656565'
p3626
aF8.88595
aI0
aI00
aI00
aI00
aI00
aI00
aI00
aI00
aI00
aa(lp3627
I183670
aF480.022
aF611.327
aVp3
p3628
aS'utopia'
p3629
aS'#656565'
p3630
aF8.88595
aI0
aI00
aI00
aI00
aI00
aI00
aI00
aI00
aI00
aa(lp3631
I89480
aF498.535
aF611.327
aVp3
p3632
aS'utopia'
p3633
aS'#656565'
p3634
aF8.88595
aI0
aI00
aI00
aI00
aI00
aI00
aI00
aI00
aI00
aa(lp3635
I194354
aF508.902
aF611.327
aVp3
p3636
aS'utopia'
p3637
aS'#656565'
p3638
aF8.88595
aI0
aI00
aI00
aI00
aI00
aI00
aI00
aI00
aI00
aa(lp3639
I208983
aF523.712
aF611.327
aVp3
p3640
aS'utopia'
p3641
aS'#656565'
p3642
aF8.88595
aI0
aI01
aI00
aI00
aI00
aI00
aI00
aI00
aI00
aa(lp3643
I216198
aF40.9084
aF621.694
aVp3
p3644
aS'utopia'
p3645
aS'#656565'
p3646
aF8.88595
aI0
aI01
aI00
aI00
aI00
aI00
aI00
aI00
aI00
aa(lp3647
I218914
aF74.9712
aF621.694
aVp3
p3648
aS'utopia'
p3649
aS'#656565'
p3650
aF8.88595
aI0
aI00
aI00
aI00
aI00
aI00
aI00
aI00
aI00
aa(lp3651
I22474
aF100.889
aF621.694
aVp3
p3652
aS'utopia'
p3653
aS'#656565'
p3654
aF8.88595
aI0
aI00
aI00
aI00
aI00
aI00
aI00
aI00
aI00
aa(lp3655
I39932
aF109.034
aF621.694
aVp3
p3656
aS'utopia'
p3657
aS'#656565'
p3658
aF8.88595
aI0
aI00
aI00
aI00
aI00
aI00
aI00
aI00
aI00
aa(lp3659
I7938
aF130.508
aF621.694
aVp3
p3660
aS'utopia'
p3661
aS'#656565'
p3662
aF8.88595
aI0
aI00
aI00
aI00
aI00
aI00
aI00
aI00
aI00
aa(lp3663
I192651
aF166.052
aF621.694
aVp3
p3664
aS'utopia'
p3665
aS'#656565'
p3666
aF8.88595
aI0
aI00
aI00
aI00
aI00
aI00
aI00
aI00
aI00
aa(lp3667
I91539
aF177.9
aF621.694
aVp3
p3668
aS'utopia'
p3669
aS'#656565'
p3670
aF8.88595
aI0
aI00
aI00
aI00
aI00
aI00
aI00
aI00
aI00
aa(lp3671
I234378
aF195.17192
aF621.694
ag3668
aS'utopia'
p3672
aS'#656565'
p3673
aF8.88595
aI0
aI00
aI00
aI00
aI00
aI00
aI00
aI00
aI00
aa(lp3674
I85218
aF201.596
aF621.694
aVp3
p3675
aS'utopia'
p3676
aS'#656565'
p3677
aF8.88595
aI0
aI00
aI00
aI00
aI00
aI00
aI00
aI00
aI00
aa(lp3678
I91539
aF218.627
aF621.694
aVp3
p3679
aS'utopia'
p3680
aS'#656565'
p3681
aF8.88595
aI0
aI00
aI00
aI00
aI00
aI00
aI00
aI00
aI00
aa(lp3682
I234378
aF240.102
aF621.694
aVp3
p3683
aS'utopia'
p3684
aS'#656565'
p3685
aF8.88595
aI0
aI00
aI00
aI00
aI00
aI00
aI00
aI00
aI00
aa(lp3686
I194354
aF257.874
aF621.694
aVp3
p3687
aS'utopia'
p3688
aS'#656565'
p3689
aF8.88595
aI0
aI00
aI00
aI00
aI00
aI00
aI00
aI00
aI00
aa(lp3690
I169404
aF272.684
aF621.694
aVp3
p3691
aS'utopia'
p3692
aS'#656565'
p3693
aF8.88595
aI0
aI00
aI00
aI00
aI00
aI00
aI00
aI00
aI00
aa(lp3694
I85218
aF291.937
aF621.694
aVp3
p3695
aS'utopia'
p3696
aS'#656565'
p3697
aF8.88595
aI0
aI00
aI00
aI00
aI00
aI00
aI00
aI00
aI00
aa(lp3698
I61195
aF308.968
aF621.694
aVp3
p3699
aS'utopia'
p3700
aS'#656565'
p3701
aF8.88595
aI0
aI00
aI00
aI00
aI00
aI00
aI00
aI00
aI00
aa(lp3702
I194354
aF341.55
aF621.694
aVp3
p3703
aS'utopia'
p3704
aS'#656565'
p3705
aF8.88595
aI0
aI00
aI00
aI00
aI00
aI00
aI00
aI00
aI00
aa(lp3706
I234378
aF356.36
aF621.694
aVp3
p3707
aS'utopia'
p3708
aS'#656565'
p3709
aF8.88595
aI0
aI00
aI00
aI00
aI00
aI00
aI00
aI00
aI00
aa(lp3710
I234378
aF401.26585
aF621.694
ag3707
aS'utopia'
p3711
aS'#656565'
p3712
aF8.88595
aI0
aI00
aI00
aI00
aI00
aI00
aI00
aI00
aI00
aa(lp3713
I55762
aF407.454
aF621.694
aVp3
p3714
aS'utopia'
p3715
aS'#656565'
p3716
aF8.88595
aI0
aI00
aI00
aI00
aI00
aI00
aI00
aI00
aI00
aa(lp3717
I193136
aF436.333
aF621.694
aVp3
p3718
aS'utopia'
p3719
aS'#656565'
p3720
aF8.88595
aI0
aI00
aI00
aI00
aI00
aI00
aI00
aI00
aI00
aa(lp3721
I84932
aF459.289
aF621.694
aVp3
p3722
aS'utopia'
p3723
aS'#656565'
p3724
aF8.88595
aI0
aI00
aI00
aI00
aI00
aI00
aI00
aI00
aI00
aa(lp3725
I48815
aF474.099
aF621.694
aVp3
p3726
aS'utopia'
p3727
aS'#656565'
p3728
aF8.88595
aI0
aI00
aI00
aI00
aI00
aI00
aI00
aI00
aI00
aa(lp3729
I131675
aF491.13
aF621.694
aVp3
p3730
aS'utopia'
p3731
aS'#656565'
p3732
aF8.88595
aI0
aI01
aI00
aI00
aI00
aI00
aI00
aI00
aI00
aa(lp3733
I234378
aF527.414
aF621.694
aVp3
p3734
aS'utopia'
p3735
aS'#656565'
p3736
aF8.88595
aI0
aI00
aI00
aI00
aI00
aI00
aI00
aI00
aI00
aa(lp3737
I230874
aF40.9084
aF632.061
aVp3
p3738
aS'utopia'
p3739
aS'#656565'
p3740
aF8.88595
aI0
aI01
aI00
aI00
aI00
aI00
aI00
aI00
aI00
aa(lp3741
I131675
aF83.1167
aF632.061
aVp3
p3742
aS'utopia'
p3743
aS'#656565'
p3744
aF8.88595
aI0
aI01
aI00
aI00
aI00
aI00
aI00
aI00
aI00
aa(lp3745
I85218
aF119.401
aF632.061
aVp3
p3746
aS'utopia'
p3747
aS'#656565'
p3748
aF8.88595
aI0
aI00
aI00
aI00
aI00
aI00
aI00
aI00
aI00
aa(lp3749
I83353
aF136.432
aF632.061
aVp3
p3750
aS'utopia'
p3751
aS'#656565'
p3752
aF8.88595
aI0
aI01
aI00
aI00
aI00
aI00
aI00
aI00
aI00
aa(lp3753
I131675
aF160.869
aF632.061
aVp3
p3754
aS'utopia'
p3755
aS'#656565'
p3756
aF8.88595
aI0
aI01
aI00
aI00
aI00
aI00
aI00
aI00
aI00
aa(lp3757
I218914
aF197.153
aF632.061
aVp3
p3758
aS'utopia'
p3759
aS'#656565'
p3760
aF8.88595
aI0
aI00
aI00
aI00
aI00
aI00
aI00
aI00
aI00
aa(lp3761
I22474
aF223.07
aF632.061
aVp3
p3762
aS'utopia'
p3763
aS'#656565'
p3764
aF8.88595
aI0
aI00
aI00
aI00
aI00
aI00
aI00
aI00
aI00
aa(lp3765
I39932
aF231.216
aF632.061
aVp3
p3766
aS'utopia'
p3767
aS'#656565'
p3768
aF8.88595
aI0
aI00
aI00
aI00
aI00
aI00
aI00
aI00
aI00
aa(lp3769
I25729
aF252.69
aF632.061
aVp3
p3770
aS'utopia'
p3771
aS'#656565'
p3772
aF8.88595
aI0
aI00
aI00
aI00
aI00
aI00
aI00
aI00
aI00
aa(lp3773
I190806
aF273.424
aF632.061
aVp3
p3774
aS'utopia'
p3775
aS'#656565'
p3776
aF8.88595
aI0
aI00
aI00
aI00
aI00
aI00
aI00
aI00
aI00
aa(lp3777
I171173
aF287.494
aF632.061
aVp3
p3778
aS'utopia'
p3779
aS'#656565'
p3780
aF8.88595
aI0
aI00
aI00
aI00
aI00
aI00
aI00
aI00
aI00
aa(lp3781
I63022
aF328.221
aF632.061
aVp3
p3782
aS'utopia'
p3783
aS'#656565'
p3784
aF8.88595
aI0
aI00
aI00
aI00
aI00
aI00
aI00
aI00
aI00
aa(lp3785
I190806
aF362.284
aF632.061
aVp3
p3786
aS'utopia'
p3787
aS'#656565'
p3788
aF8.88595
aI0
aI00
aI00
aI00
aI00
aI00
aI00
aI00
aI00
aa(lp3789
I709
aF376.353
aF632.061
aVp3
p3790
aS'utopia'
p3791
aS'#656565'
p3792
aF8.88595
aI0
aI00
aI00
aI00
aI00
aI00
aI00
aI00
aI00
aa(lp3793
I234378
aF417.821
aF632.061
aVp3
p3794
aS'utopia'
p3795
aS'#656565'
p3796
aF8.88595
aI0
aI00
aI00
aI00
aI00
aI00
aI00
aI00
aI00
aa(lp3797
I234378
aF457.24532000000005
aF632.061
ag3794
aS'utopia'
p3798
aS'#656565'
p3799
aF8.88595
aI0
aI00
aI00
aI00
aI00
aI00
aI00
aI00
aI00
aa(lp3800
I69222
aF463.732
aF632.061
aVp3
p3801
aS'utopia'
p3802
aS'#656565'
p3803
aF8.88595
aI0
aI00
aI00
aI00
aI00
aI00
aI00
aI00
aI00
aa(lp3804
I234378
aF494.832
aF632.061
aVp3
p3805
aS'utopia'
p3806
aS'#656565'
p3807
aF8.88595
aI0
aI00
aI00
aI00
aI00
aI00
aI00
aI00
aI00
aa(lp3808
I234378
aF40.9084
aF642.428
aVp3
p3809
aS'utopia'
p3810
aS'#656565'
p3811
aF8.88595
aI0
aI00
aI00
aI00
aI00
aI00
aI00
aI00
aI00
aa(lp3812
I89480
aF88.3002
aF642.428
aVp3
p3813
aS'utopia'
p3814
aS'#656565'
p3815
aF8.88595
aI0
aI00
aI00
aI00
aI00
aI00
aI00
aI00
aI00
aa(lp3816
I234378
aF98.6671
aF642.428
aVp3
p3817
aS'utopia'
p3818
aS'#656565'
p3819
aF8.88595
aI0
aI00
aI00
aI00
aI00
aI00
aI00
aI00
aI00
aa(lp3820
I234378
aF119.7441
aF642.428
ag3817
aS'utopia'
p3821
aS'#656565'
p3822
aF8.88595
aI0
aI00
aI00
aI00
aI00
aI00
aI00
aI00
aI00
aa(lp3823
I132957
aF126.065
aF642.428
aVp3
p3824
aS'utopia'
p3825
aS'#656565'
p3826
aF8.88595
aI0
aI01
aI00
aI00
aI00
aI00
aI00
aI00
aI00
aa(lp3827
I22474
aF146.799
aF642.428
aVp3
p3828
aS'utopia'
p3829
aS'#656565'
p3830
aF8.88595
aI0
aI00
aI00
aI00
aI00
aI00
aI00
aI00
aI00
aa(lp3831
I171585
aF154.945
aF642.428
aVp3
p3832
aS'utopia'
p3833
aS'#656565'
p3834
aF8.88595
aI0
aI00
aI00
aI00
aI00
aI00
aI00
aI00
aI00
aa(lp3835
I15726
aF183.824
aF642.428
aVp3
p3836
aS'utopia'
p3837
aS'#656565'
p3838
aF8.88595
aI0
aI00
aI00
aI00
aI00
aI00
aI00
aI00
aI00
aa(lp3839
I166593
aF201.596
aF642.428
aVp3
p3840
aS'utopia'
p3841
aS'#656565'
p3842
aF8.88595
aI0
aI00
aI00
aI00
aI00
aI00
aI00
aI00
aI00
aa(lp3843
I217603
aF208.26
aF642.428
aVp3
p3844
aS'utopia'
p3845
aS'#656565'
p3846
aF8.88595
aI0
aI00
aI00
aI00
aI00
aI00
aI00
aI00
aI00
aa(lp3847
I190806
aF226.032
aF642.428
aVp3
p3848
aS'utopia'
p3849
aS'#656565'
p3850
aF8.88595
aI0
aI01
aI00
aI00
aI00
aI00
aI00
aI00
aI00
aa(lp3851
I234378
aF242.323
aF642.428
aVp3
p3852
aS'utopia'
p3853
aS'#656565'
p3854
aF8.88595
aI0
aI01
aI00
aI00
aI00
aI00
aI00
aI00
aI00
aa(lp3855
I194354
aF286.753
aF642.428
aVp3
p3856
aS'utopia'
p3857
aS'#656565'
p3858
aF8.88595
aI0
aI00
aI00
aI00
aI00
aI00
aI00
aI00
aI00
aa(lp3859
I106678
aF301.563
aF642.428
aVp3
p3860
aS'utopia'
p3861
aS'#656565'
p3862
aF8.88595
aI0
aI01
aI00
aI00
aI00
aI00
aI00
aI00
aI00
aa(lp3863
I234378
aF348.955
aF642.428
aVp3
p3864
aS'utopia'
p3865
aS'#656565'
p3866
aF8.88595
aI0
aI00
aI00
aI00
aI00
aI00
aI00
aI00
aI00
aa(lp3867
I234378
aF376.353
aF642.428
aVp3
p3868
aS'utopia'
p3869
aS'#656565'
p3870
aF8.88595
aI0
aI00
aI00
aI00
aI00
aI00
aI00
aI00
aI00
aa(lp3871
I89480
aF405.973
aF642.428
aVp3
p3872
aS'utopia'
p3873
aS'#656565'
p3874
aF8.88595
aI0
aI00
aI00
aI00
aI00
aI00
aI00
aI00
aI00
aa(lp3875
I234378
aF416.34
aF642.428
aVp3
p3876
aS'utopia'
p3877
aS'#656565'
p3878
aF8.88595
aI0
aI01
aI00
aI00
aI00
aI00
aI00
aI00
aI00
aa(lp3879
I169745
aF462.251
aF642.428
aVp3
p3880
aS'utopia'
p3881
aS'#656565'
p3882
aF8.88595
aI0
aI00
aI00
aI00
aI00
aI00
aI00
aI00
aI00
aa(lp3883
I234378
aF481.503
aF642.428
aVp3
p3884
aS'utopia'
p3885
aS'#656565'
p3886
aF8.88595
aI0
aI00
aI00
aI00
aI00
aI00
aI00
aI00
aI00
aa(lp3887
I144489
aF508.902
aF642.428
aVp3
p3888
aS'utopia'
p3889
aS'#656565'
p3890
aF8.88595
aI0
aI00
aI00
aI00
aI00
aI00
aI00
aI00
aI00
aa(lp3891
I8241
aF519.269
aF642.428
aVp3
p3892
aS'utopia'
p3893
aS'#656565'
p3894
aF8.88595
aI0
aI01
aI00
aI00
aI00
aI00
aI00
aI00
aI00
aa(lp3895
I75081
aF40.9084
aF652.795
aVp3
p3896
aS'utopia'
p3897
aS'#656565'
p3898
aF8.88595
aI0
aI00
aI00
aI00
aI00
aI00
aI00
aI00
aI00
aa(lp3899
I234378
aF70.20408571428571
aF652.795
ag3896
aS'utopia'
p3900
aS'#656565'
p3901
aF8.88595
aI0
aI00
aI00
aI00
aI00
aI00
aI00
aI00
aI00
aa(lp3902
I50998
aF77.1927
aF652.795
aVp3
p3903
aS'utopia'
p3904
aS'#656565'
p3905
aF8.88595
aI0
aI01
aI00
aI00
aI00
aI00
aI00
aI00
aI00
aa(lp3906
I75081
aF102.37
aF652.795
aVp3
p3907
aS'utopia'
p3908
aS'#656565'
p3909
aF8.88595
aI0
aI00
aI00
aI00
aI00
aI00
aI00
aI00
aI00
aa(lp3910
I234378
aF131.6656857142857
aF652.795
ag3907
aS'utopia'
p3911
aS'#656565'
p3912
aF8.88595
aI0
aI00
aI00
aI00
aI00
aI00
aI00
aI00
aI00
aa(lp3913
I120218
aF138.654
aF652.795
aVp3
p3914
aS'utopia'
p3915
aS'#656565'
p3916
aF8.88595
aI0
aI01
aI00
aI00
aI00
aI00
aI00
aI00
aI00
aa(lp3917
I39311
aF180.122
aF652.795
aVp3
p3918
aS'utopia'
p3919
aS'#656565'
p3920
aF8.88595
aI0
aI01
aI00
aI00
aI00
aI00
aI00
aI00
aI00
aa(lp3921
I234378
aF211.3238875
aF652.795
ag3918
aS'utopia'
p3922
aS'#656565'
p3923
aF8.88595
aI0
aI00
aI00
aI00
aI00
aI00
aI00
aI00
aI00
aa(lp3924
I139832
aF217.887
aF652.795
aVp3
p3925
aS'utopia'
p3926
aS'#656565'
p3927
aF8.88595
aI0
aI01
aI00
aI00
aI00
aI00
aI00
aI00
aI00
aa(lp3928
I75081
aF248.988
aF652.795
aVp3
p3929
aS'utopia'
p3930
aS'#656565'
p3931
aF8.88595
aI0
aI01
aI00
aI00
aI00
aI00
aI00
aI00
aI00
aa(lp3932
I234378
aF279.5531142857143
aF652.795
ag3929
aS'utopia'
p3933
aS'#656565'
p3934
aF8.88595
aI0
aI00
aI00
aI00
aI00
aI00
aI00
aI00
aI00
aa(lp3935
I108291
aF286.753
aF652.795
aVp3
p3936
aS'utopia'
p3937
aS'#656565'
p3938
aF8.88595
aI0
aI01
aI00
aI00
aI00
aI00
aI00
aI00
aI00
aa(lp3939
I158577
aF311.93
aF652.795
aVp3
p3940
aS'utopia'
p3941
aS'#656565'
p3942
aF8.88595
aI0
aI00
aI00
aI00
aI00
aI00
aI00
aI00
aI00
aa(lp3943
I234378
aF331.57152
aF652.795
ag3940
aS'utopia'
p3944
aS'#656565'
p3945
aF8.88595
aI0
aI00
aI00
aI00
aI00
aI00
aI00
aI00
aI00
aa(lp3946
I225147
aF338.588
aF652.795
aVp3
p3947
aS'utopia'
p3948
aS'#656565'
p3949
aF8.88595
aI0
aI01
aI00
aI00
aI00
aI00
aI00
aI00
aI00
aa(lp3950
I234378
aF368.51840000000004
aF652.795
ag3947
aS'utopia'
p3951
aS'#656565'
p3952
aF8.88595
aI0
aI00
aI00
aI00
aI00
aI00
aI00
aI00
aI00
aa(lp3953
I234378
aF375.613
aF652.795
aVp3
p3954
aS'utopia'
p3955
aS'#656565'
p3956
aF8.88595
aI0
aI01
aI00
aI00
aI00
aI00
aI00
aI00
aI00
aa(lp3957
I234378
aF386.80705
aF652.795
ag3954
aS'utopia'
p3958
aS'#656565'
p3959
aF8.88595
aI0
aI00
aI00
aI00
aI00
aI00
aI00
aI00
aI00
aa(lp3960
I194354
aF392.644
aF652.795
aVp3
p3961
aS'utopia'
p3962
aS'#656565'
p3963
aF8.88595
aI0
aI01
aI00
aI00
aI00
aI00
aI00
aI00
aI00
aa(lp3964
I231013
aF409.675
aF652.795
aVp3
p3965
aS'utopia'
p3966
aS'#656565'
p3967
aF8.88595
aI0
aI00
aI00
aI00
aI00
aI00
aI00
aI00
aI00
aa(lp3968
I234378
aF425.226
aF652.795
aVp3
p3969
aS'utopia'
p3970
aS'#656565'
p3971
aF8.88595
aI0
aI00
aI00
aI00
aI00
aI00
aI00
aI00
aI00
aa(lp3972
I144489
aF458.548
aF652.795
aVp3
p3973
aS'utopia'
p3974
aS'#656565'
p3975
aF8.88595
aI0
aI00
aI00
aI00
aI00
aI00
aI00
aI00
aI00
aa(lp3976
I131675
aF468.915
aF652.795
aVp3
p3977
aS'utopia'
p3978
aS'#656565'
p3979
aF8.88595
aI0
aI01
aI00
aI00
aI00
aI00
aI00
aI00
aI00
aa(lp3980
I123665
aF505.199
aF652.795
aVp3
p3981
aS'utopia'
p3982
aS'#656565'
p3983
aF8.88595
aI0
aI01
aI00
aI00
aI00
aI00
aI00
aI00
aI00
aa(lp3984
I204628
aF40.9084
aF663.162
aVp3
p3985
aS'utopia'
p3986
aS'#656565'
p3987
aF8.88595
aI0
aI00
aI00
aI00
aI00
aI00
aI00
aI00
aI00
aa(lp3988
I194354
aF75.7117
aF663.162
aVp3
p3989
aS'utopia'
p3990
aS'#656565'
p3991
aF8.88595
aI0
aI00
aI00
aI00
aI00
aI00
aI00
aI00
aI00
aa(lp3992
I55097
aF90.5217
aF663.162
aVp3
p3993
aS'utopia'
p3994
aS'#656565'
p3995
aF8.88595
aI0
aI00
aI00
aI00
aI00
aI00
aI00
aI00
aI00
aa(lp3996
I144489
aF134.211
aF663.162
aVp3
p3997
aS'utopia'
p3998
aS'#656565'
p3999
aF8.88595
aI0
aI00
aI00
aI00
aI00
aI00
aI00
aI00
aI00
aa(lp4000
I58180
aF144.578
aF663.162
aVp3
p4001
aS'utopia'
p4002
aS'#656565'
p4003
aF8.88595
aI0
aI00
aI00
aI00
aI00
aI00
aI00
aI00
aI00
aa(lp4004
I161283
aF169.014
aF663.162
aVp3
p4005
aS'utopia'
p4006
aS'#656565'
p4007
aF8.88595
aI0
aI00
aI00
aI00
aI00
aI00
aI00
aI00
aI00
aa(lp4008
I194354
aF203.818
aF663.162
aVp3
p4009
aS'utopia'
p4010
aS'#656565'
p4011
aF8.88595
aI0
aI00
aI00
aI00
aI00
aI00
aI00
aI00
aI00
aa(lp4012
I135639
aF218.627
aF663.162
aVp3
p4013
aS'utopia'
p4014
aS'#656565'
p4015
aF8.88595
aI0
aI01
aI00
aI00
aI00
aI00
aI00
aI00
aI00
aa(lp4016
I85663
aF228.535175
aF663.162
ag4013
aS'utopia'
p4017
aS'#656565'
p4018
aF8.88595
aI0
aI00
aI00
aI00
aI00
aI00
aI00
aI00
aI00
aa(lp4019
I79081
aF256.393
aF663.162
aVp3
p4020
aS'utopia'
p4021
aS'#656565'
p4022
aF8.88595
aI0
aI00
aI00
aI00
aI00
aI00
aI00
aI00
aI00
aa(lp4023
I62897
aF286.753
aF663.162
aVp3
p4024
aS'utopia'
p4025
aS'#656565'
p4026
aF8.88595
aI0
aI01
aI00
aI00
aI00
aI00
aI00
aI00
aI00
aa(lp4027
I85218
aF306.746
aF663.162
aVp3
p4028
aS'utopia'
p4029
aS'#656565'
p4030
aF8.88595
aI0
aI00
aI00
aI00
aI00
aI00
aI00
aI00
aI00
aa(lp4031
I180121
aF323.778
aF663.162
aVp3
p4032
aS'utopia'
p4033
aS'#656565'
p4034
aF8.88595
aI0
aI01
aI00
aI00
aI00
aI00
aI00
aI00
aI00
aa(lp4035
I234378
aF348.63077142857145
aF663.162
ag4032
aS'utopia'
p4036
aS'#656565'
p4037
aF8.88595
aI0
aI00
aI00
aI00
aI00
aI00
aI00
aI00
aI00
aa(lp4038
I80068
aF354.879
aF663.162
aVp3
p4039
aS'utopia'
p4040
aS'#656565'
p4041
aF8.88595
aI0
aI00
aI00
aI00
aI00
aI00
aI00
aI00
aI00
aa(lp4042
I39311
aF391.163
aF663.162
aVp3
p4043
aS'utopia'
p4044
aS'#656565'
p4045
aF8.88595
aI0
aI00
aI00
aI00
aI00
aI00
aI00
aI00
aI00
aa(lp4046
I227039
aF425.226
aF663.162
aVp3
p4047
aS'utopia'
p4048
aS'#656565'
p4049
aF8.88595
aI0
aI00
aI00
aI00
aI00
aI00
aI00
aI00
aI00
aa(lp4050
I74911
aF467.434
aF663.162
aVp3
p4051
aS'utopia'
p4052
aS'#656565'
p4053
aF8.88595
aI0
aI00
aI00
aI00
aI00
aI00
aI00
aI00
aI00
aa(lp4054
I234378
aF513.0186416666667
aF663.162
ag4051
aS'utopia'
p4055
aS'#656565'
p4056
aF8.88595
aI0
aI00
aI00
aI00
aI00
aI00
aI00
aI00
aI00
aa(lp4057
I32869
aF40.9084
aF700.08
aVp3
p4058
aS'utopia'
p4059
aS'#000000'
p4060
aF10.3669
aI1
aI01
aI01
aI00
aI00
aI00
aI00
aI00
aI00
aa(lp4061
I209062
aF74.2307
aF700.08
aVp3
p4062
aS'utopia'
p4063
aS'#000000'
p4064
aF10.3669
aI1
aI01
aI01
aI00
aI00
aI00
aI00
aI00
aI00
aa(lp4065
I234378
aF103.851
aF700.08
aVp3
p4066
aS'utopia'
p4067
aS'#000000'
p4068
aF10.3669
aI1
aI00
aI00
aI00
aI00
aI00
aI00
aI00
aI00
aa(lp4069
I147621
aF109.4110125
aF700.08
ag4066
aS'utopia'
p4070
aS'#000000'
p4071
aF10.3669
aI1
aI01
aI01
aI00
aI00
aI00
aI00
aI00
aI00
aa(lp4072
I234378
aF121.5310375
aF700.08
ag4066
aS'utopia'
p4073
aS'#000000'
p4074
aF10.3669
aI1
aI01
aI01
aI00
aI00
aI00
aI00
aI00
aI00
aa(lp4075
I234378
aF138.211075
aF700.08
ag4066
aS'utopia'
p4076
aS'#000000'
p4077
aF10.3669
aI1
aI00
aI00
aI00
aI00
aI00
aI00
aI00
aI00
aa(lp4078
I32869
aF40.9084
aF716.641
aVp3
p4079
aS'utopia'
p4080
aS'#656565'
p4081
aF10.3669
aI0
aI01
aI01
aI00
aI00
aI00
aI00
aI00
aI00
aa(lp4082
I209062
aF74.2307
aF716.641
aVp3
p4083
aS'utopia'
p4084
aS'#656565'
p4085
aF10.3669
aI0
aI01
aI01
aI00
aI00
aI00
aI00
aI00
aI00
aa(lp4086
I91539
aF103.11
aF716.641
aVp3
p4087
aS'utopia'
p4088
aS'#656565'
p4089
aF10.3669
aI0
aI01
aI00
aI00
aI00
aI00
aI00
aI00
aI00
aa(lp4090
I234378
aF124.34418181818182
aF716.641
ag4087
aS'utopia'
p4091
aS'#656565'
p4092
aF10.3669
aI0
aI00
aI00
aI00
aI00
aI00
aI00
aI00
aI00
aa(lp4093
I32869
aF129.65272727272728
aF716.641
ag4087
aS'utopia'
p4094
aS'#656565'
p4095
aF10.3669
aI0
aI01
aI00
aI00
aI00
aI00
aI00
aI00
aI00
aa(lp4096
I234378
aF156.19545454545454
aF716.641
ag4087
aS'utopia'
p4097
aS'#656565'
p4098
aF10.3669
aI0
aI00
aI00
aI00
aI00
aI00
aI00
aI00
aI00
aa(lp4099
I234378
aF168.274
aF716.641
aVp3
p4100
aS'utopia'
p4101
aS'#656565'
p4102
aF10.3669
aI0
aI01
aI00
aI00
aI00
aI00
aI00
aI00
aI00
aa(lp4103
I60201
aF205.299
aF716.641
aVp3
p4104
aS'utopia'
p4105
aS'#656565'
p4106
aF10.3669
aI0
aI01
aI00
aI00
aI00
aI00
aI00
aI00
aI00
aa(lp4107
I230071
aF225.292
aF716.641
aVp3
p4108
aS'utopia'
p4109
aS'#656565'
p4110
aF10.3669
aI0
aI01
aI00
aI00
aI00
aI00
aI00
aI00
aI00
aa(lp4111
I131049
aF256.393
aF716.641
aVp3
p4112
aS'utopia'
p4113
aS'#656565'
p4114
aF10.3669
aI0
aI00
aI00
aI00
aI00
aI00
aI00
aI00
aI00
aa(lp4115
I61519
aF280.829
aF716.641
aVp3
p4116
aS'utopia'
p4117
aS'#656565'
p4118
aF10.3669
aI0
aI01
aI00
aI00
aI00
aI00
aI00
aI00
aI01
aa(lp4119
I234378
aF298.601
aF716.641
aVp3
p4120
aS'utopia'
p4121
aS'#656565'
p4122
aF10.3669
aI0
aI00
aI00
aI01
aI01
aI01
aI00
aI00
aI00
aa(lp4123
I89480
aF321.556
aF716.641
aVp3
p4124
aS'utopia'
p4125
aS'#656565'
p4126
aF10.3669
aI0
aI00
aI00
aI00
aI00
aI00
aI00
aI00
aI00
aa(lp4127
I27216
aF333.404
aF716.641
aVp3
p4128
aS'utopia'
p4129
aS'#656565'
p4130
aF10.3669
aI0
aI01
aI00
aI00
aI00
aI00
aI00
aI00
aI01
aa(lp4131
I234378
aF351.917
aF716.641
aVp3
p4132
aS'utopia'
p4133
aS'#656565'
p4134
aF10.3669
aI0
aI00
aI00
aI01
aI01
aI01
aI00
aI00
aI00
aa(lp4135
I234378
aF40.9084
aF732.931
aVp3
p4136
aS'utopia'
p4137
aS'#656565'
p4138
aF10.3669
aI0
aI01
aI00
aI00
aI00
aI00
aI00
aI00
aI00
aa(lp4139
I109610
aF40.9084
aF749.059
aVp3
p4140
aS'utopia'
p4141
aS'#656565'
p4142
aF8.88595
aI0
aI01
aI00
aI00
aI00
aI00
aI00
aI00
aI00
aa(lp4143
I25729
aF58.6803
aF749.059
aVp3
p4144
aS'utopia'
p4145
aS'#656565'
p4146
aF8.88595
aI0
aI01
aI00
aI00
aI00
aI00
aI00
aI00
aI00
aa(lp4147
I234378
aF76.54462000000001
aF749.059
ag4144
aS'utopia'
p4148
aS'#656565'
p4149
aF8.88595
aI0
aI00
aI00
aI00
aI00
aI00
aI00
aI00
aI00
aa(lp4150
I84662
aF85.3382
aF749.059
aVp3
p4151
aS'utopia'
p4152
aS'#656565'
p4153
aF8.88595
aI0
aI01
aI00
aI00
aI00
aI00
aI00
aI00
aI00
aa(lp4154
I21716
aF106.813
aF749.059
aVp3
p4155
aS'utopia'
p4156
aS'#656565'
p4157
aF8.88595
aI0
aI01
aI00
aI00
aI00
aI00
aI00
aI00
aI00
aa(lp4158
I234378
aF121.71532
aF749.059
ag4155
aS'utopia'
p4159
aS'#656565'
p4160
aF8.88595
aI0
aI00
aI00
aI00
aI00
aI00
aI00
aI00
aI00
aa(lp4161
I234378
aF127.546
aF749.059
aVp3
p4162
aS'utopia'
p4163
aS'#656565'
p4164
aF8.88595
aI0
aI01
aI00
aI00
aI00
aI00
aI00
aI00
aI00
aa(lp4165
I234378
aF153.55958333333334
aF749.059
ag4162
aS'utopia'
p4166
aS'#656565'
p4167
aF8.88595
aI0
aI00
aI00
aI00
aI00
aI00
aI00
aI00
aI00
aa(lp4168
I234378
aF160.869
aF749.059
aVp3
p4169
aS'utopia'
p4170
aS'#656565'
p4171
aF8.88595
aI0
aI01
aI00
aI00
aI00
aI00
aI00
aI00
aI00
aa(lp4172
I234378
aF198.672
aF749.059
ag4169
aS'utopia'
p4173
aS'#656565'
p4174
aF8.88595
aI0
aI00
aI00
aI00
aI00
aI00
aI00
aI00
aI00
aa(lp4175
I234378
aF204.558
aF749.059
aVp3
p4176
aS'utopia'
p4177
aS'#656565'
p4178
aF8.88595
aI0
aI01
aI01
aI00
aI00
aI00
aI00
aI00
aI00
aa(lp4179
I234378
aF227.16152
aF749.059
ag4176
aS'utopia'
p4180
aS'#656565'
p4181
aF8.88595
aI0
aI00
aI00
aI00
aI00
aI00
aI00
aI00
aI00
aa(lp4182
I234378
aF234.918
aF749.059
aVp3
p4183
aS'utopia'
p4184
aS'#656565'
p4185
aF8.88595
aI0
aI01
aI01
aI01
aI00
aI00
aI00
aI00
aI00
aa(lp4186
I234378
aF249.4443
aF749.059
ag4183
aS'utopia'
p4187
aS'#656565'
p4188
aF8.88595
aI0
aI00
aI00
aI00
aI00
aI00
aI00
aI00
aI00
aa(lp4189
I155019
aF256.393
aF749.059
aVp3
p4190
aS'utopia'
p4191
aS'#656565'
p4192
aF8.88595
aI0
aI01
aI00
aI00
aI00
aI00
aI00
aI00
aI00
aa(lp4193
I21716
aF292.677
aF749.059
aVp3
p4194
aS'utopia'
p4195
aS'#656565'
p4196
aF8.88595
aI0
aI01
aI00
aI00
aI00
aI00
aI00
aI00
aI00
aa(lp4197
I171173
aF314.892
aF749.059
aVp3
p4198
aS'utopia'
p4199
aS'#656565'
p4200
aF8.88595
aI0
aI01
aI00
aI00
aI00
aI00
aI00
aI00
aI00
aa(lp4201
I85218
aF357.1
aF749.059
aVp3
p4202
aS'utopia'
p4203
aS'#656565'
p4204
aF8.88595
aI0
aI00
aI00
aI00
aI00
aI00
aI00
aI00
aI00
aa(lp4205
I234378
aF374.132
aF749.059
aVp3
p4206
aS'utopia'
p4207
aS'#656565'
p4208
aF8.88595
aI0
aI01
aI01
aI00
aI00
aI00
aI00
aI00
aI00
aa(lp4209
I234378
aF393.18112
aF749.059
ag4206
aS'utopia'
p4210
aS'#656565'
p4211
aF8.88595
aI0
aI00
aI00
aI00
aI00
aI00
aI00
aI00
aI00
aa(lp4212
I210461
aF40.9084
aF763.129
aVp3
p4213
aS'utopia'
p4214
aS'#656565'
p4215
aF8.88595
aI0
aI01
aI00
aI00
aI00
aI00
aI00
aI00
aI00
aa(lp4216
I340
aF65.3448
aF763.129
aVp3
p4217
aS'utopia'
p4218
aS'#656565'
p4219
aF8.88595
aI0
aI01
aI00
aI00
aI00
aI00
aI00
aI00
aI00
aa(lp4220
I234378
aF79.65472000000001
aF763.129
ag4217
aS'utopia'
p4221
aS'#656565'
p4222
aF8.88595
aI0
aI00
aI00
aI00
aI00
aI00
aI00
aI00
aI00
aa(lp4223
I234378
aF87.5597
aF763.129
aVp3
p4224
aS'utopia'
p4225
aS'#656565'
p4226
aF8.88595
aI0
aI00
aI00
aI01
aI01
aI01
aI00
aI00
aI00
aa(lp4227
I176435
aF40.9084
aF777.198
aVp3
p4228
aS'utopia'
p4229
aS'#656565'
p4230
aF8.88595
aI0
aI01
aI00
aI00
aI00
aI00
aI00
aI00
aI00
aa(lp4231
I234378
aF60.9018
aF777.198
aVp3
p4232
aS'utopia'
p4233
aS'#656565'
p4234
aF8.88595
aI0
aI00
aI00
aI00
aI00
aI00
aI00
aI00
aI00
aa(lp4235
I234378
aF67.5663
aF777.198
aVp3
p4236
aS'utopia'
p4237
aS'#656565'
p4238
aF8.88595
aI0
aI01
aI00
aI00
aI00
aI00
aI00
aI00
aI00
aa(lp4239
I234378
aF74.55463333333333
aF777.198
ag4236
aS'utopia'
p4240
aS'#656565'
p4241
aF8.88595
aI0
aI00
aI00
aI00
aI00
aI00
aI00
aI00
aI00
aa(lp4242
I150037
aF80.1547
aF777.198
aVp3
p4243
aS'utopia'
p4244
aS'#656565'
p4245
aF8.88595
aI0
aI01
aI00
aI00
aI00
aI00
aI00
aI00
aI00
aa(lp4246
I176435
aF40.9084
aF791.268
aVp3
p4247
aS'utopia'
p4248
aS'#656565'
p4249
aF8.88595
aI0
aI01
aI00
aI00
aI00
aI00
aI00
aI00
aI00
aa(lp4250
I66756
aF60.9018
aF791.268
aVp3
p4251
aS'utopia'
p4252
aS'#656565'
p4253
aF8.88595
aI0
aI01
aI00
aI00
aI00
aI00
aI00
aI00
aI00
aa(lp4254
I234378
aF105.12885833333334
aF791.268
ag4251
aS'utopia'
p4255
aS'#656565'
p4256
aF8.88595
aI0
aI00
aI00
aI00
aI00
aI00
aI00
aI00
aI00
aa(lp4257
I234378
aF113.477
aF791.268
aVp3
p4258
aS'utopia'
p4259
aS'#656565'
p4260
aF8.88595
aI0
aI01
aI00
aI00
aI00
aI00
aI00
aI00
aI00
aa(lp4261
I41890
aF152.723
aF791.268
aVp3
p4262
aS'utopia'
p4263
aS'#656565'
p4264
aF8.88595
aI0
aI00
aI00
aI00
aI00
aI00
aI00
aI00
aI00
aa(lp4265
I234378
aF163.831
aF791.268
aVp3
p4266
aS'utopia'
p4267
aS'#656565'
p4268
aF8.88595
aI0
aI00
aI00
aI00
aI00
aI00
aI00
aI00
aI00
aa(lp4269
I144489
aF189.008
aF791.268
aVp3
p4270
aS'utopia'
p4271
aS'#656565'
p4272
aF8.88595
aI0
aI00
aI00
aI00
aI00
aI00
aI00
aI00
aI00
aa(lp4273
I177958
aF199.375
aF791.268
aVp3
p4274
aS'utopia'
p4275
aS'#656565'
p4276
aF8.88595
aI0
aI00
aI00
aI00
aI00
aI00
aI00
aI00
aI00
aa(lp4277
I15166
aF229.735
aF791.268
aVp3
p4278
aS'utopia'
p4279
aS'#656565'
p4280
aF8.88595
aI0
aI00
aI00
aI00
aI00
aI00
aI00
aI00
aI00
aa(lp4281
I231317
aF243.804
aF791.268
aVp3
p4282
aS'utopia'
p4283
aS'#656565'
p4284
aF8.88595
aI0
aI00
aI00
aI00
aI00
aI00
aI00
aI00
aI00
aa(lp4285
I144690
aF271.943
aF791.268
aVp3
p4286
aS'utopia'
p4287
aS'#656565'
p4288
aF8.88595
aI0
aI00
aI00
aI00
aI00
aI00
aI00
aI00
aI00
aa(lp4289
I234378
aF295.5263428571428
aF791.268
ag4286
aS'utopia'
p4290
aS'#656565'
p4291
aF8.88595
aI0
aI00
aI00
aI00
aI00
aI00
aI00
aI00
aI00
aa(lp4292
I68032
aF301.563
aF791.268
aVp3
p4293
aS'utopia'
p4294
aS'#656565'
p4295
aF8.88595
aI0
aI00
aI00
aI00
aI00
aI00
aI00
aI00
aI00
aa(lp4296
I234378
aF351.22039166666667
aF791.268
ag4293
aS'utopia'
p4297
aS'#656565'
p4298
aF8.88595
aI0
aI00
aI00
aI00
aI00
aI00
aI00
aI00
aI00
aa(lp4299
I125078
aF357.841
aF791.268
aVp3
p4300
aS'utopia'
p4301
aS'#656565'
p4302
aF8.88595
aI0
aI00
aI00
aI00
aI00
aI00
aI00
aI00
aI00
aa(lp4303
I234378
aF382.5636
aF791.268
ag4300
aS'utopia'
p4304
aS'#656565'
p4305
aF8.88595
aI0
aI00
aI00
aI00
aI00
aI00
aI00
aI00
aI00
aa(lp4306
I85218
aF388.201
aF791.268
aVp3
p4307
aS'utopia'
p4308
aS'#656565'
p4309
aF8.88595
aI0
aI00
aI00
aI00
aI00
aI00
aI00
aI00
aI00
aa(lp4310
I142554
aF405.232
aF791.268
aVp3
p4311
aS'utopia'
p4312
aS'#656565'
p4313
aF8.88595
aI0
aI00
aI00
aI00
aI00
aI00
aI00
aI00
aI00
aa(lp4314
I234378
aF450.4399090909091
aF791.268
ag4311
aS'utopia'
p4315
aS'#656565'
p4316
aF8.88595
aI0
aI00
aI00
aI00
aI00
aI00
aI00
aI00
aI00
aa(lp4317
I234378
aF457.067
aF791.268
aVp3
p4318
aS'utopia'
p4319
aS'#656565'
p4320
aF8.88595
aI0
aI01
aI00
aI00
aI00
aI00
aI00
aI00
aI00
aa(lp4321
I194354
aF502.237
aF791.268
aVp3
p4322
aS'utopia'
p4323
aS'#656565'
p4324
aF8.88595
aI0
aI00
aI00
aI00
aI00
aI00
aI00
aI00
aI00
aa(lp4325
I234378
aF517.047
aF791.268
aVp3
p4326
aS'utopia'
p4327
aS'#656565'
p4328
aF8.88595
aI0
aI01
aI01
aI00
aI00
aI00
aI00
aI00
aI00
aa(lp4329
I85218
aF538.522
aF791.268
aVp3
p4330
aS'utopia'
p4331
aS'#656565'
p4332
aF8.88595
aI0
aI00
aI00
aI00
aI00
aI00
aI00
aI00
aI00
aa(lp4333
I234378
aF40.9084
aF801.635
aVp3
p4334
aS'utopia'
p4335
aS'#656565'
p4336
aF8.88595
aI0
aI01
aI01
aI00
aI00
aI00
aI00
aI00
aI00
aa(lp4337
I234378
aF61.6423
aF801.635
aVp3
p4338
aS'utopia'
p4339
aS'#656565'
p4340
aF8.88595
aI0
aI00
aI00
aI00
aI00
aI00
aI00
aI00
aI00
aa(lp4341
I190806
aF108.294
aF801.635
aVp3
p4342
aS'utopia'
p4343
aS'#656565'
p4344
aF8.88595
aI0
aI00
aI00
aI00
aI00
aI00
aI00
aI00
aI00
aa(lp4345
I80364
aF122.363
aF801.635
aVp3
p4346
aS'utopia'
p4347
aS'#656565'
p4348
aF8.88595
aI0
aI00
aI00
aI00
aI00
aI00
aI00
aI00
aI00
aa(lp4349
I141799
aF140.875
aF801.635
aVp3
p4350
aS'utopia'
p4351
aS'#656565'
p4352
aF8.88595
aI0
aI00
aI00
aI00
aI00
aI00
aI00
aI00
aI00
aa(lp4353
I234378
aF189.11447142857145
aF801.635
ag4350
aS'utopia'
p4354
aS'#656565'
p4355
aF8.88595
aI0
aI00
aI00
aI00
aI00
aI00
aI00
aI00
aI00
aa(lp4356
I179418
aF194.932
aF801.635
aVp3
p4357
aS'utopia'
p4358
aS'#656565'
p4359
aF8.88595
aI0
aI01
aI00
aI00
aI00
aI00
aI00
aI00
aI00
aa(lp4360
I166558
aF227.513
aF801.635
aVp3
p4361
aS'utopia'
p4362
aS'#656565'
p4363
aF8.88595
aI0
aI00
aI00
aI00
aI00
aI00
aI00
aI00
aI00
aa(lp4364
I40515
aF260.095
aF801.635
aVp3
p4365
aS'utopia'
p4366
aS'#656565'
p4367
aF8.88595
aI0
aI00
aI00
aI00
aI00
aI00
aI00
aI00
aI00
aa(lp4368
I190806
aF287.494
aF801.635
aVp3
p4369
aS'utopia'
p4370
aS'#656565'
p4371
aF8.88595
aI0
aI00
aI00
aI00
aI00
aI00
aI00
aI00
aI00
aa(lp4372
I71646
aF301.563
aF801.635
aVp3
p4373
aS'utopia'
p4374
aS'#656565'
p4375
aF8.88595
aI0
aI01
aI00
aI00
aI00
aI00
aI00
aI00
aI00
aa(lp4376
I164454
aF329.702
aF801.635
aVp3
p4377
aS'utopia'
p4378
aS'#656565'
p4379
aF8.88595
aI0
aI01
aI00
aI00
aI00
aI00
aI00
aI00
aI00
aa(lp4380
I85218
aF374.872
aF801.635
aVp3
p4381
aS'utopia'
p4382
aS'#656565'
p4383
aF8.88595
aI0
aI00
aI00
aI00
aI00
aI00
aI00
aI00
aI00
aa(lp4384
I80866
aF391.903
aF801.635
aVp3
p4385
aS'utopia'
p4386
aS'#656565'
p4387
aF8.88595
aI0
aI00
aI00
aI00
aI00
aI00
aI00
aI00
aI00
aa(lp4388
I7446
aF425.226
aF801.635
aVp3
p4389
aS'utopia'
p4390
aS'#656565'
p4391
aF8.88595
aI0
aI01
aI00
aI00
aI00
aI00
aI00
aI00
aI00
aa(lp4392
I182223
aF446.7
aF801.635
aVp3
p4393
aS'utopia'
p4394
aS'#656565'
p4395
aF8.88595
aI0
aI01
aI00
aI00
aI00
aI00
aI00
aI00
aI00
aa(lp4396
I166558
aF472.618
aF801.635
aVp3
p4397
aS'utopia'
p4398
aS'#656565'
p4399
aF8.88595
aI0
aI01
aI00
aI00
aI00
aI00
aI00
aI00
aI00
aa(lp4400
I234378
aF506.68
aF801.635
aVp3
p4401
aS'utopia'
p4402
aS'#656565'
p4403
aF8.88595
aI0
aI00
aI00
aI00
aI00
aI00
aI00
aI00
aI00
aa(lp4404
I234378
aF40.9084
aF28.557
aVp4
p4405
aS'utopia'
p4406
aS'#656565'
p4407
aF8.88595
aI0
aI01
aI01
aI00
aI00
aI00
aI00
aI00
aI00
aa(lp4408
I156028
aF67.5663
aF28.557
aVp4
p4409
aS'utopia'
p4410
aS'#656565'
p4411
aF8.88595
aI0
aI00
aI00
aI00
aI00
aI00
aI00
aI00
aI00
aa(lp4412
I234378
aF81.87622
aF28.557
ag4409
aS'utopia'
p4413
aS'#656565'
p4414
aF8.88595
aI0
aI00
aI00
aI00
aI00
aI00
aI00
aI00
aI00
aa(lp4415
I177958
aF40.9084
aF42.6264
aVp4
p4416
aS'utopia'
p4417
aS'#656565'
p4418
aF8.88595
aI0
aI01
aI00
aI00
aI00
aI00
aI00
aI00
aI00
aa(lp4419
I234378
aF71.2688
aF42.6264
aVp4
p4420
aS'utopia'
p4421
aS'#656565'
p4422
aF8.88595
aI0
aI01
aI00
aI00
aI00
aI00
aI00
aI00
aI00
aa(lp4423
I234378
aF96.6393375
aF42.6264
ag4420
aS'utopia'
p4424
aS'#656565'
p4425
aF8.88595
aI0
aI00
aI00
aI00
aI00
aI00
aI00
aI00
aI00
aa(lp4426
I32869
aF104.591
aF42.6264
aVp4
p4427
aS'utopia'
p4428
aS'#656565'
p4429
aF8.88595
aI0
aI01
aI01
aI00
aI00
aI00
aI00
aI00
aI00
aa(lp4430
I209062
aF133.47
aF42.6264
aVp4
p4431
aS'utopia'
p4432
aS'#656565'
p4433
aF8.88595
aI0
aI01
aI01
aI00
aI00
aI00
aI00
aI00
aI00
aa(lp4434
I91539
aF157.166
aF42.6264
aVp4
p4435
aS'utopia'
p4436
aS'#656565'
p4437
aF8.88595
aI0
aI01
aI01
aI00
aI00
aI00
aI00
aI00
aI00
aa(lp4438
I113929
aF183.824
aF42.6264
aVp4
p4439
aS'utopia'
p4440
aS'#656565'
p4441
aF8.88595
aI0
aI00
aI00
aI00
aI00
aI00
aI00
aI00
aI00
aa(lp4442
I104044
aF199.375
aF42.6264
aVp4
p4443
aS'utopia'
p4444
aS'#656565'
p4445
aF8.88595
aI0
aI00
aI00
aI00
aI00
aI00
aI00
aI00
aI00
aa(lp4446
I234378
aF234.178
aF42.6264
aVp4
p4447
aS'utopia'
p4448
aS'#656565'
p4449
aF8.88595
aI0
aI00
aI00
aI00
aI00
aI00
aI00
aI00
aI00
aa(lp4450
I85218
aF254.171
aF42.6264
aVp4
p4451
aS'utopia'
p4452
aS'#656565'
p4453
aF8.88595
aI0
aI00
aI00
aI00
aI00
aI00
aI00
aI00
aI00
aa(lp4454
I179008
aF271.203
aF42.6264
aVp4
p4455
aS'utopia'
p4456
aS'#656565'
p4457
aF8.88595
aI0
aI00
aI00
aI00
aI00
aI00
aI00
aI00
aI00
aa(lp4458
I133862
aF306.746
aF42.6264
aVp4
p4459
aS'utopia'
p4460
aS'#656565'
p4461
aF8.88595
aI0
aI00
aI00
aI00
aI00
aI00
aI00
aI00
aI00
aa(lp4462
I234378
aF342.29
aF42.6264
aVp4
p4463
aS'utopia'
p4464
aS'#656565'
p4465
aF8.88595
aI0
aI00
aI00
aI00
aI00
aI00
aI00
aI00
aI00
aa(lp4466
I234378
aF370.9001375
aF42.6264
ag4463
aS'utopia'
p4467
aS'#656565'
p4468
aF8.88595
aI0
aI00
aI00
aI00
aI00
aI00
aI00
aI00
aI00
aa(lp4469
I192651
aF377.094
aF42.6264
aVp4
p4470
aS'utopia'
p4471
aS'#656565'
p4472
aF8.88595
aI0
aI00
aI00
aI00
aI00
aI00
aI00
aI00
aI00
aa(lp4473
I234378
aF388.941
aF42.6264
aVp4
p4474
aS'utopia'
p4475
aS'#656565'
p4476
aF8.88595
aI0
aI00
aI00
aI00
aI00
aI00
aI00
aI00
aI00
aa(lp4477
I234378
aF436.333
aF42.6264
aVp4
p4478
aS'utopia'
p4479
aS'#656565'
p4480
aF8.88595
aI0
aI00
aI00
aI00
aI00
aI00
aI00
aI00
aI00
aa(lp4481
I144489
aF464.472
aF42.6264
aVp4
p4482
aS'utopia'
p4483
aS'#656565'
p4484
aF8.88595
aI0
aI00
aI00
aI00
aI00
aI00
aI00
aI00
aI00
aa(lp4485
I234378
aF474.839
aF42.6264
aVp4
p4486
aS'utopia'
p4487
aS'#656565'
p4488
aF8.88595
aI0
aI00
aI00
aI00
aI00
aI00
aI00
aI00
aI00
aa(lp4489
I234378
aF520.4236416666666
aF42.6264
ag4486
aS'utopia'
p4490
aS'#656565'
p4491
aF8.88595
aI0
aI00
aI00
aI00
aI00
aI00
aI00
aI00
aI00
aa(lp4492
I49703
aF526.674
aF42.6264
aVp4
p4493
aS'utopia'
p4494
aS'#656565'
p4495
aF8.88595
aI0
aI00
aI00
aI00
aI00
aI00
aI00
aI00
aI00
aa(lp4496
I234378
aF40.9084
aF52.9933
aVp4
p4497
aS'utopia'
p4498
aS'#656565'
p4499
aF8.88595
aI0
aI00
aI00
aI00
aI00
aI00
aI00
aI00
aI00
aa(lp4500
I66137
aF86.0787
aF52.9933
aVp4
p4501
aS'utopia'
p4502
aS'#656565'
p4503
aF8.88595
aI0
aI00
aI00
aI00
aI00
aI00
aI00
aI00
aI00
aa(lp4504
I234378
aF117.92
aF52.9933
aVp4
p4505
aS'utopia'
p4506
aS'#656565'
p4507
aF8.88595
aI0
aI00
aI00
aI00
aI00
aI00
aI00
aI00
aI00
aa(lp4508
I145512
aF138.84765625
aF52.9933
ag4505
aS'utopia'
p4509
aS'#656565'
p4510
aF8.88595
aI0
aI00
aI00
aI00
aI00
aI00
aI00
aI00
aI00
aa(lp4511
I234378
aF183.824
aF52.9933
aVp4
p4512
aS'utopia'
p4513
aS'#656565'
p4514
aF8.88595
aI0
aI00
aI00
aI00
aI00
aI00
aI00
aI00
aI00
aa(lp4515
I175697
aF203.818
aF52.9933
aVp4
p4516
aS'utopia'
p4517
aS'#656565'
p4518
aF8.88595
aI0
aI00
aI00
aI00
aI00
aI00
aI00
aI00
aI00
aa(lp4519
I234378
aF255.49550714285715
aF52.9933
ag4516
aS'utopia'
p4520
aS'#656565'
p4521
aF8.88595
aI0
aI00
aI00
aI00
aI00
aI00
aI00
aI00
aI00
aa(lp4522
I46544
aF261.576
aF52.9933
aVp4
p4523
aS'utopia'
p4524
aS'#656565'
p4525
aF8.88595
aI0
aI01
aI00
aI00
aI00
aI00
aI00
aI00
aI00
aa(lp4526
I123665
aF280.089
aF52.9933
aVp4
p4527
aS'utopia'
p4528
aS'#656565'
p4529
aF8.88595
aI0
aI01
aI00
aI00
aI00
aI00
aI00
aI00
aI00
aa(lp4530
I234378
aF327.48
aF52.9933
aVp4
p4531
aS'utopia'
p4532
aS'#656565'
p4533
aF8.88595
aI0
aI00
aI00
aI00
aI00
aI00
aI00
aI00
aI00
aa(lp4534
I68032
aF362.284
aF52.9933
aVp4
p4535
aS'utopia'
p4536
aS'#656565'
p4537
aF8.88595
aI0
aI00
aI00
aI00
aI00
aI00
aI00
aI00
aI00
aa(lp4538
I144489
aF416.34
aF52.9933
aVp4
p4539
aS'utopia'
p4540
aS'#656565'
p4541
aF8.88595
aI0
aI00
aI00
aI00
aI00
aI00
aI00
aI00
aI00
aa(lp4542
I46281
aF426.707
aF52.9933
aVp4
p4543
aS'utopia'
p4544
aS'#656565'
p4545
aF8.88595
aI0
aI00
aI00
aI00
aI00
aI00
aI00
aI00
aI00
aa(lp4546
I43592
aF458.04845454545455
aF52.9933
ag4543
aS'utopia'
p4547
aS'#656565'
p4548
aF8.88595
aI0
aI00
aI00
aI00
aI00
aI00
aI00
aI00
aI00
aa(lp4549
I128633
aF484.465
aF52.9933
aVp4
p4550
aS'utopia'
p4551
aS'#656565'
p4552
aF8.88595
aI0
aI00
aI00
aI00
aI00
aI00
aI00
aI00
aI00
aa(lp4553
I234378
aF40.9084
aF63.3603
aVp4
p4554
aS'utopia'
p4555
aS'#656565'
p4556
aF8.88595
aI0
aI00
aI00
aI00
aI00
aI00
aI00
aI00
aI00
aa(lp4557
I234378
aF74.58022222222223
aF63.3603
ag4554
aS'utopia'
p4558
aS'#656565'
p4559
aF8.88595
aI0
aI00
aI00
aI00
aI00
aI00
aI00
aI00
aI00
aa(lp4560
I113929
aF80.8952
aF63.3603
aVp4
p4561
aS'utopia'
p4562
aS'#656565'
p4563
aF8.88595
aI0
aI00
aI00
aI00
aI00
aI00
aI00
aI00
aI00
aa(lp4564
I203178
aF96.4456
aF63.3603
aVp4
p4565
aS'utopia'
p4566
aS'#656565'
p4567
aF8.88595
aI0
aI00
aI00
aI00
aI00
aI00
aI00
aI00
aI00
aa(lp4568
I234378
aF140.875
aF63.3603
aVp4
p4569
aS'utopia'
p4570
aS'#656565'
p4571
aF8.88595
aI0
aI00
aI00
aI00
aI00
aI00
aI00
aI00
aI00
aa(lp4572
I144489
aF177.9
aF63.3603
aVp4
p4573
aS'utopia'
p4574
aS'#656565'
p4575
aF8.88595
aI0
aI00
aI00
aI00
aI00
aI00
aI00
aI00
aI00
aa(lp4576
I209062
aF188.267
aF63.3603
aVp4
p4577
aS'utopia'
p4578
aS'#656565'
p4579
aF8.88595
aI0
aI00
aI00
aI00
aI00
aI00
aI00
aI00
aI00
aa(lp4580
I164858
aF207.52
aF63.3603
aVp4
p4581
aS'utopia'
p4582
aS'#656565'
p4583
aF8.88595
aI0
aI00
aI00
aI00
aI00
aI00
aI00
aI00
aI00
aa(lp4584
I234378
aF231.956
aF63.3603
aVp4
p4585
aS'utopia'
p4586
aS'#656565'
p4587
aF8.88595
aI0
aI00
aI00
aI00
aI00
aI00
aI00
aI00
aI00
aa(lp4588
I234378
aF266.2860444444444
aF63.3603
ag4585
aS'utopia'
p4589
aS'#656565'
p4590
aF8.88595
aI0
aI00
aI00
aI00
aI00
aI00
aI00
aI00
aI00
aa(lp4591
I194354
aF272.684
aF63.3603
aVp4
p4592
aS'utopia'
p4593
aS'#656565'
p4594
aF8.88595
aI0
aI01
aI00
aI00
aI00
aI00
aI00
aI00
aI00
aa(lp4595
I84662
aF289.715
aF63.3603
aVp4
p4596
aS'utopia'
p4597
aS'#656565'
p4598
aF8.88595
aI0
aI00
aI00
aI00
aI00
aI00
aI00
aI00
aI00
aa(lp4599
I147621
aF309.708
aF63.3603
aVp4
p4600
aS'utopia'
p4601
aS'#656565'
p4602
aF8.88595
aI0
aI01
aI01
aI00
aI00
aI00
aI00
aI00
aI00
aa(lp4603
I234378
aF321.1114666666667
aF63.3603
ag4600
aS'utopia'
p4604
aS'#656565'
p4605
aF8.88595
aI0
aI01
aI01
aI00
aI00
aI00
aI00
aI00
aI00
aa(lp4606
I123665
aF343.031
aF63.3603
aVp4
p4607
aS'utopia'
p4608
aS'#656565'
p4609
aF8.88595
aI0
aI00
aI00
aI00
aI00
aI00
aI00
aI00
aI00
aa(lp4610
I22474
aF388.941
aF63.3603
aVp4
p4611
aS'utopia'
p4612
aS'#656565'
p4613
aF8.88595
aI0
aI00
aI00
aI00
aI00
aI00
aI00
aI00
aI00
aa(lp4614
I234378
aF397.087
aF63.3603
aVp4
p4615
aS'utopia'
p4616
aS'#656565'
p4617
aF8.88595
aI0
aI00
aI00
aI00
aI00
aI00
aI00
aI00
aI00
aa(lp4618
I85218
aF440.036
aF63.3603
aVp4
p4619
aS'utopia'
p4620
aS'#656565'
p4621
aF8.88595
aI0
aI00
aI00
aI00
aI00
aI00
aI00
aI00
aI00
aa(lp4622
I234378
aF457.067
aF63.3603
aVp4
p4623
aS'utopia'
p4624
aS'#656565'
p4625
aF8.88595
aI0
aI00
aI00
aI00
aI00
aI00
aI00
aI00
aI00
aa(lp4626
I192651
aF500.016
aF63.3603
aVp4
p4627
aS'utopia'
p4628
aS'#656565'
p4629
aF8.88595
aI0
aI00
aI00
aI00
aI00
aI00
aI00
aI00
aI00
aa(lp4630
I234378
aF511.864
aF63.3603
aVp4
p4631
aS'utopia'
p4632
aS'#656565'
p4633
aF8.88595
aI0
aI01
aI01
aI00
aI00
aI00
aI00
aI00
aI00
aa(lp4634
I164802
aF531.117
aF63.3603
aVp4
p4635
aS'utopia'
p4636
aS'#656565'
p4637
aF8.88595
aI0
aI01
aI00
aI00
aI00
aI00
aI00
aI00
aI00
aa(lp4638
I85218
aF40.9084
aF73.7272
aVp4
p4639
aS'utopia'
p4640
aS'#656565'
p4641
aF8.88595
aI0
aI00
aI00
aI00
aI00
aI00
aI00
aI00
aI00
aa(lp4642
I234378
aF57.9398
aF73.7272
aVp4
p4643
aS'utopia'
p4644
aS'#656565'
p4645
aF8.88595
aI0
aI01
aI01
aI00
aI00
aI00
aI00
aI00
aI00
aa(lp4646
I32869
aF77.1927
aF73.7272
aVp4
p4647
aS'utopia'
p4648
aS'#656565'
p4649
aF8.88595
aI0
aI01
aI00
aI00
aI00
aI00
aI00
aI00
aI00
aa(lp4650
I234378
aF97.65261666666666
aF73.7272
ag4647
aS'utopia'
p4651
aS'#656565'
p4652
aF8.88595
aI0
aI00
aI00
aI00
aI00
aI00
aI00
aI00
aI00
aa(lp4653
I234378
aF103.851
aF73.7272
aVp4
p4654
aS'utopia'
p4655
aS'#656565'
p4656
aF8.88595
aI0
aI01
aI01
aI00
aI00
aI00
aI00
aI00
aI00
aa(lp4657
I164802
aF123.103
aF73.7272
aVp4
p4658
aS'utopia'
p4659
aS'#656565'
p4660
aF8.88595
aI0
aI01
aI00
aI00
aI00
aI00
aI00
aI00
aI00
aa(lp4661
I210461
aF145.318
aF73.7272
aVp4
p4662
aS'utopia'
p4663
aS'#656565'
p4664
aF8.88595
aI0
aI00
aI00
aI00
aI00
aI00
aI00
aI00
aI00
aa(lp4665
I22474
aF167.533
aF73.7272
aVp4
p4666
aS'utopia'
p4667
aS'#656565'
p4668
aF8.88595
aI0
aI00
aI00
aI00
aI00
aI00
aI00
aI00
aI00
aa(lp4669
I59806
aF175.679
aF73.7272
aVp4
p4670
aS'utopia'
p4671
aS'#656565'
p4672
aF8.88595
aI0
aI00
aI00
aI00
aI00
aI00
aI00
aI00
aI00
aa(lp4673
I135639
aF210.482
aF73.7272
aVp4
p4674
aS'utopia'
p4675
aS'#656565'
p4676
aF8.88595
aI0
aI00
aI00
aI00
aI00
aI00
aI00
aI00
aI00
aa(lp4677
I142554
aF220.108
aF73.7272
aVp4
p4678
aS'utopia'
p4679
aS'#656565'
p4680
aF8.88595
aI0
aI00
aI00
aI00
aI00
aI00
aI00
aI00
aI00
aa(lp4681
I234378
aF265.3159090909091
aF73.7272
ag4678
aS'utopia'
p4682
aS'#656565'
p4683
aF8.88595
aI0
aI00
aI00
aI00
aI00
aI00
aI00
aI00
aI00
aa(lp4684
I234378
aF271.943
aF73.7272
aVp4
p4685
aS'utopia'
p4686
aS'#656565'
p4687
aF8.88595
aI0
aI01
aI01
aI00
aI00
aI00
aI00
aI00
aI00
aa(lp4688
I234378
aF291.937
aF73.7272
aVp4
p4689
aS'utopia'
p4690
aS'#656565'
p4691
aF8.88595
aI0
aI00
aI00
aI00
aI00
aI00
aI00
aI00
aI00
aa(lp4692
I85218
aF328.221
aF73.7272
aVp4
p4693
aS'utopia'
p4694
aS'#656565'
p4695
aF8.88595
aI0
aI00
aI00
aI00
aI00
aI00
aI00
aI00
aI00
aa(lp4696
I221291
aF345.252
aF73.7272
aVp4
p4697
aS'utopia'
p4698
aS'#656565'
p4699
aF8.88595
aI0
aI00
aI00
aI00
aI00
aI00
aI00
aI00
aI00
aa(lp4700
I68032
aF366.727
aF73.7272
aVp4
p4701
aS'utopia'
p4702
aS'#656565'
p4703
aF8.88595
aI0
aI00
aI00
aI00
aI00
aI00
aI00
aI00
aI00
aa(lp4704
I234378
aF416.38439166666666
aF73.7272
ag4701
aS'utopia'
p4705
aS'#656565'
p4706
aF8.88595
aI0
aI00
aI00
aI00
aI00
aI00
aI00
aI00
aI00
aa(lp4707
I79093
aF423.004
aF73.7272
aVp4
p4708
aS'utopia'
p4709
aS'#656565'
p4710
aF8.88595
aI0
aI00
aI00
aI00
aI00
aI00
aI00
aI00
aI00
aa(lp4711
I190806
aF475.579
aF73.7272
aVp4
p4712
aS'utopia'
p4713
aS'#656565'
p4714
aF8.88595
aI0
aI00
aI00
aI00
aI00
aI00
aI00
aI00
aI00
aa(lp4715
I194354
aF489.649
aF73.7272
aVp4
p4716
aS'utopia'
p4717
aS'#656565'
p4718
aF8.88595
aI0
aI00
aI00
aI00
aI00
aI00
aI00
aI00
aI00
aa(lp4719
I80364
aF504.459
aF73.7272
aVp4
p4720
aS'utopia'
p4721
aS'#656565'
p4722
aF8.88595
aI0
aI00
aI00
aI00
aI00
aI00
aI00
aI00
aI00
aa(lp4723
I141799
aF40.9084
aF84.0941
aVp4
p4724
aS'utopia'
p4725
aS'#656565'
p4726
aF8.88595
aI0
aI00
aI00
aI00
aI00
aI00
aI00
aI00
aI00
aa(lp4727
I135639
aF92.7431
aF84.0941
aVp4
p4728
aS'utopia'
p4729
aS'#656565'
p4730
aF8.88595
aI0
aI00
aI00
aI00
aI00
aI00
aI00
aI00
aI00
aa(lp4731
I194354
aF102.37
aF84.0941
aVp4
p4732
aS'utopia'
p4733
aS'#656565'
p4734
aF8.88595
aI0
aI00
aI00
aI00
aI00
aI00
aI00
aI00
aI00
aa(lp4735
I207716
aF117.18
aF84.0941
aVp4
p4736
aS'utopia'
p4737
aS'#656565'
p4738
aF8.88595
aI0
aI01
aI00
aI00
aI00
aI00
aI00
aI00
aI00
aa(lp4739
I85218
aF147.54
aF84.0941
aVp4
p4740
aS'utopia'
p4741
aS'#656565'
p4742
aF8.88595
aI0
aI00
aI00
aI00
aI00
aI00
aI00
aI00
aI00
aa(lp4743
I20593
aF164.571
aF84.0941
aVp4
p4744
aS'utopia'
p4745
aS'#656565'
p4746
aF8.88595
aI0
aI00
aI00
aI00
aI00
aI00
aI00
aI00
aI00
aa(lp4747
I234378
aF213.5496
aF84.0941
ag4744
aS'utopia'
p4748
aS'#656565'
p4749
aF8.88595
aI0
aI00
aI00
aI00
aI00
aI00
aI00
aI00
aI00
aa(lp4750
I177271
aF40.1679
aF127.061
aVp4
p4751
aS'utopia'
p4752
aS'#02304b'
p4753
aF11.8479
aI1
aI01
aI00
aI00
aI00
aI00
aI00
aI00
aI00
aa(lp4754
I234378
aF74.2307
aF127.061
aVp4
p4755
aS'utopia'
p4756
aS'#02304b'
p4757
aF11.8479
aI1
aI01
aI00
aI00
aI00
aI00
aI00
aI00
aI00
aa(lp4758
I7520
aF49.0539
aF151.373
aVp4
p4759
aS'utopia'
p4760
aS'#656565'
p4761
aF10.3669
aI1
aI01
aI00
aI00
aI00
aI00
aI00
aI00
aI00
aa(lp4762
I10865
aF93.4836
aF151.373
aVp4
p4763
aS'utopia'
p4764
aS'#656565'
p4765
aF10.3669
aI1
aI01
aI00
aI00
aI00
aI00
aI00
aI00
aI00
aa(lp4766
I132955
aF49.0539
aF167.03
aVp4
p4767
aS'utopia'
p4768
aS'#656565'
p4769
aF8.88595
aI0
aI01
aI00
aI00
aI00
aI00
aI00
aI00
aI00
aa(lp4770
I144489
aF69.7878
aF167.03
aVp4
p4771
aS'utopia'
p4772
aS'#656565'
p4773
aF8.88595
aI0
aI00
aI00
aI00
aI00
aI00
aI00
aI00
aI00
aa(lp4774
I132529
aF80.1547
aF167.03
aVp4
p4775
aS'utopia'
p4776
aS'#656565'
p4777
aF8.88595
aI0
aI01
aI00
aI00
aI00
aI00
aI00
aI00
aI00
aa(lp4778
I234378
aF98.76336666666667
aF167.03
ag4775
aS'utopia'
p4779
aS'#656565'
p4780
aF8.88595
aI0
aI00
aI00
aI00
aI00
aI00
aI00
aI00
aI00
aa(lp4781
I234378
aF104.591
aF167.03
aVp4
p4782
aS'utopia'
p4783
aS'#434343'
p4784
aF8.88595
aI0
aI00
aI00
aI01
aI01
aI01
aI00
aI00
aI00
aa(lp4785
I234378
aF115.699
aF167.03
aVp4
p4786
aS'utopia'
p4787
aS'#434343'
p4788
aF8.88595
aI0
aI01
aI00
aI00
aI00
aI00
aI00
aI00
aI01
aa(lp4789
I234378
aF133.47
aF167.03
aVp4
p4790
aS'utopia'
p4791
aS'#434343'
p4792
aF8.88595
aI0
aI00
aI00
aI01
aI01
aI01
aI00
aI00
aI00
aa(lp4793
I108944
aF49.0539
aF182.58
aVp4
p4794
aS'utopia'
p4795
aS'#656565'
p4796
aF8.88595
aI0
aI01
aI00
aI00
aI00
aI00
aI00
aI00
aI00
aa(lp4797
I234378
aF76.44544285714287
aF182.58
ag4794
aS'utopia'
p4798
aS'#656565'
p4799
aF8.88595
aI0
aI00
aI00
aI00
aI00
aI00
aI00
aI00
aI00
aa(lp4800
I104428
aF83.1167
aF182.58
aVp4
p4801
aS'utopia'
p4802
aS'#434343'
p4803
aF8.88595
aI0
aI01
aI00
aI00
aI00
aI00
aI00
aI00
aI00
aa(lp4804
I212271
aF49.0539
aF198.13
aVp4
p4805
aS'utopia'
p4806
aS'#656565'
p4807
aF8.88595
aI0
aI01
aI00
aI00
aI00
aI00
aI00
aI00
aI00
aa(lp4808
I12510
aF79.4142
aF198.13
aVp4
p4809
aS'utopia'
p4810
aS'#656565'
p4811
aF8.88595
aI0
aI01
aI00
aI00
aI00
aI00
aI00
aI00
aI00
aa(lp4812
I234378
aF101.72811428571428
aF198.13
ag4809
aS'utopia'
p4813
aS'#656565'
p4814
aF8.88595
aI0
aI00
aI00
aI00
aI00
aI00
aI00
aI00
aI00
aa(lp4815
I97834
aF107.553
aF198.13
aVp4
p4816
aS'utopia'
p4817
aS'#434343'
p4818
aF8.88595
aI0
aI01
aI00
aI00
aI00
aI00
aI00
aI00
aI00
aa(lp4819
I118366
aF49.0539
aF218.017
aVp4
p4820
aS'utopia'
p4821
aS'#656565'
p4822
aF10.3669
aI1
aI01
aI00
aI00
aI00
aI00
aI00
aI00
aI00
aa(lp4823
I234378
aF83.97235
aF218.017
ag4820
aS'utopia'
p4824
aS'#656565'
p4825
aF10.3669
aI1
aI00
aI00
aI00
aI00
aI00
aI00
aI00
aI00
aa(lp4826
I234378
aF49.0539
aF230.712
aVp4
p4827
aS'utopia'
p4828
aS'#000000'
p4829
aF8.88595
aI0
aI01
aI00
aI00
aI00
aI00
aI00
aI00
aI00
aa(lp4830
I111618
aF84.5977
aF230.712
aVp4
p4831
aS'utopia'
p4832
aS'#000000'
p4833
aF8.88595
aI0
aI01
aI00
aI00
aI00
aI00
aI00
aI00
aI00
aa(lp4834
I234378
aF103.05442000000001
aF230.712
ag4831
aS'utopia'
p4835
aS'#000000'
p4836
aF8.88595
aI0
aI00
aI00
aI00
aI00
aI00
aI00
aI00
aI00
aa(lp4837
I234378
aF109.775
aF230.712
aVp4
p4838
aS'utopia'
p4839
aS'#000000'
p4840
aF8.88595
aI0
aI01
aI00
aI00
aI00
aI00
aI00
aI00
aI00
aa(lp4841
I234378
aF49.0539
aF241.079
aVp4
p4842
aS'utopia'
p4843
aS'#000000'
p4844
aF8.88595
aI0
aI00
aI00
aI01
aI01
aI01
aI00
aI00
aI00
aa(lp4845
I182663
aF49.0539
aF254.408
aVp4
p4846
aS'utopia'
p4847
aS'#656565'
p4848
aF8.88595
aI0
aI01
aI00
aI00
aI00
aI00
aI00
aI00
aI00
aa(lp4849
I82279
aF76.4522
aF254.408
aVp4
p4850
aS'utopia'
p4851
aS'#656565'
p4852
aF8.88595
aI0
aI01
aI00
aI00
aI00
aI00
aI00
aI00
aI00
aa(lp4853
I234378
aF96.09372
aF254.408
ag4850
aS'utopia'
p4854
aS'#656565'
p4855
aF8.88595
aI0
aI00
aI00
aI00
aI00
aI00
aI00
aI00
aI00
aa(lp4856
I234378
aF103.11
aF254.408
aVp4
p4857
aS'utopia'
p4858
aS'#000000'
p4859
aF8.88595
aI0
aI01
aI00
aI00
aI00
aI00
aI00
aI00
aI00
aa(lp4860
I234378
aF301.563
aF141.853
aVp1
p4861
aS'utopia'
p4862
aS'#000000'
p4863
aF8.88595
aI0
aI00
aI00
aI01
aI01
aI01
aI00
aI00
aI00
aa(lp4864
I16915
aF308.227
aF176.656
aVp1
p4865
aS'utopia'
p4866
aS'#878787'
p4867
aF8.88595
aI0
aI01
aI00
aI00
aI00
aI00
aI00
aI00
aI00
aa(lp4868
I60220
aF330.442
aF176.656
aVp1
p4869
aS'utopia'
p4870
aS'#878787'
p4871
aF8.88595
aI0
aI01
aI00
aI00
aI00
aI00
aI00
aI00
aI00
aa(lp4872
I234378
aF372.28409090909093
aF176.656
ag4869
aS'utopia'
p4873
aS'#878787'
p4874
aF8.88595
aI0
aI00
aI00
aI00
aI00
aI00
aI00
aI00
aI00
aa(lp4875
I234378
aF380.796
aF176.656
aVp1
p4876
aS'utopia'
p4877
aS'#000000'
p4878
aF8.88595
aI0
aI00
aI00
aI01
aI01
aI00
aI00
aI00
aI00
aa(lp4879
I91136
aF387.46
aF176.656
aVp1
p4880
aS'utopia'
p4881
aS'#000000'
p4882
aF8.88595
aI0
aI01
aI00
aI00
aI00
aI00
aI00
aI00
aI00
aa(lp4883
I234378
aF403.18559999999997
aF176.656
ag4880
aS'utopia'
p4884
aS'#000000'
p4885
aF8.88595
aI0
aI00
aI00
aI00
aI00
aI00
aI00
aI00
aI00
aa(lp4886
I59734
aF407.11699999999996
aF176.656
ag4880
aS'utopia'
p4887
aS'#000000'
p4888
aF8.88595
aI0
aI00
aI00
aI00
aI00
aI00
aI00
aI00
aI00
aa(lp4889
I234378
aF411.04839999999996
aF176.656
ag4880
aS'utopia'
p4890
aS'#000000'
p4891
aF8.88595
aI0
aI00
aI00
aI00
aI00
aI00
aI00
aI00
aI00
aa(lp4892
I234378
aF417.08
aF176.656
aVp1
p4893
aS'utopia'
p4894
aS'#000000'
p4895
aF8.88595
aI0
aI00
aI00
aI01
aI01
aI00
aI00
aI00
aI00
aa(lp4896
I63729
aF423.745
aF176.656
aVp1
p4897
aS'utopia'
p4898
aS'#000000'
p4899
aF8.88595
aI0
aI01
aI00
aI00
aI00
aI00
aI00
aI00
aI00
aa(lp4900
I234378
aF446.4985625
aF176.656
ag4897
aS'utopia'
p4901
aS'#000000'
p4902
aF8.88595
aI0
aI00
aI00
aI00
aI00
aI00
aI00
aI00
aI00
aa(lp4903
I59734
aF451.04927499999997
aF176.656
ag4897
aS'utopia'
p4904
aS'#000000'
p4905
aF8.88595
aI0
aI00
aI00
aI00
aI00
aI00
aI00
aI00
aI00
aa(lp4906
I234378
aF455.59998749999994
aF176.656
ag4897
aS'utopia'
p4907
aS'#000000'
p4908
aF8.88595
aI0
aI00
aI00
aI00
aI00
aI00
aI00
aI00
aI00
aa(lp4909
I229300
aF308.227
aF194.428
aVp1
p4910
aS'utopia'
p4911
aS'#878787'
p4912
aF8.88595
aI0
aI01
aI00
aI00
aI00
aI00
aI00
aI00
aI00
aa(lp4913
I78894
aF338.588
aF194.428
aVp1
p4914
aS'utopia'
p4915
aS'#878787'
p4916
aF8.88595
aI0
aI01
aI00
aI00
aI00
aI00
aI00
aI00
aI00
aa(lp4917
I234378
aF360.9019142857143
aF194.428
ag4914
aS'utopia'
p4918
aS'#878787'
p4919
aF8.88595
aI0
aI00
aI00
aI00
aI00
aI00
aI00
aI00
aI00
aa(lp4920
I234378
aF368.948
aF194.428
aVp1
p4921
aS'utopia'
p4922
aS'#000000'
p4923
aF8.88595
aI0
aI01
aI00
aI00
aI00
aI00
aI00
aI00
aI00
aa(lp4924
I234378
aF380.796
aF194.428
aVp1
p4925
aS'utopia'
p4926
aS'#000000'
p4927
aF8.88595
aI0
aI00
aI00
aI01
aI01
aI01
aI00
aI00
aI00
aa(lp4928
I234378
aF388.88576
aF194.428
ag4925
aS'utopia'
p4929
aS'#000000'
p4930
aF8.88595
aI0
aI00
aI00
aI00
aI00
aI00
aI00
aI00
aI00
aa(lp4931
I234378
aF392.93064
aF194.428
ag4925
aS'utopia'
p4932
aS'#000000'
p4933
aF8.88595
aI0
aI00
aI00
aI01
aI01
aI01
aI00
aI00
aI00
aa(lp4934
I234378
aF403.011
aF194.428
aVp1
p4935
aS'utopia'
p4936
aS'#000000'
p4937
aF8.88595
aI0
aI01
aI00
aI00
aI00
aI00
aI00
aI00
aI00
aa(lp4938
I234378
aF308.227
aF212.2
aVp1
p4939
aS'utopia'
p4940
aS'#878787'
p4941
aF8.88595
aI0
aI01
aI00
aI00
aI00
aI00
aI00
aI00
aI00
aa(lp4942
I234378
aF346.733
aF212.2
aVp1
p4943
aS'utopia'
p4944
aS'#878787'
p4945
aF8.88595
aI0
aI01
aI01
aI00
aI00
aI00
aI00
aI00
aI00
aa(lp4946
I234378
aF361.2593
aF212.2
ag4943
aS'utopia'
p4947
aS'#878787'
p4948
aF8.88595
aI0
aI00
aI00
aI00
aI00
aI00
aI00
aI00
aI00
aa(lp4949
I63091
aF370.429
aF212.2
aVp1
p4950
aS'utopia'
p4951
aS'#000000'
p4952
aF8.88595
aI0
aI01
aI00
aI00
aI00
aI00
aI00
aI00
aI00
aa(lp4953
I234378
aF387.46
aF212.2
aVp1
p4954
aS'utopia'
p4955
aS'#000000'
p4956
aF8.88595
aI0
aI01
aI00
aI00
aI00
aI00
aI00
aI00
aI00
aa(lp4957
I7204
aF308.227
aF229.972
aVp1
p4958
aS'utopia'
p4959
aS'#878787'
p4960
aF8.88595
aI0
aI01
aI00
aI00
aI00
aI00
aI00
aI00
aI00
aa(lp4961
I189220
aF340.809
aF229.972
aVp1
p4962
aS'utopia'
p4963
aS'#878787'
p4964
aF8.88595
aI0
aI01
aI00
aI00
aI00
aI00
aI00
aI00
aI00
aa(lp4965
I234378
aF366.93111428571433
aF229.972
ag4962
aS'utopia'
p4966
aS'#878787'
p4967
aF8.88595
aI0
aI00
aI00
aI00
aI00
aI00
aI00
aI00
aI00
aa(lp4968
I234378
aF375.613
aF229.972
aVp1
p4969
aS'utopia'
p4970
aS'#000000'
p4971
aF8.88595
aI0
aI01
aI01
aI00
aI00
aI00
aI00
aI00
aI00
aa(lp4972
I48671
aF308.227
aF247.744
aVp1
p4973
aS'utopia'
p4974
aS'#878787'
p4975
aF8.88595
aI0
aI01
aI00
aI00
aI00
aI00
aI00
aI00
aI00
aa(lp4976
I129688
aF336.366
aF247.744
aVp1
p4977
aS'utopia'
p4978
aS'#878787'
p4979
aF8.88595
aI0
aI00
aI00
aI00
aI00
aI00
aI00
aI00
aI00
aa(lp4980
I234378
aF360.58405714285715
aF247.744
ag4977
aS'utopia'
p4981
aS'#878787'
p4982
aF8.88595
aI0
aI00
aI00
aI00
aI00
aI00
aI00
aI00
aI00
aa(lp4983
I234378
aF368.948
aF247.744
aVp1
p4984
aS'utopia'
p4985
aS'#000000'
p4986
aF8.88595
aI0
aI00
aI00
aI01
aI01
aI00
aI00
aI00
aI00
aa(lp4987
I234378
aF375.613
aF247.744
aVp1
p4988
aS'utopia'
p4989
aS'#000000'
p4990
aF8.88595
aI0
aI01
aI00
aI00
aI00
aI00
aI00
aI00
aI00
aa(lp4991
I86794
aF293.418
aF155.075
aVp4
p4992
aS'utopia'
p4993
aS'#656565'
p4994
aF10.3669
aI1
aI01
aI00
aI00
aI00
aI00
aI00
aI00
aI00
aa(lp4995
I131455
aF331.923
aF155.075
aVp4
p4996
aS'utopia'
p4997
aS'#656565'
p4998
aF10.3669
aI1
aI01
aI00
aI00
aI00
aI00
aI00
aI00
aI00
aa(lp4999
I234378
aF349.695
aF155.075
aVp4
p5000
aS'utopia'
p5001
aS'#656565'
p5002
aF10.3669
aI1
aI01
aI00
aI00
aI00
aI00
aI00
aI00
aI00
aa(lp5003
I131455
aF293.418
aF170.732
aVp4
p5004
aS'utopia'
p5005
aS'#656565'
p5006
aF8.88595
aI0
aI01
aI00
aI00
aI00
aI00
aI00
aI00
aI00
aa(lp5007
I197416
aF308.968
aF170.732
aVp4
p5008
aS'utopia'
p5009
aS'#656565'
p5010
aF8.88595
aI0
aI01
aI00
aI00
aI00
aI00
aI00
aI00
aI00
aa(lp5011
I234378
aF326.23992000000004
aF170.732
ag5008
aS'utopia'
p5012
aS'#656565'
p5013
aF8.88595
aI0
aI00
aI00
aI00
aI00
aI00
aI00
aI00
aI00
aa(lp5014
I28425
aF332.664
aF170.732
aVp4
p5015
aS'utopia'
p5016
aS'#434343'
p5017
aF8.88595
aI0
aI01
aI00
aI00
aI00
aI00
aI00
aI00
aI00
aa(lp5018
I72722
aF293.418
aF186.283
aVp4
p5019
aS'utopia'
p5020
aS'#656565'
p5021
aF8.88595
aI0
aI01
aI00
aI00
aI00
aI00
aI00
aI00
aI00
aa(lp5022
I12510
aF346.733
aF186.283
aVp4
p5023
aS'utopia'
p5024
aS'#656565'
p5025
aF8.88595
aI0
aI01
aI00
aI00
aI00
aI00
aI00
aI00
aI00
aa(lp5026
I234378
aF369.0469142857143
aF186.283
ag5023
aS'utopia'
p5027
aS'#656565'
p5028
aF8.88595
aI0
aI00
aI00
aI00
aI00
aI00
aI00
aI00
aI00
aa(lp5029
I60201
aF374.872
aF186.283
aVp4
p5030
aS'utopia'
p5031
aS'#434343'
p5032
aF8.88595
aI0
aI01
aI00
aI00
aI00
aI00
aI00
aI00
aI00
aa(lp5033
I230071
aF391.903
aF186.283
aVp4
p5034
aS'utopia'
p5035
aS'#434343'
p5036
aF8.88595
aI0
aI01
aI00
aI00
aI00
aI00
aI00
aI00
aI00
aa(lp5037
I51933
aF293.418
aF206.169
aVp4
p5038
aS'utopia'
p5039
aS'#656565'
p5040
aF10.3669
aI1
aI01
aI00
aI00
aI00
aI00
aI00
aI00
aI00
aa(lp5041
I62768
aF321.556
aF206.169
aVp4
p5042
aS'utopia'
p5043
aS'#656565'
p5044
aF10.3669
aI1
aI01
aI00
aI00
aI00
aI00
aI00
aI00
aI00
aa(lp5045
I31679
aF293.418
aF221.826
aVp4
p5046
aS'utopia'
p5047
aS'#656565'
p5048
aF8.88595
aI0
aI01
aI01
aI00
aI00
aI00
aI00
aI00
aI00
aa(lp5049
I51933
aF306.746
aF221.826
aVp4
p5050
aS'utopia'
p5051
aS'#656565'
p5052
aF8.88595
aI0
aI01
aI00
aI00
aI00
aI00
aI00
aI00
aI00
aa(lp5053
I12510
aF330.442
aF221.826
aVp4
p5054
aS'utopia'
p5055
aS'#656565'
p5056
aF8.88595
aI0
aI01
aI00
aI00
aI00
aI00
aI00
aI00
aI00
aa(lp5057
I234378
aF352.7559142857143
aF221.826
ag5054
aS'utopia'
p5058
aS'#656565'
p5059
aF8.88595
aI0
aI00
aI00
aI00
aI00
aI00
aI00
aI00
aI00
aa(lp5060
I63091
aF358.581
aF221.826
aVp4
p5061
aS'utopia'
p5062
aS'#434343'
p5063
aF8.88595
aI0
aI01
aI00
aI00
aI00
aI00
aI00
aI00
aI00
aa(lp5064
I234378
aF375.613
aF221.826
aVp4
p5065
aS'utopia'
p5066
aS'#434343'
p5067
aF8.88595
aI0
aI01
aI00
aI00
aI00
aI00
aI00
aI00
aI00
aa(lp5068
I234378
aF293.418
aF237.377
aVp4
p5069
aS'utopia'
p5070
aS'#656565'
p5071
aF8.88595
aI0
aI01
aI00
aI00
aI00
aI00
aI00
aI00
aI00
aa(lp5072
I234378
aF330.17652
aF237.377
ag5069
aS'utopia'
p5073
aS'#656565'
p5074
aF8.88595
aI0
aI00
aI00
aI00
aI00
aI00
aI00
aI00
aI00
aa(lp5075
I164802
aF336.366
aF237.377
aVp4
p5076
aS'utopia'
p5077
aS'#434343'
p5078
aF8.88595
aI0
aI01
aI00
aI00
aI00
aI00
aI00
aI00
aI00
aa(lp5079
I166771
aF293.418
aF257.264
aVp4
p5080
aS'utopia'
p5081
aS'#656565'
p5082
aF10.3669
aI1
aI01
aI00
aI00
aI00
aI00
aI00
aI00
aI00
aa(lp5083
I74833
aF349.695
aF257.264
aVp4
p5084
aS'utopia'
p5085
aS'#656565'
p5086
aF10.3669
aI1
aI01
aI00
aI00
aI00
aI00
aI00
aI00
aI00
aa(lp5087
I233758
aF293.418
aF272.921
aVp4
p5088
aS'utopia'
p5089
aS'#656565'
p5090
aF8.88595
aI0
aI01
aI00
aI00
aI00
aI00
aI00
aI00
aI00
aa(lp5091
I234378
aF327.0898222222222
aF272.921
ag5088
aS'utopia'
p5092
aS'#656565'
p5093
aF8.88595
aI0
aI00
aI00
aI00
aI00
aI00
aI00
aI00
aI00
aa(lp5094
I230332
aF333.404
aF272.921
aVp4
p5095
aS'utopia'
p5096
aS'#434343'
p5097
aF8.88595
aI0
aI01
aI00
aI00
aI00
aI00
aI00
aI00
aI00
aa(lp5098
I151511
aF293.418
aF288.471
aVp4
p5099
aS'utopia'
p5100
aS'#656565'
p5101
aF8.88595
aI0
aI01
aI00
aI00
aI00
aI00
aI00
aI00
aI00
aa(lp5102
I234378
aF334.145
aF288.471
aVp4
p5103
aS'utopia'
p5104
aS'#656565'
p5105
aF8.88595
aI0
aI01
aI00
aI00
aI00
aI00
aI00
aI00
aI00
aa(lp5106
I234378
aF375.9870909090909
aF288.471
ag5103
aS'utopia'
p5107
aS'#656565'
p5108
aF8.88595
aI0
aI00
aI00
aI00
aI00
aI00
aI00
aI00
aI00
aa(lp5109
I201816
aF382.277
aF288.471
aVp4
p5110
aS'utopia'
p5111
aS'#434343'
p5112
aF8.88595
aI0
aI01
aI00
aI00
aI00
aI00
aI00
aI00
aI00
aa(lp5113
I1
aI1
aI0
aI0
aI0
aI0
aI0
aI0
aI0
aI0
aI0
aI0
aI0
aI0
aI0
aI0
aI0
aI0
aI0
aI0
aI0
aI0
aI0
aI0
aI0
aI0
aI0
aI0
aI0
aI0
aI0
aI0
aI0
aI0
aI0
aI0
aI0
aI0
aI0
aI0
aI0
aI0
aI0
aI0
aI0
aI0
aI0
aI0
aI0
aI0
aI0
aI0
aI0
aI0
aI0
aI0
aI0
aI0
aI0
aI0
aI0
aI0
aI0
aI0
aI0
aI0
aI0
aI0
aI0
aI0
aI0
aI0
aI0
aI0
aI0
aI0
aI0
aI0
aI0
aI0
aI0
aI0
aI0
aI0
aI0
aI0
aI0
aI0
aI0
aI0
aI0
aI0
aI0
aI0
aI0
aI0
aI0
aI0
aI0
aI0
aI0
aI0
aI0
aI0
aI0
aI0
aI0
aI0
aI0
aI0
aI0
aI0
aI0
aI0
aI0
aI0
aI0
aI0
aI0
aI0
aI0
aI0
aI0
aI0
aI0
aI0
aI0
aI0
aI0
aI0
aI0
aI0
aI0
aI0
aI0
aI0
aI0
aI0
aI0
aI0
aI0
aI0
aI0
aI0
aI0
aI1
aI1
aI0
aI0
aI0
aI0
aI0
aI0
aI0
aI0
aI0
aI0
aI0
aI0
aI0
aI0
aI0
aI0
aI0
aI0
aI0
aI0
aI0
aI0
aI0
aI0
aI0
aI0
aI0
aI0
aI0
aI0
aI0
aI0
aI0
aI0
aI0
aI0
aI0
aI0
aI0
aI0
aI0
aI0
aI0
aI0
aI0
aI0
aI0
aI0
aI0
aI0
aI0
aI0
aI0
aI0
aI0
aI0
aI0
aI0
aI0
aI0
aI0
aI0
aI0
aI0
aI0
aI0
aI0
aI0
aI0
aI0
aI0
aI0
aI0
aI0
aI0
aI0
aI0
aI0
aI0
aI0
aI0
aI0
aI0
aI0
aI0
aI0
aI0
aI0
aI0
aI0
aI0
aI0
aI0
aI0
aI0
aI0
aI0
aI0
aI0
aI0
aI0
aI0
aI0
aI0
aI0
aI0
aI0
aI0
aI0
aI0
aI0
aI0
aI0
aI0
aI0
aI0
aI0
aI0
aI0
aI0
aI0
aI0
aI0
aI0
aI0
aI0
aI0
aI0
aI0
aI0
aI0
aI0
aI0
aI0
aI0
aI0
aI0
aI0
aI0
aI0
aI0
aI0
aI0
aI1
aI0
aI0
aI0
aI0
aI0
aI0
aI0
aI0
aI0
aI0
aI0
aI0
aI0
aI0
aI0
aI0
aI0
aI0
aI0
aI0
aI0
aI0
aI0
aI0
aI0
aI0
aI0
aI0
aI0
aI0
aI0
aI0
aI0
aI0
aI0
aI0
aI0
aI1
aI1
aI1
aI0
aI0
aI0
aI0
aI0
aI0
aI0
aI0
aI0
aI0
aI0
aI0
aI0
aI0
aI0
aI0
aI0
aI0
aI0
aI0
aI0
aI0
aI0
aI0
aI0
aI0
aI0
aI0
aI0
aI0
aI0
aI0
aI0
aI0
aI0
aI0
aI0
aI0
aI0
aI0
aI0
aI0
aI0
aI0
aI0
aI0
aI0
aI0
aI0
aI0
aI1
aI1
aI0
aI0
aI0
aI0
aI0
aI0
aI0
aI0
aI0
aI1
aI0
aI0
aI0
aI0
aI0
aI0
aI0
aI0
aI0
aI0
aI0
aI0
aI0
aI0
aI0
aI0
aI0
aI0
aI0
aI0
aI0
aI0
aI0
aI0
aI0
aI0
aI0
aI0
aI0
aI0
aI0
aI0
aI0
aI0
aI0
aI0
aI0
aI0
aI0
aI0
aI0
aI0
aI0
aI0
aI0
aI0
aI0
aI0
aI0
aI0
aI0
aI0
aI0
aI0
aI0
aI0
aI0
aI0
aI0
aI0
aI0
aI0
aI0
aI0
aI0
aI0
aI0
aI0
aI0
aI0
aI0
aI0
aI0
aI0
aI0
aI0
aI0
aI0
aI0
aI0
aI0
aI0
aI0
aI0
aI0
aI0
aI0
aI0
aI0
aI0
aI0
aI0
aI0
aI0
aI0
aI0
aI0
aI0
aI0
aI0
aI0
aI0
aI0
aI0
aI0
aI0
aI0
aI0
aI0
aI0
aI0
aI0
aI0
aI0
aI0
aI0
aI0
aI0
aI0
aI0
aI0
aI0
aI0
aI0
aI0
aI0
aI0
aI0
aI0
aI0
aI0
aI0
aI0
aI0
aI0
aI0
aI0
aI0
aI0
aI0
aI0
aI0
aI0
aI0
aI0
aI0
aI0
aI0
aI0
aI0
aI0
aI0
aI0
aI0
aI0
aI0
aI0
aI0
aI0
aI0
aI0
aI0
aI0
aI0
aI0
aI0
aI0
aI0
aI0
aI0
aI0
aI0
aI0
aI0
aI0
aI0
aI0
aI0
aI0
aI0
aI0
aI0
aI0
aI0
aI0
aI0
aI0
aI0
aI0
aI0
aI0
aI0
aI0
aI0
aI0
aI0
aI0
aI0
aI0
aI0
aI0
aI0
aI0
aI0
aI0
aI0
aI0
aI0
aI0
aI0
aI0
aI0
aI0
aI0
aI0
aI0
aI0
aI0
aI0
aI0
aI0
aI0
aI0
aI0
aI0
aI0
aI0
aI0
aI0
aI0
aI0
aI0
aI0
aI0
aI0
aI0
aI0
aI0
aI0
aI0
aI0
aI0
aI0
aI0
aI0
aI0
aI0
aI0
aI0
aI0
aI0
aI0
aI0
aI0
aI0
aI0
aI0
aI0
aI0
aI0
aI0
aI0
aI0
aI0
aI0
aI0
aI0
aI0
aI0
aI0
aI0
aI0
aI0
aI0
aI0
aI0
aI0
aI0
aI0
aI0
aI0
aI0
aI0
aI0
aI0
aI0
aI0
aI0
aI0
aI0
aI0
aI0
aI0
aI0
aI0
aI0
aI0
aI0
aI0
aI0
aI0
aI0
aI0
aI0
aI0
aI0
aI0
aI0
aI0
aI0
aI0
aI0
aI0
aI0
aI0
aI0
aI0
aI0
aI0
aI0
aI0
aI0
aI0
aI0
aI0
aI0
aI0
aI0
aI0
aI0
aI0
aI0
aI0
aI0
aI0
aI0
aI0
aI0
aI0
aI0
aI0
aI0
aI0
aI0
aI0
aI0
aI0
aI0
aI0
aI0
aI0
aI0
aI0
aI0
aI0
aI0
aI0
aI0
aI0
aI0
aI0
aI0
aI0
aI0
aI0
aI0
aI0
aI0
aI0
aI0
aI0
aI0
aI0
aI0
aI0
aI0
aI0
aI0
aI0
aI0
aI0
aI0
aI0
aI0
aI0
aI0
aI0
aI0
aI0
aI0
aI0
aI0
aI0
aI0
aI0
aI0
aI0
aI0
aI0
aI0
aI0
aI0
aI0
aI0
aI0
aI0
aI0
aI0
aI0
aI0
aI0
aI0
aI0
aI0
aI0
aI0
aI0
aI0
aI0
aI0
aI0
aI0
aI0
aI0
aI0
aI0
aI0
aI0
aI0
aI0
aI0
aI0
aI0
aI0
aI0
aI0
aI0
aI0
aI0
aI0
aI0
aI0
aI0
aI0
aI0
aI0
aI0
aI0
aI0
aI0
aI0
aI0
aI0
aI0
aI0
aI0
aI0
aI0
aI0
aI0
aI0
aI0
aI0
aI0
aI0
aI0
aI0
aI0
aI0
aI0
aI0
aI0
aI0
aI0
aI0
aI0
aI0
aI0
aI0
aI0
aI0
aI0
aI0
aI0
aI0
aI0
aI0
aI0
aI0
aI0
aI0
aI0
aI0
aI0
aI0
aI0
aI0
aI0
aI0
aI0
aI0
aI0
aI0
aI0
aI0
aI0
aI0
aI0
aI0
aI0
aI0
aI0
aI0
aI0
aI0
aI0
aI0
aI0
aI0
aI0
aI0
aI0
aI0
aI0
aI0
aI0
aI0
aI0
aI0
aI0
aI0
aI0
aI0
aI0
aI0
aI0
aI0
aI0
aI0
aI0
aI0
aI0
aI0
aI0
aI0
aI0
aI0
aI0
aI0
aI0
aI0
aI0
aI0
aI0
aI0
aI0
aI0
aI0
aI0
aI0
aI0
aI0
aI0
aI0
aI0
aI0
aI0
aI0
aI0
aI0
aI0
aI0
aI0
aI0
aI0
aI0
aI0
aI0
aI0
aI0
aI0
aI0
aI0
aI0
aI0
aI0
aI0
aI0
aI0
aI0
aI0
aI0
aI0
aI0
aI0
aI0
aI0
aI0
aI0
aI0
aI0
aI0
aI0
aI0
aI0
aI0
aI0
aI0
aI0
aI0
aI0
aI0
aI0
aI0
aI0
aI0
aI0
aI0
aI0
aI0
aI0
aI0
aI0
aI0
aI0
aI0
aI0
aI0
aI0
aI0
aI0
aI0
aI0
aI0
aI0
aI0
aI0
aI0
aI0
aI0
aI0
aI0
aI0
aI0
aI0
aI0
aI0
aI0
aI0
aI0
aI0
aI0
aI0
aI0
aI0
aI0
aI0
aI0
aI0
aI0
aI0
aI0
aI0
aI0
aI0
aI0
aI0
aI0
aI0
aI0
aI0
aI0
aI0
aI0
aI0
aI0
aI0
aI0
aI0
aI0
aI0
aI0
aI0
aI0
aI0
aI0
aI0
aI0
aI0
aI0
aI0
aI0
aI0
aI0
aI0
aI0
aI0
aI0
aI0
aI0
aI0
aI0
aI0
aI0
aI0
aI0
aI0
aI0
aI0
aI0
aI0
aI0
aI0
aI0
aI0
aI0
aI0
aI0
aI0
aI0
aI0
aI0
aI0
aI0
aI0
aI0
aI0
aI0
aI0
aI0
aI0
aI0
aI0
aI0
aI0
aI0
aI0
aI0
aI0
aI0
aI0
aI0
aI0
aI0
aI0
aI0
aI0
aI0
aI0
aI0
aI0
aI0
aI0
aI0
aI0
aI0
aI0
aI0
aI0
aI0
aI0
aI0
aI0
aI0
aI0
aI0
aI0
aI0
aI0
aI0
aI0
aI0
aI0
aI0
aI0
aI0
aI0
aI0
aI0
aI0
aI0
aI0
aI0
aI0
aI0
aI0
aI0
aI0
aI0
aI0
aI0
aI0
aI0
aI0
aI0
aI0
aI0
aI0
aI0
aI0
aI0
aI0
aI0
aI0
aI0
aI0
aI0
aI0
aI0
aI0
aI0
aI0
aI0
aI0
aI0
aI0
aI0
aI0
aI0
aI0
aI0
aI0
aI0
aI0
aI0
aI0
aI0
aI0
aI0
aI0
aI0
aI0
aI0
aI0
aI0
aI0
aI0
aI0
aI0
aI0
aI0
aI0
aI0
aI0
aI0
aI0
aI0
aI0
aI0
aI0
aI0
aI0
aI0
aI0
aI0
aI0
aI0
aI1
aI1
aI0
aI0
aI0
aI0
aI0
aI0
aI0
aI0
aI0
aI0
aI0
aI0
aI0
aI0
aI0
aI0
aI0
aI0
aI0
aI0
aI0
aI0
aI0
aI0
aI0
aI0
aI0
aI0
aI0
aI0
aI0
aI0
aI0
aI0
aI0
aI0
aI0
aI0
aI0
aI0
aI0
aI0
aI0
aI0
aI0
aI0
aI0
aI0
aI0
aI0
aI0
aI0
aI0
aI0
aI0
aI0
aI0
aI0
aI0
aI0
aI0
aI0
aI0
aI0
aI0
aI0
aI0
aI0
aI0
aI0
aI0
aI0
aI0
aI0
aI0
aI0
aI0
aI0
aI0
aI0
aI0
aI0
aI0
aI0
aI0
aI0
aI0
aI0
aI0
aI0
aI0
aI0
aI0
aI0
aI0
atp5114
.