((lp0
(lp1
I234378
aF40.9084
aF53.0111
aVp1
p2
aS'utopia'
p3
aS'#02304b'
p4
aF11.8479
aI1
aI01
aI00
aI00
aI00
aI00
aI00
aI00
aI00
aa(lp5
I234378
aF46.8324
aF74.4677
aVp1
p6
aS'utopia'
p7
aS'#656565'
p8
aF8.88595
aI0
aI01
aI00
aI00
aI00
aI00
aI00
aI00
aI00
aa(lp9
I234378
aF84.5977
aF74.4677
aVp1
p10
aS'utopia'
p11
aS'#656565'
p12
aF8.88595
aI0
aI00
aI00
aI00
aI00
aI00
aI00
aI00
aI00
aa(lp13
I234378
aF88.80371111111111
aF74.4677
ag10
aS'utopia'
p14
aS'#656565'
p15
aF8.88595
aI0
aI01
aI00
aI00
aI00
aI00
aI00
aI00
aI00
aa(lp16
I132100
aF124.584
aF74.4677
aVp1
p17
aS'utopia'
p18
aS'#656565'
p19
aF8.88595
aI0
aI01
aI00
aI00
aI00
aI00
aI00
aI00
aI00
aa(lp20
I234378
aF161.609
aF74.4677
aVp1
p21
aS'utopia'
p22
aS'#656565'
p23
aF8.88595
aI0
aI00
aI00
aI01
aI01
aI00
aI00
aI00
aI00
aa(lp24
I234378
aF165.37220000000002
aF74.4677
ag21
aS'utopia'
p25
aS'#656565'
p26
aF8.88595
aI0
aI00
aI00
aI00
aI00
aI00
aI00
aI00
aI00
aa(lp27
I234378
aF59.4208
aF124.081
aVp1
p28
aS'utopia'
p29
aS'#0d75b4'
p30
aF8.88595
aI0
aI00
aI00
aI00
aI00
aI00
aI01
aI00
aI00
aa(lp31
I234378
aF301.563
aF124.081
aVp1
p32
aS'utopia'
p33
aS'#000000'
p34
aF8.88595
aI0
aI00
aI00
aI01
aI01
aI01
aI00
aI00
aI00
aa(lp35
I15548
aF55.7183
aF158.884
aVp1
p36
aS'utopia'
p37
aS'#878787'
p38
aF8.88595
aI0
aI01
aI00
aI00
aI00
aI00
aI00
aI00
aI00
aa(lp39
I104542
aF89.0407
aF158.884
aVp1
p40
aS'utopia'
p41
aS'#878787'
p42
aF8.88595
aI0
aI01
aI00
aI00
aI00
aI00
aI00
aI00
aI00
aa(lp43
I234378
aF133.94655
aF158.884
ag40
aS'utopia'
p44
aS'#878787'
p45
aF8.88595
aI0
aI00
aI00
aI00
aI00
aI00
aI00
aI00
aI00
aa(lp46
I234378
aF142.356
aF158.884
aVp1
p47
aS'utopia'
p48
aS'#000000'
p49
aF8.88595
aI0
aI01
aI00
aI00
aI00
aI00
aI00
aI00
aI00
aa(lp50
I132100
aF179.381
aF158.884
aVp1
p51
aS'utopia'
p52
aS'#000000'
p53
aF8.88595
aI0
aI01
aI00
aI00
aI00
aI00
aI00
aI00
aI00
aa(lp54
I16915
aF308.227
aF158.884
aVp1
p55
aS'utopia'
p56
aS'#878787'
p57
aF8.88595
aI0
aI01
aI00
aI00
aI00
aI00
aI00
aI00
aI00
aa(lp58
I60220
aF330.442
aF158.884
aVp1
p59
aS'utopia'
p60
aS'#878787'
p61
aF8.88595
aI0
aI01
aI00
aI00
aI00
aI00
aI00
aI00
aI00
aa(lp62
I234378
aF372.28409090909093
aF158.884
ag59
aS'utopia'
p63
aS'#878787'
p64
aF8.88595
aI0
aI00
aI00
aI00
aI00
aI00
aI00
aI00
aI00
aa(lp65
I234378
aF380.796
aF158.884
aVp1
p66
aS'utopia'
p67
aS'#000000'
p68
aF8.88595
aI0
aI00
aI00
aI01
aI01
aI00
aI00
aI00
aI00
aa(lp69
I91136
aF387.46
aF158.884
aVp1
p70
aS'utopia'
p71
aS'#000000'
p72
aF8.88595
aI0
aI01
aI00
aI00
aI00
aI00
aI00
aI00
aI00
aa(lp73
I234378
aF403.18559999999997
aF158.884
ag70
aS'utopia'
p74
aS'#000000'
p75
aF8.88595
aI0
aI00
aI00
aI00
aI00
aI00
aI00
aI00
aI00
aa(lp76
I59734
aF407.11699999999996
aF158.884
ag70
aS'utopia'
p77
aS'#000000'
p78
aF8.88595
aI0
aI00
aI00
aI00
aI00
aI00
aI00
aI00
aI00
aa(lp79
I234378
aF411.04839999999996
aF158.884
ag70
aS'utopia'
p80
aS'#000000'
p81
aF8.88595
aI0
aI00
aI00
aI00
aI00
aI00
aI00
aI00
aI00
aa(lp82
I234378
aF417.08
aF158.884
aVp1
p83
aS'utopia'
p84
aS'#000000'
p85
aF8.88595
aI0
aI00
aI00
aI01
aI01
aI00
aI00
aI00
aI00
aa(lp86
I63729
aF423.745
aF158.884
aVp1
p87
aS'utopia'
p88
aS'#000000'
p89
aF8.88595
aI0
aI01
aI00
aI00
aI00
aI00
aI00
aI00
aI00
aa(lp90
I234378
aF446.4985625
aF158.884
ag87
aS'utopia'
p91
aS'#000000'
p92
aF8.88595
aI0
aI00
aI00
aI00
aI00
aI00
aI00
aI00
aI00
aa(lp93
I59734
aF451.04927499999997
aF158.884
ag87
aS'utopia'
p94
aS'#000000'
p95
aF8.88595
aI0
aI00
aI00
aI00
aI00
aI00
aI00
aI00
aI00
aa(lp96
I234378
aF455.59998749999994
aF158.884
ag87
aS'utopia'
p97
aS'#000000'
p98
aF8.88595
aI0
aI00
aI00
aI00
aI00
aI00
aI00
aI00
aI00
aa(lp99
I15548
aF55.7183
aF176.656
aVp1
p100
aS'utopia'
p101
aS'#878787'
p102
aF8.88595
aI0
aI01
aI00
aI00
aI00
aI00
aI00
aI00
aI00
aa(lp103
I2006
aF89.0407
aF176.656
aVp1
p104
aS'utopia'
p105
aS'#878787'
p106
aF8.88595
aI0
aI01
aI00
aI00
aI00
aI00
aI00
aI00
aI00
aa(lp107
I234378
aF124.77815
aF176.656
ag104
aS'utopia'
p108
aS'#878787'
p109
aF8.88595
aI0
aI00
aI00
aI00
aI00
aI00
aI00
aI00
aI00
aa(lp110
I234378
aF134.211
aF176.656
aVp1
p111
aS'utopia'
p112
aS'#000000'
p113
aF8.88595
aI0
aI01
aI00
aI00
aI00
aI00
aI00
aI00
aI00
aa(lp114
I229300
aF308.227
aF176.656
aVp1
p115
aS'utopia'
p116
aS'#878787'
p117
aF8.88595
aI0
aI01
aI00
aI00
aI00
aI00
aI00
aI00
aI00
aa(lp118
I78894
aF338.588
aF176.656
aVp1
p119
aS'utopia'
p120
aS'#878787'
p121
aF8.88595
aI0
aI01
aI00
aI00
aI00
aI00
aI00
aI00
aI00
aa(lp122
I234378
aF360.9019142857143
aF176.656
ag119
aS'utopia'
p123
aS'#878787'
p124
aF8.88595
aI0
aI00
aI00
aI00
aI00
aI00
aI00
aI00
aI00
aa(lp125
I234378
aF368.948
aF176.656
aVp1
p126
aS'utopia'
p127
aS'#000000'
p128
aF8.88595
aI0
aI01
aI00
aI00
aI00
aI00
aI00
aI00
aI00
aa(lp129
I234378
aF380.796
aF176.656
aVp1
p130
aS'utopia'
p131
aS'#000000'
p132
aF8.88595
aI0
aI00
aI00
aI01
aI01
aI01
aI00
aI00
aI00
aa(lp133
I234378
aF391.903
aF176.656
aVp1
p134
aS'utopia'
p135
aS'#000000'
p136
aF8.88595
aI0
aI01
aI00
aI00
aI00
aI00
aI00
aI00
aI00
aa(lp137
I15548
aF55.7183
aF194.428
aVp1
p138
aS'utopia'
p139
aS'#878787'
p140
aF8.88595
aI0
aI01
aI00
aI00
aI00
aI00
aI00
aI00
aI00
aa(lp141
I17057
aF89.0407
aF194.428
aVp1
p142
aS'utopia'
p143
aS'#878787'
p144
aF8.88595
aI0
aI01
aI00
aI00
aI00
aI00
aI00
aI00
aI00
aa(lp145
I234378
aF122.05430000000001
aF194.428
ag142
aS'utopia'
p146
aS'#878787'
p147
aF8.88595
aI0
aI00
aI00
aI00
aI00
aI00
aI00
aI00
aI00
aa(lp148
I234378
aF130.508
aF194.428
aVp1
p149
aS'utopia'
p150
aS'#000000'
p151
aF8.88595
aI0
aI01
aI00
aI00
aI00
aI00
aI00
aI00
aI00
aa(lp152
I234378
aF308.227
aF194.428
aVp1
p153
aS'utopia'
p154
aS'#878787'
p155
aF8.88595
aI0
aI01
aI00
aI00
aI00
aI00
aI00
aI00
aI00
aa(lp156
I234378
aF346.733
aF194.428
aVp1
p157
aS'utopia'
p158
aS'#878787'
p159
aF8.88595
aI0
aI01
aI01
aI00
aI00
aI00
aI00
aI00
aI00
aa(lp160
I234378
aF361.2593
aF194.428
ag157
aS'utopia'
p161
aS'#878787'
p162
aF8.88595
aI0
aI00
aI00
aI00
aI00
aI00
aI00
aI00
aI00
aa(lp163
I63091
aF370.429
aF194.428
aVp1
p164
aS'utopia'
p165
aS'#000000'
p166
aF8.88595
aI0
aI01
aI00
aI00
aI00
aI00
aI00
aI00
aI00
aa(lp167
I234378
aF387.46
aF194.428
aVp1
p168
aS'utopia'
p169
aS'#000000'
p170
aF8.88595
aI0
aI01
aI00
aI00
aI00
aI00
aI00
aI00
aI00
aa(lp171
I234378
aF55.7183
aF212.2
aVp1
p172
aS'utopia'
p173
aS'#878787'
p174
aF8.88595
aI0
aI01
aI00
aI00
aI00
aI00
aI00
aI00
aI00
aa(lp175
I234378
aF70.62062
aF212.2
ag172
aS'utopia'
p176
aS'#878787'
p177
aF8.88595
aI0
aI00
aI00
aI00
aI00
aI00
aI00
aI00
aI00
aa(lp178
I17057
aF76.4522
aF212.2
aVp1
p179
aS'utopia'
p180
aS'#878787'
p181
aF8.88595
aI0
aI01
aI00
aI00
aI00
aI00
aI00
aI00
aI00
aa(lp182
I234378
aF109.4658
aF212.2
ag179
aS'utopia'
p183
aS'#878787'
p184
aF8.88595
aI0
aI00
aI00
aI00
aI00
aI00
aI00
aI00
aI00
aa(lp185
I234378
aF117.92
aF212.2
aVp1
p186
aS'utopia'
p187
aS'#000000'
p188
aF8.88595
aI0
aI01
aI00
aI00
aI00
aI00
aI00
aI00
aI00
aa(lp189
I7204
aF308.227
aF212.2
aVp1
p190
aS'utopia'
p191
aS'#878787'
p192
aF8.88595
aI0
aI01
aI00
aI00
aI00
aI00
aI00
aI00
aI00
aa(lp193
I189220
aF340.809
aF212.2
aVp1
p194
aS'utopia'
p195
aS'#878787'
p196
aF8.88595
aI0
aI01
aI00
aI00
aI00
aI00
aI00
aI00
aI00
aa(lp197
I234378
aF366.93111428571433
aF212.2
ag194
aS'utopia'
p198
aS'#878787'
p199
aF8.88595
aI0
aI00
aI00
aI00
aI00
aI00
aI00
aI00
aI00
aa(lp200
I27780
aF375.613
aF212.2
aVp1
p201
aS'utopia'
p202
aS'#000000'
p203
aF8.88595
aI0
aI01
aI01
aI00
aI00
aI00
aI00
aI00
aI00
aa(lp204
I234378
aF379.93184545454545
aF212.2
ag201
aS'utopia'
p205
aS'#000000'
p206
aF8.88595
aI0
aI00
aI00
aI00
aI00
aI00
aI00
aI00
aI00
aa(lp207
I2737
aF384.2506909090909
aF212.2
ag201
aS'utopia'
p208
aS'#000000'
p209
aF8.88595
aI0
aI01
aI00
aI00
aI00
aI00
aI00
aI00
aI00
aa(lp210
I234378
aF401.5260727272727
aF212.2
ag201
aS'utopia'
p211
aS'#000000'
p212
aF8.88595
aI0
aI00
aI00
aI00
aI00
aI00
aI00
aI00
aI00
aa(lp213
I27780
aF398.8449181818182
aF212.2
ag201
aS'utopia'
p214
aS'#000000'
p215
aF8.88595
aI0
aI01
aI01
aI00
aI00
aI00
aI00
aI00
aI00
aa(lp216
I234378
aF403.1637636363636
aF212.2
ag201
aS'utopia'
p217
aS'#000000'
p218
aF8.88595
aI0
aI00
aI00
aI00
aI00
aI00
aI00
aI00
aI00
aa(lp219
I64620
aF414.4826090909091
aF212.2
ag201
aS'utopia'
p220
aS'#000000'
p221
aF8.88595
aI0
aI01
aI01
aI00
aI00
aI00
aI00
aI00
aI00
aa(lp222
I234378
aF409.80145454545453
aF212.2
ag201
aS'utopia'
p223
aS'#000000'
p224
aF8.88595
aI0
aI00
aI00
aI00
aI00
aI00
aI00
aI00
aI00
aa(lp225
I98580
aF55.7183
aF229.972
aVp1
p226
aS'utopia'
p227
aS'#878787'
p228
aF8.88595
aI0
aI01
aI00
aI00
aI00
aI00
aI00
aI00
aI00
aa(lp229
I166289
aF100.148
aF229.972
aVp1
p230
aS'utopia'
p231
aS'#878787'
p232
aF8.88595
aI0
aI01
aI00
aI00
aI00
aI00
aI00
aI00
aI00
aa(lp233
I234378
aF116.82751999999999
aF229.972
ag230
aS'utopia'
p234
aS'#878787'
p235
aF8.88595
aI0
aI00
aI00
aI00
aI00
aI00
aI00
aI00
aI00
aa(lp236
I22476
aF125.325
aF229.972
aVp1
p237
aS'utopia'
p238
aS'#000000'
p239
aF8.88595
aI0
aI01
aI01
aI00
aI00
aI00
aI00
aI00
aI00
aa(lp240
I234378
aF135.692
aF229.972
aVp1
p241
aS'utopia'
p242
aS'#000000'
p243
aF8.88595
aI0
aI01
aI00
aI00
aI00
aI00
aI00
aI00
aI00
aa(lp244
I123665
aF178.641
aF229.972
aVp1
p245
aS'utopia'
p246
aS'#000000'
p247
aF8.88595
aI0
aI01
aI00
aI00
aI00
aI00
aI00
aI00
aI00
aa(lp248
I234378
aF226.032
aF229.972
aVp1
p249
aS'utopia'
p250
aS'#000000'
p251
aF8.88595
aI0
aI01
aI00
aI00
aI00
aI00
aI00
aI00
aI00
aa(lp252
I234378
aF283.051
aF229.972
aVp1
p253
aS'utopia'
p254
aS'#000000'
p255
aF8.88595
aI0
aI00
aI00
aI00
aI00
aI00
aI00
aI00
aI00
aa(lp256
I20593
aF55.7183
aF240.339
aVp1
p257
aS'utopia'
p258
aS'#000000'
p259
aF8.88595
aI0
aI01
aI00
aI00
aI00
aI00
aI00
aI00
aI00
aa(lp260
I48671
aF308.227
aF229.972
aVp1
p261
aS'utopia'
p262
aS'#878787'
p263
aF8.88595
aI0
aI01
aI00
aI00
aI00
aI00
aI00
aI00
aI00
aa(lp264
I129688
aF336.366
aF229.972
aVp1
p265
aS'utopia'
p266
aS'#878787'
p267
aF8.88595
aI0
aI00
aI00
aI00
aI00
aI00
aI00
aI00
aI00
aa(lp268
I234378
aF360.58405714285715
aF229.972
ag265
aS'utopia'
p269
aS'#878787'
p270
aF8.88595
aI0
aI00
aI00
aI00
aI00
aI00
aI00
aI00
aI00
aa(lp271
I234378
aF368.948
aF229.972
aVp1
p272
aS'utopia'
p273
aS'#000000'
p274
aF8.88595
aI0
aI00
aI00
aI01
aI01
aI00
aI00
aI00
aI00
aa(lp275
I234378
aF375.613
aF229.972
aVp1
p276
aS'utopia'
p277
aS'#000000'
p278
aF8.88595
aI0
aI01
aI00
aI00
aI00
aI00
aI00
aI00
aI00
aa(lp279
I176435
aF55.7183
aF258.111
aVp1
p280
aS'utopia'
p281
aS'#878787'
p282
aF8.88595
aI0
aI01
aI00
aI00
aI00
aI00
aI00
aI00
aI00
aa(lp283
I234378
aF71.80542
aF258.111
ag280
aS'utopia'
p284
aS'#878787'
p285
aF8.88595
aI0
aI00
aI00
aI00
aI00
aI00
aI00
aI00
aI00
aa(lp286
I234378
aF80.1547
aF258.111
aVp1
p287
aS'utopia'
p288
aS'#000000'
p289
aF8.88595
aI0
aI01
aI00
aI00
aI00
aI00
aI00
aI00
aI00
aa(lp290
I100815
aF117.18
aF258.111
aVp1
p291
aS'utopia'
p292
aS'#000000'
p293
aF8.88595
aI0
aI01
aI00
aI00
aI00
aI00
aI00
aI00
aI00
aa(lp294
I74589
aF55.7183
aF275.883
aVp1
p295
aS'utopia'
p296
aS'#878787'
p297
aF8.88595
aI0
aI01
aI00
aI00
aI00
aI00
aI00
aI00
aI00
aa(lp298
I234378
aF87.41545555555555
aF275.883
ag295
aS'utopia'
p299
aS'#878787'
p300
aF8.88595
aI0
aI00
aI00
aI00
aI00
aI00
aI00
aI00
aI00
aa(lp301
I22476
aF95.7051
aF275.883
aVp1
p302
aS'utopia'
p303
aS'#000000'
p304
aF8.88595
aI0
aI01
aI01
aI00
aI00
aI00
aI00
aI00
aI00
aa(lp305
I234378
aF105.30374
aF275.883
ag302
aS'utopia'
p306
aS'#000000'
p307
aF8.88595
aI0
aI01
aI00
aI00
aI00
aI00
aI00
aI00
aI00
aa(lp308
I234378
aF139.69830000000002
aF275.883
ag302
aS'utopia'
p309
aS'#000000'
p310
aF8.88595
aI0
aI00
aI00
aI00
aI00
aI00
aI00
aI00
aI00
aa(lp311
I234378
aF134.99762
aF275.883
ag302
aS'utopia'
p312
aS'#000000'
p313
aF8.88595
aI0
aI01
aI00
aI00
aI00
aI00
aI00
aI00
aI00
aa(lp314
I234378
aF183.824
aF275.883
aVp1
p315
aS'utopia'
p316
aS'#000000'
p317
aF8.88595
aI0
aI01
aI00
aI00
aI00
aI00
aI00
aI00
aI00
aa(lp318
I234378
aF55.7183
aF293.654
aVp1
p319
aS'utopia'
p320
aS'#878787'
p321
aF8.88595
aI0
aI01
aI00
aI00
aI00
aI00
aI00
aI00
aI00
aa(lp322
I234378
aF72.7498
aF293.654
aVp1
p323
aS'utopia'
p324
aS'#878787'
p325
aF8.88595
aI0
aI01
aI00
aI00
aI00
aI00
aI00
aI00
aI00
aa(lp326
I234378
aF91.25542857142857
aF293.654
ag323
aS'utopia'
p327
aS'#878787'
p328
aF8.88595
aI0
aI00
aI00
aI00
aI00
aI00
aI00
aI00
aI00
aa(lp329
I84662
aF98.6671
aF293.654
aVp1
p330
aS'utopia'
p331
aS'#000000'
p332
aF8.88595
aI0
aI01
aI00
aI00
aI00
aI00
aI00
aI00
aI00
aa(lp333
I21716
aF120.141
aF293.654
aVp1
p334
aS'utopia'
p335
aS'#000000'
p336
aF8.88595
aI0
aI01
aI00
aI00
aI00
aI00
aI00
aI00
aI00
aa(lp337
I234378
aF138.654
aF293.654
aVp1
p338
aS'utopia'
p339
aS'#000000'
p340
aF8.88595
aI0
aI00
aI00
aI00
aI00
aI00
aI00
aI00
aI00
aa(lp341
I132957
aF143.097
aF293.654
aVp1
p342
aS'utopia'
p343
aS'#000000'
p344
aF8.88595
aI0
aI01
aI00
aI00
aI00
aI00
aI00
aI00
aI00
aa(lp345
I234378
aF163.831
aF293.654
aVp1
p346
aS'utopia'
p347
aS'#000000'
p348
aF8.88595
aI0
aI01
aI00
aI00
aI00
aI00
aI00
aI00
aI00
aa(lp349
I234378
aF206.779
aF293.654
aVp1
p350
aS'utopia'
p351
aS'#000000'
p352
aF8.88595
aI0
aI00
aI00
aI00
aI00
aI00
aI00
aI00
aI00
aa(lp353
I234378
aF211.222
aF293.654
aVp1
p354
aS'utopia'
p355
aS'#000000'
p356
aF8.88595
aI0
aI01
aI00
aI00
aI00
aI00
aI00
aI00
aI00
aa(lp357
I234378
aF257.133
aF293.654
aVp1
p358
aS'utopia'
p359
aS'#000000'
p360
aF8.88595
aI0
aI00
aI00
aI00
aI00
aI00
aI00
aI00
aI00
aa(lp361
I148996
aF261.576
aF293.654
aVp1
p362
aS'utopia'
p363
aS'#000000'
p364
aF8.88595
aI0
aI01
aI00
aI00
aI00
aI00
aI00
aI00
aI00
aa(lp365
I234378
aF55.7183
aF304.021
aVp1
p366
aS'utopia'
p367
aS'#000000'
p368
aF8.88595
aI0
aI01
aI00
aI00
aI00
aI00
aI00
aI00
aI00
aa(lp369
I234378
aF70.2446
aF304.021
ag366
aS'utopia'
p370
aS'#000000'
p371
aF8.88595
aI0
aI00
aI00
aI00
aI00
aI00
aI00
aI00
aI00
aa(lp372
I176767
aF77.1927
aF304.021
aVp1
p373
aS'utopia'
p374
aS'#000000'
p375
aF8.88595
aI0
aI01
aI00
aI00
aI00
aI00
aI00
aI00
aI00
aa(lp376
I234378
aF115.28412
aF304.021
ag373
aS'utopia'
p377
aS'#000000'
p378
aF8.88595
aI0
aI00
aI00
aI00
aI00
aI00
aI00
aI00
aI00
aa(lp379
I234378
aF121.622
aF304.021
aVp1
p380
aS'utopia'
p381
aS'#000000'
p382
aF8.88595
aI0
aI01
aI00
aI00
aI00
aI00
aI00
aI00
aI00
aa(lp383
I234378
aF158.75181818181818
aF304.021
ag380
aS'utopia'
p384
aS'#000000'
p385
aF8.88595
aI0
aI00
aI00
aI00
aI00
aI00
aI00
aI00
aI00
aa(lp386
I234378
aF164.571
aF304.021
aVp1
p387
aS'utopia'
p388
aS'#000000'
p389
aF8.88595
aI0
aI01
aI00
aI00
aI00
aI00
aI00
aI00
aI00
aa(lp390
I234378
aF190.05848571428572
aF304.021
ag387
aS'utopia'
p391
aS'#000000'
p392
aF8.88595
aI0
aI00
aI00
aI00
aI00
aI00
aI00
aI00
aI00
aa(lp393
I234378
aF196.413
aF304.021
aVp1
p394
aS'utopia'
p395
aS'#000000'
p396
aF8.88595
aI0
aI01
aI00
aI00
aI00
aI00
aI00
aI00
aI00
aa(lp397
I234378
aF221.8095
aF304.021
ag394
aS'utopia'
p398
aS'#000000'
p399
aF8.88595
aI0
aI00
aI00
aI00
aI00
aI00
aI00
aI00
aI00
aa(lp400
I234378
aF228.994
aF304.021
aVp1
p401
aS'utopia'
p402
aS'#000000'
p403
aF8.88595
aI0
aI01
aI00
aI00
aI00
aI00
aI00
aI00
aI00
aa(lp404
I234378
aF266.67526250000003
aF304.021
ag401
aS'utopia'
p405
aS'#000000'
p406
aF8.88595
aI0
aI00
aI00
aI00
aI00
aI00
aI00
aI00
aI00
aa(lp407
I51933
aF40.1679
aF341.064
aVp1
p408
aS'utopia'
p409
aS'#02304b'
p410
aF11.8479
aI1
aI01
aI00
aI00
aI00
aI00
aI00
aI00
aI00
aa(lp411
I60220
aF72.0093
aF341.064
aVp1
p412
aS'utopia'
p413
aS'#02304b'
p414
aF11.8479
aI1
aI01
aI00
aI00
aI00
aI00
aI00
aI00
aI00
aa(lp415
I234378
aF40.9084
aF372.781
aVp1
p416
aS'utopia'
p417
aS'#000000'
p418
aF10.3669
aI1
aI01
aI00
aI00
aI00
aI00
aI00
aI00
aI00
aa(lp419
I234378
aF88.3002
aF373.05
aVp1
p420
aS'utopia'
p421
aS'#656565'
p422
aF10.3669
aI0
aI00
aI00
aI00
aI00
aI00
aI00
aI00
aI00
aa(lp423
I15548
aF93.277625
aF373.05
ag420
aS'utopia'
p424
aS'#656565'
p425
aF10.3669
aI0
aI01
aI00
aI00
aI00
aI00
aI00
aI00
aI00
aa(lp426
I70289
aF130.508
aF373.05
aVp1
p427
aS'utopia'
p428
aS'#656565'
p429
aF10.3669
aI0
aI01
aI00
aI00
aI00
aI00
aI00
aI00
aI00
aa(lp430
I234378
aF173.8569777777778
aF373.05
ag427
aS'utopia'
p431
aS'#656565'
p432
aF10.3669
aI0
aI00
aI00
aI00
aI00
aI00
aI00
aI00
aI00
aa(lp433
I234378
aF40.9084
aF389.341
aVp1
p434
aS'utopia'
p435
aS'#656565'
p436
aF10.3669
aI0
aI01
aI00
aI00
aI00
aI00
aI00
aI00
aI00
aa(lp437
I132100
aF83.8572
aF389.341
aVp1
p438
aS'utopia'
p439
aS'#656565'
p440
aF10.3669
aI0
aI01
aI00
aI00
aI00
aI00
aI00
aI00
aI00
aa(lp441
I234378
aF131.989
aF389.341
aVp1
p442
aS'utopia'
p443
aS'#656565'
p444
aF10.3669
aI0
aI01
aI00
aI00
aI00
aI00
aI00
aI00
aI01
aa(lp445
I234378
aF146.799
aF389.341
aVp1
p446
aS'utopia'
p447
aS'#656565'
p448
aF10.3669
aI0
aI00
aI00
aI01
aI01
aI01
aI00
aI00
aI00
aa(lp449
I148996
aF40.9084
aF409.172
aVp1
p450
aS'utopia'
p451
aS'#656565'
p452
aF8.88595
aI0
aI01
aI00
aI00
aI00
aI00
aI00
aI00
aI00
aa(lp453
I234378
aF68.3068
aF409.172
aVp1
p454
aS'utopia'
p455
aS'#656565'
p456
aF8.88595
aI0
aI00
aI00
aI00
aI00
aI00
aI00
aI00
aI00
aa(lp457
I176767
aF72.7498
aF409.172
aVp1
p458
aS'utopia'
p459
aS'#656565'
p460
aF8.88595
aI0
aI01
aI00
aI00
aI00
aI00
aI00
aI00
aI00
aa(lp461
I234378
aF114.958
aF409.172
aVp1
p462
aS'utopia'
p463
aS'#656565'
p464
aF8.88595
aI0
aI00
aI00
aI00
aI00
aI00
aI00
aI00
aI00
aa(lp465
I234378
aF119.401
aF409.172
aVp1
p466
aS'utopia'
p467
aS'#656565'
p468
aF8.88595
aI0
aI01
aI01
aI00
aI00
aI00
aI00
aI00
aI00
aa(lp469
I234378
aF137.913
aF409.172
aVp1
p470
aS'utopia'
p471
aS'#656565'
p472
aF8.88595
aI0
aI00
aI00
aI00
aI00
aI00
aI00
aI00
aI00
aa(lp473
I201816
aF142.5722
aF409.172
ag470
aS'utopia'
p474
aS'#656565'
p475
aF8.88595
aI0
aI01
aI00
aI00
aI00
aI00
aI00
aI00
aI00
aa(lp476
I234378
aF154.204
aF409.172
aVp1
p477
aS'utopia'
p478
aS'#656565'
p479
aF8.88595
aI0
aI01
aI00
aI00
aI00
aI00
aI00
aI00
aI00
aa(lp480
I48671
aF40.9084
aF419.539
aVp1
p481
aS'utopia'
p482
aS'#656565'
p483
aF8.88595
aI0
aI01
aI00
aI00
aI00
aI00
aI00
aI00
aI00
aa(lp484
I129688
aF69.0473
aF419.539
aVp1
p485
aS'utopia'
p486
aS'#656565'
p487
aF8.88595
aI0
aI01
aI00
aI00
aI00
aI00
aI00
aI00
aI00
aa(lp488
I234378
aF97.1861
aF419.539
aVp1
p489
aS'utopia'
p490
aS'#656565'
p491
aF8.88595
aI0
aI00
aI00
aI00
aI00
aI00
aI00
aI00
aI00
aa(lp492
I234378
aF101.629
aF419.539
aVp1
p493
aS'utopia'
p494
aS'#656565'
p495
aF8.88595
aI0
aI00
aI00
aI01
aI01
aI00
aI00
aI00
aI00
aa(lp496
I234378
aF108.294
aF419.539
aVp1
p497
aS'utopia'
p498
aS'#656565'
p499
aF8.88595
aI0
aI01
aI00
aI00
aI00
aI00
aI00
aI00
aI00
aa(lp500
I124019
aF40.9084
aF452.754
aVp1
p501
aS'utopia'
p502
aS'#000000'
p503
aF10.3669
aI1
aI01
aI00
aI00
aI00
aI00
aI00
aI00
aI00
aa(lp504
I234378
aF72.0093
aF452.754
aVp1
p505
aS'utopia'
p506
aS'#000000'
p507
aF10.3669
aI1
aI01
aI00
aI00
aI00
aI00
aI00
aI00
aI00
aa(lp508
I123665
aF40.9084
aF469.315
aVp1
p509
aS'utopia'
p510
aS'#656565'
p511
aF10.3669
aI0
aI01
aI00
aI00
aI00
aI00
aI00
aI00
aI00
aa(lp512
I100815
aF98.6671
aF469.315
aVp1
p513
aS'utopia'
p514
aS'#656565'
p515
aF10.3669
aI0
aI01
aI00
aI00
aI00
aI00
aI00
aI00
aI00
aa(lp516
I61519
aF153.464
aF469.315
aVp1
p517
aS'utopia'
p518
aS'#656565'
p519
aF10.3669
aI0
aI01
aI00
aI00
aI00
aI00
aI00
aI00
aI01
aa(lp520
I234378
aF171.236
aF469.315
aVp1
p521
aS'utopia'
p522
aS'#656565'
p523
aF10.3669
aI0
aI00
aI00
aI01
aI01
aI01
aI00
aI00
aI00
aa(lp524
I89480
aF194.191
aF469.315
aVp1
p525
aS'utopia'
p526
aS'#656565'
p527
aF10.3669
aI0
aI01
aI00
aI00
aI00
aI00
aI00
aI00
aI00
aa(lp528
I234378
aF209.001
aF469.315
aVp1
p529
aS'utopia'
p530
aS'#656565'
p531
aF10.3669
aI0
aI01
aI00
aI00
aI00
aI00
aI00
aI00
aI01
aa(lp532
I234378
aF223.811
aF469.315
aVp1
p533
aS'utopia'
p534
aS'#656565'
p535
aF10.3669
aI0
aI00
aI00
aI01
aI01
aI01
aI00
aI00
aI00
aa(lp536
I234378
aF40.9084
aF489.145
aVp1
p537
aS'utopia'
p538
aS'#656565'
p539
aF8.88595
aI0
aI01
aI00
aI00
aI00
aI00
aI00
aI00
aI00
aa(lp540
I194354
aF87.5597
aF489.145
aVp1
p541
aS'utopia'
p542
aS'#656565'
p543
aF8.88595
aI0
aI00
aI00
aI00
aI00
aI00
aI00
aI00
aI00
aa(lp544
I234378
aF102.37
aF489.145
aVp1
p545
aS'utopia'
p546
aS'#656565'
p547
aF8.88595
aI0
aI00
aI00
aI00
aI00
aI00
aI00
aI00
aI00
aa(lp548
I45899
aF141.616
aF489.145
aVp1
p549
aS'utopia'
p550
aS'#656565'
p551
aF8.88595
aI0
aI00
aI00
aI00
aI00
aI00
aI00
aI00
aI00
aa(lp552
I190806
aF169.014
aF489.145
aVp1
p553
aS'utopia'
p554
aS'#656565'
p555
aF8.88595
aI0
aI00
aI00
aI00
aI00
aI00
aI00
aI00
aI00
aa(lp556
I172788
aF183.084
aF489.145
aVp1
p557
aS'utopia'
p558
aS'#656565'
p559
aF8.88595
aI0
aI01
aI01
aI00
aI00
aI00
aI00
aI00
aI00
aa(lp560
I124531
aF40.1679
aF524.707
aVp1
p561
aS'utopia'
p562
aS'#02304b'
p563
aF11.8479
aI1
aI01
aI00
aI00
aI00
aI00
aI00
aI00
aI00
aa(lp564
I234378
aF40.9084
aF552.991
aVp1
p565
aS'utopia'
p566
aS'#656565'
p567
aF10.3669
aI0
aI01
aI00
aI00
aI00
aI00
aI00
aI00
aI00
aa(lp568
I234378
aF117.18
aF552.991
aVp1
p569
aS'utopia'
p570
aS'#656565'
p571
aF10.3669
aI0
aI00
aI00
aI00
aI00
aI00
aI00
aI00
aI00
aa(lp572
I60201
aF123.103
aF552.991
aVp1
p573
aS'utopia'
p574
aS'#656565'
p575
aF10.3669
aI0
aI01
aI00
aI00
aI00
aI00
aI00
aI00
aI00
aa(lp576
I230071
aF143.097
aF552.991
aVp1
p577
aS'utopia'
p578
aS'#656565'
p579
aF10.3669
aI0
aI01
aI00
aI00
aI00
aI00
aI00
aI00
aI00
aa(lp580
I234378
aF169.755
aF552.991
aVp1
p581
aS'utopia'
p582
aS'#656565'
p583
aF10.3669
aI0
aI00
aI00
aI00
aI00
aI00
aI00
aI00
aI00
aa(lp584
I27780
aF40.9084
aF569.012
aVp1
p585
aS'utopia'
p586
aS'#000000'
p587
aF10.3669
aI1
aI01
aI01
aI00
aI00
aI00
aI00
aI00
aI00
aa(lp588
I234378
aF46.15191818181818
aF569.012
ag585
aS'utopia'
p589
aS'#000000'
p590
aF10.3669
aI1
aI00
aI00
aI00
aI00
aI00
aI00
aI00
aI00
aa(lp591
I2737
aF51.395436363636364
aF569.012
ag585
aS'utopia'
p592
aS'#000000'
p593
aF10.3669
aI1
aI01
aI00
aI00
aI00
aI00
aI00
aI00
aI00
aa(lp594
I234378
aF72.36950909090909
aF569.012
ag585
aS'utopia'
p595
aS'#000000'
p596
aF10.3669
aI1
aI00
aI00
aI00
aI00
aI00
aI00
aI00
aI00
aa(lp597
I27780
aF70.61302727272727
aF569.012
ag585
aS'utopia'
p598
aS'#000000'
p599
aF10.3669
aI1
aI01
aI01
aI00
aI00
aI00
aI00
aI00
aI00
aa(lp600
I234378
aF75.85654545454545
aF569.012
ag585
aS'utopia'
p601
aS'#000000'
p602
aF10.3669
aI1
aI00
aI00
aI00
aI00
aI00
aI00
aI00
aI00
aa(lp603
I64620
aF88.10006363636364
aF569.012
ag585
aS'utopia'
p604
aS'#000000'
p605
aF10.3669
aI1
aI01
aI01
aI00
aI00
aI00
aI00
aI00
aI00
aa(lp606
I234378
aF84.34358181818183
aF569.012
ag585
aS'utopia'
p607
aS'#000000'
p608
aF10.3669
aI1
aI00
aI00
aI00
aI00
aI00
aI00
aI00
aI00
aa(lp609
I234378
aF100.889
aF569.012
aVp1
p610
aS'utopia'
p611
aS'#000000'
p612
aF10.3669
aI1
aI00
aI00
aI00
aI00
aI00
aI00
aI00
aI00
aa(lp613
I3878
aF105.78491304347826
aF569.012
ag610
aS'utopia'
p614
aS'#000000'
p615
aF10.3669
aI1
aI01
aI00
aI00
aI00
aI00
aI00
aI00
aI00
aa(lp616
I234378
aF154.74404347826086
aF569.012
ag610
aS'utopia'
p617
aS'#000000'
p618
aF10.3669
aI1
aI00
aI00
aI00
aI00
aI00
aI00
aI00
aI00
aa(lp619
I229860
aF159.63995652173912
aF569.012
ag610
aS'utopia'
p620
aS'#000000'
p621
aF10.3669
aI1
aI01
aI00
aI00
aI00
aI00
aI00
aI00
aI00
aa(lp622
I234378
aF208.59908695652172
aF569.012
ag610
aS'utopia'
p623
aS'#000000'
p624
aF10.3669
aI1
aI00
aI00
aI00
aI00
aI00
aI00
aI00
aI00
aa(lp625
I163796
aF40.9084
aF589.275
aVp1
p626
aS'utopia'
p627
aS'#656565'
p628
aF10.3669
aI0
aI01
aI00
aI00
aI00
aI00
aI00
aI00
aI00
aa(lp629
I51981
aF74.2307
aF589.275
aVp1
p630
aS'utopia'
p631
aS'#656565'
p632
aF10.3669
aI0
aI01
aI00
aI00
aI00
aI00
aI00
aI00
aI00
aa(lp633
I144489
aF116.439
aF589.275
aVp1
p634
aS'utopia'
p635
aS'#656565'
p636
aF10.3669
aI0
aI00
aI00
aI00
aI00
aI00
aI00
aI00
aI00
aa(lp637
I43052
aF127.546
aF589.275
aVp1
p638
aS'utopia'
p639
aS'#656565'
p640
aF10.3669
aI0
aI01
aI00
aI00
aI00
aI00
aI00
aI00
aI00
aa(lp641
I234378
aF185.305
aF589.275
aVp1
p642
aS'utopia'
p643
aS'#656565'
p644
aF10.3669
aI0
aI00
aI00
aI00
aI00
aI00
aI00
aI00
aI00
aa(lp645
I234378
aF189.33848333333333
aF589.275
ag642
aS'utopia'
p646
aS'#656565'
p647
aF10.3669
aI0
aI01
aI01
aI00
aI00
aI00
aI00
aI00
aI00
aa(lp648
I234378
aF201.43893333333332
aF589.275
ag642
aS'utopia'
p649
aS'#656565'
p650
aF10.3669
aI0
aI00
aI00
aI00
aI00
aI00
aI00
aI00
aI00
aa(lp651
I234378
aF205.47241666666665
aF589.275
ag642
aS'utopia'
p652
aS'#656565'
p653
aF10.3669
aI0
aI00
aI00
aI00
aI00
aI00
aI00
aI00
aI00
aa(lp654
I234378
aF211.963
aF589.275
aVp1
p655
aS'utopia'
p656
aS'#656565'
p657
aF10.3669
aI0
aI01
aI00
aI00
aI00
aI00
aI00
aI00
aI00
aa(lp658
I135639
aF256.393
aF589.275
aVp1
p659
aS'utopia'
p660
aS'#656565'
p661
aF10.3669
aI0
aI00
aI00
aI00
aI00
aI00
aI00
aI00
aI00
aa(lp662
I234378
aF268.241
aF589.275
aVp1
p663
aS'utopia'
p664
aS'#656565'
p665
aF10.3669
aI0
aI00
aI00
aI01
aI01
aI01
aI00
aI00
aI00
aa(lp666
I22476
aF40.1679
aF623.193
aVp1
p667
aS'utopia'
p668
aS'#02304b'
p669
aF11.8479
aI1
aI01
aI01
aI00
aI00
aI00
aI00
aI00
aI00
aa(lp670
I234378
aF54.2374
aF623.193
aVp1
p671
aS'utopia'
p672
aS'#02304b'
p673
aF11.8479
aI1
aI01
aI00
aI00
aI00
aI00
aI00
aI00
aI00
aa(lp674
I109610
aF48.3134
aF651.083
aVp1
p675
aS'utopia'
p676
aS'#000000'
p677
aF8.88595
aI1
aI01
aI00
aI00
aI00
aI00
aI00
aI00
aI00
aa(lp678
I158577
aF69.7878
aF651.083
aVp1
p679
aS'utopia'
p680
aS'#000000'
p681
aF8.88595
aI1
aI01
aI00
aI00
aI00
aI00
aI00
aI00
aI00
aa(lp682
I194179
aF188.267
aF651.083
aVp1
p683
aS'utopia'
p684
aS'#000000'
p685
aF8.88595
aI1
aI01
aI00
aI00
aI00
aI00
aI00
aI00
aI00
aa(lp686
I177981
aF305.265
aF651.083
aVp1
p687
aS'utopia'
p688
aS'#000000'
p689
aF8.88595
aI1
aI01
aI00
aI00
aI00
aI00
aI00
aI00
aI00
aa(lp690
I25729
aF324.518
aF651.083
aVp1
p691
aS'utopia'
p692
aS'#000000'
p693
aF8.88595
aI1
aI01
aI00
aI00
aI00
aI00
aI00
aI00
aI00
aa(lp694
I60220
aF412.637
aF651.083
aVp1
p695
aS'utopia'
p696
aS'#000000'
p697
aF8.88595
aI1
aI01
aI00
aI00
aI00
aI00
aI00
aI00
aI00
aa(lp698
I148996
aF48.3134
aF669.826
aVp1
p699
aS'utopia'
p700
aS'#656565'
p701
aF8.88595
aI0
aI01
aI00
aI00
aI00
aI00
aI00
aI00
aI00
aa(lp702
I234378
aF317.113
aF669.826
aVp1
p703
aS'utopia'
p704
aS'#656565'
p705
aF8.88595
aI0
aI00
aI00
aI01
aI01
aI01
aI00
aI00
aI00
aa(lp706
I234378
aF404.492
aF669.826
aVp1
p707
aS'utopia'
p708
aS'#656565'
p709
aF8.88595
aI0
aI00
aI00
aI01
aI01
aI00
aI00
aI00
aI00
aa(lp710
I91136
aF411.156
aF669.826
aVp1
p711
aS'utopia'
p712
aS'#656565'
p713
aF8.88595
aI0
aI01
aI00
aI00
aI00
aI00
aI00
aI00
aI00
aa(lp714
I234378
aF431.15
aF669.826
aVp1
p715
aS'utopia'
p716
aS'#656565'
p717
aF8.88595
aI0
aI00
aI00
aI01
aI01
aI00
aI00
aI00
aI00
aa(lp718
I234378
aF437.814
aF669.826
aVp1
p719
aS'utopia'
p720
aS'#656565'
p721
aF8.88595
aI0
aI01
aI00
aI00
aI00
aI00
aI00
aI00
aI00
aa(lp722
I84662
aF48.3134
aF688.339
aVp1
p723
aS'utopia'
p724
aS'#656565'
p725
aF8.88595
aI0
aI01
aI01
aI00
aI00
aI00
aI00
aI00
aI00
aa(lp726
I21716
aF74.2307
aF688.339
aVp1
p727
aS'utopia'
p728
aS'#656565'
p729
aF8.88595
aI0
aI01
aI01
aI00
aI00
aI00
aI00
aI00
aI00
aa(lp730
I234378
aF317.113
aF688.339
aVp1
p731
aS'utopia'
p732
aS'#656565'
p733
aF8.88595
aI0
aI00
aI00
aI01
aI01
aI01
aI00
aI00
aI00
aa(lp734
I234378
aF404.492
aF688.339
aVp1
p735
aS'utopia'
p736
aS'#656565'
p737
aF8.88595
aI0
aI00
aI00
aI01
aI01
aI00
aI00
aI00
aI00
aa(lp738
I91136
aF411.156
aF688.339
aVp1
p739
aS'utopia'
p740
aS'#656565'
p741
aF8.88595
aI0
aI01
aI00
aI00
aI00
aI00
aI00
aI00
aI00
aa(lp742
I234378
aF431.15
aF688.339
aVp1
p743
aS'utopia'
p744
aS'#656565'
p745
aF8.88595
aI0
aI00
aI00
aI01
aI01
aI00
aI00
aI00
aI00
aa(lp746
I234378
aF437.814
aF688.339
aVp1
p747
aS'utopia'
p748
aS'#656565'
p749
aF8.88595
aI0
aI01
aI00
aI00
aI00
aI00
aI00
aI00
aI00
aa(lp750
I132957
aF48.3134
aF706.851
aVp1
p751
aS'utopia'
p752
aS'#656565'
p753
aF8.88595
aI0
aI01
aI00
aI00
aI00
aI00
aI00
aI00
aI00
aa(lp754
I234378
aF69.0473
aF706.851
aVp1
p755
aS'utopia'
p756
aS'#656565'
p757
aF8.88595
aI0
aI01
aI00
aI00
aI00
aI00
aI00
aI00
aI00
aa(lp758
I234378
aF404.492
aF706.851
aVp1
p759
aS'utopia'
p760
aS'#656565'
p761
aF8.88595
aI0
aI00
aI00
aI01
aI01
aI00
aI00
aI00
aI00
aa(lp762
I91136
aF411.156
aF706.851
aVp1
p763
aS'utopia'
p764
aS'#656565'
p765
aF8.88595
aI0
aI01
aI00
aI00
aI00
aI00
aI00
aI00
aI00
aa(lp766
I234378
aF431.15
aF706.851
aVp1
p767
aS'utopia'
p768
aS'#656565'
p769
aF8.88595
aI0
aI00
aI00
aI01
aI01
aI00
aI00
aI00
aI00
aa(lp770
I234378
aF437.814
aF706.851
aVp1
p771
aS'utopia'
p772
aS'#656565'
p773
aF8.88595
aI0
aI01
aI00
aI00
aI00
aI00
aI00
aI00
aI00
aa(lp774
I234378
aF48.3134
aF725.364
aVp1
p775
aS'utopia'
p776
aS'#656565'
p777
aF8.88595
aI0
aI01
aI01
aI00
aI00
aI00
aI00
aI00
aI00
aa(lp778
I234378
aF317.113
aF725.364
aVp1
p779
aS'utopia'
p780
aS'#656565'
p781
aF8.88595
aI0
aI00
aI00
aI01
aI01
aI01
aI00
aI00
aI00
aa(lp782
I234378
aF417.821
aF725.364
aVp1
p783
aS'utopia'
p784
aS'#656565'
p785
aF8.88595
aI0
aI00
aI00
aI01
aI01
aI00
aI00
aI00
aI00
aa(lp786
I234378
aF424.485
aF725.364
aVp1
p787
aS'utopia'
p788
aS'#656565'
p789
aF8.88595
aI0
aI01
aI00
aI00
aI00
aI00
aI00
aI00
aI00
aa(lp790
I148996
aF48.3134
aF743.876
aVp1
p791
aS'utopia'
p792
aS'#656565'
p793
aF8.88595
aI0
aI01
aI00
aI00
aI00
aI00
aI00
aI00
aI00
aa(lp794
I234378
aF424.485
aF743.876
aVp1
p795
aS'utopia'
p796
aS'#656565'
p797
aF8.88595
aI0
aI00
aI00
aI01
aI01
aI00
aI00
aI00
aI00
aa(lp798
I91136
aF431.15
aF743.876
aVp1
p799
aS'utopia'
p800
aS'#656565'
p801
aF8.88595
aI0
aI01
aI00
aI00
aI00
aI00
aI00
aI00
aI00
aa(lp802
I234378
aF48.3134
aF762.388
aVp1
p803
aS'utopia'
p804
aS'#656565'
p805
aF8.88595
aI0
aI01
aI00
aI00
aI00
aI00
aI00
aI00
aI00
aa(lp806
I234378
aF404.492
aF762.388
aVp1
p807
aS'utopia'
p808
aS'#656565'
p809
aF8.88595
aI0
aI00
aI00
aI01
aI01
aI00
aI00
aI00
aI00
aa(lp810
I91136
aF411.156
aF762.388
aVp1
p811
aS'utopia'
p812
aS'#656565'
p813
aF8.88595
aI0
aI01
aI00
aI00
aI00
aI00
aI00
aI00
aI00
aa(lp814
I234378
aF431.15
aF762.388
aVp1
p815
aS'utopia'
p816
aS'#656565'
p817
aF8.88595
aI0
aI00
aI00
aI01
aI01
aI00
aI00
aI00
aI00
aa(lp818
I234378
aF437.814
aF762.388
aVp1
p819
aS'utopia'
p820
aS'#656565'
p821
aF8.88595
aI0
aI01
aI00
aI00
aI00
aI00
aI00
aI00
aI00
aa(lp822
I234378
aF48.3134
aF780.901
aVp1
p823
aS'utopia'
p824
aS'#656565'
p825
aF8.88595
aI0
aI01
aI01
aI00
aI00
aI00
aI00
aI00
aI00
aa(lp826
I234378
aF424.485
aF780.901
aVp1
p827
aS'utopia'
p828
aS'#656565'
p829
aF8.88595
aI0
aI00
aI00
aI01
aI01
aI00
aI00
aI00
aI00
aa(lp830
I91136
aF431.15
aF780.901
aVp1
p831
aS'utopia'
p832
aS'#656565'
p833
aF8.88595
aI0
aI01
aI00
aI00
aI00
aI00
aI00
aI00
aI00
aa(lp834
I195166
aF40.1679
aF46.3466
aVp2
p835
aS'utopia'
p836
aS'#02304b'
p837
aF11.8479
aI1
aI01
aI00
aI00
aI00
aI00
aI00
aI00
aI00
aa(lp838
I136346
aF96.4456
aF46.3466
aVp2
p839
aS'utopia'
p840
aS'#02304b'
p841
aF11.8479
aI1
aI01
aI00
aI00
aI00
aI00
aI00
aI00
aI00
aa(lp842
I195166
aF48.3134
aF74.2367
aVp2
p843
aS'utopia'
p844
aS'#000000'
p845
aF8.88595
aI1
aI01
aI00
aI00
aI00
aI00
aI00
aI00
aI00
aa(lp846
I164378
aF177.16
aF74.2367
aVp2
p847
aS'utopia'
p848
aS'#000000'
p849
aF8.88595
aI1
aI01
aI00
aI00
aI00
aI00
aI00
aI00
aI00
aa(lp850
I175077
aF296.379
aF74.2367
aVp2
p851
aS'utopia'
p852
aS'#000000'
p853
aF8.88595
aI1
aI01
aI00
aI00
aI00
aI00
aI00
aI00
aI00
aa(lp854
I224291
aF397.087
aF74.2367
aVp2
p855
aS'utopia'
p856
aS'#000000'
p857
aF8.88595
aI1
aI01
aI00
aI00
aI00
aI00
aI00
aI00
aI00
aa(lp858
I165206
aF497.054
aF74.2367
aVp2
p859
aS'utopia'
p860
aS'#000000'
p861
aF8.88595
aI1
aI01
aI00
aI00
aI00
aI00
aI00
aI00
aI00
aa(lp862
I58002
aF48.3134
aF92.9801
aVp2
p863
aS'utopia'
p864
aS'#656565'
p865
aF8.88595
aI0
aI01
aI01
aI00
aI00
aI00
aI00
aI00
aI00
aa(lp866
I185159
aF177.16
aF92.9801
aVp2
p867
aS'utopia'
p868
aS'#656565'
p869
aF8.88595
aI0
aI01
aI00
aI00
aI00
aI00
aI00
aI00
aI00
aa(lp870
I234378
aF40.1679
aF124.839
aVp2
p871
aS'utopia'
p872
aS'#02304b'
p873
aF11.8479
aI1
aI01
aI00
aI00
aI00
aI00
aI00
aI00
aI00
aa(lp874
I201816
aF40.9084
aF156.663
aVp2
p875
aS'utopia'
p876
aS'#000000'
p877
aF8.88595
aI0
aI01
aI00
aI00
aI00
aI00
aI00
aI00
aI00
aa(lp878
I234378
aF54.9779
aF156.663
aVp2
p879
aS'utopia'
p880
aS'#000000'
p881
aF8.88595
aI0
aI01
aI00
aI00
aI00
aI00
aI00
aI00
aI00
aa(lp882
I86196
aF89.0407
aF156.663
aVp2
p883
aS'utopia'
p884
aS'#000000'
p885
aF8.88595
aI0
aI01
aI00
aI00
aI00
aI00
aI00
aI00
aI00
aa(lp886
I177271
aF40.1679
aF195.927
aVp2
p887
aS'utopia'
p888
aS'#02304b'
p889
aF11.8479
aI1
aI01
aI00
aI00
aI00
aI00
aI00
aI00
aI00
aa(lp890
I234378
aF74.2307
aF195.927
aVp2
p891
aS'utopia'
p892
aS'#02304b'
p893
aF11.8479
aI1
aI01
aI00
aI00
aI00
aI00
aI00
aI00
aI00
aa(lp894
I7520
aF49.0539
aF220.239
aVp2
p895
aS'utopia'
p896
aS'#656565'
p897
aF10.3669
aI1
aI01
aI00
aI00
aI00
aI00
aI00
aI00
aI00
aa(lp898
I10865
aF93.4836
aF220.239
aVp2
p899
aS'utopia'
p900
aS'#656565'
p901
aF10.3669
aI1
aI01
aI00
aI00
aI00
aI00
aI00
aI00
aI00
aa(lp902
I132955
aF49.0539
aF235.896
aVp2
p903
aS'utopia'
p904
aS'#656565'
p905
aF8.88595
aI0
aI01
aI00
aI00
aI00
aI00
aI00
aI00
aI00
aa(lp906
I144489
aF69.7878
aF235.896
aVp2
p907
aS'utopia'
p908
aS'#656565'
p909
aF8.88595
aI0
aI00
aI00
aI00
aI00
aI00
aI00
aI00
aI00
aa(lp910
I132529
aF80.1547
aF235.896
aVp2
p911
aS'utopia'
p912
aS'#656565'
p913
aF8.88595
aI0
aI01
aI00
aI00
aI00
aI00
aI00
aI00
aI00
aa(lp914
I234378
aF98.76336666666667
aF235.896
ag911
aS'utopia'
p915
aS'#656565'
p916
aF8.88595
aI0
aI00
aI00
aI00
aI00
aI00
aI00
aI00
aI00
aa(lp917
I234378
aF104.591
aF235.896
aVp2
p918
aS'utopia'
p919
aS'#434343'
p920
aF8.88595
aI0
aI00
aI00
aI01
aI01
aI01
aI00
aI00
aI00
aa(lp921
I27216
aF115.699
aF235.896
aVp2
p922
aS'utopia'
p923
aS'#434343'
p924
aF8.88595
aI0
aI01
aI00
aI00
aI00
aI00
aI00
aI00
aI01
aa(lp925
I234378
aF131.249
aF235.896
aVp2
p926
aS'utopia'
p927
aS'#434343'
p928
aF8.88595
aI0
aI00
aI00
aI01
aI01
aI01
aI00
aI00
aI00
aa(lp929
I86794
aF293.418
aF223.941
aVp2
p930
aS'utopia'
p931
aS'#656565'
p932
aF10.3669
aI1
aI01
aI00
aI00
aI00
aI00
aI00
aI00
aI00
aa(lp933
I131455
aF331.923
aF223.941
aVp2
p934
aS'utopia'
p935
aS'#656565'
p936
aF10.3669
aI1
aI01
aI00
aI00
aI00
aI00
aI00
aI00
aI00
aa(lp937
I234378
aF349.695
aF223.941
aVp2
p938
aS'utopia'
p939
aS'#656565'
p940
aF10.3669
aI1
aI01
aI00
aI00
aI00
aI00
aI00
aI00
aI00
aa(lp941
I131455
aF293.418
aF239.598
aVp2
p942
aS'utopia'
p943
aS'#656565'
p944
aF8.88595
aI0
aI01
aI00
aI00
aI00
aI00
aI00
aI00
aI00
aa(lp945
I197416
aF308.968
aF239.598
aVp2
p946
aS'utopia'
p947
aS'#656565'
p948
aF8.88595
aI0
aI01
aI00
aI00
aI00
aI00
aI00
aI00
aI00
aa(lp949
I234378
aF326.23992000000004
aF239.598
ag946
aS'utopia'
p950
aS'#656565'
p951
aF8.88595
aI0
aI00
aI00
aI00
aI00
aI00
aI00
aI00
aI00
aa(lp952
I28425
aF332.664
aF239.598
aVp2
p953
aS'utopia'
p954
aS'#434343'
p955
aF8.88595
aI0
aI01
aI00
aI00
aI00
aI00
aI00
aI00
aI00
aa(lp956
I108944
aF49.0539
aF251.446
aVp2
p957
aS'utopia'
p958
aS'#656565'
p959
aF8.88595
aI0
aI01
aI00
aI00
aI00
aI00
aI00
aI00
aI00
aa(lp960
I234378
aF76.44544285714287
aF251.446
ag957
aS'utopia'
p961
aS'#656565'
p962
aF8.88595
aI0
aI00
aI00
aI00
aI00
aI00
aI00
aI00
aI00
aa(lp963
I104428
aF83.1167
aF251.446
aVp2
p964
aS'utopia'
p965
aS'#434343'
p966
aF8.88595
aI0
aI01
aI00
aI00
aI00
aI00
aI00
aI00
aI00
aa(lp967
I72722
aF293.418
aF255.149
aVp2
p968
aS'utopia'
p969
aS'#656565'
p970
aF8.88595
aI0
aI01
aI00
aI00
aI00
aI00
aI00
aI00
aI00
aa(lp971
I12510
aF346.733
aF255.149
aVp2
p972
aS'utopia'
p973
aS'#656565'
p974
aF8.88595
aI0
aI01
aI00
aI00
aI00
aI00
aI00
aI00
aI00
aa(lp975
I234378
aF369.0469142857143
aF255.149
ag972
aS'utopia'
p976
aS'#656565'
p977
aF8.88595
aI0
aI00
aI00
aI00
aI00
aI00
aI00
aI00
aI00
aa(lp978
I60201
aF374.872
aF255.149
aVp2
p979
aS'utopia'
p980
aS'#434343'
p981
aF8.88595
aI0
aI01
aI00
aI00
aI00
aI00
aI00
aI00
aI00
aa(lp982
I230071
aF391.903
aF255.149
aVp2
p983
aS'utopia'
p984
aS'#434343'
p985
aF8.88595
aI0
aI01
aI00
aI00
aI00
aI00
aI00
aI00
aI00
aa(lp986
I212271
aF49.0539
aF266.997
aVp2
p987
aS'utopia'
p988
aS'#656565'
p989
aF8.88595
aI0
aI01
aI00
aI00
aI00
aI00
aI00
aI00
aI00
aa(lp990
I12510
aF79.4142
aF266.997
aVp2
p991
aS'utopia'
p992
aS'#656565'
p993
aF8.88595
aI0
aI01
aI00
aI00
aI00
aI00
aI00
aI00
aI00
aa(lp994
I234378
aF101.72811428571428
aF266.997
ag991
aS'utopia'
p995
aS'#656565'
p996
aF8.88595
aI0
aI00
aI00
aI00
aI00
aI00
aI00
aI00
aI00
aa(lp997
I118865
aF107.553
aF266.997
aVp2
p998
aS'utopia'
p999
aS'#434343'
p1000
aF8.88595
aI0
aI01
aI00
aI00
aI00
aI00
aI00
aI00
aI00
aa(lp1001
I234378
aF133.68768749999998
aF266.997
ag998
aS'utopia'
p1002
aS'#434343'
p1003
aF8.88595
aI0
aI00
aI00
aI00
aI00
aI00
aI00
aI00
aI00
aa(lp1004
I136874
aF138.04346875
aF266.997
ag998
aS'utopia'
p1005
aS'#434343'
p1006
aF8.88595
aI0
aI00
aI00
aI00
aI00
aI00
aI00
aI00
aI00
aa(lp1007
I118366
aF49.0539
aF286.883
aVp2
p1008
aS'utopia'
p1009
aS'#656565'
p1010
aF10.3669
aI1
aI01
aI00
aI00
aI00
aI00
aI00
aI00
aI00
aa(lp1011
I234378
aF83.97235
aF286.883
ag1008
aS'utopia'
p1012
aS'#656565'
p1013
aF10.3669
aI1
aI00
aI00
aI00
aI00
aI00
aI00
aI00
aI00
aa(lp1014
I51933
aF293.418
aF275.035
aVp2
p1015
aS'utopia'
p1016
aS'#656565'
p1017
aF10.3669
aI1
aI01
aI00
aI00
aI00
aI00
aI00
aI00
aI00
aa(lp1018
I62768
aF321.556
aF275.035
aVp2
p1019
aS'utopia'
p1020
aS'#656565'
p1021
aF10.3669
aI1
aI01
aI00
aI00
aI00
aI00
aI00
aI00
aI00
aa(lp1022
I234378
aF49.0539
aF299.578
aVp2
p1023
aS'utopia'
p1024
aS'#000000'
p1025
aF8.88595
aI0
aI01
aI00
aI00
aI00
aI00
aI00
aI00
aI00
aa(lp1026
I234378
aF81.6357
aF299.578
aVp2
p1027
aS'utopia'
p1028
aS'#000000'
p1029
aF8.88595
aI0
aI01
aI00
aI00
aI00
aI00
aI00
aI00
aI00
aa(lp1030
I234378
aF49.0539
aF309.945
aVp2
p1031
aS'utopia'
p1032
aS'#000000'
p1033
aF8.88595
aI0
aI00
aI00
aI01
aI01
aI01
aI00
aI00
aI00
aa(lp1034
I31679
aF293.418
aF290.692
aVp2
p1035
aS'utopia'
p1036
aS'#656565'
p1037
aF8.88595
aI0
aI01
aI01
aI00
aI00
aI00
aI00
aI00
aI00
aa(lp1038
I51933
aF306.746
aF290.692
aVp2
p1039
aS'utopia'
p1040
aS'#656565'
p1041
aF8.88595
aI0
aI01
aI00
aI00
aI00
aI00
aI00
aI00
aI00
aa(lp1042
I12510
aF330.442
aF290.692
aVp2
p1043
aS'utopia'
p1044
aS'#656565'
p1045
aF8.88595
aI0
aI01
aI00
aI00
aI00
aI00
aI00
aI00
aI00
aa(lp1046
I234378
aF352.7559142857143
aF290.692
ag1043
aS'utopia'
p1047
aS'#656565'
p1048
aF8.88595
aI0
aI00
aI00
aI00
aI00
aI00
aI00
aI00
aI00
aa(lp1049
I63091
aF358.581
aF290.692
aVp2
p1050
aS'utopia'
p1051
aS'#434343'
p1052
aF8.88595
aI0
aI01
aI00
aI00
aI00
aI00
aI00
aI00
aI00
aa(lp1053
I234378
aF375.613
aF290.692
aVp2
p1054
aS'utopia'
p1055
aS'#434343'
p1056
aF8.88595
aI0
aI01
aI00
aI00
aI00
aI00
aI00
aI00
aI00
aa(lp1057
I234378
aF293.418
aF306.243
aVp2
p1058
aS'utopia'
p1059
aS'#656565'
p1060
aF8.88595
aI0
aI01
aI00
aI00
aI00
aI00
aI00
aI00
aI00
aa(lp1061
I234378
aF330.17652
aF306.243
ag1058
aS'utopia'
p1062
aS'#656565'
p1063
aF8.88595
aI0
aI00
aI00
aI00
aI00
aI00
aI00
aI00
aI00
aa(lp1064
I63091
aF336.366
aF306.243
aVp2
p1065
aS'utopia'
p1066
aS'#434343'
p1067
aF8.88595
aI0
aI01
aI00
aI00
aI00
aI00
aI00
aI00
aI00
aa(lp1068
I234378
aF353.398
aF306.243
aVp2
p1069
aS'utopia'
p1070
aS'#434343'
p1071
aF8.88595
aI0
aI01
aI00
aI00
aI00
aI00
aI00
aI00
aI00
aa(lp1072
I182663
aF49.0539
aF323.274
aVp2
p1073
aS'utopia'
p1074
aS'#656565'
p1075
aF8.88595
aI0
aI01
aI00
aI00
aI00
aI00
aI00
aI00
aI00
aa(lp1076
I82279
aF76.4522
aF323.274
aVp2
p1077
aS'utopia'
p1078
aS'#656565'
p1079
aF8.88595
aI0
aI01
aI00
aI00
aI00
aI00
aI00
aI00
aI00
aa(lp1080
I234378
aF96.09372
aF323.274
ag1077
aS'utopia'
p1081
aS'#656565'
p1082
aF8.88595
aI0
aI00
aI00
aI00
aI00
aI00
aI00
aI00
aI00
aa(lp1083
I234378
aF103.11
aF323.274
aVp2
p1084
aS'utopia'
p1085
aS'#000000'
p1086
aF8.88595
aI0
aI01
aI00
aI00
aI00
aI00
aI00
aI00
aI00
aa(lp1087
I166771
aF293.418
aF326.13
aVp2
p1088
aS'utopia'
p1089
aS'#656565'
p1090
aF10.3669
aI1
aI01
aI00
aI00
aI00
aI00
aI00
aI00
aI00
aa(lp1091
I74833
aF349.695
aF326.13
aVp2
p1092
aS'utopia'
p1093
aS'#656565'
p1094
aF10.3669
aI1
aI01
aI00
aI00
aI00
aI00
aI00
aI00
aI00
aa(lp1095
I233758
aF293.418
aF341.787
aVp2
p1096
aS'utopia'
p1097
aS'#656565'
p1098
aF8.88595
aI0
aI01
aI00
aI00
aI00
aI00
aI00
aI00
aI00
aa(lp1099
I234378
aF327.0898222222222
aF341.787
ag1096
aS'utopia'
p1100
aS'#656565'
p1101
aF8.88595
aI0
aI00
aI00
aI00
aI00
aI00
aI00
aI00
aI00
aa(lp1102
I230332
aF333.404
aF341.787
aVp2
p1103
aS'utopia'
p1104
aS'#434343'
p1105
aF8.88595
aI0
aI01
aI00
aI00
aI00
aI00
aI00
aI00
aI00
aa(lp1106
I151511
aF293.418
aF357.337
aVp2
p1107
aS'utopia'
p1108
aS'#656565'
p1109
aF8.88595
aI0
aI01
aI00
aI00
aI00
aI00
aI00
aI00
aI00
aa(lp1110
I234378
aF334.145
aF357.337
aVp2
p1111
aS'utopia'
p1112
aS'#656565'
p1113
aF8.88595
aI0
aI01
aI00
aI00
aI00
aI00
aI00
aI00
aI00
aa(lp1114
I234378
aF375.9870909090909
aF357.337
ag1111
aS'utopia'
p1115
aS'#656565'
p1116
aF8.88595
aI0
aI00
aI00
aI00
aI00
aI00
aI00
aI00
aI00
aa(lp1117
I201816
aF382.277
aF357.337
aVp2
p1118
aS'utopia'
p1119
aS'#434343'
p1120
aF8.88595
aI0
aI01
aI00
aI00
aI00
aI00
aI00
aI00
aI00
aa(lp1121
I1
aI0
aI0
aI0
aI0
aI0
aI0
aI0
aI0
aI0
aI0
aI0
aI0
aI0
aI0
aI0
aI0
aI0
aI0
aI0
aI0
aI0
aI0
aI0
aI0
aI0
aI0
aI0
aI0
aI0
aI0
aI0
aI0
aI0
aI0
aI0
aI0
aI0
aI0
aI0
aI0
aI0
aI0
aI0
aI0
aI0
aI0
aI0
aI0
aI0
aI0
aI0
aI0
aI0
aI0
aI0
aI0
aI0
aI0
aI0
aI0
aI0
aI0
aI0
aI0
aI0
aI0
aI0
aI0
aI0
aI0
aI0
aI0
aI0
aI0
aI0
aI0
aI0
aI0
aI0
aI0
aI0
aI0
aI0
aI0
aI0
aI0
aI0
aI0
aI0
aI0
aI0
aI0
aI0
aI0
aI0
aI0
aI0
aI0
aI0
aI0
aI0
aI0
aI0
aI0
aI0
aI0
aI0
aI0
aI0
aI0
aI1
aI1
aI0
aI0
aI0
aI0
aI0
aI0
aI0
aI0
aI0
aI0
aI0
aI0
aI0
aI0
aI0
aI0
aI0
aI0
aI0
aI0
aI0
aI0
aI0
aI0
aI0
aI0
aI0
aI0
aI0
aI0
aI0
aI0
aI0
aI0
aI0
aI0
aI0
aI1
aI0
aI0
aI0
aI0
aI0
aI0
aI0
aI0
aI0
aI0
aI0
aI0
aI0
aI0
aI0
aI0
aI0
aI0
aI0
aI0
aI0
aI0
aI0
aI0
aI0
aI0
aI0
aI0
aI0
aI1
aI1
aI0
aI0
aI0
aI0
aI0
aI0
aI0
aI0
aI0
aI0
aI0
aI0
aI0
aI0
aI0
aI0
aI0
aI0
aI0
aI0
aI0
aI0
aI0
aI0
aI0
aI0
aI0
aI0
aI0
aI0
aI0
aI0
aI0
aI0
aI0
aI0
aI0
aI0
aI0
aI0
aI1
aI1
aI0
aI0
aI0
aI0
aI0
aI0
aI0
aI1
aI0
aI0
aI0
aI1
aI1
aI0
aI0
aI0
aI0
aI0
aI0
aI0
aI0
aI0
aI0
aI0
aI0
aI0
aI0
aI0
aI0
aI0
aI0
aI0
aI0
aI0
aI0
aI0
aI0
aI0
aI0
aI0
aI0
aI0
aI0
aI0
aI0
aI0
aI0
aI0
aI0
aI0
aI0
aI0
aI0
aI0
aI0
aI0
aI0
aI0
aI0
aI0
aI0
aI0
aI0
aI0
aI0
aI0
aI0
aI0
aI0
aI0
aI0
aI0
aI0
atp1122
.