((lp0
(lp1
I234378
aF40.9084
aF53.0111
aVp1
p2
aS'utopia'
p3
aS'#02304b'
p4
aF11.8479
aI1
aI01
aI00
aI00
aI00
aI00
aI00
aI00
aI00
aa(lp5
I234378
aF110.515
aF53.0111
aVp1
p6
aS'utopia'
p7
aS'#02304b'
p8
aF11.8479
aI1
aI01
aI00
aI00
aI00
aI00
aI00
aI00
aI00
aa(lp9
I17350
aF46.8324
aF74.4677
aVp1
p10
aS'utopia'
p11
aS'#656565'
p12
aF8.88595
aI0
aI01
aI00
aI00
aI00
aI00
aI00
aI00
aI00
aa(lp13
I123665
aF66.8258
aF74.4677
aVp1
p14
aS'utopia'
p15
aS'#656565'
p16
aF8.88595
aI0
aI01
aI00
aI00
aI00
aI00
aI00
aI00
aI00
aa(lp17
I100815
aF114.218
aF74.4677
aVp1
p18
aS'utopia'
p19
aS'#656565'
p20
aF8.88595
aI0
aI00
aI00
aI00
aI00
aI00
aI00
aI00
aI00
aa(lp21
I135639
aF155.685
aF74.4677
aVp1
p22
aS'utopia'
p23
aS'#656565'
p24
aF8.88595
aI0
aI00
aI00
aI00
aI00
aI00
aI00
aI00
aI00
aa(lp25
I21716
aF165.312
aF74.4677
aVp1
p26
aS'utopia'
p27
aS'#656565'
p28
aF8.88595
aI0
aI01
aI00
aI00
aI00
aI00
aI00
aI00
aI00
aa(lp29
I234378
aF182.4954666666667
aF74.4677
ag26
aS'utopia'
p30
aS'#656565'
p31
aF8.88595
aI0
aI00
aI00
aI00
aI00
aI00
aI00
aI00
aI00
aa(lp32
I234378
aF186.79133333333334
aF74.4677
ag26
aS'utopia'
p33
aS'#656565'
p34
aF8.88595
aI0
aI01
aI01
aI01
aI00
aI00
aI00
aI00
aI00
aa(lp35
I85218
aF206.039
aF74.4677
aVp1
p36
aS'utopia'
p37
aS'#656565'
p38
aF8.88595
aI0
aI00
aI00
aI00
aI00
aI00
aI00
aI00
aI00
aa(lp39
I100973
aF223.07
aF74.4677
aVp1
p40
aS'utopia'
p41
aS'#656565'
p42
aF8.88595
aI0
aI01
aI00
aI00
aI00
aI00
aI00
aI00
aI00
aa(lp43
I17350
aF252.69
aF74.4677
aVp1
p44
aS'utopia'
p45
aS'#656565'
p46
aF8.88595
aI0
aI01
aI00
aI00
aI00
aI00
aI00
aI00
aI00
aa(lp47
I234378
aF272.684
aF74.4677
aVp1
p48
aS'utopia'
p49
aS'#656565'
p50
aF8.88595
aI0
aI01
aI00
aI00
aI00
aI00
aI00
aI00
aI00
aa(lp51
I169745
aF306.746
aF74.4677
aVp1
p52
aS'utopia'
p53
aS'#656565'
p54
aF8.88595
aI0
aI00
aI00
aI00
aI00
aI00
aI00
aI00
aI00
aa(lp55
I234378
aF325.999
aF74.4677
aVp1
p56
aS'utopia'
p57
aS'#656565'
p58
aF8.88595
aI0
aI01
aI00
aI00
aI00
aI00
aI00
aI00
aI00
aa(lp59
I234378
aF362.75752
aF74.4677
ag56
aS'utopia'
p60
aS'#656565'
p61
aF8.88595
aI0
aI00
aI00
aI00
aI00
aI00
aI00
aI00
aI00
aa(lp62
I234378
aF59.4208
aF124.081
aVp1
p63
aS'utopia'
p64
aS'#0d75b4'
p65
aF8.88595
aI0
aI00
aI00
aI00
aI00
aI00
aI01
aI00
aI00
aa(lp66
I234378
aF301.563
aF124.081
aVp1
p67
aS'utopia'
p68
aS'#000000'
p69
aF8.88595
aI0
aI00
aI00
aI01
aI01
aI01
aI00
aI00
aI00
aa(lp70
I15548
aF55.7183
aF158.884
aVp1
p71
aS'utopia'
p72
aS'#878787'
p73
aF8.88595
aI0
aI01
aI00
aI00
aI00
aI00
aI00
aI00
aI00
aa(lp74
I104542
aF89.0407
aF158.884
aVp1
p75
aS'utopia'
p76
aS'#878787'
p77
aF8.88595
aI0
aI01
aI00
aI00
aI00
aI00
aI00
aI00
aI00
aa(lp78
I234378
aF133.94655
aF158.884
ag75
aS'utopia'
p79
aS'#878787'
p80
aF8.88595
aI0
aI00
aI00
aI00
aI00
aI00
aI00
aI00
aI00
aa(lp81
I149270
aF142.356
aF158.884
aVp1
p82
aS'utopia'
p83
aS'#000000'
p84
aF8.88595
aI0
aI01
aI00
aI00
aI00
aI00
aI00
aI00
aI00
aa(lp85
I175409
aF182.343
aF158.884
aVp1
p86
aS'utopia'
p87
aS'#000000'
p88
aF8.88595
aI0
aI01
aI00
aI00
aI00
aI00
aI00
aI00
aI00
aa(lp89
I15548
aF55.7183
aF176.656
aVp1
p90
aS'utopia'
p91
aS'#878787'
p92
aF8.88595
aI0
aI01
aI00
aI00
aI00
aI00
aI00
aI00
aI00
aa(lp93
I2006
aF89.0407
aF176.656
aVp1
p94
aS'utopia'
p95
aS'#878787'
p96
aF8.88595
aI0
aI01
aI00
aI00
aI00
aI00
aI00
aI00
aI00
aa(lp97
I234378
aF124.77815
aF176.656
ag94
aS'utopia'
p98
aS'#878787'
p99
aF8.88595
aI0
aI00
aI00
aI00
aI00
aI00
aI00
aI00
aI00
aa(lp100
I234378
aF134.211
aF176.656
aVp1
p101
aS'utopia'
p102
aS'#000000'
p103
aF8.88595
aI0
aI01
aI00
aI00
aI00
aI00
aI00
aI00
aI00
aa(lp104
I43052
aF178.641
aF176.656
aVp1
p105
aS'utopia'
p106
aS'#000000'
p107
aF8.88595
aI0
aI01
aI00
aI00
aI00
aI00
aI00
aI00
aI00
aa(lp108
I234378
aF226.773
aF176.656
aVp1
p109
aS'utopia'
p110
aS'#000000'
p111
aF8.88595
aI0
aI01
aI00
aI00
aI00
aI00
aI00
aI00
aI00
aa(lp112
I223363
aF265.279
aF176.656
aVp1
p113
aS'utopia'
p114
aS'#000000'
p115
aF8.88595
aI0
aI01
aI00
aI00
aI00
aI00
aI00
aI00
aI00
aa(lp116
I15548
aF55.7183
aF194.428
aVp1
p117
aS'utopia'
p118
aS'#878787'
p119
aF8.88595
aI0
aI01
aI00
aI00
aI00
aI00
aI00
aI00
aI00
aa(lp120
I17057
aF89.0407
aF194.428
aVp1
p121
aS'utopia'
p122
aS'#878787'
p123
aF8.88595
aI0
aI01
aI00
aI00
aI00
aI00
aI00
aI00
aI00
aa(lp124
I234378
aF122.05430000000001
aF194.428
ag121
aS'utopia'
p125
aS'#878787'
p126
aF8.88595
aI0
aI00
aI00
aI00
aI00
aI00
aI00
aI00
aI00
aa(lp127
I234378
aF130.508
aF194.428
aVp1
p128
aS'utopia'
p129
aS'#000000'
p130
aF8.88595
aI0
aI01
aI00
aI00
aI00
aI00
aI00
aI00
aI00
aa(lp131
I234378
aF173.457
aF194.428
aVp1
p132
aS'utopia'
p133
aS'#000000'
p134
aF8.88595
aI0
aI00
aI00
aI00
aI00
aI00
aI00
aI00
aI00
aa(lp135
I234378
aF180.122
aF194.428
aVp1
p136
aS'utopia'
p137
aS'#000000'
p138
aF8.88595
aI0
aI01
aI00
aI00
aI00
aI00
aI00
aI00
aI00
aa(lp139
I234378
aF55.7183
aF212.2
aVp1
p140
aS'utopia'
p141
aS'#878787'
p142
aF8.88595
aI0
aI01
aI00
aI00
aI00
aI00
aI00
aI00
aI00
aa(lp143
I234378
aF70.62062
aF212.2
ag140
aS'utopia'
p144
aS'#878787'
p145
aF8.88595
aI0
aI00
aI00
aI00
aI00
aI00
aI00
aI00
aI00
aa(lp146
I17057
aF76.4522
aF212.2
aVp1
p147
aS'utopia'
p148
aS'#878787'
p149
aF8.88595
aI0
aI01
aI00
aI00
aI00
aI00
aI00
aI00
aI00
aa(lp150
I234378
aF109.4658
aF212.2
ag147
aS'utopia'
p151
aS'#878787'
p152
aF8.88595
aI0
aI00
aI00
aI00
aI00
aI00
aI00
aI00
aI00
aa(lp153
I234378
aF117.92
aF212.2
aVp1
p154
aS'utopia'
p155
aS'#000000'
p156
aF8.88595
aI0
aI01
aI00
aI00
aI00
aI00
aI00
aI00
aI00
aa(lp157
I234378
aF160.869
aF212.2
aVp1
p158
aS'utopia'
p159
aS'#000000'
p160
aF8.88595
aI0
aI00
aI00
aI00
aI00
aI00
aI00
aI00
aI00
aa(lp161
I234378
aF167.533
aF212.2
aVp1
p162
aS'utopia'
p163
aS'#000000'
p164
aF8.88595
aI0
aI01
aI00
aI00
aI00
aI00
aI00
aI00
aI00
aa(lp165
I98580
aF55.7183
aF229.972
aVp1
p166
aS'utopia'
p167
aS'#878787'
p168
aF8.88595
aI0
aI01
aI00
aI00
aI00
aI00
aI00
aI00
aI00
aa(lp169
I166289
aF100.148
aF229.972
aVp1
p170
aS'utopia'
p171
aS'#878787'
p172
aF8.88595
aI0
aI01
aI00
aI00
aI00
aI00
aI00
aI00
aI00
aa(lp173
I234378
aF116.82751999999999
aF229.972
ag170
aS'utopia'
p174
aS'#878787'
p175
aF8.88595
aI0
aI00
aI00
aI00
aI00
aI00
aI00
aI00
aI00
aa(lp176
I22476
aF125.325
aF229.972
aVp1
p177
aS'utopia'
p178
aS'#000000'
p179
aF8.88595
aI0
aI01
aI01
aI00
aI00
aI00
aI00
aI00
aI00
aa(lp180
I234378
aF135.692
aF229.972
aVp1
p181
aS'utopia'
p182
aS'#000000'
p183
aF8.88595
aI0
aI01
aI00
aI00
aI00
aI00
aI00
aI00
aI00
aa(lp184
I25931
aF178.641
aF229.972
aVp1
p185
aS'utopia'
p186
aS'#000000'
p187
aF8.88595
aI0
aI01
aI00
aI00
aI00
aI00
aI00
aI00
aI00
aa(lp188
I96642
aF203.818
aF229.972
aVp1
p189
aS'utopia'
p190
aS'#000000'
p191
aF8.88595
aI0
aI01
aI00
aI00
aI00
aI00
aI00
aI00
aI00
aa(lp192
I176435
aF55.7183
aF247.744
aVp1
p193
aS'utopia'
p194
aS'#878787'
p195
aF8.88595
aI0
aI01
aI00
aI00
aI00
aI00
aI00
aI00
aI00
aa(lp196
I234378
aF71.80542
aF247.744
ag193
aS'utopia'
p197
aS'#878787'
p198
aF8.88595
aI0
aI00
aI00
aI00
aI00
aI00
aI00
aI00
aI00
aa(lp199
I234378
aF80.1547
aF247.744
aVp1
p200
aS'utopia'
p201
aS'#000000'
p202
aF8.88595
aI0
aI01
aI00
aI00
aI00
aI00
aI00
aI00
aI00
aa(lp203
I100815
aF117.18
aF247.744
aVp1
p204
aS'utopia'
p205
aS'#000000'
p206
aF8.88595
aI0
aI01
aI00
aI00
aI00
aI00
aI00
aI00
aI00
aa(lp207
I74589
aF55.7183
aF265.516
aVp1
p208
aS'utopia'
p209
aS'#878787'
p210
aF8.88595
aI0
aI01
aI00
aI00
aI00
aI00
aI00
aI00
aI00
aa(lp211
I234378
aF87.41545555555555
aF265.516
ag208
aS'utopia'
p212
aS'#878787'
p213
aF8.88595
aI0
aI00
aI00
aI00
aI00
aI00
aI00
aI00
aI00
aa(lp214
I22476
aF95.7051
aF265.516
aVp1
p215
aS'utopia'
p216
aS'#000000'
p217
aF8.88595
aI0
aI01
aI01
aI00
aI00
aI00
aI00
aI00
aI00
aa(lp218
I234378
aF105.30374
aF265.516
ag215
aS'utopia'
p219
aS'#000000'
p220
aF8.88595
aI0
aI01
aI00
aI00
aI00
aI00
aI00
aI00
aI00
aa(lp221
I234378
aF139.69830000000002
aF265.516
ag215
aS'utopia'
p222
aS'#000000'
p223
aF8.88595
aI0
aI00
aI00
aI00
aI00
aI00
aI00
aI00
aI00
aa(lp224
I234378
aF134.99762
aF265.516
ag215
aS'utopia'
p225
aS'#000000'
p226
aF8.88595
aI0
aI01
aI00
aI00
aI00
aI00
aI00
aI00
aI00
aa(lp227
I234378
aF183.824
aF265.516
aVp1
p228
aS'utopia'
p229
aS'#000000'
p230
aF8.88595
aI0
aI01
aI00
aI00
aI00
aI00
aI00
aI00
aI00
aa(lp231
I231013
aF55.7183
aF283.288
aVp1
p232
aS'utopia'
p233
aS'#878787'
p234
aF8.88595
aI0
aI01
aI00
aI00
aI00
aI00
aI00
aI00
aI00
aa(lp235
I234378
aF72.7498
aF283.288
aVp1
p236
aS'utopia'
p237
aS'#878787'
p238
aF8.88595
aI0
aI01
aI00
aI00
aI00
aI00
aI00
aI00
aI00
aa(lp239
I234378
aF91.25542857142857
aF283.288
ag236
aS'utopia'
p240
aS'#878787'
p241
aF8.88595
aI0
aI00
aI00
aI00
aI00
aI00
aI00
aI00
aI00
aa(lp242
I84662
aF98.6671
aF283.288
aVp1
p243
aS'utopia'
p244
aS'#000000'
p245
aF8.88595
aI0
aI01
aI00
aI00
aI00
aI00
aI00
aI00
aI00
aa(lp246
I21716
aF120.141
aF283.288
aVp1
p247
aS'utopia'
p248
aS'#000000'
p249
aF8.88595
aI0
aI01
aI00
aI00
aI00
aI00
aI00
aI00
aI00
aa(lp250
I234378
aF135.04332
aF283.288
ag247
aS'utopia'
p251
aS'#000000'
p252
aF8.88595
aI0
aI00
aI00
aI00
aI00
aI00
aI00
aI00
aI00
aa(lp253
I234378
aF140.875
aF283.288
aVp1
p254
aS'utopia'
p255
aS'#000000'
p256
aF8.88595
aI0
aI01
aI01
aI01
aI00
aI00
aI00
aI00
aI00
aa(lp257
I234378
aF156.96212
aF283.288
ag254
aS'utopia'
p258
aS'#000000'
p259
aF8.88595
aI0
aI00
aI00
aI00
aI00
aI00
aI00
aI00
aI00
aa(lp260
I234378
aF163.09
aF283.288
aVp1
p261
aS'utopia'
p262
aS'#000000'
p263
aF8.88595
aI0
aI01
aI00
aI00
aI00
aI00
aI00
aI00
aI00
aa(lp264
I234378
aF184.7692
aF283.288
ag261
aS'utopia'
p265
aS'#000000'
p266
aF8.88595
aI0
aI00
aI00
aI00
aI00
aI00
aI00
aI00
aI00
aa(lp267
I234378
aF190.489
aF283.288
aVp1
p268
aS'utopia'
p269
aS'#000000'
p270
aF8.88595
aI0
aI01
aI00
aI00
aI00
aI00
aI00
aI00
aI00
aa(lp271
I234378
aF227.6188181818182
aF283.288
ag268
aS'utopia'
p272
aS'#000000'
p273
aF8.88595
aI0
aI00
aI00
aI00
aI00
aI00
aI00
aI00
aI00
aa(lp274
I234378
aF233.437
aF283.288
aVp1
p275
aS'utopia'
p276
aS'#000000'
p277
aF8.88595
aI0
aI01
aI00
aI00
aI00
aI00
aI00
aI00
aI00
aa(lp278
I234378
aF258.9244857142857
aF283.288
ag275
aS'utopia'
p279
aS'#000000'
p280
aF8.88595
aI0
aI00
aI00
aI00
aI00
aI00
aI00
aI00
aI00
aa(lp281
I234378
aF265.279
aF283.288
aVp1
p282
aS'utopia'
p283
aS'#000000'
p284
aF8.88595
aI0
aI01
aI01
aI00
aI00
aI00
aI00
aI00
aI00
aa(lp285
I234378
aF283.73572
aF283.288
ag282
aS'utopia'
p286
aS'#000000'
p287
aF8.88595
aI0
aI00
aI00
aI00
aI00
aI00
aI00
aI00
aI00
aa(lp288
I234378
aF55.7183
aF293.654
aVp1
p289
aS'utopia'
p290
aS'#000000'
p291
aF8.88595
aI0
aI01
aI00
aI00
aI00
aI00
aI00
aI00
aI00
aa(lp292
I234378
aF92.47682
aF293.654
ag289
aS'utopia'
p293
aS'#000000'
p294
aF8.88595
aI0
aI00
aI00
aI00
aI00
aI00
aI00
aI00
aI00
aa(lp295
I234378
aF98.6671
aF293.654
aVp1
p296
aS'utopia'
p297
aS'#000000'
p298
aF8.88595
aI0
aI01
aI01
aI00
aI00
aI00
aI00
aI00
aI00
aa(lp299
I234378
aF122.82951666666668
aF293.654
ag296
aS'utopia'
p300
aS'#000000'
p301
aF8.88595
aI0
aI00
aI00
aI00
aI00
aI00
aI00
aI00
aI00
aa(lp302
I51933
aF40.1679
aF330.697
aVp1
p303
aS'utopia'
p304
aS'#02304b'
p305
aF11.8479
aI1
aI01
aI00
aI00
aI00
aI00
aI00
aI00
aI00
aa(lp306
I60220
aF72.0093
aF330.697
aVp1
p307
aS'utopia'
p308
aS'#02304b'
p309
aF11.8479
aI1
aI01
aI00
aI00
aI00
aI00
aI00
aI00
aI00
aa(lp310
I234378
aF40.9084
aF362.414
aVp1
p311
aS'utopia'
p312
aS'#000000'
p313
aF10.3669
aI1
aI01
aI00
aI00
aI00
aI00
aI00
aI00
aI00
aa(lp314
I43052
aF93.4836
aF362.414
aVp1
p315
aS'utopia'
p316
aS'#000000'
p317
aF10.3669
aI1
aI01
aI00
aI00
aI00
aI00
aI00
aI00
aI00
aa(lp318
I234378
aF151.242
aF362.414
aVp1
p319
aS'utopia'
p320
aS'#000000'
p321
aF10.3669
aI1
aI01
aI00
aI00
aI00
aI00
aI00
aI00
aI00
aa(lp322
I223363
aF198.634
aF362.414
aVp1
p323
aS'utopia'
p324
aS'#000000'
p325
aF10.3669
aI1
aI01
aI00
aI00
aI00
aI00
aI00
aI00
aI00
aa(lp326
I234378
aF218.627
aF362.683
aVp1
p327
aS'utopia'
p328
aS'#656565'
p329
aF10.3669
aI0
aI00
aI00
aI00
aI00
aI00
aI00
aI00
aI00
aa(lp330
I15548
aF223.60442500000002
aF362.683
ag327
aS'utopia'
p331
aS'#656565'
p332
aF10.3669
aI0
aI01
aI00
aI00
aI00
aI00
aI00
aI00
aI00
aa(lp333
I70289
aF260.836
aF362.683
aVp1
p334
aS'utopia'
p335
aS'#656565'
p336
aF10.3669
aI0
aI01
aI00
aI00
aI00
aI00
aI00
aI00
aI00
aa(lp337
I234378
aF304.1849777777778
aF362.683
ag334
aS'utopia'
p338
aS'#656565'
p339
aF10.3669
aI0
aI00
aI00
aI00
aI00
aI00
aI00
aI00
aI00
aa(lp340
I149270
aF40.9084
aF378.974
aVp1
p341
aS'utopia'
p342
aS'#656565'
p343
aF10.3669
aI0
aI01
aI00
aI00
aI00
aI00
aI00
aI00
aI00
aa(lp344
I175409
aF89.7812
aF378.974
aVp1
p345
aS'utopia'
p346
aS'#656565'
p347
aF10.3669
aI0
aI01
aI00
aI00
aI00
aI00
aI00
aI00
aI00
aa(lp348
I234378
aF118.66
aF378.974
aVp1
p349
aS'utopia'
p350
aS'#656565'
p351
aF10.3669
aI0
aI01
aI00
aI00
aI00
aI00
aI00
aI00
aI01
aa(lp352
I234378
aF138.654
aF378.974
aVp1
p353
aS'utopia'
p354
aS'#656565'
p355
aF10.3669
aI0
aI00
aI00
aI01
aI01
aI01
aI00
aI00
aI00
aa(lp356
I145945
aF40.9084
aF398.805
aVp1
p357
aS'utopia'
p358
aS'#656565'
p359
aF8.88595
aI0
aI01
aI00
aI00
aI00
aI00
aI00
aI00
aI00
aa(lp360
I178237
aF82.3762
aF398.805
aVp1
p361
aS'utopia'
p362
aS'#656565'
p363
aF8.88595
aI0
aI01
aI00
aI00
aI00
aI00
aI00
aI00
aI00
aa(lp364
I123583
aF131.989
aF398.805
aVp1
p365
aS'utopia'
p366
aS'#656565'
p367
aF8.88595
aI0
aI00
aI00
aI00
aI00
aI00
aI00
aI00
aI00
aa(lp368
I144483
aF166.052
aF398.805
aVp1
p369
aS'utopia'
p370
aS'#656565'
p371
aF8.88595
aI0
aI00
aI00
aI00
aI00
aI00
aI00
aI00
aI00
aa(lp372
I204810
aF178.641
aF398.805
aVp1
p373
aS'utopia'
p374
aS'#656565'
p375
aF8.88595
aI0
aI01
aI00
aI00
aI00
aI00
aI00
aI00
aI00
aa(lp376
I68032
aF211.222
aF398.805
aVp1
p377
aS'utopia'
p378
aS'#656565'
p379
aF8.88595
aI0
aI01
aI00
aI00
aI00
aI00
aI00
aI00
aI00
aa(lp380
I85218
aF266.76
aF398.805
aVp1
p381
aS'utopia'
p382
aS'#656565'
p383
aF8.88595
aI0
aI00
aI00
aI00
aI00
aI00
aI00
aI00
aI00
aa(lp384
I166268
aF283.791
aF398.805
aVp1
p385
aS'utopia'
p386
aS'#656565'
p387
aF8.88595
aI0
aI01
aI00
aI00
aI00
aI00
aI00
aI00
aI00
aa(lp388
I144489
aF340.809
aF398.805
aVp1
p389
aS'utopia'
p390
aS'#656565'
p391
aF8.88595
aI0
aI00
aI00
aI00
aI00
aI00
aI00
aI00
aI00
aa(lp392
I37628
aF351.176
aF398.805
aVp1
p393
aS'utopia'
p394
aS'#656565'
p395
aF8.88595
aI0
aI01
aI00
aI00
aI00
aI00
aI00
aI00
aI00
aa(lp396
I226160
aF380.056
aF398.805
aVp1
p397
aS'utopia'
p398
aS'#656565'
p399
aF8.88595
aI0
aI01
aI00
aI00
aI00
aI00
aI00
aI00
aI00
aa(lp400
I207716
aF412.637
aF398.805
aVp1
p401
aS'utopia'
p402
aS'#656565'
p403
aF8.88595
aI0
aI01
aI00
aI00
aI00
aI00
aI00
aI00
aI00
aa(lp404
I234378
aF442.998
aF398.805
aVp1
p405
aS'utopia'
p406
aS'#656565'
p407
aF8.88595
aI0
aI00
aI00
aI00
aI00
aI00
aI00
aI00
aI00
aa(lp408
I21716
aF465.953
aF398.805
aVp1
p409
aS'utopia'
p410
aS'#656565'
p411
aF8.88595
aI0
aI01
aI00
aI00
aI00
aI00
aI00
aI00
aI00
aa(lp412
I89217
aF484.465
aF398.805
aVp1
p413
aS'utopia'
p414
aS'#656565'
p415
aF8.88595
aI0
aI01
aI00
aI00
aI00
aI00
aI00
aI00
aI00
aa(lp416
I234378
aF503.718
aF398.805
aVp1
p417
aS'utopia'
p418
aS'#656565'
p419
aF8.88595
aI0
aI01
aI01
aI00
aI00
aI00
aI00
aI00
aI00
aa(lp420
I85218
aF520.009
aF398.805
aVp1
p421
aS'utopia'
p422
aS'#656565'
p423
aF8.88595
aI0
aI00
aI00
aI00
aI00
aI00
aI00
aI00
aI00
aa(lp424
I234378
aF40.9084
aF409.172
aVp1
p425
aS'utopia'
p426
aS'#656565'
p427
aF8.88595
aI0
aI01
aI00
aI00
aI00
aI00
aI00
aI00
aI00
aa(lp428
I234378
aF77.66692
aF409.172
ag425
aS'utopia'
p429
aS'#656565'
p430
aF8.88595
aI0
aI00
aI00
aI00
aI00
aI00
aI00
aI00
aI00
aa(lp431
I22476
aF83.8572
aF409.172
aVp1
p432
aS'utopia'
p433
aS'#656565'
p434
aF8.88595
aI0
aI01
aI00
aI00
aI00
aI00
aI00
aI00
aI00
aa(lp435
I234378
aF92.0026
aF409.172
aVp1
p436
aS'utopia'
p437
aS'#656565'
p438
aF8.88595
aI0
aI00
aI00
aI00
aI00
aI00
aI00
aI00
aI00
aa(lp439
I117435
aF126.806
aF409.172
aVp1
p440
aS'utopia'
p441
aS'#656565'
p442
aF8.88595
aI0
aI00
aI00
aI00
aI00
aI00
aI00
aI00
aI00
aa(lp443
I85218
aF166.052
aF409.172
aVp1
p444
aS'utopia'
p445
aS'#656565'
p446
aF8.88595
aI0
aI00
aI00
aI00
aI00
aI00
aI00
aI00
aI00
aa(lp447
I83126
aF183.084
aF409.172
aVp1
p448
aS'utopia'
p449
aS'#656565'
p450
aF8.88595
aI0
aI00
aI00
aI00
aI00
aI00
aI00
aI00
aI00
aa(lp451
I144489
aF248.247
aF409.172
aVp1
p452
aS'utopia'
p453
aS'#656565'
p454
aF8.88595
aI0
aI00
aI00
aI00
aI00
aI00
aI00
aI00
aI00
aa(lp455
I228643
aF258.614
aF409.172
aVp1
p456
aS'utopia'
p457
aS'#656565'
p458
aF8.88595
aI0
aI01
aI00
aI00
aI00
aI00
aI00
aI00
aI00
aa(lp459
I85218
aF278.608
aF409.172
aVp1
p460
aS'utopia'
p461
aS'#656565'
p462
aF8.88595
aI0
aI00
aI00
aI00
aI00
aI00
aI00
aI00
aI00
aa(lp463
I196819
aF295.639
aF409.172
aVp1
p464
aS'utopia'
p465
aS'#656565'
p466
aF8.88595
aI0
aI00
aI00
aI00
aI00
aI00
aI00
aI00
aI00
aa(lp467
I234378
aF328.961
aF409.172
aVp1
p468
aS'utopia'
p469
aS'#656565'
p470
aF8.88595
aI0
aI01
aI01
aI00
aI00
aI00
aI00
aI00
aI00
aa(lp471
I162068
aF340.809
aF409.172
aVp1
p472
aS'utopia'
p473
aS'#656565'
p474
aF8.88595
aI0
aI00
aI00
aI00
aI00
aI00
aI00
aI00
aI00
aa(lp475
I169745
aF364.505
aF409.172
aVp1
p476
aS'utopia'
p477
aS'#656565'
p478
aF8.88595
aI0
aI00
aI00
aI00
aI00
aI00
aI00
aI00
aI00
aa(lp479
I112275
aF383.758
aF409.172
aVp1
p480
aS'utopia'
p481
aS'#656565'
p482
aF8.88595
aI0
aI00
aI00
aI00
aI00
aI00
aI00
aI00
aI00
aa(lp483
I85218
aF401.53
aF409.172
aVp1
p484
aS'utopia'
p485
aS'#656565'
p486
aF8.88595
aI0
aI00
aI00
aI00
aI00
aI00
aI00
aI00
aI00
aa(lp487
I141687
aF418.561
aF409.172
aVp1
p488
aS'utopia'
p489
aS'#656565'
p490
aF8.88595
aI0
aI00
aI00
aI00
aI00
aI00
aI00
aI00
aI00
aa(lp491
I234378
aF463.732
aF409.172
aVp1
p492
aS'utopia'
p493
aS'#656565'
p494
aF8.88595
aI0
aI00
aI00
aI00
aI00
aI00
aI00
aI00
aI00
aa(lp495
I234378
aF480.48941666666667
aF409.172
ag492
aS'utopia'
p496
aS'#656565'
p497
aF8.88595
aI0
aI00
aI00
aI00
aI00
aI00
aI00
aI00
aI00
aa(lp498
I48671
aF40.9084
aF419.539
aVp1
p499
aS'utopia'
p500
aS'#656565'
p501
aF8.88595
aI0
aI01
aI00
aI00
aI00
aI00
aI00
aI00
aI00
aa(lp502
I129688
aF69.0473
aF419.539
aVp1
p503
aS'utopia'
p504
aS'#656565'
p505
aF8.88595
aI0
aI01
aI00
aI00
aI00
aI00
aI00
aI00
aI00
aa(lp506
I234378
aF97.1861
aF419.539
aVp1
p507
aS'utopia'
p508
aS'#656565'
p509
aF8.88595
aI0
aI00
aI00
aI00
aI00
aI00
aI00
aI00
aI00
aa(lp510
I230771
aF101.629
aF419.539
aVp1
p511
aS'utopia'
p512
aS'#656565'
p513
aF8.88595
aI0
aI01
aI00
aI00
aI00
aI00
aI00
aI00
aI00
aa(lp514
I48671
aF132.73
aF419.539
aVp1
p515
aS'utopia'
p516
aS'#656565'
p517
aF8.88595
aI0
aI01
aI00
aI00
aI00
aI00
aI00
aI00
aI00
aa(lp518
I129688
aF160.869
aF419.539
aVp1
p519
aS'utopia'
p520
aS'#656565'
p521
aF8.88595
aI0
aI01
aI00
aI00
aI00
aI00
aI00
aI00
aI00
aa(lp522
I234378
aF40.9084
aF452.754
aVp1
p523
aS'utopia'
p524
aS'#000000'
p525
aF10.3669
aI1
aI00
aI01
aI01
aI00
aI00
aI00
aI00
aI00
aa(lp526
I234378
aF79.4142
aF452.754
aVp1
p527
aS'utopia'
p528
aS'#000000'
p529
aF10.3669
aI1
aI01
aI00
aI00
aI00
aI00
aI00
aI00
aI00
aa(lp530
I14859
aF124.584
aF452.754
aVp1
p531
aS'utopia'
p532
aS'#000000'
p533
aF10.3669
aI1
aI01
aI00
aI00
aI00
aI00
aI00
aI00
aI00
aa(lp534
I55966
aF40.9084
aF469.315
aVp1
p535
aS'utopia'
p536
aS'#656565'
p537
aF10.3669
aI0
aI01
aI00
aI00
aI00
aI00
aI00
aI00
aI00
aa(lp538
I234378
aF73.4902
aF469.315
aVp1
p539
aS'utopia'
p540
aS'#656565'
p541
aF10.3669
aI0
aI01
aI00
aI00
aI00
aI00
aI00
aI00
aI00
aa(lp542
I132100
aF116.439
aF469.315
aVp1
p543
aS'utopia'
p544
aS'#656565'
p545
aF10.3669
aI0
aI01
aI00
aI00
aI00
aI00
aI00
aI00
aI00
aa(lp546
I234378
aF164.571
aF469.315
aVp1
p547
aS'utopia'
p548
aS'#656565'
p549
aF10.3669
aI0
aI01
aI00
aI00
aI00
aI00
aI00
aI00
aI01
aa(lp550
I234378
aF183.824
aF469.315
aVp1
p551
aS'utopia'
p552
aS'#656565'
p553
aF10.3669
aI0
aI00
aI00
aI01
aI01
aI01
aI00
aI00
aI00
aa(lp554
I89480
aF206.779
aF469.315
aVp1
p555
aS'utopia'
p556
aS'#656565'
p557
aF10.3669
aI0
aI01
aI00
aI00
aI00
aI00
aI00
aI00
aI00
aa(lp558
I234378
aF221.589
aF469.315
aVp1
p559
aS'utopia'
p560
aS'#656565'
p561
aF10.3669
aI0
aI01
aI00
aI00
aI00
aI00
aI00
aI00
aI01
aa(lp562
I234378
aF241.583
aF469.315
aVp1
p563
aS'utopia'
p564
aS'#656565'
p565
aF10.3669
aI0
aI00
aI00
aI01
aI01
aI01
aI00
aI00
aI00
aa(lp566
I25691
aF40.9084
aF489.145
aVp1
p567
aS'utopia'
p568
aS'#656565'
p569
aF8.88595
aI0
aI01
aI00
aI00
aI00
aI00
aI00
aI00
aI00
aa(lp570
I89480
aF58.6803
aF489.145
aVp1
p571
aS'utopia'
p572
aS'#656565'
p573
aF8.88595
aI0
aI01
aI00
aI00
aI00
aI00
aI00
aI00
aI00
aa(lp574
I25691
aF71.2688
aF489.145
aVp1
p575
aS'utopia'
p576
aS'#656565'
p577
aF8.88595
aI0
aI01
aI00
aI00
aI00
aI00
aI00
aI00
aI00
aa(lp578
I163414
aF89.0407
aF489.145
aVp1
p579
aS'utopia'
p580
aS'#656565'
p581
aF8.88595
aI0
aI01
aI00
aI00
aI00
aI00
aI00
aI00
aI00
aa(lp582
I144489
aF127.546
aF489.145
aVp1
p583
aS'utopia'
p584
aS'#656565'
p585
aF8.88595
aI0
aI00
aI00
aI00
aI00
aI00
aI00
aI00
aI00
aa(lp586
I68032
aF137.913
aF489.145
aVp1
p587
aS'utopia'
p588
aS'#656565'
p589
aF8.88595
aI0
aI00
aI00
aI00
aI00
aI00
aI00
aI00
aI00
aa(lp590
I144489
aF191.97
aF489.145
aVp1
p591
aS'utopia'
p592
aS'#656565'
p593
aF8.88595
aI0
aI00
aI00
aI00
aI00
aI00
aI00
aI00
aI00
aa(lp594
I234378
aF202.337
aF489.145
aVp1
p595
aS'utopia'
p596
aS'#656565'
p597
aF8.88595
aI0
aI00
aI00
aI00
aI00
aI00
aI00
aI00
aI00
aa(lp598
I218914
aF236.399
aF489.145
aVp1
p599
aS'utopia'
p600
aS'#656565'
p601
aF8.88595
aI0
aI00
aI00
aI00
aI00
aI00
aI00
aI00
aI00
aa(lp602
I234378
aF262.317
aF489.145
aVp1
p603
aS'utopia'
p604
aS'#656565'
p605
aF8.88595
aI0
aI00
aI00
aI00
aI00
aI00
aI00
aI00
aI00
aa(lp606
I202216
aF297.12
aF489.145
aVp1
p607
aS'utopia'
p608
aS'#656565'
p609
aF8.88595
aI0
aI00
aI00
aI00
aI00
aI00
aI00
aI00
aI00
aa(lp610
I166558
aF348.955
aF489.145
aVp1
p611
aS'utopia'
p612
aS'#656565'
p613
aF8.88595
aI0
aI00
aI00
aI00
aI00
aI00
aI00
aI00
aI00
aa(lp614
I234378
aF378.0192666666666
aF489.145
ag611
aS'utopia'
p615
aS'#656565'
p616
aF8.88595
aI0
aI00
aI00
aI00
aI00
aI00
aI00
aI00
aI00
aa(lp617
I175641
aF383.758
aF489.145
aVp1
p618
aS'utopia'
p619
aS'#656565'
p620
aF8.88595
aI0
aI00
aI00
aI00
aI00
aI00
aI00
aI00
aI00
aa(lp621
I227525
aF423.004
aF489.145
aVp1
p622
aS'utopia'
p623
aS'#656565'
p624
aF8.88595
aI0
aI00
aI00
aI00
aI00
aI00
aI00
aI00
aI00
aa(lp625
I234378
aF442.84683333333334
aF489.145
ag622
aS'utopia'
p626
aS'#656565'
p627
aF8.88595
aI0
aI00
aI00
aI00
aI00
aI00
aI00
aI00
aI00
aa(lp628
I192341
aF448.922
aF489.145
aVp1
p629
aS'utopia'
p630
aS'#656565'
p631
aF8.88595
aI0
aI00
aI00
aI00
aI00
aI00
aI00
aI00
aI00
aa(lp632
I166558
aF478.541
aF489.145
aVp1
p633
aS'utopia'
p634
aS'#656565'
p635
aF8.88595
aI0
aI00
aI00
aI00
aI00
aI00
aI00
aI00
aI00
aa(lp636
I234378
aF507.60526666666664
aF489.145
ag633
aS'utopia'
p637
aS'#656565'
p638
aF8.88595
aI0
aI00
aI00
aI00
aI00
aI00
aI00
aI00
aI00
aa(lp639
I117435
aF513.345
aF489.145
aVp1
p640
aS'utopia'
p641
aS'#656565'
p642
aF8.88595
aI0
aI00
aI00
aI00
aI00
aI00
aI00
aI00
aI00
aa(lp643
I234378
aF548.77062
aF489.145
ag640
aS'utopia'
p644
aS'#656565'
p645
aF8.88595
aI0
aI00
aI00
aI00
aI00
aI00
aI00
aI00
aI00
aa(lp646
I234378
aF40.9084
aF499.512
aVp1
p647
aS'utopia'
p648
aS'#656565'
p649
aF8.88595
aI0
aI00
aI00
aI00
aI00
aI00
aI00
aI00
aI00
aa(lp650
I234378
aF85.81425
aF499.512
ag647
aS'utopia'
p651
aS'#656565'
p652
aF8.88595
aI0
aI00
aI00
aI00
aI00
aI00
aI00
aI00
aI00
aa(lp653
I83126
aF92.0026
aF499.512
aVp1
p654
aS'utopia'
p655
aS'#656565'
p656
aF8.88595
aI0
aI00
aI00
aI00
aI00
aI00
aI00
aI00
aI00
aa(lp657
I234378
aF152.92985333333334
aF499.512
ag654
aS'utopia'
p658
aS'#656565'
p659
aF8.88595
aI0
aI00
aI00
aI00
aI00
aI00
aI00
aI00
aI00
aa(lp660
I112275
aF159.388
aF499.512
aVp1
p661
aS'utopia'
p662
aS'#656565'
p663
aF8.88595
aI0
aI00
aI00
aI00
aI00
aI00
aI00
aI00
aI00
aa(lp664
I125078
aF177.16
aF499.512
aVp1
p665
aS'utopia'
p666
aS'#656565'
p667
aF8.88595
aI0
aI00
aI00
aI00
aI00
aI00
aI00
aI00
aI00
aa(lp668
I85218
aF205.299
aF499.512
aVp1
p669
aS'utopia'
p670
aS'#656565'
p671
aF8.88595
aI0
aI00
aI00
aI00
aI00
aI00
aI00
aI00
aI00
aa(lp672
I184171
aF222.33
aF499.512
aVp1
p673
aS'utopia'
p674
aS'#656565'
p675
aF8.88595
aI0
aI00
aI00
aI00
aI00
aI00
aI00
aI00
aI00
aa(lp676
I224801
aF276.386
aF499.512
aVp1
p677
aS'utopia'
p678
aS'#656565'
p679
aF8.88595
aI0
aI00
aI00
aI00
aI00
aI00
aI00
aI00
aI00
aa(lp680
I234378
aF328.07976666666667
aF499.512
ag677
aS'utopia'
p681
aS'#656565'
p682
aF8.88595
aI0
aI00
aI00
aI00
aI00
aI00
aI00
aI00
aI00
aa(lp683
I234378
aF40.9084
aF532.728
aVp1
p684
aS'utopia'
p685
aS'#000000'
p686
aF10.3669
aI1
aI01
aI00
aI00
aI00
aI00
aI00
aI00
aI00
aa(lp687
I234378
aF65.3448
aF532.728
aVp1
p688
aS'utopia'
p689
aS'#000000'
p690
aF10.3669
aI1
aI01
aI00
aI00
aI00
aI00
aI00
aI00
aI00
aa(lp691
I234378
aF128.287
aF532.728
aVp1
p692
aS'utopia'
p693
aS'#000000'
p694
aF10.3669
aI1
aI01
aI00
aI00
aI00
aI00
aI00
aI00
aI00
aa(lp695
I30416
aF40.9084
aF549.288
aVp1
p696
aS'utopia'
p697
aS'#656565'
p698
aF10.3669
aI0
aI01
aI00
aI00
aI00
aI00
aI00
aI00
aI00
aa(lp699
I207716
aF85.3382
aF549.288
aVp1
p700
aS'utopia'
p701
aS'#656565'
p702
aF10.3669
aI0
aI01
aI00
aI00
aI00
aI00
aI00
aI00
aI00
aa(lp703
I132100
aF121.622
aF549.288
aVp1
p704
aS'utopia'
p705
aS'#656565'
p706
aF10.3669
aI0
aI01
aI00
aI00
aI00
aI00
aI00
aI00
aI00
aa(lp707
I234378
aF169.755
aF549.288
aVp1
p708
aS'utopia'
p709
aS'#656565'
p710
aF10.3669
aI0
aI01
aI00
aI00
aI00
aI00
aI00
aI00
aI01
aa(lp711
I234378
aF189.748
aF549.288
aVp1
p712
aS'utopia'
p713
aS'#656565'
p714
aF10.3669
aI0
aI00
aI00
aI01
aI01
aI01
aI00
aI00
aI00
aa(lp715
I89480
aF212.703
aF549.288
aVp1
p716
aS'utopia'
p717
aS'#656565'
p718
aF10.3669
aI0
aI01
aI00
aI00
aI00
aI00
aI00
aI00
aI00
aa(lp719
I61519
aF227.513
aF549.288
aVp1
p720
aS'utopia'
p721
aS'#656565'
p722
aF10.3669
aI0
aI01
aI00
aI00
aI00
aI00
aI00
aI00
aI01
aa(lp723
I234378
aF245.285
aF549.288
aVp1
p724
aS'utopia'
p725
aS'#656565'
p726
aF10.3669
aI0
aI00
aI00
aI01
aI01
aI01
aI00
aI00
aI00
aa(lp727
I124531
aF40.1679
aF594.314
aVp1
p728
aS'utopia'
p729
aS'#02304b'
p730
aF11.8479
aI1
aI01
aI00
aI00
aI00
aI00
aI00
aI00
aI00
aa(lp731
I209062
aF40.9084
aF622.598
aVp1
p732
aS'utopia'
p733
aS'#656565'
p734
aF10.3669
aI0
aI01
aI00
aI00
aI00
aI00
aI00
aI00
aI00
aa(lp735
I234378
aF63.1233
aF622.598
aVp1
p736
aS'utopia'
p737
aS'#656565'
p738
aF10.3669
aI0
aI01
aI00
aI00
aI00
aI00
aI00
aI00
aI00
aa(lp739
I234378
aF111.996
aF622.598
aVp1
p740
aS'utopia'
p741
aS'#656565'
p742
aF10.3669
aI0
aI00
aI00
aI00
aI00
aI00
aI00
aI00
aI00
aa(lp743
I60201
aF117.92
aF622.598
aVp1
p744
aS'utopia'
p745
aS'#656565'
p746
aF10.3669
aI0
aI01
aI00
aI00
aI00
aI00
aI00
aI00
aI00
aa(lp747
I230071
aF137.913
aF622.598
aVp1
p748
aS'utopia'
p749
aS'#656565'
p750
aF10.3669
aI0
aI01
aI00
aI00
aI00
aI00
aI00
aI00
aI00
aa(lp751
I234378
aF164.571
aF622.598
aVp1
p752
aS'utopia'
p753
aS'#656565'
p754
aF10.3669
aI0
aI00
aI00
aI00
aI00
aI00
aI00
aI00
aI00
aa(lp755
I95395
aF40.9084
aF638.619
aVp1
p756
aS'utopia'
p757
aS'#000000'
p758
aF10.3669
aI1
aI01
aI01
aI00
aI00
aI00
aI00
aI00
aI00
aa(lp759
I234378
aF46.92665
aF638.619
ag756
aS'utopia'
p760
aS'#000000'
p761
aF10.3669
aI1
aI00
aI00
aI00
aI00
aI00
aI00
aI00
aI00
aa(lp762
I2737
aF52.944900000000004
aF638.619
ag756
aS'utopia'
p763
aS'#000000'
p764
aF10.3669
aI1
aI01
aI00
aI00
aI00
aI00
aI00
aI00
aI00
aa(lp765
I234378
aF79.4142
aF638.619
aVp1
p766
aS'utopia'
p767
aS'#000000'
p768
aF10.3669
aI1
aI00
aI00
aI00
aI00
aI00
aI00
aI00
aI00
aa(lp769
I234378
aF85.00615454545454
aF638.619
ag766
aS'utopia'
p770
aS'#000000'
p771
aF10.3669
aI1
aI01
aI00
aI00
aI00
aI00
aI00
aI00
aI00
aa(lp772
I234378
aF135.33374545454544
aF638.619
ag766
aS'utopia'
p773
aS'#000000'
p774
aF10.3669
aI1
aI00
aI00
aI00
aI00
aI00
aI00
aI00
aI00
aa(lp775
I234378
aF40.9084
aF658.882
aVp1
p776
aS'utopia'
p777
aS'#656565'
p778
aF10.3669
aI0
aI01
aI00
aI00
aI00
aI00
aI00
aI00
aI00
aa(lp779
I153079
aF84.5977
aF658.882
aVp1
p780
aS'utopia'
p781
aS'#656565'
p782
aF10.3669
aI0
aI01
aI00
aI00
aI00
aI00
aI00
aI00
aI00
aa(lp783
I135639
aF139.394
aF658.882
aVp1
p784
aS'utopia'
p785
aS'#656565'
p786
aF10.3669
aI0
aI00
aI00
aI00
aI00
aI00
aI00
aI00
aI00
aa(lp787
I234378
aF151.242
aF658.882
aVp1
p788
aS'utopia'
p789
aS'#656565'
p790
aF10.3669
aI0
aI00
aI00
aI01
aI01
aI01
aI00
aI00
aI00
aa(lp791
I234378
aF40.9084
aF687.021
aVp1
p792
aS'utopia'
p793
aS'#656565'
p794
aF10.3669
aI0
aI01
aI00
aI00
aI00
aI00
aI00
aI00
aI00
aa(lp795
I234378
aF117.18
aF687.021
aVp1
p796
aS'utopia'
p797
aS'#656565'
p798
aF10.3669
aI0
aI00
aI00
aI00
aI00
aI00
aI00
aI00
aI00
aa(lp799
I60201
aF123.103
aF687.021
aVp1
p800
aS'utopia'
p801
aS'#656565'
p802
aF10.3669
aI0
aI01
aI00
aI00
aI00
aI00
aI00
aI00
aI00
aa(lp803
I230071
aF143.097
aF687.021
aVp1
p804
aS'utopia'
p805
aS'#656565'
p806
aF10.3669
aI0
aI01
aI00
aI00
aI00
aI00
aI00
aI00
aI00
aa(lp807
I234378
aF169.755
aF687.021
aVp1
p808
aS'utopia'
p809
aS'#656565'
p810
aF10.3669
aI0
aI00
aI00
aI00
aI00
aI00
aI00
aI00
aI00
aa(lp811
I27780
aF40.9084
aF703.042
aVp1
p812
aS'utopia'
p813
aS'#000000'
p814
aF10.3669
aI1
aI01
aI01
aI00
aI00
aI00
aI00
aI00
aI00
aa(lp815
I234378
aF46.15191818181818
aF703.042
ag812
aS'utopia'
p816
aS'#000000'
p817
aF10.3669
aI1
aI00
aI00
aI00
aI00
aI00
aI00
aI00
aI00
aa(lp818
I2737
aF51.395436363636364
aF703.042
ag812
aS'utopia'
p819
aS'#000000'
p820
aF10.3669
aI1
aI01
aI00
aI00
aI00
aI00
aI00
aI00
aI00
aa(lp821
I234378
aF72.36950909090909
aF703.042
ag812
aS'utopia'
p822
aS'#000000'
p823
aF10.3669
aI1
aI00
aI00
aI00
aI00
aI00
aI00
aI00
aI00
aa(lp824
I27780
aF70.61302727272727
aF703.042
ag812
aS'utopia'
p825
aS'#000000'
p826
aF10.3669
aI1
aI01
aI01
aI00
aI00
aI00
aI00
aI00
aI00
aa(lp827
I234378
aF75.85654545454545
aF703.042
ag812
aS'utopia'
p828
aS'#000000'
p829
aF10.3669
aI1
aI00
aI00
aI00
aI00
aI00
aI00
aI00
aI00
aa(lp830
I64620
aF88.10006363636364
aF703.042
ag812
aS'utopia'
p831
aS'#000000'
p832
aF10.3669
aI1
aI01
aI01
aI00
aI00
aI00
aI00
aI00
aI00
aa(lp833
I234378
aF84.34358181818183
aF703.042
ag812
aS'utopia'
p834
aS'#000000'
p835
aF10.3669
aI1
aI00
aI00
aI00
aI00
aI00
aI00
aI00
aI00
aa(lp836
I234378
aF100.889
aF703.042
aVp1
p837
aS'utopia'
p838
aS'#000000'
p839
aF10.3669
aI1
aI00
aI00
aI00
aI00
aI00
aI00
aI00
aI00
aa(lp840
I234378
aF106.48095454545454
aF703.042
ag837
aS'utopia'
p841
aS'#000000'
p842
aF10.3669
aI1
aI01
aI00
aI00
aI00
aI00
aI00
aI00
aI00
aa(lp843
I234378
aF156.80854545454542
aF703.042
ag837
aS'utopia'
p844
aS'#000000'
p845
aF10.3669
aI1
aI00
aI00
aI00
aI00
aI00
aI00
aI00
aI00
aa(lp846
I118838
aF40.9084
aF723.305
aVp1
p847
aS'utopia'
p848
aS'#656565'
p849
aF10.3669
aI0
aI01
aI00
aI00
aI00
aI00
aI00
aI00
aI00
aa(lp850
I163492
aF66.0853
aF723.305
aVp1
p851
aS'utopia'
p852
aS'#656565'
p853
aF10.3669
aI0
aI01
aI00
aI00
aI00
aI00
aI00
aI00
aI00
aa(lp854
I153079
aF100.148
aF723.305
aVp1
p855
aS'utopia'
p856
aS'#656565'
p857
aF10.3669
aI0
aI01
aI00
aI00
aI00
aI00
aI00
aI00
aI00
aa(lp858
I144489
aF150.502
aF723.305
aVp1
p859
aS'utopia'
p860
aS'#656565'
p861
aF10.3669
aI0
aI00
aI00
aI00
aI00
aI00
aI00
aI00
aI00
aa(lp862
I43052
aF161.609
aF723.305
aVp1
p863
aS'utopia'
p864
aS'#656565'
p865
aF10.3669
aI0
aI01
aI00
aI00
aI00
aI00
aI00
aI00
aI00
aa(lp866
I234378
aF219.368
aF723.305
aVp1
p867
aS'utopia'
p868
aS'#656565'
p869
aF10.3669
aI0
aI00
aI00
aI00
aI00
aI00
aI00
aI00
aI00
aa(lp870
I234378
aF225.7681
aF723.305
ag867
aS'utopia'
p871
aS'#656565'
p872
aF10.3669
aI0
aI01
aI01
aI00
aI00
aI00
aI00
aI00
aI00
aa(lp873
I234378
aF251.3685
aF723.305
ag867
aS'utopia'
p874
aS'#656565'
p875
aF10.3669
aI0
aI00
aI00
aI00
aI00
aI00
aI00
aI00
aI00
aa(lp876
I135639
aF264.538
aF723.305
aVp1
p877
aS'utopia'
p878
aS'#656565'
p879
aF10.3669
aI0
aI00
aI00
aI00
aI00
aI00
aI00
aI00
aI00
aa(lp880
I234378
aF276.386
aF723.305
aVp1
p881
aS'utopia'
p882
aS'#656565'
p883
aF10.3669
aI0
aI00
aI00
aI01
aI01
aI01
aI00
aI00
aI00
aa(lp884
I234378
aF40.1679
aF757.223
aVp1
p885
aS'utopia'
p886
aS'#02304b'
p887
aF11.8479
aI1
aI01
aI00
aI00
aI00
aI00
aI00
aI00
aI00
aa(lp888
I234378
aF40.9084
aF785.507
aVp1
p889
aS'utopia'
p890
aS'#656565'
p891
aF10.3669
aI0
aI01
aI01
aI00
aI00
aI00
aI00
aI00
aI00
aa(lp892
I22476
aF40.1679
aF38.2012
aVp2
p893
aS'utopia'
p894
aS'#02304b'
p895
aF11.8479
aI1
aI01
aI01
aI00
aI00
aI00
aI00
aI00
aI00
aa(lp896
I234378
aF54.2374
aF38.2012
aVp2
p897
aS'utopia'
p898
aS'#02304b'
p899
aF11.8479
aI1
aI01
aI00
aI00
aI00
aI00
aI00
aI00
aI00
aa(lp900
I109610
aF48.3134
aF66.0912
aVp2
p901
aS'utopia'
p902
aS'#000000'
p903
aF8.88595
aI1
aI01
aI00
aI00
aI00
aI00
aI00
aI00
aI00
aa(lp904
I158577
aF69.7878
aF66.0912
aVp2
p905
aS'utopia'
p906
aS'#000000'
p907
aF8.88595
aI1
aI01
aI00
aI00
aI00
aI00
aI00
aI00
aI00
aa(lp908
I194179
aF188.267
aF66.0912
aVp2
p909
aS'utopia'
p910
aS'#000000'
p911
aF8.88595
aI1
aI01
aI00
aI00
aI00
aI00
aI00
aI00
aI00
aa(lp912
I177981
aF305.265
aF66.0912
aVp2
p913
aS'utopia'
p914
aS'#000000'
p915
aF8.88595
aI1
aI01
aI00
aI00
aI00
aI00
aI00
aI00
aI00
aa(lp916
I25729
aF324.518
aF66.0912
aVp2
p917
aS'utopia'
p918
aS'#000000'
p919
aF8.88595
aI1
aI01
aI00
aI00
aI00
aI00
aI00
aI00
aI00
aa(lp920
I60220
aF412.637
aF66.0912
aVp2
p921
aS'utopia'
p922
aS'#000000'
p923
aF8.88595
aI1
aI01
aI00
aI00
aI00
aI00
aI00
aI00
aI00
aa(lp924
I234378
aF48.3134
aF84.8346
aVp2
p925
aS'utopia'
p926
aS'#656565'
p927
aF8.88595
aI0
aI01
aI00
aI00
aI00
aI00
aI00
aI00
aI00
aa(lp928
I234378
aF188.267
aF84.8346
aVp2
p929
aS'utopia'
p930
aS'#656565'
p931
aF8.88595
aI0
aI00
aI00
aI01
aI01
aI00
aI00
aI00
aI00
aa(lp932
I234378
aF404.492
aF84.8346
aVp2
p933
aS'utopia'
p934
aS'#656565'
p935
aF8.88595
aI0
aI00
aI00
aI01
aI01
aI00
aI00
aI00
aI00
aa(lp936
I234378
aF411.156
aF84.8346
aVp2
p937
aS'utopia'
p938
aS'#656565'
p939
aF8.88595
aI0
aI01
aI00
aI00
aI00
aI00
aI00
aI00
aI00
aa(lp940
I234378
aF434.852
aF84.8346
aVp2
p941
aS'utopia'
p942
aS'#656565'
p943
aF8.88595
aI0
aI00
aI00
aI01
aI01
aI00
aI00
aI00
aI00
aa(lp944
I63729
aF441.517
aF84.8346
aVp2
p945
aS'utopia'
p946
aS'#656565'
p947
aF8.88595
aI0
aI01
aI00
aI00
aI00
aI00
aI00
aI00
aI00
aa(lp948
I234378
aF48.3134
aF103.347
aVp2
p949
aS'utopia'
p950
aS'#656565'
p951
aF8.88595
aI0
aI01
aI01
aI01
aI00
aI00
aI00
aI00
aI00
aa(lp952
I234378
aF68.3068
aF103.347
aVp2
p953
aS'utopia'
p954
aS'#656565'
p955
aF8.88595
aI0
aI00
aI00
aI00
aI00
aI00
aI00
aI00
aI00
aa(lp956
I234378
aF72.0178
aF103.347
ag953
aS'utopia'
p957
aS'#656565'
p958
aF8.88595
aI0
aI01
aI00
aI00
aI00
aI00
aI00
aI00
aI00
aa(lp959
I85218
aF100.148
aF103.347
aVp2
p960
aS'utopia'
p961
aS'#656565'
p962
aF8.88595
aI0
aI00
aI00
aI00
aI00
aI00
aI00
aI00
aI00
aa(lp963
I234378
aF117.18
aF103.347
aVp2
p964
aS'utopia'
p965
aS'#656565'
p966
aF8.88595
aI0
aI01
aI01
aI00
aI00
aI00
aI00
aI00
aI00
aa(lp967
I234378
aF128.93392500000002
aF103.347
ag964
aS'utopia'
p968
aS'#656565'
p969
aF8.88595
aI0
aI00
aI00
aI00
aI00
aI00
aI00
aI00
aI00
aa(lp970
I234378
aF188.267
aF103.347
aVp2
p971
aS'utopia'
p972
aS'#656565'
p973
aF8.88595
aI0
aI00
aI00
aI01
aI01
aI00
aI00
aI00
aI00
aa(lp974
I234378
aF317.113
aF103.347
aVp2
p975
aS'utopia'
p976
aS'#656565'
p977
aF8.88595
aI0
aI00
aI00
aI01
aI01
aI01
aI00
aI00
aI00
aa(lp978
I234378
aF404.492
aF103.347
aVp2
p979
aS'utopia'
p980
aS'#656565'
p981
aF8.88595
aI0
aI00
aI00
aI01
aI01
aI00
aI00
aI00
aI00
aa(lp982
I234378
aF411.156
aF103.347
aVp2
p983
aS'utopia'
p984
aS'#656565'
p985
aF8.88595
aI0
aI01
aI00
aI00
aI00
aI00
aI00
aI00
aI00
aa(lp986
I234378
aF434.852
aF103.347
aVp2
p987
aS'utopia'
p988
aS'#656565'
p989
aF8.88595
aI0
aI00
aI00
aI01
aI01
aI00
aI00
aI00
aI00
aa(lp990
I63729
aF441.517
aF103.347
aVp2
p991
aS'utopia'
p992
aS'#656565'
p993
aF8.88595
aI0
aI01
aI00
aI00
aI00
aI00
aI00
aI00
aI00
aa(lp994
I234378
aF48.3134
aF121.859
aVp2
p995
aS'utopia'
p996
aS'#656565'
p997
aF8.88595
aI0
aI01
aI01
aI00
aI00
aI00
aI00
aI00
aI00
aa(lp998
I234378
aF67.36252
aF121.859
ag995
aS'utopia'
p999
aS'#656565'
p1000
aF8.88595
aI0
aI00
aI00
aI00
aI00
aI00
aI00
aI00
aI00
aa(lp1001
I45445
aF74.2307
aF121.859
aVp2
p1002
aS'utopia'
p1003
aS'#656565'
p1004
aF8.88595
aI0
aI01
aI00
aI00
aI00
aI00
aI00
aI00
aI00
aa(lp1005
I234378
aF317.113
aF121.859
aVp2
p1006
aS'utopia'
p1007
aS'#656565'
p1008
aF8.88595
aI0
aI00
aI00
aI01
aI01
aI01
aI00
aI00
aI00
aa(lp1009
I234378
aF422.264
aF121.859
aVp2
p1010
aS'utopia'
p1011
aS'#656565'
p1012
aF8.88595
aI0
aI00
aI00
aI01
aI01
aI00
aI00
aI00
aI00
aa(lp1013
I234378
aF428.928
aF121.859
aVp2
p1014
aS'utopia'
p1015
aS'#656565'
p1016
aF8.88595
aI0
aI01
aI00
aI00
aI00
aI00
aI00
aI00
aI00
aa(lp1017
I234378
aF48.3134
aF140.372
aVp2
p1018
aS'utopia'
p1019
aS'#656565'
p1020
aF8.88595
aI0
aI01
aI01
aI00
aI00
aI00
aI00
aI00
aI00
aa(lp1021
I234378
aF317.113
aF140.372
aVp2
p1022
aS'utopia'
p1023
aS'#656565'
p1024
aF8.88595
aI0
aI00
aI00
aI01
aI01
aI01
aI00
aI00
aI00
aa(lp1025
I234378
aF422.264
aF140.372
aVp2
p1026
aS'utopia'
p1027
aS'#656565'
p1028
aF8.88595
aI0
aI00
aI00
aI01
aI01
aI00
aI00
aI00
aI00
aa(lp1029
I234378
aF428.928
aF140.372
aVp2
p1030
aS'utopia'
p1031
aS'#656565'
p1032
aF8.88595
aI0
aI01
aI00
aI00
aI00
aI00
aI00
aI00
aI00
aa(lp1033
I234378
aF48.3134
aF158.884
aVp2
p1034
aS'utopia'
p1035
aS'#656565'
p1036
aF8.88595
aI0
aI01
aI00
aI00
aI00
aI00
aI00
aI00
aI00
aa(lp1037
I234378
aF86.1164
aF158.884
ag1034
aS'utopia'
p1038
aS'#656565'
p1039
aF8.88595
aI0
aI00
aI00
aI00
aI00
aI00
aI00
aI00
aI00
aa(lp1040
I234378
aF92.0026
aF158.884
aVp2
p1041
aS'utopia'
p1042
aS'#656565'
p1043
aF8.88595
aI0
aI01
aI00
aI00
aI00
aI00
aI00
aI00
aI00
aa(lp1044
I234378
aF117.49008571428571
aF158.884
ag1041
aS'utopia'
p1045
aS'#656565'
p1046
aF8.88595
aI0
aI00
aI00
aI00
aI00
aI00
aI00
aI00
aI00
aa(lp1047
I165851
aF123.844
aF158.884
aVp2
p1048
aS'utopia'
p1049
aS'#656565'
p1050
aF8.88595
aI0
aI01
aI00
aI00
aI00
aI00
aI00
aI00
aI00
aa(lp1051
I234378
aF157.166
aF158.884
aVp2
p1052
aS'utopia'
p1053
aS'#656565'
p1054
aF8.88595
aI0
aI01
aI01
aI00
aI00
aI00
aI00
aI00
aI00
aa(lp1055
I234378
aF317.113
aF158.884
aVp2
p1056
aS'utopia'
p1057
aS'#656565'
p1058
aF8.88595
aI0
aI00
aI00
aI01
aI01
aI01
aI00
aI00
aI00
aa(lp1059
I234378
aF424.485
aF158.884
aVp2
p1060
aS'utopia'
p1061
aS'#656565'
p1062
aF8.88595
aI0
aI00
aI00
aI01
aI01
aI00
aI00
aI00
aI00
aa(lp1063
I91136
aF431.15
aF158.884
aVp2
p1064
aS'utopia'
p1065
aS'#656565'
p1066
aF8.88595
aI0
aI01
aI00
aI00
aI00
aI00
aI00
aI00
aI00
aa(lp1067
I234378
aF48.3134
aF177.397
aVp2
p1068
aS'utopia'
p1069
aS'#656565'
p1070
aF8.88595
aI0
aI01
aI01
aI00
aI00
aI00
aI00
aI00
aI00
aa(lp1071
I234378
aF63.950450000000004
aF177.397
ag1068
aS'utopia'
p1072
aS'#656565'
p1073
aF8.88595
aI0
aI00
aI00
aI00
aI00
aI00
aI00
aI00
aI00
aa(lp1074
I234378
aF71.2688
aF177.397
aVp2
p1075
aS'utopia'
p1076
aS'#656565'
p1077
aF8.88595
aI0
aI01
aI01
aI00
aI00
aI00
aI00
aI00
aI00
aa(lp1078
I234378
aF317.113
aF177.397
aVp2
p1079
aS'utopia'
p1080
aS'#656565'
p1081
aF8.88595
aI0
aI00
aI00
aI01
aI01
aI01
aI00
aI00
aI00
aa(lp1082
I234378
aF422.264
aF177.397
aVp2
p1083
aS'utopia'
p1084
aS'#656565'
p1085
aF8.88595
aI0
aI00
aI00
aI01
aI01
aI00
aI00
aI00
aI00
aa(lp1086
I234378
aF428.928
aF177.397
aVp2
p1087
aS'utopia'
p1088
aS'#656565'
p1089
aF8.88595
aI0
aI01
aI00
aI00
aI00
aI00
aI00
aI00
aI00
aa(lp1090
I234378
aF48.3134
aF195.909
aVp2
p1091
aS'utopia'
p1092
aS'#656565'
p1093
aF8.88595
aI0
aI01
aI00
aI00
aI00
aI00
aI00
aI00
aI00
aa(lp1094
I234378
aF188.267
aF195.909
aVp2
p1095
aS'utopia'
p1096
aS'#656565'
p1097
aF8.88595
aI0
aI00
aI00
aI01
aI01
aI00
aI00
aI00
aI00
aa(lp1098
I234378
aF317.113
aF195.909
aVp2
p1099
aS'utopia'
p1100
aS'#656565'
p1101
aF8.88595
aI0
aI00
aI00
aI01
aI01
aI01
aI00
aI00
aI00
aa(lp1102
I234378
aF422.264
aF195.909
aVp2
p1103
aS'utopia'
p1104
aS'#656565'
p1105
aF8.88595
aI0
aI00
aI00
aI01
aI01
aI00
aI00
aI00
aI00
aa(lp1106
I234378
aF428.928
aF195.909
aVp2
p1107
aS'utopia'
p1108
aS'#656565'
p1109
aF8.88595
aI0
aI01
aI00
aI00
aI00
aI00
aI00
aI00
aI00
aa(lp1110
I234378
aF48.3134
aF214.421
aVp2
p1111
aS'utopia'
p1112
aS'#656565'
p1113
aF8.88595
aI0
aI01
aI01
aI00
aI00
aI00
aI00
aI00
aI00
aa(lp1114
I234378
aF62.284325
aF214.421
ag1111
aS'utopia'
p1115
aS'#656565'
p1116
aF8.88595
aI0
aI00
aI00
aI00
aI00
aI00
aI00
aI00
aI00
aa(lp1117
I234378
aF69.0473
aF214.421
aVp2
p1118
aS'utopia'
p1119
aS'#656565'
p1120
aF8.88595
aI0
aI01
aI01
aI00
aI00
aI00
aI00
aI00
aI00
aa(lp1121
I234378
aF79.35400000000001
aF214.421
ag1118
aS'utopia'
p1122
aS'#656565'
p1123
aF8.88595
aI0
aI00
aI00
aI00
aI00
aI00
aI00
aI00
aI00
aa(lp1124
I234378
aF84.50735000000002
aF214.421
ag1118
aS'utopia'
p1125
aS'#656565'
p1126
aF8.88595
aI0
aI01
aI01
aI00
aI00
aI00
aI00
aI00
aI00
aa(lp1127
I234378
aF317.113
aF214.421
aVp2
p1128
aS'utopia'
p1129
aS'#656565'
p1130
aF8.88595
aI0
aI00
aI00
aI01
aI01
aI01
aI00
aI00
aI00
aa(lp1131
I234378
aF422.264
aF214.421
aVp2
p1132
aS'utopia'
p1133
aS'#656565'
p1134
aF8.88595
aI0
aI00
aI00
aI01
aI01
aI00
aI00
aI00
aI00
aa(lp1135
I234378
aF428.928
aF214.421
aVp2
p1136
aS'utopia'
p1137
aS'#656565'
p1138
aF8.88595
aI0
aI01
aI00
aI00
aI00
aI00
aI00
aI00
aI00
aa(lp1139
I17350
aF48.3134
aF232.934
aVp2
p1140
aS'utopia'
p1141
aS'#656565'
p1142
aF8.88595
aI0
aI01
aI00
aI00
aI00
aI00
aI00
aI00
aI00
aa(lp1143
I234378
aF68.3068
aF232.934
aVp2
p1144
aS'utopia'
p1145
aS'#656565'
p1146
aF8.88595
aI0
aI01
aI00
aI00
aI00
aI00
aI00
aI00
aI00
aa(lp1147
I89217
aF102.37
aF232.934
aVp2
p1148
aS'utopia'
p1149
aS'#656565'
p1150
aF8.88595
aI0
aI01
aI01
aI00
aI00
aI00
aI00
aI00
aI00
aa(lp1151
I234378
aF317.113
aF232.934
aVp2
p1152
aS'utopia'
p1153
aS'#656565'
p1154
aF8.88595
aI0
aI00
aI00
aI01
aI01
aI01
aI00
aI00
aI00
aa(lp1155
I234378
aF422.264
aF232.934
aVp2
p1156
aS'utopia'
p1157
aS'#656565'
p1158
aF8.88595
aI0
aI00
aI00
aI01
aI01
aI00
aI00
aI00
aI00
aa(lp1159
I234378
aF428.928
aF232.934
aVp2
p1160
aS'utopia'
p1161
aS'#656565'
p1162
aF8.88595
aI0
aI01
aI00
aI00
aI00
aI00
aI00
aI00
aI00
aa(lp1163
I195166
aF40.1679
aF283.305
aVp2
p1164
aS'utopia'
p1165
aS'#02304b'
p1166
aF11.8479
aI1
aI01
aI00
aI00
aI00
aI00
aI00
aI00
aI00
aa(lp1167
I136346
aF96.4456
aF283.305
aVp2
p1168
aS'utopia'
p1169
aS'#02304b'
p1170
aF11.8479
aI1
aI01
aI00
aI00
aI00
aI00
aI00
aI00
aI00
aa(lp1171
I195166
aF48.3134
aF311.195
aVp2
p1172
aS'utopia'
p1173
aS'#000000'
p1174
aF8.88595
aI1
aI01
aI00
aI00
aI00
aI00
aI00
aI00
aI00
aa(lp1175
I164378
aF177.16
aF311.195
aVp2
p1176
aS'utopia'
p1177
aS'#000000'
p1178
aF8.88595
aI1
aI01
aI00
aI00
aI00
aI00
aI00
aI00
aI00
aa(lp1179
I175077
aF296.379
aF311.195
aVp2
p1180
aS'utopia'
p1181
aS'#000000'
p1182
aF8.88595
aI1
aI01
aI00
aI00
aI00
aI00
aI00
aI00
aI00
aa(lp1183
I224291
aF397.087
aF311.195
aVp2
p1184
aS'utopia'
p1185
aS'#000000'
p1186
aF8.88595
aI1
aI01
aI00
aI00
aI00
aI00
aI00
aI00
aI00
aa(lp1187
I165206
aF497.054
aF311.195
aVp2
p1188
aS'utopia'
p1189
aS'#000000'
p1190
aF8.88595
aI1
aI01
aI00
aI00
aI00
aI00
aI00
aI00
aI00
aa(lp1191
I58002
aF48.3134
aF329.939
aVp2
p1192
aS'utopia'
p1193
aS'#656565'
p1194
aF8.88595
aI0
aI01
aI00
aI00
aI00
aI00
aI00
aI00
aI00
aa(lp1195
I61354
aF177.16
aF329.939
aVp2
p1196
aS'utopia'
p1197
aS'#656565'
p1198
aF8.88595
aI0
aI01
aI00
aI00
aI00
aI00
aI00
aI00
aI00
aa(lp1199
I144532
aF48.3134
aF348.451
aVp2
p1200
aS'utopia'
p1201
aS'#656565'
p1202
aF8.88595
aI0
aI01
aI00
aI00
aI00
aI00
aI00
aI00
aI00
aa(lp1203
I61354
aF177.16
aF348.451
aVp2
p1204
aS'utopia'
p1205
aS'#656565'
p1206
aF8.88595
aI0
aI01
aI00
aI00
aI00
aI00
aI00
aI00
aI00
aa(lp1207
I125387
aF48.3134
aF366.964
aVp2
p1208
aS'utopia'
p1209
aS'#656565'
p1210
aF8.88595
aI0
aI01
aI00
aI00
aI00
aI00
aI00
aI00
aI00
aa(lp1211
I61354
aF177.16
aF366.964
aVp2
p1212
aS'utopia'
p1213
aS'#656565'
p1214
aF8.88595
aI0
aI01
aI00
aI00
aI00
aI00
aI00
aI00
aI00
aa(lp1215
I234378
aF40.1679
aF398.823
aVp2
p1216
aS'utopia'
p1217
aS'#02304b'
p1218
aF11.8479
aI1
aI01
aI00
aI00
aI00
aI00
aI00
aI00
aI00
aa(lp1219
I201816
aF40.9084
aF430.646
aVp2
p1220
aS'utopia'
p1221
aS'#000000'
p1222
aF8.88595
aI0
aI01
aI00
aI00
aI00
aI00
aI00
aI00
aI00
aa(lp1223
I234378
aF54.9779
aF430.646
aVp2
p1224
aS'utopia'
p1225
aS'#000000'
p1226
aF8.88595
aI0
aI01
aI00
aI00
aI00
aI00
aI00
aI00
aI00
aa(lp1227
I86196
aF89.0407
aF430.646
aVp2
p1228
aS'utopia'
p1229
aS'#000000'
p1230
aF8.88595
aI0
aI01
aI00
aI00
aI00
aI00
aI00
aI00
aI00
aa(lp1231
I177271
aF40.1679
aF469.91
aVp2
p1232
aS'utopia'
p1233
aS'#02304b'
p1234
aF11.8479
aI1
aI01
aI00
aI00
aI00
aI00
aI00
aI00
aI00
aa(lp1235
I234378
aF74.2307
aF469.91
aVp2
p1236
aS'utopia'
p1237
aS'#02304b'
p1238
aF11.8479
aI1
aI01
aI00
aI00
aI00
aI00
aI00
aI00
aI00
aa(lp1239
I86794
aF458.548
aF497.925
aVp2
p1240
aS'utopia'
p1241
aS'#656565'
p1242
aF10.3669
aI1
aI01
aI00
aI00
aI00
aI00
aI00
aI00
aI00
aa(lp1243
I131455
aF497.054
aF497.925
aVp2
p1244
aS'utopia'
p1245
aS'#656565'
p1246
aF10.3669
aI1
aI01
aI00
aI00
aI00
aI00
aI00
aI00
aI00
aa(lp1247
I234378
aF514.826
aF497.925
aVp2
p1248
aS'utopia'
p1249
aS'#656565'
p1250
aF10.3669
aI1
aI01
aI00
aI00
aI00
aI00
aI00
aI00
aI00
aa(lp1251
I131455
aF458.548
aF513.582
aVp2
p1252
aS'utopia'
p1253
aS'#656565'
p1254
aF8.88595
aI0
aI01
aI00
aI00
aI00
aI00
aI00
aI00
aI00
aa(lp1255
I197416
aF474.099
aF513.582
aVp2
p1256
aS'utopia'
p1257
aS'#656565'
p1258
aF8.88595
aI0
aI01
aI00
aI00
aI00
aI00
aI00
aI00
aI00
aa(lp1259
I234378
aF491.37092
aF513.582
ag1256
aS'utopia'
p1260
aS'#656565'
p1261
aF8.88595
aI0
aI00
aI00
aI00
aI00
aI00
aI00
aI00
aI00
aa(lp1262
I28425
aF497.794
aF513.582
aVp2
p1263
aS'utopia'
p1264
aS'#434343'
p1265
aF8.88595
aI0
aI01
aI00
aI00
aI00
aI00
aI00
aI00
aI00
aa(lp1266
I7520
aF49.0539
aF526.064
aVp2
p1267
aS'utopia'
p1268
aS'#656565'
p1269
aF10.3669
aI1
aI01
aI00
aI00
aI00
aI00
aI00
aI00
aI00
aa(lp1270
I10865
aF93.4836
aF526.064
aVp2
p1271
aS'utopia'
p1272
aS'#656565'
p1273
aF10.3669
aI1
aI01
aI00
aI00
aI00
aI00
aI00
aI00
aI00
aa(lp1274
I72722
aF458.548
aF529.132
aVp2
p1275
aS'utopia'
p1276
aS'#656565'
p1277
aF8.88595
aI0
aI01
aI00
aI00
aI00
aI00
aI00
aI00
aI00
aa(lp1278
I12510
aF511.864
aF529.132
aVp2
p1279
aS'utopia'
p1280
aS'#656565'
p1281
aF8.88595
aI0
aI01
aI00
aI00
aI00
aI00
aI00
aI00
aI00
aa(lp1282
I234378
aF534.1779142857142
aF529.132
ag1279
aS'utopia'
p1283
aS'#656565'
p1284
aF8.88595
aI0
aI00
aI00
aI00
aI00
aI00
aI00
aI00
aI00
aa(lp1285
I132955
aF49.0539
aF541.721
aVp2
p1286
aS'utopia'
p1287
aS'#656565'
p1288
aF8.88595
aI0
aI01
aI00
aI00
aI00
aI00
aI00
aI00
aI00
aa(lp1289
I144489
aF69.7878
aF541.721
aVp2
p1290
aS'utopia'
p1291
aS'#656565'
p1292
aF8.88595
aI0
aI00
aI00
aI00
aI00
aI00
aI00
aI00
aI00
aa(lp1293
I132529
aF80.1547
aF541.721
aVp2
p1294
aS'utopia'
p1295
aS'#656565'
p1296
aF8.88595
aI0
aI01
aI00
aI00
aI00
aI00
aI00
aI00
aI00
aa(lp1297
I234378
aF98.76336666666667
aF541.721
ag1294
aS'utopia'
p1298
aS'#656565'
p1299
aF8.88595
aI0
aI00
aI00
aI00
aI00
aI00
aI00
aI00
aI00
aa(lp1300
I234378
aF104.591
aF541.721
aVp2
p1301
aS'utopia'
p1302
aS'#434343'
p1303
aF8.88595
aI0
aI00
aI00
aI01
aI01
aI01
aI00
aI00
aI00
aa(lp1304
I234378
aF115.699
aF541.721
aVp2
p1305
aS'utopia'
p1306
aS'#434343'
p1307
aF8.88595
aI0
aI01
aI00
aI00
aI00
aI00
aI00
aI00
aI01
aa(lp1308
I234378
aF132.73
aF541.721
aVp2
p1309
aS'utopia'
p1310
aS'#434343'
p1311
aF8.88595
aI0
aI00
aI00
aI01
aI01
aI01
aI00
aI00
aI00
aa(lp1312
I60201
aF458.548
aF543.202
aVp2
p1313
aS'utopia'
p1314
aS'#434343'
p1315
aF8.88595
aI0
aI01
aI00
aI00
aI00
aI00
aI00
aI00
aI00
aa(lp1316
I230071
aF475.579
aF543.202
aVp2
p1317
aS'utopia'
p1318
aS'#434343'
p1319
aF8.88595
aI0
aI01
aI00
aI00
aI00
aI00
aI00
aI00
aI00
aa(lp1320
I108944
aF49.0539
aF557.271
aVp2
p1321
aS'utopia'
p1322
aS'#656565'
p1323
aF8.88595
aI0
aI01
aI00
aI00
aI00
aI00
aI00
aI00
aI00
aa(lp1324
I234378
aF76.44544285714287
aF557.271
ag1321
aS'utopia'
p1325
aS'#656565'
p1326
aF8.88595
aI0
aI00
aI00
aI00
aI00
aI00
aI00
aI00
aI00
aa(lp1327
I104428
aF83.1167
aF557.271
aVp2
p1328
aS'utopia'
p1329
aS'#434343'
p1330
aF8.88595
aI0
aI01
aI00
aI00
aI00
aI00
aI00
aI00
aI00
aa(lp1331
I212271
aF49.0539
aF572.821
aVp2
p1332
aS'utopia'
p1333
aS'#656565'
p1334
aF8.88595
aI0
aI01
aI00
aI00
aI00
aI00
aI00
aI00
aI00
aa(lp1335
I12510
aF79.4142
aF572.821
aVp2
p1336
aS'utopia'
p1337
aS'#656565'
p1338
aF8.88595
aI0
aI01
aI00
aI00
aI00
aI00
aI00
aI00
aI00
aa(lp1339
I234378
aF101.72811428571428
aF572.821
ag1336
aS'utopia'
p1340
aS'#656565'
p1341
aF8.88595
aI0
aI00
aI00
aI00
aI00
aI00
aI00
aI00
aI00
aa(lp1342
I97834
aF107.553
aF572.821
aVp2
p1343
aS'utopia'
p1344
aS'#434343'
p1345
aF8.88595
aI0
aI01
aI00
aI00
aI00
aI00
aI00
aI00
aI00
aa(lp1346
I51933
aF458.548
aF561.607
aVp2
p1347
aS'utopia'
p1348
aS'#656565'
p1349
aF10.3669
aI1
aI01
aI00
aI00
aI00
aI00
aI00
aI00
aI00
aa(lp1350
I62768
aF458.548
aF574.196
aVp2
p1351
aS'utopia'
p1352
aS'#656565'
p1353
aF10.3669
aI1
aI01
aI00
aI00
aI00
aI00
aI00
aI00
aI00
aa(lp1354
I118366
aF49.0539
aF592.708
aVp2
p1355
aS'utopia'
p1356
aS'#656565'
p1357
aF10.3669
aI1
aI01
aI00
aI00
aI00
aI00
aI00
aI00
aI00
aa(lp1358
I234378
aF83.97235
aF592.708
ag1355
aS'utopia'
p1359
aS'#656565'
p1360
aF10.3669
aI1
aI00
aI00
aI00
aI00
aI00
aI00
aI00
aI00
aa(lp1361
I31679
aF458.548
aF589.853
aVp2
p1362
aS'utopia'
p1363
aS'#656565'
p1364
aF8.88595
aI0
aI01
aI01
aI00
aI00
aI00
aI00
aI00
aI00
aa(lp1365
I51933
aF471.877
aF589.853
aVp2
p1366
aS'utopia'
p1367
aS'#656565'
p1368
aF8.88595
aI0
aI01
aI00
aI00
aI00
aI00
aI00
aI00
aI00
aa(lp1369
I12510
aF495.573
aF589.853
aVp2
p1370
aS'utopia'
p1371
aS'#656565'
p1372
aF8.88595
aI0
aI01
aI00
aI00
aI00
aI00
aI00
aI00
aI00
aa(lp1373
I234378
aF517.8869142857143
aF589.853
ag1370
aS'utopia'
p1374
aS'#656565'
p1375
aF8.88595
aI0
aI00
aI00
aI00
aI00
aI00
aI00
aI00
aI00
aa(lp1376
I63091
aF523.712
aF589.853
aVp2
p1377
aS'utopia'
p1378
aS'#434343'
p1379
aF8.88595
aI0
aI01
aI00
aI00
aI00
aI00
aI00
aI00
aI00
aa(lp1380
I234378
aF49.0539
aF605.403
aVp2
p1381
aS'utopia'
p1382
aS'#000000'
p1383
aF8.88595
aI0
aI01
aI01
aI01
aI00
aI00
aI00
aI00
aI00
aa(lp1384
I234378
aF58.364754545454545
aF605.403
ag1381
aS'utopia'
p1385
aS'#000000'
p1386
aF8.88595
aI0
aI00
aI00
aI00
aI00
aI00
aI00
aI00
aI00
aa(lp1387
I27780
aF63.02018181818182
aF605.403
ag1381
aS'utopia'
p1388
aS'#000000'
p1389
aF8.88595
aI0
aI01
aI01
aI00
aI00
aI00
aI00
aI00
aI00
aa(lp1390
I234378
aF65.67560909090909
aF605.403
ag1381
aS'utopia'
p1391
aS'#000000'
p1392
aF8.88595
aI0
aI00
aI00
aI00
aI00
aI00
aI00
aI00
aI00
aa(lp1393
I234378
aF72.33103636363636
aF605.403
ag1381
aS'utopia'
p1394
aS'#000000'
p1395
aF8.88595
aI0
aI00
aI00
aI01
aI01
aI01
aI00
aI00
aI00
aa(lp1396
I234378
aF76.6418909090909
aF605.403
ag1381
aS'utopia'
p1397
aS'#000000'
p1398
aF8.88595
aI0
aI00
aI00
aI00
aI00
aI00
aI00
aI00
aI00
aa(lp1399
I234378
aF86.29731818181817
aF605.403
ag1381
aS'utopia'
p1400
aS'#000000'
p1401
aF8.88595
aI0
aI00
aI00
aI01
aI01
aI01
aI00
aI00
aI00
aa(lp1402
I234378
aF95.60817272727272
aF605.403
ag1381
aS'utopia'
p1403
aS'#000000'
p1404
aF8.88595
aI0
aI00
aI00
aI00
aI00
aI00
aI00
aI00
aI00
aa(lp1405
I230433
aF102.37
aF605.403
aVp2
p1406
aS'utopia'
p1407
aS'#000000'
p1408
aF8.88595
aI0
aI01
aI00
aI00
aI00
aI00
aI00
aI00
aI00
aa(lp1409
I52628
aF123.103
aF605.403
aVp2
p1410
aS'utopia'
p1411
aS'#000000'
p1412
aF8.88595
aI0
aI01
aI00
aI00
aI00
aI00
aI00
aI00
aI00
aa(lp1413
I135356
aF144.578
aF605.403
aVp2
p1414
aS'utopia'
p1415
aS'#000000'
p1416
aF8.88595
aI0
aI01
aI00
aI00
aI00
aI00
aI00
aI00
aI00
aa(lp1417
I26147
aF180.122
aF605.403
aVp2
p1418
aS'utopia'
p1419
aS'#000000'
p1420
aF8.88595
aI0
aI01
aI00
aI00
aI00
aI00
aI00
aI00
aI00
aa(lp1421
I234378
aF213.26770000000002
aF605.403
ag1418
aS'utopia'
p1422
aS'#000000'
p1423
aF8.88595
aI0
aI00
aI00
aI00
aI00
aI00
aI00
aI00
aI00
aa(lp1424
I27780
aF220.108
aF605.403
aVp2
p1425
aS'utopia'
p1426
aS'#000000'
p1427
aF8.88595
aI0
aI01
aI01
aI00
aI00
aI00
aI00
aI00
aI00
aa(lp1428
I234378
aF225.87483333333333
aF605.403
ag1425
aS'utopia'
p1429
aS'#000000'
p1430
aF8.88595
aI0
aI00
aI00
aI01
aI01
aI00
aI00
aI00
aI00
aa(lp1431
I198901
aF236.399
aF605.403
aVp2
p1432
aS'utopia'
p1433
aS'#000000'
p1434
aF8.88595
aI0
aI01
aI00
aI00
aI00
aI00
aI00
aI00
aI00
aa(lp1435
I86584
aF274.165
aF605.403
aVp2
p1436
aS'utopia'
p1437
aS'#000000'
p1438
aF8.88595
aI0
aI01
aI00
aI00
aI00
aI00
aI00
aI00
aI00
aa(lp1439
I111618
aF298.601
aF605.403
aVp2
p1440
aS'utopia'
p1441
aS'#000000'
p1442
aF8.88595
aI0
aI01
aI00
aI00
aI00
aI00
aI00
aI00
aI00
aa(lp1443
I234378
aF317.05772
aF605.403
ag1440
aS'utopia'
p1444
aS'#000000'
p1445
aF8.88595
aI0
aI00
aI00
aI00
aI00
aI00
aI00
aI00
aI00
aa(lp1446
I234378
aF323.778
aF605.403
aVp2
p1447
aS'utopia'
p1448
aS'#000000'
p1449
aF8.88595
aI0
aI01
aI00
aI00
aI00
aI00
aI00
aI00
aI00
aa(lp1450
I234378
aF358.581
aF605.403
aVp2
p1451
aS'utopia'
p1452
aS'#000000'
p1453
aF8.88595
aI0
aI00
aI00
aI00
aI00
aI00
aI00
aI00
aI00
aa(lp1454
I118838
aF363.0376
aF605.403
ag1451
aS'utopia'
p1455
aS'#000000'
p1456
aF8.88595
aI0
aI01
aI00
aI00
aI00
aI00
aI00
aI00
aI00
aa(lp1457
I163492
aF383.018
aF605.403
aVp2
p1458
aS'utopia'
p1459
aS'#000000'
p1460
aF8.88595
aI0
aI01
aI00
aI00
aI00
aI00
aI00
aI00
aI00
aa(lp1461
I234378
aF408.5105428571428
aF605.403
ag1458
aS'utopia'
p1462
aS'#000000'
p1463
aF8.88595
aI0
aI00
aI00
aI00
aI00
aI00
aI00
aI00
aI00
aa(lp1464
I234378
aF49.0539
aF615.77
aVp2
p1465
aS'utopia'
p1466
aS'#000000'
p1467
aF8.88595
aI0
aI00
aI00
aI01
aI01
aI01
aI00
aI00
aI00
aa(lp1468
I182663
aF49.0539
aF629.099
aVp2
p1469
aS'utopia'
p1470
aS'#656565'
p1471
aF8.88595
aI0
aI01
aI00
aI00
aI00
aI00
aI00
aI00
aI00
aa(lp1472
I82279
aF76.4522
aF629.099
aVp2
p1473
aS'utopia'
p1474
aS'#656565'
p1475
aF8.88595
aI0
aI01
aI00
aI00
aI00
aI00
aI00
aI00
aI00
aa(lp1476
I234378
aF96.09372
aF629.099
ag1473
aS'utopia'
p1477
aS'#656565'
p1478
aF8.88595
aI0
aI00
aI00
aI00
aI00
aI00
aI00
aI00
aI00
aa(lp1479
I234378
aF103.11
aF629.099
aVp2
p1480
aS'utopia'
p1481
aS'#000000'
p1482
aF8.88595
aI0
aI01
aI00
aI00
aI00
aI00
aI00
aI00
aI00
aa(lp1483
I234378
aF458.548
aF603.922
aVp2
p1484
aS'utopia'
p1485
aS'#434343'
p1486
aF8.88595
aI0
aI01
aI00
aI00
aI00
aI00
aI00
aI00
aI00
aa(lp1487
I234378
aF458.548
aF617.992
aVp2
p1488
aS'utopia'
p1489
aS'#656565'
p1490
aF8.88595
aI0
aI01
aI00
aI00
aI00
aI00
aI00
aI00
aI00
aa(lp1491
I234378
aF495.30652
aF617.992
ag1488
aS'utopia'
p1492
aS'#656565'
p1493
aF8.88595
aI0
aI00
aI00
aI00
aI00
aI00
aI00
aI00
aI00
aa(lp1494
I63091
aF501.497
aF617.992
aVp2
p1495
aS'utopia'
p1496
aS'#434343'
p1497
aF8.88595
aI0
aI01
aI00
aI00
aI00
aI00
aI00
aI00
aI00
aa(lp1498
I234378
aF458.548
aF632.061
aVp2
p1499
aS'utopia'
p1500
aS'#434343'
p1501
aF8.88595
aI0
aI01
aI00
aI00
aI00
aI00
aI00
aI00
aI00
aa(lp1502
I166771
aF458.548
aF650.467
aVp2
p1503
aS'utopia'
p1504
aS'#656565'
p1505
aF10.3669
aI1
aI01
aI00
aI00
aI00
aI00
aI00
aI00
aI00
aa(lp1506
I74833
aF514.826
aF650.467
aVp2
p1507
aS'utopia'
p1508
aS'#656565'
p1509
aF10.3669
aI1
aI01
aI00
aI00
aI00
aI00
aI00
aI00
aI00
aa(lp1510
I233758
aF458.548
aF666.124
aVp2
p1511
aS'utopia'
p1512
aS'#656565'
p1513
aF8.88595
aI0
aI01
aI00
aI00
aI00
aI00
aI00
aI00
aI00
aa(lp1514
I234378
aF492.2198222222222
aF666.124
ag1511
aS'utopia'
p1515
aS'#656565'
p1516
aF8.88595
aI0
aI00
aI00
aI00
aI00
aI00
aI00
aI00
aI00
aa(lp1517
I230332
aF498.535
aF666.124
aVp2
p1518
aS'utopia'
p1519
aS'#434343'
p1520
aF8.88595
aI0
aI01
aI00
aI00
aI00
aI00
aI00
aI00
aI00
aa(lp1521
I151511
aF458.548
aF681.674
aVp2
p1522
aS'utopia'
p1523
aS'#656565'
p1524
aF8.88595
aI0
aI01
aI00
aI00
aI00
aI00
aI00
aI00
aI00
aa(lp1525
I234378
aF499.275
aF681.674
aVp2
p1526
aS'utopia'
p1527
aS'#656565'
p1528
aF8.88595
aI0
aI01
aI00
aI00
aI00
aI00
aI00
aI00
aI00
aa(lp1529
I234378
aF541.1170909090908
aF681.674
ag1526
aS'utopia'
p1530
aS'#656565'
p1531
aF8.88595
aI0
aI00
aI00
aI00
aI00
aI00
aI00
aI00
aI00
aa(lp1532
I201816
aF458.548
aF695.744
aVp2
p1533
aS'utopia'
p1534
aS'#434343'
p1535
aF8.88595
aI0
aI01
aI00
aI00
aI00
aI00
aI00
aI00
aI00
aa(lp1536
I16915
aF308.227
aF158.884
aVp1
p1537
aS'utopia'
p1538
aS'#878787'
p1539
aF8.88595
aI0
aI01
aI00
aI00
aI00
aI00
aI00
aI00
aI00
aa(lp1540
I60220
aF330.442
aF158.884
aVp1
p1541
aS'utopia'
p1542
aS'#878787'
p1543
aF8.88595
aI0
aI01
aI00
aI00
aI00
aI00
aI00
aI00
aI00
aa(lp1544
I234378
aF372.28409090909093
aF158.884
ag1541
aS'utopia'
p1545
aS'#878787'
p1546
aF8.88595
aI0
aI00
aI00
aI00
aI00
aI00
aI00
aI00
aI00
aa(lp1547
I234378
aF380.796
aF158.884
aVp1
p1548
aS'utopia'
p1549
aS'#000000'
p1550
aF8.88595
aI0
aI00
aI00
aI01
aI01
aI00
aI00
aI00
aI00
aa(lp1551
I91136
aF387.46
aF158.884
aVp1
p1552
aS'utopia'
p1553
aS'#000000'
p1554
aF8.88595
aI0
aI01
aI00
aI00
aI00
aI00
aI00
aI00
aI00
aa(lp1555
I234378
aF403.18559999999997
aF158.884
ag1552
aS'utopia'
p1556
aS'#000000'
p1557
aF8.88595
aI0
aI00
aI00
aI00
aI00
aI00
aI00
aI00
aI00
aa(lp1558
I59734
aF407.11699999999996
aF158.884
ag1552
aS'utopia'
p1559
aS'#000000'
p1560
aF8.88595
aI0
aI00
aI00
aI00
aI00
aI00
aI00
aI00
aI00
aa(lp1561
I234378
aF411.04839999999996
aF158.884
ag1552
aS'utopia'
p1562
aS'#000000'
p1563
aF8.88595
aI0
aI00
aI00
aI00
aI00
aI00
aI00
aI00
aI00
aa(lp1564
I234378
aF417.08
aF158.884
aVp1
p1565
aS'utopia'
p1566
aS'#000000'
p1567
aF8.88595
aI0
aI00
aI00
aI01
aI01
aI00
aI00
aI00
aI00
aa(lp1568
I63729
aF423.745
aF158.884
aVp1
p1569
aS'utopia'
p1570
aS'#000000'
p1571
aF8.88595
aI0
aI01
aI00
aI00
aI00
aI00
aI00
aI00
aI00
aa(lp1572
I234378
aF446.4985625
aF158.884
ag1569
aS'utopia'
p1573
aS'#000000'
p1574
aF8.88595
aI0
aI00
aI00
aI00
aI00
aI00
aI00
aI00
aI00
aa(lp1575
I59734
aF451.04927499999997
aF158.884
ag1569
aS'utopia'
p1576
aS'#000000'
p1577
aF8.88595
aI0
aI00
aI00
aI00
aI00
aI00
aI00
aI00
aI00
aa(lp1578
I234378
aF455.59998749999994
aF158.884
ag1569
aS'utopia'
p1579
aS'#000000'
p1580
aF8.88595
aI0
aI00
aI00
aI00
aI00
aI00
aI00
aI00
aI00
aa(lp1581
I229300
aF308.227
aF176.656
aVp1
p1582
aS'utopia'
p1583
aS'#878787'
p1584
aF8.88595
aI0
aI01
aI00
aI00
aI00
aI00
aI00
aI00
aI00
aa(lp1585
I78894
aF338.588
aF176.656
aVp1
p1586
aS'utopia'
p1587
aS'#878787'
p1588
aF8.88595
aI0
aI01
aI00
aI00
aI00
aI00
aI00
aI00
aI00
aa(lp1589
I234378
aF360.9019142857143
aF176.656
ag1586
aS'utopia'
p1590
aS'#878787'
p1591
aF8.88595
aI0
aI00
aI00
aI00
aI00
aI00
aI00
aI00
aI00
aa(lp1592
I234378
aF368.948
aF176.656
aVp1
p1593
aS'utopia'
p1594
aS'#000000'
p1595
aF8.88595
aI0
aI01
aI00
aI00
aI00
aI00
aI00
aI00
aI00
aa(lp1596
I234378
aF380.796
aF176.656
aVp1
p1597
aS'utopia'
p1598
aS'#000000'
p1599
aF8.88595
aI0
aI00
aI00
aI01
aI01
aI01
aI00
aI00
aI00
aa(lp1600
I234378
aF391.903
aF176.656
aVp1
p1601
aS'utopia'
p1602
aS'#000000'
p1603
aF8.88595
aI0
aI01
aI00
aI00
aI00
aI00
aI00
aI00
aI00
aa(lp1604
I234378
aF308.227
aF194.428
aVp1
p1605
aS'utopia'
p1606
aS'#878787'
p1607
aF8.88595
aI0
aI01
aI00
aI00
aI00
aI00
aI00
aI00
aI00
aa(lp1608
I234378
aF346.733
aF194.428
aVp1
p1609
aS'utopia'
p1610
aS'#878787'
p1611
aF8.88595
aI0
aI01
aI01
aI00
aI00
aI00
aI00
aI00
aI00
aa(lp1612
I234378
aF361.2593
aF194.428
ag1609
aS'utopia'
p1613
aS'#878787'
p1614
aF8.88595
aI0
aI00
aI00
aI00
aI00
aI00
aI00
aI00
aI00
aa(lp1615
I63091
aF370.429
aF194.428
aVp1
p1616
aS'utopia'
p1617
aS'#000000'
p1618
aF8.88595
aI0
aI01
aI00
aI00
aI00
aI00
aI00
aI00
aI00
aa(lp1619
I234378
aF387.46
aF194.428
aVp1
p1620
aS'utopia'
p1621
aS'#000000'
p1622
aF8.88595
aI0
aI01
aI00
aI00
aI00
aI00
aI00
aI00
aI00
aa(lp1623
I7204
aF308.227
aF212.2
aVp1
p1624
aS'utopia'
p1625
aS'#878787'
p1626
aF8.88595
aI0
aI01
aI00
aI00
aI00
aI00
aI00
aI00
aI00
aa(lp1627
I189220
aF340.809
aF212.2
aVp1
p1628
aS'utopia'
p1629
aS'#878787'
p1630
aF8.88595
aI0
aI01
aI00
aI00
aI00
aI00
aI00
aI00
aI00
aa(lp1631
I234378
aF366.93111428571433
aF212.2
ag1628
aS'utopia'
p1632
aS'#878787'
p1633
aF8.88595
aI0
aI00
aI00
aI00
aI00
aI00
aI00
aI00
aI00
aa(lp1634
I95395
aF375.613
aF212.2
aVp1
p1635
aS'utopia'
p1636
aS'#000000'
p1637
aF8.88595
aI0
aI01
aI01
aI00
aI00
aI00
aI00
aI00
aI00
aa(lp1638
I234378
aF380.57728333333336
aF212.2
ag1635
aS'utopia'
p1639
aS'#000000'
p1640
aF8.88595
aI0
aI00
aI00
aI00
aI00
aI00
aI00
aI00
aI00
aa(lp1641
I2737
aF385.5415666666667
aF212.2
ag1635
aS'utopia'
p1642
aS'#000000'
p1643
aF8.88595
aI0
aI01
aI00
aI00
aI00
aI00
aI00
aI00
aI00
aa(lp1644
I48671
aF308.227
aF229.972
aVp1
p1645
aS'utopia'
p1646
aS'#878787'
p1647
aF8.88595
aI0
aI01
aI00
aI00
aI00
aI00
aI00
aI00
aI00
aa(lp1648
I129688
aF336.366
aF229.972
aVp1
p1649
aS'utopia'
p1650
aS'#878787'
p1651
aF8.88595
aI0
aI00
aI00
aI00
aI00
aI00
aI00
aI00
aI00
aa(lp1652
I234378
aF360.58405714285715
aF229.972
ag1649
aS'utopia'
p1653
aS'#878787'
p1654
aF8.88595
aI0
aI00
aI00
aI00
aI00
aI00
aI00
aI00
aI00
aa(lp1655
I230771
aF368.948
aF229.972
aVp1
p1656
aS'utopia'
p1657
aS'#000000'
p1658
aF8.88595
aI0
aI01
aI00
aI00
aI00
aI00
aI00
aI00
aI00
aa(lp1659
I48671
aF400.049
aF229.972
aVp1
p1660
aS'utopia'
p1661
aS'#000000'
p1662
aF8.88595
aI0
aI01
aI00
aI00
aI00
aI00
aI00
aI00
aI00
aa(lp1663
I129688
aF428.188
aF229.972
aVp1
p1664
aS'utopia'
p1665
aS'#000000'
p1666
aF8.88595
aI0
aI01
aI00
aI00
aI00
aI00
aI00
aI00
aI00
aa(lp1667
I1
aI1
aI0
aI0
aI0
aI0
aI0
aI0
aI0
aI0
aI0
aI0
aI0
aI0
aI0
aI0
aI0
aI0
aI0
aI0
aI0
aI0
aI0
aI0
aI0
aI0
aI0
aI0
aI0
aI0
aI0
aI0
aI0
aI0
aI0
aI0
aI0
aI0
aI0
aI0
aI0
aI0
aI0
aI0
aI0
aI0
aI0
aI0
aI0
aI0
aI0
aI0
aI0
aI0
aI0
aI0
aI0
aI0
aI0
aI0
aI0
aI0
aI0
aI0
aI0
aI0
aI0
aI0
aI0
aI0
aI0
aI0
aI0
aI0
aI0
aI0
aI0
aI0
aI0
aI0
aI0
aI1
aI1
aI0
aI0
aI0
aI0
aI0
aI0
aI0
aI0
aI0
aI0
aI0
aI0
aI0
aI0
aI0
aI0
aI0
aI0
aI0
aI0
aI0
aI0
aI0
aI0
aI0
aI0
aI0
aI0
aI0
aI0
aI0
aI0
aI0
aI0
aI0
aI0
aI0
aI0
aI0
aI0
aI0
aI0
aI0
aI0
aI0
aI0
aI0
aI0
aI0
aI0
aI0
aI0
aI0
aI0
aI0
aI0
aI0
aI0
aI0
aI0
aI0
aI0
aI0
aI0
aI0
aI0
aI0
aI0
aI0
aI0
aI0
aI0
aI0
aI0
aI0
aI0
aI0
aI0
aI0
aI0
aI0
aI0
aI0
aI0
aI0
aI0
aI0
aI0
aI0
aI0
aI0
aI0
aI0
aI0
aI0
aI0
aI0
aI0
aI0
aI0
aI0
aI0
aI0
aI0
aI0
aI0
aI0
aI1
aI0
aI0
aI0
aI0
aI0
aI0
aI0
aI0
aI0
aI0
aI0
aI0
aI0
aI0
aI0
aI0
aI0
aI0
aI0
aI0
aI0
aI0
aI0
aI0
aI0
aI0
aI0
aI0
aI0
aI0
aI0
aI0
aI0
aI0
aI0
aI0
aI0
aI0
aI0
aI0
aI0
aI0
aI1
aI0
aI1
aI1
aI0
aI0
aI0
aI0
aI0
aI0
aI0
aI0
aI0
aI0
aI0
aI0
aI0
aI0
aI0
aI0
aI0
aI0
aI0
aI0
aI0
aI0
aI0
aI0
aI0
aI0
aI0
aI0
aI0
aI0
aI0
aI0
aI0
aI0
aI0
aI0
aI0
aI0
aI0
aI0
aI0
aI0
aI0
aI0
aI0
aI0
aI0
aI0
aI0
aI0
aI0
aI0
aI0
aI0
aI0
aI0
aI0
aI0
aI0
aI0
aI0
aI0
aI0
aI0
aI0
aI0
aI0
aI0
aI1
aI1
aI0
aI0
aI0
aI0
aI0
aI0
aI0
aI0
aI0
aI0
aI0
aI1
aI0
aI0
aI0
aI1
aI1
aI0
aI0
aI0
aI0
aI0
aI0
aI0
aI0
aI0
aI0
aI0
aI0
aI0
aI0
aI0
aI0
aI0
aI0
aI0
aI0
aI0
aI0
aI0
aI0
aI0
aI0
aI0
aI0
aI0
aI0
aI0
aI0
aI0
aI0
aI0
aI0
aI0
aI0
aI0
aI0
aI0
aI0
aI0
aI0
aI0
aI0
aI0
aI0
aI0
aI0
aI0
aI0
aI0
aI0
aI0
aI0
aI0
aI0
aI0
aI0
aI0
aI0
aI0
aI0
aI0
aI0
aI0
aI0
aI0
aI0
aI0
aI0
aI0
aI0
aI0
aI0
aI0
aI0
aI0
aI0
aI0
aI0
aI0
aI0
aI0
aI0
aI0
aI0
aI0
aI0
aI0
aI0
aI0
aI0
aI0
aI0
aI0
aI0
aI0
aI0
aI0
aI0
aI0
aI0
aI0
aI0
aI0
aI0
aI0
aI0
aI0
aI0
aI0
aI0
aI0
aI0
atp1668
.