((lp0
(lp1
I234378
aF40.9084
aF53.0111
aVp1
p2
aS'utopia'
p3
aS'#02304b'
p4
aF11.8479
aI1
aI01
aI00
aI00
aI00
aI00
aI00
aI00
aI00
aa(lp5
I234378
aF86.0787
aF53.0111
aVp1
p6
aS'utopia'
p7
aS'#02304b'
p8
aF11.8479
aI1
aI01
aI00
aI00
aI00
aI00
aI00
aI00
aI00
aa(lp9
I123665
aF46.8324
aF74.4677
aVp1
p10
aS'utopia'
p11
aS'#656565'
p12
aF8.88595
aI0
aI01
aI00
aI00
aI00
aI00
aI00
aI00
aI00
aa(lp13
I100815
aF94.2241
aF74.4677
aVp1
p14
aS'utopia'
p15
aS'#656565'
p16
aF8.88595
aI0
aI01
aI00
aI00
aI00
aI00
aI00
aI00
aI00
aa(lp17
I234378
aF137.173
aF74.4677
aVp1
p18
aS'utopia'
p19
aS'#656565'
p20
aF8.88595
aI0
aI00
aI00
aI00
aI00
aI00
aI00
aI00
aI00
aa(lp21
I60201
aF140.77536
aF74.4677
ag18
aS'utopia'
p22
aS'#656565'
p23
aF8.88595
aI0
aI01
aI00
aI00
aI00
aI00
aI00
aI00
aI00
aa(lp24
I46145
aF157.166
aF74.4677
aVp1
p25
aS'utopia'
p26
aS'#656565'
p27
aF8.88595
aI0
aI01
aI00
aI00
aI00
aI00
aI00
aI00
aI00
aa(lp28
I234378
aF180.122
aF74.4677
aVp1
p29
aS'utopia'
p30
aS'#656565'
p31
aF8.88595
aI0
aI00
aI00
aI00
aI00
aI00
aI00
aI00
aI00
aa(lp32
I234378
aF184.565
aF74.4677
aVp1
p33
aS'utopia'
p34
aS'#656565'
p35
aF8.88595
aI0
aI01
aI01
aI00
aI00
aI00
aI00
aI00
aI00
aa(lp36
I85218
aF196.413
aF74.4677
aVp1
p37
aS'utopia'
p38
aS'#656565'
p39
aF8.88595
aI0
aI00
aI00
aI00
aI00
aI00
aI00
aI00
aI00
aa(lp40
I199810
aF213.444
aF74.4677
aVp1
p41
aS'utopia'
p42
aS'#656565'
p43
aF8.88595
aI0
aI01
aI00
aI00
aI00
aI00
aI00
aI00
aI00
aa(lp44
I25691
aF234.918
aF74.4677
aVp1
p45
aS'utopia'
p46
aS'#656565'
p47
aF8.88595
aI0
aI00
aI00
aI00
aI00
aI00
aI00
aI00
aI00
aa(lp48
I234378
aF246.98334
aF74.4677
ag45
aS'utopia'
p49
aS'#656565'
p50
aF8.88595
aI0
aI00
aI00
aI00
aI00
aI00
aI00
aI00
aI00
aa(lp51
I234378
aF251.00512
aF74.4677
ag45
aS'utopia'
p52
aS'#656565'
p53
aF8.88595
aI0
aI00
aI00
aI00
aI00
aI00
aI00
aI00
aI00
aa(lp54
I230771
aF257.133
aF74.4677
aVp1
p55
aS'utopia'
p56
aS'#656565'
p57
aF8.88595
aI0
aI01
aI00
aI00
aI00
aI00
aI00
aI00
aI00
aa(lp58
I48671
aF288.234
aF74.4677
aVp1
p59
aS'utopia'
p60
aS'#656565'
p61
aF8.88595
aI0
aI01
aI00
aI00
aI00
aI00
aI00
aI00
aI00
aa(lp62
I129688
aF316.373
aF74.4677
aVp1
p63
aS'utopia'
p64
aS'#656565'
p65
aF8.88595
aI0
aI01
aI00
aI00
aI00
aI00
aI00
aI00
aI00
aa(lp66
I144489
aF344.512
aF74.4677
aVp1
p67
aS'utopia'
p68
aS'#656565'
p69
aF8.88595
aI0
aI00
aI00
aI00
aI00
aI00
aI00
aI00
aI00
aa(lp70
I234378
aF354.879
aF74.4677
aVp1
p71
aS'utopia'
p72
aS'#656565'
p73
aF8.88595
aI0
aI00
aI00
aI01
aI01
aI00
aI00
aI00
aI00
aa(lp74
I128539
aF361.543
aF74.4677
aVp1
p75
aS'utopia'
p76
aS'#656565'
p77
aF8.88595
aI0
aI00
aI00
aI00
aI00
aI00
aI00
aI00
aI00
aa(lp78
I234378
aF59.4208
aF132.967
aVp1
p79
aS'utopia'
p80
aS'#0d75b4'
p81
aF8.88595
aI0
aI00
aI00
aI00
aI00
aI00
aI01
aI00
aI00
aa(lp82
I234378
aF301.563
aF124.081
aVp1
p83
aS'utopia'
p84
aS'#000000'
p85
aF8.88595
aI0
aI00
aI00
aI01
aI01
aI01
aI00
aI00
aI00
aa(lp86
I15548
aF55.7183
aF176.656
aVp1
p87
aS'utopia'
p88
aS'#878787'
p89
aF8.88595
aI0
aI01
aI00
aI00
aI00
aI00
aI00
aI00
aI00
aa(lp90
I104542
aF89.0407
aF176.656
aVp1
p91
aS'utopia'
p92
aS'#878787'
p93
aF8.88595
aI0
aI01
aI00
aI00
aI00
aI00
aI00
aI00
aI00
aa(lp94
I234378
aF133.94655
aF176.656
ag91
aS'utopia'
p95
aS'#878787'
p96
aF8.88595
aI0
aI00
aI00
aI00
aI00
aI00
aI00
aI00
aI00
aa(lp97
I234378
aF142.356
aF176.656
aVp1
p98
aS'utopia'
p99
aS'#000000'
p100
aF8.88595
aI0
aI01
aI00
aI00
aI00
aI00
aI00
aI00
aI00
aa(lp101
I100815
aF179.381
aF176.656
aVp1
p102
aS'utopia'
p103
aS'#000000'
p104
aF8.88595
aI0
aI01
aI00
aI00
aI00
aI00
aI00
aI00
aI00
aa(lp105
I15548
aF55.7183
aF194.428
aVp1
p106
aS'utopia'
p107
aS'#878787'
p108
aF8.88595
aI0
aI01
aI00
aI00
aI00
aI00
aI00
aI00
aI00
aa(lp109
I2006
aF89.0407
aF194.428
aVp1
p110
aS'utopia'
p111
aS'#878787'
p112
aF8.88595
aI0
aI01
aI00
aI00
aI00
aI00
aI00
aI00
aI00
aa(lp113
I234378
aF124.77815
aF194.428
ag110
aS'utopia'
p114
aS'#878787'
p115
aF8.88595
aI0
aI00
aI00
aI00
aI00
aI00
aI00
aI00
aI00
aa(lp116
I234378
aF134.211
aF194.428
aVp1
p117
aS'utopia'
p118
aS'#000000'
p119
aF8.88595
aI0
aI01
aI00
aI00
aI00
aI00
aI00
aI00
aI00
aa(lp120
I234378
aF174.198
aF194.428
aVp1
p121
aS'utopia'
p122
aS'#000000'
p123
aF8.88595
aI0
aI01
aI00
aI00
aI00
aI00
aI00
aI00
aI00
aa(lp124
I15548
aF55.7183
aF212.2
aVp1
p125
aS'utopia'
p126
aS'#878787'
p127
aF8.88595
aI0
aI01
aI00
aI00
aI00
aI00
aI00
aI00
aI00
aa(lp128
I17057
aF89.0407
aF212.2
aVp1
p129
aS'utopia'
p130
aS'#878787'
p131
aF8.88595
aI0
aI01
aI00
aI00
aI00
aI00
aI00
aI00
aI00
aa(lp132
I234378
aF122.05430000000001
aF212.2
ag129
aS'utopia'
p133
aS'#878787'
p134
aF8.88595
aI0
aI00
aI00
aI00
aI00
aI00
aI00
aI00
aI00
aa(lp135
I234378
aF130.508
aF212.2
aVp1
p136
aS'utopia'
p137
aS'#000000'
p138
aF8.88595
aI0
aI01
aI00
aI00
aI00
aI00
aI00
aI00
aI00
aa(lp139
I234378
aF173.457
aF212.2
aVp1
p140
aS'utopia'
p141
aS'#000000'
p142
aF8.88595
aI0
aI00
aI00
aI00
aI00
aI00
aI00
aI00
aI00
aa(lp143
I234378
aF180.122
aF212.2
aVp1
p144
aS'utopia'
p145
aS'#000000'
p146
aF8.88595
aI0
aI01
aI00
aI00
aI00
aI00
aI00
aI00
aI00
aa(lp147
I234378
aF55.7183
aF229.972
aVp1
p148
aS'utopia'
p149
aS'#878787'
p150
aF8.88595
aI0
aI01
aI00
aI00
aI00
aI00
aI00
aI00
aI00
aa(lp151
I234378
aF70.62062
aF229.972
ag148
aS'utopia'
p152
aS'#878787'
p153
aF8.88595
aI0
aI00
aI00
aI00
aI00
aI00
aI00
aI00
aI00
aa(lp154
I17057
aF76.4522
aF229.972
aVp1
p155
aS'utopia'
p156
aS'#878787'
p157
aF8.88595
aI0
aI01
aI00
aI00
aI00
aI00
aI00
aI00
aI00
aa(lp158
I234378
aF109.4658
aF229.972
ag155
aS'utopia'
p159
aS'#878787'
p160
aF8.88595
aI0
aI00
aI00
aI00
aI00
aI00
aI00
aI00
aI00
aa(lp161
I234378
aF117.92
aF229.972
aVp1
p162
aS'utopia'
p163
aS'#000000'
p164
aF8.88595
aI0
aI01
aI00
aI00
aI00
aI00
aI00
aI00
aI00
aa(lp165
I234378
aF160.869
aF229.972
aVp1
p166
aS'utopia'
p167
aS'#000000'
p168
aF8.88595
aI0
aI00
aI00
aI00
aI00
aI00
aI00
aI00
aI00
aa(lp169
I234378
aF167.533
aF229.972
aVp1
p170
aS'utopia'
p171
aS'#000000'
p172
aF8.88595
aI0
aI01
aI00
aI00
aI00
aI00
aI00
aI00
aI00
aa(lp173
I98580
aF55.7183
aF247.744
aVp1
p174
aS'utopia'
p175
aS'#878787'
p176
aF8.88595
aI0
aI01
aI00
aI00
aI00
aI00
aI00
aI00
aI00
aa(lp177
I166289
aF100.148
aF247.744
aVp1
p178
aS'utopia'
p179
aS'#878787'
p180
aF8.88595
aI0
aI01
aI00
aI00
aI00
aI00
aI00
aI00
aI00
aa(lp181
I234378
aF116.82751999999999
aF247.744
ag178
aS'utopia'
p182
aS'#878787'
p183
aF8.88595
aI0
aI00
aI00
aI00
aI00
aI00
aI00
aI00
aI00
aa(lp184
I22476
aF125.325
aF247.744
aVp1
p185
aS'utopia'
p186
aS'#000000'
p187
aF8.88595
aI0
aI01
aI01
aI00
aI00
aI00
aI00
aI00
aI00
aa(lp188
I234378
aF135.692
aF247.744
aVp1
p189
aS'utopia'
p190
aS'#000000'
p191
aF8.88595
aI0
aI01
aI00
aI00
aI00
aI00
aI00
aI00
aI00
aa(lp192
I123665
aF178.641
aF247.744
aVp1
p193
aS'utopia'
p194
aS'#000000'
p195
aF8.88595
aI0
aI01
aI00
aI00
aI00
aI00
aI00
aI00
aI00
aa(lp196
I234378
aF226.032
aF247.744
aVp1
p197
aS'utopia'
p198
aS'#000000'
p199
aF8.88595
aI0
aI01
aI00
aI00
aI00
aI00
aI00
aI00
aI00
aa(lp200
I234378
aF283.051
aF247.744
aVp1
p201
aS'utopia'
p202
aS'#000000'
p203
aF8.88595
aI0
aI00
aI00
aI00
aI00
aI00
aI00
aI00
aI00
aa(lp204
I20593
aF55.7183
aF258.111
aVp1
p205
aS'utopia'
p206
aS'#000000'
p207
aF8.88595
aI0
aI01
aI00
aI00
aI00
aI00
aI00
aI00
aI00
aa(lp208
I176435
aF55.7183
aF275.883
aVp1
p209
aS'utopia'
p210
aS'#878787'
p211
aF8.88595
aI0
aI01
aI00
aI00
aI00
aI00
aI00
aI00
aI00
aa(lp212
I234378
aF71.80542
aF275.883
ag209
aS'utopia'
p213
aS'#878787'
p214
aF8.88595
aI0
aI00
aI00
aI00
aI00
aI00
aI00
aI00
aI00
aa(lp215
I234378
aF80.1547
aF275.883
aVp1
p216
aS'utopia'
p217
aS'#000000'
p218
aF8.88595
aI0
aI01
aI00
aI00
aI00
aI00
aI00
aI00
aI00
aa(lp219
I100815
aF117.18
aF275.883
aVp1
p220
aS'utopia'
p221
aS'#000000'
p222
aF8.88595
aI0
aI01
aI00
aI00
aI00
aI00
aI00
aI00
aI00
aa(lp223
I74589
aF55.7183
aF293.654
aVp1
p224
aS'utopia'
p225
aS'#878787'
p226
aF8.88595
aI0
aI01
aI00
aI00
aI00
aI00
aI00
aI00
aI00
aa(lp227
I234378
aF87.41545555555555
aF293.654
ag224
aS'utopia'
p228
aS'#878787'
p229
aF8.88595
aI0
aI00
aI00
aI00
aI00
aI00
aI00
aI00
aI00
aa(lp230
I22476
aF95.7051
aF293.654
aVp1
p231
aS'utopia'
p232
aS'#000000'
p233
aF8.88595
aI0
aI01
aI01
aI00
aI00
aI00
aI00
aI00
aI00
aa(lp234
I234378
aF105.30374
aF293.654
ag231
aS'utopia'
p235
aS'#000000'
p236
aF8.88595
aI0
aI01
aI00
aI00
aI00
aI00
aI00
aI00
aI00
aa(lp237
I234378
aF139.69830000000002
aF293.654
ag231
aS'utopia'
p238
aS'#000000'
p239
aF8.88595
aI0
aI00
aI00
aI00
aI00
aI00
aI00
aI00
aI00
aa(lp240
I234378
aF134.99762
aF293.654
ag231
aS'utopia'
p241
aS'#000000'
p242
aF8.88595
aI0
aI01
aI00
aI00
aI00
aI00
aI00
aI00
aI00
aa(lp243
I234378
aF183.824
aF293.654
aVp1
p244
aS'utopia'
p245
aS'#000000'
p246
aF8.88595
aI0
aI01
aI00
aI00
aI00
aI00
aI00
aI00
aI00
aa(lp247
I231013
aF55.7183
aF311.426
aVp1
p248
aS'utopia'
p249
aS'#878787'
p250
aF8.88595
aI0
aI01
aI00
aI00
aI00
aI00
aI00
aI00
aI00
aa(lp251
I234378
aF72.7498
aF311.426
aVp1
p252
aS'utopia'
p253
aS'#878787'
p254
aF8.88595
aI0
aI01
aI00
aI00
aI00
aI00
aI00
aI00
aI00
aa(lp255
I234378
aF91.25542857142857
aF311.426
ag252
aS'utopia'
p256
aS'#878787'
p257
aF8.88595
aI0
aI00
aI00
aI00
aI00
aI00
aI00
aI00
aI00
aa(lp258
I45445
aF98.6671
aF311.426
aVp1
p259
aS'utopia'
p260
aS'#000000'
p261
aF8.88595
aI0
aI01
aI00
aI00
aI00
aI00
aI00
aI00
aI00
aa(lp262
I121293
aF126.806
aF311.426
aVp1
p263
aS'utopia'
p264
aS'#000000'
p265
aF8.88595
aI0
aI01
aI00
aI00
aI00
aI00
aI00
aI00
aI00
aa(lp266
I165938
aF163.09
aF311.426
aVp1
p267
aS'utopia'
p268
aS'#000000'
p269
aF8.88595
aI0
aI01
aI00
aI00
aI00
aI00
aI00
aI00
aI00
aa(lp270
I21716
aF213.444
aF311.426
aVp1
p271
aS'utopia'
p272
aS'#000000'
p273
aF8.88595
aI0
aI01
aI00
aI00
aI00
aI00
aI00
aI00
aI00
aa(lp274
I147627
aF231.956
aF311.426
aVp1
p275
aS'utopia'
p276
aS'#000000'
p277
aF8.88595
aI0
aI01
aI01
aI00
aI00
aI00
aI00
aI00
aI00
aa(lp278
I150037
aF243.804
aF311.426
aVp1
p279
aS'utopia'
p280
aS'#000000'
p281
aF8.88595
aI0
aI01
aI00
aI00
aI00
aI00
aI00
aI00
aI00
aa(lp282
I234378
aF55.7183
aF321.793
aVp1
p283
aS'utopia'
p284
aS'#000000'
p285
aF8.88595
aI0
aI00
aI00
aI00
aI00
aI00
aI00
aI00
aI00
aa(lp286
I234378
aF60.0339
aF321.793
ag283
aS'utopia'
p287
aS'#000000'
p288
aF8.88595
aI0
aI01
aI01
aI00
aI00
aI00
aI00
aI00
aI00
aa(lp289
I234378
aF79.4142
aF321.793
aVp1
p290
aS'utopia'
p291
aS'#000000'
p292
aF8.88595
aI0
aI00
aI00
aI00
aI00
aI00
aI00
aI00
aI00
aa(lp293
I234378
aF83.8716125
aF321.793
ag290
aS'utopia'
p294
aS'#000000'
p295
aF8.88595
aI0
aI01
aI01
aI00
aI00
aI00
aI00
aI00
aI00
aa(lp296
I234378
aF106.158675
aF321.793
ag290
aS'utopia'
p297
aS'#000000'
p298
aF8.88595
aI0
aI00
aI00
aI00
aI00
aI00
aI00
aI00
aI00
aa(lp299
I234378
aF110.6160875
aF321.793
ag290
aS'utopia'
p300
aS'#000000'
p301
aF8.88595
aI0
aI00
aI00
aI00
aI00
aI00
aI00
aI00
aI00
aa(lp302
I148996
aF117.18
aF321.793
aVp1
p303
aS'utopia'
p304
aS'#000000'
p305
aF8.88595
aI0
aI01
aI00
aI00
aI00
aI00
aI00
aI00
aI00
aa(lp306
I84662
aF144.578
aF321.793
aVp1
p307
aS'utopia'
p308
aS'#000000'
p309
aF8.88595
aI0
aI01
aI00
aI00
aI00
aI00
aI00
aI00
aI00
aa(lp310
I234378
aF166.052
aF321.793
aVp1
p311
aS'utopia'
p312
aS'#000000'
p313
aF8.88595
aI0
aI00
aI00
aI00
aI00
aI00
aI00
aI00
aI00
aa(lp314
I234378
aF170.495
aF321.793
aVp1
p315
aS'utopia'
p316
aS'#000000'
p317
aF8.88595
aI0
aI01
aI00
aI00
aI00
aI00
aI00
aI00
aI00
aa(lp318
I234378
aF192.1742
aF321.793
ag315
aS'utopia'
p319
aS'#000000'
p320
aF8.88595
aI0
aI00
aI00
aI00
aI00
aI00
aI00
aI00
aI00
aa(lp321
I176767
aF197.894
aF321.793
aVp1
p322
aS'utopia'
p323
aS'#000000'
p324
aF8.88595
aI0
aI01
aI00
aI00
aI00
aI00
aI00
aI00
aI00
aa(lp325
I234378
aF240.102
aF321.793
aVp1
p326
aS'utopia'
p327
aS'#000000'
p328
aF8.88595
aI0
aI00
aI00
aI00
aI00
aI00
aI00
aI00
aI00
aa(lp329
I234378
aF244.545
aF321.793
aVp1
p330
aS'utopia'
p331
aS'#000000'
p332
aF8.88595
aI0
aI01
aI00
aI00
aI00
aI00
aI00
aI00
aI00
aa(lp333
I234378
aF288.40654545454544
aF321.793
ag330
aS'utopia'
p334
aS'#000000'
p335
aF8.88595
aI0
aI00
aI00
aI00
aI00
aI00
aI00
aI00
aI00
aa(lp336
I234378
aF55.7183
aF332.16
aVp1
p337
aS'utopia'
p338
aS'#000000'
p339
aF8.88595
aI0
aI01
aI01
aI00
aI00
aI00
aI00
aI00
aI00
aa(lp340
I27780
aF69.73475
aF332.16
ag337
aS'utopia'
p341
aS'#000000'
p342
aF8.88595
aI0
aI01
aI01
aI00
aI00
aI00
aI00
aI00
aI00
aa(lp343
I234378
aF74.07356666666668
aF332.16
ag337
aS'utopia'
p344
aS'#000000'
p345
aF8.88595
aI0
aI00
aI00
aI00
aI00
aI00
aI00
aI00
aI00
aa(lp346
I234378
aF83.8572
aF332.16
aVp1
p347
aS'utopia'
p348
aS'#000000'
p349
aF8.88595
aI0
aI01
aI01
aI00
aI00
aI00
aI00
aI00
aI00
aa(lp350
I234378
aF98.87032857142857
aF332.16
ag347
aS'utopia'
p351
aS'#000000'
p352
aF8.88595
aI0
aI01
aI01
aI00
aI00
aI00
aI00
aI00
aI00
aa(lp353
I234378
aF108.21241428571429
aF332.16
ag347
aS'utopia'
p354
aS'#000000'
p355
aF8.88595
aI0
aI00
aI00
aI00
aI00
aI00
aI00
aI00
aI00
aa(lp356
I84662
aF118.66
aF332.16
aVp1
p357
aS'utopia'
p358
aS'#000000'
p359
aF8.88595
aI0
aI01
aI00
aI00
aI00
aI00
aI00
aI00
aI00
aa(lp360
I21716
aF140.135
aF332.16
aVp1
p361
aS'utopia'
p362
aS'#000000'
p363
aF8.88595
aI0
aI01
aI00
aI00
aI00
aI00
aI00
aI00
aI00
aa(lp364
I234378
aF158.647
aF332.16
aVp1
p365
aS'utopia'
p366
aS'#000000'
p367
aF8.88595
aI0
aI00
aI00
aI00
aI00
aI00
aI00
aI00
aI00
aa(lp368
I234378
aF163.09
aF332.16
aVp1
p369
aS'utopia'
p370
aS'#000000'
p371
aF8.88595
aI0
aI01
aI00
aI00
aI00
aI00
aI00
aI00
aI00
aa(lp372
I234378
aF191.97
aF332.16
aVp1
p373
aS'utopia'
p374
aS'#000000'
p375
aF8.88595
aI0
aI00
aI00
aI00
aI00
aI00
aI00
aI00
aI00
aa(lp376
I234378
aF196.413
aF332.16
aVp1
p377
aS'utopia'
p378
aS'#000000'
p379
aF8.88595
aI0
aI01
aI01
aI00
aI00
aI00
aI00
aI00
aI00
aa(lp380
I234378
aF211.222
aF332.16
aVp1
p381
aS'utopia'
p382
aS'#000000'
p383
aF8.88595
aI0
aI00
aI00
aI00
aI00
aI00
aI00
aI00
aI00
aa(lp384
I234378
aF215.665
aF332.16
aVp1
p385
aS'utopia'
p386
aS'#000000'
p387
aF8.88595
aI0
aI01
aI00
aI00
aI00
aI00
aI00
aI00
aI00
aa(lp388
I51933
aF40.1679
aF369.203
aVp1
p389
aS'utopia'
p390
aS'#02304b'
p391
aF11.8479
aI1
aI01
aI00
aI00
aI00
aI00
aI00
aI00
aI00
aa(lp392
I60220
aF72.0093
aF369.203
aVp1
p393
aS'utopia'
p394
aS'#02304b'
p395
aF11.8479
aI1
aI01
aI00
aI00
aI00
aI00
aI00
aI00
aI00
aa(lp396
I234378
aF40.9084
aF400.92
aVp1
p397
aS'utopia'
p398
aS'#000000'
p399
aF10.3669
aI1
aI01
aI00
aI00
aI00
aI00
aI00
aI00
aI00
aa(lp400
I234378
aF89.0407
aF400.92
aVp1
p401
aS'utopia'
p402
aS'#000000'
p403
aF10.3669
aI1
aI01
aI00
aI00
aI00
aI00
aI00
aI00
aI00
aa(lp404
I234378
aF128.287
aF401.189
aVp1
p405
aS'utopia'
p406
aS'#656565'
p407
aF10.3669
aI0
aI00
aI00
aI00
aI00
aI00
aI00
aI00
aI00
aa(lp408
I15548
aF133.26442500000002
aF401.189
ag405
aS'utopia'
p409
aS'#656565'
p410
aF10.3669
aI0
aI01
aI00
aI00
aI00
aI00
aI00
aI00
aI00
aa(lp411
I70289
aF170.495
aF401.189
aVp1
p412
aS'utopia'
p413
aS'#656565'
p414
aF10.3669
aI0
aI01
aI00
aI00
aI00
aI00
aI00
aI00
aI00
aa(lp415
I234378
aF213.84397777777778
aF401.189
ag412
aS'utopia'
p416
aS'#656565'
p417
aF10.3669
aI0
aI00
aI00
aI00
aI00
aI00
aI00
aI00
aI00
aa(lp418
I234378
aF40.9084
aF417.48
aVp1
p419
aS'utopia'
p420
aS'#656565'
p421
aF10.3669
aI0
aI01
aI00
aI00
aI00
aI00
aI00
aI00
aI00
aa(lp422
I100815
aF83.8572
aF417.48
aVp1
p423
aS'utopia'
p424
aS'#656565'
p425
aF10.3669
aI0
aI01
aI00
aI00
aI00
aI00
aI00
aI00
aI00
aa(lp426
I37515
aF138.654
aF417.48
aVp1
p427
aS'utopia'
p428
aS'#656565'
p429
aF10.3669
aI0
aI01
aI00
aI00
aI00
aI00
aI00
aI00
aI01
aa(lp430
I234378
aF160.869
aF417.48
aVp1
p431
aS'utopia'
p432
aS'#656565'
p433
aF10.3669
aI0
aI00
aI00
aI01
aI01
aI01
aI00
aI00
aI00
aa(lp434
I48671
aF40.9084
aF437.311
aVp1
p435
aS'utopia'
p436
aS'#656565'
p437
aF8.88595
aI0
aI01
aI00
aI00
aI00
aI00
aI00
aI00
aI00
aa(lp438
I129688
aF69.0473
aF437.311
aVp1
p439
aS'utopia'
p440
aS'#656565'
p441
aF8.88595
aI0
aI01
aI00
aI00
aI00
aI00
aI00
aI00
aI00
aa(lp442
I234378
aF97.1861
aF437.311
aVp1
p443
aS'utopia'
p444
aS'#656565'
p445
aF8.88595
aI0
aI00
aI00
aI00
aI00
aI00
aI00
aI00
aI00
aa(lp446
I230771
aF101.629
aF437.311
aVp1
p447
aS'utopia'
p448
aS'#656565'
p449
aF8.88595
aI0
aI01
aI00
aI00
aI00
aI00
aI00
aI00
aI00
aa(lp450
I48671
aF132.73
aF437.311
aVp1
p451
aS'utopia'
p452
aS'#656565'
p453
aF8.88595
aI0
aI01
aI00
aI00
aI00
aI00
aI00
aI00
aI00
aa(lp454
I129688
aF160.869
aF437.311
aVp1
p455
aS'utopia'
p456
aS'#656565'
p457
aF8.88595
aI0
aI01
aI00
aI00
aI00
aI00
aI00
aI00
aI00
aa(lp458
I234378
aF40.9084
aF470.526
aVp1
p459
aS'utopia'
p460
aS'#000000'
p461
aF10.3669
aI1
aI01
aI01
aI00
aI00
aI00
aI00
aI00
aI00
aa(lp462
I164802
aF63.8638
aF470.526
aVp1
p463
aS'utopia'
p464
aS'#000000'
p465
aF10.3669
aI1
aI01
aI00
aI00
aI00
aI00
aI00
aI00
aI00
aa(lp466
I83140
aF91.2621
aF470.526
aVp1
p467
aS'utopia'
p468
aS'#000000'
p469
aF10.3669
aI1
aI01
aI00
aI00
aI00
aI00
aI00
aI00
aI00
aa(lp470
I40036
aF127.546
aF470.526
aVp1
p471
aS'utopia'
p472
aS'#000000'
p473
aF10.3669
aI1
aI01
aI00
aI00
aI00
aI00
aI00
aI00
aI00
aa(lp474
I234378
aF40.9084
aF487.087
aVp1
p475
aS'utopia'
p476
aS'#656565'
p477
aF10.3669
aI0
aI01
aI00
aI00
aI00
aI00
aI00
aI00
aI00
aa(lp478
I207716
aF86.0787
aF487.087
aVp1
p479
aS'utopia'
p480
aS'#656565'
p481
aF10.3669
aI0
aI01
aI00
aI00
aI00
aI00
aI00
aI00
aI00
aa(lp482
I132100
aF122.363
aF487.087
aVp1
p483
aS'utopia'
p484
aS'#656565'
p485
aF10.3669
aI0
aI01
aI00
aI00
aI00
aI00
aI00
aI00
aI00
aa(lp486
I234378
aF170.495
aF487.087
aVp1
p487
aS'utopia'
p488
aS'#656565'
p489
aF10.3669
aI0
aI01
aI00
aI00
aI00
aI00
aI00
aI00
aI01
aa(lp490
I234378
aF190.489
aF487.087
aVp1
p491
aS'utopia'
p492
aS'#656565'
p493
aF10.3669
aI0
aI00
aI00
aI01
aI01
aI01
aI00
aI00
aI00
aa(lp494
I89480
aF213.444
aF487.087
aVp1
p495
aS'utopia'
p496
aS'#656565'
p497
aF10.3669
aI0
aI01
aI00
aI00
aI00
aI00
aI00
aI00
aI00
aa(lp498
I37515
aF228.254
aF487.087
aVp1
p499
aS'utopia'
p500
aS'#656565'
p501
aF10.3669
aI0
aI01
aI00
aI00
aI00
aI00
aI00
aI00
aI01
aa(lp502
I234378
aF250.469
aF487.087
aVp1
p503
aS'utopia'
p504
aS'#656565'
p505
aF10.3669
aI0
aI00
aI00
aI01
aI01
aI01
aI00
aI00
aI00
aa(lp506
I124531
aF40.1679
aF532.112
aVp1
p507
aS'utopia'
p508
aS'#02304b'
p509
aF11.8479
aI1
aI01
aI00
aI00
aI00
aI00
aI00
aI00
aI00
aa(lp510
I209062
aF40.9084
aF560.396
aVp1
p511
aS'utopia'
p512
aS'#656565'
p513
aF10.3669
aI0
aI01
aI00
aI00
aI00
aI00
aI00
aI00
aI00
aa(lp514
I234378
aF63.1233
aF560.396
aVp1
p515
aS'utopia'
p516
aS'#656565'
p517
aF10.3669
aI0
aI01
aI00
aI00
aI00
aI00
aI00
aI00
aI00
aa(lp518
I234378
aF111.996
aF560.396
aVp1
p519
aS'utopia'
p520
aS'#656565'
p521
aF10.3669
aI0
aI00
aI00
aI00
aI00
aI00
aI00
aI00
aI00
aa(lp522
I60201
aF117.92
aF560.396
aVp1
p523
aS'utopia'
p524
aS'#656565'
p525
aF10.3669
aI0
aI01
aI00
aI00
aI00
aI00
aI00
aI00
aI00
aa(lp526
I230071
aF137.913
aF560.396
aVp1
p527
aS'utopia'
p528
aS'#656565'
p529
aF10.3669
aI0
aI01
aI00
aI00
aI00
aI00
aI00
aI00
aI00
aa(lp530
I234378
aF164.571
aF560.396
aVp1
p531
aS'utopia'
p532
aS'#656565'
p533
aF10.3669
aI0
aI00
aI00
aI00
aI00
aI00
aI00
aI00
aI00
aa(lp534
I234378
aF40.9084
aF576.417
aVp1
p535
aS'utopia'
p536
aS'#000000'
p537
aF10.3669
aI1
aI01
aI01
aI00
aI00
aI00
aI00
aI00
aI00
aa(lp538
I57983
aF57.1993
aF576.417
aVp1
p539
aS'utopia'
p540
aS'#000000'
p541
aF10.3669
aI1
aI01
aI00
aI00
aI00
aI00
aI00
aI00
aI00
aa(lp542
I234378
aF101.629
aF576.417
aVp1
p543
aS'utopia'
p544
aS'#000000'
p545
aF10.3669
aI1
aI00
aI00
aI00
aI00
aI00
aI00
aI00
aI00
aa(lp546
I234378
aF107.22095454545455
aF576.417
ag543
aS'utopia'
p547
aS'#000000'
p548
aF10.3669
aI1
aI01
aI00
aI00
aI00
aI00
aI00
aI00
aI00
aa(lp549
I234378
aF157.54854545454543
aF576.417
ag543
aS'utopia'
p550
aS'#000000'
p551
aF10.3669
aI1
aI00
aI00
aI00
aI00
aI00
aI00
aI00
aI00
aa(lp552
I13642
aF40.9084
aF596.68
aVp1
p553
aS'utopia'
p554
aS'#656565'
p555
aF10.3669
aI0
aI01
aI00
aI00
aI00
aI00
aI00
aI00
aI00
aa(lp556
I51981
aF105.332
aF596.68
aVp1
p557
aS'utopia'
p558
aS'#656565'
p559
aF10.3669
aI0
aI01
aI00
aI00
aI00
aI00
aI00
aI00
aI00
aa(lp560
I144489
aF147.54
aF596.68
aVp1
p561
aS'utopia'
p562
aS'#656565'
p563
aF10.3669
aI0
aI00
aI00
aI00
aI00
aI00
aI00
aI00
aI00
aa(lp564
I74911
aF158.647
aF596.68
aVp1
p565
aS'utopia'
p566
aS'#656565'
p567
aF10.3669
aI0
aI01
aI00
aI00
aI00
aI00
aI00
aI00
aI00
aa(lp568
I43052
aF217.887
aF596.68
aVp1
p569
aS'utopia'
p570
aS'#656565'
p571
aF10.3669
aI0
aI01
aI00
aI00
aI00
aI00
aI00
aI00
aI00
aa(lp572
I234378
aF275.646
aF596.68
aVp1
p573
aS'utopia'
p574
aS'#656565'
p575
aF10.3669
aI0
aI00
aI00
aI00
aI00
aI00
aI00
aI00
aI00
aa(lp576
I234378
aF279.6322
aF596.68
ag573
aS'utopia'
p577
aS'#656565'
p578
aF10.3669
aI0
aI01
aI01
aI00
aI00
aI00
aI00
aI00
aI00
aa(lp579
I234378
aF295.577
aF596.68
ag573
aS'utopia'
p580
aS'#656565'
p581
aF10.3669
aI0
aI00
aI00
aI00
aI00
aI00
aI00
aI00
aI00
aa(lp582
I234378
aF299.5632
aF596.68
ag573
aS'utopia'
p583
aS'#656565'
p584
aF10.3669
aI0
aI00
aI00
aI00
aI00
aI00
aI00
aI00
aI00
aa(lp585
I234378
aF306.006
aF596.68
aVp1
p586
aS'utopia'
p587
aS'#656565'
p588
aF10.3669
aI0
aI01
aI00
aI00
aI00
aI00
aI00
aI00
aI00
aa(lp589
I135639
aF359.322
aF596.68
aVp1
p590
aS'utopia'
p591
aS'#656565'
p592
aF10.3669
aI0
aI00
aI00
aI00
aI00
aI00
aI00
aI00
aI00
aa(lp593
I234378
aF371.17
aF596.68
aVp1
p594
aS'utopia'
p595
aS'#656565'
p596
aF10.3669
aI0
aI00
aI00
aI01
aI01
aI01
aI00
aI00
aI00
aa(lp597
I234378
aF40.9084
aF624.819
aVp1
p598
aS'utopia'
p599
aS'#656565'
p600
aF10.3669
aI0
aI01
aI00
aI00
aI00
aI00
aI00
aI00
aI00
aa(lp601
I234378
aF117.18
aF624.819
aVp1
p602
aS'utopia'
p603
aS'#656565'
p604
aF10.3669
aI0
aI00
aI00
aI00
aI00
aI00
aI00
aI00
aI00
aa(lp605
I60201
aF123.103
aF624.819
aVp1
p606
aS'utopia'
p607
aS'#656565'
p608
aF10.3669
aI0
aI01
aI00
aI00
aI00
aI00
aI00
aI00
aI00
aa(lp609
I230071
aF143.097
aF624.819
aVp1
p610
aS'utopia'
p611
aS'#656565'
p612
aF10.3669
aI0
aI01
aI00
aI00
aI00
aI00
aI00
aI00
aI00
aa(lp613
I234378
aF169.755
aF624.819
aVp1
p614
aS'utopia'
p615
aS'#656565'
p616
aF10.3669
aI0
aI00
aI00
aI00
aI00
aI00
aI00
aI00
aI00
aa(lp617
I27780
aF40.9084
aF640.84
aVp1
p618
aS'utopia'
p619
aS'#000000'
p620
aF10.3669
aI1
aI01
aI01
aI00
aI00
aI00
aI00
aI00
aI00
aa(lp621
I234378
aF46.15191818181818
aF640.84
ag618
aS'utopia'
p622
aS'#000000'
p623
aF10.3669
aI1
aI00
aI00
aI00
aI00
aI00
aI00
aI00
aI00
aa(lp624
I2737
aF51.395436363636364
aF640.84
ag618
aS'utopia'
p625
aS'#000000'
p626
aF10.3669
aI1
aI01
aI00
aI00
aI00
aI00
aI00
aI00
aI00
aa(lp627
I234378
aF72.36950909090909
aF640.84
ag618
aS'utopia'
p628
aS'#000000'
p629
aF10.3669
aI1
aI00
aI00
aI00
aI00
aI00
aI00
aI00
aI00
aa(lp630
I27780
aF70.61302727272727
aF640.84
ag618
aS'utopia'
p631
aS'#000000'
p632
aF10.3669
aI1
aI01
aI01
aI00
aI00
aI00
aI00
aI00
aI00
aa(lp633
I234378
aF75.85654545454545
aF640.84
ag618
aS'utopia'
p634
aS'#000000'
p635
aF10.3669
aI1
aI00
aI00
aI00
aI00
aI00
aI00
aI00
aI00
aa(lp636
I64620
aF88.10006363636364
aF640.84
ag618
aS'utopia'
p637
aS'#000000'
p638
aF10.3669
aI1
aI01
aI01
aI00
aI00
aI00
aI00
aI00
aI00
aa(lp639
I234378
aF84.34358181818183
aF640.84
ag618
aS'utopia'
p640
aS'#000000'
p641
aF10.3669
aI1
aI00
aI00
aI00
aI00
aI00
aI00
aI00
aI00
aa(lp642
I234378
aF100.889
aF640.84
aVp1
p643
aS'utopia'
p644
aS'#000000'
p645
aF10.3669
aI1
aI00
aI00
aI00
aI00
aI00
aI00
aI00
aI00
aa(lp646
I234378
aF106.48095454545454
aF640.84
ag643
aS'utopia'
p647
aS'#000000'
p648
aF10.3669
aI1
aI01
aI00
aI00
aI00
aI00
aI00
aI00
aI00
aa(lp649
I234378
aF156.80854545454542
aF640.84
ag643
aS'utopia'
p650
aS'#000000'
p651
aF10.3669
aI1
aI00
aI00
aI00
aI00
aI00
aI00
aI00
aI00
aa(lp652
I234378
aF40.9084
aF661.103
aVp1
p653
aS'utopia'
p654
aS'#656565'
p655
aF10.3669
aI0
aI01
aI00
aI00
aI00
aI00
aI00
aI00
aI00
aa(lp656
I234378
aF67.5663
aF661.103
aVp1
p657
aS'utopia'
p658
aS'#656565'
p659
aF10.3669
aI0
aI01
aI00
aI00
aI00
aI00
aI00
aI00
aI00
aa(lp660
I149270
aF106.813
aF661.103
aVp1
p661
aS'utopia'
p662
aS'#656565'
p663
aF10.3669
aI0
aI01
aI00
aI00
aI00
aI00
aI00
aI00
aI00
aa(lp664
I153079
aF155.685
aF661.103
aVp1
p665
aS'utopia'
p666
aS'#656565'
p667
aF10.3669
aI0
aI01
aI00
aI00
aI00
aI00
aI00
aI00
aI00
aa(lp668
I234378
aF206.039
aF661.103
aVp1
p669
aS'utopia'
p670
aS'#656565'
p671
aF10.3669
aI0
aI00
aI00
aI00
aI00
aI00
aI00
aI00
aI00
aa(lp672
I234378
aF212.06885
aF661.103
ag669
aS'utopia'
p673
aS'#656565'
p674
aF10.3669
aI0
aI01
aI01
aI00
aI00
aI00
aI00
aI00
aI00
aa(lp675
I234378
aF236.18824999999998
aF661.103
ag669
aS'utopia'
p676
aS'#656565'
p677
aF10.3669
aI0
aI00
aI00
aI00
aI00
aI00
aI00
aI00
aI00
aa(lp678
I135639
aF248.988
aF661.103
aVp1
p679
aS'utopia'
p680
aS'#656565'
p681
aF10.3669
aI0
aI00
aI00
aI00
aI00
aI00
aI00
aI00
aI00
aa(lp682
I234378
aF260.836
aF661.103
aVp1
p683
aS'utopia'
p684
aS'#656565'
p685
aF10.3669
aI0
aI00
aI00
aI01
aI01
aI01
aI00
aI00
aI00
aa(lp686
I234378
aF40.1679
aF695.021
aVp1
p687
aS'utopia'
p688
aS'#02304b'
p689
aF11.8479
aI1
aI01
aI00
aI00
aI00
aI00
aI00
aI00
aI00
aa(lp690
I234378
aF40.9084
aF723.305
aVp1
p691
aS'utopia'
p692
aS'#656565'
p693
aF10.3669
aI0
aI01
aI01
aI00
aI00
aI00
aI00
aI00
aI00
aa(lp694
I22476
aF40.1679
aF760.925
aVp1
p695
aS'utopia'
p696
aS'#02304b'
p697
aF11.8479
aI1
aI01
aI01
aI00
aI00
aI00
aI00
aI00
aI00
aa(lp698
I234378
aF54.2374
aF760.925
aVp1
p699
aS'utopia'
p700
aS'#02304b'
p701
aF11.8479
aI1
aI01
aI00
aI00
aI00
aI00
aI00
aI00
aI00
aa(lp702
I109610
aF48.3134
aF788.815
aVp1
p703
aS'utopia'
p704
aS'#000000'
p705
aF8.88595
aI1
aI01
aI00
aI00
aI00
aI00
aI00
aI00
aI00
aa(lp706
I158577
aF69.7878
aF788.815
aVp1
p707
aS'utopia'
p708
aS'#000000'
p709
aF8.88595
aI1
aI01
aI00
aI00
aI00
aI00
aI00
aI00
aI00
aa(lp710
I194179
aF188.267
aF788.815
aVp1
p711
aS'utopia'
p712
aS'#000000'
p713
aF8.88595
aI1
aI01
aI00
aI00
aI00
aI00
aI00
aI00
aI00
aa(lp714
I177981
aF305.265
aF788.815
aVp1
p715
aS'utopia'
p716
aS'#000000'
p717
aF8.88595
aI1
aI01
aI00
aI00
aI00
aI00
aI00
aI00
aI00
aa(lp718
I25729
aF324.518
aF788.815
aVp1
p719
aS'utopia'
p720
aS'#000000'
p721
aF8.88595
aI1
aI01
aI00
aI00
aI00
aI00
aI00
aI00
aI00
aa(lp722
I60220
aF412.637
aF788.815
aVp1
p723
aS'utopia'
p724
aS'#000000'
p725
aF8.88595
aI1
aI01
aI00
aI00
aI00
aI00
aI00
aI00
aI00
aa(lp726
I148996
aF48.3134
aF28.557
aVp2
p727
aS'utopia'
p728
aS'#656565'
p729
aF8.88595
aI0
aI01
aI00
aI00
aI00
aI00
aI00
aI00
aI00
aa(lp730
I234378
aF75.7117
aF28.557
aVp2
p731
aS'utopia'
p732
aS'#656565'
p733
aF8.88595
aI0
aI01
aI01
aI00
aI00
aI00
aI00
aI00
aI00
aa(lp734
I234378
aF92.45949999999999
aF28.557
ag731
aS'utopia'
p735
aS'#656565'
p736
aF8.88595
aI0
aI00
aI00
aI00
aI00
aI00
aI00
aI00
aI00
aa(lp737
I148996
aF100.148
aF28.557
aVp2
p738
aS'utopia'
p739
aS'#656565'
p740
aF8.88595
aI0
aI01
aI00
aI00
aI00
aI00
aI00
aI00
aI00
aa(lp741
I84662
aF127.546
aF28.557
aVp2
p742
aS'utopia'
p743
aS'#656565'
p744
aF8.88595
aI0
aI01
aI00
aI00
aI00
aI00
aI00
aI00
aI00
aa(lp745
I234378
aF144.81792000000002
aF28.557
ag742
aS'utopia'
p746
aS'#656565'
p747
aF8.88595
aI0
aI00
aI00
aI00
aI00
aI00
aI00
aI00
aI00
aa(lp748
I148996
aF151.242
aF28.557
aVp2
p749
aS'utopia'
p750
aS'#656565'
p751
aF8.88595
aI0
aI01
aI00
aI00
aI00
aI00
aI00
aI00
aI00
aa(lp752
I231432
aF48.3134
aF38.9239
aVp2
p753
aS'utopia'
p754
aS'#656565'
p755
aF8.88595
aI0
aI01
aI00
aI00
aI00
aI00
aI00
aI00
aI00
aa(lp756
I234378
aF317.113
aF33.7404
aVp2
p757
aS'utopia'
p758
aS'#656565'
p759
aF8.88595
aI0
aI00
aI00
aI01
aI01
aI01
aI00
aI00
aI00
aa(lp760
I234378
aF422.264
aF33.7404
aVp2
p761
aS'utopia'
p762
aS'#656565'
p763
aF8.88595
aI0
aI00
aI00
aI01
aI01
aI00
aI00
aI00
aI00
aa(lp764
I234378
aF428.928
aF33.7404
aVp2
p765
aS'utopia'
p766
aS'#656565'
p767
aF8.88595
aI0
aI01
aI00
aI00
aI00
aI00
aI00
aI00
aI00
aa(lp768
I84662
aF48.3134
aF57.4363
aVp2
p769
aS'utopia'
p770
aS'#656565'
p771
aF8.88595
aI0
aI01
aI01
aI00
aI00
aI00
aI00
aI00
aI00
aa(lp772
I21716
aF74.2307
aF57.4363
aVp2
p773
aS'utopia'
p774
aS'#656565'
p775
aF8.88595
aI0
aI01
aI01
aI00
aI00
aI00
aI00
aI00
aI00
aa(lp776
I234378
aF317.113
aF57.4363
aVp2
p777
aS'utopia'
p778
aS'#656565'
p779
aF8.88595
aI0
aI00
aI00
aI01
aI01
aI01
aI00
aI00
aI00
aa(lp780
I234378
aF422.264
aF57.4363
aVp2
p781
aS'utopia'
p782
aS'#656565'
p783
aF8.88595
aI0
aI00
aI00
aI01
aI01
aI00
aI00
aI00
aI00
aa(lp784
I234378
aF428.928
aF57.4363
aVp2
p785
aS'utopia'
p786
aS'#656565'
p787
aF8.88595
aI0
aI01
aI00
aI00
aI00
aI00
aI00
aI00
aI00
aa(lp788
I234378
aF48.3134
aF75.9487
aVp2
p789
aS'utopia'
p790
aS'#656565'
p791
aF8.88595
aI0
aI01
aI00
aI00
aI00
aI00
aI00
aI00
aI00
aa(lp792
I234378
aF85.07192
aF75.9487
ag789
aS'utopia'
p793
aS'#656565'
p794
aF8.88595
aI0
aI00
aI00
aI00
aI00
aI00
aI00
aI00
aI00
aa(lp795
I161350
aF91.2621
aF75.9487
aVp2
p796
aS'utopia'
p797
aS'#656565'
p798
aF8.88595
aI0
aI01
aI00
aI00
aI00
aI00
aI00
aI00
aI00
aa(lp799
I234378
aF123.9209
aF75.9487
ag796
aS'utopia'
p800
aS'#656565'
p801
aF8.88595
aI0
aI00
aI00
aI00
aI00
aI00
aI00
aI00
aI00
aa(lp802
I234378
aF128.00325
aF75.9487
ag796
aS'utopia'
p803
aS'#656565'
p804
aF8.88595
aI0
aI00
aI00
aI00
aI00
aI00
aI00
aI00
aI00
aa(lp805
I234378
aF136.16795000000002
aF75.9487
ag796
aS'utopia'
p806
aS'#656565'
p807
aF8.88595
aI0
aI00
aI00
aI00
aI00
aI00
aI00
aI00
aI00
aa(lp808
I234378
aF142.356
aF75.9487
aVp2
p809
aS'utopia'
p810
aS'#656565'
p811
aF8.88595
aI0
aI01
aI01
aI01
aI00
aI00
aI00
aI00
aI00
aa(lp812
I234378
aF149.55263333333332
aF75.9487
ag809
aS'utopia'
p813
aS'#656565'
p814
aF8.88595
aI0
aI00
aI00
aI00
aI00
aI00
aI00
aI00
aI00
aa(lp815
I234378
aF153.15095
aF75.9487
ag809
aS'utopia'
p816
aS'#656565'
p817
aF8.88595
aI0
aI00
aI00
aI00
aI00
aI00
aI00
aI00
aI00
aa(lp818
I234378
aF160.34758333333332
aF75.9487
ag809
aS'utopia'
p819
aS'#656565'
p820
aF8.88595
aI0
aI00
aI00
aI00
aI00
aI00
aI00
aI00
aI00
aa(lp821
I44084
aF48.3134
aF86.3156
aVp2
p822
aS'utopia'
p823
aS'#656565'
p824
aF8.88595
aI0
aI01
aI00
aI00
aI00
aI00
aI00
aI00
aI00
aa(lp825
I144503
aF76.4522
aF86.3156
aVp2
p826
aS'utopia'
p827
aS'#656565'
p828
aF8.88595
aI0
aI01
aI00
aI00
aI00
aI00
aI00
aI00
aI00
aa(lp829
I234378
aF317.113
aF81.1322
aVp2
p830
aS'utopia'
p831
aS'#656565'
p832
aF8.88595
aI0
aI00
aI00
aI01
aI01
aI01
aI00
aI00
aI00
aa(lp833
I234378
aF422.264
aF81.1322
aVp2
p834
aS'utopia'
p835
aS'#656565'
p836
aF8.88595
aI0
aI00
aI00
aI01
aI01
aI00
aI00
aI00
aI00
aa(lp837
I234378
aF428.928
aF81.1322
aVp2
p838
aS'utopia'
p839
aS'#656565'
p840
aF8.88595
aI0
aI01
aI00
aI00
aI00
aI00
aI00
aI00
aI00
aa(lp841
I234378
aF48.3134
aF104.828
aVp2
p842
aS'utopia'
p843
aS'#656565'
p844
aF8.88595
aI0
aI01
aI00
aI00
aI00
aI00
aI00
aI00
aI00
aa(lp845
I234378
aF317.113
aF104.828
aVp2
p846
aS'utopia'
p847
aS'#656565'
p848
aF8.88595
aI0
aI00
aI00
aI01
aI01
aI01
aI00
aI00
aI00
aa(lp849
I234378
aF424.485
aF104.828
aVp2
p850
aS'utopia'
p851
aS'#656565'
p852
aF8.88595
aI0
aI00
aI00
aI01
aI01
aI00
aI00
aI00
aI00
aa(lp853
I91136
aF431.15
aF104.828
aVp2
p854
aS'utopia'
p855
aS'#656565'
p856
aF8.88595
aI0
aI01
aI00
aI00
aI00
aI00
aI00
aI00
aI00
aa(lp857
I176767
aF48.3134
aF123.34
aVp2
p858
aS'utopia'
p859
aS'#656565'
p860
aF8.88595
aI0
aI01
aI00
aI00
aI00
aI00
aI00
aI00
aI00
aa(lp861
I234378
aF86.40482
aF123.34
ag858
aS'utopia'
p862
aS'#656565'
p863
aF8.88595
aI0
aI00
aI00
aI00
aI00
aI00
aI00
aI00
aI00
aa(lp864
I148996
aF92.7431
aF123.34
aVp2
p865
aS'utopia'
p866
aS'#656565'
p867
aF8.88595
aI0
aI01
aI00
aI00
aI00
aI00
aI00
aI00
aI00
aa(lp868
I234378
aF120.141
aF123.34
aVp2
p869
aS'utopia'
p870
aS'#656565'
p871
aF8.88595
aI0
aI01
aI01
aI00
aI00
aI00
aI00
aI00
aI00
aa(lp872
I20488
aF48.3134
aF133.707
aVp2
p873
aS'utopia'
p874
aS'#656565'
p875
aF8.88595
aI0
aI01
aI00
aI00
aI00
aI00
aI00
aI00
aI00
aa(lp876
I234378
aF317.113
aF128.524
aVp2
p877
aS'utopia'
p878
aS'#656565'
p879
aF8.88595
aI0
aI00
aI00
aI01
aI01
aI01
aI00
aI00
aI00
aa(lp880
I234378
aF422.264
aF128.524
aVp2
p881
aS'utopia'
p882
aS'#656565'
p883
aF8.88595
aI0
aI00
aI00
aI01
aI01
aI00
aI00
aI00
aI00
aa(lp884
I234378
aF428.928
aF128.524
aVp2
p885
aS'utopia'
p886
aS'#656565'
p887
aF8.88595
aI0
aI01
aI00
aI00
aI00
aI00
aI00
aI00
aI00
aa(lp888
I234378
aF48.3134
aF152.22
aVp2
p889
aS'utopia'
p890
aS'#656565'
p891
aF8.88595
aI0
aI01
aI01
aI00
aI00
aI00
aI00
aI00
aI00
aa(lp892
I234378
aF69.7878
aF152.22
aVp2
p893
aS'utopia'
p894
aS'#656565'
p895
aF8.88595
aI0
aI00
aI00
aI00
aI00
aI00
aI00
aI00
aI00
aa(lp896
I75399
aF92.7431
aF152.22
aVp2
p897
aS'utopia'
p898
aS'#656565'
p899
aF8.88595
aI0
aI01
aI00
aI00
aI00
aI00
aI00
aI00
aI00
aa(lp900
I234378
aF132.3389222222222
aF152.22
ag897
aS'utopia'
p901
aS'#656565'
p902
aF8.88595
aI0
aI00
aI00
aI00
aI00
aI00
aI00
aI00
aI00
aa(lp903
I234378
aF139.394
aF152.22
aVp2
p904
aS'utopia'
p905
aS'#656565'
p906
aF8.88595
aI0
aI01
aI01
aI00
aI00
aI00
aI00
aI00
aI00
aa(lp907
I234378
aF317.113
aF152.22
aVp2
p908
aS'utopia'
p909
aS'#656565'
p910
aF8.88595
aI0
aI00
aI00
aI01
aI01
aI01
aI00
aI00
aI00
aa(lp911
I234378
aF404.492
aF152.22
aVp2
p912
aS'utopia'
p913
aS'#656565'
p914
aF8.88595
aI0
aI00
aI00
aI01
aI01
aI00
aI00
aI00
aI00
aa(lp915
I91136
aF411.156
aF152.22
aVp2
p916
aS'utopia'
p917
aS'#656565'
p918
aF8.88595
aI0
aI01
aI00
aI00
aI00
aI00
aI00
aI00
aI00
aa(lp919
I234378
aF431.15
aF152.22
aVp2
p920
aS'utopia'
p921
aS'#656565'
p922
aF8.88595
aI0
aI00
aI00
aI01
aI01
aI00
aI00
aI00
aI00
aa(lp923
I234378
aF437.814
aF152.22
aVp2
p924
aS'utopia'
p925
aS'#656565'
p926
aF8.88595
aI0
aI01
aI00
aI00
aI00
aI00
aI00
aI00
aI00
aa(lp927
I234378
aF48.3134
aF170.732
aVp2
p928
aS'utopia'
p929
aS'#656565'
p930
aF8.88595
aI0
aI01
aI01
aI00
aI00
aI00
aI00
aI00
aI00
aa(lp931
I234378
aF76.79531666666666
aF170.732
ag928
aS'utopia'
p932
aS'#656565'
p933
aF8.88595
aI0
aI00
aI00
aI00
aI00
aI00
aI00
aI00
aI00
aa(lp934
I234378
aF84.5977
aF170.732
aVp2
p935
aS'utopia'
p936
aS'#656565'
p937
aF8.88595
aI0
aI01
aI01
aI00
aI00
aI00
aI00
aI00
aI00
aa(lp938
I234378
aF317.113
aF170.732
aVp2
p939
aS'utopia'
p940
aS'#656565'
p941
aF8.88595
aI0
aI00
aI00
aI01
aI01
aI01
aI00
aI00
aI00
aa(lp942
I234378
aF422.264
aF170.732
aVp2
p943
aS'utopia'
p944
aS'#656565'
p945
aF8.88595
aI0
aI00
aI00
aI01
aI01
aI00
aI00
aI00
aI00
aa(lp946
I234378
aF428.928
aF170.732
aVp2
p947
aS'utopia'
p948
aS'#656565'
p949
aF8.88595
aI0
aI01
aI00
aI00
aI00
aI00
aI00
aI00
aI00
aa(lp950
I234378
aF48.3134
aF189.245
aVp2
p951
aS'utopia'
p952
aS'#656565'
p953
aF8.88595
aI0
aI01
aI01
aI00
aI00
aI00
aI00
aI00
aI00
aa(lp954
I234378
aF62.8397
aF189.245
ag951
aS'utopia'
p955
aS'#656565'
p956
aF8.88595
aI0
aI00
aI00
aI00
aI00
aI00
aI00
aI00
aI00
aa(lp957
I216500
aF69.7878
aF189.245
aVp2
p958
aS'utopia'
p959
aS'#656565'
p960
aF8.88595
aI0
aI01
aI01
aI00
aI00
aI00
aI00
aI00
aI00
aa(lp961
I234378
aF317.113
aF189.245
aVp2
p962
aS'utopia'
p963
aS'#656565'
p964
aF8.88595
aI0
aI00
aI00
aI01
aI01
aI01
aI00
aI00
aI00
aa(lp965
I234378
aF422.264
aF189.245
aVp2
p966
aS'utopia'
p967
aS'#656565'
p968
aF8.88595
aI0
aI00
aI00
aI01
aI01
aI00
aI00
aI00
aI00
aa(lp969
I234378
aF428.928
aF189.245
aVp2
p970
aS'utopia'
p971
aS'#656565'
p972
aF8.88595
aI0
aI01
aI00
aI00
aI00
aI00
aI00
aI00
aI00
aa(lp973
I234378
aF48.3134
aF207.757
aVp2
p974
aS'utopia'
p975
aS'#656565'
p976
aF8.88595
aI0
aI01
aI01
aI00
aI00
aI00
aI00
aI00
aI00
aa(lp977
I234378
aF64.6043
aF207.757
aVp2
p978
aS'utopia'
p979
aS'#656565'
p980
aF8.88595
aI0
aI01
aI01
aI00
aI00
aI00
aI00
aI00
aI00
aa(lp981
I234378
aF73.07356666666666
aF207.757
ag978
aS'utopia'
p982
aS'#656565'
p983
aF8.88595
aI0
aI00
aI00
aI00
aI00
aI00
aI00
aI00
aI00
aa(lp984
I234378
aF79.4142
aF207.757
aVp2
p985
aS'utopia'
p986
aS'#656565'
p987
aF8.88595
aI0
aI01
aI01
aI00
aI00
aI00
aI00
aI00
aI00
aa(lp988
I234378
aF102.37
aF207.757
aVp2
p989
aS'utopia'
p990
aS'#656565'
p991
aF8.88595
aI0
aI01
aI01
aI00
aI00
aI00
aI00
aI00
aI00
aa(lp992
I234378
aF317.113
aF207.757
aVp2
p993
aS'utopia'
p994
aS'#656565'
p995
aF8.88595
aI0
aI00
aI00
aI01
aI01
aI01
aI00
aI00
aI00
aa(lp996
I234378
aF422.264
aF207.757
aVp2
p997
aS'utopia'
p998
aS'#656565'
p999
aF8.88595
aI0
aI00
aI00
aI01
aI01
aI00
aI00
aI00
aI00
aa(lp1000
I234378
aF428.928
aF207.757
aVp2
p1001
aS'utopia'
p1002
aS'#656565'
p1003
aF8.88595
aI0
aI01
aI00
aI00
aI00
aI00
aI00
aI00
aI00
aa(lp1004
I234378
aF48.3134
aF226.269
aVp2
p1005
aS'utopia'
p1006
aS'#656565'
p1007
aF8.88595
aI0
aI01
aI01
aI00
aI00
aI00
aI00
aI00
aI00
aa(lp1008
I234378
aF74.94406666666667
aF226.269
ag1005
aS'utopia'
p1009
aS'#656565'
p1010
aF8.88595
aI0
aI00
aI00
aI00
aI00
aI00
aI00
aI00
aI00
aa(lp1011
I45445
aF82.3762
aF226.269
aVp2
p1012
aS'utopia'
p1013
aS'#656565'
p1014
aF8.88595
aI0
aI01
aI01
aI00
aI00
aI00
aI00
aI00
aI00
aa(lp1015
I234378
aF317.113
aF226.269
aVp2
p1016
aS'utopia'
p1017
aS'#656565'
p1018
aF8.88595
aI0
aI00
aI00
aI01
aI01
aI01
aI00
aI00
aI00
aa(lp1019
I234378
aF422.264
aF226.269
aVp2
p1020
aS'utopia'
p1021
aS'#656565'
p1022
aF8.88595
aI0
aI00
aI00
aI01
aI01
aI00
aI00
aI00
aI00
aa(lp1023
I234378
aF428.928
aF226.269
aVp2
p1024
aS'utopia'
p1025
aS'#656565'
p1026
aF8.88595
aI0
aI01
aI00
aI00
aI00
aI00
aI00
aI00
aI00
aa(lp1027
I10801
aF48.3134
aF244.782
aVp2
p1028
aS'utopia'
p1029
aS'#656565'
p1030
aF8.88595
aI0
aI01
aI00
aI00
aI00
aI00
aI00
aI00
aI00
aa(lp1031
I141000
aF75.7117
aF244.782
aVp2
p1032
aS'utopia'
p1033
aS'#656565'
p1034
aF8.88595
aI0
aI01
aI00
aI00
aI00
aI00
aI00
aI00
aI00
aa(lp1035
I234378
aF100.56447142857142
aF244.782
ag1032
aS'utopia'
p1036
aS'#656565'
p1037
aF8.88595
aI0
aI00
aI00
aI00
aI00
aI00
aI00
aI00
aI00
aa(lp1038
I234378
aF106.813
aF244.782
aVp2
p1039
aS'utopia'
p1040
aS'#656565'
p1041
aF8.88595
aI0
aI01
aI01
aI00
aI00
aI00
aI00
aI00
aI00
aa(lp1042
I141000
aF125.325
aF244.782
aVp2
p1043
aS'utopia'
p1044
aS'#656565'
p1045
aF8.88595
aI0
aI01
aI00
aI00
aI00
aI00
aI00
aI00
aI00
aa(lp1046
I234378
aF317.113
aF244.782
aVp2
p1047
aS'utopia'
p1048
aS'#656565'
p1049
aF8.88595
aI0
aI00
aI00
aI01
aI01
aI01
aI00
aI00
aI00
aa(lp1050
I234378
aF424.485
aF244.782
aVp2
p1051
aS'utopia'
p1052
aS'#656565'
p1053
aF8.88595
aI0
aI00
aI00
aI01
aI01
aI00
aI00
aI00
aI00
aa(lp1054
I91136
aF431.15
aF244.782
aVp2
p1055
aS'utopia'
p1056
aS'#656565'
p1057
aF8.88595
aI0
aI01
aI00
aI00
aI00
aI00
aI00
aI00
aI00
aa(lp1058
I223319
aF48.3134
aF263.294
aVp2
p1059
aS'utopia'
p1060
aS'#656565'
p1061
aF8.88595
aI0
aI01
aI00
aI00
aI00
aI00
aI00
aI00
aI00
aa(lp1062
I234378
aF74.331875
aF263.294
ag1059
aS'utopia'
p1063
aS'#656565'
p1064
aF8.88595
aI0
aI00
aI00
aI00
aI00
aI00
aI00
aI00
aI00
aa(lp1065
I106895
aF80.1547
aF263.294
aVp2
p1066
aS'utopia'
p1067
aS'#656565'
p1068
aF8.88595
aI0
aI01
aI01
aI00
aI00
aI00
aI00
aI00
aI00
aa(lp1069
I234378
aF104.591
aF263.294
aVp2
p1070
aS'utopia'
p1071
aS'#656565'
p1072
aF8.88595
aI0
aI01
aI01
aI00
aI00
aI00
aI00
aI00
aI00
aa(lp1073
I234378
aF112.56666666666666
aF263.294
ag1070
aS'utopia'
p1074
aS'#656565'
p1075
aF8.88595
aI0
aI00
aI00
aI00
aI00
aI00
aI00
aI00
aI00
aa(lp1076
I234378
aF118.66
aF263.294
aVp2
p1077
aS'utopia'
p1078
aS'#656565'
p1079
aF8.88595
aI0
aI01
aI01
aI00
aI00
aI00
aI00
aI00
aI00
aa(lp1080
I234378
aF134.74712
aF263.294
ag1077
aS'utopia'
p1081
aS'#656565'
p1082
aF8.88595
aI0
aI00
aI00
aI00
aI00
aI00
aI00
aI00
aI00
aa(lp1083
I1257
aF140.875
aF263.294
aVp2
p1084
aS'utopia'
p1085
aS'#656565'
p1086
aF8.88595
aI0
aI01
aI00
aI00
aI00
aI00
aI00
aI00
aI00
aa(lp1087
I234378
aF317.113
aF263.294
aVp2
p1088
aS'utopia'
p1089
aS'#656565'
p1090
aF8.88595
aI0
aI00
aI00
aI01
aI01
aI01
aI00
aI00
aI00
aa(lp1091
I234378
aF422.264
aF263.294
aVp2
p1092
aS'utopia'
p1093
aS'#656565'
p1094
aF8.88595
aI0
aI00
aI00
aI01
aI01
aI00
aI00
aI00
aI00
aa(lp1095
I234378
aF428.928
aF263.294
aVp2
p1096
aS'utopia'
p1097
aS'#656565'
p1098
aF8.88595
aI0
aI01
aI00
aI00
aI00
aI00
aI00
aI00
aI00
aa(lp1099
I234378
aF48.3134
aF281.807
aVp2
p1100
aS'utopia'
p1101
aS'#656565'
p1102
aF8.88595
aI0
aI01
aI01
aI00
aI00
aI00
aI00
aI00
aI00
aa(lp1103
I234378
aF70.5283
aF281.807
aVp2
p1104
aS'utopia'
p1105
aS'#656565'
p1106
aF8.88595
aI0
aI00
aI00
aI01
aI01
aI00
aI00
aI00
aI00
aa(lp1107
I234378
aF74.3078
aF281.807
ag1104
aS'utopia'
p1108
aS'#656565'
p1109
aF8.88595
aI0
aI00
aI00
aI00
aI00
aI00
aI00
aI00
aI00
aa(lp1110
I234378
aF78.0873
aF281.807
ag1104
aS'utopia'
p1111
aS'#656565'
p1112
aF8.88595
aI0
aI00
aI00
aI01
aI01
aI00
aI00
aI00
aI00
aa(lp1113
I234378
aF83.8572
aF281.807
aVp2
p1114
aS'utopia'
p1115
aS'#656565'
p1116
aF8.88595
aI0
aI00
aI00
aI00
aI00
aI00
aI00
aI00
aI00
aa(lp1117
I234378
aF88.01079
aF281.807
ag1114
aS'utopia'
p1118
aS'#656565'
p1119
aF8.88595
aI0
aI01
aI00
aI00
aI00
aI00
aI00
aI00
aI00
aa(lp1120
I234378
aF127.546
aF281.807
aVp2
p1121
aS'utopia'
p1122
aS'#656565'
p1123
aF8.88595
aI0
aI01
aI00
aI00
aI00
aI00
aI00
aI00
aI00
aa(lp1124
I234378
aF146.15958333333333
aF281.807
ag1121
aS'utopia'
p1125
aS'#656565'
p1126
aF8.88595
aI0
aI00
aI00
aI00
aI00
aI00
aI00
aI00
aI00
aa(lp1127
I234378
aF317.113
aF281.807
aVp2
p1128
aS'utopia'
p1129
aS'#656565'
p1130
aF8.88595
aI0
aI00
aI00
aI01
aI01
aI01
aI00
aI00
aI00
aa(lp1131
I234378
aF422.264
aF281.807
aVp2
p1132
aS'utopia'
p1133
aS'#656565'
p1134
aF8.88595
aI0
aI00
aI00
aI01
aI01
aI00
aI00
aI00
aI00
aa(lp1135
I234378
aF428.928
aF281.807
aVp2
p1136
aS'utopia'
p1137
aS'#656565'
p1138
aF8.88595
aI0
aI01
aI00
aI00
aI00
aI00
aI00
aI00
aI00
aa(lp1139
I234378
aF48.3134
aF300.319
aVp2
p1140
aS'utopia'
p1141
aS'#656565'
p1142
aF8.88595
aI0
aI01
aI01
aI00
aI00
aI00
aI00
aI00
aI00
aa(lp1143
I234378
aF74.9712
aF300.319
aVp2
p1144
aS'utopia'
p1145
aS'#656565'
p1146
aF8.88595
aI0
aI01
aI00
aI00
aI00
aI00
aI00
aI00
aI00
aa(lp1147
I234378
aF100.98967499999999
aF300.319
ag1144
aS'utopia'
p1148
aS'#656565'
p1149
aF8.88595
aI0
aI00
aI00
aI00
aI00
aI00
aI00
aI00
aI00
aa(lp1150
I110786
aF106.813
aF300.319
aVp2
p1151
aS'utopia'
p1152
aS'#656565'
p1153
aF8.88595
aI0
aI01
aI00
aI00
aI00
aI00
aI00
aI00
aI00
aa(lp1154
I234378
aF134.83925714285715
aF300.319
ag1151
aS'utopia'
p1155
aS'#656565'
p1156
aF8.88595
aI0
aI00
aI00
aI00
aI00
aI00
aI00
aI00
aI00
aa(lp1157
I234378
aF48.3134
aF310.686
aVp2
p1158
aS'utopia'
p1159
aS'#656565'
p1160
aF8.88595
aI0
aI01
aI00
aI00
aI00
aI00
aI00
aI00
aI00
aa(lp1161
I234378
aF317.113
aF305.502
aVp2
p1162
aS'utopia'
p1163
aS'#656565'
p1164
aF8.88595
aI0
aI00
aI00
aI01
aI01
aI01
aI00
aI00
aI00
aa(lp1165
I234378
aF422.264
aF305.502
aVp2
p1166
aS'utopia'
p1167
aS'#656565'
p1168
aF8.88595
aI0
aI00
aI00
aI01
aI01
aI00
aI00
aI00
aI00
aa(lp1169
I234378
aF428.928
aF305.502
aVp2
p1170
aS'utopia'
p1171
aS'#656565'
p1172
aF8.88595
aI0
aI01
aI00
aI00
aI00
aI00
aI00
aI00
aI00
aa(lp1173
I195166
aF40.1679
aF361.057
aVp2
p1174
aS'utopia'
p1175
aS'#02304b'
p1176
aF11.8479
aI1
aI01
aI00
aI00
aI00
aI00
aI00
aI00
aI00
aa(lp1177
I136346
aF96.4456
aF361.057
aVp2
p1178
aS'utopia'
p1179
aS'#02304b'
p1180
aF11.8479
aI1
aI01
aI00
aI00
aI00
aI00
aI00
aI00
aI00
aa(lp1181
I195166
aF48.3134
aF388.947
aVp2
p1182
aS'utopia'
p1183
aS'#000000'
p1184
aF8.88595
aI1
aI01
aI00
aI00
aI00
aI00
aI00
aI00
aI00
aa(lp1185
I164378
aF177.16
aF388.947
aVp2
p1186
aS'utopia'
p1187
aS'#000000'
p1188
aF8.88595
aI1
aI01
aI00
aI00
aI00
aI00
aI00
aI00
aI00
aa(lp1189
I175077
aF296.379
aF388.947
aVp2
p1190
aS'utopia'
p1191
aS'#000000'
p1192
aF8.88595
aI1
aI01
aI00
aI00
aI00
aI00
aI00
aI00
aI00
aa(lp1193
I224291
aF397.087
aF388.947
aVp2
p1194
aS'utopia'
p1195
aS'#000000'
p1196
aF8.88595
aI1
aI01
aI00
aI00
aI00
aI00
aI00
aI00
aI00
aa(lp1197
I165206
aF497.054
aF388.947
aVp2
p1198
aS'utopia'
p1199
aS'#000000'
p1200
aF8.88595
aI1
aI01
aI00
aI00
aI00
aI00
aI00
aI00
aI00
aa(lp1201
I58002
aF48.3134
aF407.691
aVp2
p1202
aS'utopia'
p1203
aS'#656565'
p1204
aF8.88595
aI0
aI01
aI00
aI00
aI00
aI00
aI00
aI00
aI00
aa(lp1205
I185159
aF177.16
aF407.691
aVp2
p1206
aS'utopia'
p1207
aS'#656565'
p1208
aF8.88595
aI0
aI01
aI00
aI00
aI00
aI00
aI00
aI00
aI00
aa(lp1209
I144532
aF48.3134
aF426.203
aVp2
p1210
aS'utopia'
p1211
aS'#656565'
p1212
aF8.88595
aI0
aI01
aI00
aI00
aI00
aI00
aI00
aI00
aI00
aa(lp1213
I185159
aF177.16
aF426.203
aVp2
p1214
aS'utopia'
p1215
aS'#656565'
p1216
aF8.88595
aI0
aI01
aI00
aI00
aI00
aI00
aI00
aI00
aI00
aa(lp1217
I234378
aF40.1679
aF34.4987
aVp3
p1218
aS'utopia'
p1219
aS'#02304b'
p1220
aF11.8479
aI1
aI01
aI00
aI00
aI00
aI00
aI00
aI00
aI00
aa(lp1221
I234378
aF40.9084
aF66.2156
aVp3
p1222
aS'utopia'
p1223
aS'#000000'
p1224
aF10.3669
aI1
aI01
aI01
aI00
aI00
aI00
aI00
aI00
aI00
aa(lp1225
I234378
aF40.9084
aF82.7761
aVp3
p1226
aS'utopia'
p1227
aS'#656565'
p1228
aF10.3669
aI0
aI01
aI00
aI00
aI00
aI00
aI00
aI00
aI00
aa(lp1229
I234378
aF89.0407
aF82.7761
aVp3
p1230
aS'utopia'
p1231
aS'#656565'
p1232
aF10.3669
aI0
aI01
aI00
aI00
aI00
aI00
aI00
aI00
aI00
aa(lp1233
I234378
aF130.508
aF82.7761
aVp3
p1234
aS'utopia'
p1235
aS'#656565'
p1236
aF10.3669
aI0
aI01
aI00
aI00
aI00
aI00
aI00
aI00
aI00
aa(lp1237
I60201
aF167.533
aF82.7761
aVp3
p1238
aS'utopia'
p1239
aS'#656565'
p1240
aF10.3669
aI0
aI01
aI00
aI00
aI00
aI00
aI00
aI00
aI00
aa(lp1241
I230071
aF187.527
aF82.7761
aVp3
p1242
aS'utopia'
p1243
aS'#656565'
p1244
aF10.3669
aI0
aI01
aI00
aI00
aI00
aI00
aI00
aI00
aI00
aa(lp1245
I131049
aF218.627
aF82.7761
aVp3
p1246
aS'utopia'
p1247
aS'#656565'
p1248
aF10.3669
aI0
aI00
aI00
aI00
aI00
aI00
aI00
aI00
aI00
aa(lp1249
I37515
aF243.064
aF82.7761
aVp3
p1250
aS'utopia'
p1251
aS'#656565'
p1252
aF10.3669
aI0
aI01
aI00
aI00
aI00
aI00
aI00
aI00
aI01
aa(lp1253
I234378
aF265.279
aF82.7761
aVp3
p1254
aS'utopia'
p1255
aS'#656565'
p1256
aF10.3669
aI0
aI00
aI00
aI01
aI01
aI01
aI00
aI00
aI00
aa(lp1257
I89480
aF288.234
aF82.7761
aVp3
p1258
aS'utopia'
p1259
aS'#656565'
p1260
aF10.3669
aI0
aI00
aI00
aI00
aI00
aI00
aI00
aI00
aI00
aa(lp1261
I234378
aF300.082
aF82.7761
aVp3
p1262
aS'utopia'
p1263
aS'#656565'
p1264
aF10.3669
aI0
aI01
aI00
aI00
aI00
aI00
aI00
aI00
aI01
aa(lp1265
I234378
aF319.335
aF82.7761
aVp3
p1266
aS'utopia'
p1267
aS'#656565'
p1268
aF10.3669
aI0
aI00
aI00
aI01
aI01
aI01
aI00
aI00
aI00
aa(lp1269
I109610
aF40.9084
aF102.607
aVp3
p1270
aS'utopia'
p1271
aS'#656565'
p1272
aF8.88595
aI0
aI01
aI00
aI00
aI00
aI00
aI00
aI00
aI00
aa(lp1273
I25729
aF58.6803
aF102.607
aVp3
p1274
aS'utopia'
p1275
aS'#656565'
p1276
aF8.88595
aI0
aI01
aI00
aI00
aI00
aI00
aI00
aI00
aI00
aa(lp1277
I234378
aF76.54462000000001
aF102.607
ag1274
aS'utopia'
p1278
aS'#656565'
p1279
aF8.88595
aI0
aI00
aI00
aI00
aI00
aI00
aI00
aI00
aI00
aa(lp1280
I210461
aF40.9084
aF116.676
aVp3
p1281
aS'utopia'
p1282
aS'#656565'
p1283
aF8.88595
aI0
aI01
aI00
aI00
aI00
aI00
aI00
aI00
aI00
aa(lp1284
I340
aF65.3448
aF116.676
aVp3
p1285
aS'utopia'
p1286
aS'#656565'
p1287
aF8.88595
aI0
aI01
aI00
aI00
aI00
aI00
aI00
aI00
aI00
aa(lp1288
I234378
aF79.65472000000001
aF116.676
ag1285
aS'utopia'
p1289
aS'#656565'
p1290
aF8.88595
aI0
aI00
aI00
aI00
aI00
aI00
aI00
aI00
aI00
aa(lp1291
I234378
aF87.5597
aF116.676
aVp3
p1292
aS'utopia'
p1293
aS'#656565'
p1294
aF8.88595
aI0
aI00
aI00
aI01
aI01
aI00
aI00
aI00
aI00
aa(lp1295
I176435
aF40.9084
aF130.745
aVp3
p1296
aS'utopia'
p1297
aS'#656565'
p1298
aF8.88595
aI0
aI01
aI00
aI00
aI00
aI00
aI00
aI00
aI00
aa(lp1299
I234378
aF60.9018
aF130.745
aVp3
p1300
aS'utopia'
p1301
aS'#656565'
p1302
aF8.88595
aI0
aI00
aI00
aI00
aI00
aI00
aI00
aI00
aI00
aa(lp1303
I150037
aF67.5663
aF130.745
aVp3
p1304
aS'utopia'
p1305
aS'#656565'
p1306
aF8.88595
aI0
aI01
aI00
aI00
aI00
aI00
aI00
aI00
aI00
aa(lp1307
I176435
aF40.9084
aF144.815
aVp3
p1308
aS'utopia'
p1309
aS'#656565'
p1310
aF8.88595
aI0
aI01
aI00
aI00
aI00
aI00
aI00
aI00
aI00
aa(lp1311
I66756
aF60.9018
aF144.815
aVp3
p1312
aS'utopia'
p1313
aS'#656565'
p1314
aF8.88595
aI0
aI01
aI00
aI00
aI00
aI00
aI00
aI00
aI00
aa(lp1315
I234378
aF105.12885833333334
aF144.815
ag1312
aS'utopia'
p1316
aS'#656565'
p1317
aF8.88595
aI0
aI00
aI00
aI00
aI00
aI00
aI00
aI00
aI00
aa(lp1318
I89480
aF119.401
aF144.815
aVp3
p1319
aS'utopia'
p1320
aS'#656565'
p1321
aF8.88595
aI0
aI01
aI00
aI00
aI00
aI00
aI00
aI00
aI00
aa(lp1322
I160080
aF131.989
aF144.815
aVp3
p1323
aS'utopia'
p1324
aS'#656565'
p1325
aF8.88595
aI0
aI00
aI00
aI00
aI00
aI00
aI00
aI00
aI00
aa(lp1326
I137949
aF163.831
aF144.815
aVp3
p1327
aS'utopia'
p1328
aS'#656565'
p1329
aF8.88595
aI0
aI00
aI00
aI00
aI00
aI00
aI00
aI00
aI00
aa(lp1330
I234378
aF183.084
aF144.815
aVp3
p1331
aS'utopia'
p1332
aS'#656565'
p1333
aF8.88595
aI0
aI00
aI00
aI00
aI00
aI00
aI00
aI00
aI00
aa(lp1334
I190806
aF211.222
aF144.815
aVp3
p1335
aS'utopia'
p1336
aS'#656565'
p1337
aF8.88595
aI0
aI00
aI00
aI00
aI00
aI00
aI00
aI00
aI00
aa(lp1338
I194354
aF225.292
aF144.815
aVp3
p1339
aS'utopia'
p1340
aS'#656565'
p1341
aF8.88595
aI0
aI00
aI00
aI00
aI00
aI00
aI00
aI00
aI00
aa(lp1342
I146854
aF240.102
aF144.815
aVp3
p1343
aS'utopia'
p1344
aS'#656565'
p1345
aF8.88595
aI0
aI00
aI00
aI00
aI00
aI00
aI00
aI00
aI00
aa(lp1346
I85218
aF271.203
aF144.815
aVp3
p1347
aS'utopia'
p1348
aS'#656565'
p1349
aF8.88595
aI0
aI00
aI00
aI00
aI00
aI00
aI00
aI00
aI00
aa(lp1350
I15548
aF288.234
aF144.815
aVp3
p1351
aS'utopia'
p1352
aS'#656565'
p1353
aF8.88595
aI0
aI00
aI00
aI00
aI00
aI00
aI00
aI00
aI00
aa(lp1354
I234378
aF320.075
aF144.815
aVp3
p1355
aS'utopia'
p1356
aS'#656565'
p1357
aF8.88595
aI0
aI00
aI00
aI00
aI00
aI00
aI00
aI00
aI00
aa(lp1358
I234378
aF345.4455375
aF144.815
ag1355
aS'utopia'
p1359
aS'#656565'
p1360
aF8.88595
aI0
aI00
aI00
aI00
aI00
aI00
aI00
aI00
aI00
aa(lp1361
I89480
aF357.1
aF144.815
aVp3
p1362
aS'utopia'
p1363
aS'#656565'
p1364
aF8.88595
aI0
aI01
aI00
aI00
aI00
aI00
aI00
aI00
aI00
aa(lp1365
I144690
aF369.689
aF144.815
aVp3
p1366
aS'utopia'
p1367
aS'#656565'
p1368
aF8.88595
aI0
aI00
aI00
aI00
aI00
aI00
aI00
aI00
aI00
aa(lp1369
I14859
aF397.087
aF144.815
aVp3
p1370
aS'utopia'
p1371
aS'#656565'
p1372
aF8.88595
aI0
aI00
aI00
aI00
aI00
aI00
aI00
aI00
aI00
aa(lp1373
I190806
aF431.15
aF144.815
aVp3
p1374
aS'utopia'
p1375
aS'#656565'
p1376
aF8.88595
aI0
aI00
aI00
aI00
aI00
aI00
aI00
aI00
aI00
aa(lp1377
I194354
aF445.219
aF144.815
aVp3
p1378
aS'utopia'
p1379
aS'#656565'
p1380
aF8.88595
aI0
aI00
aI00
aI00
aI00
aI00
aI00
aI00
aI00
aa(lp1381
I7938
aF460.029
aF144.815
aVp3
p1382
aS'utopia'
p1383
aS'#656565'
p1384
aF8.88595
aI0
aI00
aI00
aI00
aI00
aI00
aI00
aI00
aI00
aa(lp1385
I137949
aF495.573
aF144.815
aVp3
p1386
aS'utopia'
p1387
aS'#656565'
p1388
aF8.88595
aI0
aI00
aI00
aI00
aI00
aI00
aI00
aI00
aI00
aa(lp1389
I234378
aF514.826
aF144.815
aVp3
p1390
aS'utopia'
p1391
aS'#656565'
p1392
aF8.88595
aI0
aI00
aI00
aI00
aI00
aI00
aI00
aI00
aI00
aa(lp1393
I234378
aF539.5486000000001
aF144.815
ag1390
aS'utopia'
p1394
aS'#656565'
p1395
aF8.88595
aI0
aI00
aI00
aI00
aI00
aI00
aI00
aI00
aI00
aa(lp1396
I89480
aF40.9084
aF155.182
aVp3
p1397
aS'utopia'
p1398
aS'#656565'
p1399
aF8.88595
aI0
aI01
aI00
aI00
aI00
aI00
aI00
aI00
aI00
aa(lp1400
I120366
aF53.4969
aF155.182
aVp3
p1401
aS'utopia'
p1402
aS'#656565'
p1403
aF8.88595
aI0
aI00
aI00
aI00
aI00
aI00
aI00
aI00
aI00
aa(lp1404
I234378
aF86.8192
aF155.182
aVp3
p1405
aS'utopia'
p1406
aS'#656565'
p1407
aF8.88595
aI0
aI00
aI00
aI00
aI00
aI00
aI00
aI00
aI00
aa(lp1408
I192651
aF124.584
aF155.182
aVp3
p1409
aS'utopia'
p1410
aS'#656565'
p1411
aF8.88595
aI0
aI00
aI00
aI00
aI00
aI00
aI00
aI00
aI00
aa(lp1412
I1109
aF136.432
aF155.182
aVp3
p1413
aS'utopia'
p1414
aS'#656565'
p1415
aF8.88595
aI0
aI00
aI00
aI00
aI00
aI00
aI00
aI00
aI00
aa(lp1416
I75654
aF174.938
aF155.182
aVp3
p1417
aS'utopia'
p1418
aS'#656565'
p1419
aF8.88595
aI0
aI00
aI00
aI00
aI00
aI00
aI00
aI00
aI00
aa(lp1420
I149270
aF220.849
aF155.182
aVp3
p1421
aS'utopia'
p1422
aS'#656565'
p1423
aF8.88595
aI0
aI00
aI00
aI00
aI00
aI00
aI00
aI00
aI00
aa(lp1424
I144690
aF258.614
aF155.182
aVp3
p1425
aS'utopia'
p1426
aS'#656565'
p1427
aF8.88595
aI0
aI00
aI00
aI00
aI00
aI00
aI00
aI00
aI00
aa(lp1428
I234378
aF282.1973428571428
aF155.182
ag1425
aS'utopia'
p1429
aS'#656565'
p1430
aF8.88595
aI0
aI00
aI00
aI00
aI00
aI00
aI00
aI00
aI00
aa(lp1431
I123665
aF288.234
aF155.182
aVp3
p1432
aS'utopia'
p1433
aS'#656565'
p1434
aF8.88595
aI0
aI00
aI00
aI00
aI00
aI00
aI00
aI00
aI00
aa(lp1435
I68032
aF334.145
aF155.182
aVp3
p1436
aS'utopia'
p1437
aS'#656565'
p1438
aF8.88595
aI0
aI00
aI00
aI00
aI00
aI00
aI00
aI00
aI00
aa(lp1439
I234378
aF388.201
aF155.182
aVp3
p1440
aS'utopia'
p1441
aS'#656565'
p1442
aF8.88595
aI0
aI00
aI00
aI00
aI00
aI00
aI00
aI00
aI00
aa(lp1443
I85218
aF428.928
aF155.182
aVp3
p1444
aS'utopia'
p1445
aS'#656565'
p1446
aF8.88595
aI0
aI00
aI00
aI00
aI00
aI00
aI00
aI00
aI00
aa(lp1447
I109247
aF445.96
aF155.182
aVp3
p1448
aS'utopia'
p1449
aS'#656565'
p1450
aF8.88595
aI0
aI00
aI00
aI00
aI00
aI00
aI00
aI00
aI00
aa(lp1451
I234378
aF474.839
aF155.182
aVp3
p1452
aS'utopia'
p1453
aS'#656565'
p1454
aF8.88595
aI0
aI00
aI00
aI00
aI00
aI00
aI00
aI00
aI00
aa(lp1455
I135639
aF515.566
aF155.182
aVp3
p1456
aS'utopia'
p1457
aS'#656565'
p1458
aF8.88595
aI0
aI00
aI00
aI00
aI00
aI00
aI00
aI00
aI00
aa(lp1459
I177958
aF40.9084
aF165.549
aVp3
p1460
aS'utopia'
p1461
aS'#656565'
p1462
aF8.88595
aI0
aI00
aI00
aI00
aI00
aI00
aI00
aI00
aI00
aa(lp1463
I234378
aF67.574725
aF165.549
ag1460
aS'utopia'
p1464
aS'#656565'
p1465
aF8.88595
aI0
aI00
aI00
aI00
aI00
aI00
aI00
aI00
aI00
aa(lp1466
I177958
aF40.9084
aF179.618
aVp3
p1467
aS'utopia'
p1468
aS'#656565'
p1469
aF8.88595
aI0
aI01
aI00
aI00
aI00
aI00
aI00
aI00
aI00
aa(lp1470
I234378
aF71.2688
aF179.618
aVp3
p1471
aS'utopia'
p1472
aS'#656565'
p1473
aF8.88595
aI0
aI01
aI00
aI00
aI00
aI00
aI00
aI00
aI00
aa(lp1474
I234378
aF96.6393375
aF179.618
ag1471
aS'utopia'
p1475
aS'#656565'
p1476
aF8.88595
aI0
aI00
aI00
aI00
aI00
aI00
aI00
aI00
aI00
aa(lp1477
I234378
aF104.591
aF179.618
aVp3
p1478
aS'utopia'
p1479
aS'#656565'
p1480
aF8.88595
aI0
aI01
aI01
aI00
aI00
aI00
aI00
aI00
aI00
aa(lp1481
I22474
aF126.806
aF179.618
aVp3
p1482
aS'utopia'
p1483
aS'#656565'
p1484
aF8.88595
aI0
aI00
aI00
aI00
aI00
aI00
aI00
aI00
aI00
aa(lp1485
I166593
aF134.951
aF179.618
aVp3
p1486
aS'utopia'
p1487
aS'#656565'
p1488
aF8.88595
aI0
aI00
aI00
aI00
aI00
aI00
aI00
aI00
aI00
aa(lp1489
I234378
aF141.616
aF179.618
aVp3
p1490
aS'utopia'
p1491
aS'#656565'
p1492
aF8.88595
aI0
aI01
aI00
aI00
aI00
aI00
aI00
aI00
aI00
aa(lp1493
I68032
aF178.641
aF179.618
aVp3
p1494
aS'utopia'
p1495
aS'#656565'
p1496
aF8.88595
aI0
aI00
aI00
aI00
aI00
aI00
aI00
aI00
aI00
aa(lp1497
I85218
aF232.697
aF179.618
aVp3
p1498
aS'utopia'
p1499
aS'#656565'
p1500
aF8.88595
aI0
aI00
aI00
aI00
aI00
aI00
aI00
aI00
aI00
aa(lp1501
I20593
aF249.728
aF179.618
aVp3
p1502
aS'utopia'
p1503
aS'#656565'
p1504
aF8.88595
aI0
aI00
aI00
aI00
aI00
aI00
aI00
aI00
aI00
aa(lp1505
I119502
aF303.044
aF179.618
aVp3
p1506
aS'utopia'
p1507
aS'#656565'
p1508
aF8.88595
aI0
aI00
aI00
aI00
aI00
aI00
aI00
aI00
aI00
aa(lp1509
I190806
aF332.664
aF179.618
aVp3
p1510
aS'utopia'
p1511
aS'#656565'
p1512
aF8.88595
aI0
aI00
aI00
aI00
aI00
aI00
aI00
aI00
aI00
aa(lp1513
I177449
aF346.733
aF179.618
aVp3
p1514
aS'utopia'
p1515
aS'#656565'
p1516
aF8.88595
aI0
aI00
aI00
aI00
aI00
aI00
aI00
aI00
aI00
aa(lp1517
I234378
aF365.95875
aF179.618
ag1514
aS'utopia'
p1518
aS'#656565'
p1519
aF8.88595
aI0
aI00
aI00
aI00
aI00
aI00
aI00
aI00
aI00
aa(lp1520
I26305
aF371.91
aF179.618
aVp3
p1521
aS'utopia'
p1522
aS'#656565'
p1523
aF8.88595
aI0
aI00
aI00
aI00
aI00
aI00
aI00
aI00
aI00
aa(lp1524
I234378
aF402.4751142857143
aF179.618
ag1521
aS'utopia'
p1525
aS'#656565'
p1526
aF8.88595
aI0
aI00
aI00
aI00
aI00
aI00
aI00
aI00
aI00
aa(lp1527
I85218
aF409.675
aF179.618
aVp3
p1528
aS'utopia'
p1529
aS'#656565'
p1530
aF8.88595
aI0
aI00
aI00
aI00
aI00
aI00
aI00
aI00
aI00
aa(lp1531
I206505
aF426.707
aF179.618
aVp3
p1532
aS'utopia'
p1533
aS'#656565'
p1534
aF8.88595
aI0
aI00
aI00
aI00
aI00
aI00
aI00
aI00
aI00
aa(lp1535
I143195
aF448.181
aF179.618
aVp3
p1536
aS'utopia'
p1537
aS'#656565'
p1538
aF8.88595
aI0
aI00
aI00
aI00
aI00
aI00
aI00
aI00
aI00
aa(lp1539
I234378
aF490.389
aF179.618
aVp3
p1540
aS'utopia'
p1541
aS'#656565'
p1542
aF8.88595
aI0
aI00
aI00
aI00
aI00
aI00
aI00
aI00
aI00
aa(lp1543
I123669
aF500.2854307692308
aF179.618
ag1540
aS'utopia'
p1544
aS'#656565'
p1545
aF8.88595
aI0
aI00
aI00
aI00
aI00
aI00
aI00
aI00
aI00
aa(lp1546
I19147
aF40.9084
aF189.985
aVp3
p1547
aS'utopia'
p1548
aS'#656565'
p1549
aF8.88595
aI0
aI00
aI00
aI00
aI00
aI00
aI00
aI00
aI00
aa(lp1550
I107283
aF86.0787
aF189.985
aVp3
p1551
aS'utopia'
p1552
aS'#656565'
p1553
aF8.88595
aI0
aI00
aI00
aI00
aI00
aI00
aI00
aI00
aI00
aa(lp1554
I166558
aF137.173
aF189.985
aVp3
p1555
aS'utopia'
p1556
aS'#656565'
p1557
aF8.88595
aI0
aI00
aI00
aI00
aI00
aI00
aI00
aI00
aI00
aa(lp1558
I234378
aF166.23726666666667
aF189.985
ag1555
aS'utopia'
p1559
aS'#656565'
p1560
aF8.88595
aI0
aI00
aI00
aI00
aI00
aI00
aI00
aI00
aI00
aa(lp1561
I211856
aF171.976
aF189.985
aVp3
p1562
aS'utopia'
p1563
aS'#656565'
p1564
aF8.88595
aI0
aI00
aI00
aI00
aI00
aI00
aI00
aI00
aI00
aa(lp1565
I89480
aF203.30095789473683
aF189.985
ag1562
aS'utopia'
p1566
aS'#656565'
p1567
aF8.88595
aI0
aI00
aI00
aI00
aI00
aI00
aI00
aI00
aI00
aa(lp1568
I103970
aF212.96523157894734
aF189.985
ag1562
aS'utopia'
p1569
aS'#656565'
p1570
aF8.88595
aI0
aI00
aI00
aI00
aI00
aI00
aI00
aI00
aI00
aa(lp1571
I234378
aF243.29018947368417
aF189.985
ag1562
aS'utopia'
p1572
aS'#656565'
p1573
aF8.88595
aI0
aI00
aI00
aI00
aI00
aI00
aI00
aI00
aI00
aa(lp1574
I85218
aF256.393
aF189.985
aVp3
p1575
aS'utopia'
p1576
aS'#656565'
p1577
aF8.88595
aI0
aI00
aI00
aI00
aI00
aI00
aI00
aI00
aI00
aa(lp1578
I211820
aF273.424
aF189.985
aVp3
p1579
aS'utopia'
p1580
aS'#656565'
p1581
aF8.88595
aI0
aI00
aI00
aI00
aI00
aI00
aI00
aI00
aI00
aa(lp1582
I234378
aF320.075
aF189.985
aVp3
p1583
aS'utopia'
p1584
aS'#656565'
p1585
aF8.88595
aI0
aI00
aI00
aI00
aI00
aI00
aI00
aI00
aI00
aa(lp1586
I234378
aF366.727
aF189.985
aVp3
p1587
aS'utopia'
p1588
aS'#656565'
p1589
aF8.88595
aI0
aI00
aI00
aI00
aI00
aI00
aI00
aI00
aI00
aa(lp1590
I234378
aF403.48551999999995
aF189.985
ag1587
aS'utopia'
p1591
aS'#656565'
p1592
aF8.88595
aI0
aI00
aI00
aI00
aI00
aI00
aI00
aI00
aI00
aa(lp1593
I234378
aF40.9084
aF226.903
aVp3
p1594
aS'utopia'
p1595
aS'#000000'
p1596
aF10.3669
aI1
aI01
aI00
aI00
aI00
aI00
aI00
aI00
aI00
aa(lp1597
I234378
aF83.1167
aF226.903
aVp3
p1598
aS'utopia'
p1599
aS'#000000'
p1600
aF10.3669
aI1
aI01
aI01
aI00
aI00
aI00
aI00
aI00
aI00
aa(lp1601
I234378
aF99.71787499999999
aF226.903
ag1598
aS'utopia'
p1602
aS'#000000'
p1603
aF10.3669
aI1
aI00
aI00
aI00
aI00
aI00
aI00
aI00
aI00
aa(lp1604
I234378
aF107.553
aF226.903
aVp3
p1605
aS'utopia'
p1606
aS'#000000'
p1607
aF10.3669
aI1
aI01
aI00
aI00
aI00
aI00
aI00
aI00
aI00
aa(lp1608
I234378
aF149.761
aF226.903
aVp3
p1609
aS'utopia'
p1610
aS'#000000'
p1611
aF10.3669
aI1
aI01
aI00
aI00
aI00
aI00
aI00
aI00
aI00
aa(lp1612
I234378
aF40.9084
aF243.464
aVp3
p1613
aS'utopia'
p1614
aS'#656565'
p1615
aF10.3669
aI0
aI01
aI00
aI00
aI00
aI00
aI00
aI00
aI00
aa(lp1616
I234378
aF89.0407
aF243.464
aVp3
p1617
aS'utopia'
p1618
aS'#656565'
p1619
aF10.3669
aI0
aI01
aI00
aI00
aI00
aI00
aI00
aI00
aI00
aa(lp1620
I234378
aF130.508
aF243.464
aVp3
p1621
aS'utopia'
p1622
aS'#656565'
p1623
aF10.3669
aI0
aI01
aI00
aI00
aI00
aI00
aI00
aI00
aI00
aa(lp1624
I60201
aF167.533
aF243.464
aVp3
p1625
aS'utopia'
p1626
aS'#656565'
p1627
aF10.3669
aI0
aI01
aI00
aI00
aI00
aI00
aI00
aI00
aI00
aa(lp1628
I230071
aF187.527
aF243.464
aVp3
p1629
aS'utopia'
p1630
aS'#656565'
p1631
aF10.3669
aI0
aI01
aI00
aI00
aI00
aI00
aI00
aI00
aI00
aa(lp1632
I131049
aF218.627
aF243.464
aVp3
p1633
aS'utopia'
p1634
aS'#656565'
p1635
aF10.3669
aI0
aI00
aI00
aI00
aI00
aI00
aI00
aI00
aI00
aa(lp1636
I234378
aF243.064
aF243.464
aVp3
p1637
aS'utopia'
p1638
aS'#656565'
p1639
aF10.3669
aI0
aI01
aI00
aI00
aI00
aI00
aI00
aI00
aI01
aa(lp1640
I234378
aF262.317
aF243.464
aVp3
p1641
aS'utopia'
p1642
aS'#656565'
p1643
aF10.3669
aI0
aI00
aI00
aI01
aI01
aI01
aI00
aI00
aI00
aa(lp1644
I89480
aF285.272
aF243.464
aVp3
p1645
aS'utopia'
p1646
aS'#656565'
p1647
aF10.3669
aI0
aI00
aI00
aI00
aI00
aI00
aI00
aI00
aI00
aa(lp1648
I27216
aF297.12
aF243.464
aVp3
p1649
aS'utopia'
p1650
aS'#656565'
p1651
aF10.3669
aI0
aI01
aI00
aI00
aI00
aI00
aI00
aI00
aI01
aa(lp1652
I234378
aF315.632
aF243.464
aVp3
p1653
aS'utopia'
p1654
aS'#656565'
p1655
aF10.3669
aI0
aI00
aI00
aI01
aI01
aI01
aI00
aI00
aI00
aa(lp1656
I234378
aF40.9084
aF259.755
aVp3
p1657
aS'utopia'
p1658
aS'#656565'
p1659
aF10.3669
aI0
aI01
aI00
aI00
aI00
aI00
aI00
aI00
aI00
aa(lp1660
I109610
aF40.9084
aF275.883
aVp3
p1661
aS'utopia'
p1662
aS'#656565'
p1663
aF8.88595
aI0
aI01
aI00
aI00
aI00
aI00
aI00
aI00
aI00
aa(lp1664
I25729
aF58.6803
aF275.883
aVp3
p1665
aS'utopia'
p1666
aS'#656565'
p1667
aF8.88595
aI0
aI01
aI00
aI00
aI00
aI00
aI00
aI00
aI00
aa(lp1668
I234378
aF76.54462000000001
aF275.883
ag1665
aS'utopia'
p1669
aS'#656565'
p1670
aF8.88595
aI0
aI00
aI00
aI00
aI00
aI00
aI00
aI00
aI00
aa(lp1671
I210461
aF40.9084
aF289.952
aVp3
p1672
aS'utopia'
p1673
aS'#656565'
p1674
aF8.88595
aI0
aI01
aI00
aI00
aI00
aI00
aI00
aI00
aI00
aa(lp1675
I340
aF65.3448
aF289.952
aVp3
p1676
aS'utopia'
p1677
aS'#656565'
p1678
aF8.88595
aI0
aI01
aI00
aI00
aI00
aI00
aI00
aI00
aI00
aa(lp1679
I234378
aF79.65472000000001
aF289.952
ag1676
aS'utopia'
p1680
aS'#656565'
p1681
aF8.88595
aI0
aI00
aI00
aI00
aI00
aI00
aI00
aI00
aI00
aa(lp1682
I234378
aF87.5597
aF289.952
aVp3
p1683
aS'utopia'
p1684
aS'#656565'
p1685
aF8.88595
aI0
aI00
aI00
aI01
aI01
aI00
aI00
aI00
aI00
aa(lp1686
I176435
aF40.9084
aF304.021
aVp3
p1687
aS'utopia'
p1688
aS'#656565'
p1689
aF8.88595
aI0
aI01
aI00
aI00
aI00
aI00
aI00
aI00
aI00
aa(lp1690
I234378
aF60.9018
aF304.021
aVp3
p1691
aS'utopia'
p1692
aS'#656565'
p1693
aF8.88595
aI0
aI00
aI00
aI00
aI00
aI00
aI00
aI00
aI00
aa(lp1694
I234378
aF67.5663
aF304.021
aVp3
p1695
aS'utopia'
p1696
aS'#656565'
p1697
aF8.88595
aI0
aI01
aI00
aI00
aI00
aI00
aI00
aI00
aI00
aa(lp1698
I234378
aF74.55463333333333
aF304.021
ag1695
aS'utopia'
p1699
aS'#656565'
p1700
aF8.88595
aI0
aI00
aI00
aI00
aI00
aI00
aI00
aI00
aI00
aa(lp1701
I150037
aF80.1547
aF304.021
aVp3
p1702
aS'utopia'
p1703
aS'#656565'
p1704
aF8.88595
aI0
aI01
aI00
aI00
aI00
aI00
aI00
aI00
aI00
aa(lp1705
I176435
aF40.9084
aF318.091
aVp3
p1706
aS'utopia'
p1707
aS'#656565'
p1708
aF8.88595
aI0
aI01
aI00
aI00
aI00
aI00
aI00
aI00
aI00
aa(lp1709
I66756
aF60.9018
aF318.091
aVp3
p1710
aS'utopia'
p1711
aS'#656565'
p1712
aF8.88595
aI0
aI01
aI00
aI00
aI00
aI00
aI00
aI00
aI00
aa(lp1713
I234378
aF105.12885833333334
aF318.091
ag1710
aS'utopia'
p1714
aS'#656565'
p1715
aF8.88595
aI0
aI00
aI00
aI00
aI00
aI00
aI00
aI00
aI00
aa(lp1716
I89480
aF119.401
aF318.091
aVp3
p1717
aS'utopia'
p1718
aS'#656565'
p1719
aF8.88595
aI0
aI01
aI00
aI00
aI00
aI00
aI00
aI00
aI00
aa(lp1720
I160080
aF131.989
aF318.091
aVp3
p1721
aS'utopia'
p1722
aS'#656565'
p1723
aF8.88595
aI0
aI00
aI00
aI00
aI00
aI00
aI00
aI00
aI00
aa(lp1724
I137949
aF163.831
aF318.091
aVp3
p1725
aS'utopia'
p1726
aS'#656565'
p1727
aF8.88595
aI0
aI00
aI00
aI00
aI00
aI00
aI00
aI00
aI00
aa(lp1728
I234378
aF183.084
aF318.091
aVp3
p1729
aS'utopia'
p1730
aS'#656565'
p1731
aF8.88595
aI0
aI00
aI00
aI00
aI00
aI00
aI00
aI00
aI00
aa(lp1732
I190806
aF211.222
aF318.091
aVp3
p1733
aS'utopia'
p1734
aS'#656565'
p1735
aF8.88595
aI0
aI00
aI00
aI00
aI00
aI00
aI00
aI00
aI00
aa(lp1736
I194354
aF225.292
aF318.091
aVp3
p1737
aS'utopia'
p1738
aS'#656565'
p1739
aF8.88595
aI0
aI00
aI00
aI00
aI00
aI00
aI00
aI00
aI00
aa(lp1740
I146854
aF240.102
aF318.091
aVp3
p1741
aS'utopia'
p1742
aS'#656565'
p1743
aF8.88595
aI0
aI00
aI00
aI00
aI00
aI00
aI00
aI00
aI00
aa(lp1744
I85218
aF271.203
aF318.091
aVp3
p1745
aS'utopia'
p1746
aS'#656565'
p1747
aF8.88595
aI0
aI00
aI00
aI00
aI00
aI00
aI00
aI00
aI00
aa(lp1748
I15548
aF288.234
aF318.091
aVp3
p1749
aS'utopia'
p1750
aS'#656565'
p1751
aF8.88595
aI0
aI00
aI00
aI00
aI00
aI00
aI00
aI00
aI00
aa(lp1752
I234378
aF320.075
aF318.091
aVp3
p1753
aS'utopia'
p1754
aS'#656565'
p1755
aF8.88595
aI0
aI00
aI00
aI00
aI00
aI00
aI00
aI00
aI00
aa(lp1756
I234378
aF345.4455375
aF318.091
ag1753
aS'utopia'
p1757
aS'#656565'
p1758
aF8.88595
aI0
aI00
aI00
aI00
aI00
aI00
aI00
aI00
aI00
aa(lp1759
I89480
aF357.1
aF318.091
aVp3
p1760
aS'utopia'
p1761
aS'#656565'
p1762
aF8.88595
aI0
aI01
aI00
aI00
aI00
aI00
aI00
aI00
aI00
aa(lp1763
I144690
aF369.689
aF318.091
aVp3
p1764
aS'utopia'
p1765
aS'#656565'
p1766
aF8.88595
aI0
aI00
aI00
aI00
aI00
aI00
aI00
aI00
aI00
aa(lp1767
I14859
aF397.087
aF318.091
aVp3
p1768
aS'utopia'
p1769
aS'#656565'
p1770
aF8.88595
aI0
aI00
aI00
aI00
aI00
aI00
aI00
aI00
aI00
aa(lp1771
I190806
aF431.15
aF318.091
aVp3
p1772
aS'utopia'
p1773
aS'#656565'
p1774
aF8.88595
aI0
aI00
aI00
aI00
aI00
aI00
aI00
aI00
aI00
aa(lp1775
I194354
aF445.219
aF318.091
aVp3
p1776
aS'utopia'
p1777
aS'#656565'
p1778
aF8.88595
aI0
aI00
aI00
aI00
aI00
aI00
aI00
aI00
aI00
aa(lp1779
I7938
aF460.029
aF318.091
aVp3
p1780
aS'utopia'
p1781
aS'#656565'
p1782
aF8.88595
aI0
aI00
aI00
aI00
aI00
aI00
aI00
aI00
aI00
aa(lp1783
I137949
aF495.573
aF318.091
aVp3
p1784
aS'utopia'
p1785
aS'#656565'
p1786
aF8.88595
aI0
aI00
aI00
aI00
aI00
aI00
aI00
aI00
aI00
aa(lp1787
I234378
aF514.826
aF318.091
aVp3
p1788
aS'utopia'
p1789
aS'#656565'
p1790
aF8.88595
aI0
aI00
aI00
aI00
aI00
aI00
aI00
aI00
aI00
aa(lp1791
I234378
aF539.5486000000001
aF318.091
ag1788
aS'utopia'
p1792
aS'#656565'
p1793
aF8.88595
aI0
aI00
aI00
aI00
aI00
aI00
aI00
aI00
aI00
aa(lp1794
I89480
aF40.9084
aF328.458
aVp3
p1795
aS'utopia'
p1796
aS'#656565'
p1797
aF8.88595
aI0
aI01
aI00
aI00
aI00
aI00
aI00
aI00
aI00
aa(lp1798
I120366
aF53.4969
aF328.458
aVp3
p1799
aS'utopia'
p1800
aS'#656565'
p1801
aF8.88595
aI0
aI00
aI00
aI00
aI00
aI00
aI00
aI00
aI00
aa(lp1802
I234378
aF86.8192
aF328.458
aVp3
p1803
aS'utopia'
p1804
aS'#656565'
p1805
aF8.88595
aI0
aI00
aI00
aI00
aI00
aI00
aI00
aI00
aI00
aa(lp1806
I192651
aF124.584
aF328.458
aVp3
p1807
aS'utopia'
p1808
aS'#656565'
p1809
aF8.88595
aI0
aI00
aI00
aI00
aI00
aI00
aI00
aI00
aI00
aa(lp1810
I1109
aF136.432
aF328.458
aVp3
p1811
aS'utopia'
p1812
aS'#656565'
p1813
aF8.88595
aI0
aI00
aI00
aI00
aI00
aI00
aI00
aI00
aI00
aa(lp1814
I75654
aF174.938
aF328.458
aVp3
p1815
aS'utopia'
p1816
aS'#656565'
p1817
aF8.88595
aI0
aI00
aI00
aI00
aI00
aI00
aI00
aI00
aI00
aa(lp1818
I149270
aF220.849
aF328.458
aVp3
p1819
aS'utopia'
p1820
aS'#656565'
p1821
aF8.88595
aI0
aI00
aI00
aI00
aI00
aI00
aI00
aI00
aI00
aa(lp1822
I144690
aF258.614
aF328.458
aVp3
p1823
aS'utopia'
p1824
aS'#656565'
p1825
aF8.88595
aI0
aI00
aI00
aI00
aI00
aI00
aI00
aI00
aI00
aa(lp1826
I234378
aF282.1973428571428
aF328.458
ag1823
aS'utopia'
p1827
aS'#656565'
p1828
aF8.88595
aI0
aI00
aI00
aI00
aI00
aI00
aI00
aI00
aI00
aa(lp1829
I123665
aF288.234
aF328.458
aVp3
p1830
aS'utopia'
p1831
aS'#656565'
p1832
aF8.88595
aI0
aI00
aI00
aI00
aI00
aI00
aI00
aI00
aI00
aa(lp1833
I68032
aF334.145
aF328.458
aVp3
p1834
aS'utopia'
p1835
aS'#656565'
p1836
aF8.88595
aI0
aI00
aI00
aI00
aI00
aI00
aI00
aI00
aI00
aa(lp1837
I234378
aF388.201
aF328.458
aVp3
p1838
aS'utopia'
p1839
aS'#656565'
p1840
aF8.88595
aI0
aI00
aI00
aI00
aI00
aI00
aI00
aI00
aI00
aa(lp1841
I85218
aF428.928
aF328.458
aVp3
p1842
aS'utopia'
p1843
aS'#656565'
p1844
aF8.88595
aI0
aI00
aI00
aI00
aI00
aI00
aI00
aI00
aI00
aa(lp1845
I109247
aF445.96
aF328.458
aVp3
p1846
aS'utopia'
p1847
aS'#656565'
p1848
aF8.88595
aI0
aI00
aI00
aI00
aI00
aI00
aI00
aI00
aI00
aa(lp1849
I234378
aF474.839
aF328.458
aVp3
p1850
aS'utopia'
p1851
aS'#656565'
p1852
aF8.88595
aI0
aI00
aI00
aI00
aI00
aI00
aI00
aI00
aI00
aa(lp1853
I135639
aF515.566
aF328.458
aVp3
p1854
aS'utopia'
p1855
aS'#656565'
p1856
aF8.88595
aI0
aI00
aI00
aI00
aI00
aI00
aI00
aI00
aI00
aa(lp1857
I177958
aF40.9084
aF338.825
aVp3
p1858
aS'utopia'
p1859
aS'#656565'
p1860
aF8.88595
aI0
aI00
aI00
aI00
aI00
aI00
aI00
aI00
aI00
aa(lp1861
I234378
aF67.574725
aF338.825
ag1858
aS'utopia'
p1862
aS'#656565'
p1863
aF8.88595
aI0
aI00
aI00
aI00
aI00
aI00
aI00
aI00
aI00
aa(lp1864
I177958
aF40.9084
aF352.894
aVp3
p1865
aS'utopia'
p1866
aS'#656565'
p1867
aF8.88595
aI0
aI01
aI00
aI00
aI00
aI00
aI00
aI00
aI00
aa(lp1868
I234378
aF71.2688
aF352.894
aVp3
p1869
aS'utopia'
p1870
aS'#656565'
p1871
aF8.88595
aI0
aI01
aI00
aI00
aI00
aI00
aI00
aI00
aI00
aa(lp1872
I234378
aF96.6393375
aF352.894
ag1869
aS'utopia'
p1873
aS'#656565'
p1874
aF8.88595
aI0
aI00
aI00
aI00
aI00
aI00
aI00
aI00
aI00
aa(lp1875
I234378
aF104.591
aF352.894
aVp3
p1876
aS'utopia'
p1877
aS'#656565'
p1878
aF8.88595
aI0
aI01
aI00
aI00
aI00
aI00
aI00
aI00
aI00
aa(lp1879
I234378
aF139.394
aF352.894
aVp3
p1880
aS'utopia'
p1881
aS'#656565'
p1882
aF8.88595
aI0
aI01
aI01
aI00
aI00
aI00
aI00
aI00
aI00
aa(lp1883
I234378
aF153.364925
aF352.894
ag1880
aS'utopia'
p1884
aS'#656565'
p1885
aF8.88595
aI0
aI00
aI00
aI00
aI00
aI00
aI00
aI00
aI00
aa(lp1886
I234378
aF160.128
aF352.894
aVp3
p1887
aS'utopia'
p1888
aS'#656565'
p1889
aF8.88595
aI0
aI01
aI00
aI00
aI00
aI00
aI00
aI00
aI00
aa(lp1890
I234378
aF194.932
aF352.894
aVp3
p1891
aS'utopia'
p1892
aS'#656565'
p1893
aF8.88595
aI0
aI00
aI00
aI00
aI00
aI00
aI00
aI00
aI00
aa(lp1894
I194354
aF231.216
aF352.894
aVp3
p1895
aS'utopia'
p1896
aS'#656565'
p1897
aF8.88595
aI0
aI00
aI00
aI00
aI00
aI00
aI00
aI00
aI00
aa(lp1898
I127763
aF246.026
aF352.894
aVp3
p1899
aS'utopia'
p1900
aS'#656565'
p1901
aF8.88595
aI0
aI00
aI00
aI00
aI00
aI00
aI00
aI00
aI00
aa(lp1902
I234378
aF286.11677000000003
aF352.894
ag1899
aS'utopia'
p1903
aS'#656565'
p1904
aF8.88595
aI0
aI00
aI00
aI00
aI00
aI00
aI00
aI00
aI00
aa(lp1905
I234378
aF292.677
aF352.894
aVp3
p1906
aS'utopia'
p1907
aS'#656565'
p1908
aF8.88595
aI0
aI00
aI00
aI00
aI00
aI00
aI00
aI00
aI00
aa(lp1909
I85218
aF314.151
aF352.894
aVp3
p1910
aS'utopia'
p1911
aS'#656565'
p1912
aF8.88595
aI0
aI00
aI00
aI00
aI00
aI00
aI00
aI00
aI00
aa(lp1913
I234378
aF331.183
aF352.894
aVp3
p1914
aS'utopia'
p1915
aS'#656565'
p1916
aF8.88595
aI0
aI00
aI00
aI00
aI00
aI00
aI00
aI00
aI00
aa(lp1917
I89480
aF368.948
aF352.894
aVp3
p1918
aS'utopia'
p1919
aS'#656565'
p1920
aF8.88595
aI0
aI00
aI00
aI00
aI00
aI00
aI00
aI00
aI00
aa(lp1921
I147316
aF379.315
aF352.894
aVp3
p1922
aS'utopia'
p1923
aS'#656565'
p1924
aF8.88595
aI0
aI00
aI00
aI00
aI00
aI00
aI00
aI00
aI00
aa(lp1925
I17796
aF412.637
aF352.894
aVp3
p1926
aS'utopia'
p1927
aS'#656565'
p1928
aF8.88595
aI0
aI01
aI00
aI00
aI00
aI00
aI00
aI00
aI00
aa(lp1929
I69790
aF434.852
aF352.894
aVp3
p1930
aS'utopia'
p1931
aS'#656565'
p1932
aF8.88595
aI0
aI00
aI00
aI00
aI00
aI00
aI00
aI00
aI00
aa(lp1933
I85218
aF474.839
aF352.894
aVp3
p1934
aS'utopia'
p1935
aS'#656565'
p1936
aF8.88595
aI0
aI00
aI00
aI00
aI00
aI00
aI00
aI00
aI00
aa(lp1937
I68032
aF491.87
aF352.894
aVp3
p1938
aS'utopia'
p1939
aS'#656565'
p1940
aF8.88595
aI0
aI00
aI00
aI00
aI00
aI00
aI00
aI00
aI00
aa(lp1941
I234378
aF40.9084
aF363.261
aVp3
p1942
aS'utopia'
p1943
aS'#656565'
p1944
aF8.88595
aI0
aI00
aI00
aI00
aI00
aI00
aI00
aI00
aI00
aa(lp1945
I234378
aF73.99912727272726
aF363.261
ag1942
aS'utopia'
p1946
aS'#656565'
p1947
aF8.88595
aI0
aI00
aI00
aI00
aI00
aI00
aI00
aI00
aI00
aa(lp1948
I234378
aF79.4142
aF363.261
aVp3
p1949
aS'utopia'
p1950
aS'#656565'
p1951
aF8.88595
aI0
aI00
aI00
aI00
aI00
aI00
aI00
aI00
aI00
aa(lp1952
I234378
aF123.844
aF363.261
aVp3
p1953
aS'utopia'
p1954
aS'#656565'
p1955
aF8.88595
aI0
aI01
aI01
aI00
aI00
aI00
aI00
aI00
aI00
aa(lp1956
I113129
aF134.211
aF363.261
aVp3
p1957
aS'utopia'
p1958
aS'#656565'
p1959
aF8.88595
aI0
aI00
aI00
aI00
aI00
aI00
aI00
aI00
aI00
aa(lp1960
I234378
aF167.63727
aF363.261
ag1957
aS'utopia'
p1961
aS'#656565'
p1962
aF8.88595
aI0
aI00
aI00
aI00
aI00
aI00
aI00
aI00
aI00
aa(lp1963
I22536
aF173.457
aF363.261
aVp3
p1964
aS'utopia'
p1965
aS'#656565'
p1966
aF8.88595
aI0
aI00
aI00
aI00
aI00
aI00
aI00
aI00
aI00
aa(lp1967
I234378
aF205.299
aF363.261
aVp3
p1968
aS'utopia'
p1969
aS'#656565'
p1970
aF8.88595
aI0
aI00
aI00
aI00
aI00
aI00
aI00
aI00
aI00
aa(lp1971
I85218
aF241.583
aF363.261
aVp3
p1972
aS'utopia'
p1973
aS'#656565'
p1974
aF8.88595
aI0
aI00
aI00
aI00
aI00
aI00
aI00
aI00
aI00
aa(lp1975
I234378
aF258.614
aF363.261
aVp3
p1976
aS'utopia'
p1977
aS'#656565'
p1978
aF8.88595
aI0
aI00
aI00
aI00
aI00
aI00
aI00
aI00
aI00
aa(lp1979
I234378
aF302.303
aF363.261
aVp3
p1980
aS'utopia'
p1981
aS'#656565'
p1982
aF8.88595
aI0
aI00
aI00
aI00
aI00
aI00
aI00
aI00
aI00
aa(lp1983
I234378
aF353.98050714285716
aF363.261
ag1980
aS'utopia'
p1984
aS'#656565'
p1985
aF8.88595
aI0
aI00
aI00
aI00
aI00
aI00
aI00
aI00
aI00
aa(lp1986
I157027
aF360.062
aF363.261
aVp3
p1987
aS'utopia'
p1988
aS'#656565'
p1989
aF8.88595
aI0
aI00
aI00
aI00
aI00
aI00
aI00
aI00
aI00
aa(lp1990
I207673
aF388.941
aF363.261
aVp3
p1991
aS'utopia'
p1992
aS'#656565'
p1993
aF8.88595
aI0
aI00
aI00
aI00
aI00
aI00
aI00
aI00
aI00
aa(lp1994
I234378
aF431.89
aF363.261
aVp3
p1995
aS'utopia'
p1996
aS'#656565'
p1997
aF8.88595
aI0
aI00
aI00
aI00
aI00
aI00
aI00
aI00
aI00
aa(lp1998
I234378
aF478.15343333333334
aF363.261
ag1995
aS'utopia'
p1999
aS'#656565'
p2000
aF8.88595
aI0
aI00
aI00
aI00
aI00
aI00
aI00
aI00
aI00
aa(lp2001
I85218
aF484.465
aF363.261
aVp3
p2002
aS'utopia'
p2003
aS'#656565'
p2004
aF8.88595
aI0
aI00
aI00
aI00
aI00
aI00
aI00
aI00
aI00
aa(lp2005
I79698
aF501.497
aF363.261
aVp3
p2006
aS'utopia'
p2007
aS'#656565'
p2008
aF8.88595
aI0
aI00
aI00
aI00
aI00
aI00
aI00
aI00
aI00
aa(lp2009
I194354
aF522.231
aF363.261
aVp3
p2010
aS'utopia'
p2011
aS'#656565'
p2012
aF8.88595
aI0
aI00
aI00
aI00
aI00
aI00
aI00
aI00
aI00
aa(lp2013
I234378
aF40.9084
aF373.628
aVp3
p2014
aS'utopia'
p2015
aS'#656565'
p2016
aF8.88595
aI0
aI00
aI00
aI00
aI00
aI00
aI00
aI00
aI00
aa(lp2017
I135639
aF63.8638
aF373.628
aVp3
p2018
aS'utopia'
p2019
aS'#656565'
p2020
aF8.88595
aI0
aI00
aI00
aI00
aI00
aI00
aI00
aI00
aI00
aa(lp2021
I15316
aF73.4902
aF373.628
aVp3
p2022
aS'utopia'
p2023
aS'#656565'
p2024
aF8.88595
aI0
aI00
aI00
aI00
aI00
aI00
aI00
aI00
aI00
aa(lp2025
I169745
aF98.6671
aF373.628
aVp3
p2026
aS'utopia'
p2027
aS'#656565'
p2028
aF8.88595
aI0
aI00
aI00
aI00
aI00
aI00
aI00
aI00
aI00
aa(lp2029
I163066
aF117.92
aF373.628
aVp3
p2030
aS'utopia'
p2031
aS'#656565'
p2032
aF8.88595
aI0
aI00
aI00
aI00
aI00
aI00
aI00
aI00
aI00
aa(lp2033
I234378
aF147.54
aF373.628
aVp3
p2034
aS'utopia'
p2035
aS'#656565'
p2036
aF8.88595
aI0
aI00
aI00
aI00
aI00
aI00
aI00
aI00
aI00
aa(lp2037
I82021
aF185.305
aF373.628
aVp3
p2038
aS'utopia'
p2039
aS'#656565'
p2040
aF8.88595
aI0
aI00
aI00
aI00
aI00
aI00
aI00
aI00
aI00
aa(lp2041
I85218
aF248.988
aF373.628
aVp3
p2042
aS'utopia'
p2043
aS'#656565'
p2044
aF8.88595
aI0
aI00
aI00
aI00
aI00
aI00
aI00
aI00
aI00
aa(lp2045
I138453
aF266.019
aF373.628
aVp3
p2046
aS'utopia'
p2047
aS'#656565'
p2048
aF8.88595
aI0
aI00
aI00
aI00
aI00
aI00
aI00
aI00
aI00
aa(lp2049
I234378
aF303.784
aF373.628
aVp3
p2050
aS'utopia'
p2051
aS'#656565'
p2052
aF8.88595
aI0
aI00
aI00
aI00
aI00
aI00
aI00
aI00
aI00
aa(lp2053
I234378
aF333.69001249999997
aF373.628
ag2050
aS'utopia'
p2054
aS'#656565'
p2055
aF8.88595
aI0
aI00
aI00
aI00
aI00
aI00
aI00
aI00
aI00
aa(lp2056
I234378
aF340.069
aF373.628
aVp3
p2057
aS'utopia'
p2058
aS'#656565'
p2059
aF8.88595
aI0
aI01
aI00
aI00
aI00
aI00
aI00
aI00
aI00
aa(lp2060
I234378
aF374.872
aF373.628
aVp3
p2061
aS'utopia'
p2062
aS'#656565'
p2063
aF8.88595
aI0
aI01
aI00
aI00
aI00
aI00
aI00
aI00
aI00
aa(lp2064
I234378
aF399.0344166666667
aF373.628
ag2061
aS'utopia'
p2065
aS'#656565'
p2066
aF8.88595
aI0
aI00
aI00
aI00
aI00
aI00
aI00
aI00
aI00
aa(lp2067
I234378
aF405.973
aF373.628
aVp3
p2068
aS'utopia'
p2069
aS'#656565'
p2070
aF8.88595
aI0
aI01
aI00
aI00
aI00
aI00
aI00
aI00
aI00
aa(lp2071
I234378
aF430.409
aF373.628
aVp3
p2072
aS'utopia'
p2073
aS'#656565'
p2074
aF8.88595
aI0
aI01
aI00
aI00
aI00
aI00
aI00
aI00
aI00
aa(lp2075
I234378
aF465.213
aF373.628
aVp3
p2076
aS'utopia'
p2077
aS'#656565'
p2078
aF8.88595
aI0
aI01
aI01
aI00
aI00
aI00
aI00
aI00
aI00
aa(lp2079
I206869
aF483.725
aF373.628
aVp3
p2080
aS'utopia'
p2081
aS'#656565'
p2082
aF8.88595
aI0
aI00
aI00
aI00
aI00
aI00
aI00
aI00
aI00
aa(lp2083
I234378
aF516.307
aF373.628
aVp3
p2084
aS'utopia'
p2085
aS'#656565'
p2086
aF8.88595
aI0
aI00
aI00
aI00
aI00
aI00
aI00
aI00
aI00
aa(lp2087
I33705
aF539.262
aF373.628
aVp3
p2088
aS'utopia'
p2089
aS'#656565'
p2090
aF8.88595
aI0
aI00
aI00
aI00
aI00
aI00
aI00
aI00
aI00
aa(lp2091
I203110
aF40.9084
aF383.995
aVp3
p2092
aS'utopia'
p2093
aS'#656565'
p2094
aF8.88595
aI0
aI00
aI00
aI00
aI00
aI00
aI00
aI00
aI00
aa(lp2095
I194354
aF77.1927
aF383.995
aVp3
p2096
aS'utopia'
p2097
aS'#656565'
p2098
aF8.88595
aI0
aI00
aI00
aI00
aI00
aI00
aI00
aI00
aI00
aa(lp2099
I234378
aF92.0026
aF383.995
aVp3
p2100
aS'utopia'
p2101
aS'#656565'
p2102
aF8.88595
aI0
aI00
aI00
aI00
aI00
aI00
aI00
aI00
aI00
aa(lp2103
I10716
aF123.103
aF383.995
aVp3
p2104
aS'utopia'
p2105
aS'#656565'
p2106
aF8.88595
aI0
aI00
aI00
aI00
aI00
aI00
aI00
aI00
aI00
aa(lp2107
I167213
aF138.654
aF383.995
aVp3
p2108
aS'utopia'
p2109
aS'#656565'
p2110
aF8.88595
aI0
aI01
aI00
aI00
aI00
aI00
aI00
aI00
aI00
aa(lp2111
I137949
aF182.343
aF383.995
aVp3
p2112
aS'utopia'
p2113
aS'#656565'
p2114
aF8.88595
aI0
aI01
aI00
aI00
aI00
aI00
aI00
aI00
aI00
aa(lp2115
I234378
aF199.02252
aF383.995
ag2112
aS'utopia'
p2116
aS'#656565'
p2117
aF8.88595
aI0
aI00
aI00
aI00
aI00
aI00
aI00
aI00
aI00
aa(lp2118
I4520
aF205.299
aF383.995
aVp3
p2119
aS'utopia'
p2120
aS'#656565'
p2121
aF8.88595
aI0
aI01
aI00
aI00
aI00
aI00
aI00
aI00
aI00
aa(lp2122
I85218
aF257.133
aF383.995
aVp3
p2123
aS'utopia'
p2124
aS'#656565'
p2125
aF8.88595
aI0
aI00
aI00
aI00
aI00
aI00
aI00
aI00
aI00
aa(lp2126
I221424
aF274.165
aF383.995
aVp3
p2127
aS'utopia'
p2128
aS'#656565'
p2129
aF8.88595
aI0
aI01
aI00
aI00
aI00
aI00
aI00
aI00
aI00
aa(lp2130
I229025
aF293.418
aF383.995
aVp3
p2131
aS'utopia'
p2132
aS'#656565'
p2133
aF8.88595
aI0
aI00
aI00
aI00
aI00
aI00
aI00
aI00
aI00
aa(lp2134
I234378
aF308.968
aF383.995
aVp3
p2135
aS'utopia'
p2136
aS'#656565'
p2137
aF8.88595
aI0
aI01
aI00
aI00
aI00
aI00
aI00
aI00
aI00
aa(lp2138
I234378
aF338.22607500000004
aF383.995
ag2135
aS'utopia'
p2139
aS'#656565'
p2140
aF8.88595
aI0
aI00
aI00
aI00
aI00
aI00
aI00
aI00
aI00
aa(lp2141
I17350
aF40.9084
aF420.913
aVp3
p2142
aS'utopia'
p2143
aS'#000000'
p2144
aF10.3669
aI1
aI01
aI00
aI00
aI00
aI00
aI00
aI00
aI00
aa(lp2145
I119502
aF63.8638
aF420.913
aVp3
p2146
aS'utopia'
p2147
aS'#000000'
p2148
aF10.3669
aI1
aI01
aI00
aI00
aI00
aI00
aI00
aI00
aI00
aa(lp2149
I68032
aF100.148
aF420.913
aVp3
p2150
aS'utopia'
p2151
aS'#000000'
p2152
aF10.3669
aI1
aI01
aI00
aI00
aI00
aI00
aI00
aI00
aI00
aa(lp2153
I89958
aF40.9084
aF437.474
aVp3
p2154
aS'utopia'
p2155
aS'#656565'
p2156
aF10.3669
aI0
aI01
aI00
aI00
aI00
aI00
aI00
aI00
aI00
aa(lp2157
I25931
aF81.6357
aF437.474
aVp3
p2158
aS'utopia'
p2159
aS'#656565'
p2160
aF10.3669
aI0
aI01
aI00
aI00
aI00
aI00
aI00
aI00
aI00
aa(lp2161
I234378
aF117.18
aF437.474
aVp3
p2162
aS'utopia'
p2163
aS'#656565'
p2164
aF10.3669
aI0
aI01
aI00
aI00
aI00
aI00
aI00
aI00
aI00
aa(lp2165
I60201
aF154.204
aF437.474
aVp3
p2166
aS'utopia'
p2167
aS'#656565'
p2168
aF10.3669
aI0
aI01
aI00
aI00
aI00
aI00
aI00
aI00
aI00
aa(lp2169
I230071
aF174.198
aF437.474
aVp3
p2170
aS'utopia'
p2171
aS'#656565'
p2172
aF10.3669
aI0
aI01
aI00
aI00
aI00
aI00
aI00
aI00
aI00
aa(lp2173
I131049
aF205.299
aF437.474
aVp3
p2174
aS'utopia'
p2175
aS'#656565'
p2176
aF10.3669
aI0
aI00
aI00
aI00
aI00
aI00
aI00
aI00
aI00
aa(lp2177
I61519
aF229.735
aF437.474
aVp3
p2178
aS'utopia'
p2179
aS'#656565'
p2180
aF10.3669
aI0
aI01
aI00
aI00
aI00
aI00
aI00
aI00
aI01
aa(lp2181
I234378
aF247.507
aF437.474
aVp3
p2182
aS'utopia'
p2183
aS'#656565'
p2184
aF10.3669
aI0
aI00
aI00
aI01
aI01
aI01
aI00
aI00
aI00
aa(lp2185
I89480
aF270.462
aF437.474
aVp3
p2186
aS'utopia'
p2187
aS'#656565'
p2188
aF10.3669
aI0
aI00
aI00
aI00
aI00
aI00
aI00
aI00
aI00
aa(lp2189
I102117
aF282.31
aF437.474
aVp3
p2190
aS'utopia'
p2191
aS'#656565'
p2192
aF10.3669
aI0
aI01
aI00
aI00
aI00
aI00
aI00
aI00
aI00
aa(lp2193
I234378
aF40.9084
aF453.764
aVp3
p2194
aS'utopia'
p2195
aS'#656565'
p2196
aF10.3669
aI0
aI01
aI00
aI00
aI00
aI00
aI00
aI00
aI00
aa(lp2197
I109610
aF40.9084
aF469.892
aVp3
p2198
aS'utopia'
p2199
aS'#656565'
p2200
aF8.88595
aI0
aI01
aI00
aI00
aI00
aI00
aI00
aI00
aI00
aa(lp2201
I25729
aF58.6803
aF469.892
aVp3
p2202
aS'utopia'
p2203
aS'#656565'
p2204
aF8.88595
aI0
aI01
aI00
aI00
aI00
aI00
aI00
aI00
aI00
aa(lp2205
I234378
aF76.54462000000001
aF469.892
ag2202
aS'utopia'
p2206
aS'#656565'
p2207
aF8.88595
aI0
aI00
aI00
aI00
aI00
aI00
aI00
aI00
aI00
aa(lp2208
I17350
aF85.3382
aF469.892
aVp3
p2209
aS'utopia'
p2210
aS'#656565'
p2211
aF8.88595
aI0
aI01
aI00
aI00
aI00
aI00
aI00
aI00
aI00
aa(lp2212
I234378
aF105.332
aF469.892
aVp3
p2213
aS'utopia'
p2214
aS'#656565'
p2215
aF8.88595
aI0
aI01
aI00
aI00
aI00
aI00
aI00
aI00
aI00
aa(lp2216
I234378
aF135.7127111111111
aF469.892
ag2213
aS'utopia'
p2217
aS'#656565'
p2218
aF8.88595
aI0
aI00
aI00
aI00
aI00
aI00
aI00
aI00
aI00
aa(lp2219
I234378
aF141.616
aF469.892
aVp3
p2220
aS'utopia'
p2221
aS'#656565'
p2222
aF8.88595
aI0
aI01
aI01
aI00
aI00
aI00
aI00
aI00
aI00
aa(lp2223
I234378
aF159.48032
aF469.892
ag2220
aS'utopia'
p2224
aS'#656565'
p2225
aF8.88595
aI0
aI00
aI00
aI00
aI00
aI00
aI00
aI00
aI00
aa(lp2226
I234378
aF166.052
aF469.892
aVp3
p2227
aS'utopia'
p2228
aS'#656565'
p2229
aF8.88595
aI0
aI01
aI01
aI00
aI00
aI00
aI00
aI00
aI00
aa(lp2230
I234378
aF189.008
aF469.892
aVp3
p2231
aS'utopia'
p2232
aS'#656565'
p2233
aF8.88595
aI0
aI01
aI01
aI00
aI00
aI00
aI00
aI00
aI00
aa(lp2234
I234378
aF203.818
aF469.892
aVp3
p2235
aS'utopia'
p2236
aS'#656565'
p2237
aF8.88595
aI0
aI00
aI00
aI00
aI00
aI00
aI00
aI00
aI00
aa(lp2238
I176767
aF208.26
aF469.892
aVp3
p2239
aS'utopia'
p2240
aS'#656565'
p2241
aF8.88595
aI0
aI01
aI00
aI00
aI00
aI00
aI00
aI00
aI00
aa(lp2242
I210461
aF40.9084
aF483.962
aVp3
p2243
aS'utopia'
p2244
aS'#656565'
p2245
aF8.88595
aI0
aI01
aI00
aI00
aI00
aI00
aI00
aI00
aI00
aa(lp2246
I340
aF65.3448
aF483.962
aVp3
p2247
aS'utopia'
p2248
aS'#656565'
p2249
aF8.88595
aI0
aI01
aI00
aI00
aI00
aI00
aI00
aI00
aI00
aa(lp2250
I234378
aF79.65472000000001
aF483.962
ag2247
aS'utopia'
p2251
aS'#656565'
p2252
aF8.88595
aI0
aI00
aI00
aI00
aI00
aI00
aI00
aI00
aI00
aa(lp2253
I234378
aF87.5597
aF483.962
aVp3
p2254
aS'utopia'
p2255
aS'#656565'
p2256
aF8.88595
aI0
aI00
aI00
aI01
aI01
aI00
aI00
aI00
aI00
aa(lp2257
I176435
aF40.9084
aF498.031
aVp3
p2258
aS'utopia'
p2259
aS'#656565'
p2260
aF8.88595
aI0
aI01
aI00
aI00
aI00
aI00
aI00
aI00
aI00
aa(lp2261
I234378
aF60.9018
aF498.031
aVp3
p2262
aS'utopia'
p2263
aS'#656565'
p2264
aF8.88595
aI0
aI00
aI00
aI00
aI00
aI00
aI00
aI00
aI00
aa(lp2265
I234378
aF67.5663
aF498.031
aVp3
p2266
aS'utopia'
p2267
aS'#656565'
p2268
aF8.88595
aI0
aI01
aI00
aI00
aI00
aI00
aI00
aI00
aI00
aa(lp2269
I234378
aF74.55463333333333
aF498.031
ag2266
aS'utopia'
p2270
aS'#656565'
p2271
aF8.88595
aI0
aI00
aI00
aI00
aI00
aI00
aI00
aI00
aI00
aa(lp2272
I150037
aF80.1547
aF498.031
aVp3
p2273
aS'utopia'
p2274
aS'#656565'
p2275
aF8.88595
aI0
aI01
aI00
aI00
aI00
aI00
aI00
aI00
aI00
aa(lp2276
I176435
aF40.9084
aF512.101
aVp3
p2277
aS'utopia'
p2278
aS'#656565'
p2279
aF8.88595
aI0
aI01
aI00
aI00
aI00
aI00
aI00
aI00
aI00
aa(lp2280
I66756
aF60.9018
aF512.101
aVp3
p2281
aS'utopia'
p2282
aS'#656565'
p2283
aF8.88595
aI0
aI01
aI00
aI00
aI00
aI00
aI00
aI00
aI00
aa(lp2284
I234378
aF105.12885833333334
aF512.101
ag2281
aS'utopia'
p2285
aS'#656565'
p2286
aF8.88595
aI0
aI00
aI00
aI00
aI00
aI00
aI00
aI00
aI00
aa(lp2287
I68032
aF119.401
aF512.101
aVp3
p2288
aS'utopia'
p2289
aS'#656565'
p2290
aF8.88595
aI0
aI01
aI00
aI00
aI00
aI00
aI00
aI00
aI00
aa(lp2291
I85218
aF174.938
aF512.101
aVp3
p2292
aS'utopia'
p2293
aS'#656565'
p2294
aF8.88595
aI0
aI00
aI00
aI00
aI00
aI00
aI00
aI00
aI00
aa(lp2295
I125078
aF191.97
aF512.101
aVp3
p2296
aS'utopia'
p2297
aS'#656565'
p2298
aF8.88595
aI0
aI00
aI00
aI00
aI00
aI00
aI00
aI00
aI00
aa(lp2299
I144489
aF220.108
aF512.101
aVp3
p2300
aS'utopia'
p2301
aS'#656565'
p2302
aF8.88595
aI0
aI00
aI00
aI00
aI00
aI00
aI00
aI00
aI00
aa(lp2303
I80364
aF230.475
aF512.101
aVp3
p2304
aS'utopia'
p2305
aS'#656565'
p2306
aF8.88595
aI0
aI00
aI00
aI00
aI00
aI00
aI00
aI00
aI00
aa(lp2307
I234378
aF248.988
aF512.101
aVp3
p2308
aS'utopia'
p2309
aS'#656565'
p2310
aF8.88595
aI0
aI00
aI00
aI00
aI00
aI00
aI00
aI00
aI00
aa(lp2311
I123665
aF285.272
aF512.101
aVp3
p2312
aS'utopia'
p2313
aS'#656565'
p2314
aF8.88595
aI0
aI00
aI00
aI00
aI00
aI00
aI00
aI00
aI00
aa(lp2315
I85218
aF331.183
aF512.101
aVp3
p2316
aS'utopia'
p2317
aS'#656565'
p2318
aF8.88595
aI0
aI00
aI00
aI00
aI00
aI00
aI00
aI00
aI00
aa(lp2319
I234378
aF348.214
aF512.101
aVp3
p2320
aS'utopia'
p2321
aS'#656565'
p2322
aF8.88595
aI0
aI00
aI00
aI00
aI00
aI00
aI00
aI00
aI00
aa(lp2323
I234378
aF382.30672
aF512.101
ag2320
aS'utopia'
p2324
aS'#656565'
p2325
aF8.88595
aI0
aI00
aI00
aI00
aI00
aI00
aI00
aI00
aI00
aa(lp2326
I89480
aF394.125
aF512.101
aVp3
p2327
aS'utopia'
p2328
aS'#656565'
p2329
aF8.88595
aI0
aI01
aI00
aI00
aI00
aI00
aI00
aI00
aI00
aa(lp2330
I234378
aF406.713
aF512.101
aVp3
p2331
aS'utopia'
p2332
aS'#656565'
p2333
aF8.88595
aI0
aI00
aI00
aI00
aI00
aI00
aI00
aI00
aI00
aa(lp2334
I221291
aF432.631
aF512.101
aVp3
p2335
aS'utopia'
p2336
aS'#656565'
p2337
aF8.88595
aI0
aI00
aI00
aI00
aI00
aI00
aI00
aI00
aI00
aa(lp2338
I234378
aF449.90292
aF512.101
ag2335
aS'utopia'
p2339
aS'#656565'
p2340
aF8.88595
aI0
aI00
aI00
aI00
aI00
aI00
aI00
aI00
aI00
aa(lp2341
I234378
aF456.327
aF512.101
aVp3
p2342
aS'utopia'
p2343
aS'#656565'
p2344
aF8.88595
aI0
aI00
aI00
aI00
aI00
aI00
aI00
aI00
aI00
aa(lp2345
I234378
aF40.9084
aF522.468
aVp3
p2346
aS'utopia'
p2347
aS'#656565'
p2348
aF8.88595
aI0
aI00
aI00
aI00
aI00
aI00
aI00
aI00
aI00
aa(lp2349
I85218
aF97.9266
aF522.468
aVp3
p2350
aS'utopia'
p2351
aS'#656565'
p2352
aF8.88595
aI0
aI00
aI00
aI00
aI00
aI00
aI00
aI00
aI00
aa(lp2353
I234378
aF114.958
aF522.468
aVp3
p2354
aS'utopia'
p2355
aS'#656565'
p2356
aF8.88595
aI0
aI00
aI00
aI00
aI00
aI00
aI00
aI00
aI00
aa(lp2357
I234378
aF145.318
aF522.468
aVp3
p2358
aS'utopia'
p2359
aS'#656565'
p2360
aF8.88595
aI0
aI00
aI00
aI00
aI00
aI00
aI00
aI00
aI00
aa(lp2361
I123665
aF181.603
aF522.468
aVp3
p2362
aS'utopia'
p2363
aS'#656565'
p2364
aF8.88595
aI0
aI00
aI00
aI00
aI00
aI00
aI00
aI00
aI00
aa(lp2365
I85218
aF227.513
aF522.468
aVp3
p2366
aS'utopia'
p2367
aS'#656565'
p2368
aF8.88595
aI0
aI00
aI00
aI00
aI00
aI00
aI00
aI00
aI00
aa(lp2369
I234378
aF244.545
aF522.468
aVp3
p2370
aS'utopia'
p2371
aS'#656565'
p2372
aF8.88595
aI0
aI00
aI00
aI00
aI00
aI00
aI00
aI00
aI00
aa(lp2373
I234378
aF278.63772
aF522.468
ag2370
aS'utopia'
p2374
aS'#656565'
p2375
aF8.88595
aI0
aI00
aI00
aI00
aI00
aI00
aI00
aI00
aI00
aa(lp2376
I89480
aF290.456
aF522.468
aVp3
p2377
aS'utopia'
p2378
aS'#656565'
p2379
aF8.88595
aI0
aI01
aI00
aI00
aI00
aI00
aI00
aI00
aI00
aa(lp2380
I157027
aF303.044
aF522.468
aVp3
p2381
aS'utopia'
p2382
aS'#656565'
p2383
aF8.88595
aI0
aI00
aI00
aI00
aI00
aI00
aI00
aI00
aI00
aa(lp2384
I134763
aF331.923
aF522.468
aVp3
p2385
aS'utopia'
p2386
aS'#656565'
p2387
aF8.88595
aI0
aI00
aI00
aI00
aI00
aI00
aI00
aI00
aI00
aa(lp2388
I109247
aF351.176
aF522.468
aVp3
p2389
aS'utopia'
p2390
aS'#656565'
p2391
aF8.88595
aI0
aI00
aI00
aI00
aI00
aI00
aI00
aI00
aI00
aa(lp2392
I234378
aF380.056
aF522.468
aVp3
p2393
aS'utopia'
p2394
aS'#656565'
p2395
aF8.88595
aI0
aI00
aI00
aI00
aI00
aI00
aI00
aI00
aI00
aa(lp2396
I123665
aF416.34
aF522.468
aVp3
p2397
aS'utopia'
p2398
aS'#656565'
p2399
aF8.88595
aI0
aI00
aI00
aI00
aI00
aI00
aI00
aI00
aI00
aa(lp2400
I85218
aF462.251
aF522.468
aVp3
p2401
aS'utopia'
p2402
aS'#656565'
p2403
aF8.88595
aI0
aI00
aI00
aI00
aI00
aI00
aI00
aI00
aI00
aa(lp2404
I234378
aF479.282
aF522.468
aVp3
p2405
aS'utopia'
p2406
aS'#656565'
p2407
aF8.88595
aI0
aI00
aI00
aI00
aI00
aI00
aI00
aI00
aI00
aa(lp2408
I175989
aF517.047
aF522.468
aVp3
p2409
aS'utopia'
p2410
aS'#656565'
p2411
aF8.88595
aI0
aI00
aI00
aI00
aI00
aI00
aI00
aI00
aI00
aa(lp2412
I22474
aF534.819
aF522.468
aVp3
p2413
aS'utopia'
p2414
aS'#656565'
p2415
aF8.88595
aI0
aI00
aI00
aI00
aI00
aI00
aI00
aI00
aI00
aa(lp2416
I89873
aF40.9084
aF532.835
aVp3
p2417
aS'utopia'
p2418
aS'#656565'
p2419
aF8.88595
aI0
aI00
aI00
aI00
aI00
aI00
aI00
aI00
aI00
aa(lp2420
I85218
aF82.3762
aF532.835
aVp3
p2421
aS'utopia'
p2422
aS'#656565'
p2423
aF8.88595
aI0
aI00
aI00
aI00
aI00
aI00
aI00
aI00
aI00
aa(lp2424
I18648
aF99.4076
aF532.835
aVp3
p2425
aS'utopia'
p2426
aS'#656565'
p2427
aF8.88595
aI0
aI00
aI00
aI00
aI00
aI00
aI00
aI00
aI00
aa(lp2428
I177958
aF40.9084
aF546.904
aVp3
p2429
aS'utopia'
p2430
aS'#656565'
p2431
aF8.88595
aI0
aI01
aI00
aI00
aI00
aI00
aI00
aI00
aI00
aa(lp2432
I234378
aF71.2688
aF546.904
aVp3
p2433
aS'utopia'
p2434
aS'#656565'
p2435
aF8.88595
aI0
aI01
aI00
aI00
aI00
aI00
aI00
aI00
aI00
aa(lp2436
I234378
aF96.6393375
aF546.904
ag2433
aS'utopia'
p2437
aS'#656565'
p2438
aF8.88595
aI0
aI00
aI00
aI00
aI00
aI00
aI00
aI00
aI00
aa(lp2439
I173426
aF104.591
aF546.904
aVp3
p2440
aS'utopia'
p2441
aS'#656565'
p2442
aF8.88595
aI0
aI01
aI00
aI00
aI00
aI00
aI00
aI00
aI00
aa(lp2443
I85218
aF143.097
aF546.904
aVp3
p2444
aS'utopia'
p2445
aS'#656565'
p2446
aF8.88595
aI0
aI00
aI00
aI00
aI00
aI00
aI00
aI00
aI00
aa(lp2447
I68032
aF160.128
aF546.904
aVp3
p2448
aS'utopia'
p2449
aS'#656565'
p2450
aF8.88595
aI0
aI01
aI00
aI00
aI00
aI00
aI00
aI00
aI00
aa(lp2451
I144489
aF215.665
aF546.904
aVp3
p2452
aS'utopia'
p2453
aS'#656565'
p2454
aF8.88595
aI0
aI00
aI00
aI00
aI00
aI00
aI00
aI00
aI00
aa(lp2455
I194354
aF226.032
aF546.904
aVp3
p2456
aS'utopia'
p2457
aS'#656565'
p2458
aF8.88595
aI0
aI00
aI00
aI00
aI00
aI00
aI00
aI00
aI00
aa(lp2459
I17350
aF240.842
aF546.904
aVp3
p2460
aS'utopia'
p2461
aS'#656565'
p2462
aF8.88595
aI0
aI01
aI00
aI00
aI00
aI00
aI00
aI00
aI00
aa(lp2463
I119502
aF260.836
aF546.904
aVp3
p2464
aS'utopia'
p2465
aS'#656565'
p2466
aF8.88595
aI0
aI01
aI00
aI00
aI00
aI00
aI00
aI00
aI00
aa(lp2467
I234378
aF287.50232500000004
aF546.904
ag2464
aS'utopia'
p2468
aS'#656565'
p2469
aF8.88595
aI0
aI00
aI00
aI00
aI00
aI00
aI00
aI00
aI00
aa(lp2470
I234378
aF40.9084
aF583.822
aVp3
p2471
aS'utopia'
p2472
aS'#000000'
p2473
aF10.3669
aI1
aI01
aI00
aI00
aI00
aI00
aI00
aI00
aI00
aa(lp2474
I234378
aF72.0093
aF583.822
aVp3
p2475
aS'utopia'
p2476
aS'#000000'
p2477
aF10.3669
aI1
aI00
aI00
aI00
aI00
aI00
aI00
aI00
aI00
aa(lp2478
I234378
aF77.1927
aF583.822
aVp3
p2479
aS'utopia'
p2480
aS'#000000'
p2481
aF10.3669
aI1
aI01
aI00
aI00
aI00
aI00
aI00
aI00
aI00
aa(lp2482
I85218
aF105.332
aF583.822
aVp3
p2483
aS'utopia'
p2484
aS'#000000'
p2485
aF10.3669
aI1
aI00
aI00
aI00
aI00
aI00
aI00
aI00
aI00
aa(lp2486
I234378
aF126.065
aF583.822
aVp3
p2487
aS'utopia'
p2488
aS'#000000'
p2489
aF10.3669
aI1
aI01
aI01
aI01
aI00
aI00
aI00
aI00
aI00
aa(lp2490
I68032
aF151.242
aF583.822
aVp3
p2491
aS'utopia'
p2492
aS'#000000'
p2493
aF10.3669
aI1
aI01
aI00
aI00
aI00
aI00
aI00
aI00
aI00
aa(lp2494
I177958
aF217.887
aF583.822
aVp3
p2495
aS'utopia'
p2496
aS'#000000'
p2497
aF10.3669
aI1
aI01
aI00
aI00
aI00
aI00
aI00
aI00
aI00
aa(lp2498
I234378
aF40.9084
aF600.383
aVp3
p2499
aS'utopia'
p2500
aS'#656565'
p2501
aF10.3669
aI0
aI01
aI00
aI00
aI00
aI00
aI00
aI00
aI00
aa(lp2502
I234378
aF87.5597
aF600.383
aVp3
p2503
aS'utopia'
p2504
aS'#656565'
p2505
aF10.3669
aI0
aI01
aI00
aI00
aI00
aI00
aI00
aI00
aI00
aa(lp2506
I60201
aF124.584
aF600.383
aVp3
p2507
aS'utopia'
p2508
aS'#656565'
p2509
aF10.3669
aI0
aI01
aI00
aI00
aI00
aI00
aI00
aI00
aI00
aa(lp2510
I230071
aF144.578
aF600.383
aVp3
p2511
aS'utopia'
p2512
aS'#656565'
p2513
aF10.3669
aI0
aI01
aI00
aI00
aI00
aI00
aI00
aI00
aI00
aa(lp2514
I131049
aF175.679
aF600.383
aVp3
p2515
aS'utopia'
p2516
aS'#656565'
p2517
aF10.3669
aI0
aI00
aI00
aI00
aI00
aI00
aI00
aI00
aI00
aa(lp2518
I234378
aF200.115
aF600.383
aVp3
p2519
aS'utopia'
p2520
aS'#656565'
p2521
aF10.3669
aI0
aI01
aI00
aI00
aI00
aI00
aI00
aI00
aI01
aa(lp2522
I234378
aF214.925
aF600.383
aVp3
p2523
aS'utopia'
p2524
aS'#656565'
p2525
aF10.3669
aI0
aI00
aI00
aI01
aI01
aI01
aI00
aI00
aI00
aa(lp2526
I89480
aF237.88
aF600.383
aVp3
p2527
aS'utopia'
p2528
aS'#656565'
p2529
aF10.3669
aI0
aI00
aI00
aI00
aI00
aI00
aI00
aI00
aI00
aa(lp2530
I234378
aF249.728
aF600.383
aVp3
p2531
aS'utopia'
p2532
aS'#656565'
p2533
aF10.3669
aI0
aI01
aI00
aI00
aI00
aI00
aI00
aI00
aI01
aa(lp2534
I234378
aF268.981
aF600.383
aVp3
p2535
aS'utopia'
p2536
aS'#656565'
p2537
aF10.3669
aI0
aI00
aI00
aI01
aI01
aI01
aI00
aI00
aI00
aa(lp2538
I234378
aF40.9084
aF616.674
aVp3
p2539
aS'utopia'
p2540
aS'#656565'
p2541
aF10.3669
aI0
aI01
aI00
aI00
aI00
aI00
aI00
aI00
aI00
aa(lp2542
I109610
aF40.9084
aF632.802
aVp3
p2543
aS'utopia'
p2544
aS'#656565'
p2545
aF8.88595
aI0
aI01
aI00
aI00
aI00
aI00
aI00
aI00
aI00
aa(lp2546
I25729
aF58.6803
aF632.802
aVp3
p2547
aS'utopia'
p2548
aS'#656565'
p2549
aF8.88595
aI0
aI01
aI00
aI00
aI00
aI00
aI00
aI00
aI00
aa(lp2550
I234378
aF76.54462000000001
aF632.802
ag2547
aS'utopia'
p2551
aS'#656565'
p2552
aF8.88595
aI0
aI00
aI00
aI00
aI00
aI00
aI00
aI00
aI00
aa(lp2553
I21716
aF85.3382
aF632.802
aVp3
p2554
aS'utopia'
p2555
aS'#656565'
p2556
aF8.88595
aI0
aI01
aI00
aI00
aI00
aI00
aI00
aI00
aI00
aa(lp2557
I234378
aF100.24052
aF632.802
ag2554
aS'utopia'
p2558
aS'#656565'
p2559
aF8.88595
aI0
aI00
aI00
aI00
aI00
aI00
aI00
aI00
aI00
aa(lp2560
I234378
aF106.072
aF632.802
aVp3
p2561
aS'utopia'
p2562
aS'#656565'
p2563
aF8.88595
aI0
aI01
aI01
aI01
aI00
aI00
aI00
aI00
aI00
aa(lp2564
I234378
aF122.15912
aF632.802
ag2561
aS'utopia'
p2565
aS'#656565'
p2566
aF8.88595
aI0
aI00
aI00
aI00
aI00
aI00
aI00
aI00
aI00
aa(lp2567
I234378
aF128.287
aF632.802
aVp3
p2568
aS'utopia'
p2569
aS'#656565'
p2570
aF8.88595
aI0
aI01
aI01
aI00
aI00
aI00
aI00
aI00
aI00
aa(lp2571
I234378
aF147.33612
aF632.802
ag2568
aS'utopia'
p2572
aS'#656565'
p2573
aF8.88595
aI0
aI00
aI00
aI00
aI00
aI00
aI00
aI00
aI00
aa(lp2574
I234378
aF154.204
aF632.802
aVp3
p2575
aS'utopia'
p2576
aS'#656565'
p2577
aF8.88595
aI0
aI01
aI00
aI00
aI00
aI00
aI00
aI00
aI00
aa(lp2578
I234378
aF177.9
aF632.802
aVp3
p2579
aS'utopia'
p2580
aS'#656565'
p2581
aF8.88595
aI0
aI00
aI00
aI00
aI00
aI00
aI00
aI00
aI00
aa(lp2582
I167810
aF183.084
aF632.802
aVp3
p2583
aS'utopia'
p2584
aS'#656565'
p2585
aF8.88595
aI0
aI01
aI00
aI00
aI00
aI00
aI00
aI00
aI00
aa(lp2586
I234378
aF209.001
aF632.802
aVp3
p2587
aS'utopia'
p2588
aS'#656565'
p2589
aF8.88595
aI0
aI01
aI00
aI00
aI00
aI00
aI00
aI00
aI00
aa(lp2590
I234378
aF239.61573333333334
aF632.802
ag2587
aS'utopia'
p2591
aS'#656565'
p2592
aF8.88595
aI0
aI00
aI00
aI00
aI00
aI00
aI00
aI00
aI00
aa(lp2593
I234378
aF243.98926666666668
aF632.802
ag2587
aS'utopia'
p2594
aS'#656565'
p2595
aF8.88595
aI0
aI00
aI00
aI00
aI00
aI00
aI00
aI00
aI00
aa(lp2596
I234378
aF250.469
aF632.802
aVp3
p2597
aS'utopia'
p2598
aS'#656565'
p2599
aF8.88595
aI0
aI01
aI00
aI00
aI00
aI00
aI00
aI00
aI00
aa(lp2600
I154254
aF274.165
aF632.802
aVp3
p2601
aS'utopia'
p2602
aS'#656565'
p2603
aF8.88595
aI0
aI01
aI00
aI00
aI00
aI00
aI00
aI00
aI00
aa(lp2604
I234378
aF325.999
aF632.802
aVp3
p2605
aS'utopia'
p2606
aS'#656565'
p2607
aF8.88595
aI0
aI00
aI00
aI00
aI00
aI00
aI00
aI00
aI00
aa(lp2608
I234378
aF329.57412500000004
aF632.802
ag2605
aS'utopia'
p2609
aS'#656565'
p2610
aF8.88595
aI0
aI00
aI00
aI01
aI01
aI00
aI00
aI00
aI00
aa(lp2611
I234378
aF333.14925000000005
aF632.802
ag2605
aS'utopia'
p2612
aS'#656565'
p2613
aF8.88595
aI0
aI00
aI00
aI00
aI00
aI00
aI00
aI00
aI00
aa(lp2614
I234378
aF336.72437500000007
aF632.802
ag2605
aS'utopia'
p2615
aS'#656565'
p2616
aF8.88595
aI0
aI00
aI00
aI01
aI01
aI00
aI00
aI00
aI00
aa(lp2617
I85218
aF342.29
aF632.802
aVp3
p2618
aS'utopia'
p2619
aS'#656565'
p2620
aF8.88595
aI0
aI00
aI00
aI00
aI00
aI00
aI00
aI00
aI00
aa(lp2621
I234378
aF359.322
aF632.802
aVp3
p2622
aS'utopia'
p2623
aS'#656565'
p2624
aF8.88595
aI0
aI00
aI00
aI01
aI00
aI00
aI00
aI00
aI00
aa(lp2625
I234378
aF371.075925
aF632.802
ag2622
aS'utopia'
p2626
aS'#656565'
p2627
aF8.88595
aI0
aI00
aI00
aI00
aI00
aI00
aI00
aI00
aI00
aa(lp2628
I234378
aF377.094
aF632.802
aVp3
p2629
aS'utopia'
p2630
aS'#656565'
p2631
aF8.88595
aI0
aI00
aI00
aI00
aI00
aI00
aI00
aI00
aI00
aa(lp2632
I115769
aF381.537
aF632.802
aVp3
p2633
aS'utopia'
p2634
aS'#656565'
p2635
aF8.88595
aI0
aI01
aI00
aI00
aI00
aI00
aI00
aI00
aI00
aa(lp2636
I53202
aF429.669
aF632.802
aVp3
p2637
aS'utopia'
p2638
aS'#656565'
p2639
aF8.88595
aI0
aI01
aI00
aI00
aI00
aI00
aI00
aI00
aI00
aa(lp2640
I144483
aF450.403
aF632.802
aVp3
p2641
aS'utopia'
p2642
aS'#656565'
p2643
aF8.88595
aI0
aI00
aI00
aI00
aI00
aI00
aI00
aI00
aI00
aa(lp2644
I216024
aF462.991
aF632.802
aVp3
p2645
aS'utopia'
p2646
aS'#656565'
p2647
aF8.88595
aI0
aI00
aI00
aI00
aI00
aI00
aI00
aI00
aI00
aa(lp2648
I144489
aF478.541
aF632.802
aVp3
p2649
aS'utopia'
p2650
aS'#656565'
p2651
aF8.88595
aI0
aI00
aI00
aI00
aI00
aI00
aI00
aI00
aI00
aa(lp2652
I21716
aF488.908
aF632.802
aVp3
p2653
aS'utopia'
p2654
aS'#656565'
p2655
aF8.88595
aI0
aI01
aI00
aI00
aI00
aI00
aI00
aI00
aI00
aa(lp2656
I210461
aF40.9084
aF646.871
aVp3
p2657
aS'utopia'
p2658
aS'#656565'
p2659
aF8.88595
aI0
aI01
aI00
aI00
aI00
aI00
aI00
aI00
aI00
aa(lp2660
I340
aF65.3448
aF646.871
aVp3
p2661
aS'utopia'
p2662
aS'#656565'
p2663
aF8.88595
aI0
aI01
aI00
aI00
aI00
aI00
aI00
aI00
aI00
aa(lp2664
I234378
aF79.65472000000001
aF646.871
ag2661
aS'utopia'
p2665
aS'#656565'
p2666
aF8.88595
aI0
aI00
aI00
aI00
aI00
aI00
aI00
aI00
aI00
aa(lp2667
I234378
aF87.5597
aF646.871
aVp3
p2668
aS'utopia'
p2669
aS'#656565'
p2670
aF8.88595
aI0
aI00
aI00
aI01
aI01
aI00
aI00
aI00
aI00
aa(lp2671
I176435
aF40.9084
aF660.94
aVp3
p2672
aS'utopia'
p2673
aS'#656565'
p2674
aF8.88595
aI0
aI01
aI00
aI00
aI00
aI00
aI00
aI00
aI00
aa(lp2675
I234378
aF60.9018
aF660.94
aVp3
p2676
aS'utopia'
p2677
aS'#656565'
p2678
aF8.88595
aI0
aI00
aI00
aI00
aI00
aI00
aI00
aI00
aI00
aa(lp2679
I234378
aF67.5663
aF660.94
aVp3
p2680
aS'utopia'
p2681
aS'#656565'
p2682
aF8.88595
aI0
aI01
aI00
aI00
aI00
aI00
aI00
aI00
aI00
aa(lp2683
I234378
aF74.55463333333333
aF660.94
ag2680
aS'utopia'
p2684
aS'#656565'
p2685
aF8.88595
aI0
aI00
aI00
aI00
aI00
aI00
aI00
aI00
aI00
aa(lp2686
I150037
aF80.1547
aF660.94
aVp3
p2687
aS'utopia'
p2688
aS'#656565'
p2689
aF8.88595
aI0
aI01
aI00
aI00
aI00
aI00
aI00
aI00
aI00
aa(lp2690
I176435
aF40.9084
aF675.01
aVp3
p2691
aS'utopia'
p2692
aS'#656565'
p2693
aF8.88595
aI0
aI01
aI00
aI00
aI00
aI00
aI00
aI00
aI00
aa(lp2694
I66756
aF60.9018
aF675.01
aVp3
p2695
aS'utopia'
p2696
aS'#656565'
p2697
aF8.88595
aI0
aI01
aI00
aI00
aI00
aI00
aI00
aI00
aI00
aa(lp2698
I234378
aF105.12885833333334
aF675.01
ag2695
aS'utopia'
p2699
aS'#656565'
p2700
aF8.88595
aI0
aI00
aI00
aI00
aI00
aI00
aI00
aI00
aI00
aa(lp2701
I234378
aF113.477
aF675.01
aVp3
p2702
aS'utopia'
p2703
aS'#656565'
p2704
aF8.88595
aI0
aI01
aI00
aI00
aI00
aI00
aI00
aI00
aI00
aa(lp2705
I51694
aF162.35
aF675.01
aVp3
p2706
aS'utopia'
p2707
aS'#656565'
p2708
aF8.88595
aI0
aI00
aI00
aI00
aI00
aI00
aI00
aI00
aI00
aa(lp2709
I61195
aF194.191
aF675.01
aVp3
p2710
aS'utopia'
p2711
aS'#656565'
p2712
aF8.88595
aI0
aI00
aI00
aI00
aI00
aI00
aI00
aI00
aI00
aa(lp2713
I234378
aF226.773
aF675.01
aVp3
p2714
aS'utopia'
p2715
aS'#656565'
p2716
aF8.88595
aI0
aI00
aI00
aI00
aI00
aI00
aI00
aI00
aI00
aa(lp2717
I89480
aF257.874
aF675.01
aVp3
p2718
aS'utopia'
p2719
aS'#656565'
p2720
aF8.88595
aI0
aI00
aI00
aI00
aI00
aI00
aI00
aI00
aI00
aa(lp2721
I31142
aF268.241
aF675.01
aVp3
p2722
aS'utopia'
p2723
aS'#656565'
p2724
aF8.88595
aI0
aI00
aI00
aI00
aI00
aI00
aI00
aI00
aI00
aa(lp2725
I230071
aF297.86
aF675.01
aVp3
p2726
aS'utopia'
p2727
aS'#656565'
p2728
aF8.88595
aI0
aI00
aI00
aI00
aI00
aI00
aI00
aI00
aI00
aa(lp2729
I82779
aF317.854
aF675.01
aVp3
p2730
aS'utopia'
p2731
aS'#656565'
p2732
aF8.88595
aI0
aI00
aI00
aI00
aI00
aI00
aI00
aI00
aI00
aa(lp2733
I89480
aF341.55
aF675.01
aVp3
p2734
aS'utopia'
p2735
aS'#656565'
p2736
aF8.88595
aI0
aI00
aI00
aI00
aI00
aI00
aI00
aI00
aI00
aa(lp2737
I112164
aF351.917
aF675.01
aVp3
p2738
aS'utopia'
p2739
aS'#656565'
p2740
aF8.88595
aI0
aI00
aI00
aI00
aI00
aI00
aI00
aI00
aI00
aa(lp2741
I154185
aF374.132
aF675.01
aVp3
p2742
aS'utopia'
p2743
aS'#656565'
p2744
aF8.88595
aI0
aI00
aI00
aI00
aI00
aI00
aI00
aI00
aI00
aa(lp2745
I234378
aF404.492
aF675.01
aVp3
p2746
aS'utopia'
p2747
aS'#656565'
p2748
aF8.88595
aI0
aI00
aI00
aI00
aI00
aI00
aI00
aI00
aI00
aa(lp2749
I234378
aF440.6799272727273
aF675.01
ag2746
aS'utopia'
p2750
aS'#656565'
p2751
aF8.88595
aI0
aI00
aI00
aI00
aI00
aI00
aI00
aI00
aI00
aa(lp2752
I16331
aF445.2034181818182
aF675.01
ag2746
aS'utopia'
p2753
aS'#656565'
p2754
aF8.88595
aI0
aI01
aI00
aI00
aI00
aI00
aI00
aI00
aI00
aa(lp2755
I38609
aF456.327
aF675.01
aVp3
p2756
aS'utopia'
p2757
aS'#656565'
p2758
aF8.88595
aI0
aI00
aI00
aI00
aI00
aI00
aI00
aI00
aI00
aa(lp2759
I144489
aF474.839
aF675.01
aVp3
p2760
aS'utopia'
p2761
aS'#656565'
p2762
aF8.88595
aI0
aI00
aI00
aI00
aI00
aI00
aI00
aI00
aI00
aa(lp2763
I68032
aF485.206
aF675.01
aVp3
p2764
aS'utopia'
p2765
aS'#656565'
p2766
aF8.88595
aI0
aI01
aI00
aI00
aI00
aI00
aI00
aI00
aI00
aa(lp2767
I210461
aF40.9084
aF685.377
aVp3
p2768
aS'utopia'
p2769
aS'#656565'
p2770
aF8.88595
aI0
aI00
aI00
aI00
aI00
aI00
aI00
aI00
aI00
aa(lp2771
I200489
aF63.1233
aF685.377
aVp3
p2772
aS'utopia'
p2773
aS'#656565'
p2774
aF8.88595
aI0
aI00
aI00
aI00
aI00
aI00
aI00
aI00
aI00
aa(lp2775
I234378
aF76.4522
aF685.377
aVp3
p2776
aS'utopia'
p2777
aS'#656565'
p2778
aF8.88595
aI0
aI00
aI00
aI00
aI00
aI00
aI00
aI00
aI00
aa(lp2779
I100065
aF119.401
aF685.377
aVp3
p2780
aS'utopia'
p2781
aS'#656565'
p2782
aF8.88595
aI0
aI00
aI00
aI00
aI00
aI00
aI00
aI00
aI00
aa(lp2783
I234378
aF143.837
aF685.377
aVp3
p2784
aS'utopia'
p2785
aS'#656565'
p2786
aF8.88595
aI0
aI00
aI00
aI00
aI00
aI00
aI00
aI00
aI00
aa(lp2787
I234378
aF186.046
aF685.377
aVp3
p2788
aS'utopia'
p2789
aS'#656565'
p2790
aF8.88595
aI0
aI00
aI00
aI00
aI00
aI00
aI00
aI00
aI00
aa(lp2791
I218914
aF207.52
aF685.377
aVp3
p2792
aS'utopia'
p2793
aS'#656565'
p2794
aF8.88595
aI0
aI00
aI00
aI00
aI00
aI00
aI00
aI00
aI00
aa(lp2795
I31142
aF233.437
aF685.377
aVp3
p2796
aS'utopia'
p2797
aS'#656565'
p2798
aF8.88595
aI0
aI00
aI00
aI00
aI00
aI00
aI00
aI00
aI00
aa(lp2799
I194354
aF263.057
aF685.377
aVp3
p2800
aS'utopia'
p2801
aS'#656565'
p2802
aF8.88595
aI0
aI00
aI00
aI00
aI00
aI00
aI00
aI00
aI00
aa(lp2803
I230071
aF277.867
aF685.377
aVp3
p2804
aS'utopia'
p2805
aS'#656565'
p2806
aF8.88595
aI0
aI00
aI00
aI00
aI00
aI00
aI00
aI00
aI00
aa(lp2807
I82779
aF297.86
aF685.377
aVp3
p2808
aS'utopia'
p2809
aS'#656565'
p2810
aF8.88595
aI0
aI00
aI00
aI00
aI00
aI00
aI00
aI00
aI00
aa(lp2811
I147316
aF321.556
aF685.377
aVp3
p2812
aS'utopia'
p2813
aS'#656565'
p2814
aF8.88595
aI0
aI00
aI00
aI00
aI00
aI00
aI00
aI00
aI00
aa(lp2815
I210461
aF354.879
aF685.377
aVp3
p2816
aS'utopia'
p2817
aS'#656565'
p2818
aF8.88595
aI0
aI00
aI00
aI00
aI00
aI00
aI00
aI00
aI00
aa(lp2819
I89480
aF377.094
aF685.377
aVp3
p2820
aS'utopia'
p2821
aS'#656565'
p2822
aF8.88595
aI0
aI00
aI00
aI00
aI00
aI00
aI00
aI00
aI00
aa(lp2823
I112164
aF387.46
aF685.377
aVp3
p2824
aS'utopia'
p2825
aS'#656565'
p2826
aF8.88595
aI0
aI00
aI00
aI00
aI00
aI00
aI00
aI00
aI00
aa(lp2827
I234378
aF409.675
aF685.377
aVp3
p2828
aS'utopia'
p2829
aS'#656565'
p2830
aF8.88595
aI0
aI00
aI00
aI00
aI00
aI00
aI00
aI00
aI00
aa(lp2831
I234378
aF433.7496625
aF685.377
ag2828
aS'utopia'
p2832
aS'#656565'
p2833
aF8.88595
aI0
aI00
aI00
aI00
aI00
aI00
aI00
aI00
aI00
aa(lp2834
I177958
aF40.9084
aF699.446
aVp3
p2835
aS'utopia'
p2836
aS'#656565'
p2837
aF8.88595
aI0
aI01
aI00
aI00
aI00
aI00
aI00
aI00
aI00
aa(lp2838
I234378
aF71.2688
aF699.446
aVp3
p2839
aS'utopia'
p2840
aS'#656565'
p2841
aF8.88595
aI0
aI01
aI00
aI00
aI00
aI00
aI00
aI00
aI00
aa(lp2842
I234378
aF96.6393375
aF699.446
ag2839
aS'utopia'
p2843
aS'#656565'
p2844
aF8.88595
aI0
aI00
aI00
aI00
aI00
aI00
aI00
aI00
aI00
aa(lp2845
I234378
aF104.591
aF699.446
aVp3
p2846
aS'utopia'
p2847
aS'#656565'
p2848
aF8.88595
aI0
aI01
aI01
aI00
aI00
aI00
aI00
aI00
aI00
aa(lp2849
I137949
aF127.546
aF699.446
aVp3
p2850
aS'utopia'
p2851
aS'#656565'
p2852
aF8.88595
aI0
aI01
aI00
aI00
aI00
aI00
aI00
aI00
aI00
aa(lp2853
I221858
aF148.28
aF699.446
aVp3
p2854
aS'utopia'
p2855
aS'#656565'
p2856
aF8.88595
aI0
aI00
aI00
aI00
aI00
aI00
aI00
aI00
aI00
aa(lp2857
I22474
aF185.305
aF699.446
aVp3
p2858
aS'utopia'
p2859
aS'#656565'
p2860
aF8.88595
aI0
aI00
aI00
aI00
aI00
aI00
aI00
aI00
aI00
aa(lp2861
I17350
aF193.451
aF699.446
aVp3
p2862
aS'utopia'
p2863
aS'#656565'
p2864
aF8.88595
aI0
aI01
aI00
aI00
aI00
aI00
aI00
aI00
aI00
aa(lp2865
I123665
aF213.444
aF699.446
aVp3
p2866
aS'utopia'
p2867
aS'#656565'
p2868
aF8.88595
aI0
aI00
aI00
aI00
aI00
aI00
aI00
aI00
aI00
aa(lp2869
I234378
aF255.634775
aF699.446
ag2866
aS'utopia'
p2870
aS'#656565'
p2871
aF8.88595
aI0
aI00
aI00
aI00
aI00
aI00
aI00
aI00
aI00
aa(lp2872
I218914
aF261.576
aF699.446
aVp3
p2873
aS'utopia'
p2874
aS'#656565'
p2875
aF8.88595
aI0
aI00
aI00
aI00
aI00
aI00
aI00
aI00
aI00
aa(lp2876
I234378
aF287.494
aF699.446
aVp3
p2877
aS'utopia'
p2878
aS'#656565'
p2879
aF8.88595
aI0
aI00
aI00
aI00
aI00
aI00
aI00
aI00
aI00
aa(lp2880
I234378
aF314.151
aF699.446
aVp3
p2881
aS'utopia'
p2882
aS'#656565'
p2883
aF8.88595
aI0
aI01
aI00
aI00
aI00
aI00
aI00
aI00
aI00
aa(lp2884
I234378
aF349.695
aF699.446
aVp3
p2885
aS'utopia'
p2886
aS'#656565'
p2887
aF8.88595
aI0
aI00
aI00
aI00
aI00
aI00
aI00
aI00
aI00
aa(lp2888
I89480
aF372.651
aF699.446
aVp3
p2889
aS'utopia'
p2890
aS'#656565'
p2891
aF8.88595
aI0
aI00
aI00
aI00
aI00
aI00
aI00
aI00
aI00
aa(lp2892
I62807
aF383.018
aF699.446
aVp3
p2893
aS'utopia'
p2894
aS'#656565'
p2895
aF8.88595
aI0
aI00
aI00
aI00
aI00
aI00
aI00
aI00
aI00
aa(lp2896
I2229
aF412.637
aF699.446
aVp3
p2897
aS'utopia'
p2898
aS'#656565'
p2899
aF8.88595
aI0
aI01
aI00
aI00
aI00
aI00
aI00
aI00
aI00
aa(lp2900
I132957
aF442.257
aF699.446
aVp3
p2901
aS'utopia'
p2902
aS'#656565'
p2903
aF8.88595
aI0
aI00
aI00
aI00
aI00
aI00
aI00
aI00
aI00
aa(lp2904
I33705
aF461.51
aF699.446
aVp3
p2905
aS'utopia'
p2906
aS'#656565'
p2907
aF8.88595
aI0
aI00
aI00
aI00
aI00
aI00
aI00
aI00
aI00
aa(lp2908
I19160
aF477.801
aF699.446
aVp3
p2909
aS'utopia'
p2910
aS'#656565'
p2911
aF8.88595
aI0
aI00
aI00
aI00
aI00
aI00
aI00
aI00
aI00
aa(lp2912
I184870
aF508.161
aF699.446
aVp3
p2913
aS'utopia'
p2914
aS'#656565'
p2915
aF8.88595
aI0
aI00
aI00
aI00
aI00
aI00
aI00
aI00
aI00
aa(lp2916
I234378
aF40.9084
aF709.813
aVp3
p2917
aS'utopia'
p2918
aS'#656565'
p2919
aF8.88595
aI0
aI01
aI01
aI00
aI00
aI00
aI00
aI00
aI00
aa(lp2920
I234378
aF48.88406666666667
aF709.813
ag2917
aS'utopia'
p2921
aS'#656565'
p2922
aF8.88595
aI0
aI00
aI00
aI00
aI00
aI00
aI00
aI00
aI00
aa(lp2923
I228218
aF54.9779
aF709.813
aVp3
p2924
aS'utopia'
p2925
aS'#656565'
p2926
aF8.88595
aI0
aI01
aI00
aI00
aI00
aI00
aI00
aI00
aI00
aa(lp2927
I234378
aF80.1547
aF709.813
aVp3
p2928
aS'utopia'
p2929
aS'#656565'
p2930
aF8.88595
aI0
aI00
aI00
aI00
aI00
aI00
aI00
aI00
aI00
aa(lp2931
I115714
aF114.218
aF709.813
aVp3
p2932
aS'utopia'
p2933
aS'#656565'
p2934
aF8.88595
aI0
aI00
aI00
aI00
aI00
aI00
aI00
aI00
aI00
aa(lp2935
I135639
aF141.616
aF709.813
aVp3
p2936
aS'utopia'
p2937
aS'#656565'
p2938
aF8.88595
aI0
aI00
aI00
aI00
aI00
aI00
aI00
aI00
aI00
aa(lp2939
I234378
aF151.242
aF709.813
aVp3
p2940
aS'utopia'
p2941
aS'#656565'
p2942
aF8.88595
aI0
aI01
aI00
aI00
aI00
aI00
aI00
aI00
aI00
aa(lp2943
I234378
aF189.748
aF709.813
aVp3
p2944
aS'utopia'
p2945
aS'#656565'
p2946
aF8.88595
aI0
aI00
aI00
aI00
aI00
aI00
aI00
aI00
aI00
aa(lp2947
I2229
aF194.04625714285714
aF709.813
ag2944
aS'utopia'
p2948
aS'#656565'
p2949
aF8.88595
aI0
aI01
aI00
aI00
aI00
aI00
aI00
aI00
aI00
aa(lp2950
I132957
aF222.33
aF709.813
aVp3
p2951
aS'utopia'
p2952
aS'#656565'
p2953
aF8.88595
aI0
aI01
aI00
aI00
aI00
aI00
aI00
aI00
aI00
aa(lp2954
I48014
aF243.064
aF709.813
aVp3
p2955
aS'utopia'
p2956
aS'#656565'
p2957
aF8.88595
aI0
aI01
aI00
aI00
aI00
aI00
aI00
aI00
aI00
aa(lp2958
I234378
aF283.2704166666667
aF709.813
ag2955
aS'utopia'
p2959
aS'#656565'
p2960
aF8.88595
aI0
aI00
aI00
aI00
aI00
aI00
aI00
aI00
aI00
aa(lp2961
I234378
aF287.29105833333335
aF709.813
ag2955
aS'utopia'
p2962
aS'#656565'
p2963
aF8.88595
aI0
aI00
aI00
aI00
aI00
aI00
aI00
aI00
aI00
aa(lp2964
I85218
aF293.418
aF709.813
aVp3
p2965
aS'utopia'
p2966
aS'#656565'
p2967
aF8.88595
aI0
aI00
aI00
aI00
aI00
aI00
aI00
aI00
aI00
aa(lp2968
I79436
aF310.449
aF709.813
aVp3
p2969
aS'utopia'
p2970
aS'#656565'
p2971
aF8.88595
aI0
aI00
aI00
aI00
aI00
aI00
aI00
aI00
aI00
aa(lp2972
I234378
aF330.442
aF709.813
aVp3
p2973
aS'utopia'
p2974
aS'#656565'
p2975
aF8.88595
aI0
aI00
aI00
aI00
aI00
aI00
aI00
aI00
aI00
aa(lp2976
I234378
aF372.651
aF709.813
aVp3
p2977
aS'utopia'
p2978
aS'#656565'
p2979
aF8.88595
aI0
aI01
aI01
aI00
aI00
aI00
aI00
aI00
aI00
aa(lp2980
I131455
aF397.087
aF709.813
aVp3
p2981
aS'utopia'
p2982
aS'#656565'
p2983
aF8.88595
aI0
aI00
aI00
aI00
aI00
aI00
aI00
aI00
aI00
aa(lp2984
I234378
aF411.897
aF709.813
aVp3
p2985
aS'utopia'
p2986
aS'#656565'
p2987
aF8.88595
aI0
aI00
aI00
aI00
aI00
aI00
aI00
aI00
aI00
aa(lp2988
I85218
aF431.89
aF709.813
aVp3
p2989
aS'utopia'
p2990
aS'#656565'
p2991
aF8.88595
aI0
aI00
aI00
aI00
aI00
aI00
aI00
aI00
aI00
aa(lp2992
I62807
aF448.922
aF709.813
aVp3
p2993
aS'utopia'
p2994
aS'#656565'
p2995
aF8.88595
aI0
aI00
aI00
aI00
aI00
aI00
aI00
aI00
aI00
aa(lp2996
I194354
aF478.541
aF709.813
aVp3
p2997
aS'utopia'
p2998
aS'#656565'
p2999
aF8.88595
aI0
aI00
aI00
aI00
aI00
aI00
aI00
aI00
aI00
aa(lp3000
I141150
aF493.351
aF709.813
aVp3
p3001
aS'utopia'
p3002
aS'#656565'
p3003
aF8.88595
aI0
aI00
aI00
aI00
aI00
aI00
aI00
aI00
aI00
aa(lp3004
I135639
aF516.307
aF709.813
aVp3
p3005
aS'utopia'
p3006
aS'#656565'
p3007
aF8.88595
aI0
aI00
aI00
aI00
aI00
aI00
aI00
aI00
aI00
aa(lp3008
I234378
aF525.933
aF709.813
aVp3
p3009
aS'utopia'
p3010
aS'#656565'
p3011
aF8.88595
aI0
aI01
aI00
aI00
aI00
aI00
aI00
aI00
aI00
aa(lp3012
I234378
aF545.7758333333334
aF709.813
ag3009
aS'utopia'
p3013
aS'#656565'
p3014
aF8.88595
aI0
aI00
aI00
aI00
aI00
aI00
aI00
aI00
aI00
aa(lp3015
I46544
aF40.9084
aF720.18
aVp3
p3016
aS'utopia'
p3017
aS'#656565'
p3018
aF8.88595
aI0
aI01
aI00
aI00
aI00
aI00
aI00
aI00
aI00
aa(lp3019
I234378
aF59.4208
aF720.18
aVp3
p3020
aS'utopia'
p3021
aS'#656565'
p3022
aF8.88595
aI0
aI00
aI00
aI00
aI00
aI00
aI00
aI00
aI00
aa(lp3023
I194354
aF92.7431
aF720.18
aVp3
p3024
aS'utopia'
p3025
aS'#656565'
p3026
aF8.88595
aI0
aI00
aI00
aI00
aI00
aI00
aI00
aI00
aI00
aa(lp3027
I64856
aF107.553
aF720.18
aVp3
p3028
aS'utopia'
p3029
aS'#656565'
p3030
aF8.88595
aI0
aI00
aI00
aI00
aI00
aI00
aI00
aI00
aI00
aa(lp3031
I193644
aF131.249
aF720.18
aVp3
p3032
aS'utopia'
p3033
aS'#656565'
p3034
aF8.88595
aI0
aI00
aI00
aI00
aI00
aI00
aI00
aI00
aI00
aa(lp3035
I89480
aF156.426
aF720.18
aVp3
p3036
aS'utopia'
p3037
aS'#656565'
p3038
aF8.88595
aI0
aI00
aI00
aI00
aI00
aI00
aI00
aI00
aI00
aa(lp3039
I147316
aF166.793
aF720.18
aVp3
p3040
aS'utopia'
p3041
aS'#656565'
p3042
aF8.88595
aI0
aI00
aI00
aI00
aI00
aI00
aI00
aI00
aI00
aa(lp3043
I210461
aF200.115
aF720.18
aVp3
p3044
aS'utopia'
p3045
aS'#656565'
p3046
aF8.88595
aI0
aI00
aI00
aI00
aI00
aI00
aI00
aI00
aI00
aa(lp3047
I234378
aF217.97932
aF720.18
ag3044
aS'utopia'
p3048
aS'#656565'
p3049
aF8.88595
aI0
aI00
aI00
aI00
aI00
aI00
aI00
aI00
aI00
aa(lp3050
I234378
aF224.551
aF720.18
aVp3
p3051
aS'utopia'
p3052
aS'#656565'
p3053
aF8.88595
aI0
aI01
aI00
aI00
aI00
aI00
aI00
aI00
aI00
aa(lp3054
I234378
aF260.095
aF720.18
aVp3
p3055
aS'utopia'
p3056
aS'#656565'
p3057
aF8.88595
aI0
aI00
aI00
aI00
aI00
aI00
aI00
aI00
aI00
aa(lp3058
I229868
aF283.051
aF720.18
aVp3
p3059
aS'utopia'
p3060
aS'#656565'
p3061
aF8.88595
aI0
aI00
aI00
aI00
aI00
aI00
aI00
aI00
aI00
aa(lp3062
I63091
aF295.639
aF720.18
aVp3
p3063
aS'utopia'
p3064
aS'#656565'
p3065
aF8.88595
aI0
aI00
aI00
aI00
aI00
aI00
aI00
aI00
aI00
aa(lp3066
I62551
aF311.189
aF720.18
aVp3
p3067
aS'utopia'
p3068
aS'#656565'
p3069
aF8.88595
aI0
aI00
aI00
aI00
aI00
aI00
aI00
aI00
aI00
aa(lp3070
I68365
aF331.923
aF720.18
aVp3
p3071
aS'utopia'
p3072
aS'#656565'
p3073
aF8.88595
aI0
aI00
aI00
aI00
aI00
aI00
aI00
aI00
aI00
aa(lp3074
I89480
aF359.322
aF720.18
aVp3
p3075
aS'utopia'
p3076
aS'#656565'
p3077
aF8.88595
aI0
aI00
aI00
aI00
aI00
aI00
aI00
aI00
aI00
aa(lp3078
I62807
aF369.689
aF720.18
aVp3
p3079
aS'utopia'
p3080
aS'#656565'
p3081
aF8.88595
aI0
aI00
aI00
aI00
aI00
aI00
aI00
aI00
aI00
aa(lp3082
I135639
aF399.308
aF720.18
aVp3
p3083
aS'utopia'
p3084
aS'#656565'
p3085
aF8.88595
aI0
aI00
aI00
aI00
aI00
aI00
aI00
aI00
aI00
aa(lp3086
I234378
aF408.935
aF720.18
aVp3
p3087
aS'utopia'
p3088
aS'#656565'
p3089
aF8.88595
aI0
aI01
aI00
aI00
aI00
aI00
aI00
aI00
aI00
aa(lp3090
I209548
aF447.441
aF720.18
aVp3
p3091
aS'utopia'
p3092
aS'#656565'
p3093
aF8.88595
aI0
aI00
aI00
aI00
aI00
aI00
aI00
aI00
aI00
aa(lp3094
I234378
aF475.8470444444444
aF720.18
ag3091
aS'utopia'
p3095
aS'#656565'
p3096
aF8.88595
aI0
aI00
aI00
aI00
aI00
aI00
aI00
aI00
aI00
aa(lp3097
I182318
aF481.503
aF720.18
aVp3
p3098
aS'utopia'
p3099
aS'#656565'
p3100
aF8.88595
aI0
aI01
aI00
aI00
aI00
aI00
aI00
aI00
aI00
aa(lp3101
I200489
aF493.351
aF720.18
aVp3
p3102
aS'utopia'
p3103
aS'#656565'
p3104
aF8.88595
aI0
aI00
aI00
aI00
aI00
aI00
aI00
aI00
aI00
aa(lp3105
I234378
aF506.68
aF720.18
aVp3
p3106
aS'utopia'
p3107
aS'#656565'
p3108
aF8.88595
aI0
aI00
aI00
aI00
aI00
aI00
aI00
aI00
aI00
aa(lp3109
I17350
aF40.9084
aF730.547
aVp3
p3110
aS'utopia'
p3111
aS'#656565'
p3112
aF8.88595
aI0
aI00
aI00
aI00
aI00
aI00
aI00
aI00
aI00
aa(lp3113
I123665
aF59.4208
aF730.547
aVp3
p3114
aS'utopia'
p3115
aS'#656565'
p3116
aF8.88595
aI0
aI00
aI00
aI00
aI00
aI00
aI00
aI00
aI00
aa(lp3117
I49630
aF105.332
aF730.547
aVp3
p3118
aS'utopia'
p3119
aS'#656565'
p3120
aF8.88595
aI0
aI00
aI00
aI00
aI00
aI00
aI00
aI00
aI00
aa(lp3121
I147316
aF126.065
aF730.547
aVp3
p3122
aS'utopia'
p3123
aS'#656565'
p3124
aF8.88595
aI0
aI00
aI00
aI00
aI00
aI00
aI00
aI00
aI00
aa(lp3125
I210461
aF159.388
aF730.547
aVp3
p3126
aS'utopia'
p3127
aS'#656565'
p3128
aF8.88595
aI0
aI00
aI00
aI00
aI00
aI00
aI00
aI00
aI00
aa(lp3129
I85218
aF181.603
aF730.547
aVp3
p3130
aS'utopia'
p3131
aS'#656565'
p3132
aF8.88595
aI0
aI00
aI00
aI00
aI00
aI00
aI00
aI00
aI00
aa(lp3133
I234378
aF198.634
aF730.547
aVp3
p3134
aS'utopia'
p3135
aS'#656565'
p3136
aF8.88595
aI0
aI01
aI00
aI00
aI00
aI00
aI00
aI00
aI00
aa(lp3137
I234378
aF234.178
aF730.547
aVp3
p3138
aS'utopia'
p3139
aS'#656565'
p3140
aF8.88595
aI0
aI00
aI00
aI00
aI00
aI00
aI00
aI00
aI00
aa(lp3141
I33705
aF257.133
aF730.547
aVp3
p3142
aS'utopia'
p3143
aS'#656565'
p3144
aF8.88595
aI0
aI00
aI00
aI00
aI00
aI00
aI00
aI00
aI00
aa(lp3145
I203832
aF273.424
aF730.547
aVp3
p3146
aS'utopia'
p3147
aS'#656565'
p3148
aF8.88595
aI0
aI00
aI00
aI00
aI00
aI00
aI00
aI00
aI00
aa(lp3149
I46544
aF288.975
aF730.547
aVp3
p3150
aS'utopia'
p3151
aS'#656565'
p3152
aF8.88595
aI0
aI00
aI00
aI00
aI00
aI00
aI00
aI00
aI00
aa(lp3153
I17350
aF305.265
aF730.547
aVp3
p3154
aS'utopia'
p3155
aS'#656565'
p3156
aF8.88595
aI0
aI00
aI00
aI00
aI00
aI00
aI00
aI00
aI00
aa(lp3157
I234378
aF323.778
aF730.547
aVp3
p3158
aS'utopia'
p3159
aS'#656565'
p3160
aF8.88595
aI0
aI00
aI00
aI00
aI00
aI00
aI00
aI00
aI00
aa(lp3161
I234378
aF336.63817500000005
aF730.547
ag3158
aS'utopia'
p3162
aS'#656565'
p3163
aF8.88595
aI0
aI00
aI00
aI00
aI00
aI00
aI00
aI00
aI00
aa(lp3164
I234378
aF40.9084
aF767.465
aVp3
p3165
aS'utopia'
p3166
aS'#000000'
p3167
aF10.3669
aI1
aI01
aI00
aI00
aI00
aI00
aI00
aI00
aI00
aa(lp3168
I234378
aF83.8572
aF767.465
aVp3
p3169
aS'utopia'
p3170
aS'#000000'
p3171
aF10.3669
aI1
aI01
aI00
aI00
aI00
aI00
aI00
aI00
aI00
aa(lp3172
I234378
aF123.95915000000001
aF767.465
ag3169
aS'utopia'
p3173
aS'#000000'
p3174
aF10.3669
aI1
aI00
aI00
aI00
aI00
aI00
aI00
aI00
aI00
aa(lp3175
I234378
aF131.989
aF767.465
aVp3
p3176
aS'utopia'
p3177
aS'#000000'
p3178
aF10.3669
aI1
aI01
aI00
aI00
aI00
aI00
aI00
aI00
aI00
aa(lp3179
I175678
aF174.938
aF767.465
aVp3
p3180
aS'utopia'
p3181
aS'#000000'
p3182
aF10.3669
aI1
aI01
aI00
aI00
aI00
aI00
aI00
aI00
aI00
aa(lp3183
I234378
aF202.02283333333332
aF767.465
ag3180
aS'utopia'
p3184
aS'#000000'
p3185
aF10.3669
aI1
aI00
aI00
aI00
aI00
aI00
aI00
aI00
aI00
aa(lp3186
I234378
aF209.741
aF767.465
aVp3
p3187
aS'utopia'
p3188
aS'#000000'
p3189
aF10.3669
aI1
aI01
aI00
aI00
aI00
aI00
aI00
aI00
aI00
aa(lp3190
I170799
aF252.69
aF767.465
aVp3
p3191
aS'utopia'
p3192
aS'#000000'
p3193
aF10.3669
aI1
aI01
aI00
aI00
aI00
aI00
aI00
aI00
aI00
aa(lp3194
I153207
aF40.9084
aF784.026
aVp3
p3195
aS'utopia'
p3196
aS'#656565'
p3197
aF10.3669
aI0
aI01
aI00
aI00
aI00
aI00
aI00
aI00
aI00
aa(lp3198
I204917
aF60.9018
aF784.026
aVp3
p3199
aS'utopia'
p3200
aS'#656565'
p3201
aF10.3669
aI0
aI01
aI00
aI00
aI00
aI00
aI00
aI00
aI00
aa(lp3202
I176441
aF91.2621
aF784.026
aVp3
p3203
aS'utopia'
p3204
aS'#656565'
p3205
aF10.3669
aI0
aI01
aI00
aI00
aI00
aI00
aI00
aI00
aI00
aa(lp3206
I229025
aF111.996
aF784.026
aVp3
p3207
aS'utopia'
p3208
aS'#656565'
p3209
aF10.3669
aI0
aI00
aI00
aI00
aI00
aI00
aI00
aI00
aI00
aa(lp3210
I177958
aF129.768
aF784.026
aVp3
p3211
aS'utopia'
p3212
aS'#656565'
p3213
aF10.3669
aI0
aI01
aI00
aI00
aI00
aI00
aI00
aI00
aI00
aa(lp3214
I234378
aF169.014
aF784.026
aVp3
p3215
aS'utopia'
p3216
aS'#656565'
p3217
aF10.3669
aI0
aI01
aI00
aI00
aI00
aI00
aI00
aI00
aI00
aa(lp3218
I60201
aF206.779
aF784.026
aVp3
p3219
aS'utopia'
p3220
aS'#656565'
p3221
aF10.3669
aI0
aI01
aI00
aI00
aI00
aI00
aI00
aI00
aI00
aa(lp3222
I230071
aF226.773
aF784.026
aVp3
p3223
aS'utopia'
p3224
aS'#656565'
p3225
aF10.3669
aI0
aI01
aI00
aI00
aI00
aI00
aI00
aI00
aI00
aa(lp3226
I131049
aF257.874
aF784.026
aVp3
p3227
aS'utopia'
p3228
aS'#656565'
p3229
aF10.3669
aI0
aI00
aI00
aI00
aI00
aI00
aI00
aI00
aI00
aa(lp3230
I234378
aF282.31
aF784.026
aVp3
p3231
aS'utopia'
p3232
aS'#656565'
p3233
aF10.3669
aI0
aI01
aI00
aI00
aI00
aI00
aI00
aI00
aI01
aa(lp3234
I234378
aF301.563
aF784.026
aVp3
p3235
aS'utopia'
p3236
aS'#656565'
p3237
aF10.3669
aI0
aI00
aI00
aI01
aI01
aI01
aI00
aI00
aI00
aa(lp3238
I89480
aF324.518
aF784.026
aVp3
p3239
aS'utopia'
p3240
aS'#656565'
p3241
aF10.3669
aI0
aI00
aI00
aI00
aI00
aI00
aI00
aI00
aI00
aa(lp3242
I234378
aF336.366
aF784.026
aVp3
p3243
aS'utopia'
p3244
aS'#656565'
p3245
aF10.3669
aI0
aI01
aI00
aI00
aI00
aI00
aI00
aI00
aI01
aa(lp3246
I234378
aF355.619
aF784.026
aVp3
p3247
aS'utopia'
p3248
aS'#656565'
p3249
aF10.3669
aI0
aI00
aI00
aI01
aI01
aI01
aI00
aI00
aI00
aa(lp3250
I175678
aF40.9084
aF800.317
aVp3
p3251
aS'utopia'
p3252
aS'#656565'
p3253
aF10.3669
aI0
aI01
aI00
aI00
aI00
aI00
aI00
aI00
aI00
aa(lp3254
I234378
aF67.24656666666667
aF800.317
ag3251
aS'utopia'
p3255
aS'#656565'
p3256
aF10.3669
aI0
aI00
aI00
aI00
aI00
aI00
aI00
aI00
aI00
aa(lp3257
I105146
aF74.9712
aF800.317
aVp3
p3258
aS'utopia'
p3259
aS'#656565'
p3260
aF10.3669
aI0
aI01
aI00
aI00
aI00
aI00
aI00
aI00
aI00
aa(lp3261
I234378
aF113.6412125
aF800.317
ag3258
aS'utopia'
p3262
aS'#656565'
p3263
aF10.3669
aI0
aI00
aI00
aI00
aI00
aI00
aI00
aI00
aI00
aa(lp3264
I234378
aF121.622
aF800.317
aVp3
p3265
aS'utopia'
p3266
aS'#656565'
p3267
aF10.3669
aI0
aI01
aI00
aI00
aI00
aI00
aI00
aI00
aI00
aa(lp3268
I109610
aF40.9084
aF31.5189
aVp4
p3269
aS'utopia'
p3270
aS'#656565'
p3271
aF8.88595
aI0
aI01
aI00
aI00
aI00
aI00
aI00
aI00
aI00
aa(lp3272
I25729
aF58.6803
aF31.5189
aVp4
p3273
aS'utopia'
p3274
aS'#656565'
p3275
aF8.88595
aI0
aI01
aI00
aI00
aI00
aI00
aI00
aI00
aI00
aa(lp3276
I234378
aF76.54462000000001
aF31.5189
ag3273
aS'utopia'
p3277
aS'#656565'
p3278
aF8.88595
aI0
aI00
aI00
aI00
aI00
aI00
aI00
aI00
aI00
aa(lp3279
I21716
aF85.3382
aF31.5189
aVp4
p3280
aS'utopia'
p3281
aS'#656565'
p3282
aF8.88595
aI0
aI01
aI00
aI00
aI00
aI00
aI00
aI00
aI00
aa(lp3283
I234378
aF100.24052
aF31.5189
ag3280
aS'utopia'
p3284
aS'#656565'
p3285
aF8.88595
aI0
aI00
aI00
aI00
aI00
aI00
aI00
aI00
aI00
aa(lp3286
I234378
aF106.072
aF31.5189
aVp4
p3287
aS'utopia'
p3288
aS'#656565'
p3289
aF8.88595
aI0
aI01
aI01
aI01
aI00
aI00
aI00
aI00
aI00
aa(lp3290
I234378
aF122.15912
aF31.5189
ag3287
aS'utopia'
p3291
aS'#656565'
p3292
aF8.88595
aI0
aI00
aI00
aI00
aI00
aI00
aI00
aI00
aI00
aa(lp3293
I234378
aF128.287
aF31.5189
aVp4
p3294
aS'utopia'
p3295
aS'#656565'
p3296
aF8.88595
aI0
aI01
aI01
aI00
aI00
aI00
aI00
aI00
aI00
aa(lp3297
I234378
aF147.33612
aF31.5189
ag3294
aS'utopia'
p3298
aS'#656565'
p3299
aF8.88595
aI0
aI00
aI00
aI00
aI00
aI00
aI00
aI00
aI00
aa(lp3300
I234378
aF154.204
aF31.5189
aVp4
p3301
aS'utopia'
p3302
aS'#656565'
p3303
aF8.88595
aI0
aI01
aI00
aI00
aI00
aI00
aI00
aI00
aI00
aa(lp3304
I234378
aF177.9
aF31.5189
aVp4
p3305
aS'utopia'
p3306
aS'#656565'
p3307
aF8.88595
aI0
aI00
aI00
aI00
aI00
aI00
aI00
aI00
aI00
aa(lp3308
I234378
aF183.084
aF31.5189
aVp4
p3309
aS'utopia'
p3310
aS'#656565'
p3311
aF8.88595
aI0
aI01
aI00
aI00
aI00
aI00
aI00
aI00
aI00
aa(lp3312
I234378
aF220.108
aF31.5189
aVp4
p3313
aS'utopia'
p3314
aS'#656565'
p3315
aF8.88595
aI0
aI00
aI00
aI00
aI00
aI00
aI00
aI00
aI00
aa(lp3316
I234378
aF224.551
aF31.5189
aVp4
p3317
aS'utopia'
p3318
aS'#656565'
p3319
aF8.88595
aI0
aI01
aI00
aI00
aI00
aI00
aI00
aI00
aI00
aa(lp3320
I85218
aF265.279
aF31.5189
aVp4
p3321
aS'utopia'
p3322
aS'#656565'
p3323
aF8.88595
aI0
aI00
aI00
aI00
aI00
aI00
aI00
aI00
aI00
aa(lp3324
I167810
aF282.31
aF31.5189
aVp4
p3325
aS'utopia'
p3326
aS'#656565'
p3327
aF8.88595
aI0
aI01
aI00
aI00
aI00
aI00
aI00
aI00
aI00
aa(lp3328
I234378
aF308.227
aF31.5189
aVp4
p3329
aS'utopia'
p3330
aS'#656565'
p3331
aF8.88595
aI0
aI01
aI00
aI00
aI00
aI00
aI00
aI00
aI00
aa(lp3332
I234378
aF338.8417333333333
aF31.5189
ag3329
aS'utopia'
p3333
aS'#656565'
p3334
aF8.88595
aI0
aI00
aI00
aI00
aI00
aI00
aI00
aI00
aI00
aa(lp3335
I234378
aF343.21526666666665
aF31.5189
ag3329
aS'utopia'
p3336
aS'#656565'
p3337
aF8.88595
aI0
aI00
aI00
aI00
aI00
aI00
aI00
aI00
aI00
aa(lp3338
I234378
aF349.695
aF31.5189
aVp4
p3339
aS'utopia'
p3340
aS'#656565'
p3341
aF8.88595
aI0
aI01
aI00
aI00
aI00
aI00
aI00
aI00
aI00
aa(lp3342
I154254
aF373.391
aF31.5189
aVp4
p3343
aS'utopia'
p3344
aS'#656565'
p3345
aF8.88595
aI0
aI01
aI00
aI00
aI00
aI00
aI00
aI00
aI00
aa(lp3346
I234378
aF425.226
aF31.5189
aVp4
p3347
aS'utopia'
p3348
aS'#656565'
p3349
aF8.88595
aI0
aI00
aI00
aI00
aI00
aI00
aI00
aI00
aI00
aa(lp3350
I234378
aF428.801125
aF31.5189
ag3347
aS'utopia'
p3351
aS'#656565'
p3352
aF8.88595
aI0
aI00
aI00
aI01
aI01
aI00
aI00
aI00
aI00
aa(lp3353
I234378
aF432.37625
aF31.5189
ag3347
aS'utopia'
p3354
aS'#656565'
p3355
aF8.88595
aI0
aI00
aI00
aI00
aI00
aI00
aI00
aI00
aI00
aa(lp3356
I234378
aF435.95137500000004
aF31.5189
ag3347
aS'utopia'
p3357
aS'#656565'
p3358
aF8.88595
aI0
aI00
aI00
aI01
aI01
aI00
aI00
aI00
aI00
aa(lp3359
I85218
aF441.517
aF31.5189
aVp4
p3360
aS'utopia'
p3361
aS'#656565'
p3362
aF8.88595
aI0
aI00
aI00
aI00
aI00
aI00
aI00
aI00
aI00
aa(lp3363
I234378
aF458.548
aF31.5189
aVp4
p3364
aS'utopia'
p3365
aS'#656565'
p3366
aF8.88595
aI0
aI00
aI00
aI01
aI00
aI00
aI00
aI00
aI00
aa(lp3367
I234378
aF470.301925
aF31.5189
ag3364
aS'utopia'
p3368
aS'#656565'
p3369
aF8.88595
aI0
aI00
aI00
aI00
aI00
aI00
aI00
aI00
aI00
aa(lp3370
I234378
aF476.32
aF31.5189
aVp4
p3371
aS'utopia'
p3372
aS'#656565'
p3373
aF8.88595
aI0
aI00
aI00
aI00
aI00
aI00
aI00
aI00
aI00
aa(lp3374
I115769
aF480.763
aF31.5189
aVp4
p3375
aS'utopia'
p3376
aS'#656565'
p3377
aF8.88595
aI0
aI01
aI00
aI00
aI00
aI00
aI00
aI00
aI00
aa(lp3378
I53202
aF528.895
aF31.5189
aVp4
p3379
aS'utopia'
p3380
aS'#656565'
p3381
aF8.88595
aI0
aI01
aI00
aI00
aI00
aI00
aI00
aI00
aI00
aa(lp3382
I144483
aF40.9084
aF41.8859
aVp4
p3383
aS'utopia'
p3384
aS'#656565'
p3385
aF8.88595
aI0
aI00
aI00
aI00
aI00
aI00
aI00
aI00
aI00
aa(lp3386
I216024
aF53.4969
aF41.8859
aVp4
p3387
aS'utopia'
p3388
aS'#656565'
p3389
aF8.88595
aI0
aI00
aI00
aI00
aI00
aI00
aI00
aI00
aI00
aa(lp3390
I144489
aF69.0473
aF41.8859
aVp4
p3391
aS'utopia'
p3392
aS'#656565'
p3393
aF8.88595
aI0
aI00
aI00
aI00
aI00
aI00
aI00
aI00
aI00
aa(lp3394
I21716
aF79.4142
aF41.8859
aVp4
p3395
aS'utopia'
p3396
aS'#656565'
p3397
aF8.88595
aI0
aI01
aI00
aI00
aI00
aI00
aI00
aI00
aI00
aa(lp3398
I210461
aF40.9084
aF55.9553
aVp4
p3399
aS'utopia'
p3400
aS'#656565'
p3401
aF8.88595
aI0
aI01
aI00
aI00
aI00
aI00
aI00
aI00
aI00
aa(lp3402
I340
aF65.3448
aF55.9553
aVp4
p3403
aS'utopia'
p3404
aS'#656565'
p3405
aF8.88595
aI0
aI01
aI00
aI00
aI00
aI00
aI00
aI00
aI00
aa(lp3406
I234378
aF79.65472000000001
aF55.9553
ag3403
aS'utopia'
p3407
aS'#656565'
p3408
aF8.88595
aI0
aI00
aI00
aI00
aI00
aI00
aI00
aI00
aI00
aa(lp3409
I234378
aF87.5597
aF55.9553
aVp4
p3410
aS'utopia'
p3411
aS'#656565'
p3412
aF8.88595
aI0
aI00
aI00
aI01
aI01
aI00
aI00
aI00
aI00
aa(lp3413
I176435
aF40.9084
aF70.0247
aVp4
p3414
aS'utopia'
p3415
aS'#656565'
p3416
aF8.88595
aI0
aI01
aI00
aI00
aI00
aI00
aI00
aI00
aI00
aa(lp3417
I234378
aF60.9018
aF70.0247
aVp4
p3418
aS'utopia'
p3419
aS'#656565'
p3420
aF8.88595
aI0
aI00
aI00
aI00
aI00
aI00
aI00
aI00
aI00
aa(lp3421
I150037
aF67.5663
aF70.0247
aVp4
p3422
aS'utopia'
p3423
aS'#656565'
p3424
aF8.88595
aI0
aI01
aI00
aI00
aI00
aI00
aI00
aI00
aI00
aa(lp3425
I176435
aF40.9084
aF84.0941
aVp4
p3426
aS'utopia'
p3427
aS'#656565'
p3428
aF8.88595
aI0
aI01
aI00
aI00
aI00
aI00
aI00
aI00
aI00
aa(lp3429
I66756
aF60.9018
aF84.0941
aVp4
p3430
aS'utopia'
p3431
aS'#656565'
p3432
aF8.88595
aI0
aI01
aI00
aI00
aI00
aI00
aI00
aI00
aI00
aa(lp3433
I234378
aF105.12885833333334
aF84.0941
ag3430
aS'utopia'
p3434
aS'#656565'
p3435
aF8.88595
aI0
aI00
aI00
aI00
aI00
aI00
aI00
aI00
aI00
aa(lp3436
I234378
aF119.401
aF84.0941
aVp4
p3437
aS'utopia'
p3438
aS'#656565'
p3439
aF8.88595
aI0
aI01
aI00
aI00
aI00
aI00
aI00
aI00
aI00
aa(lp3440
I85218
aF153.464
aF84.0941
aVp4
p3441
aS'utopia'
p3442
aS'#656565'
p3443
aF8.88595
aI0
aI00
aI00
aI00
aI00
aI00
aI00
aI00
aI00
aa(lp3444
I234378
aF170.495
aF84.0941
aVp4
p3445
aS'utopia'
p3446
aS'#656565'
p3447
aF8.88595
aI0
aI00
aI00
aI00
aI00
aI00
aI00
aI00
aI00
aa(lp3448
I234378
aF214.925
aF84.0941
aVp4
p3449
aS'utopia'
p3450
aS'#656565'
p3451
aF8.88595
aI0
aI01
aI00
aI00
aI00
aI00
aI00
aI00
aI00
aa(lp3452
I234378
aF248.247
aF84.0941
aVp4
p3453
aS'utopia'
p3454
aS'#656565'
p3455
aF8.88595
aI0
aI00
aI00
aI00
aI00
aI00
aI00
aI00
aI00
aa(lp3456
I169745
aF293.418
aF84.0941
aVp4
p3457
aS'utopia'
p3458
aS'#656565'
p3459
aF8.88595
aI0
aI00
aI00
aI00
aI00
aI00
aI00
aI00
aI00
aa(lp3460
I25931
aF312.67
aF84.0941
aVp4
p3461
aS'utopia'
p3462
aS'#656565'
p3463
aF8.88595
aI0
aI00
aI00
aI00
aI00
aI00
aI00
aI00
aI00
aa(lp3464
I85218
aF336.366
aF84.0941
aVp4
p3465
aS'utopia'
p3466
aS'#656565'
p3467
aF8.88595
aI0
aI00
aI00
aI00
aI00
aI00
aI00
aI00
aI00
aa(lp3468
I202216
aF353.398
aF84.0941
aVp4
p3469
aS'utopia'
p3470
aS'#656565'
p3471
aF8.88595
aI0
aI00
aI00
aI00
aI00
aI00
aI00
aI00
aI00
aa(lp3472
I96295
aF405.232
aF84.0941
aVp4
p3473
aS'utopia'
p3474
aS'#656565'
p3475
aF8.88595
aI0
aI00
aI00
aI00
aI00
aI00
aI00
aI00
aI00
aa(lp3476
I172977
aF444.479
aF84.0941
aVp4
p3477
aS'utopia'
p3478
aS'#656565'
p3479
aF8.88595
aI0
aI00
aI00
aI00
aI00
aI00
aI00
aI00
aI00
aa(lp3480
I8691
aF478.541
aF84.0941
aVp4
p3481
aS'utopia'
p3482
aS'#656565'
p3483
aF8.88595
aI0
aI00
aI00
aI00
aI00
aI00
aI00
aI00
aI00
aa(lp3484
I174268
aF505.94
aF84.0941
aVp4
p3485
aS'utopia'
p3486
aS'#656565'
p3487
aF8.88595
aI0
aI00
aI00
aI00
aI00
aI00
aI00
aI00
aI00
aa(lp3488
I234378
aF40.9084
aF94.4611
aVp4
p3489
aS'utopia'
p3490
aS'#656565'
p3491
aF8.88595
aI0
aI00
aI00
aI00
aI00
aI00
aI00
aI00
aI00
aa(lp3492
I177958
aF40.9084
aF108.531
aVp4
p3493
aS'utopia'
p3494
aS'#656565'
p3495
aF8.88595
aI0
aI01
aI00
aI00
aI00
aI00
aI00
aI00
aI00
aa(lp3496
I234378
aF71.2688
aF108.531
aVp4
p3497
aS'utopia'
p3498
aS'#656565'
p3499
aF8.88595
aI0
aI01
aI00
aI00
aI00
aI00
aI00
aI00
aI00
aa(lp3500
I234378
aF96.6393375
aF108.531
ag3497
aS'utopia'
p3501
aS'#656565'
p3502
aF8.88595
aI0
aI00
aI00
aI00
aI00
aI00
aI00
aI00
aI00
aa(lp3503
I153207
aF104.591
aF108.531
aVp4
p3504
aS'utopia'
p3505
aS'#656565'
p3506
aF8.88595
aI0
aI01
aI00
aI00
aI00
aI00
aI00
aI00
aI00
aa(lp3507
I204917
aF122.363
aF108.531
aVp4
p3508
aS'utopia'
p3509
aS'#656565'
p3510
aF8.88595
aI0
aI01
aI00
aI00
aI00
aI00
aI00
aI00
aI00
aa(lp3511
I176441
aF148.28
aF108.531
aVp4
p3512
aS'utopia'
p3513
aS'#656565'
p3514
aF8.88595
aI0
aI00
aI00
aI00
aI00
aI00
aI00
aI00
aI00
aa(lp3515
I229025
aF163.831
aF108.531
aVp4
p3516
aS'utopia'
p3517
aS'#656565'
p3518
aF8.88595
aI0
aI00
aI00
aI00
aI00
aI00
aI00
aI00
aI00
aa(lp3519
I22474
aF179.381
aF108.531
aVp4
p3520
aS'utopia'
p3521
aS'#656565'
p3522
aF8.88595
aI0
aI00
aI00
aI00
aI00
aI00
aI00
aI00
aI00
aa(lp3523
I166593
aF187.527
aF108.531
aVp4
p3524
aS'utopia'
p3525
aS'#656565'
p3526
aF8.88595
aI0
aI00
aI00
aI00
aI00
aI00
aI00
aI00
aI00
aa(lp3527
I166245
aF194.191
aF108.531
aVp4
p3528
aS'utopia'
p3529
aS'#656565'
p3530
aF8.88595
aI0
aI01
aI00
aI00
aI00
aI00
aI00
aI00
aI00
aa(lp3531
I196174
aF230.475
aF108.531
aVp4
p3532
aS'utopia'
p3533
aS'#656565'
p3534
aF8.88595
aI0
aI01
aI00
aI00
aI00
aI00
aI00
aI00
aI00
aa(lp3535
I77936
aF294.899
aF108.531
aVp4
p3536
aS'utopia'
p3537
aS'#656565'
p3538
aF8.88595
aI0
aI01
aI00
aI00
aI00
aI00
aI00
aI00
aI00
aa(lp3539
I234378
aF330.32462
aF108.531
ag3536
aS'utopia'
p3540
aS'#656565'
p3541
aF8.88595
aI0
aI00
aI00
aI00
aI00
aI00
aI00
aI00
aI00
aa(lp3542
I37654
aF336.366
aF108.531
aVp4
p3543
aS'utopia'
p3544
aS'#656565'
p3545
aF8.88595
aI0
aI00
aI00
aI00
aI00
aI00
aI00
aI00
aI00
aa(lp3546
I234378
aF363.024
aF108.531
aVp4
p3547
aS'utopia'
p3548
aS'#656565'
p3549
aF8.88595
aI0
aI01
aI00
aI00
aI00
aI00
aI00
aI00
aI00
aa(lp3550
I200640
aF402.27
aF108.531
aVp4
p3551
aS'utopia'
p3552
aS'#656565'
p3553
aF8.88595
aI0
aI00
aI00
aI00
aI00
aI00
aI00
aI00
aI00
aa(lp3554
I166245
aF457.067
aF108.531
aVp4
p3555
aS'utopia'
p3556
aS'#656565'
p3557
aF8.88595
aI0
aI00
aI00
aI00
aI00
aI00
aI00
aI00
aI00
aa(lp3558
I22474
aF492.611
aF108.531
aVp4
p3559
aS'utopia'
p3560
aS'#656565'
p3561
aF8.88595
aI0
aI00
aI00
aI00
aI00
aI00
aI00
aI00
aI00
aa(lp3562
I234378
aF500.756
aF108.531
aVp4
p3563
aS'utopia'
p3564
aS'#656565'
p3565
aF8.88595
aI0
aI00
aI00
aI00
aI00
aI00
aI00
aI00
aI00
aa(lp3566
I89480
aF40.9084
aF118.897
aVp4
p3567
aS'utopia'
p3568
aS'#656565'
p3569
aF8.88595
aI0
aI00
aI00
aI00
aI00
aI00
aI00
aI00
aI00
aa(lp3570
I234378
aF51.2754
aF118.897
aVp4
p3571
aS'utopia'
p3572
aS'#656565'
p3573
aF8.88595
aI0
aI01
aI00
aI00
aI00
aI00
aI00
aI00
aI00
aa(lp3574
I167810
aF74.9712
aF118.897
aVp4
p3575
aS'utopia'
p3576
aS'#656565'
p3577
aF8.88595
aI0
aI01
aI00
aI00
aI00
aI00
aI00
aI00
aI00
aa(lp3578
I14859
aF100.889
aF118.897
aVp4
p3579
aS'utopia'
p3580
aS'#656565'
p3581
aF8.88595
aI0
aI01
aI00
aI00
aI00
aI00
aI00
aI00
aI00
aa(lp3582
I169745
aF135.692
aF118.897
aVp4
p3583
aS'utopia'
p3584
aS'#656565'
p3585
aF8.88595
aI0
aI00
aI00
aI00
aI00
aI00
aI00
aI00
aI00
aa(lp3586
I234378
aF154.945
aF118.897
aVp4
p3587
aS'utopia'
p3588
aS'#656565'
p3589
aF8.88595
aI0
aI01
aI01
aI00
aI00
aI00
aI00
aI00
aI00
aa(lp3590
I117093
aF174.198
aF118.897
aVp4
p3591
aS'utopia'
p3592
aS'#656565'
p3593
aF8.88595
aI0
aI00
aI00
aI00
aI00
aI00
aI00
aI00
aI00
aa(lp3594
I153177
aF202.337
aF118.897
aVp4
p3595
aS'utopia'
p3596
aS'#656565'
p3597
aF8.88595
aI0
aI00
aI00
aI00
aI00
aI00
aI00
aI00
aI00
aa(lp3598
I234378
aF256.393
aF118.897
aVp4
p3599
aS'utopia'
p3600
aS'#656565'
p3601
aF8.88595
aI0
aI00
aI00
aI00
aI00
aI00
aI00
aI00
aI00
aa(lp3602
I234378
aF296.88872727272724
aF118.897
ag3599
aS'utopia'
p3603
aS'#656565'
p3604
aF8.88595
aI0
aI00
aI00
aI00
aI00
aI00
aI00
aI00
aI00
aa(lp3605
I16331
aF303.044
aF118.897
aVp4
p3606
aS'utopia'
p3607
aS'#656565'
p3608
aF8.88595
aI0
aI01
aI00
aI00
aI00
aI00
aI00
aI00
aI00
aa(lp3609
I38609
aF314.892
aF118.897
aVp4
p3610
aS'utopia'
p3611
aS'#656565'
p3612
aF8.88595
aI0
aI00
aI00
aI00
aI00
aI00
aI00
aI00
aI00
aa(lp3613
I144489
aF333.404
aF118.897
aVp4
p3614
aS'utopia'
p3615
aS'#656565'
p3616
aF8.88595
aI0
aI00
aI00
aI00
aI00
aI00
aI00
aI00
aI00
aa(lp3617
I194354
aF343.771
aF118.897
aVp4
p3618
aS'utopia'
p3619
aS'#656565'
p3620
aF8.88595
aI0
aI00
aI00
aI00
aI00
aI00
aI00
aI00
aI00
aa(lp3621
I4863
aF358.581
aF118.897
aVp4
p3622
aS'utopia'
p3623
aS'#656565'
p3624
aF8.88595
aI0
aI00
aI00
aI00
aI00
aI00
aI00
aI00
aI00
aa(lp3625
I234378
aF395.03763636363635
aF118.897
ag3622
aS'utopia'
p3626
aS'#656565'
p3627
aF8.88595
aI0
aI00
aI00
aI00
aI00
aI00
aI00
aI00
aI00
aa(lp3628
I175619
aF400.789
aF118.897
aVp4
p3629
aS'utopia'
p3630
aS'#656565'
p3631
aF8.88595
aI0
aI00
aI00
aI00
aI00
aI00
aI00
aI00
aI00
aa(lp3632
I98580
aF420.042
aF118.897
aVp4
p3633
aS'utopia'
p3634
aS'#656565'
p3635
aF8.88595
aI0
aI00
aI00
aI00
aI00
aI00
aI00
aI00
aI00
aa(lp3636
I234378
aF462.251
aF118.897
aVp4
p3637
aS'utopia'
p3638
aS'#656565'
p3639
aF8.88595
aI0
aI00
aI00
aI00
aI00
aI00
aI00
aI00
aI00
aa(lp3640
I48647
aF491.87
aF118.897
aVp4
p3641
aS'utopia'
p3642
aS'#656565'
p3643
aF8.88595
aI0
aI00
aI00
aI00
aI00
aI00
aI00
aI00
aI00
aa(lp3644
I234378
aF40.9084
aF129.264
aVp4
p3645
aS'utopia'
p3646
aS'#656565'
p3647
aF8.88595
aI0
aI01
aI00
aI00
aI00
aI00
aI00
aI00
aI00
aa(lp3648
I234378
aF73.922
aF129.264
ag3645
aS'utopia'
p3649
aS'#656565'
p3650
aF8.88595
aI0
aI00
aI00
aI00
aI00
aI00
aI00
aI00
aI00
aa(lp3651
I234378
aF80.1547
aF129.264
aVp4
p3652
aS'utopia'
p3653
aS'#656565'
p3654
aF8.88595
aI0
aI01
aI00
aI00
aI00
aI00
aI00
aI00
aI00
aa(lp3655
I85218
aF126.065
aF129.264
aVp4
p3656
aS'utopia'
p3657
aS'#656565'
p3658
aF8.88595
aI0
aI00
aI00
aI00
aI00
aI00
aI00
aI00
aI00
aa(lp3659
I234378
aF143.097
aF129.264
aVp4
p3660
aS'utopia'
p3661
aS'#656565'
p3662
aF8.88595
aI0
aI01
aI01
aI00
aI00
aI00
aI00
aI00
aI00
aa(lp3663
I234378
aF163.09
aF129.264
aVp4
p3664
aS'utopia'
p3665
aS'#656565'
p3666
aF8.88595
aI0
aI00
aI00
aI00
aI00
aI00
aI00
aI00
aI00
aa(lp3667
I120218
aF167.74953333333335
aF129.264
ag3664
aS'utopia'
p3668
aS'#656565'
p3669
aF8.88595
aI0
aI01
aI00
aI00
aI00
aI00
aI00
aI00
aI00
aa(lp3670
I165584
aF207.52
aF129.264
aVp4
p3671
aS'utopia'
p3672
aS'#656565'
p3673
aF8.88595
aI0
aI01
aI00
aI00
aI00
aI00
aI00
aI00
aI00
aa(lp3674
I234378
aF250.469
aF129.264
aVp4
p3675
aS'utopia'
p3676
aS'#656565'
p3677
aF8.88595
aI0
aI01
aI00
aI00
aI00
aI00
aI00
aI00
aI00
aa(lp3678
I234378
aF275.96154285714283
aF129.264
ag3675
aS'utopia'
p3679
aS'#656565'
p3680
aF8.88595
aI0
aI00
aI00
aI00
aI00
aI00
aI00
aI00
aI00
aa(lp3681
I85218
aF282.31
aF129.264
aVp4
p3682
aS'utopia'
p3683
aS'#656565'
p3684
aF8.88595
aI0
aI00
aI00
aI00
aI00
aI00
aI00
aI00
aI00
aa(lp3685
I234378
aF299.341
aF129.264
aVp4
p3686
aS'utopia'
p3687
aS'#656565'
p3688
aF8.88595
aI0
aI01
aI00
aI00
aI00
aI00
aI00
aI00
aI00
aa(lp3689
I22476
aF323.037
aF129.264
aVp4
p3690
aS'utopia'
p3691
aS'#656565'
p3692
aF8.88595
aI0
aI01
aI01
aI00
aI00
aI00
aI00
aI00
aI00
aa(lp3693
I142554
aF333.404
aF129.264
aVp4
p3694
aS'utopia'
p3695
aS'#656565'
p3696
aF8.88595
aI0
aI00
aI00
aI00
aI00
aI00
aI00
aI00
aI00
aa(lp3697
I85218
aF383.018
aF129.264
aVp4
p3698
aS'utopia'
p3699
aS'#656565'
p3700
aF8.88595
aI0
aI00
aI00
aI00
aI00
aI00
aI00
aI00
aI00
aa(lp3701
I147316
aF400.049
aF129.264
aVp4
p3702
aS'utopia'
p3703
aS'#656565'
p3704
aF8.88595
aI0
aI00
aI00
aI00
aI00
aI00
aI00
aI00
aI00
aa(lp3705
I234378
aF433.371
aF129.264
aVp4
p3706
aS'utopia'
p3707
aS'#656565'
p3708
aF8.88595
aI0
aI00
aI00
aI00
aI00
aI00
aI00
aI00
aI00
aa(lp3709
I84932
aF459.289
aF129.264
aVp4
p3710
aS'utopia'
p3711
aS'#656565'
p3712
aF8.88595
aI0
aI00
aI00
aI00
aI00
aI00
aI00
aI00
aI00
aa(lp3713
I59806
aF474.099
aF129.264
aVp4
p3714
aS'utopia'
p3715
aS'#656565'
p3716
aF8.88595
aI0
aI00
aI00
aI00
aI00
aI00
aI00
aI00
aI00
aa(lp3717
I89480
aF508.902
aF129.264
aVp4
p3718
aS'utopia'
p3719
aS'#656565'
p3720
aF8.88595
aI0
aI00
aI00
aI00
aI00
aI00
aI00
aI00
aI00
aa(lp3721
I179418
aF519.269
aF129.264
aVp4
p3722
aS'utopia'
p3723
aS'#656565'
p3724
aF8.88595
aI0
aI00
aI00
aI00
aI00
aI00
aI00
aI00
aI00
aa(lp3725
I16329
aF40.9084
aF139.631
aVp4
p3726
aS'utopia'
p3727
aS'#656565'
p3728
aF8.88595
aI0
aI00
aI00
aI00
aI00
aI00
aI00
aI00
aI00
aa(lp3729
I64620
aF52.7564
aF139.631
aVp4
p3730
aS'utopia'
p3731
aS'#656565'
p3732
aF8.88595
aI0
aI01
aI01
aI00
aI00
aI00
aI00
aI00
aI00
aa(lp3733
I200640
aF58.489423076923075
aF139.631
ag3730
aS'utopia'
p3734
aS'#656565'
p3735
aF8.88595
aI0
aI01
aI00
aI00
aI00
aI00
aI00
aI00
aI00
aa(lp3736
I14859
aF116.439
aF139.631
aVp4
p3737
aS'utopia'
p3738
aS'#656565'
p3739
aF8.88595
aI0
aI00
aI00
aI00
aI00
aI00
aI00
aI00
aI00
aa(lp3740
I89480
aF150.502
aF139.631
aVp4
p3741
aS'utopia'
p3742
aS'#656565'
p3743
aF8.88595
aI0
aI00
aI00
aI00
aI00
aI00
aI00
aI00
aI00
aa(lp3744
I234378
aF160.869
aF139.631
aVp4
p3745
aS'utopia'
p3746
aS'#656565'
p3747
aF8.88595
aI0
aI01
aI00
aI00
aI00
aI00
aI00
aI00
aI00
aa(lp3748
I143502
aF200.115
aF139.631
aVp4
p3749
aS'utopia'
p3750
aS'#656565'
p3751
aF8.88595
aI0
aI01
aI00
aI00
aI00
aI00
aI00
aI00
aI00
aa(lp3752
I200640
aF233.437
aF139.631
aVp4
p3753
aS'utopia'
p3754
aS'#656565'
p3755
aF8.88595
aI0
aI01
aI00
aI00
aI00
aI00
aI00
aI00
aI00
aa(lp3756
I166245
aF288.234
aF139.631
aVp4
p3757
aS'utopia'
p3758
aS'#656565'
p3759
aF8.88595
aI0
aI01
aI00
aI00
aI00
aI00
aI00
aI00
aI00
aa(lp3760
I112275
aF324.518
aF139.631
aVp4
p3761
aS'utopia'
p3762
aS'#656565'
p3763
aF8.88595
aI0
aI01
aI00
aI00
aI00
aI00
aI00
aI00
aI00
aa(lp3764
I234378
aF340.01271999999994
aF139.631
ag3761
aS'utopia'
p3765
aS'#656565'
p3766
aF8.88595
aI0
aI00
aI00
aI00
aI00
aI00
aI00
aI00
aI00
aa(lp3767
I234378
aF345.993
aF139.631
aVp4
p3768
aS'utopia'
p3769
aS'#656565'
p3770
aF8.88595
aI0
aI01
aI00
aI00
aI00
aI00
aI00
aI00
aI00
aa(lp3771
I22474
aF369.689
aF139.631
aVp4
p3772
aS'utopia'
p3773
aS'#656565'
p3774
aF8.88595
aI0
aI00
aI00
aI00
aI00
aI00
aI00
aI00
aI00
aa(lp3775
I234378
aF377.834
aF139.631
aVp4
p3776
aS'utopia'
p3777
aS'#656565'
p3778
aF8.88595
aI0
aI00
aI00
aI00
aI00
aI00
aI00
aI00
aI00
aa(lp3779
I169745
aF432.631
aF139.631
aVp4
p3780
aS'utopia'
p3781
aS'#656565'
p3782
aF8.88595
aI0
aI00
aI00
aI00
aI00
aI00
aI00
aI00
aI00
aa(lp3783
I162759
aF451.884
aF139.631
aVp4
p3784
aS'utopia'
p3785
aS'#656565'
p3786
aF8.88595
aI0
aI00
aI00
aI00
aI00
aI00
aI00
aI00
aI00
aa(lp3787
I141687
aF491.13
aF139.631
aVp4
p3788
aS'utopia'
p3789
aS'#656565'
p3790
aF8.88595
aI0
aI00
aI00
aI00
aI00
aI00
aI00
aI00
aI00
aa(lp3791
I89480
aF536.3
aF139.631
aVp4
p3792
aS'utopia'
p3793
aS'#656565'
p3794
aF8.88595
aI0
aI00
aI00
aI00
aI00
aI00
aI00
aI00
aI00
aa(lp3795
I234378
aF40.9084
aF149.998
aVp4
p3796
aS'utopia'
p3797
aS'#656565'
p3798
aF8.88595
aI0
aI01
aI00
aI00
aI00
aI00
aI00
aI00
aI00
aa(lp3799
I86755
aF80.1547
aF149.998
aVp4
p3800
aS'utopia'
p3801
aS'#656565'
p3802
aF8.88595
aI0
aI01
aI01
aI00
aI00
aI00
aI00
aI00
aI00
aa(lp3803
I234378
aF97.9266
aF149.998
aVp4
p3804
aS'utopia'
p3805
aS'#656565'
p3806
aF8.88595
aI0
aI00
aI00
aI00
aI00
aI00
aI00
aI00
aI00
aa(lp3807
I234378
aF127.184675
aF149.998
ag3804
aS'utopia'
p3808
aS'#656565'
p3809
aF8.88595
aI0
aI00
aI00
aI00
aI00
aI00
aI00
aI00
aI00
aa(lp3810
I234378
aF133.47
aF149.998
aVp4
p3811
aS'utopia'
p3812
aS'#656565'
p3813
aF8.88595
aI0
aI01
aI01
aI00
aI00
aI00
aI00
aI00
aI00
aa(lp3814
I117093
aF152.723
aF149.998
aVp4
p3815
aS'utopia'
p3816
aS'#656565'
p3817
aF8.88595
aI0
aI00
aI00
aI00
aI00
aI00
aI00
aI00
aI00
aa(lp3818
I153177
aF180.862
aF149.998
aVp4
p3819
aS'utopia'
p3820
aS'#656565'
p3821
aF8.88595
aI0
aI00
aI00
aI00
aI00
aI00
aI00
aI00
aI00
aa(lp3822
I234378
aF234.918
aF149.998
aVp4
p3823
aS'utopia'
p3824
aS'#656565'
p3825
aF8.88595
aI0
aI00
aI00
aI00
aI00
aI00
aI00
aI00
aI00
aa(lp3826
I234378
aF268.0087272727273
aF149.998
ag3823
aS'utopia'
p3827
aS'#656565'
p3828
aF8.88595
aI0
aI00
aI00
aI00
aI00
aI00
aI00
aI00
aI00
aa(lp3829
I234378
aF273.424
aF149.998
aVp4
p3830
aS'utopia'
p3831
aS'#656565'
p3832
aF8.88595
aI0
aI01
aI00
aI00
aI00
aI00
aI00
aI00
aI00
aa(lp3833
I234378
aF315.2660909090909
aF149.998
ag3830
aS'utopia'
p3834
aS'#656565'
p3835
aF8.88595
aI0
aI00
aI00
aI00
aI00
aI00
aI00
aI00
aI00
aa(lp3836
I22476
aF321.556
aF149.998
aVp4
p3837
aS'utopia'
p3838
aS'#656565'
p3839
aF8.88595
aI0
aI01
aI01
aI00
aI00
aI00
aI00
aI00
aI00
aa(lp3840
I147316
aF331.923
aF149.998
aVp4
p3841
aS'utopia'
p3842
aS'#656565'
p3843
aF8.88595
aI0
aI00
aI00
aI00
aI00
aI00
aI00
aI00
aI00
aa(lp3844
I210461
aF365.246
aF149.998
aVp4
p3845
aS'utopia'
p3846
aS'#656565'
p3847
aF8.88595
aI0
aI00
aI00
aI00
aI00
aI00
aI00
aI00
aI00
aa(lp3848
I85218
aF387.46
aF149.998
aVp4
p3849
aS'utopia'
p3850
aS'#656565'
p3851
aF8.88595
aI0
aI00
aI00
aI00
aI00
aI00
aI00
aI00
aI00
aa(lp3852
I234378
aF404.492
aF149.998
aVp4
p3853
aS'utopia'
p3854
aS'#656565'
p3855
aF8.88595
aI0
aI01
aI01
aI00
aI00
aI00
aI00
aI00
aI00
aa(lp3856
I234378
aF424.485
aF149.998
aVp4
p3857
aS'utopia'
p3858
aS'#656565'
p3859
aF8.88595
aI0
aI00
aI00
aI00
aI00
aI00
aI00
aI00
aI00
aa(lp3860
I84932
aF454.105
aF149.998
aVp4
p3861
aS'utopia'
p3862
aS'#656565'
p3863
aF8.88595
aI0
aI00
aI00
aI00
aI00
aI00
aI00
aI00
aI00
aa(lp3864
I234378
aF468.915
aF149.998
aVp4
p3865
aS'utopia'
p3866
aS'#656565'
p3867
aF8.88595
aI0
aI00
aI00
aI00
aI00
aI00
aI00
aI00
aI00
aa(lp3868
I89480
aF507.421
aF149.998
aVp4
p3869
aS'utopia'
p3870
aS'#656565'
p3871
aF8.88595
aI0
aI00
aI00
aI00
aI00
aI00
aI00
aI00
aI00
aa(lp3872
I147316
aF517.788
aF149.998
aVp4
p3873
aS'utopia'
p3874
aS'#656565'
p3875
aF8.88595
aI0
aI00
aI00
aI00
aI00
aI00
aI00
aI00
aI00
aa(lp3876
I234378
aF40.9084
aF160.365
aVp4
p3877
aS'utopia'
p3878
aS'#656565'
p3879
aF8.88595
aI0
aI01
aI00
aI00
aI00
aI00
aI00
aI00
aI00
aa(lp3880
I37936
aF80.1547
aF160.365
aVp4
p3881
aS'utopia'
p3882
aS'#656565'
p3883
aF8.88595
aI0
aI00
aI00
aI00
aI00
aI00
aI00
aI00
aI00
aa(lp3884
I200640
aF114.218
aF160.365
aVp4
p3885
aS'utopia'
p3886
aS'#656565'
p3887
aF8.88595
aI0
aI00
aI00
aI00
aI00
aI00
aI00
aI00
aI00
aa(lp3888
I166245
aF169.014
aF160.365
aVp4
p3889
aS'utopia'
p3890
aS'#656565'
p3891
aF8.88595
aI0
aI00
aI00
aI00
aI00
aI00
aI00
aI00
aI00
aa(lp3892
I234378
aF200.71115555555556
aF160.365
ag3889
aS'utopia'
p3893
aS'#656565'
p3894
aF8.88595
aI0
aI00
aI00
aI00
aI00
aI00
aI00
aI00
aI00
aa(lp3895
I177271
aF40.1679
aF203.332
aVp4
p3896
aS'utopia'
p3897
aS'#02304b'
p3898
aF11.8479
aI1
aI01
aI00
aI00
aI00
aI00
aI00
aI00
aI00
aa(lp3899
I234378
aF74.2307
aF203.332
aVp4
p3900
aS'utopia'
p3901
aS'#02304b'
p3902
aF11.8479
aI1
aI01
aI00
aI00
aI00
aI00
aI00
aI00
aI00
aa(lp3903
I7520
aF49.0539
aF232.827
aVp4
p3904
aS'utopia'
p3905
aS'#656565'
p3906
aF10.3669
aI1
aI01
aI00
aI00
aI00
aI00
aI00
aI00
aI00
aa(lp3907
I10865
aF93.4836
aF232.827
aVp4
p3908
aS'utopia'
p3909
aS'#656565'
p3910
aF10.3669
aI1
aI01
aI00
aI00
aI00
aI00
aI00
aI00
aI00
aa(lp3911
I132955
aF49.0539
aF248.484
aVp4
p3912
aS'utopia'
p3913
aS'#656565'
p3914
aF8.88595
aI0
aI01
aI00
aI00
aI00
aI00
aI00
aI00
aI00
aa(lp3915
I144489
aF69.7878
aF248.484
aVp4
p3916
aS'utopia'
p3917
aS'#656565'
p3918
aF8.88595
aI0
aI00
aI00
aI00
aI00
aI00
aI00
aI00
aI00
aa(lp3919
I132529
aF80.1547
aF248.484
aVp4
p3920
aS'utopia'
p3921
aS'#656565'
p3922
aF8.88595
aI0
aI01
aI00
aI00
aI00
aI00
aI00
aI00
aI00
aa(lp3923
I234378
aF98.76336666666667
aF248.484
ag3920
aS'utopia'
p3924
aS'#656565'
p3925
aF8.88595
aI0
aI00
aI00
aI00
aI00
aI00
aI00
aI00
aI00
aa(lp3926
I234378
aF104.591
aF248.484
aVp4
p3927
aS'utopia'
p3928
aS'#434343'
p3929
aF8.88595
aI0
aI00
aI00
aI01
aI01
aI01
aI00
aI00
aI00
aa(lp3930
I234378
aF115.699
aF248.484
aVp4
p3931
aS'utopia'
p3932
aS'#434343'
p3933
aF8.88595
aI0
aI01
aI00
aI00
aI00
aI00
aI00
aI00
aI01
aa(lp3934
I234378
aF128.287
aF248.484
aVp4
p3935
aS'utopia'
p3936
aS'#434343'
p3937
aF8.88595
aI0
aI00
aI00
aI01
aI01
aI01
aI00
aI00
aI00
aa(lp3938
I108944
aF49.0539
aF264.035
aVp4
p3939
aS'utopia'
p3940
aS'#656565'
p3941
aF8.88595
aI0
aI01
aI00
aI00
aI00
aI00
aI00
aI00
aI00
aa(lp3942
I234378
aF76.44544285714287
aF264.035
ag3939
aS'utopia'
p3943
aS'#656565'
p3944
aF8.88595
aI0
aI00
aI00
aI00
aI00
aI00
aI00
aI00
aI00
aa(lp3945
I104428
aF83.1167
aF264.035
aVp4
p3946
aS'utopia'
p3947
aS'#434343'
p3948
aF8.88595
aI0
aI01
aI00
aI00
aI00
aI00
aI00
aI00
aI00
aa(lp3949
I212271
aF49.0539
aF279.585
aVp4
p3950
aS'utopia'
p3951
aS'#656565'
p3952
aF8.88595
aI0
aI01
aI00
aI00
aI00
aI00
aI00
aI00
aI00
aa(lp3953
I12510
aF79.4142
aF279.585
aVp4
p3954
aS'utopia'
p3955
aS'#656565'
p3956
aF8.88595
aI0
aI01
aI00
aI00
aI00
aI00
aI00
aI00
aI00
aa(lp3957
I234378
aF101.72811428571428
aF279.585
ag3954
aS'utopia'
p3958
aS'#656565'
p3959
aF8.88595
aI0
aI00
aI00
aI00
aI00
aI00
aI00
aI00
aI00
aa(lp3960
I118865
aF107.553
aF279.585
aVp4
p3961
aS'utopia'
p3962
aS'#434343'
p3963
aF8.88595
aI0
aI01
aI00
aI00
aI00
aI00
aI00
aI00
aI00
aa(lp3964
I234378
aF133.68768749999998
aF279.585
ag3961
aS'utopia'
p3965
aS'#434343'
p3966
aF8.88595
aI0
aI00
aI00
aI00
aI00
aI00
aI00
aI00
aI00
aa(lp3967
I136874
aF138.04346875
aF279.585
ag3961
aS'utopia'
p3968
aS'#434343'
p3969
aF8.88595
aI0
aI00
aI00
aI00
aI00
aI00
aI00
aI00
aI00
aa(lp3970
I118366
aF49.0539
aF299.472
aVp4
p3971
aS'utopia'
p3972
aS'#656565'
p3973
aF10.3669
aI1
aI01
aI00
aI00
aI00
aI00
aI00
aI00
aI00
aa(lp3974
I234378
aF83.97235
aF299.472
ag3971
aS'utopia'
p3975
aS'#656565'
p3976
aF10.3669
aI1
aI00
aI00
aI00
aI00
aI00
aI00
aI00
aI00
aa(lp3977
I63091
aF49.0539
aF312.167
aVp4
p3978
aS'utopia'
p3979
aS'#000000'
p3980
aF8.88595
aI0
aI01
aI00
aI00
aI00
aI00
aI00
aI00
aI00
aa(lp3981
I234378
aF66.0853
aF312.167
aVp4
p3982
aS'utopia'
p3983
aS'#000000'
p3984
aF8.88595
aI0
aI01
aI00
aI00
aI00
aI00
aI00
aI00
aI00
aa(lp3985
I182663
aF49.0539
aF325.496
aVp4
p3986
aS'utopia'
p3987
aS'#656565'
p3988
aF8.88595
aI0
aI01
aI00
aI00
aI00
aI00
aI00
aI00
aI00
aa(lp3989
I82279
aF76.4522
aF325.496
aVp4
p3990
aS'utopia'
p3991
aS'#656565'
p3992
aF8.88595
aI0
aI01
aI00
aI00
aI00
aI00
aI00
aI00
aI00
aa(lp3993
I234378
aF96.09372
aF325.496
ag3990
aS'utopia'
p3994
aS'#656565'
p3995
aF8.88595
aI0
aI00
aI00
aI00
aI00
aI00
aI00
aI00
aI00
aa(lp3996
I63091
aF103.11
aF325.496
aVp4
p3997
aS'utopia'
p3998
aS'#000000'
p3999
aF8.88595
aI0
aI01
aI00
aI00
aI00
aI00
aI00
aI00
aI00
aa(lp4000
I234378
aF120.141
aF325.496
aVp4
p4001
aS'utopia'
p4002
aS'#000000'
p4003
aF8.88595
aI0
aI01
aI00
aI00
aI00
aI00
aI00
aI00
aI00
aa(lp4004
I234378
aF301.563
aF141.853
aVp1
p4005
aS'utopia'
p4006
aS'#000000'
p4007
aF8.88595
aI0
aI00
aI00
aI01
aI01
aI01
aI00
aI00
aI00
aa(lp4008
I16915
aF308.227
aF176.656
aVp1
p4009
aS'utopia'
p4010
aS'#878787'
p4011
aF8.88595
aI0
aI01
aI00
aI00
aI00
aI00
aI00
aI00
aI00
aa(lp4012
I60220
aF330.442
aF176.656
aVp1
p4013
aS'utopia'
p4014
aS'#878787'
p4015
aF8.88595
aI0
aI01
aI00
aI00
aI00
aI00
aI00
aI00
aI00
aa(lp4016
I234378
aF372.28409090909093
aF176.656
ag4013
aS'utopia'
p4017
aS'#878787'
p4018
aF8.88595
aI0
aI00
aI00
aI00
aI00
aI00
aI00
aI00
aI00
aa(lp4019
I234378
aF380.796
aF176.656
aVp1
p4020
aS'utopia'
p4021
aS'#000000'
p4022
aF8.88595
aI0
aI00
aI00
aI01
aI01
aI00
aI00
aI00
aI00
aa(lp4023
I91136
aF387.46
aF176.656
aVp1
p4024
aS'utopia'
p4025
aS'#000000'
p4026
aF8.88595
aI0
aI01
aI00
aI00
aI00
aI00
aI00
aI00
aI00
aa(lp4027
I234378
aF403.18559999999997
aF176.656
ag4024
aS'utopia'
p4028
aS'#000000'
p4029
aF8.88595
aI0
aI00
aI00
aI00
aI00
aI00
aI00
aI00
aI00
aa(lp4030
I59734
aF407.11699999999996
aF176.656
ag4024
aS'utopia'
p4031
aS'#000000'
p4032
aF8.88595
aI0
aI00
aI00
aI00
aI00
aI00
aI00
aI00
aI00
aa(lp4033
I234378
aF411.04839999999996
aF176.656
ag4024
aS'utopia'
p4034
aS'#000000'
p4035
aF8.88595
aI0
aI00
aI00
aI00
aI00
aI00
aI00
aI00
aI00
aa(lp4036
I234378
aF417.08
aF176.656
aVp1
p4037
aS'utopia'
p4038
aS'#000000'
p4039
aF8.88595
aI0
aI00
aI00
aI01
aI01
aI01
aI00
aI00
aI00
aa(lp4040
I63729
aF428.188
aF176.656
aVp1
p4041
aS'utopia'
p4042
aS'#000000'
p4043
aF8.88595
aI0
aI01
aI00
aI00
aI00
aI00
aI00
aI00
aI00
aa(lp4044
I234378
aF450.9415625
aF176.656
ag4041
aS'utopia'
p4045
aS'#000000'
p4046
aF8.88595
aI0
aI00
aI00
aI00
aI00
aI00
aI00
aI00
aI00
aa(lp4047
I59734
aF455.49227499999995
aF176.656
ag4041
aS'utopia'
p4048
aS'#000000'
p4049
aF8.88595
aI0
aI00
aI00
aI00
aI00
aI00
aI00
aI00
aI00
aa(lp4050
I234378
aF460.0429874999999
aF176.656
ag4041
aS'utopia'
p4051
aS'#000000'
p4052
aF8.88595
aI0
aI00
aI00
aI00
aI00
aI00
aI00
aI00
aI00
aa(lp4053
I229300
aF308.227
aF194.428
aVp1
p4054
aS'utopia'
p4055
aS'#878787'
p4056
aF8.88595
aI0
aI01
aI00
aI00
aI00
aI00
aI00
aI00
aI00
aa(lp4057
I78894
aF338.588
aF194.428
aVp1
p4058
aS'utopia'
p4059
aS'#878787'
p4060
aF8.88595
aI0
aI01
aI00
aI00
aI00
aI00
aI00
aI00
aI00
aa(lp4061
I234378
aF360.9019142857143
aF194.428
ag4058
aS'utopia'
p4062
aS'#878787'
p4063
aF8.88595
aI0
aI00
aI00
aI00
aI00
aI00
aI00
aI00
aI00
aa(lp4064
I234378
aF368.948
aF194.428
aVp1
p4065
aS'utopia'
p4066
aS'#000000'
p4067
aF8.88595
aI0
aI01
aI00
aI00
aI00
aI00
aI00
aI00
aI00
aa(lp4068
I234378
aF380.796
aF194.428
aVp1
p4069
aS'utopia'
p4070
aS'#000000'
p4071
aF8.88595
aI0
aI00
aI00
aI01
aI01
aI00
aI00
aI00
aI00
aa(lp4072
I234378
aF384.5755
aF194.428
ag4069
aS'utopia'
p4073
aS'#000000'
p4074
aF8.88595
aI0
aI00
aI00
aI00
aI00
aI00
aI00
aI00
aI00
aa(lp4075
I234378
aF388.35499999999996
aF194.428
ag4069
aS'utopia'
p4076
aS'#000000'
p4077
aF8.88595
aI0
aI00
aI00
aI01
aI01
aI00
aI00
aI00
aI00
aa(lp4078
I234378
aF394.125
aF194.428
aVp1
p4079
aS'utopia'
p4080
aS'#000000'
p4081
aF8.88595
aI0
aI01
aI00
aI00
aI00
aI00
aI00
aI00
aI00
aa(lp4082
I234378
aF308.227
aF212.2
aVp1
p4083
aS'utopia'
p4084
aS'#878787'
p4085
aF8.88595
aI0
aI01
aI00
aI00
aI00
aI00
aI00
aI00
aI00
aa(lp4086
I234378
aF346.733
aF212.2
aVp1
p4087
aS'utopia'
p4088
aS'#878787'
p4089
aF8.88595
aI0
aI01
aI01
aI00
aI00
aI00
aI00
aI00
aI00
aa(lp4090
I234378
aF361.2593
aF212.2
ag4087
aS'utopia'
p4091
aS'#878787'
p4092
aF8.88595
aI0
aI00
aI00
aI00
aI00
aI00
aI00
aI00
aI00
aa(lp4093
I63091
aF370.429
aF212.2
aVp1
p4094
aS'utopia'
p4095
aS'#000000'
p4096
aF8.88595
aI0
aI01
aI00
aI00
aI00
aI00
aI00
aI00
aI00
aa(lp4097
I234378
aF387.46
aF212.2
aVp1
p4098
aS'utopia'
p4099
aS'#000000'
p4100
aF8.88595
aI0
aI01
aI00
aI00
aI00
aI00
aI00
aI00
aI00
aa(lp4101
I7204
aF308.227
aF229.972
aVp1
p4102
aS'utopia'
p4103
aS'#878787'
p4104
aF8.88595
aI0
aI01
aI00
aI00
aI00
aI00
aI00
aI00
aI00
aa(lp4105
I189220
aF340.809
aF229.972
aVp1
p4106
aS'utopia'
p4107
aS'#878787'
p4108
aF8.88595
aI0
aI01
aI00
aI00
aI00
aI00
aI00
aI00
aI00
aa(lp4109
I234378
aF366.93111428571433
aF229.972
ag4106
aS'utopia'
p4110
aS'#878787'
p4111
aF8.88595
aI0
aI00
aI00
aI00
aI00
aI00
aI00
aI00
aI00
aa(lp4112
I234378
aF375.613
aF229.972
aVp1
p4113
aS'utopia'
p4114
aS'#000000'
p4115
aF8.88595
aI0
aI01
aI01
aI00
aI00
aI00
aI00
aI00
aI00
aa(lp4116
I57983
aF389.682
aF229.972
aVp1
p4117
aS'utopia'
p4118
aS'#000000'
p4119
aF8.88595
aI0
aI01
aI00
aI00
aI00
aI00
aI00
aI00
aI00
aa(lp4120
I48671
aF308.227
aF247.744
aVp1
p4121
aS'utopia'
p4122
aS'#878787'
p4123
aF8.88595
aI0
aI01
aI00
aI00
aI00
aI00
aI00
aI00
aI00
aa(lp4124
I129688
aF336.366
aF247.744
aVp1
p4125
aS'utopia'
p4126
aS'#878787'
p4127
aF8.88595
aI0
aI00
aI00
aI00
aI00
aI00
aI00
aI00
aI00
aa(lp4128
I234378
aF360.58405714285715
aF247.744
ag4125
aS'utopia'
p4129
aS'#878787'
p4130
aF8.88595
aI0
aI00
aI00
aI00
aI00
aI00
aI00
aI00
aI00
aa(lp4131
I230771
aF368.948
aF247.744
aVp1
p4132
aS'utopia'
p4133
aS'#000000'
p4134
aF8.88595
aI0
aI01
aI00
aI00
aI00
aI00
aI00
aI00
aI00
aa(lp4135
I48671
aF400.049
aF247.744
aVp1
p4136
aS'utopia'
p4137
aS'#000000'
p4138
aF8.88595
aI0
aI01
aI00
aI00
aI00
aI00
aI00
aI00
aI00
aa(lp4139
I129688
aF428.188
aF247.744
aVp1
p4140
aS'utopia'
p4141
aS'#000000'
p4142
aF8.88595
aI0
aI01
aI00
aI00
aI00
aI00
aI00
aI00
aI00
aa(lp4143
I86794
aF292.677
aF231.346
aVp4
p4144
aS'utopia'
p4145
aS'#656565'
p4146
aF10.3669
aI1
aI01
aI00
aI00
aI00
aI00
aI00
aI00
aI00
aa(lp4147
I131455
aF331.183
aF231.346
aVp4
p4148
aS'utopia'
p4149
aS'#656565'
p4150
aF10.3669
aI1
aI01
aI00
aI00
aI00
aI00
aI00
aI00
aI00
aa(lp4151
I234378
aF348.955
aF231.346
aVp4
p4152
aS'utopia'
p4153
aS'#656565'
p4154
aF10.3669
aI1
aI01
aI00
aI00
aI00
aI00
aI00
aI00
aI00
aa(lp4155
I131455
aF292.677
aF247.003
aVp4
p4156
aS'utopia'
p4157
aS'#656565'
p4158
aF8.88595
aI0
aI01
aI00
aI00
aI00
aI00
aI00
aI00
aI00
aa(lp4159
I197416
aF308.227
aF247.003
aVp4
p4160
aS'utopia'
p4161
aS'#656565'
p4162
aF8.88595
aI0
aI01
aI00
aI00
aI00
aI00
aI00
aI00
aI00
aa(lp4163
I234378
aF325.49892
aF247.003
ag4160
aS'utopia'
p4164
aS'#656565'
p4165
aF8.88595
aI0
aI00
aI00
aI00
aI00
aI00
aI00
aI00
aI00
aa(lp4166
I28425
aF331.923
aF247.003
aVp4
p4167
aS'utopia'
p4168
aS'#434343'
p4169
aF8.88595
aI0
aI01
aI00
aI00
aI00
aI00
aI00
aI00
aI00
aa(lp4170
I234378
aF377.834
aF247.003
aVp4
p4171
aS'utopia'
p4172
aS'#434343'
p4173
aF8.88595
aI0
aI00
aI00
aI00
aI00
aI00
aI00
aI00
aI00
aa(lp4174
I137944
aF382.3888636363636
aF247.003
ag4171
aS'utopia'
p4175
aS'#434343'
p4176
aF8.88595
aI0
aI01
aI00
aI00
aI00
aI00
aI00
aI00
aI00
aa(lp4177
I234378
aF413.3826363636363
aF247.003
ag4171
aS'utopia'
p4178
aS'#434343'
p4179
aF8.88595
aI0
aI00
aI00
aI00
aI00
aI00
aI00
aI00
aI00
aa(lp4180
I42298
aF427.93749999999994
aF247.003
ag4171
aS'utopia'
p4181
aS'#434343'
p4182
aF8.88595
aI0
aI01
aI00
aI00
aI00
aI00
aI00
aI00
aI00
aa(lp4183
I72722
aF292.677
aF262.554
aVp4
p4184
aS'utopia'
p4185
aS'#656565'
p4186
aF8.88595
aI0
aI01
aI00
aI00
aI00
aI00
aI00
aI00
aI00
aa(lp4187
I12510
aF345.993
aF262.554
aVp4
p4188
aS'utopia'
p4189
aS'#656565'
p4190
aF8.88595
aI0
aI01
aI00
aI00
aI00
aI00
aI00
aI00
aI00
aa(lp4191
I234378
aF368.3069142857143
aF262.554
ag4188
aS'utopia'
p4192
aS'#656565'
p4193
aF8.88595
aI0
aI00
aI00
aI00
aI00
aI00
aI00
aI00
aI00
aa(lp4194
I60201
aF374.132
aF262.554
aVp4
p4195
aS'utopia'
p4196
aS'#434343'
p4197
aF8.88595
aI0
aI01
aI00
aI00
aI00
aI00
aI00
aI00
aI00
aa(lp4198
I230071
aF391.163
aF262.554
aVp4
p4199
aS'utopia'
p4200
aS'#434343'
p4201
aF8.88595
aI0
aI01
aI00
aI00
aI00
aI00
aI00
aI00
aI00
aa(lp4202
I234378
aF413.378
aF262.554
aVp4
p4203
aS'utopia'
p4204
aS'#434343'
p4205
aF8.88595
aI0
aI00
aI00
aI00
aI00
aI00
aI00
aI00
aI00
aa(lp4206
I38609
aF420.042
aF262.554
aVp4
p4207
aS'utopia'
p4208
aS'#434343'
p4209
aF8.88595
aI0
aI01
aI00
aI00
aI00
aI00
aI00
aI00
aI00
aa(lp4210
I230071
aF438.555
aF262.554
aVp4
p4211
aS'utopia'
p4212
aS'#434343'
p4213
aF8.88595
aI0
aI01
aI00
aI00
aI00
aI00
aI00
aI00
aI00
aa(lp4214
I51933
aF292.677
aF282.44
aVp4
p4215
aS'utopia'
p4216
aS'#656565'
p4217
aF10.3669
aI1
aI01
aI00
aI00
aI00
aI00
aI00
aI00
aI00
aa(lp4218
I62768
aF320.816
aF282.44
aVp4
p4219
aS'utopia'
p4220
aS'#656565'
p4221
aF10.3669
aI1
aI01
aI00
aI00
aI00
aI00
aI00
aI00
aI00
aa(lp4222
I31679
aF292.677
aF298.097
aVp4
p4223
aS'utopia'
p4224
aS'#656565'
p4225
aF8.88595
aI0
aI01
aI01
aI00
aI00
aI00
aI00
aI00
aI00
aa(lp4226
I51933
aF306.006
aF298.097
aVp4
p4227
aS'utopia'
p4228
aS'#656565'
p4229
aF8.88595
aI0
aI01
aI00
aI00
aI00
aI00
aI00
aI00
aI00
aa(lp4230
I12510
aF329.702
aF298.097
aVp4
p4231
aS'utopia'
p4232
aS'#656565'
p4233
aF8.88595
aI0
aI01
aI00
aI00
aI00
aI00
aI00
aI00
aI00
aa(lp4234
I234378
aF352.0159142857143
aF298.097
ag4231
aS'utopia'
p4235
aS'#656565'
p4236
aF8.88595
aI0
aI00
aI00
aI00
aI00
aI00
aI00
aI00
aI00
aa(lp4237
I63091
aF357.841
aF298.097
aVp4
p4238
aS'utopia'
p4239
aS'#434343'
p4240
aF8.88595
aI0
aI01
aI00
aI00
aI00
aI00
aI00
aI00
aI00
aa(lp4241
I234378
aF374.872
aF298.097
aVp4
p4242
aS'utopia'
p4243
aS'#434343'
p4244
aF8.88595
aI0
aI01
aI00
aI00
aI00
aI00
aI00
aI00
aI00
aa(lp4245
I234378
aF292.677
aF313.648
aVp4
p4246
aS'utopia'
p4247
aS'#656565'
p4248
aF8.88595
aI0
aI01
aI00
aI00
aI00
aI00
aI00
aI00
aI00
aa(lp4249
I234378
aF329.43552
aF313.648
ag4246
aS'utopia'
p4250
aS'#656565'
p4251
aF8.88595
aI0
aI00
aI00
aI00
aI00
aI00
aI00
aI00
aI00
aa(lp4252
I63091
aF335.626
aF313.648
aVp4
p4253
aS'utopia'
p4254
aS'#434343'
p4255
aF8.88595
aI0
aI01
aI00
aI00
aI00
aI00
aI00
aI00
aI00
aa(lp4256
I234378
aF352.657
aF313.648
aVp4
p4257
aS'utopia'
p4258
aS'#434343'
p4259
aF8.88595
aI0
aI01
aI00
aI00
aI00
aI00
aI00
aI00
aI00
aa(lp4260
I166771
aF292.677
aF333.535
aVp4
p4261
aS'utopia'
p4262
aS'#656565'
p4263
aF10.3669
aI1
aI01
aI00
aI00
aI00
aI00
aI00
aI00
aI00
aa(lp4264
I74833
aF348.955
aF333.535
aVp4
p4265
aS'utopia'
p4266
aS'#656565'
p4267
aF10.3669
aI1
aI01
aI00
aI00
aI00
aI00
aI00
aI00
aI00
aa(lp4268
I233758
aF292.677
aF349.192
aVp4
p4269
aS'utopia'
p4270
aS'#656565'
p4271
aF8.88595
aI0
aI01
aI00
aI00
aI00
aI00
aI00
aI00
aI00
aa(lp4272
I234378
aF326.3488222222222
aF349.192
ag4269
aS'utopia'
p4273
aS'#656565'
p4274
aF8.88595
aI0
aI00
aI00
aI00
aI00
aI00
aI00
aI00
aI00
aa(lp4275
I230332
aF332.664
aF349.192
aVp4
p4276
aS'utopia'
p4277
aS'#434343'
p4278
aF8.88595
aI0
aI01
aI00
aI00
aI00
aI00
aI00
aI00
aI00
aa(lp4279
I151511
aF292.677
aF364.742
aVp4
p4280
aS'utopia'
p4281
aS'#656565'
p4282
aF8.88595
aI0
aI01
aI00
aI00
aI00
aI00
aI00
aI00
aI00
aa(lp4283
I234378
aF333.404
aF364.742
aVp4
p4284
aS'utopia'
p4285
aS'#656565'
p4286
aF8.88595
aI0
aI01
aI00
aI00
aI00
aI00
aI00
aI00
aI00
aa(lp4287
I234378
aF375.2460909090909
aF364.742
ag4284
aS'utopia'
p4288
aS'#656565'
p4289
aF8.88595
aI0
aI00
aI00
aI00
aI00
aI00
aI00
aI00
aI00
aa(lp4290
I201816
aF381.537
aF364.742
aVp4
p4291
aS'utopia'
p4292
aS'#434343'
p4293
aF8.88595
aI0
aI01
aI00
aI00
aI00
aI00
aI00
aI00
aI00
aa(lp4294
I1
aI1
aI0
aI0
aI0
aI0
aI0
aI0
aI0
aI0
aI0
aI0
aI0
aI0
aI0
aI0
aI0
aI0
aI0
aI0
aI0
aI0
aI0
aI0
aI0
aI0
aI0
aI0
aI0
aI0
aI0
aI0
aI0
aI0
aI0
aI0
aI0
aI0
aI0
aI0
aI0
aI0
aI0
aI0
aI0
aI0
aI0
aI0
aI0
aI0
aI0
aI0
aI0
aI0
aI0
aI0
aI0
aI0
aI0
aI0
aI0
aI0
aI0
aI0
aI0
aI0
aI0
aI0
aI0
aI0
aI0
aI0
aI0
aI0
aI0
aI0
aI0
aI0
aI0
aI0
aI0
aI0
aI0
aI0
aI0
aI0
aI0
aI0
aI0
aI0
aI0
aI0
aI0
aI0
aI0
aI0
aI0
aI0
aI0
aI0
aI0
aI0
aI0
aI1
aI1
aI0
aI0
aI0
aI0
aI0
aI0
aI0
aI0
aI0
aI0
aI0
aI0
aI0
aI0
aI0
aI0
aI0
aI0
aI0
aI0
aI0
aI0
aI0
aI0
aI0
aI0
aI0
aI0
aI1
aI0
aI0
aI0
aI0
aI0
aI0
aI0
aI0
aI0
aI0
aI0
aI0
aI0
aI0
aI0
aI0
aI0
aI0
aI0
aI0
aI0
aI0
aI0
aI0
aI0
aI0
aI0
aI0
aI0
aI0
aI0
aI0
aI0
aI0
aI0
aI0
aI0
aI0
aI0
aI0
aI0
aI0
aI0
aI0
aI0
aI0
aI0
aI0
aI1
aI0
aI1
aI1
aI0
aI0
aI0
aI0
aI0
aI0
aI0
aI0
aI0
aI0
aI0
aI0
aI0
aI0
aI0
aI0
aI0
aI0
aI0
aI0
aI0
aI0
aI0
aI0
aI0
aI0
aI0
aI0
aI0
aI0
aI0
aI0
aI0
aI0
aI0
aI0
aI0
aI0
aI0
aI0
aI0
aI0
aI0
aI0
aI0
aI0
aI0
aI0
aI0
aI0
aI0
aI0
aI0
aI0
aI0
aI0
aI0
aI0
aI0
aI0
aI0
aI0
aI0
aI0
aI0
aI0
aI0
aI0
aI0
aI0
aI0
aI0
aI0
aI0
aI0
aI0
aI0
aI0
aI0
aI0
aI0
aI0
aI0
aI0
aI0
aI0
aI0
aI0
aI0
aI0
aI0
aI0
aI0
aI0
aI0
aI0
aI0
aI0
aI0
aI0
aI0
aI0
aI0
aI0
aI0
aI0
aI0
aI0
aI0
aI0
aI0
aI0
aI0
aI0
aI0
aI0
aI0
aI0
aI0
aI0
aI0
aI0
aI0
aI0
aI1
aI1
aI0
aI0
aI0
aI0
aI0
aI0
aI0
aI0
aI0
aI1
aI0
aI0
aI0
aI0
aI0
aI0
aI0
aI0
aI0
aI0
aI0
aI0
aI0
aI0
aI0
aI0
aI0
aI0
aI0
aI0
aI0
aI0
aI0
aI0
aI0
aI0
aI0
aI0
aI0
aI0
aI0
aI0
aI0
aI0
aI0
aI0
aI0
aI0
aI0
aI0
aI0
aI0
aI0
aI0
aI0
aI0
aI0
aI0
aI0
aI0
aI0
aI0
aI0
aI0
aI0
aI0
aI0
aI0
aI0
aI0
aI0
aI0
aI0
aI0
aI0
aI0
aI0
aI0
aI0
aI0
aI0
aI0
aI0
aI0
aI0
aI0
aI0
aI0
aI0
aI0
aI0
aI0
aI0
aI0
aI0
aI0
aI0
aI0
aI0
aI0
aI0
aI0
aI0
aI0
aI0
aI0
aI0
aI0
aI0
aI0
aI0
aI0
aI0
aI0
aI0
aI0
aI0
aI0
aI0
aI0
aI0
aI0
aI0
aI0
aI0
aI0
aI0
aI0
aI0
aI0
aI0
aI0
aI0
aI0
aI0
aI0
aI0
aI0
aI0
aI0
aI0
aI0
aI0
aI0
aI0
aI0
aI0
aI0
aI0
aI0
aI0
aI0
aI0
aI0
aI0
aI0
aI0
aI0
aI0
aI0
aI0
aI0
aI0
aI0
aI0
aI0
aI0
aI0
aI0
aI0
aI0
aI0
aI0
aI0
aI0
aI0
aI0
aI0
aI0
aI0
aI0
aI0
aI0
aI0
aI0
aI0
aI0
aI0
aI0
aI0
aI0
aI0
aI0
aI0
aI0
aI0
aI0
aI0
aI0
aI0
aI0
aI0
aI0
aI0
aI0
aI0
aI0
aI0
aI0
aI0
aI0
aI0
aI0
aI0
aI0
aI0
aI0
aI0
aI0
aI0
aI0
aI0
aI0
aI0
aI0
aI0
aI0
aI0
aI0
aI0
aI0
aI0
aI0
aI0
aI0
aI0
aI0
aI0
aI0
aI0
aI0
aI0
aI0
aI0
aI0
aI0
aI0
aI0
aI0
aI0
aI0
aI0
aI0
aI0
aI0
aI0
aI0
aI0
aI0
aI0
aI0
aI0
aI0
aI0
aI0
aI0
aI0
aI0
aI0
aI0
aI0
aI0
aI0
aI0
aI0
aI0
aI0
aI0
aI0
aI0
aI0
aI0
aI0
aI0
aI0
aI0
aI0
aI0
aI0
aI0
aI0
aI0
aI0
aI0
aI0
aI0
aI0
aI0
aI0
aI0
aI0
aI0
aI0
aI0
aI0
aI0
aI0
aI0
aI0
aI0
aI0
aI0
aI0
aI0
aI0
aI0
aI0
aI0
aI0
aI0
aI0
aI0
aI0
aI0
aI0
aI0
aI0
aI0
aI0
aI0
aI0
aI0
aI0
aI0
aI0
aI0
aI0
aI0
aI0
aI0
aI0
aI0
aI0
aI0
aI0
aI0
aI0
aI0
aI0
aI0
aI0
aI0
aI0
aI0
aI0
aI0
aI0
aI0
aI0
aI0
aI0
aI0
aI0
aI0
aI0
aI0
aI0
aI0
aI0
aI0
aI0
aI0
aI0
aI0
aI0
aI0
aI0
aI0
aI0
aI0
aI0
aI0
aI0
aI0
aI0
aI0
aI0
aI0
aI0
aI0
aI0
aI0
aI0
aI0
aI0
aI0
aI0
aI0
aI0
aI0
aI0
aI0
aI0
aI0
aI0
aI0
aI0
aI0
aI0
aI0
aI0
aI0
aI0
aI0
aI0
aI0
aI0
aI0
aI0
aI0
aI0
aI0
aI0
aI0
aI0
aI0
aI0
aI0
aI0
aI0
aI0
aI0
aI0
aI0
aI0
aI0
aI0
aI0
aI0
aI0
aI0
aI0
aI0
aI0
aI0
aI0
aI0
aI0
aI0
aI0
aI0
aI0
aI0
aI0
aI0
aI0
aI0
aI0
aI0
aI0
aI0
aI0
aI0
aI0
aI0
aI0
aI0
aI0
aI0
aI0
aI0
aI0
aI0
aI0
aI0
aI0
aI0
aI0
aI0
aI0
aI0
aI0
aI0
aI0
aI0
aI0
aI0
aI0
aI0
aI0
aI0
aI0
aI0
aI0
aI0
aI0
aI0
aI0
aI0
aI0
aI0
aI0
aI0
aI0
aI0
aI0
aI0
aI0
aI0
aI0
aI0
aI0
aI0
aI0
aI0
aI0
aI0
aI0
aI0
aI0
aI0
aI0
aI0
aI0
aI0
aI0
aI0
aI0
aI0
aI0
aI0
aI0
aI0
aI0
aI0
aI0
aI0
aI0
aI0
aI0
aI0
aI0
aI0
aI0
aI0
aI0
aI0
aI0
aI0
aI0
aI0
aI0
aI0
aI0
aI0
aI0
aI0
aI0
aI0
aI0
aI0
aI0
aI0
aI0
aI0
aI0
aI0
aI0
aI0
aI0
aI0
aI0
aI0
aI0
aI0
aI0
aI0
aI0
aI0
aI0
aI0
aI0
aI0
aI0
aI0
aI0
aI0
aI0
aI0
aI0
aI0
aI0
aI0
aI0
aI0
aI0
aI0
aI0
aI0
aI0
aI0
aI0
aI0
aI0
aI0
aI0
aI0
aI0
aI0
aI0
aI0
aI0
aI0
aI0
aI0
aI0
aI0
aI0
aI0
aI0
aI0
aI0
aI0
aI0
aI0
aI0
aI0
aI0
aI0
aI0
aI0
aI0
aI0
aI0
aI0
aI0
aI0
aI0
aI0
aI0
aI0
aI0
aI0
aI0
aI0
aI0
aI0
aI0
aI0
aI0
aI0
aI0
aI0
aI0
aI0
aI0
aI0
aI0
aI0
aI0
aI0
aI0
aI0
aI0
aI0
aI0
aI0
aI0
aI0
aI0
aI0
aI0
aI0
aI0
aI0
aI0
aI0
aI0
aI0
aI0
aI0
aI0
aI0
aI0
aI0
aI0
aI0
aI0
aI0
aI0
aI0
aI0
aI0
aI0
aI0
aI0
aI0
aI0
aI0
aI0
aI0
aI0
aI0
aI0
aI1
aI1
aI0
aI0
aI0
aI0
aI0
aI0
aI0
aI0
aI0
aI0
aI0
aI0
aI0
aI0
aI0
aI0
aI0
aI0
aI0
aI0
aI0
aI0
aI0
aI0
aI0
aI0
aI0
aI0
aI0
aI0
aI0
aI0
aI0
aI0
aI0
aI0
aI0
aI0
aI0
aI0
aI0
aI0
aI0
aI0
aI0
aI0
aI0
aI0
aI0
aI0
aI0
aI0
aI0
aI0
aI0
aI0
aI0
aI0
aI0
aI0
aI0
aI0
aI0
aI0
aI0
aI0
aI0
aI0
aI0
aI0
aI0
aI0
aI0
aI0
aI0
aI0
aI0
aI0
aI0
aI0
aI0
aI0
aI0
aI0
aI0
aI0
aI0
aI0
aI0
aI0
aI0
aI0
aI0
aI0
aI0
aI0
aI0
aI0
aI0
aI0
aI0
aI0
aI0
aI0
aI0
atp4295
.