((lp0
(lp1
I234378
aF36.6058
aF44.5718
aVp1
p2
aS'utopia'
p3
aS'#02304b'
p4
aF7.79837
aI1
aI01
aI01
aI00
aI00
aI00
aI00
aI00
aI00
aa(lp5
I234378
aF83.396
aF44.5718
aVp1
p6
aS'utopia'
p7
aS'#02304b'
p8
aF7.79837
aI1
aI01
aI01
aI00
aI00
aI00
aI00
aI00
aI00
aa(lp9
I59734
aF129.699
aF44.5718
aVp1
p10
aS'utopia'
p11
aS'#02304b'
p12
aF7.79837
aI1
aI01
aI01
aI00
aI00
aI00
aI00
aI00
aI00
aa(lp13
I234378
aF40.505
aF58.6946
aVp1
p14
aS'utopia'
p15
aS'#656565'
p16
aF5.84878
aI0
aI00
aI00
aI01
aI01
aI00
aI00
aI00
aI00
aa(lp17
I234378
aF44.8915
aF58.6946
aVp1
p18
aS'utopia'
p19
aS'#656565'
p20
aF5.84878
aI0
aI00
aI00
aI00
aI00
aI00
aI00
aI00
aI00
aa(lp21
I144489
aF60.0009
aF58.6946
aVp1
p22
aS'utopia'
p23
aS'#656565'
p24
aF5.84878
aI0
aI00
aI00
aI00
aI00
aI00
aI00
aI00
aI00
aa(lp25
I60220
aF66.8244
aF58.6946
aVp1
p26
aS'utopia'
p27
aS'#656565'
p28
aF5.84878
aI0
aI00
aI00
aI00
aI00
aI00
aI00
aI00
aI00
aa(lp29
I135639
aF96.5557
aF58.6946
aVp1
p30
aS'utopia'
p31
aS'#656565'
p32
aF5.84878
aI0
aI00
aI00
aI00
aI00
aI00
aI00
aI00
aI00
aa(lp33
I84662
aF102.892
aF58.6946
aVp1
p34
aS'utopia'
p35
aS'#656565'
p36
aF5.84878
aI0
aI01
aI00
aI00
aI00
aI00
aI00
aI00
aI00
aa(lp37
I21716
aF117.026
aF58.6946
aVp1
p38
aS'utopia'
p39
aS'#656565'
p40
aF5.84878
aI0
aI01
aI00
aI00
aI00
aI00
aI00
aI00
aI00
aa(lp41
I234378
aF127.16941818181817
aF58.6946
ag38
aS'utopia'
p42
aS'#656565'
p43
aF5.84878
aI0
aI00
aI00
aI00
aI00
aI00
aI00
aI00
aI00
aa(lp44
I234378
aF129.70527272727273
aF58.6946
ag38
aS'utopia'
p45
aS'#656565'
p46
aF5.84878
aI0
aI01
aI00
aI00
aI00
aI00
aI00
aI00
aI00
aa(lp47
I234378
aF150.20723636363635
aF58.6946
ag38
aS'utopia'
p48
aS'#656565'
p49
aF5.84878
aI0
aI00
aI00
aI00
aI00
aI00
aI00
aI00
aI00
aa(lp50
I234378
aF167.7430909090909
aF58.6946
ag38
aS'utopia'
p51
aS'#656565'
p52
aF5.84878
aI0
aI01
aI01
aI01
aI00
aI00
aI00
aI00
aI00
aa(lp53
I234378
aF157.8865090909091
aF58.6946
ag38
aS'utopia'
p54
aS'#656565'
p55
aF5.84878
aI0
aI00
aI00
aI00
aI00
aI00
aI00
aI00
aI00
aa(lp56
I234378
aF180.42236363636366
aF58.6946
ag38
aS'utopia'
p57
aS'#656565'
p58
aF5.84878
aI0
aI01
aI01
aI00
aI00
aI00
aI00
aI00
aI00
aa(lp59
I234378
aF164.0299272727273
aF58.6946
ag38
aS'utopia'
p60
aS'#656565'
p61
aF5.84878
aI0
aI00
aI00
aI00
aI00
aI00
aI00
aI00
aI00
aa(lp62
I234378
aF190.56578181818185
aF58.6946
ag38
aS'utopia'
p63
aS'#656565'
p64
aF5.84878
aI0
aI01
aI00
aI00
aI00
aI00
aI00
aI00
aI00
aa(lp65
I234378
aF176.31676363636367
aF58.6946
ag38
aS'utopia'
p66
aS'#656565'
p67
aF5.84878
aI0
aI00
aI00
aI00
aI00
aI00
aI00
aI00
aI00
aa(lp68
I234378
aF210.85261818181823
aF58.6946
ag38
aS'utopia'
p69
aS'#656565'
p70
aF5.84878
aI0
aI01
aI00
aI00
aI00
aI00
aI00
aI00
aI00
aa(lp71
I234378
aF193.2111636363637
aF58.6946
ag38
aS'utopia'
p72
aS'#656565'
p73
aF5.84878
aI0
aI00
aI00
aI00
aI00
aI00
aI00
aI00
aI00
aa(lp74
I45445
aF238.74701818181825
aF58.6946
ag38
aS'utopia'
p75
aS'#656565'
p76
aF5.84878
aI0
aI01
aI00
aI00
aI00
aI00
aI00
aI00
aI00
aa(lp77
I234378
aF203.96214545454552
aF58.6946
ag38
aS'utopia'
p78
aS'#656565'
p79
aF5.84878
aI0
aI00
aI00
aI00
aI00
aI00
aI00
aI00
aI00
aa(lp80
I234378
aF257.884
aF58.6946
aVp1
p81
aS'utopia'
p82
aS'#656565'
p83
aF5.84878
aI0
aI01
aI01
aI00
aI00
aI00
aI00
aI00
aI00
aa(lp84
I234378
aF272.748
aF58.6946
ag81
aS'utopia'
p85
aS'#656565'
p86
aF5.84878
aI0
aI00
aI00
aI00
aI00
aI00
aI00
aI00
aI00
aa(lp87
I148996
aF275.7208
aF58.6946
ag81
aS'utopia'
p88
aS'#656565'
p89
aF5.84878
aI0
aI01
aI00
aI00
aI00
aI00
aI00
aI00
aI00
aa(lp90
I234378
aF294.927
aF58.6946
aVp1
p91
aS'utopia'
p92
aS'#656565'
p93
aF5.84878
aI0
aI00
aI00
aI01
aI01
aI00
aI00
aI00
aI00
aa(lp94
I234378
aF297.3759375
aF58.6946
ag91
aS'utopia'
p95
aS'#656565'
p96
aF5.84878
aI0
aI00
aI00
aI00
aI00
aI00
aI00
aI00
aI00
aa(lp97
I234378
aF299.824875
aF58.6946
ag91
aS'utopia'
p98
aS'#656565'
p99
aF5.84878
aI0
aI01
aI00
aI00
aI00
aI00
aI00
aI00
aI00
aa(lp100
I234378
aF315.885
aF58.6946
aVp1
p101
aS'utopia'
p102
aS'#656565'
p103
aF5.84878
aI0
aI00
aI00
aI01
aI01
aI00
aI00
aI00
aI00
aa(lp104
I234378
aF318.37268
aF58.6946
ag101
aS'utopia'
p105
aS'#656565'
p106
aF5.84878
aI0
aI00
aI00
aI00
aI00
aI00
aI00
aI00
aI00
aa(lp107
I234378
aF320.86036
aF58.6946
ag101
aS'utopia'
p108
aS'#656565'
p109
aF5.84878
aI0
aI00
aI00
aI01
aI01
aI00
aI00
aI00
aI00
aa(lp110
I234378
aF324.658
aF58.6946
aVp1
p111
aS'utopia'
p112
aS'#656565'
p113
aF5.84878
aI0
aI00
aI00
aI00
aI00
aI00
aI00
aI00
aI00
aa(lp114
I234378
aF327.10864285714285
aF58.6946
ag111
aS'utopia'
p115
aS'#656565'
p116
aF5.84878
aI0
aI00
aI00
aI00
aI00
aI00
aI00
aI00
aI00
aa(lp117
I144489
aF343.179
aF58.6946
aVp1
p118
aS'utopia'
p119
aS'#656565'
p120
aF5.84878
aI0
aI00
aI00
aI00
aI00
aI00
aI00
aI00
aI00
aa(lp121
I176767
aF350.003
aF58.6946
aVp1
p122
aS'utopia'
p123
aS'#656565'
p124
aF5.84878
aI0
aI00
aI00
aI00
aI00
aI00
aI00
aI00
aI00
aa(lp125
I234378
aF375.470615
aF58.6946
ag122
aS'utopia'
p126
aS'#656565'
p127
aF5.84878
aI0
aI00
aI00
aI00
aI00
aI00
aI00
aI00
aI00
aa(lp128
I234378
aF378.30035000000004
aF58.6946
ag122
aS'utopia'
p129
aS'#656565'
p130
aF5.84878
aI0
aI01
aI00
aI00
aI00
aI00
aI00
aI00
aI00
aa(lp131
I234378
aF388.27876000000003
aF58.6946
ag122
aS'utopia'
p132
aS'#656565'
p133
aF5.84878
aI0
aI00
aI00
aI00
aI00
aI00
aI00
aI00
aI00
aa(lp134
I17350
aF398.10849500000006
aF58.6946
ag122
aS'utopia'
p135
aS'#656565'
p136
aF5.84878
aI0
aI01
aI00
aI00
aI00
aI00
aI00
aI00
aI00
aa(lp137
I234378
aF408.003
aF58.6946
aVp1
p138
aS'utopia'
p139
aS'#656565'
p140
aF5.84878
aI0
aI00
aI00
aI00
aI00
aI00
aI00
aI00
aI00
aa(lp141
I85218
aF429.936
aF58.6946
aVp1
p142
aS'utopia'
p143
aS'#656565'
p144
aF5.84878
aI0
aI00
aI00
aI00
aI00
aI00
aI00
aI00
aI00
aa(lp145
I17350
aF441.146
aF58.6946
aVp1
p146
aS'utopia'
p147
aS'#656565'
p148
aF5.84878
aI0
aI01
aI00
aI00
aI00
aI00
aI00
aI00
aI00
aa(lp149
I123665
aF36.6058
aF65.5182
aVp1
p150
aS'utopia'
p151
aS'#656565'
p152
aF5.84878
aI0
aI01
aI00
aI00
aI00
aI00
aI00
aI00
aI00
aa(lp153
I68032
aF67.7992
aF65.5182
aVp1
p154
aS'utopia'
p155
aS'#656565'
p156
aF5.84878
aI0
aI01
aI00
aI00
aI00
aI00
aI00
aI00
aI00
aa(lp157
I234378
aF101.15033157894737
aF65.5182
ag154
aS'utopia'
p158
aS'#656565'
p159
aF5.84878
aI0
aI00
aI00
aI00
aI00
aI00
aI00
aI00
aI00
aa(lp160
I87610
aF104.18225263157895
aF65.5182
ag154
aS'utopia'
p161
aS'#656565'
p162
aF5.84878
aI0
aI01
aI00
aI00
aI00
aI00
aI00
aI00
aI00
aa(lp163
I190806
aF126.774
aF65.5182
aVp1
p164
aS'utopia'
p165
aS'#656565'
p166
aF5.84878
aI0
aI00
aI00
aI00
aI00
aI00
aI00
aI00
aI00
aa(lp167
I166593
aF136.035
aF65.5182
aVp1
p168
aS'utopia'
p169
aS'#656565'
p170
aF5.84878
aI0
aI00
aI00
aI00
aI00
aI00
aI00
aI00
aI00
aa(lp171
I63022
aF140.422
aF65.5182
aVp1
p172
aS'utopia'
p173
aS'#656565'
p174
aF5.84878
aI0
aI00
aI00
aI00
aI00
aI00
aI00
aI00
aI00
aa(lp175
I35885
aF162.842
aF65.5182
aVp1
p176
aS'utopia'
p177
aS'#656565'
p178
aF5.84878
aI0
aI00
aI00
aI00
aI00
aI00
aI00
aI00
aI00
aa(lp179
I234378
aF179.413
aF65.5182
aVp1
p180
aS'utopia'
p181
aS'#656565'
p182
aF5.84878
aI0
aI00
aI00
aI00
aI00
aI00
aI00
aI00
aI00
aa(lp183
I234378
aF211.4643052631579
aF65.5182
ag180
aS'utopia'
p184
aS'#656565'
p185
aF5.84878
aI0
aI00
aI00
aI00
aI00
aI00
aI00
aI00
aI00
aa(lp186
I234378
aF214.13524736842106
aF65.5182
ag180
aS'utopia'
p187
aS'#656565'
p188
aF5.84878
aI0
aI00
aI00
aI00
aI00
aI00
aI00
aI00
aI00
aa(lp189
I234378
aF231.565
aF65.5182
aVp1
p190
aS'utopia'
p191
aS'#656565'
p192
aF5.84878
aI0
aI00
aI00
aI00
aI00
aI00
aI00
aI00
aI00
aa(lp193
I234378
aF48.7907
aF91.3503
aVp1
p194
aS'utopia'
p195
aS'#0d75b4'
p196
aF5.84878
aI0
aI00
aI00
aI00
aI00
aI00
aI01
aI00
aI00
aa(lp197
I234378
aF292.002
aF91.3503
aVp1
p198
aS'utopia'
p199
aS'#000000'
p200
aF5.84878
aI0
aI00
aI00
aI01
aI01
aI01
aI00
aI00
aI00
aa(lp201
I15548
aF46.3537
aF114.258
aVp1
p202
aS'utopia'
p203
aS'#878787'
p204
aF5.84878
aI0
aI01
aI00
aI00
aI00
aI00
aI00
aI00
aI00
aa(lp205
I104542
aF68.2866
aF114.258
aVp1
p206
aS'utopia'
p207
aS'#878787'
p208
aF5.84878
aI0
aI01
aI00
aI00
aI00
aI00
aI00
aI00
aI00
aa(lp209
I234378
aF97.84387500000001
aF114.258
ag206
aS'utopia'
p210
aS'#878787'
p211
aF5.84878
aI0
aI00
aI00
aI00
aI00
aI00
aI00
aI00
aI00
aa(lp212
I55966
aF103.379
aF114.258
aVp1
p213
aS'utopia'
p214
aS'#000000'
p215
aF5.84878
aI0
aI01
aI00
aI00
aI00
aI00
aI00
aI00
aI00
aa(lp216
I146209
aF121.413
aF114.258
aVp1
p217
aS'utopia'
p218
aS'#000000'
p219
aF5.84878
aI0
aI01
aI00
aI00
aI00
aI00
aI00
aI00
aI00
aa(lp220
I144489
aF145.296
aF114.258
aVp1
p221
aS'utopia'
p222
aS'#000000'
p223
aF5.84878
aI0
aI00
aI00
aI00
aI00
aI00
aI00
aI00
aI00
aa(lp224
I149270
aF152.119
aF114.258
aVp1
p225
aS'utopia'
p226
aS'#000000'
p227
aF5.84878
aI0
aI01
aI00
aI00
aI00
aI00
aI00
aI00
aI00
aa(lp228
I215197
aF178.439
aF114.258
aVp1
p229
aS'utopia'
p230
aS'#000000'
p231
aF5.84878
aI0
aI01
aI00
aI00
aI00
aI00
aI00
aI00
aI00
aa(lp232
I234378
aF191.598
aF114.258
aVp1
p233
aS'utopia'
p234
aS'#000000'
p235
aF5.84878
aI0
aI01
aI01
aI00
aI00
aI00
aI00
aI00
aI00
aa(lp236
I234378
aF203.783
aF114.258
aVp1
p237
aS'utopia'
p238
aS'#000000'
p239
aF5.84878
aI0
aI01
aI01
aI00
aI00
aI00
aI00
aI00
aI00
aa(lp240
I16915
aF304.675
aF114.258
aVp1
p241
aS'utopia'
p242
aS'#878787'
p243
aF5.84878
aI0
aI01
aI00
aI00
aI00
aI00
aI00
aI00
aI00
aa(lp244
I60220
aF319.297
aF114.258
aVp1
p245
aS'utopia'
p246
aS'#878787'
p247
aF5.84878
aI0
aI01
aI00
aI00
aI00
aI00
aI00
aI00
aI00
aa(lp248
I234378
aF346.83763636363636
aF114.258
ag245
aS'utopia'
p249
aS'#878787'
p250
aF5.84878
aI0
aI00
aI00
aI00
aI00
aI00
aI00
aI00
aI00
aa(lp251
I234378
aF352.44
aF114.258
aVp1
p252
aS'utopia'
p253
aS'#000000'
p254
aF5.84878
aI0
aI00
aI00
aI01
aI01
aI00
aI00
aI00
aI00
aa(lp255
I91136
aF356.826
aF114.258
aVp1
p256
aS'utopia'
p257
aS'#000000'
p258
aF5.84878
aI0
aI01
aI00
aI00
aI00
aI00
aI00
aI00
aI00
aa(lp259
I234378
aF367.1766857142857
aF114.258
ag256
aS'utopia'
p260
aS'#000000'
p261
aF5.84878
aI0
aI00
aI00
aI00
aI00
aI00
aI00
aI00
aI00
aa(lp262
I59734
aF369.76435714285714
aF114.258
ag256
aS'utopia'
p263
aS'#000000'
p264
aF5.84878
aI0
aI00
aI00
aI00
aI00
aI00
aI00
aI00
aI00
aa(lp265
I234378
aF372.35202857142855
aF114.258
ag256
aS'utopia'
p266
aS'#000000'
p267
aF5.84878
aI0
aI00
aI00
aI00
aI00
aI00
aI00
aI00
aI00
aa(lp268
I234378
aF376.322
aF114.258
aVp1
p269
aS'utopia'
p270
aS'#000000'
p271
aF5.84878
aI0
aI00
aI00
aI01
aI01
aI00
aI00
aI00
aI00
aa(lp272
I63729
aF380.709
aF114.258
aVp1
p273
aS'utopia'
p274
aS'#000000'
p275
aF5.84878
aI0
aI01
aI00
aI00
aI00
aI00
aI00
aI00
aI00
aa(lp276
I234378
aF395.6855
aF114.258
ag273
aS'utopia'
p277
aS'#000000'
p278
aF5.84878
aI0
aI00
aI00
aI00
aI00
aI00
aI00
aI00
aI00
aa(lp279
I59734
aF398.6808
aF114.258
ag273
aS'utopia'
p280
aS'#000000'
p281
aF5.84878
aI0
aI00
aI00
aI00
aI00
aI00
aI00
aI00
aI00
aa(lp282
I234378
aF401.67609999999996
aF114.258
ag273
aS'utopia'
p283
aS'#000000'
p284
aF5.84878
aI0
aI00
aI00
aI00
aI00
aI00
aI00
aI00
aI00
aa(lp285
I15548
aF46.3537
aF125.956
aVp1
p286
aS'utopia'
p287
aS'#878787'
p288
aF5.84878
aI0
aI01
aI00
aI00
aI00
aI00
aI00
aI00
aI00
aa(lp289
I2006
aF68.2866
aF125.956
aVp1
p290
aS'utopia'
p291
aS'#878787'
p292
aF5.84878
aI0
aI01
aI00
aI00
aI00
aI00
aI00
aI00
aI00
aa(lp293
I234378
aF91.8091375
aF125.956
ag290
aS'utopia'
p294
aS'#878787'
p295
aF5.84878
aI0
aI00
aI00
aI00
aI00
aI00
aI00
aI00
aI00
aa(lp296
I45445
aF98.0179
aF125.956
aVp1
p297
aS'utopia'
p298
aS'#000000'
p299
aF5.84878
aI0
aI01
aI00
aI00
aI00
aI00
aI00
aI00
aI00
aa(lp300
I229300
aF304.675
aF125.956
aVp1
p301
aS'utopia'
p302
aS'#878787'
p303
aF5.84878
aI0
aI01
aI00
aI00
aI00
aI00
aI00
aI00
aI00
aa(lp304
I78894
aF324.658
aF125.956
aVp1
p305
aS'utopia'
p306
aS'#878787'
p307
aF5.84878
aI0
aI01
aI00
aI00
aI00
aI00
aI00
aI00
aI00
aa(lp308
I234378
aF339.3451428571429
aF125.956
ag305
aS'utopia'
p309
aS'#878787'
p310
aF5.84878
aI0
aI00
aI00
aI00
aI00
aI00
aI00
aI00
aI00
aa(lp311
I234378
aF344.641
aF125.956
aVp1
p312
aS'utopia'
p313
aS'#000000'
p314
aF5.84878
aI0
aI01
aI00
aI00
aI00
aI00
aI00
aI00
aI00
aa(lp315
I234378
aF352.44
aF125.956
aVp1
p316
aS'utopia'
p317
aS'#000000'
p318
aF5.84878
aI0
aI00
aI00
aI01
aI01
aI01
aI00
aI00
aI00
aa(lp319
I234378
aF357.76472
aF125.956
ag316
aS'utopia'
p320
aS'#000000'
p321
aF5.84878
aI0
aI00
aI00
aI00
aI00
aI00
aI00
aI00
aI00
aa(lp322
I234378
aF360.42708
aF125.956
ag316
aS'utopia'
p323
aS'#000000'
p324
aF5.84878
aI0
aI00
aI00
aI01
aI01
aI01
aI00
aI00
aI00
aa(lp325
I234378
aF367.062
aF125.956
aVp1
p326
aS'utopia'
p327
aS'#000000'
p328
aF5.84878
aI0
aI01
aI00
aI00
aI00
aI00
aI00
aI00
aI00
aa(lp329
I15548
aF46.3537
aF137.653
aVp1
p330
aS'utopia'
p331
aS'#878787'
p332
aF5.84878
aI0
aI01
aI00
aI00
aI00
aI00
aI00
aI00
aI00
aa(lp333
I17057
aF68.2866
aF137.653
aVp1
p334
aS'utopia'
p335
aS'#878787'
p336
aF5.84878
aI0
aI01
aI00
aI00
aI00
aI00
aI00
aI00
aI00
aa(lp337
I234378
aF90.0162888888889
aF137.653
ag334
aS'utopia'
p338
aS'#878787'
p339
aF5.84878
aI0
aI00
aI00
aI00
aI00
aI00
aI00
aI00
aI00
aa(lp340
I234378
aF95.5809
aF137.653
aVp1
p341
aS'utopia'
p342
aS'#000000'
p343
aF5.84878
aI0
aI01
aI00
aI00
aI00
aI00
aI00
aI00
aI00
aa(lp344
I234378
aF123.85
aF137.653
aVp1
p345
aS'utopia'
p346
aS'#000000'
p347
aF5.84878
aI0
aI00
aI00
aI00
aI00
aI00
aI00
aI00
aI00
aa(lp348
I234378
aF128.237
aF137.653
aVp1
p349
aS'utopia'
p350
aS'#000000'
p351
aF5.84878
aI0
aI01
aI00
aI00
aI00
aI00
aI00
aI00
aI00
aa(lp352
I234378
aF304.675
aF137.653
aVp1
p353
aS'utopia'
p354
aS'#878787'
p355
aF5.84878
aI0
aI01
aI00
aI00
aI00
aI00
aI00
aI00
aI00
aa(lp356
I234378
aF330.019
aF137.653
aVp1
p357
aS'utopia'
p358
aS'#878787'
p359
aF5.84878
aI0
aI01
aI01
aI00
aI00
aI00
aI00
aI00
aI00
aa(lp360
I234378
aF339.5803
aF137.653
ag357
aS'utopia'
p361
aS'#878787'
p362
aF5.84878
aI0
aI00
aI00
aI00
aI00
aI00
aI00
aI00
aI00
aa(lp363
I63091
aF345.616
aF137.653
aVp1
p364
aS'utopia'
p365
aS'#000000'
p366
aF5.84878
aI0
aI01
aI00
aI00
aI00
aI00
aI00
aI00
aI00
aa(lp367
I234378
aF356.826
aF137.653
aVp1
p368
aS'utopia'
p369
aS'#000000'
p370
aF5.84878
aI0
aI01
aI00
aI00
aI00
aI00
aI00
aI00
aI00
aa(lp371
I234378
aF46.3537
aF149.351
aVp1
p372
aS'utopia'
p373
aS'#878787'
p374
aF5.84878
aI0
aI01
aI00
aI00
aI00
aI00
aI00
aI00
aI00
aa(lp375
I234378
aF56.1625
aF149.351
ag372
aS'utopia'
p376
aS'#878787'
p377
aF5.84878
aI0
aI00
aI00
aI00
aI00
aI00
aI00
aI00
aI00
aa(lp378
I17057
aF60.0009
aF149.351
aVp1
p379
aS'utopia'
p380
aS'#878787'
p381
aF5.84878
aI0
aI01
aI00
aI00
aI00
aI00
aI00
aI00
aI00
aa(lp382
I234378
aF81.73058888888889
aF149.351
ag379
aS'utopia'
p383
aS'#878787'
p384
aF5.84878
aI0
aI00
aI00
aI00
aI00
aI00
aI00
aI00
aI00
aa(lp385
I234378
aF87.2952
aF149.351
aVp1
p386
aS'utopia'
p387
aS'#000000'
p388
aF5.84878
aI0
aI01
aI00
aI00
aI00
aI00
aI00
aI00
aI00
aa(lp389
I234378
aF115.564
aF149.351
aVp1
p390
aS'utopia'
p391
aS'#000000'
p392
aF5.84878
aI0
aI00
aI00
aI00
aI00
aI00
aI00
aI00
aI00
aa(lp393
I234378
aF119.951
aF149.351
aVp1
p394
aS'utopia'
p395
aS'#000000'
p396
aF5.84878
aI0
aI01
aI00
aI00
aI00
aI00
aI00
aI00
aI00
aa(lp397
I7204
aF304.675
aF149.351
aVp1
p398
aS'utopia'
p399
aS'#878787'
p400
aF5.84878
aI0
aI01
aI00
aI00
aI00
aI00
aI00
aI00
aI00
aa(lp401
I189220
aF326.12
aF149.351
aVp1
p402
aS'utopia'
p403
aS'#878787'
p404
aF5.84878
aI0
aI01
aI00
aI00
aI00
aI00
aI00
aI00
aI00
aa(lp405
I234378
aF343.31377142857144
aF149.351
ag402
aS'utopia'
p406
aS'#878787'
p407
aF5.84878
aI0
aI00
aI00
aI00
aI00
aI00
aI00
aI00
aI00
aa(lp408
I27780
aF349.028
aF149.351
aVp1
p409
aS'utopia'
p410
aS'#000000'
p411
aF5.84878
aI0
aI01
aI01
aI00
aI00
aI00
aI00
aI00
aI00
aa(lp412
I234378
aF351.8706818181818
aF149.351
ag409
aS'utopia'
p413
aS'#000000'
p414
aF5.84878
aI0
aI00
aI00
aI00
aI00
aI00
aI00
aI00
aI00
aa(lp415
I2737
aF354.7133636363636
aF149.351
ag409
aS'utopia'
p416
aS'#000000'
p417
aF5.84878
aI0
aI01
aI00
aI00
aI00
aI00
aI00
aI00
aI00
aa(lp418
I234378
aF366.0840909090909
aF149.351
ag409
aS'utopia'
p419
aS'#000000'
p420
aF5.84878
aI0
aI00
aI00
aI00
aI00
aI00
aI00
aI00
aI00
aa(lp421
I27780
aF361.9267727272727
aF149.351
ag409
aS'utopia'
p422
aS'#000000'
p423
aF5.84878
aI0
aI01
aI01
aI00
aI00
aI00
aI00
aI00
aI00
aa(lp424
I234378
aF364.7694545454545
aF149.351
ag409
aS'utopia'
p425
aS'#000000'
p426
aF5.84878
aI0
aI00
aI00
aI00
aI00
aI00
aI00
aI00
aI00
aa(lp427
I64620
aF374.6121363636363
aF149.351
ag409
aS'utopia'
p428
aS'#000000'
p429
aF5.84878
aI0
aI01
aI01
aI00
aI00
aI00
aI00
aI00
aI00
aa(lp430
I234378
aF368.4548181818181
aF149.351
ag409
aS'utopia'
p431
aS'#000000'
p432
aF5.84878
aI0
aI00
aI00
aI00
aI00
aI00
aI00
aI00
aI00
aa(lp433
I98580
aF46.3537
aF161.048
aVp1
p434
aS'utopia'
p435
aS'#878787'
p436
aF5.84878
aI0
aI01
aI00
aI00
aI00
aI00
aI00
aI00
aI00
aa(lp437
I166289
aF75.5976
aF161.048
aVp1
p438
aS'utopia'
p439
aS'#878787'
p440
aF5.84878
aI0
aI01
aI00
aI00
aI00
aI00
aI00
aI00
aI00
aa(lp441
I234378
aF86.57616
aF161.048
ag438
aS'utopia'
p442
aS'#878787'
p443
aF5.84878
aI0
aI00
aI00
aI00
aI00
aI00
aI00
aI00
aI00
aa(lp444
I22476
aF92.1691
aF161.048
aVp1
p445
aS'utopia'
p446
aS'#000000'
p447
aF5.84878
aI0
aI01
aI01
aI00
aI00
aI00
aI00
aI00
aI00
aa(lp448
I234378
aF98.9927
aF161.048
aVp1
p449
aS'utopia'
p450
aS'#000000'
p451
aF5.84878
aI0
aI01
aI00
aI00
aI00
aI00
aI00
aI00
aI00
aa(lp452
I25931
aF127.262
aF161.048
aVp1
p453
aS'utopia'
p454
aS'#000000'
p455
aF5.84878
aI0
aI01
aI00
aI00
aI00
aI00
aI00
aI00
aI00
aa(lp456
I96642
aF143.833
aF161.048
aVp1
p457
aS'utopia'
p458
aS'#000000'
p459
aF5.84878
aI0
aI01
aI00
aI00
aI00
aI00
aI00
aI00
aI00
aa(lp460
I48671
aF304.675
aF161.048
aVp1
p461
aS'utopia'
p462
aS'#878787'
p463
aF5.84878
aI0
aI01
aI00
aI00
aI00
aI00
aI00
aI00
aI00
aa(lp464
I129688
aF323.196
aF161.048
aVp1
p465
aS'utopia'
p466
aS'#878787'
p467
aF5.84878
aI0
aI00
aI00
aI00
aI00
aI00
aI00
aI00
aI00
aa(lp468
I234378
aF339.1364571428572
aF161.048
ag465
aS'utopia'
p469
aS'#878787'
p470
aF5.84878
aI0
aI00
aI00
aI00
aI00
aI00
aI00
aI00
aI00
aa(lp471
I234378
aF344.641
aF161.048
aVp1
p472
aS'utopia'
p473
aS'#000000'
p474
aF5.84878
aI0
aI00
aI00
aI01
aI01
aI00
aI00
aI00
aI00
aa(lp475
I234378
aF349.028
aF161.048
aVp1
p476
aS'utopia'
p477
aS'#000000'
p478
aF5.84878
aI0
aI01
aI00
aI00
aI00
aI00
aI00
aI00
aI00
aa(lp479
I176435
aF46.3537
aF172.746
aVp1
p480
aS'utopia'
p481
aS'#878787'
p482
aF5.84878
aI0
aI01
aI00
aI00
aI00
aI00
aI00
aI00
aI00
aa(lp483
I234378
aF56.94234
aF172.746
ag480
aS'utopia'
p484
aS'#878787'
p485
aF5.84878
aI0
aI00
aI00
aI00
aI00
aI00
aI00
aI00
aI00
aa(lp486
I234378
aF62.4379
aF172.746
aVp1
p487
aS'utopia'
p488
aS'#000000'
p489
aF5.84878
aI0
aI01
aI00
aI00
aI00
aI00
aI00
aI00
aI00
aa(lp490
I100815
aF86.8078
aF172.746
aVp1
p491
aS'utopia'
p492
aS'#000000'
p493
aF5.84878
aI0
aI01
aI00
aI00
aI00
aI00
aI00
aI00
aI00
aa(lp494
I74589
aF46.3537
aF184.443
aVp1
p495
aS'utopia'
p496
aS'#878787'
p497
aF5.84878
aI0
aI01
aI00
aI00
aI00
aI00
aI00
aI00
aI00
aa(lp498
I234378
aF67.21690000000001
aF184.443
ag495
aS'utopia'
p499
aS'#878787'
p500
aF5.84878
aI0
aI00
aI00
aI00
aI00
aI00
aI00
aI00
aI00
aa(lp501
I22476
aF72.6732
aF184.443
aVp1
p502
aS'utopia'
p503
aS'#000000'
p504
aF5.84878
aI0
aI01
aI01
aI00
aI00
aI00
aI00
aI00
aI00
aa(lp505
I234378
aF79.33287
aF184.443
ag502
aS'utopia'
p506
aS'#000000'
p507
aF5.84878
aI0
aI01
aI00
aI00
aI00
aI00
aI00
aI00
aI00
aa(lp508
I234378
aF101.97155000000001
aF184.443
ag502
aS'utopia'
p509
aS'#000000'
p510
aF5.84878
aI0
aI00
aI00
aI00
aI00
aI00
aI00
aI00
aI00
aa(lp511
I234378
aF95.80138500000001
aF184.443
ag502
aS'utopia'
p512
aS'#000000'
p513
aF5.84878
aI0
aI01
aI00
aI00
aI00
aI00
aI00
aI00
aI00
aa(lp514
I234378
aF130.674
aF184.443
aVp1
p515
aS'utopia'
p516
aS'#000000'
p517
aF5.84878
aI0
aI01
aI00
aI00
aI00
aI00
aI00
aI00
aI00
aa(lp518
I231013
aF46.3537
aF196.141
aVp1
p519
aS'utopia'
p520
aS'#878787'
p521
aF5.84878
aI0
aI01
aI00
aI00
aI00
aI00
aI00
aI00
aI00
aa(lp522
I234378
aF57.5639
aF196.141
aVp1
p523
aS'utopia'
p524
aS'#878787'
p525
aF5.84878
aI0
aI01
aI00
aI00
aI00
aI00
aI00
aI00
aI00
aa(lp526
I234378
aF69.74441428571429
aF196.141
ag523
aS'utopia'
p527
aS'#878787'
p528
aF5.84878
aI0
aI00
aI00
aI00
aI00
aI00
aI00
aI00
aI00
aa(lp529
I84662
aF74.6228
aF196.141
aVp1
p530
aS'utopia'
p531
aS'#000000'
p532
aF5.84878
aI0
aI01
aI00
aI00
aI00
aI00
aI00
aI00
aI00
aa(lp533
I21716
aF88.7574
aF196.141
aVp1
p534
aS'utopia'
p535
aS'#000000'
p536
aF5.84878
aI0
aI01
aI00
aI00
aI00
aI00
aI00
aI00
aI00
aa(lp537
I234378
aF98.56620000000001
aF196.141
ag534
aS'utopia'
p538
aS'#000000'
p539
aF5.84878
aI0
aI00
aI00
aI00
aI00
aI00
aI00
aI00
aI00
aa(lp540
I234378
aF102.405
aF196.141
aVp1
p541
aS'utopia'
p542
aS'#000000'
p543
aF5.84878
aI0
aI01
aI01
aI00
aI00
aI00
aI00
aI00
aI00
aa(lp544
I234378
aF117.66054166666667
aF196.141
ag541
aS'utopia'
p545
aS'#000000'
p546
aF5.84878
aI0
aI00
aI00
aI00
aI00
aI00
aI00
aI00
aI00
aa(lp547
I45445
aF120.71165
aF196.141
ag541
aS'utopia'
p548
aS'#000000'
p549
aF5.84878
aI0
aI01
aI00
aI00
aI00
aI00
aI00
aI00
aI00
aa(lp550
I234378
aF140.422
aF196.141
aVp1
p551
aS'utopia'
p552
aS'#000000'
p553
aF5.84878
aI0
aI00
aI00
aI01
aI00
aI00
aI00
aI00
aI00
aa(lp554
I234378
aF147.77859999999998
aF196.141
ag551
aS'utopia'
p555
aS'#000000'
p556
aF5.84878
aI0
aI00
aI00
aI00
aI00
aI00
aI00
aI00
aI00
aa(lp557
I234378
aF150.2308
aF196.141
ag551
aS'utopia'
p558
aS'#000000'
p559
aF5.84878
aI0
aI00
aI00
aI00
aI00
aI00
aI00
aI00
aI00
aa(lp560
I234378
aF154.069
aF196.141
aVp1
p561
aS'utopia'
p562
aS'#000000'
p563
aF5.84878
aI0
aI01
aI00
aI00
aI00
aI00
aI00
aI00
aI00
aa(lp564
I234378
aF171.16594999999998
aF196.141
ag561
aS'utopia'
p565
aS'#000000'
p566
aF5.84878
aI0
aI00
aI00
aI00
aI00
aI00
aI00
aI00
aI00
aa(lp567
I234378
aF173.60837142857142
aF196.141
ag561
aS'utopia'
p568
aS'#000000'
p569
aF5.84878
aI0
aI01
aI01
aI00
aI00
aI00
aI00
aI00
aI00
aa(lp570
I59734
aF181.9356357142857
aF196.141
ag561
aS'utopia'
p571
aS'#000000'
p572
aF5.84878
aI0
aI00
aI00
aI00
aI00
aI00
aI00
aI00
aI00
aa(lp573
I234378
aF184.37805714285713
aF196.141
ag561
aS'utopia'
p574
aS'#000000'
p575
aF5.84878
aI0
aI00
aI00
aI00
aI00
aI00
aI00
aI00
aI00
aa(lp576
I234378
aF189.649
aF196.141
aVp1
p577
aS'utopia'
p578
aS'#000000'
p579
aF5.84878
aI0
aI01
aI01
aI00
aI00
aI00
aI00
aI00
aI00
aa(lp580
I234378
aF195.985
aF196.141
aVp1
p581
aS'utopia'
p582
aS'#000000'
p583
aF5.84878
aI0
aI00
aI00
aI00
aI00
aI00
aI00
aI00
aI00
aa(lp584
I234378
aF198.909
aF196.141
aVp1
p585
aS'utopia'
p586
aS'#000000'
p587
aF5.84878
aI0
aI01
aI00
aI00
aI00
aI00
aI00
aI00
aI00
aa(lp588
I234378
aF215.685
aF196.141
ag585
aS'utopia'
p589
aS'#000000'
p590
aF5.84878
aI0
aI00
aI00
aI00
aI00
aI00
aI00
aI00
aI00
aa(lp591
I234378
aF219.867
aF196.141
aVp1
p592
aS'utopia'
p593
aS'#000000'
p594
aF5.84878
aI0
aI01
aI01
aI00
aI00
aI00
aI00
aI00
aI00
aa(lp595
I234378
aF230.1594
aF196.141
ag592
aS'utopia'
p596
aS'#000000'
p597
aF5.84878
aI0
aI00
aI00
aI00
aI00
aI00
aI00
aI00
aI00
aa(lp598
I234378
aF234.977
aF196.141
aVp1
p599
aS'utopia'
p600
aS'#000000'
p601
aF5.84878
aI0
aI01
aI00
aI00
aI00
aI00
aI00
aI00
aI00
aa(lp602
I148996
aF251.548
aF196.141
aVp1
p603
aS'utopia'
p604
aS'#000000'
p605
aF5.84878
aI0
aI01
aI00
aI00
aI00
aI00
aI00
aI00
aI00
aa(lp606
I234378
aF267.07068571428573
aF196.141
ag603
aS'utopia'
p607
aS'#000000'
p608
aF5.84878
aI0
aI00
aI00
aI00
aI00
aI00
aI00
aI00
aI00
aa(lp609
I17350
aF271.044
aF196.141
aVp1
p610
aS'utopia'
p611
aS'#000000'
p612
aF5.84878
aI0
aI01
aI00
aI00
aI00
aI00
aI00
aI00
aI00
aa(lp613
I234378
aF46.3537
aF202.964
aVp1
p614
aS'utopia'
p615
aS'#000000'
p616
aF5.84878
aI0
aI01
aI00
aI00
aI00
aI00
aI00
aI00
aI00
aa(lp617
I234378
aF68.774
aF202.964
aVp1
p618
aS'utopia'
p619
aS'#000000'
p620
aF5.84878
aI0
aI00
aI00
aI00
aI00
aI00
aI00
aI00
aI00
aa(lp621
I234378
aF71.6984
aF202.964
aVp1
p622
aS'utopia'
p623
aS'#000000'
p624
aF5.84878
aI0
aI01
aI00
aI00
aI00
aI00
aI00
aI00
aI00
aa(lp625
I234378
aF93.1439
aF202.964
aVp1
p626
aS'utopia'
p627
aS'#000000'
p628
aF5.84878
aI0
aI01
aI01
aI00
aI00
aI00
aI00
aI00
aI00
aa(lp629
I25931
aF104.841
aF202.964
aVp1
p630
aS'utopia'
p631
aS'#000000'
p632
aF5.84878
aI0
aI01
aI00
aI00
aI00
aI00
aI00
aI00
aI00
aa(lp633
I234378
aF119.11037142857143
aF202.964
ag630
aS'utopia'
p634
aS'#000000'
p635
aF5.84878
aI0
aI00
aI00
aI00
aI00
aI00
aI00
aI00
aI00
aa(lp636
I44279
aF122.875
aF202.964
aVp1
p637
aS'utopia'
p638
aS'#000000'
p639
aF5.84878
aI0
aI01
aI00
aI00
aI00
aI00
aI00
aI00
aI00
aa(lp640
I234378
aF133.598
aF202.964
aVp1
p641
aS'utopia'
p642
aS'#000000'
p643
aF5.84878
aI0
aI01
aI00
aI00
aI00
aI00
aI00
aI00
aI00
aa(lp644
I85218
aF157.968
aF202.964
aVp1
p645
aS'utopia'
p646
aS'#000000'
p647
aF5.84878
aI0
aI00
aI00
aI00
aI00
aI00
aI00
aI00
aI00
aa(lp648
I234378
aF169.178
aF202.964
aVp1
p649
aS'utopia'
p650
aS'#000000'
p651
aF5.84878
aI0
aI00
aI00
aI00
aI00
aI00
aI00
aI00
aI00
aa(lp652
I144489
aF186.237
aF202.964
aVp1
p653
aS'utopia'
p654
aS'#000000'
p655
aF5.84878
aI0
aI00
aI00
aI00
aI00
aI00
aI00
aI00
aI00
aa(lp656
I176767
aF193.061
aF202.964
aVp1
p657
aS'utopia'
p658
aS'#000000'
p659
aF5.84878
aI0
aI00
aI00
aI00
aI00
aI00
aI00
aI00
aI00
aa(lp660
I234378
aF216.81695000000002
aF202.964
ag657
aS'utopia'
p661
aS'#000000'
p662
aF5.84878
aI0
aI00
aI00
aI00
aI00
aI00
aI00
aI00
aI00
aa(lp663
I234378
aF220.842
aF202.964
aVp1
p664
aS'utopia'
p665
aS'#000000'
p666
aF5.84878
aI0
aI01
aI00
aI00
aI00
aI00
aI00
aI00
aI00
aa(lp667
I234378
aF240.09978750000002
aF202.964
ag664
aS'utopia'
p668
aS'#000000'
p669
aF5.84878
aI0
aI00
aI00
aI00
aI00
aI00
aI00
aI00
aI00
aa(lp670
I234378
aF244.237
aF202.964
aVp1
p671
aS'utopia'
p672
aS'#000000'
p673
aF5.84878
aI0
aI01
aI01
aI01
aI00
aI00
aI00
aI00
aI00
aa(lp674
I234378
aF253.79829999999998
aF202.964
ag671
aS'utopia'
p675
aS'#000000'
p676
aF5.84878
aI0
aI00
aI00
aI00
aI00
aI00
aI00
aI00
aI00
aa(lp677
I234378
aF258.372
aF202.964
aVp1
p678
aS'utopia'
p679
aS'#000000'
p680
aF5.84878
aI0
aI01
aI00
aI00
aI00
aI00
aI00
aI00
aI00
aa(lp681
I234378
aF274.7302285714286
aF202.964
ag678
aS'utopia'
p682
aS'#000000'
p683
aF5.84878
aI0
aI00
aI00
aI00
aI00
aI00
aI00
aI00
aI00
aa(lp684
I77592
aF278.843
aF202.964
aVp1
p685
aS'utopia'
p686
aS'#000000'
p687
aF5.84878
aI0
aI01
aI00
aI00
aI00
aI00
aI00
aI00
aI00
aa(lp688
I14332
aF46.3537
aF209.788
aVp1
p689
aS'utopia'
p690
aS'#000000'
p691
aF5.84878
aI0
aI01
aI00
aI00
aI00
aI00
aI00
aI00
aI00
aa(lp692
I234378
aF61.4452
aF209.788
ag689
aS'utopia'
p693
aS'#000000'
p694
aF5.84878
aI0
aI00
aI00
aI00
aI00
aI00
aI00
aI00
aI00
aa(lp695
I51933
aF36.1184
aF234.17
aVp1
p696
aS'utopia'
p697
aS'#02304b'
p698
aF7.79837
aI1
aI01
aI00
aI00
aI00
aI00
aI00
aI00
aI00
aa(lp699
I60220
aF57.0765
aF234.17
aVp1
p700
aS'utopia'
p701
aS'#02304b'
p702
aF7.79837
aI1
aI01
aI00
aI00
aI00
aI00
aI00
aI00
aI00
aa(lp703
I45445
aF36.6058
aF255.046
aVp1
p704
aS'utopia'
p705
aS'#000000'
p706
aF6.82357
aI1
aI01
aI00
aI00
aI00
aI00
aI00
aI00
aI00
aa(lp707
I234378
aF59.0261
aF255.223
aVp1
p708
aS'utopia'
p709
aS'#656565'
p710
aF6.82357
aI0
aI00
aI00
aI00
aI00
aI00
aI00
aI00
aI00
aa(lp711
I15548
aF62.3022625
aF255.223
ag708
aS'utopia'
p712
aS'#656565'
p713
aF6.82357
aI0
aI01
aI00
aI00
aI00
aI00
aI00
aI00
aI00
aa(lp714
I70289
aF86.8078
aF255.223
aVp1
p715
aS'utopia'
p716
aS'#656565'
p717
aF6.82357
aI0
aI01
aI00
aI00
aI00
aI00
aI00
aI00
aI00
aa(lp718
I234378
aF115.34033333333333
aF255.223
ag715
aS'utopia'
p719
aS'#656565'
p720
aF6.82357
aI0
aI00
aI00
aI00
aI00
aI00
aI00
aI00
aI00
aa(lp721
I55966
aF36.6058
aF265.946
aVp1
p722
aS'utopia'
p723
aS'#656565'
p724
aF6.82357
aI0
aI01
aI00
aI00
aI00
aI00
aI00
aI00
aI00
aa(lp725
I146209
aF58.0513
aF265.946
aVp1
p726
aS'utopia'
p727
aS'#656565'
p728
aF6.82357
aI0
aI01
aI00
aI00
aI00
aI00
aI00
aI00
aI00
aa(lp729
I144489
aF85.3456
aF265.946
aVp1
p730
aS'utopia'
p731
aS'#656565'
p732
aF6.82357
aI0
aI00
aI00
aI00
aI00
aI00
aI00
aI00
aI00
aa(lp733
I149270
aF92.6565
aF265.946
aVp1
p734
aS'utopia'
p735
aS'#656565'
p736
aF6.82357
aI0
aI01
aI00
aI00
aI00
aI00
aI00
aI00
aI00
aa(lp737
I215197
aF124.825
aF265.946
aVp1
p738
aS'utopia'
p739
aS'#656565'
p740
aF6.82357
aI0
aI01
aI00
aI00
aI00
aI00
aI00
aI00
aI00
aa(lp741
I234378
aF139.934
aF265.946
aVp1
p742
aS'utopia'
p743
aS'#656565'
p744
aF6.82357
aI0
aI01
aI01
aI00
aI00
aI00
aI00
aI00
aI00
aa(lp745
I234378
aF154.556
aF265.946
aVp1
p746
aS'utopia'
p747
aS'#656565'
p748
aF6.82357
aI0
aI01
aI01
aI00
aI00
aI00
aI00
aI00
aI00
aa(lp749
I234378
aF166.254
aF265.946
aVp1
p750
aS'utopia'
p751
aS'#656565'
p752
aF6.82357
aI0
aI01
aI00
aI00
aI00
aI00
aI00
aI00
aI01
aa(lp753
I234378
aF176.002
aF265.946
aVp1
p754
aS'utopia'
p755
aS'#656565'
p756
aF6.82357
aI0
aI00
aI00
aI01
aI01
aI01
aI00
aI00
aI00
aa(lp757
I147778
aF36.6058
aF278.999
aVp1
p758
aS'utopia'
p759
aS'#656565'
p760
aF5.84878
aI0
aI01
aI00
aI00
aI00
aI00
aI00
aI00
aI00
aa(lp761
I105322
aF58.5387
aF278.999
aVp1
p762
aS'utopia'
p763
aS'#656565'
p764
aF5.84878
aI0
aI00
aI00
aI00
aI00
aI00
aI00
aI00
aI00
aa(lp765
I135639
aF81.9338
aF278.999
aVp1
p766
aS'utopia'
p767
aS'#656565'
p768
aF5.84878
aI0
aI00
aI00
aI00
aI00
aI00
aI00
aI00
aI00
aa(lp769
I194354
aF88.27
aF278.999
aVp1
p770
aS'utopia'
p771
aS'#656565'
p772
aF5.84878
aI0
aI00
aI00
aI00
aI00
aI00
aI00
aI00
aI00
aa(lp773
I1109
aF98.0179
aF278.999
aVp1
p774
aS'utopia'
p775
aS'#656565'
p776
aF5.84878
aI0
aI00
aI00
aI00
aI00
aI00
aI00
aI00
aI00
aa(lp777
I234378
aF120.89653
aF278.999
ag774
aS'utopia'
p778
aS'#656565'
p779
aF5.84878
aI0
aI00
aI00
aI00
aI00
aI00
aI00
aI00
aI00
aa(lp780
I125458
aF124.825
aF278.999
aVp1
p781
aS'utopia'
p782
aS'#656565'
p783
aF5.84878
aI0
aI01
aI00
aI00
aI00
aI00
aI00
aI00
aI00
aa(lp784
I144483
aF146.758
aF278.999
aVp1
p785
aS'utopia'
p786
aS'#656565'
p787
aF5.84878
aI0
aI00
aI00
aI00
aI00
aI00
aI00
aI00
aI00
aa(lp788
I234378
aF155.043
aF278.999
aVp1
p789
aS'utopia'
p790
aS'#656565'
p791
aF5.84878
aI0
aI00
aI00
aI00
aI00
aI00
aI00
aI00
aI00
aa(lp792
I85218
aF176.976
aF278.999
aVp1
p793
aS'utopia'
p794
aS'#656565'
p795
aF5.84878
aI0
aI00
aI00
aI00
aI00
aI00
aI00
aI00
aI00
aa(lp796
I131765
aF188.187
aF278.999
aVp1
p797
aS'utopia'
p798
aS'#656565'
p799
aF5.84878
aI0
aI00
aI00
aI00
aI00
aI00
aI00
aI00
aI00
aa(lp800
I234378
aF211.094
aF278.999
aVp1
p801
aS'utopia'
p802
aS'#656565'
p803
aF5.84878
aI0
aI01
aI01
aI00
aI00
aI00
aI00
aI00
aI00
aa(lp804
I190806
aF224.254
aF278.999
aVp1
p805
aS'utopia'
p806
aS'#656565'
p807
aF5.84878
aI0
aI00
aI00
aI00
aI00
aI00
aI00
aI00
aI00
aa(lp808
I234378
aF233.515
aF278.999
aVp1
p809
aS'utopia'
p810
aS'#656565'
p811
aF5.84878
aI0
aI00
aI00
aI00
aI00
aI00
aI00
aI00
aI00
aa(lp812
I234378
aF260.809
aF278.999
aVp1
p813
aS'utopia'
p814
aS'#656565'
p815
aF5.84878
aI0
aI00
aI00
aI00
aI00
aI00
aI00
aI00
aI00
aa(lp816
I234378
aF288.7927272727273
aF278.999
ag813
aS'utopia'
p817
aS'#656565'
p818
aF5.84878
aI0
aI00
aI00
aI00
aI00
aI00
aI00
aI00
aI00
aa(lp819
I125458
aF292.977
aF278.999
aVp1
p820
aS'utopia'
p821
aS'#656565'
p822
aF5.84878
aI0
aI01
aI00
aI00
aI00
aI00
aI00
aI00
aI00
aa(lp823
I144483
aF314.91
aF278.999
aVp1
p824
aS'utopia'
p825
aS'#656565'
p826
aF5.84878
aI0
aI00
aI00
aI00
aI00
aI00
aI00
aI00
aI00
aa(lp827
I234378
aF323.196
aF278.999
aVp1
p828
aS'utopia'
p829
aS'#656565'
p830
aF5.84878
aI0
aI00
aI00
aI00
aI00
aI00
aI00
aI00
aI00
aa(lp831
I190806
aF339.767
aF278.999
aVp1
p832
aS'utopia'
p833
aS'#656565'
p834
aF5.84878
aI0
aI00
aI00
aI00
aI00
aI00
aI00
aI00
aI00
aa(lp835
I132957
aF349.028
aF278.999
aVp1
p836
aS'utopia'
p837
aS'#656565'
p838
aF5.84878
aI0
aI00
aI00
aI00
aI00
aI00
aI00
aI00
aI00
aa(lp839
I171173
aF361.7
aF278.999
aVp1
p840
aS'utopia'
p841
aS'#656565'
p842
aF5.84878
aI0
aI00
aI00
aI00
aI00
aI00
aI00
aI00
aI00
aa(lp843
I190806
aF388.507
aF278.999
aVp1
p844
aS'utopia'
p845
aS'#656565'
p846
aF5.84878
aI0
aI00
aI00
aI00
aI00
aI00
aI00
aI00
aI00
aa(lp847
I234378
aF397.768
aF278.999
aVp1
p848
aS'utopia'
p849
aS'#656565'
p850
aF5.84878
aI0
aI00
aI00
aI00
aI00
aI00
aI00
aI00
aI00
aa(lp851
I234378
aF425.062
aF278.999
aVp1
p852
aS'utopia'
p853
aS'#656565'
p854
aF5.84878
aI0
aI00
aI00
aI00
aI00
aI00
aI00
aI00
aI00
aa(lp855
I234378
aF453.0457272727273
aF278.999
ag852
aS'utopia'
p856
aS'#656565'
p857
aF5.84878
aI0
aI00
aI00
aI00
aI00
aI00
aI00
aI00
aI00
aa(lp858
I125458
aF457.23
aF278.999
aVp1
p859
aS'utopia'
p860
aS'#656565'
p861
aF5.84878
aI0
aI01
aI00
aI00
aI00
aI00
aI00
aI00
aI00
aa(lp862
I144483
aF479.163
aF278.999
aVp1
p863
aS'utopia'
p864
aS'#656565'
p865
aF5.84878
aI0
aI00
aI00
aI00
aI00
aI00
aI00
aI00
aI00
aa(lp866
I234378
aF487.449
aF278.999
aVp1
p867
aS'utopia'
p868
aS'#656565'
p869
aF5.84878
aI0
aI01
aI01
aI00
aI00
aI00
aI00
aI00
aI00
aa(lp870
I190806
aF500.609
aF278.999
aVp1
p871
aS'utopia'
p872
aS'#656565'
p873
aF5.84878
aI0
aI00
aI00
aI00
aI00
aI00
aI00
aI00
aI00
aa(lp874
I210828
aF509.869
aF278.999
aVp1
p875
aS'utopia'
p876
aS'#656565'
p877
aF5.84878
aI0
aI00
aI00
aI00
aI00
aI00
aI00
aI00
aI00
aa(lp878
I74102
aF529.365
aF278.999
aVp1
p879
aS'utopia'
p880
aS'#656565'
p881
aF5.84878
aI0
aI00
aI00
aI00
aI00
aI00
aI00
aI00
aI00
aa(lp882
I16331
aF36.6058
aF285.822
aVp1
p883
aS'utopia'
p884
aS'#656565'
p885
aF5.84878
aI0
aI00
aI00
aI00
aI00
aI00
aI00
aI00
aI00
aa(lp886
I80364
aF43.4293
aF285.822
aVp1
p887
aS'utopia'
p888
aS'#656565'
p889
aF5.84878
aI0
aI00
aI00
aI00
aI00
aI00
aI00
aI00
aI00
aa(lp890
I138729
aF55.6143
aF285.822
aVp1
p891
aS'utopia'
p892
aS'#656565'
p893
aF5.84878
aI0
aI00
aI00
aI00
aI00
aI00
aI00
aI00
aI00
aa(lp894
I197416
aF71.6984
aF285.822
aVp1
p895
aS'utopia'
p896
aS'#656565'
p897
aF5.84878
aI0
aI00
aI00
aI00
aI00
aI00
aI00
aI00
aI00
aa(lp898
I234378
aF81.89712
aF285.822
ag895
aS'utopia'
p899
aS'#656565'
p900
aF5.84878
aI0
aI00
aI00
aI00
aI00
aI00
aI00
aI00
aI00
aa(lp901
I234378
aF85.833
aF285.822
aVp1
p902
aS'utopia'
p903
aS'#656565'
p904
aF5.84878
aI0
aI01
aI00
aI00
aI00
aI00
aI00
aI00
aI00
aa(lp905
I234378
aF104.354
aF285.822
aVp1
p906
aS'utopia'
p907
aS'#656565'
p908
aF5.84878
aI0
aI00
aI00
aI00
aI00
aI00
aI00
aI00
aI00
aa(lp909
I85218
aF130.186
aF285.822
aVp1
p910
aS'utopia'
p911
aS'#656565'
p912
aF5.84878
aI0
aI00
aI00
aI00
aI00
aI00
aI00
aI00
aI00
aa(lp913
I171173
aF141.396
aF285.822
aVp1
p914
aS'utopia'
p915
aS'#656565'
p916
aF5.84878
aI0
aI00
aI00
aI00
aI00
aI00
aI00
aI00
aI00
aa(lp917
I234378
aF168.203
aF285.822
aVp1
p918
aS'utopia'
p919
aS'#656565'
p920
aF5.84878
aI0
aI00
aI00
aI00
aI00
aI00
aI00
aI00
aI00
aa(lp921
I190806
aF186.724
aF285.822
aVp1
p922
aS'utopia'
p923
aS'#656565'
p924
aF5.84878
aI0
aI00
aI00
aI00
aI00
aI00
aI00
aI00
aI00
aa(lp925
I106530
aF195.985
aF285.822
aVp1
p926
aS'utopia'
p927
aS'#656565'
p928
aF5.84878
aI0
aI00
aI00
aI00
aI00
aI00
aI00
aI00
aI00
aa(lp929
I234378
aF212.556
aF285.822
aVp1
p930
aS'utopia'
p931
aS'#656565'
p932
aF5.84878
aI0
aI00
aI00
aI00
aI00
aI00
aI00
aI00
aI00
aa(lp933
I234378
aF227.666
aF285.822
aVp1
p934
aS'utopia'
p935
aS'#656565'
p936
aF5.84878
aI0
aI00
aI00
aI00
aI00
aI00
aI00
aI00
aI00
aa(lp937
I234378
aF239.50816666666665
aF285.822
ag934
aS'utopia'
p938
aS'#656565'
p939
aF5.84878
aI0
aI00
aI00
aI00
aI00
aI00
aI00
aI00
aI00
aa(lp940
I234378
aF243.263
aF285.822
aVp1
p941
aS'utopia'
p942
aS'#656565'
p943
aF5.84878
aI0
aI00
aI00
aI00
aI00
aI00
aI00
aI00
aI00
aa(lp944
I85218
aF267.632
aF285.822
aVp1
p945
aS'utopia'
p946
aS'#656565'
p947
aF5.84878
aI0
aI00
aI00
aI00
aI00
aI00
aI00
aI00
aI00
aa(lp948
I210828
aF278.843
aF285.822
aVp1
p949
aS'utopia'
p950
aS'#656565'
p951
aF5.84878
aI0
aI00
aI00
aI00
aI00
aI00
aI00
aI00
aI00
aa(lp952
I74102
aF298.339
aF285.822
aVp1
p953
aS'utopia'
p954
aS'#656565'
p955
aF5.84878
aI0
aI00
aI00
aI00
aI00
aI00
aI00
aI00
aI00
aa(lp956
I190806
aF324.658
aF285.822
aVp1
p957
aS'utopia'
p958
aS'#656565'
p959
aF5.84878
aI0
aI00
aI00
aI00
aI00
aI00
aI00
aI00
aI00
aa(lp960
I234378
aF333.919
aF285.822
aVp1
p961
aS'utopia'
p962
aS'#656565'
p963
aF5.84878
aI0
aI00
aI00
aI00
aI00
aI00
aI00
aI00
aI00
aa(lp964
I234378
aF361.213
aF285.822
aVp1
p965
aS'utopia'
p966
aS'#656565'
p967
aF5.84878
aI0
aI00
aI00
aI00
aI00
aI00
aI00
aI00
aI00
aa(lp968
I234378
aF389.1967272727273
aF285.822
ag965
aS'utopia'
p969
aS'#656565'
p970
aF5.84878
aI0
aI00
aI00
aI00
aI00
aI00
aI00
aI00
aI00
aa(lp971
I173426
aF393.381
aF285.822
aVp1
p972
aS'utopia'
p973
aS'#656565'
p974
aF5.84878
aI0
aI01
aI00
aI00
aI00
aI00
aI00
aI00
aI00
aa(lp975
I101474
aF418.726
aF285.822
aVp1
p976
aS'utopia'
p977
aS'#656565'
p978
aF5.84878
aI0
aI00
aI00
aI00
aI00
aI00
aI00
aI00
aI00
aa(lp979
I234378
aF432.9335
aF285.822
ag976
aS'utopia'
p980
aS'#656565'
p981
aF5.84878
aI0
aI00
aI00
aI00
aI00
aI00
aI00
aI00
aI00
aa(lp982
I190806
aF446.508
aF285.822
aVp1
p983
aS'utopia'
p984
aS'#656565'
p985
aF5.84878
aI0
aI00
aI00
aI00
aI00
aI00
aI00
aI00
aI00
aa(lp986
I55097
aF455.768
aF285.822
aVp1
p987
aS'utopia'
p988
aS'#656565'
p989
aF5.84878
aI0
aI01
aI00
aI00
aI00
aI00
aI00
aI00
aI00
aa(lp990
I171360
aF485.499
aF285.822
aVp1
p991
aS'utopia'
p992
aS'#656565'
p993
aF5.84878
aI0
aI01
aI00
aI00
aI00
aI00
aI00
aI00
aI00
aa(lp994
I177958
aF510.357
aF285.822
aVp1
p995
aS'utopia'
p996
aS'#656565'
p997
aF5.84878
aI0
aI00
aI00
aI00
aI00
aI00
aI00
aI00
aI00
aa(lp998
I85218
aF530.34
aF285.822
aVp1
p999
aS'utopia'
p1000
aS'#656565'
p1001
aF5.84878
aI0
aI00
aI00
aI00
aI00
aI00
aI00
aI00
aI00
aa(lp1002
I170895
aF541.55
aF285.822
aVp1
p1003
aS'utopia'
p1004
aS'#656565'
p1005
aF5.84878
aI0
aI00
aI00
aI00
aI00
aI00
aI00
aI00
aI00
aa(lp1006
I129758
aF36.6058
aF292.646
aVp1
p1007
aS'utopia'
p1008
aS'#656565'
p1009
aF5.84878
aI0
aI00
aI00
aI00
aI00
aI00
aI00
aI00
aI00
aa(lp1010
I135639
aF66.337
aF292.646
aVp1
p1011
aS'utopia'
p1012
aS'#656565'
p1013
aF5.84878
aI0
aI00
aI00
aI00
aI00
aI00
aI00
aI00
aI00
aa(lp1014
I41890
aF72.6732
aF292.646
aVp1
p1015
aS'utopia'
p1016
aS'#656565'
p1017
aF5.84878
aI0
aI00
aI00
aI00
aI00
aI00
aI00
aI00
aI00
aa(lp1018
I234378
aF79.9842
aF292.646
aVp1
p1019
aS'utopia'
p1020
aS'#656565'
p1021
aF5.84878
aI0
aI00
aI00
aI00
aI00
aI00
aI00
aI00
aI00
aa(lp1022
I234378
aF108.201125
aF292.646
ag1019
aS'utopia'
p1023
aS'#656565'
p1024
aF5.84878
aI0
aI00
aI00
aI00
aI00
aI00
aI00
aI00
aI00
aa(lp1025
I173426
aF112.152
aF292.646
aVp1
p1026
aS'utopia'
p1027
aS'#656565'
p1028
aF5.84878
aI0
aI01
aI00
aI00
aI00
aI00
aI00
aI00
aI00
aa(lp1029
I85218
aF137.497
aF292.646
aVp1
p1030
aS'utopia'
p1031
aS'#656565'
p1032
aF5.84878
aI0
aI00
aI00
aI00
aI00
aI00
aI00
aI00
aI00
aa(lp1033
I234378
aF148.707
aF292.646
aVp1
p1034
aS'utopia'
p1035
aS'#656565'
p1036
aF5.84878
aI0
aI00
aI00
aI00
aI00
aI00
aI00
aI00
aI00
aa(lp1037
I86063
aF176.976
aF292.646
aVp1
p1038
aS'utopia'
p1039
aS'#656565'
p1040
aF5.84878
aI0
aI01
aI00
aI00
aI00
aI00
aI00
aI00
aI00
aa(lp1041
I15111
aF195.985
aF292.646
aVp1
p1042
aS'utopia'
p1043
aS'#656565'
p1044
aF5.84878
aI0
aI01
aI00
aI00
aI00
aI00
aI00
aI00
aI00
aa(lp1045
I55539
aF212.069
aF292.646
aVp1
p1046
aS'utopia'
p1047
aS'#656565'
p1048
aF5.84878
aI0
aI01
aI00
aI00
aI00
aI00
aI00
aI00
aI00
aa(lp1049
I120066
aF248.137
aF292.646
aVp1
p1050
aS'utopia'
p1051
aS'#656565'
p1052
aF5.84878
aI0
aI01
aI00
aI00
aI00
aI00
aI00
aI00
aI00
aa(lp1053
I234378
aF273.20893
aF292.646
ag1050
aS'utopia'
p1054
aS'#656565'
p1055
aF5.84878
aI0
aI00
aI00
aI00
aI00
aI00
aI00
aI00
aI00
aa(lp1056
I173426
aF277.38
aF292.646
aVp1
p1057
aS'utopia'
p1058
aS'#656565'
p1059
aF5.84878
aI0
aI01
aI00
aI00
aI00
aI00
aI00
aI00
aI00
aa(lp1060
I85218
aF302.725
aF292.646
aVp1
p1061
aS'utopia'
p1062
aS'#656565'
p1063
aF5.84878
aI0
aI00
aI00
aI00
aI00
aI00
aI00
aI00
aI00
aa(lp1064
I234378
aF313.935
aF292.646
aVp1
p1065
aS'utopia'
p1066
aS'#656565'
p1067
aF5.84878
aI0
aI00
aI00
aI00
aI00
aI00
aI00
aI00
aI00
aa(lp1068
I85218
aF342.204
aF292.646
aVp1
p1069
aS'utopia'
p1070
aS'#656565'
p1071
aF5.84878
aI0
aI00
aI00
aI00
aI00
aI00
aI00
aI00
aI00
aa(lp1072
I234378
aF353.414
aF292.646
aVp1
p1073
aS'utopia'
p1074
aS'#656565'
p1075
aF5.84878
aI0
aI01
aI00
aI00
aI00
aI00
aI00
aI00
aI00
aa(lp1076
I192957
aF381.684
aF292.646
aVp1
p1077
aS'utopia'
p1078
aS'#656565'
p1079
aF5.84878
aI0
aI00
aI00
aI00
aI00
aI00
aI00
aI00
aI00
aa(lp1080
I8036
aF393.381
aF292.646
aVp1
p1081
aS'utopia'
p1082
aS'#656565'
p1083
aF5.84878
aI0
aI00
aI00
aI00
aI00
aI00
aI00
aI00
aI00
aa(lp1084
I94749
aF409.465
aF292.646
aVp1
p1085
aS'utopia'
p1086
aS'#656565'
p1087
aF5.84878
aI0
aI00
aI00
aI00
aI00
aI00
aI00
aI00
aI00
aa(lp1088
I85218
aF423.112
aF292.646
aVp1
p1089
aS'utopia'
p1090
aS'#656565'
p1091
aF5.84878
aI0
aI00
aI00
aI00
aI00
aI00
aI00
aI00
aI00
aa(lp1092
I86063
aF434.323
aF292.646
aVp1
p1093
aS'utopia'
p1094
aS'#656565'
p1095
aF5.84878
aI0
aI01
aI00
aI00
aI00
aI00
aI00
aI00
aI00
aa(lp1096
I15111
aF453.331
aF292.646
aVp1
p1097
aS'utopia'
p1098
aS'#656565'
p1099
aF5.84878
aI0
aI01
aI00
aI00
aI00
aI00
aI00
aI00
aI00
aa(lp1100
I234378
aF469.415
aF292.646
aVp1
p1101
aS'utopia'
p1102
aS'#656565'
p1103
aF5.84878
aI0
aI00
aI00
aI00
aI00
aI00
aI00
aI00
aI00
aa(lp1104
I94749
aF490.373
aF292.646
aVp1
p1105
aS'utopia'
p1106
aS'#656565'
p1107
aF5.84878
aI0
aI00
aI00
aI00
aI00
aI00
aI00
aI00
aI00
aa(lp1108
I234378
aF501.35156
aF292.646
ag1105
aS'utopia'
p1109
aS'#656565'
p1110
aF5.84878
aI0
aI00
aI00
aI00
aI00
aI00
aI00
aI00
aI00
aa(lp1111
I234378
aF505.483
aF292.646
aVp1
p1112
aS'utopia'
p1113
aS'#656565'
p1114
aF5.84878
aI0
aI01
aI00
aI00
aI00
aI00
aI00
aI00
aI00
aa(lp1115
I123583
aF530.34
aF292.646
aVp1
p1116
aS'utopia'
p1117
aS'#656565'
p1118
aF5.84878
aI0
aI00
aI00
aI00
aI00
aI00
aI00
aI00
aI00
aa(lp1119
I144483
aF36.6058
aF299.469
aVp1
p1120
aS'utopia'
p1121
aS'#656565'
p1122
aF5.84878
aI0
aI00
aI00
aI00
aI00
aI00
aI00
aI00
aI00
aa(lp1123
I194354
aF44.8915
aF299.469
aVp1
p1124
aS'utopia'
p1125
aS'#656565'
p1126
aF5.84878
aI0
aI00
aI00
aI00
aI00
aI00
aI00
aI00
aI00
aa(lp1127
I29440
aF54.6395
aF299.469
aVp1
p1128
aS'utopia'
p1129
aS'#656565'
p1130
aF5.84878
aI0
aI00
aI00
aI00
aI00
aI00
aI00
aI00
aI00
aa(lp1131
I70210
aF74.6228
aF299.469
aVp1
p1132
aS'utopia'
p1133
aS'#656565'
p1134
aF5.84878
aI0
aI00
aI00
aI00
aI00
aI00
aI00
aI00
aI00
aa(lp1135
I192957
aF87.7826
aF299.469
aVp1
p1136
aS'utopia'
p1137
aS'#656565'
p1138
aF5.84878
aI0
aI00
aI00
aI00
aI00
aI00
aI00
aI00
aI00
aa(lp1139
I8036
aF99.4801
aF299.469
aVp1
p1140
aS'utopia'
p1141
aS'#656565'
p1142
aF5.84878
aI0
aI00
aI00
aI00
aI00
aI00
aI00
aI00
aI00
aa(lp1143
I94749
aF115.564
aF299.469
aVp1
p1144
aS'utopia'
p1145
aS'#656565'
p1146
aF5.84878
aI0
aI00
aI00
aI00
aI00
aI00
aI00
aI00
aI00
aa(lp1147
I234378
aF126.54256
aF299.469
ag1144
aS'utopia'
p1148
aS'#656565'
p1149
aF5.84878
aI0
aI00
aI00
aI00
aI00
aI00
aI00
aI00
aI00
aa(lp1150
I48671
aF36.6058
aF306.293
aVp1
p1151
aS'utopia'
p1152
aS'#656565'
p1153
aF5.84878
aI0
aI01
aI00
aI00
aI00
aI00
aI00
aI00
aI00
aa(lp1154
I129688
aF55.1269
aF306.293
aVp1
p1155
aS'utopia'
p1156
aS'#656565'
p1157
aF5.84878
aI0
aI01
aI00
aI00
aI00
aI00
aI00
aI00
aI00
aa(lp1158
I234378
aF73.648
aF306.293
aVp1
p1159
aS'utopia'
p1160
aS'#656565'
p1161
aF5.84878
aI0
aI00
aI00
aI00
aI00
aI00
aI00
aI00
aI00
aa(lp1162
I234378
aF76.5724
aF306.293
aVp1
p1163
aS'utopia'
p1164
aS'#656565'
p1165
aF5.84878
aI0
aI00
aI00
aI01
aI01
aI00
aI00
aI00
aI00
aa(lp1166
I234378
aF80.959
aF306.293
aVp1
p1167
aS'utopia'
p1168
aS'#656565'
p1169
aF5.84878
aI0
aI01
aI00
aI00
aI00
aI00
aI00
aI00
aI00
aa(lp1170
I31016
aF36.6058
aF328.156
aVp1
p1171
aS'utopia'
p1172
aS'#000000'
p1173
aF6.82357
aI1
aI01
aI00
aI00
aI00
aI00
aI00
aI00
aI00
aa(lp1174
I4685
aF62.9253
aF328.156
aVp1
p1175
aS'utopia'
p1176
aS'#000000'
p1177
aF6.82357
aI1
aI01
aI00
aI00
aI00
aI00
aI00
aI00
aI00
aa(lp1178
I84828
aF87.7826
aF328.156
aVp1
p1179
aS'utopia'
p1180
aS'#000000'
p1181
aF6.82357
aI1
aI01
aI00
aI00
aI00
aI00
aI00
aI00
aI00
aa(lp1182
I234378
aF122.388
aF328.156
aVp1
p1183
aS'utopia'
p1184
aS'#000000'
p1185
aF6.82357
aI1
aI01
aI00
aI00
aI00
aI00
aI00
aI00
aI00
aa(lp1186
I83140
aF149.195
aF328.156
aVp1
p1187
aS'utopia'
p1188
aS'#000000'
p1189
aF6.82357
aI1
aI01
aI00
aI00
aI00
aI00
aI00
aI00
aI00
aa(lp1190
I40036
aF173.077
aF328.156
aVp1
p1191
aS'utopia'
p1192
aS'#000000'
p1193
aF6.82357
aI1
aI01
aI00
aI00
aI00
aI00
aI00
aI00
aI00
aa(lp1194
I55966
aF36.6058
aF339.056
aVp1
p1195
aS'utopia'
p1196
aS'#656565'
p1197
aF6.82357
aI0
aI01
aI00
aI00
aI00
aI00
aI00
aI00
aI00
aa(lp1198
I11208
aF58.0513
aF339.056
aVp1
p1199
aS'utopia'
p1200
aS'#656565'
p1201
aF6.82357
aI0
aI01
aI00
aI00
aI00
aI00
aI00
aI00
aI00
aa(lp1202
I37515
aF91.1943
aF339.056
aVp1
p1203
aS'utopia'
p1204
aS'#656565'
p1205
aF6.82357
aI0
aI01
aI00
aI00
aI00
aI00
aI00
aI00
aI01
aa(lp1206
I234378
aF105.816
aF339.056
aVp1
p1207
aS'utopia'
p1208
aS'#656565'
p1209
aF6.82357
aI0
aI00
aI00
aI01
aI01
aI01
aI00
aI00
aI00
aa(lp1210
I89480
aF120.926
aF339.056
aVp1
p1211
aS'utopia'
p1212
aS'#656565'
p1213
aF6.82357
aI0
aI01
aI00
aI00
aI00
aI00
aI00
aI00
aI00
aa(lp1214
I27216
aF130.674
aF339.056
aVp1
p1215
aS'utopia'
p1216
aS'#656565'
p1217
aF6.82357
aI0
aI01
aI00
aI00
aI00
aI00
aI00
aI00
aI01
aa(lp1218
I234378
aF142.859
aF339.056
aVp1
p1219
aS'utopia'
p1220
aS'#656565'
p1221
aF6.82357
aI0
aI00
aI00
aI01
aI01
aI01
aI00
aI00
aI00
aa(lp1222
I55966
aF36.6058
aF352.108
aVp1
p1223
aS'utopia'
p1224
aS'#656565'
p1225
aF5.84878
aI0
aI01
aI00
aI00
aI00
aI00
aI00
aI00
aI00
aa(lp1226
I234378
aF55.42314090909092
aF352.108
ag1223
aS'utopia'
p1227
aS'#656565'
p1228
aF5.84878
aI0
aI00
aI00
aI00
aI00
aI00
aI00
aI00
aI00
aa(lp1229
I132100
aF80.17959545454546
aF352.108
ag1223
aS'utopia'
p1230
aS'#656565'
p1231
aF5.84878
aI0
aI00
aI00
aI00
aI00
aI00
aI00
aI00
aI00
aa(lp1232
I105322
aF104.93605000000001
aF352.108
ag1223
aS'utopia'
p1233
aS'#656565'
p1234
aF5.84878
aI0
aI00
aI00
aI00
aI00
aI00
aI00
aI00
aI00
aa(lp1235
I135639
aF114.69250454545457
aF352.108
ag1223
aS'utopia'
p1236
aS'#656565'
p1237
aF5.84878
aI0
aI00
aI00
aI00
aI00
aI00
aI00
aI00
aI00
aa(lp1238
I144690
aF136.63161818181823
aF352.108
ag1223
aS'utopia'
p1239
aS'#656565'
p1240
aF5.84878
aI0
aI00
aI00
aI00
aI00
aI00
aI00
aI00
aI00
aa(lp1241
I234378
aF155.44895909090914
aF352.108
ag1223
aS'utopia'
p1242
aS'#656565'
p1243
aF5.84878
aI0
aI00
aI01
aI01
aI00
aI00
aI00
aI00
aI00
aa(lp1244
I68032
aF162.38807272727277
aF352.108
ag1223
aS'utopia'
p1245
aS'#656565'
p1246
aF5.84878
aI0
aI00
aI00
aI00
aI00
aI00
aI00
aI00
aI00
aa(lp1247
I234378
aF181.0531977272728
aF352.108
ag1223
aS'utopia'
p1248
aS'#656565'
p1249
aF5.84878
aI0
aI00
aI01
aI01
aI00
aI00
aI00
aI00
aI00
aa(lp1250
I125078
aF203.99231136363642
aF352.108
ag1223
aS'utopia'
p1251
aS'#656565'
p1252
aF5.84878
aI0
aI00
aI00
aI00
aI00
aI00
aI00
aI00
aI00
aa(lp1253
I85218
aF225.77920909090915
aF352.108
ag1223
aS'utopia'
p1254
aS'#656565'
p1255
aF5.84878
aI0
aI00
aI00
aI00
aI00
aI00
aI00
aI00
aI00
aa(lp1256
I233284
aF235.6878795454546
aF352.108
ag1223
aS'utopia'
p1257
aS'#656565'
p1258
aF5.84878
aI0
aI00
aI00
aI00
aI00
aI00
aI00
aI00
aI00
aa(lp1259
I147316
aF248.56610681818188
aF352.108
ag1223
aS'utopia'
p1260
aS'#656565'
p1261
aF5.84878
aI0
aI00
aI00
aI00
aI00
aI00
aI00
aI00
aI00
aa(lp1262
I234378
aF269.3530045454546
aF352.108
ag1223
aS'utopia'
p1263
aS'#656565'
p1264
aF5.84878
aI0
aI00
aI00
aI00
aI00
aI00
aI00
aI00
aI00
aa(lp1265
I234378
aF36.6058
aF373.971
aVp1
p1266
aS'utopia'
p1267
aS'#000000'
p1268
aF6.82357
aI1
aI01
aI00
aI00
aI00
aI00
aI00
aI00
aI00
aa(lp1269
I234378
aF62.4379
aF373.971
aVp1
p1270
aS'utopia'
p1271
aS'#000000'
p1272
aF6.82357
aI1
aI01
aI00
aI00
aI00
aI00
aI00
aI00
aI00
aa(lp1273
I164802
aF105.329
aF373.971
aVp1
p1274
aS'utopia'
p1275
aS'#000000'
p1276
aF6.82357
aI1
aI01
aI00
aI00
aI00
aI00
aI00
aI00
aI00
aa(lp1277
I83140
aF123.363
aF373.971
aVp1
p1278
aS'utopia'
p1279
aS'#000000'
p1280
aF6.82357
aI1
aI01
aI00
aI00
aI00
aI00
aI00
aI00
aI00
aa(lp1281
I40036
aF147.245
aF373.971
aVp1
p1282
aS'utopia'
p1283
aS'#000000'
p1284
aF6.82357
aI1
aI01
aI00
aI00
aI00
aI00
aI00
aI00
aI00
aa(lp1285
I55966
aF36.6058
aF384.871
aVp1
p1286
aS'utopia'
p1287
aS'#656565'
p1288
aF6.82357
aI0
aI01
aI00
aI00
aI00
aI00
aI00
aI00
aI00
aa(lp1289
I234378
aF58.0513
aF384.871
aVp1
p1290
aS'utopia'
p1291
aS'#656565'
p1292
aF6.82357
aI0
aI01
aI00
aI00
aI00
aI00
aI00
aI00
aI00
aa(lp1293
I100815
aF86.3204
aF384.871
aVp1
p1294
aS'utopia'
p1295
aS'#656565'
p1296
aF6.82357
aI0
aI01
aI00
aI00
aI00
aI00
aI00
aI00
aI00
aa(lp1297
I27216
aF122.388
aF384.871
aVp1
p1298
aS'utopia'
p1299
aS'#656565'
p1300
aF6.82357
aI0
aI01
aI00
aI00
aI00
aI00
aI00
aI00
aI01
aa(lp1301
I234378
aF134.573
aF384.871
aVp1
p1302
aS'utopia'
p1303
aS'#656565'
p1304
aF6.82357
aI0
aI00
aI00
aI01
aI01
aI01
aI00
aI00
aI00
aa(lp1305
I89480
aF149.682
aF384.871
aVp1
p1306
aS'utopia'
p1307
aS'#656565'
p1308
aF6.82357
aI0
aI01
aI00
aI00
aI00
aI00
aI00
aI00
aI00
aa(lp1309
I37515
aF159.43
aF384.871
aVp1
p1310
aS'utopia'
p1311
aS'#656565'
p1312
aF6.82357
aI0
aI01
aI00
aI00
aI00
aI00
aI00
aI00
aI01
aa(lp1313
I234378
aF174.052
aF384.871
aVp1
p1314
aS'utopia'
p1315
aS'#656565'
p1316
aF6.82357
aI0
aI00
aI00
aI01
aI01
aI01
aI00
aI00
aI00
aa(lp1317
I125458
aF36.6058
aF397.924
aVp1
p1318
aS'utopia'
p1319
aS'#656565'
p1320
aF5.84878
aI0
aI01
aI00
aI00
aI00
aI00
aI00
aI00
aI00
aa(lp1321
I144483
aF56.32813532934132
aF397.924
ag1318
aS'utopia'
p1322
aS'#656565'
p1323
aF5.84878
aI0
aI00
aI00
aI00
aI00
aI00
aI00
aI00
aI00
aa(lp1324
I84662
aF63.5689137724551
aF397.924
ag1318
aS'utopia'
p1325
aS'#656565'
p1326
aF5.84878
aI0
aI01
aI00
aI00
aI00
aI00
aI00
aI00
aI00
aa(lp1327
I21716
aF77.05047065868264
aF397.924
ag1318
aS'utopia'
p1328
aS'#656565'
p1329
aF5.84878
aI0
aI01
aI00
aI00
aI00
aI00
aI00
aI00
aI00
aa(lp1330
I234378
aF90.53202754491019
aF397.924
ag1318
aS'utopia'
p1331
aS'#656565'
p1332
aF5.84878
aI0
aI00
aI01
aI01
aI00
aI00
aI00
aI00
aI00
aa(lp1333
I234378
aF107.13397365269462
aF397.924
ag1318
aS'utopia'
p1334
aS'#656565'
p1335
aF5.84878
aI0
aI00
aI00
aI01
aI00
aI00
aI00
aI00
aI00
aa(lp1336
I234378
aF139.3378658682635
aF397.924
ag1318
aS'utopia'
p1337
aS'#656565'
p1338
aF5.84878
aI0
aI00
aI01
aI01
aI00
aI00
aI00
aI00
aI00
aa(lp1339
I234378
aF155.93981197604793
aF397.924
ag1318
aS'utopia'
p1340
aS'#656565'
p1341
aF5.84878
aI0
aI00
aI00
aI01
aI00
aI00
aI00
aI00
aI00
aa(lp1342
I234378
aF166.3009796407186
aF397.924
ag1318
aS'utopia'
p1343
aS'#656565'
p1344
aF5.84878
aI0
aI00
aI01
aI01
aI00
aI00
aI00
aI00
aI00
aa(lp1345
I234378
aF182.90292574850304
aF397.924
ag1318
aS'utopia'
p1346
aS'#656565'
p1347
aF5.84878
aI0
aI00
aI01
aI01
aI00
aI00
aI00
aI00
aI00
aa(lp1348
I234378
aF202.62526107784436
aF397.924
ag1318
aS'utopia'
p1349
aS'#656565'
p1350
aF5.84878
aI0
aI00
aI00
aI01
aI00
aI00
aI00
aI00
aI00
aa(lp1351
I234378
aF228.58837485029946
aF397.924
ag1318
aS'utopia'
p1352
aS'#656565'
p1353
aF5.84878
aI0
aI00
aI01
aI01
aI00
aI00
aI00
aI00
aI00
aa(lp1354
I234378
aF254.55148862275456
aF397.924
ag1318
aS'utopia'
p1355
aS'#656565'
p1356
aF5.84878
aI0
aI00
aI00
aI01
aI00
aI00
aI00
aI00
aI00
aa(lp1357
I234378
aF280.51460239520964
aF397.924
ag1318
aS'utopia'
p1358
aS'#656565'
p1359
aF5.84878
aI0
aI00
aI00
aI01
aI00
aI00
aI00
aI00
aI00
aa(lp1360
I234378
aF297.1165485029941
aF397.924
ag1318
aS'utopia'
p1361
aS'#656565'
p1362
aF5.84878
aI0
aI00
aI00
aI01
aI00
aI00
aI00
aI00
aI00
aa(lp1363
I234378
aF319.9592730538923
aF397.924
ag1318
aS'utopia'
p1364
aS'#656565'
p1365
aF5.84878
aI0
aI00
aI00
aI00
aI00
aI00
aI00
aI00
aI00
aa(lp1366
I234378
aF348.0427760479042
aF397.924
ag1318
aS'utopia'
p1367
aS'#656565'
p1368
aF5.84878
aI0
aI00
aI00
aI00
aI00
aI00
aI00
aI00
aI00
aa(lp1369
I62551
aF352.1631652694611
aF397.924
ag1318
aS'utopia'
p1370
aS'#656565'
p1371
aF5.84878
aI0
aI01
aI00
aI00
aI00
aI00
aI00
aI00
aI00
aa(lp1372
I38577
aF365.64472215568867
aF397.924
ag1318
aS'utopia'
p1373
aS'#656565'
p1374
aF5.84878
aI0
aI00
aI00
aI00
aI00
aI00
aI00
aI00
aI00
aa(lp1375
I184171
aF379.12627904191623
aF397.924
ag1318
aS'utopia'
p1376
aS'#656565'
p1377
aF5.84878
aI0
aI00
aI00
aI00
aI00
aI00
aI00
aI00
aI00
aa(lp1378
I104909
aF414.450560479042
aF397.924
ag1318
aS'utopia'
p1379
aS'#656565'
p1380
aF5.84878
aI0
aI00
aI00
aI00
aI00
aI00
aI00
aI00
aI00
aa(lp1381
I144483
aF312.89523113772464
aF397.924
ag1318
aS'utopia'
p1382
aS'#656565'
p1383
aF5.84878
aI0
aI00
aI00
aI00
aI00
aI00
aI00
aI00
aI00
aa(lp1384
I169899
aF460.1360095808384
aF397.924
ag1318
aS'utopia'
p1385
aS'#656565'
p1386
aF5.84878
aI0
aI00
aI00
aI00
aI00
aI00
aI00
aI00
aI00
aa(lp1387
I234378
aF486.09912335329346
aF397.924
ag1318
aS'utopia'
p1388
aS'#656565'
p1389
aF5.84878
aI0
aI00
aI00
aI00
aI00
aI00
aI00
aI00
aI00
aa(lp1390
I234378
aF451.94184790419166
aF397.924
ag1318
aS'utopia'
p1391
aS'#656565'
p1392
aF5.84878
aI0
aI00
aI00
aI00
aI00
aI00
aI00
aI00
aI00
aa(lp1393
I124531
aF36.1184
aF421.33
aVp1
p1394
aS'utopia'
p1395
aS'#02304b'
p1396
aF7.79837
aI1
aI01
aI00
aI00
aI00
aI00
aI00
aI00
aI00
aa(lp1397
I234378
aF36.6058
aF439.947
aVp1
p1398
aS'utopia'
p1399
aS'#656565'
p1400
aF6.82357
aI0
aI01
aI00
aI00
aI00
aI00
aI00
aI00
aI00
aa(lp1401
I234378
aF86.8078
aF439.947
aVp1
p1402
aS'utopia'
p1403
aS'#656565'
p1404
aF6.82357
aI0
aI00
aI00
aI00
aI00
aI00
aI00
aI00
aI00
aa(lp1405
I60201
aF90.7069
aF439.947
aVp1
p1406
aS'utopia'
p1407
aS'#656565'
p1408
aF6.82357
aI0
aI01
aI00
aI00
aI00
aI00
aI00
aI00
aI00
aa(lp1409
I230071
aF103.867
aF439.947
aVp1
p1410
aS'utopia'
p1411
aS'#656565'
p1412
aF6.82357
aI0
aI01
aI00
aI00
aI00
aI00
aI00
aI00
aI00
aa(lp1413
I234378
aF121.413
aF439.947
aVp1
p1414
aS'utopia'
p1415
aS'#656565'
p1416
aF6.82357
aI0
aI00
aI00
aI00
aI00
aI00
aI00
aI00
aI00
aa(lp1417
I27780
aF36.6058
aF450.492
aVp1
p1418
aS'utopia'
p1419
aS'#000000'
p1420
aF6.82357
aI1
aI01
aI01
aI00
aI00
aI00
aI00
aI00
aI00
aa(lp1421
I234378
aF40.057109090909094
aF450.492
ag1418
aS'utopia'
p1422
aS'#000000'
p1423
aF6.82357
aI1
aI00
aI00
aI00
aI00
aI00
aI00
aI00
aI00
aa(lp1424
I2737
aF43.508418181818186
aF450.492
ag1418
aS'utopia'
p1425
aS'#000000'
p1426
aF6.82357
aI1
aI01
aI00
aI00
aI00
aI00
aI00
aI00
aI00
aa(lp1427
I234378
aF57.31365454545455
aF450.492
ag1418
aS'utopia'
p1428
aS'#000000'
p1429
aF6.82357
aI1
aI00
aI00
aI00
aI00
aI00
aI00
aI00
aI00
aa(lp1430
I27780
aF53.76496363636364
aF450.492
ag1418
aS'utopia'
p1431
aS'#000000'
p1432
aF6.82357
aI1
aI01
aI01
aI00
aI00
aI00
aI00
aI00
aI00
aa(lp1433
I234378
aF57.21627272727273
aF450.492
ag1418
aS'utopia'
p1434
aS'#000000'
p1435
aF6.82357
aI1
aI00
aI00
aI00
aI00
aI00
aI00
aI00
aI00
aa(lp1436
I64620
aF67.66758181818182
aF450.492
ag1418
aS'utopia'
p1437
aS'#000000'
p1438
aF6.82357
aI1
aI01
aI01
aI00
aI00
aI00
aI00
aI00
aI00
aa(lp1439
I234378
aF62.11889090909091
aF450.492
ag1418
aS'utopia'
p1440
aS'#000000'
p1441
aF6.82357
aI1
aI00
aI00
aI00
aI00
aI00
aI00
aI00
aI00
aa(lp1442
I234378
aF76.085
aF450.492
aVp1
p1443
aS'utopia'
p1444
aS'#000000'
p1445
aF6.82357
aI1
aI00
aI00
aI00
aI00
aI00
aI00
aI00
aI00
aa(lp1446
I74911
aF79.53179999999999
aF450.492
ag1443
aS'utopia'
p1447
aS'#000000'
p1448
aF6.82357
aI1
aI01
aI00
aI00
aI00
aI00
aI00
aI00
aI00
aa(lp1449
I43052
aF118.976
aF450.492
aVp1
p1450
aS'utopia'
p1451
aS'#000000'
p1452
aF6.82357
aI1
aI01
aI00
aI00
aI00
aI00
aI00
aI00
aI00
aa(lp1453
I234378
aF154.45327272727272
aF450.492
ag1450
aS'utopia'
p1454
aS'#000000'
p1455
aF6.82357
aI1
aI00
aI00
aI00
aI00
aI00
aI00
aI00
aI00
aa(lp1456
I204418
aF36.6058
aF463.83
aVp1
p1457
aS'utopia'
p1458
aS'#656565'
p1459
aF6.82357
aI0
aI01
aI00
aI00
aI00
aI00
aI00
aI00
aI00
aa(lp1460
I153079
aF60.9757
aF463.83
aVp1
p1461
aS'utopia'
p1462
aS'#656565'
p1463
aF6.82357
aI0
aI01
aI00
aI00
aI00
aI00
aI00
aI00
aI00
aa(lp1464
I144489
aF94.1187
aF463.83
aVp1
p1465
aS'utopia'
p1466
aS'#656565'
p1467
aF6.82357
aI0
aI00
aI00
aI00
aI00
aI00
aI00
aI00
aI00
aa(lp1468
I192028
aF101.43
aF463.83
aVp1
p1469
aS'utopia'
p1470
aS'#656565'
p1471
aF6.82357
aI0
aI01
aI00
aI00
aI00
aI00
aI00
aI00
aI00
aa(lp1472
I85218
aF126.774
aF463.83
aVp1
p1473
aS'utopia'
p1474
aS'#656565'
p1475
aF6.82357
aI0
aI00
aI00
aI00
aI00
aI00
aI00
aI00
aI00
aa(lp1476
I43052
aF139.934
aF463.83
aVp1
p1477
aS'utopia'
p1478
aS'#656565'
p1479
aF6.82357
aI0
aI01
aI00
aI00
aI00
aI00
aI00
aI00
aI00
aa(lp1480
I234378
aF177.951
aF463.83
aVp1
p1481
aS'utopia'
p1482
aS'#656565'
p1483
aF6.82357
aI0
aI00
aI00
aI00
aI00
aI00
aI00
aI00
aI00
aa(lp1484
I234378
aF181.83865
aF463.83
ag1481
aS'utopia'
p1485
aS'#656565'
p1486
aF6.82357
aI0
aI01
aI01
aI00
aI00
aI00
aI00
aI00
aI00
aa(lp1487
I234378
aF197.38925
aF463.83
ag1481
aS'utopia'
p1488
aS'#656565'
p1489
aF6.82357
aI0
aI00
aI00
aI00
aI00
aI00
aI00
aI00
aI00
aa(lp1490
I135639
aF205.733
aF463.83
aVp1
p1491
aS'utopia'
p1492
aS'#656565'
p1493
aF6.82357
aI0
aI00
aI00
aI00
aI00
aI00
aI00
aI00
aI00
aa(lp1494
I234378
aF213.531
aF463.83
aVp1
p1495
aS'utopia'
p1496
aS'#656565'
p1497
aF6.82357
aI0
aI00
aI00
aI01
aI01
aI01
aI00
aI00
aI00
aa(lp1498
I22476
aF36.1184
aF486.154
aVp1
p1499
aS'utopia'
p1500
aS'#02304b'
p1501
aF7.79837
aI1
aI01
aI01
aI00
aI00
aI00
aI00
aI00
aI00
aa(lp1502
I234378
aF45.3789
aF486.154
aVp1
p1503
aS'utopia'
p1504
aS'#02304b'
p1505
aF7.79837
aI1
aI01
aI00
aI00
aI00
aI00
aI00
aI00
aI00
aa(lp1506
I109610
aF41.4797
aF504.512
aVp1
p1507
aS'utopia'
p1508
aS'#000000'
p1509
aF5.84878
aI1
aI01
aI00
aI00
aI00
aI00
aI00
aI00
aI00
aa(lp1510
I158577
aF55.6143
aF504.512
aVp1
p1511
aS'utopia'
p1512
aS'#000000'
p1513
aF5.84878
aI1
aI01
aI00
aI00
aI00
aI00
aI00
aI00
aI00
aa(lp1514
I194179
aF133.598
aF504.512
aVp1
p1515
aS'utopia'
p1516
aS'#000000'
p1517
aF5.84878
aI1
aI01
aI00
aI00
aI00
aI00
aI00
aI00
aI00
aa(lp1518
I177981
aF210.607
aF504.512
aVp1
p1519
aS'utopia'
p1520
aS'#000000'
p1521
aF5.84878
aI1
aI01
aI00
aI00
aI00
aI00
aI00
aI00
aI00
aa(lp1522
I25729
aF223.279
aF504.512
aVp1
p1523
aS'utopia'
p1524
aS'#000000'
p1525
aF5.84878
aI1
aI01
aI00
aI00
aI00
aI00
aI00
aI00
aI00
aa(lp1526
I60220
aF281.28
aF504.512
aVp1
p1527
aS'utopia'
p1528
aS'#000000'
p1529
aF5.84878
aI1
aI01
aI00
aI00
aI00
aI00
aI00
aI00
aI00
aa(lp1530
I234378
aF41.4797
aF516.849
aVp1
p1531
aS'utopia'
p1532
aS'#656565'
p1533
aF5.84878
aI0
aI01
aI00
aI00
aI00
aI00
aI00
aI00
aI00
aa(lp1534
I234378
aF133.598
aF516.849
aVp1
p1535
aS'utopia'
p1536
aS'#656565'
p1537
aF5.84878
aI0
aI00
aI00
aI01
aI01
aI00
aI00
aI00
aI00
aa(lp1538
I234378
aF218.405
aF516.849
aVp1
p1539
aS'utopia'
p1540
aS'#656565'
p1541
aF5.84878
aI0
aI00
aI00
aI01
aI01
aI01
aI00
aI00
aI00
aa(lp1542
I234378
aF287.616
aF516.849
aVp1
p1543
aS'utopia'
p1544
aS'#656565'
p1545
aF5.84878
aI0
aI00
aI00
aI01
aI01
aI00
aI00
aI00
aI00
aa(lp1546
I234378
aF292.002
aF516.849
aVp1
p1547
aS'utopia'
p1548
aS'#656565'
p1549
aF5.84878
aI0
aI01
aI00
aI00
aI00
aI00
aI00
aI00
aI00
aa(lp1550
I45445
aF41.4797
aF529.034
aVp1
p1551
aS'utopia'
p1552
aS'#656565'
p1553
aF5.84878
aI0
aI01
aI00
aI00
aI00
aI00
aI00
aI00
aI00
aa(lp1554
I234378
aF60.0009
aF529.034
aVp1
p1555
aS'utopia'
p1556
aS'#656565'
p1557
aF5.84878
aI0
aI01
aI00
aI00
aI00
aI00
aI00
aI00
aI00
aa(lp1558
I234378
aF133.598
aF529.034
aVp1
p1559
aS'utopia'
p1560
aS'#656565'
p1561
aF5.84878
aI0
aI00
aI00
aI01
aI01
aI01
aI00
aI00
aI00
aa(lp1562
I234378
aF218.405
aF529.034
aVp1
p1563
aS'utopia'
p1564
aS'#656565'
p1565
aF5.84878
aI0
aI00
aI00
aI01
aI01
aI01
aI00
aI00
aI00
aa(lp1566
I234378
aF274.943
aF529.034
aVp1
p1567
aS'utopia'
p1568
aS'#656565'
p1569
aF5.84878
aI0
aI00
aI00
aI01
aI01
aI00
aI00
aI00
aI00
aa(lp1570
I234378
aF279.33
aF529.034
aVp1
p1571
aS'utopia'
p1572
aS'#656565'
p1573
aF5.84878
aI0
aI01
aI00
aI00
aI00
aI00
aI00
aI00
aI00
aa(lp1574
I234378
aF294.927
aF529.034
aVp1
p1575
aS'utopia'
p1576
aS'#656565'
p1577
aF5.84878
aI0
aI00
aI00
aI01
aI01
aI00
aI00
aI00
aI00
aa(lp1578
I234378
aF299.313
aF529.034
aVp1
p1579
aS'utopia'
p1580
aS'#656565'
p1581
aF5.84878
aI0
aI01
aI00
aI00
aI00
aI00
aI00
aI00
aI00
aa(lp1582
I234378
aF41.4797
aF541.219
aVp1
p1583
aS'utopia'
p1584
aS'#656565'
p1585
aF5.84878
aI0
aI01
aI01
aI00
aI00
aI00
aI00
aI00
aI00
aa(lp1586
I234378
aF48.26363333333333
aF541.219
ag1583
aS'utopia'
p1587
aS'#656565'
p1588
aF5.84878
aI0
aI00
aI00
aI00
aI00
aI00
aI00
aI00
aI00
aa(lp1589
I234378
aF51.6556
aF541.219
ag1583
aS'utopia'
p1590
aS'#656565'
p1591
aF5.84878
aI0
aI01
aI01
aI00
aI00
aI00
aI00
aI00
aI00
aa(lp1592
I234378
aF218.405
aF541.219
aVp1
p1593
aS'utopia'
p1594
aS'#656565'
p1595
aF5.84878
aI0
aI00
aI00
aI01
aI01
aI01
aI00
aI00
aI00
aa(lp1596
I234378
aF287.616
aF541.219
aVp1
p1597
aS'utopia'
p1598
aS'#656565'
p1599
aF5.84878
aI0
aI00
aI00
aI01
aI01
aI00
aI00
aI00
aI00
aa(lp1600
I234378
aF292.002
aF541.219
aVp1
p1601
aS'utopia'
p1602
aS'#656565'
p1603
aF5.84878
aI0
aI01
aI00
aI00
aI00
aI00
aI00
aI00
aI00
aa(lp1604
I234378
aF41.4797
aF553.404
aVp1
p1605
aS'utopia'
p1606
aS'#656565'
p1607
aF5.84878
aI0
aI01
aI01
aI00
aI00
aI00
aI00
aI00
aI00
aa(lp1608
I234378
aF218.405
aF553.404
aVp1
p1609
aS'utopia'
p1610
aS'#656565'
p1611
aF5.84878
aI0
aI00
aI00
aI01
aI01
aI01
aI00
aI00
aI00
aa(lp1612
I234378
aF274.943
aF553.404
aVp1
p1613
aS'utopia'
p1614
aS'#656565'
p1615
aF5.84878
aI0
aI00
aI00
aI01
aI01
aI00
aI00
aI00
aI00
aa(lp1616
I234378
aF279.33
aF553.404
aVp1
p1617
aS'utopia'
p1618
aS'#656565'
p1619
aF5.84878
aI0
aI01
aI00
aI00
aI00
aI00
aI00
aI00
aI00
aa(lp1620
I234378
aF294.927
aF553.404
aVp1
p1621
aS'utopia'
p1622
aS'#656565'
p1623
aF5.84878
aI0
aI00
aI00
aI01
aI01
aI00
aI00
aI00
aI00
aa(lp1624
I234378
aF299.313
aF553.404
aVp1
p1625
aS'utopia'
p1626
aS'#656565'
p1627
aF5.84878
aI0
aI01
aI00
aI00
aI00
aI00
aI00
aI00
aI00
aa(lp1628
I234378
aF41.4797
aF565.589
aVp1
p1629
aS'utopia'
p1630
aS'#656565'
p1631
aF5.84878
aI0
aI01
aI00
aI00
aI00
aI00
aI00
aI00
aI00
aa(lp1632
I234378
aF218.405
aF565.589
aVp1
p1633
aS'utopia'
p1634
aS'#656565'
p1635
aF5.84878
aI0
aI00
aI00
aI01
aI01
aI01
aI00
aI00
aI00
aa(lp1636
I234378
aF274.943
aF565.589
aVp1
p1637
aS'utopia'
p1638
aS'#656565'
p1639
aF5.84878
aI0
aI00
aI00
aI01
aI01
aI00
aI00
aI00
aI00
aa(lp1640
I234378
aF279.33
aF565.589
aVp1
p1641
aS'utopia'
p1642
aS'#656565'
p1643
aF5.84878
aI0
aI01
aI00
aI00
aI00
aI00
aI00
aI00
aI00
aa(lp1644
I234378
aF294.927
aF565.589
aVp1
p1645
aS'utopia'
p1646
aS'#656565'
p1647
aF5.84878
aI0
aI00
aI00
aI01
aI01
aI00
aI00
aI00
aI00
aa(lp1648
I234378
aF299.313
aF565.589
aVp1
p1649
aS'utopia'
p1650
aS'#656565'
p1651
aF5.84878
aI0
aI01
aI00
aI00
aI00
aI00
aI00
aI00
aI00
aa(lp1652
I176767
aF41.4797
aF577.774
aVp1
p1653
aS'utopia'
p1654
aS'#656565'
p1655
aF5.84878
aI0
aI01
aI00
aI00
aI00
aI00
aI00
aI00
aI00
aa(lp1656
I234378
aF218.405
aF577.774
aVp1
p1657
aS'utopia'
p1658
aS'#656565'
p1659
aF5.84878
aI0
aI00
aI00
aI01
aI01
aI01
aI00
aI00
aI00
aa(lp1660
I234378
aF274.943
aF577.774
aVp1
p1661
aS'utopia'
p1662
aS'#656565'
p1663
aF5.84878
aI0
aI00
aI00
aI01
aI01
aI00
aI00
aI00
aI00
aa(lp1664
I234378
aF279.33
aF577.774
aVp1
p1665
aS'utopia'
p1666
aS'#656565'
p1667
aF5.84878
aI0
aI01
aI00
aI00
aI00
aI00
aI00
aI00
aI00
aa(lp1668
I234378
aF294.927
aF577.774
aVp1
p1669
aS'utopia'
p1670
aS'#656565'
p1671
aF5.84878
aI0
aI00
aI00
aI01
aI01
aI00
aI00
aI00
aI00
aa(lp1672
I234378
aF299.313
aF577.774
aVp1
p1673
aS'utopia'
p1674
aS'#656565'
p1675
aF5.84878
aI0
aI01
aI00
aI00
aI00
aI00
aI00
aI00
aI00
aa(lp1676
I148996
aF41.4797
aF589.959
aVp1
p1677
aS'utopia'
p1678
aS'#656565'
p1679
aF5.84878
aI0
aI01
aI00
aI00
aI00
aI00
aI00
aI00
aI00
aa(lp1680
I234378
aF218.405
aF589.959
aVp1
p1681
aS'utopia'
p1682
aS'#656565'
p1683
aF5.84878
aI0
aI00
aI00
aI01
aI01
aI01
aI00
aI00
aI00
aa(lp1684
I234378
aF274.943
aF589.959
aVp1
p1685
aS'utopia'
p1686
aS'#656565'
p1687
aF5.84878
aI0
aI00
aI00
aI01
aI01
aI00
aI00
aI00
aI00
aa(lp1688
I234378
aF279.33
aF589.959
aVp1
p1689
aS'utopia'
p1690
aS'#656565'
p1691
aF5.84878
aI0
aI01
aI00
aI00
aI00
aI00
aI00
aI00
aI00
aa(lp1692
I234378
aF294.927
aF589.959
aVp1
p1693
aS'utopia'
p1694
aS'#656565'
p1695
aF5.84878
aI0
aI00
aI00
aI01
aI01
aI00
aI00
aI00
aI00
aa(lp1696
I234378
aF299.313
aF589.959
aVp1
p1697
aS'utopia'
p1698
aS'#656565'
p1699
aF5.84878
aI0
aI01
aI00
aI00
aI00
aI00
aI00
aI00
aI00
aa(lp1700
I234378
aF41.4797
aF602.143
aVp1
p1701
aS'utopia'
p1702
aS'#656565'
p1703
aF5.84878
aI0
aI01
aI00
aI00
aI00
aI00
aI00
aI00
aI00
aa(lp1704
I234378
aF218.405
aF602.143
aVp1
p1705
aS'utopia'
p1706
aS'#656565'
p1707
aF5.84878
aI0
aI00
aI00
aI01
aI01
aI01
aI00
aI00
aI00
aa(lp1708
I234378
aF274.943
aF602.143
aVp1
p1709
aS'utopia'
p1710
aS'#656565'
p1711
aF5.84878
aI0
aI00
aI00
aI01
aI01
aI00
aI00
aI00
aI00
aa(lp1712
I234378
aF279.33
aF602.143
aVp1
p1713
aS'utopia'
p1714
aS'#656565'
p1715
aF5.84878
aI0
aI01
aI00
aI00
aI00
aI00
aI00
aI00
aI00
aa(lp1716
I234378
aF294.927
aF602.143
aVp1
p1717
aS'utopia'
p1718
aS'#656565'
p1719
aF5.84878
aI0
aI00
aI00
aI01
aI01
aI00
aI00
aI00
aI00
aa(lp1720
I234378
aF299.313
aF602.143
aVp1
p1721
aS'utopia'
p1722
aS'#656565'
p1723
aF5.84878
aI0
aI01
aI00
aI00
aI00
aI00
aI00
aI00
aI00
aa(lp1724
I234378
aF41.4797
aF614.328
aVp1
p1725
aS'utopia'
p1726
aS'#656565'
p1727
aF5.84878
aI0
aI01
aI01
aI00
aI00
aI00
aI00
aI00
aI00
aa(lp1728
I234378
aF218.405
aF614.328
aVp1
p1729
aS'utopia'
p1730
aS'#656565'
p1731
aF5.84878
aI0
aI00
aI00
aI01
aI01
aI01
aI00
aI00
aI00
aa(lp1732
I234378
aF274.943
aF614.328
aVp1
p1733
aS'utopia'
p1734
aS'#656565'
p1735
aF5.84878
aI0
aI00
aI00
aI01
aI01
aI00
aI00
aI00
aI00
aa(lp1736
I234378
aF279.33
aF614.328
aVp1
p1737
aS'utopia'
p1738
aS'#656565'
p1739
aF5.84878
aI0
aI01
aI00
aI00
aI00
aI00
aI00
aI00
aI00
aa(lp1740
I234378
aF294.927
aF614.328
aVp1
p1741
aS'utopia'
p1742
aS'#656565'
p1743
aF5.84878
aI0
aI00
aI00
aI01
aI01
aI00
aI00
aI00
aI00
aa(lp1744
I234378
aF299.313
aF614.328
aVp1
p1745
aS'utopia'
p1746
aS'#656565'
p1747
aF5.84878
aI0
aI01
aI00
aI00
aI00
aI00
aI00
aI00
aI00
aa(lp1748
I234378
aF41.4797
aF626.513
aVp1
p1749
aS'utopia'
p1750
aS'#656565'
p1751
aF5.84878
aI0
aI01
aI01
aI00
aI00
aI00
aI00
aI00
aI00
aa(lp1752
I234378
aF218.405
aF626.513
aVp1
p1753
aS'utopia'
p1754
aS'#656565'
p1755
aF5.84878
aI0
aI00
aI00
aI01
aI01
aI01
aI00
aI00
aI00
aa(lp1756
I234378
aF274.943
aF626.513
aVp1
p1757
aS'utopia'
p1758
aS'#656565'
p1759
aF5.84878
aI0
aI00
aI00
aI01
aI01
aI00
aI00
aI00
aI00
aa(lp1760
I234378
aF279.33
aF626.513
aVp1
p1761
aS'utopia'
p1762
aS'#656565'
p1763
aF5.84878
aI0
aI01
aI00
aI00
aI00
aI00
aI00
aI00
aI00
aa(lp1764
I234378
aF294.927
aF626.513
aVp1
p1765
aS'utopia'
p1766
aS'#656565'
p1767
aF5.84878
aI0
aI00
aI00
aI01
aI01
aI00
aI00
aI00
aI00
aa(lp1768
I234378
aF299.313
aF626.513
aVp1
p1769
aS'utopia'
p1770
aS'#656565'
p1771
aF5.84878
aI0
aI01
aI00
aI00
aI00
aI00
aI00
aI00
aI00
aa(lp1772
I218862
aF41.4797
aF638.698
aVp1
p1773
aS'utopia'
p1774
aS'#656565'
p1775
aF5.84878
aI0
aI01
aI00
aI00
aI00
aI00
aI00
aI00
aI00
aa(lp1776
I115862
aF55.1269
aF638.698
aVp1
p1777
aS'utopia'
p1778
aS'#656565'
p1779
aF5.84878
aI0
aI01
aI00
aI00
aI00
aI00
aI00
aI00
aI00
aa(lp1780
I234378
aF218.405
aF638.698
aVp1
p1781
aS'utopia'
p1782
aS'#656565'
p1783
aF5.84878
aI0
aI00
aI00
aI01
aI01
aI01
aI00
aI00
aI00
aa(lp1784
I234378
aF274.943
aF638.698
aVp1
p1785
aS'utopia'
p1786
aS'#656565'
p1787
aF5.84878
aI0
aI00
aI00
aI01
aI01
aI00
aI00
aI00
aI00
aa(lp1788
I234378
aF279.33
aF638.698
aVp1
p1789
aS'utopia'
p1790
aS'#656565'
p1791
aF5.84878
aI0
aI01
aI00
aI00
aI00
aI00
aI00
aI00
aI00
aa(lp1792
I234378
aF294.927
aF638.698
aVp1
p1793
aS'utopia'
p1794
aS'#656565'
p1795
aF5.84878
aI0
aI00
aI00
aI01
aI01
aI00
aI00
aI00
aI00
aa(lp1796
I234378
aF299.313
aF638.698
aVp1
p1797
aS'utopia'
p1798
aS'#656565'
p1799
aF5.84878
aI0
aI01
aI00
aI00
aI00
aI00
aI00
aI00
aI00
aa(lp1800
I44279
aF41.4797
aF650.883
aVp1
p1801
aS'utopia'
p1802
aS'#656565'
p1803
aF5.84878
aI0
aI01
aI01
aI00
aI00
aI00
aI00
aI00
aI00
aa(lp1804
I115862
aF54.6395
aF650.883
aVp1
p1805
aS'utopia'
p1806
aS'#656565'
p1807
aF5.84878
aI0
aI01
aI01
aI00
aI00
aI00
aI00
aI00
aI00
aa(lp1808
I234378
aF218.405
aF650.883
aVp1
p1809
aS'utopia'
p1810
aS'#656565'
p1811
aF5.84878
aI0
aI00
aI00
aI01
aI01
aI01
aI00
aI00
aI00
aa(lp1812
I234378
aF274.943
aF650.883
aVp1
p1813
aS'utopia'
p1814
aS'#656565'
p1815
aF5.84878
aI0
aI00
aI00
aI01
aI01
aI00
aI00
aI00
aI00
aa(lp1816
I234378
aF279.33
aF650.883
aVp1
p1817
aS'utopia'
p1818
aS'#656565'
p1819
aF5.84878
aI0
aI01
aI00
aI00
aI00
aI00
aI00
aI00
aI00
aa(lp1820
I234378
aF294.927
aF650.883
aVp1
p1821
aS'utopia'
p1822
aS'#656565'
p1823
aF5.84878
aI0
aI00
aI00
aI01
aI01
aI00
aI00
aI00
aI00
aa(lp1824
I234378
aF299.313
aF650.883
aVp1
p1825
aS'utopia'
p1826
aS'#656565'
p1827
aF5.84878
aI0
aI01
aI00
aI00
aI00
aI00
aI00
aI00
aI00
aa(lp1828
I195166
aF36.1184
aF684.038
aVp1
p1829
aS'utopia'
p1830
aS'#02304b'
p1831
aF7.79837
aI1
aI01
aI00
aI00
aI00
aI00
aI00
aI00
aI00
aa(lp1832
I136346
aF73.1606
aF684.038
aVp1
p1833
aS'utopia'
p1834
aS'#02304b'
p1835
aF7.79837
aI1
aI01
aI00
aI00
aI00
aI00
aI00
aI00
aI00
aa(lp1836
I195166
aF41.4797
aF702.395
aVp1
p1837
aS'utopia'
p1838
aS'#000000'
p1839
aF5.84878
aI1
aI01
aI00
aI00
aI00
aI00
aI00
aI00
aI00
aa(lp1840
I164378
aF133.598
aF702.395
aVp1
p1841
aS'utopia'
p1842
aS'#000000'
p1843
aF5.84878
aI1
aI01
aI00
aI00
aI00
aI00
aI00
aI00
aI00
aa(lp1844
I175077
aF216.943
aF702.395
aVp1
p1845
aS'utopia'
p1846
aS'#000000'
p1847
aF5.84878
aI1
aI01
aI00
aI00
aI00
aI00
aI00
aI00
aI00
aa(lp1848
I224291
aF289.078
aF702.395
aVp1
p1849
aS'utopia'
p1850
aS'#000000'
p1851
aF5.84878
aI1
aI01
aI00
aI00
aI00
aI00
aI00
aI00
aI00
aa(lp1852
I165206
aF360.725
aF702.395
aVp1
p1853
aS'utopia'
p1854
aS'#000000'
p1855
aF5.84878
aI1
aI01
aI00
aI00
aI00
aI00
aI00
aI00
aI00
aa(lp1856
I58002
aF41.4797
aF714.732
aVp1
p1857
aS'utopia'
p1858
aS'#656565'
p1859
aF5.84878
aI0
aI01
aI00
aI00
aI00
aI00
aI00
aI00
aI00
aa(lp1860
I185159
aF133.598
aF714.732
aVp1
p1861
aS'utopia'
p1862
aS'#656565'
p1863
aF5.84878
aI0
aI01
aI00
aI00
aI00
aI00
aI00
aI00
aI00
aa(lp1864
I98778
aF41.4797
aF726.917
aVp1
p1865
aS'utopia'
p1866
aS'#656565'
p1867
aF5.84878
aI0
aI01
aI00
aI00
aI00
aI00
aI00
aI00
aI00
aa(lp1868
I61354
aF133.598
aF726.917
aVp1
p1869
aS'utopia'
p1870
aS'#656565'
p1871
aF5.84878
aI0
aI01
aI00
aI00
aI00
aI00
aI00
aI00
aI00
aa(lp1872
I144314
aF41.4797
aF739.102
aVp1
p1873
aS'utopia'
p1874
aS'#656565'
p1875
aF5.84878
aI0
aI01
aI00
aI00
aI00
aI00
aI00
aI00
aI00
aa(lp1876
I61354
aF133.598
aF739.102
aVp1
p1877
aS'utopia'
p1878
aS'#656565'
p1879
aF5.84878
aI0
aI01
aI00
aI00
aI00
aI00
aI00
aI00
aI00
aa(lp1880
I144532
aF41.4797
aF751.287
aVp1
p1881
aS'utopia'
p1882
aS'#656565'
p1883
aF5.84878
aI0
aI01
aI00
aI00
aI00
aI00
aI00
aI00
aI00
aa(lp1884
I61354
aF133.598
aF751.287
aVp1
p1885
aS'utopia'
p1886
aS'#656565'
p1887
aF5.84878
aI0
aI01
aI00
aI00
aI00
aI00
aI00
aI00
aI00
aa(lp1888
I234378
aF36.1184
aF772.257
aVp1
p1889
aS'utopia'
p1890
aS'#02304b'
p1891
aF7.79837
aI1
aI01
aI00
aI00
aI00
aI00
aI00
aI00
aI00
aa(lp1892
I201816
aF36.6058
aF793.203
aVp1
p1893
aS'utopia'
p1894
aS'#000000'
p1895
aF5.84878
aI0
aI01
aI00
aI00
aI00
aI00
aI00
aI00
aI00
aa(lp1896
I234378
aF45.8663
aF793.203
aVp1
p1897
aS'utopia'
p1898
aS'#000000'
p1899
aF5.84878
aI0
aI01
aI00
aI00
aI00
aI00
aI00
aI00
aI00
aa(lp1900
I86196
aF68.2866
aF793.203
aVp1
p1901
aS'utopia'
p1902
aS'#000000'
p1903
aF5.84878
aI0
aI01
aI00
aI00
aI00
aI00
aI00
aI00
aI00
aa(lp1904
I177271
aF36.1184
aF33.849
aVp2
p1905
aS'utopia'
p1906
aS'#02304b'
p1907
aF7.79837
aI1
aI01
aI00
aI00
aI00
aI00
aI00
aI00
aI00
aa(lp1908
I234378
aF58.5387
aF33.849
aVp2
p1909
aS'utopia'
p1910
aS'#02304b'
p1911
aF7.79837
aI1
aI01
aI00
aI00
aI00
aI00
aI00
aI00
aI00
aa(lp1912
I7520
aF41.9671
aF49.8513
aVp2
p1913
aS'utopia'
p1914
aS'#656565'
p1915
aF6.82357
aI1
aI01
aI00
aI00
aI00
aI00
aI00
aI00
aI00
aa(lp1916
I10865
aF71.211
aF49.8513
aVp2
p1917
aS'utopia'
p1918
aS'#656565'
p1919
aF6.82357
aI1
aI01
aI00
aI00
aI00
aI00
aI00
aI00
aI00
aa(lp1920
I132955
aF41.9671
aF60.1568
aVp2
p1921
aS'utopia'
p1922
aS'#656565'
p1923
aF5.84878
aI0
aI01
aI00
aI00
aI00
aI00
aI00
aI00
aI00
aa(lp1924
I144489
aF55.6143
aF60.1568
aVp2
p1925
aS'utopia'
p1926
aS'#656565'
p1927
aF5.84878
aI0
aI00
aI00
aI00
aI00
aI00
aI00
aI00
aI00
aa(lp1928
I132529
aF62.4379
aF60.1568
aVp2
p1929
aS'utopia'
p1930
aS'#656565'
p1931
aF5.84878
aI0
aI01
aI00
aI00
aI00
aI00
aI00
aI00
aI00
aa(lp1932
I234378
aF74.68623333333333
aF60.1568
ag1929
aS'utopia'
p1933
aS'#656565'
p1934
aF5.84878
aI0
aI00
aI00
aI00
aI00
aI00
aI00
aI00
aI00
aa(lp1935
I234378
aF78.522
aF60.1568
aVp2
p1936
aS'utopia'
p1937
aS'#434343'
p1938
aF5.84878
aI0
aI00
aI00
aI01
aI01
aI01
aI00
aI00
aI00
aa(lp1939
I234378
aF85.833
aF60.1568
aVp2
p1940
aS'utopia'
p1941
aS'#434343'
p1942
aF5.84878
aI0
aI01
aI00
aI00
aI00
aI00
aI00
aI00
aI01
aa(lp1943
I234378
aF97.0431
aF60.1568
aVp2
p1944
aS'utopia'
p1945
aS'#434343'
p1946
aF5.84878
aI0
aI00
aI00
aI01
aI01
aI01
aI00
aI00
aI00
aa(lp1947
I108944
aF41.9671
aF70.3922
aVp2
p1948
aS'utopia'
p1949
aS'#656565'
p1950
aF5.84878
aI0
aI01
aI00
aI00
aI00
aI00
aI00
aI00
aI00
aa(lp1951
I234378
aF59.99632857142857
aF70.3922
ag1948
aS'utopia'
p1952
aS'#656565'
p1953
aF5.84878
aI0
aI00
aI00
aI00
aI00
aI00
aI00
aI00
aI00
aa(lp1954
I104428
aF64.3875
aF70.3922
aVp2
p1955
aS'utopia'
p1956
aS'#434343'
p1957
aF5.84878
aI0
aI01
aI00
aI00
aI00
aI00
aI00
aI00
aI00
aa(lp1958
I212271
aF41.9671
aF80.6276
aVp2
p1959
aS'utopia'
p1960
aS'#656565'
p1961
aF5.84878
aI0
aI01
aI00
aI00
aI00
aI00
aI00
aI00
aI00
aa(lp1962
I12510
aF61.9505
aF80.6276
aVp2
p1963
aS'utopia'
p1964
aS'#656565'
p1965
aF5.84878
aI0
aI01
aI00
aI00
aI00
aI00
aI00
aI00
aI00
aa(lp1966
I234378
aF76.63764285714285
aF80.6276
ag1963
aS'utopia'
p1967
aS'#656565'
p1968
aF5.84878
aI0
aI00
aI00
aI00
aI00
aI00
aI00
aI00
aI00
aa(lp1969
I118865
aF80.4716
aF80.6276
aVp2
p1970
aS'utopia'
p1971
aS'#434343'
p1972
aF5.84878
aI0
aI01
aI00
aI00
aI00
aI00
aI00
aI00
aI00
aa(lp1973
I234378
aF97.6736
aF80.6276
ag1970
aS'utopia'
p1974
aS'#434343'
p1975
aF5.84878
aI0
aI00
aI00
aI00
aI00
aI00
aI00
aI00
aI00
aa(lp1976
I136874
aF100.5406
aF80.6276
ag1970
aS'utopia'
p1977
aS'#434343'
p1978
aF5.84878
aI0
aI00
aI00
aI00
aI00
aI00
aI00
aI00
aI00
aa(lp1979
I118366
aF41.9671
aF93.7171
aVp2
p1980
aS'utopia'
p1981
aS'#656565'
p1982
aF6.82357
aI1
aI01
aI00
aI00
aI00
aI00
aI00
aI00
aI00
aa(lp1983
I234378
aF64.9506375
aF93.7171
ag1980
aS'utopia'
p1984
aS'#656565'
p1985
aF6.82357
aI1
aI00
aI00
aI00
aI00
aI00
aI00
aI00
aI00
aa(lp1986
I234378
aF41.9671
aF102.073
aVp2
p1987
aS'utopia'
p1988
aS'#000000'
p1989
aF5.84878
aI0
aI00
aI00
aI01
aI01
aI01
aI00
aI00
aI00
aa(lp1990
I234378
aF51.025375000000004
aF102.073
ag1987
aS'utopia'
p1991
aS'#000000'
p1992
aF5.84878
aI0
aI00
aI00
aI00
aI00
aI00
aI00
aI00
aI00
aa(lp1993
I234378
aF54.0448
aF102.073
ag1987
aS'utopia'
p1994
aS'#000000'
p1995
aF5.84878
aI0
aI00
aI01
aI01
aI00
aI00
aI00
aI00
aI00
aa(lp1996
I220170
aF67.7992
aF102.073
aVp2
p1997
aS'utopia'
p1998
aS'#000000'
p1999
aF5.84878
aI0
aI01
aI00
aI00
aI00
aI00
aI00
aI00
aI00
aa(lp2000
I199189
aF78.522
aF102.073
aVp2
p2001
aS'utopia'
p2002
aS'#000000'
p2003
aF5.84878
aI0
aI00
aI00
aI00
aI00
aI00
aI00
aI00
aI00
aa(lp2004
I111618
aF98.0179
aF102.073
aVp2
p2005
aS'utopia'
p2006
aS'#000000'
p2007
aF5.84878
aI0
aI00
aI00
aI00
aI00
aI00
aI00
aI00
aI00
aa(lp2008
I234378
aF108.99646
aF102.073
ag2005
aS'utopia'
p2009
aS'#000000'
p2010
aF5.84878
aI0
aI00
aI00
aI00
aI00
aI00
aI00
aI00
aI00
aa(lp2011
I234378
aF113.127
aF102.073
aVp2
p2012
aS'utopia'
p2013
aS'#000000'
p2014
aF5.84878
aI0
aI00
aI00
aI00
aI00
aI00
aI00
aI00
aI00
aa(lp2015
I234378
aF41.9671
aF108.897
aVp2
p2016
aS'utopia'
p2017
aS'#000000'
p2018
aF5.84878
aI0
aI00
aI00
aI01
aI01
aI01
aI00
aI00
aI00
aa(lp2019
I182663
aF41.9671
aF117.67
aVp2
p2020
aS'utopia'
p2021
aS'#656565'
p2022
aF5.84878
aI0
aI01
aI00
aI00
aI00
aI00
aI00
aI00
aI00
aa(lp2023
I82279
aF60.0009
aF117.67
aVp2
p2024
aS'utopia'
p2025
aS'#656565'
p2026
aF5.84878
aI0
aI01
aI00
aI00
aI00
aI00
aI00
aI00
aI00
aa(lp2027
I234378
aF72.92906
aF117.67
ag2024
aS'utopia'
p2028
aS'#656565'
p2029
aF5.84878
aI0
aI00
aI00
aI00
aI00
aI00
aI00
aI00
aI00
aa(lp2030
I234378
aF77.5472
aF117.67
aVp2
p2031
aS'utopia'
p2032
aS'#000000'
p2033
aF5.84878
aI0
aI01
aI00
aI00
aI00
aI00
aI00
aI00
aI00
aa(lp2034
I86794
aF282.254
aF52.2883
aVp2
p2035
aS'utopia'
p2036
aS'#656565'
p2037
aF6.82357
aI1
aI01
aI00
aI00
aI00
aI00
aI00
aI00
aI00
aa(lp2038
I131455
aF307.599
aF52.2883
aVp2
p2039
aS'utopia'
p2040
aS'#656565'
p2041
aF6.82357
aI1
aI01
aI00
aI00
aI00
aI00
aI00
aI00
aI00
aa(lp2042
I234378
aF319.297
aF52.2883
aVp2
p2043
aS'utopia'
p2044
aS'#656565'
p2045
aF6.82357
aI1
aI01
aI00
aI00
aI00
aI00
aI00
aI00
aI00
aa(lp2046
I131455
aF282.254
aF62.5938
aVp2
p2047
aS'utopia'
p2048
aS'#656565'
p2049
aF5.84878
aI0
aI01
aI00
aI00
aI00
aI00
aI00
aI00
aI00
aa(lp2050
I197416
aF292.49
aF62.5938
aVp2
p2051
aS'utopia'
p2052
aS'#656565'
p2053
aF5.84878
aI0
aI01
aI00
aI00
aI00
aI00
aI00
aI00
aI00
aa(lp2054
I234378
aF303.85848
aF62.5938
ag2051
aS'utopia'
p2055
aS'#656565'
p2056
aF5.84878
aI0
aI00
aI00
aI00
aI00
aI00
aI00
aI00
aI00
aa(lp2057
I28425
aF308.086
aF62.5938
aVp2
p2058
aS'utopia'
p2059
aS'#434343'
p2060
aF5.84878
aI0
aI01
aI00
aI00
aI00
aI00
aI00
aI00
aI00
aa(lp2061
I234378
aF338.305
aF62.5938
aVp2
p2062
aS'utopia'
p2063
aS'#434343'
p2064
aF5.84878
aI0
aI00
aI00
aI00
aI00
aI00
aI00
aI00
aI00
aa(lp2065
I137944
aF341.3030318181818
aF62.5938
ag2062
aS'utopia'
p2066
aS'#434343'
p2067
aF5.84878
aI0
aI01
aI00
aI00
aI00
aI00
aI00
aI00
aI00
aa(lp2068
I234378
aF358.2853181818182
aF62.5938
ag2062
aS'utopia'
p2069
aS'#434343'
p2070
aF5.84878
aI0
aI00
aI00
aI00
aI00
aI00
aI00
aI00
aI00
aa(lp2071
I42298
aF371.28335
aF62.5938
ag2062
aS'utopia'
p2072
aS'#434343'
p2073
aF5.84878
aI0
aI01
aI00
aI00
aI00
aI00
aI00
aI00
aI00
aa(lp2074
I72722
aF282.254
aF72.8292
aVp2
p2075
aS'utopia'
p2076
aS'#656565'
p2077
aF5.84878
aI0
aI01
aI00
aI00
aI00
aI00
aI00
aI00
aI00
aa(lp2078
I12510
aF317.347
aF72.8292
aVp2
p2079
aS'utopia'
p2080
aS'#656565'
p2081
aF5.84878
aI0
aI01
aI00
aI00
aI00
aI00
aI00
aI00
aI00
aa(lp2082
I234378
aF332.03414285714285
aF72.8292
ag2079
aS'utopia'
p2083
aS'#656565'
p2084
aF5.84878
aI0
aI00
aI00
aI00
aI00
aI00
aI00
aI00
aI00
aa(lp2085
I60201
aF335.868
aF72.8292
aVp2
p2086
aS'utopia'
p2087
aS'#434343'
p2088
aF5.84878
aI0
aI01
aI00
aI00
aI00
aI00
aI00
aI00
aI00
aa(lp2089
I230071
aF347.078
aF72.8292
aVp2
p2090
aS'utopia'
p2091
aS'#434343'
p2092
aF5.84878
aI0
aI01
aI00
aI00
aI00
aI00
aI00
aI00
aI00
aa(lp2093
I51933
aF282.254
aF85.9188
aVp2
p2094
aS'utopia'
p2095
aS'#656565'
p2096
aF6.82357
aI1
aI01
aI00
aI00
aI00
aI00
aI00
aI00
aI00
aa(lp2097
I62768
aF300.776
aF85.9188
aVp2
p2098
aS'utopia'
p2099
aS'#656565'
p2100
aF6.82357
aI1
aI01
aI00
aI00
aI00
aI00
aI00
aI00
aI00
aa(lp2101
I31679
aF282.254
aF96.2243
aVp2
p2102
aS'utopia'
p2103
aS'#656565'
p2104
aF5.84878
aI0
aI01
aI01
aI00
aI00
aI00
aI00
aI00
aI00
aa(lp2105
I51933
aF291.028
aF96.2243
aVp2
p2106
aS'utopia'
p2107
aS'#656565'
p2108
aF5.84878
aI0
aI01
aI00
aI00
aI00
aI00
aI00
aI00
aI00
aa(lp2109
I12510
aF306.624
aF96.2243
aVp2
p2110
aS'utopia'
p2111
aS'#656565'
p2112
aF5.84878
aI0
aI01
aI00
aI00
aI00
aI00
aI00
aI00
aI00
aa(lp2113
I234378
aF321.3111428571429
aF96.2243
ag2110
aS'utopia'
p2114
aS'#656565'
p2115
aF5.84878
aI0
aI00
aI00
aI00
aI00
aI00
aI00
aI00
aI00
aa(lp2116
I63091
aF325.145
aF96.2243
aVp2
p2117
aS'utopia'
p2118
aS'#434343'
p2119
aF5.84878
aI0
aI01
aI00
aI00
aI00
aI00
aI00
aI00
aI00
aa(lp2120
I234378
aF336.356
aF96.2243
aVp2
p2121
aS'utopia'
p2122
aS'#434343'
p2123
aF5.84878
aI0
aI01
aI00
aI00
aI00
aI00
aI00
aI00
aI00
aa(lp2124
I234378
aF282.254
aF106.46
aVp2
p2125
aS'utopia'
p2126
aS'#656565'
p2127
aF5.84878
aI0
aI01
aI00
aI00
aI00
aI00
aI00
aI00
aI00
aa(lp2128
I234378
aF306.44861000000003
aF106.46
ag2125
aS'utopia'
p2129
aS'#656565'
p2130
aF5.84878
aI0
aI00
aI00
aI00
aI00
aI00
aI00
aI00
aI00
aa(lp2131
I63091
aF310.523
aF106.46
aVp2
p2132
aS'utopia'
p2133
aS'#434343'
p2134
aF5.84878
aI0
aI01
aI00
aI00
aI00
aI00
aI00
aI00
aI00
aa(lp2135
I234378
aF321.734
aF106.46
aVp2
p2136
aS'utopia'
p2137
aS'#434343'
p2138
aF5.84878
aI0
aI01
aI00
aI00
aI00
aI00
aI00
aI00
aI00
aa(lp2139
I166771
aF282.254
aF119.549
aVp2
p2140
aS'utopia'
p2141
aS'#656565'
p2142
aF6.82357
aI1
aI01
aI00
aI00
aI00
aI00
aI00
aI00
aI00
aa(lp2143
I74833
aF319.297
aF119.549
aVp2
p2144
aS'utopia'
p2145
aS'#656565'
p2146
aF6.82357
aI1
aI01
aI00
aI00
aI00
aI00
aI00
aI00
aI00
aa(lp2147
I233758
aF282.254
aF129.855
aVp2
p2148
aS'utopia'
p2149
aS'#656565'
p2150
aF5.84878
aI0
aI01
aI00
aI00
aI00
aI00
aI00
aI00
aI00
aa(lp2151
I234378
aF304.41693333333336
aF129.855
ag2148
aS'utopia'
p2152
aS'#656565'
p2153
aF5.84878
aI0
aI00
aI00
aI00
aI00
aI00
aI00
aI00
aI00
aa(lp2154
I230332
aF308.574
aF129.855
aVp2
p2155
aS'utopia'
p2156
aS'#434343'
p2157
aF5.84878
aI0
aI01
aI00
aI00
aI00
aI00
aI00
aI00
aI00
aa(lp2158
I151511
aF282.254
aF140.09
aVp2
p2159
aS'utopia'
p2160
aS'#656565'
p2161
aF5.84878
aI0
aI01
aI00
aI00
aI00
aI00
aI00
aI00
aI00
aa(lp2162
I234378
aF309.061
aF140.09
aVp2
p2163
aS'utopia'
p2164
aS'#656565'
p2165
aF5.84878
aI0
aI01
aI00
aI00
aI00
aI00
aI00
aI00
aI00
aa(lp2166
I234378
aF336.6016363636363
aF140.09
ag2163
aS'utopia'
p2167
aS'#656565'
p2168
aF5.84878
aI0
aI00
aI00
aI00
aI00
aI00
aI00
aI00
aI00
aa(lp2169
I201816
aF340.742
aF140.09
aVp2
p2170
aS'utopia'
p2171
aS'#434343'
p2172
aF5.84878
aI0
aI01
aI00
aI00
aI00
aI00
aI00
aI00
aI00
aa(lp2173
I1
aI1
aI1
aI0
aI0
aI0
aI0
aI0
aI0
aI0
aI0
aI0
aI0
aI0
aI0
aI0
aI0
aI0
aI0
aI0
aI0
aI0
aI0
aI0
aI0
aI0
aI0
aI0
aI0
aI0
aI0
aI0
aI0
aI0
aI0
aI0
aI0
aI0
aI0
aI0
aI0
aI0
aI0
aI0
aI0
aI0
aI0
aI0
aI0
aI0
aI0
aI0
aI0
aI0
aI0
aI0
aI0
aI0
aI0
aI0
aI0
aI0
aI0
aI0
aI0
aI0
aI0
aI0
aI0
aI0
aI0
aI0
aI0
aI0
aI0
aI0
aI0
aI0
aI0
aI0
aI0
aI0
aI0
aI0
aI0
aI0
aI0
aI0
aI0
aI0
aI0
aI0
aI0
aI0
aI0
aI0
aI0
aI0
aI0
aI0
aI0
aI0
aI0
aI0
aI0
aI0
aI0
aI0
aI0
aI0
aI0
aI0
aI0
aI0
aI0
aI0
aI0
aI0
aI0
aI0
aI0
aI0
aI0
aI0
aI0
aI0
aI0
aI0
aI0
aI0
aI0
aI0
aI0
aI0
aI0
aI0
aI0
aI0
aI0
aI0
aI0
aI0
aI0
aI0
aI0
aI0
aI0
aI0
aI0
aI0
aI0
aI0
aI0
aI0
aI0
aI0
aI0
aI0
aI0
aI0
aI0
aI0
aI0
aI0
aI0
aI0
aI0
aI0
aI0
aI0
aI0
aI0
aI0
aI0
aI0
aI0
aI0
aI0
aI0
aI0
aI0
aI0
aI0
aI0
aI0
aI0
aI0
aI0
aI0
aI0
aI0
aI0
aI0
aI1
aI1
aI0
aI0
aI0
aI0
aI0
aI0
aI0
aI0
aI0
aI0
aI0
aI0
aI0
aI0
aI0
aI0
aI0
aI0
aI0
aI0
aI0
aI0
aI0
aI0
aI0
aI0
aI0
aI0
aI0
aI0
aI0
aI0
aI0
aI0
aI0
aI0
aI0
aI0
aI0
aI0
aI0
aI0
aI0
aI0
aI0
aI0
aI0
aI0
aI0
aI0
aI0
aI0
aI0
aI0
aI0
aI0
aI0
aI0
aI0
aI0
aI0
aI0
aI0
aI0
aI0
aI0
aI0
aI0
aI0
aI0
aI0
aI0
aI0
aI0
aI0
aI0
aI0
aI0
aI0
aI0
aI0
aI0
aI0
aI0
aI0
aI0
aI0
aI0
aI0
aI0
aI0
aI0
aI0
aI0
aI0
aI0
aI0
aI0
aI0
aI0
aI0
aI0
aI0
aI0
aI0
aI0
aI0
aI0
aI0
aI0
aI0
aI0
aI0
aI0
aI0
aI0
aI0
aI0
aI0
aI0
aI0
aI0
aI0
aI0
aI0
aI0
aI0
aI0
aI0
aI0
aI0
aI0
aI0
aI0
aI0
aI0
aI0
aI0
aI0
aI0
aI0
aI0
aI0
aI0
aI0
aI0
aI0
aI0
aI0
aI0
aI0
aI0
aI0
aI0
aI0
aI0
aI0
aI0
aI0
aI0
aI0
aI0
aI0
aI0
aI0
aI0
aI0
aI0
aI0
aI0
aI0
aI0
aI0
aI0
aI0
aI0
aI0
aI0
aI0
aI0
aI0
aI0
aI0
aI0
aI0
aI1
aI0
aI0
aI0
aI0
aI0
aI0
aI0
aI0
aI0
aI0
aI0
aI0
aI0
aI0
aI0
aI0
aI0
aI0
aI0
aI0
aI0
aI0
aI0
aI0
aI0
aI0
aI0
aI0
aI1
aI1
aI0
aI0
aI0
aI0
aI0
aI0
aI0
aI0
aI0
aI0
aI0
aI0
aI0
aI0
aI0
aI0
aI0
aI0
aI0
aI0
aI0
aI0
aI0
aI0
aI0
aI0
aI0
aI0
aI0
aI0
aI0
aI0
aI0
aI0
aI0
aI0
aI0
aI0
aI0
aI0
aI0
aI0
aI0
aI0
aI0
aI0
aI0
aI0
aI0
aI0
aI0
aI0
aI0
aI0
aI0
aI0
aI0
aI0
aI0
aI0
aI0
aI0
aI0
aI0
aI0
aI0
aI0
aI0
aI0
aI0
aI0
aI0
aI0
aI0
aI0
aI0
aI0
aI0
aI0
aI0
aI0
aI1
aI1
aI0
aI0
aI0
aI0
aI0
aI0
aI0
aI0
aI0
aI0
aI0
aI0
aI0
aI1
aI0
aI0
aI0
aI1
aI1
aI0
aI0
aI0
aI0
aI0
aI0
aI0
aI0
aI0
aI0
aI0
aI0
aI0
aI0
aI0
aI0
aI0
aI0
aI0
aI0
aI0
aI0
aI0
aI0
aI0
aI0
aI0
aI0
aI0
aI0
aI0
aI0
aI0
aI0
aI0
aI0
aI0
aI0
aI0
aI0
aI0
aI0
aI0
aI0
aI0
aI0
aI0
aI0
aI0
aI0
aI0
aI0
aI0
aI0
aI0
aI0
aI0
aI0
aI0
aI0
aI0
aI0
aI0
aI0
aI0
aI0
aI0
aI0
aI0
aI0
atp2174
.