((lp0
(lp1
I234378
aF40.9084
aF53.0111
aVp1
p2
aS'utopia'
p3
aS'#02304b'
p4
aF11.8479
aI1
aI01
aI01
aI00
aI00
aI00
aI00
aI00
aI00
aa(lp5
I234378
aF92.0026
aF53.0111
aVp1
p6
aS'utopia'
p7
aS'#02304b'
p8
aF11.8479
aI1
aI01
aI01
aI00
aI00
aI00
aI00
aI00
aI00
aa(lp9
I192638
aF46.8324
aF74.4677
aVp1
p10
aS'utopia'
p11
aS'#656565'
p12
aF8.88595
aI0
aI01
aI01
aI00
aI00
aI00
aI00
aI00
aI00
aa(lp13
I234378
aF55.265166666666666
aF74.4677
ag10
aS'utopia'
p14
aS'#656565'
p15
aF8.88595
aI0
aI00
aI00
aI00
aI00
aI00
aI00
aI00
aI00
aa(lp16
I22476
aF59.48155
aF74.4677
ag10
aS'utopia'
p17
aS'#656565'
p18
aF8.88595
aI0
aI01
aI01
aI00
aI00
aI00
aI00
aI00
aI00
aa(lp19
I234378
aF67.91431666666666
aF74.4677
ag10
aS'utopia'
p20
aS'#656565'
p21
aF8.88595
aI0
aI00
aI00
aI00
aI00
aI00
aI00
aI00
aI00
aa(lp22
I234378
aF74.2307
aF74.4677
aVp1
p23
aS'utopia'
p24
aS'#656565'
p25
aF8.88595
aI0
aI01
aI01
aI00
aI00
aI00
aI00
aI00
aI00
aa(lp26
I234378
aF88.5156
aF74.4677
ag23
aS'utopia'
p27
aS'#656565'
p28
aF8.88595
aI0
aI00
aI00
aI00
aI00
aI00
aI00
aI00
aI00
aa(lp29
I22981
aF93.27723333333334
aF74.4677
ag23
aS'utopia'
p30
aS'#656565'
p31
aF8.88595
aI0
aI01
aI00
aI00
aI00
aI00
aI00
aI00
aI00
aa(lp32
I234378
aF126.60866666666666
aF74.4677
ag23
aS'utopia'
p33
aS'#656565'
p34
aF8.88595
aI0
aI00
aI00
aI00
aI00
aI00
aI00
aI00
aI00
aa(lp35
I55966
aF133.47
aF74.4677
aVp1
p36
aS'utopia'
p37
aS'#656565'
p38
aF8.88595
aI0
aI01
aI00
aI00
aI00
aI00
aI00
aI00
aI00
aa(lp39
I149270
aF160.869
aF74.4677
aVp1
p40
aS'utopia'
p41
aS'#656565'
p42
aF8.88595
aI0
aI01
aI00
aI00
aI00
aI00
aI00
aI00
aI00
aa(lp43
I175409
aF200.856
aF74.4677
aVp1
p44
aS'utopia'
p45
aS'#656565'
p46
aF8.88595
aI0
aI01
aI00
aI00
aI00
aI00
aI00
aI00
aI00
aa(lp47
I234378
aF222.33
aF74.4677
aVp1
p48
aS'utopia'
p49
aS'#656565'
p50
aF8.88595
aI0
aI00
aI00
aI01
aI01
aI01
aI00
aI00
aI00
aa(lp51
I234378
aF230.22070000000002
aF74.4677
ag48
aS'utopia'
p52
aS'#656565'
p53
aF8.88595
aI0
aI00
aI00
aI00
aI00
aI00
aI00
aI00
aI00
aa(lp54
I234378
aF234.16605
aF74.4677
ag48
aS'utopia'
p55
aS'#656565'
p56
aF8.88595
aI0
aI00
aI00
aI01
aI01
aI00
aI00
aI00
aI00
aa(lp57
I234378
aF240.102
aF74.4677
aVp1
p58
aS'utopia'
p59
aS'#656565'
p60
aF8.88595
aI0
aI00
aI00
aI00
aI00
aI00
aI00
aI00
aI00
aa(lp61
I234378
aF263.057
aF74.4677
aVp1
p62
aS'utopia'
p63
aS'#656565'
p64
aF8.88595
aI0
aI00
aI00
aI00
aI00
aI00
aI00
aI00
aI00
aa(lp65
I68032
aF299.341
aF74.4677
aVp1
p66
aS'utopia'
p67
aS'#656565'
p68
aF8.88595
aI0
aI00
aI00
aI00
aI00
aI00
aI00
aI00
aI00
aa(lp69
I85218
aF353.398
aF74.4677
aVp1
p70
aS'utopia'
p71
aS'#656565'
p72
aF8.88595
aI0
aI00
aI00
aI00
aI00
aI00
aI00
aI00
aI00
aa(lp73
I234378
aF370.429
aF74.4677
aVp1
p74
aS'utopia'
p75
aS'#656565'
p76
aF8.88595
aI0
aI00
aI00
aI00
aI00
aI00
aI00
aI00
aI00
aa(lp77
I51933
aF427.447
aF74.4677
aVp1
p78
aS'utopia'
p79
aS'#656565'
p80
aF8.88595
aI0
aI00
aI00
aI00
aI00
aI00
aI00
aI00
aI00
aa(lp81
I60220
aF40.9084
aF84.8346
aVp1
p82
aS'utopia'
p83
aS'#656565'
p84
aF8.88595
aI0
aI00
aI00
aI00
aI00
aI00
aI00
aI00
aI00
aa(lp85
I135639
aF86.0787
aF84.8346
aVp1
p86
aS'utopia'
p87
aS'#656565'
p88
aF8.88595
aI0
aI00
aI00
aI00
aI00
aI00
aI00
aI00
aI00
aa(lp89
I21716
aF95.7051
aF84.8346
aVp1
p90
aS'utopia'
p91
aS'#656565'
p92
aF8.88595
aI0
aI01
aI00
aI00
aI00
aI00
aI00
aI00
aI00
aa(lp93
I234378
aF110.60742
aF84.8346
ag90
aS'utopia'
p94
aS'#656565'
p95
aF8.88595
aI0
aI00
aI00
aI00
aI00
aI00
aI00
aI00
aI00
aa(lp96
I234378
aF116.439
aF84.8346
aVp1
p97
aS'utopia'
p98
aS'#656565'
p99
aF8.88595
aI0
aI01
aI01
aI01
aI00
aI00
aI00
aI00
aI00
aa(lp100
I234378
aF132.52612
aF84.8346
ag97
aS'utopia'
p101
aS'#656565'
p102
aF8.88595
aI0
aI00
aI00
aI00
aI00
aI00
aI00
aI00
aI00
aa(lp103
I234378
aF138.654
aF84.8346
aVp1
p104
aS'utopia'
p105
aS'#656565'
p106
aF8.88595
aI0
aI01
aI00
aI00
aI00
aI00
aI00
aI00
aI00
aa(lp107
I234378
aF176.457
aF84.8346
ag104
aS'utopia'
p108
aS'#656565'
p109
aF8.88595
aI0
aI00
aI00
aI00
aI00
aI00
aI00
aI00
aI00
aa(lp110
I45445
aF182.343
aF84.8346
aVp1
p111
aS'utopia'
p112
aS'#656565'
p113
aF8.88595
aI0
aI01
aI00
aI00
aI00
aI00
aI00
aI00
aI00
aa(lp114
I234378
aF206.56105714285712
aF84.8346
ag111
aS'utopia'
p115
aS'#656565'
p116
aF8.88595
aI0
aI00
aI00
aI00
aI00
aI00
aI00
aI00
aI00
aa(lp117
I234378
aF212.703
aF84.8346
aVp1
p118
aS'utopia'
p119
aS'#656565'
p120
aF8.88595
aI0
aI01
aI01
aI00
aI00
aI00
aI00
aI00
aI00
aa(lp121
I234378
aF226.673925
aF84.8346
ag118
aS'utopia'
p122
aS'#656565'
p123
aF8.88595
aI0
aI00
aI00
aI00
aI00
aI00
aI00
aI00
aI00
aa(lp124
I234378
aF233.437
aF84.8346
aVp1
p125
aS'utopia'
p126
aS'#656565'
p127
aF8.88595
aI0
aI01
aI01
aI00
aI00
aI00
aI00
aI00
aI00
aa(lp128
I234378
aF249.07405
aF84.8346
ag125
aS'utopia'
p129
aS'#656565'
p130
aF8.88595
aI0
aI00
aI00
aI00
aI00
aI00
aI00
aI00
aI00
aa(lp131
I234378
aF256.393
aF84.8346
aVp1
p132
aS'utopia'
p133
aS'#656565'
p134
aF8.88595
aI0
aI01
aI01
aI00
aI00
aI00
aI00
aI00
aI00
aa(lp135
I234378
aF274.25732
aF84.8346
ag132
aS'utopia'
p136
aS'#656565'
p137
aF8.88595
aI0
aI00
aI00
aI00
aI00
aI00
aI00
aI00
aI00
aa(lp138
I234378
aF280.829
aF84.8346
aVp1
p139
aS'utopia'
p140
aS'#656565'
p141
aF8.88595
aI0
aI01
aI00
aI00
aI00
aI00
aI00
aI00
aI00
aa(lp142
I234378
aF295.13892
aF84.8346
ag139
aS'utopia'
p143
aS'#656565'
p144
aF8.88595
aI0
aI00
aI00
aI00
aI00
aI00
aI00
aI00
aI00
aa(lp145
I234378
aF300.822
aF84.8346
aVp1
p146
aS'utopia'
p147
aS'#656565'
p148
aF8.88595
aI0
aI01
aI01
aI00
aI00
aI00
aI00
aI00
aI00
aa(lp149
I234378
aF315.903675
aF84.8346
ag146
aS'utopia'
p150
aS'#656565'
p151
aF8.88595
aI0
aI00
aI00
aI00
aI00
aI00
aI00
aI00
aI00
aa(lp152
I222873
aF323.037
aF84.8346
aVp1
p153
aS'utopia'
p154
aS'#656565'
p155
aF8.88595
aI0
aI01
aI00
aI00
aI00
aI00
aI00
aI00
aI00
aa(lp156
I234378
aF349.1591142857143
aF84.8346
ag153
aS'utopia'
p157
aS'#656565'
p158
aF8.88595
aI0
aI00
aI00
aI00
aI00
aI00
aI00
aI00
aI00
aa(lp159
I234378
aF355.619
aF84.8346
aVp1
p160
aS'utopia'
p161
aS'#656565'
p162
aF8.88595
aI0
aI01
aI00
aI00
aI00
aI00
aI00
aI00
aI00
aa(lp163
I234378
aF376.0789166666667
aF84.8346
ag160
aS'utopia'
p164
aS'#656565'
p165
aF8.88595
aI0
aI00
aI00
aI00
aI00
aI00
aI00
aI00
aI00
aa(lp166
I158280
aF382.277
aF84.8346
aVp1
p167
aS'utopia'
p168
aS'#656565'
p169
aF8.88595
aI0
aI01
aI00
aI00
aI00
aI00
aI00
aI00
aI00
aa(lp170
I234378
aF398.2554
aF84.8346
ag167
aS'utopia'
p171
aS'#656565'
p172
aF8.88595
aI0
aI00
aI00
aI00
aI00
aI00
aI00
aI00
aI00
aa(lp173
I234378
aF402.25
aF84.8346
ag167
aS'utopia'
p174
aS'#656565'
p175
aF8.88595
aI0
aI00
aI00
aI00
aI00
aI00
aI00
aI00
aI00
aa(lp176
I234378
aF410.2392
aF84.8346
ag167
aS'utopia'
p177
aS'#656565'
p178
aF8.88595
aI0
aI00
aI00
aI00
aI00
aI00
aI00
aI00
aI00
aa(lp179
I234378
aF416.34
aF84.8346
aVp1
p180
aS'utopia'
p181
aS'#656565'
p182
aF8.88595
aI0
aI01
aI01
aI00
aI00
aI00
aI00
aI00
aI00
aa(lp183
I234378
aF429.20017499999994
aF84.8346
ag180
aS'utopia'
p184
aS'#656565'
p185
aF8.88595
aI0
aI00
aI00
aI00
aI00
aI00
aI00
aI00
aI00
aa(lp186
I234378
aF40.9084
aF95.2016
aVp1
p187
aS'utopia'
p188
aS'#656565'
p189
aF8.88595
aI0
aI01
aI00
aI00
aI00
aI00
aI00
aI00
aI00
aa(lp190
I234378
aF66.39588571428571
aF95.2016
ag187
aS'utopia'
p191
aS'#656565'
p192
aF8.88595
aI0
aI00
aI00
aI00
aI00
aI00
aI00
aI00
aI00
aa(lp193
I160135
aF72.7498
aF95.2016
aVp1
p194
aS'utopia'
p195
aS'#656565'
p196
aF8.88595
aI0
aI01
aI00
aI00
aI00
aI00
aI00
aI00
aI00
aa(lp197
I234378
aF105.90226666666666
aF95.2016
ag194
aS'utopia'
p198
aS'#656565'
p199
aF8.88595
aI0
aI00
aI00
aI00
aI00
aI00
aI00
aI00
aI00
aa(lp200
I234378
aF110.046325
aF95.2016
ag194
aS'utopia'
p201
aS'#656565'
p202
aF8.88595
aI0
aI00
aI00
aI00
aI00
aI00
aI00
aI00
aI00
aa(lp203
I234378
aF118.33444166666666
aF95.2016
ag194
aS'utopia'
p204
aS'#656565'
p205
aF8.88595
aI0
aI00
aI00
aI00
aI00
aI00
aI00
aI00
aI00
aa(lp206
I165851
aF124.584
aF95.2016
aVp1
p207
aS'utopia'
p208
aS'#656565'
p209
aF8.88595
aI0
aI01
aI00
aI00
aI00
aI00
aI00
aI00
aI00
aa(lp210
I234378
aF151.0461
aF95.2016
ag207
aS'utopia'
p211
aS'#656565'
p212
aF8.88595
aI0
aI00
aI00
aI00
aI00
aI00
aI00
aI00
aI00
aa(lp213
I234378
aF154.8264
aF95.2016
ag207
aS'utopia'
p214
aS'#656565'
p215
aF8.88595
aI0
aI00
aI00
aI00
aI00
aI00
aI00
aI00
aI00
aa(lp216
I234378
aF162.387
aF95.2016
ag207
aS'utopia'
p217
aS'#656565'
p218
aF8.88595
aI0
aI00
aI00
aI00
aI00
aI00
aI00
aI00
aI00
aa(lp219
I234378
aF168.274
aF95.2016
aVp1
p220
aS'utopia'
p221
aS'#656565'
p222
aF8.88595
aI0
aI01
aI01
aI01
aI00
aI00
aI00
aI00
aI00
aa(lp223
I234378
aF195.52175
aF95.2016
ag220
aS'utopia'
p224
aS'#656565'
p225
aF8.88595
aI0
aI00
aI00
aI00
aI00
aI00
aI00
aI00
aI00
aa(lp226
I234378
aF203.077
aF95.2016
aVp1
p227
aS'utopia'
p228
aS'#656565'
p229
aF8.88595
aI0
aI01
aI01
aI01
aI00
aI00
aI00
aI00
aI00
aa(lp230
I234378
aF59.4208
aF132.967
aVp1
p231
aS'utopia'
p232
aS'#0d75b4'
p233
aF8.88595
aI0
aI00
aI00
aI00
aI00
aI00
aI01
aI00
aI00
aa(lp234
I234378
aF301.563
aF124.081
aVp1
p235
aS'utopia'
p236
aS'#000000'
p237
aF8.88595
aI0
aI00
aI00
aI01
aI01
aI01
aI00
aI00
aI00
aa(lp238
I234378
aF301.563
aF141.853
aVp1
p239
aS'utopia'
p240
aS'#000000'
p241
aF8.88595
aI0
aI00
aI00
aI01
aI01
aI01
aI00
aI00
aI00
aa(lp242
I15548
aF55.7183
aF176.656
aVp1
p243
aS'utopia'
p244
aS'#878787'
p245
aF8.88595
aI0
aI01
aI00
aI00
aI00
aI00
aI00
aI00
aI00
aa(lp246
I104542
aF89.0407
aF176.656
aVp1
p247
aS'utopia'
p248
aS'#878787'
p249
aF8.88595
aI0
aI01
aI00
aI00
aI00
aI00
aI00
aI00
aI00
aa(lp250
I234378
aF133.94655
aF176.656
ag247
aS'utopia'
p251
aS'#878787'
p252
aF8.88595
aI0
aI00
aI00
aI00
aI00
aI00
aI00
aI00
aI00
aa(lp253
I55966
aF142.356
aF176.656
aVp1
p254
aS'utopia'
p255
aS'#000000'
p256
aF8.88595
aI0
aI01
aI00
aI00
aI00
aI00
aI00
aI00
aI00
aa(lp257
I149270
aF169.755
aF176.656
aVp1
p258
aS'utopia'
p259
aS'#000000'
p260
aF8.88595
aI0
aI01
aI00
aI00
aI00
aI00
aI00
aI00
aI00
aa(lp261
I175409
aF209.741
aF176.656
aVp1
p262
aS'utopia'
p263
aS'#000000'
p264
aF8.88595
aI0
aI01
aI00
aI00
aI00
aI00
aI00
aI00
aI00
aa(lp265
I16915
aF308.227
aF176.656
aVp1
p266
aS'utopia'
p267
aS'#878787'
p268
aF8.88595
aI0
aI01
aI00
aI00
aI00
aI00
aI00
aI00
aI00
aa(lp269
I60220
aF330.442
aF176.656
aVp1
p270
aS'utopia'
p271
aS'#878787'
p272
aF8.88595
aI0
aI01
aI00
aI00
aI00
aI00
aI00
aI00
aI00
aa(lp273
I234378
aF372.28409090909093
aF176.656
ag270
aS'utopia'
p274
aS'#878787'
p275
aF8.88595
aI0
aI00
aI00
aI00
aI00
aI00
aI00
aI00
aI00
aa(lp276
I234378
aF380.796
aF176.656
aVp1
p277
aS'utopia'
p278
aS'#000000'
p279
aF8.88595
aI0
aI00
aI00
aI01
aI01
aI01
aI00
aI00
aI00
aa(lp280
I91136
aF391.903
aF176.656
aVp1
p281
aS'utopia'
p282
aS'#000000'
p283
aF8.88595
aI0
aI01
aI00
aI00
aI00
aI00
aI00
aI00
aI00
aa(lp284
I234378
aF407.6286
aF176.656
ag281
aS'utopia'
p285
aS'#000000'
p286
aF8.88595
aI0
aI00
aI00
aI00
aI00
aI00
aI00
aI00
aI00
aa(lp287
I59734
aF411.56
aF176.656
ag281
aS'utopia'
p288
aS'#000000'
p289
aF8.88595
aI0
aI00
aI00
aI00
aI00
aI00
aI00
aI00
aI00
aa(lp290
I234378
aF415.4914
aF176.656
ag281
aS'utopia'
p291
aS'#000000'
p292
aF8.88595
aI0
aI00
aI00
aI00
aI00
aI00
aI00
aI00
aI00
aa(lp293
I234378
aF421.523
aF176.656
aVp1
p294
aS'utopia'
p295
aS'#000000'
p296
aF8.88595
aI0
aI00
aI00
aI01
aI01
aI00
aI00
aI00
aI00
aa(lp297
I63729
aF428.188
aF176.656
aVp1
p298
aS'utopia'
p299
aS'#000000'
p300
aF8.88595
aI0
aI01
aI00
aI00
aI00
aI00
aI00
aI00
aI00
aa(lp301
I234378
aF450.9415625
aF176.656
ag298
aS'utopia'
p302
aS'#000000'
p303
aF8.88595
aI0
aI00
aI00
aI00
aI00
aI00
aI00
aI00
aI00
aa(lp304
I59734
aF455.49227499999995
aF176.656
ag298
aS'utopia'
p305
aS'#000000'
p306
aF8.88595
aI0
aI00
aI00
aI00
aI00
aI00
aI00
aI00
aI00
aa(lp307
I234378
aF460.0429874999999
aF176.656
ag298
aS'utopia'
p308
aS'#000000'
p309
aF8.88595
aI0
aI00
aI00
aI00
aI00
aI00
aI00
aI00
aI00
aa(lp310
I15548
aF55.7183
aF194.428
aVp1
p311
aS'utopia'
p312
aS'#878787'
p313
aF8.88595
aI0
aI01
aI00
aI00
aI00
aI00
aI00
aI00
aI00
aa(lp314
I2006
aF89.0407
aF194.428
aVp1
p315
aS'utopia'
p316
aS'#878787'
p317
aF8.88595
aI0
aI01
aI00
aI00
aI00
aI00
aI00
aI00
aI00
aa(lp318
I234378
aF124.77815
aF194.428
ag315
aS'utopia'
p319
aS'#878787'
p320
aF8.88595
aI0
aI00
aI00
aI00
aI00
aI00
aI00
aI00
aI00
aa(lp321
I234378
aF134.211
aF194.428
aVp1
p322
aS'utopia'
p323
aS'#000000'
p324
aF8.88595
aI0
aI01
aI01
aI00
aI00
aI00
aI00
aI00
aI00
aa(lp325
I234378
aF154.945
aF194.428
aVp1
p326
aS'utopia'
p327
aS'#000000'
p328
aF8.88595
aI0
aI01
aI00
aI00
aI00
aI00
aI00
aI00
aI00
aa(lp329
I40036
aF209.001
aF194.428
aVp1
p330
aS'utopia'
p331
aS'#000000'
p332
aF8.88595
aI0
aI01
aI00
aI00
aI00
aI00
aI00
aI00
aI00
aa(lp333
I229300
aF308.227
aF194.428
aVp1
p334
aS'utopia'
p335
aS'#878787'
p336
aF8.88595
aI0
aI01
aI00
aI00
aI00
aI00
aI00
aI00
aI00
aa(lp337
I78894
aF338.588
aF194.428
aVp1
p338
aS'utopia'
p339
aS'#878787'
p340
aF8.88595
aI0
aI01
aI00
aI00
aI00
aI00
aI00
aI00
aI00
aa(lp341
I234378
aF360.9019142857143
aF194.428
ag338
aS'utopia'
p342
aS'#878787'
p343
aF8.88595
aI0
aI00
aI00
aI00
aI00
aI00
aI00
aI00
aI00
aa(lp344
I234378
aF368.948
aF194.428
aVp1
p345
aS'utopia'
p346
aS'#000000'
p347
aF8.88595
aI0
aI01
aI00
aI00
aI00
aI00
aI00
aI00
aI00
aa(lp348
I234378
aF380.796
aF194.428
aVp1
p349
aS'utopia'
p350
aS'#000000'
p351
aF8.88595
aI0
aI00
aI00
aI01
aI01
aI01
aI00
aI00
aI00
aa(lp352
I234378
aF388.6867
aF194.428
ag349
aS'utopia'
p353
aS'#000000'
p354
aF8.88595
aI0
aI00
aI00
aI00
aI00
aI00
aI00
aI00
aI00
aa(lp355
I234378
aF392.63205
aF194.428
ag349
aS'utopia'
p356
aS'#000000'
p357
aF8.88595
aI0
aI00
aI00
aI01
aI01
aI00
aI00
aI00
aI00
aa(lp358
I234378
aF398.568
aF194.428
aVp1
p359
aS'utopia'
p360
aS'#000000'
p361
aF8.88595
aI0
aI01
aI00
aI00
aI00
aI00
aI00
aI00
aI00
aa(lp362
I15548
aF55.7183
aF212.2
aVp1
p363
aS'utopia'
p364
aS'#878787'
p365
aF8.88595
aI0
aI01
aI00
aI00
aI00
aI00
aI00
aI00
aI00
aa(lp366
I17057
aF89.0407
aF212.2
aVp1
p367
aS'utopia'
p368
aS'#878787'
p369
aF8.88595
aI0
aI01
aI00
aI00
aI00
aI00
aI00
aI00
aI00
aa(lp370
I234378
aF122.05430000000001
aF212.2
ag367
aS'utopia'
p371
aS'#878787'
p372
aF8.88595
aI0
aI00
aI00
aI00
aI00
aI00
aI00
aI00
aI00
aa(lp373
I234378
aF130.508
aF212.2
aVp1
p374
aS'utopia'
p375
aS'#000000'
p376
aF8.88595
aI0
aI01
aI00
aI00
aI00
aI00
aI00
aI00
aI00
aa(lp377
I234378
aF173.457
aF212.2
aVp1
p378
aS'utopia'
p379
aS'#000000'
p380
aF8.88595
aI0
aI00
aI00
aI00
aI00
aI00
aI00
aI00
aI00
aa(lp381
I234378
aF180.122
aF212.2
aVp1
p382
aS'utopia'
p383
aS'#000000'
p384
aF8.88595
aI0
aI01
aI00
aI00
aI00
aI00
aI00
aI00
aI00
aa(lp385
I234378
aF308.227
aF212.2
aVp1
p386
aS'utopia'
p387
aS'#878787'
p388
aF8.88595
aI0
aI01
aI00
aI00
aI00
aI00
aI00
aI00
aI00
aa(lp389
I234378
aF346.733
aF212.2
aVp1
p390
aS'utopia'
p391
aS'#878787'
p392
aF8.88595
aI0
aI01
aI01
aI00
aI00
aI00
aI00
aI00
aI00
aa(lp393
I234378
aF361.2593
aF212.2
ag390
aS'utopia'
p394
aS'#878787'
p395
aF8.88595
aI0
aI00
aI00
aI00
aI00
aI00
aI00
aI00
aI00
aa(lp396
I63091
aF370.429
aF212.2
aVp1
p397
aS'utopia'
p398
aS'#000000'
p399
aF8.88595
aI0
aI01
aI00
aI00
aI00
aI00
aI00
aI00
aI00
aa(lp400
I234378
aF387.46
aF212.2
aVp1
p401
aS'utopia'
p402
aS'#000000'
p403
aF8.88595
aI0
aI01
aI00
aI00
aI00
aI00
aI00
aI00
aI00
aa(lp404
I234378
aF55.7183
aF229.972
aVp1
p405
aS'utopia'
p406
aS'#878787'
p407
aF8.88595
aI0
aI01
aI00
aI00
aI00
aI00
aI00
aI00
aI00
aa(lp408
I234378
aF70.62062
aF229.972
ag405
aS'utopia'
p409
aS'#878787'
p410
aF8.88595
aI0
aI00
aI00
aI00
aI00
aI00
aI00
aI00
aI00
aa(lp411
I17057
aF76.4522
aF229.972
aVp1
p412
aS'utopia'
p413
aS'#878787'
p414
aF8.88595
aI0
aI01
aI00
aI00
aI00
aI00
aI00
aI00
aI00
aa(lp415
I234378
aF109.4658
aF229.972
ag412
aS'utopia'
p416
aS'#878787'
p417
aF8.88595
aI0
aI00
aI00
aI00
aI00
aI00
aI00
aI00
aI00
aa(lp418
I234378
aF117.92
aF229.972
aVp1
p419
aS'utopia'
p420
aS'#000000'
p421
aF8.88595
aI0
aI01
aI00
aI00
aI00
aI00
aI00
aI00
aI00
aa(lp422
I234378
aF160.869
aF229.972
aVp1
p423
aS'utopia'
p424
aS'#000000'
p425
aF8.88595
aI0
aI00
aI00
aI00
aI00
aI00
aI00
aI00
aI00
aa(lp426
I234378
aF167.533
aF229.972
aVp1
p427
aS'utopia'
p428
aS'#000000'
p429
aF8.88595
aI0
aI01
aI00
aI00
aI00
aI00
aI00
aI00
aI00
aa(lp430
I234378
aF205.62442
aF229.972
ag427
aS'utopia'
p431
aS'#000000'
p432
aF8.88595
aI0
aI00
aI00
aI00
aI00
aI00
aI00
aI00
aI00
aa(lp433
I234378
aF211.963
aF229.972
aVp1
p434
aS'utopia'
p435
aS'#000000'
p436
aF8.88595
aI0
aI01
aI00
aI00
aI00
aI00
aI00
aI00
aI00
aa(lp437
I234378
aF254.05311999999998
aF229.972
ag434
aS'utopia'
p438
aS'#000000'
p439
aF8.88595
aI0
aI00
aI00
aI00
aI00
aI00
aI00
aI00
aI00
aa(lp440
I234378
aF260.836
aF229.972
aVp1
p441
aS'utopia'
p442
aS'#000000'
p443
aF8.88595
aI0
aI01
aI00
aI00
aI00
aI00
aI00
aI00
aI00
aa(lp444
I7204
aF308.227
aF229.972
aVp1
p445
aS'utopia'
p446
aS'#878787'
p447
aF8.88595
aI0
aI01
aI00
aI00
aI00
aI00
aI00
aI00
aI00
aa(lp448
I189220
aF340.809
aF229.972
aVp1
p449
aS'utopia'
p450
aS'#878787'
p451
aF8.88595
aI0
aI01
aI00
aI00
aI00
aI00
aI00
aI00
aI00
aa(lp452
I234378
aF366.93111428571433
aF229.972
ag449
aS'utopia'
p453
aS'#878787'
p454
aF8.88595
aI0
aI00
aI00
aI00
aI00
aI00
aI00
aI00
aI00
aa(lp455
I234378
aF375.613
aF229.972
aVp1
p456
aS'utopia'
p457
aS'#000000'
p458
aF8.88595
aI0
aI01
aI01
aI00
aI00
aI00
aI00
aI00
aI00
aa(lp459
I234378
aF394.83775
aF229.972
ag456
aS'utopia'
p460
aS'#000000'
p461
aF8.88595
aI0
aI00
aI00
aI00
aI00
aI00
aI00
aI00
aI00
aa(lp462
I234378
aF401.24600000000004
aF229.972
ag456
aS'utopia'
p463
aS'#000000'
p464
aF8.88595
aI0
aI01
aI01
aI00
aI00
aI00
aI00
aI00
aI00
aa(lp465
I98580
aF55.7183
aF247.744
aVp1
p466
aS'utopia'
p467
aS'#878787'
p468
aF8.88595
aI0
aI01
aI00
aI00
aI00
aI00
aI00
aI00
aI00
aa(lp469
I166289
aF100.148
aF247.744
aVp1
p470
aS'utopia'
p471
aS'#878787'
p472
aF8.88595
aI0
aI01
aI00
aI00
aI00
aI00
aI00
aI00
aI00
aa(lp473
I234378
aF116.82751999999999
aF247.744
ag470
aS'utopia'
p474
aS'#878787'
p475
aF8.88595
aI0
aI00
aI00
aI00
aI00
aI00
aI00
aI00
aI00
aa(lp476
I22476
aF125.325
aF247.744
aVp1
p477
aS'utopia'
p478
aS'#000000'
p479
aF8.88595
aI0
aI01
aI01
aI00
aI00
aI00
aI00
aI00
aI00
aa(lp480
I234378
aF135.692
aF247.744
aVp1
p481
aS'utopia'
p482
aS'#000000'
p483
aF8.88595
aI0
aI01
aI00
aI00
aI00
aI00
aI00
aI00
aI00
aa(lp484
I64620
aF178.641
aF247.744
aVp1
p485
aS'utopia'
p486
aS'#000000'
p487
aF8.88595
aI0
aI01
aI01
aI00
aI00
aI00
aI00
aI00
aI00
aa(lp488
I220029
aF184.98146
aF247.744
ag485
aS'utopia'
p489
aS'#000000'
p490
aF8.88595
aI0
aI01
aI00
aI00
aI00
aI00
aI00
aI00
aI00
aa(lp491
I234378
aF234.178
aF247.744
aVp1
p492
aS'utopia'
p493
aS'#000000'
p494
aF8.88595
aI0
aI00
aI00
aI00
aI00
aI00
aI00
aI00
aI00
aa(lp495
I234378
aF240.842
aF247.744
aVp1
p496
aS'utopia'
p497
aS'#000000'
p498
aF8.88595
aI0
aI01
aI00
aI00
aI00
aI00
aI00
aI00
aI00
aa(lp499
I234378
aF55.7183
aF258.111
aVp1
p500
aS'utopia'
p501
aS'#000000'
p502
aF8.88595
aI0
aI01
aI00
aI00
aI00
aI00
aI00
aI00
aI00
aa(lp503
I48671
aF308.227
aF247.744
aVp1
p504
aS'utopia'
p505
aS'#878787'
p506
aF8.88595
aI0
aI01
aI00
aI00
aI00
aI00
aI00
aI00
aI00
aa(lp507
I129688
aF336.366
aF247.744
aVp1
p508
aS'utopia'
p509
aS'#878787'
p510
aF8.88595
aI0
aI00
aI00
aI00
aI00
aI00
aI00
aI00
aI00
aa(lp511
I234378
aF360.58405714285715
aF247.744
ag508
aS'utopia'
p512
aS'#878787'
p513
aF8.88595
aI0
aI00
aI00
aI00
aI00
aI00
aI00
aI00
aI00
aa(lp514
I234378
aF368.948
aF247.744
aVp1
p515
aS'utopia'
p516
aS'#000000'
p517
aF8.88595
aI0
aI00
aI00
aI01
aI01
aI00
aI00
aI00
aI00
aa(lp518
I234378
aF375.613
aF247.744
aVp1
p519
aS'utopia'
p520
aS'#000000'
p521
aF8.88595
aI0
aI01
aI00
aI00
aI00
aI00
aI00
aI00
aI00
aa(lp522
I176435
aF55.7183
aF275.883
aVp1
p523
aS'utopia'
p524
aS'#878787'
p525
aF8.88595
aI0
aI01
aI00
aI00
aI00
aI00
aI00
aI00
aI00
aa(lp526
I234378
aF71.80542
aF275.883
ag523
aS'utopia'
p527
aS'#878787'
p528
aF8.88595
aI0
aI00
aI00
aI00
aI00
aI00
aI00
aI00
aI00
aa(lp529
I210461
aF80.1547
aF275.883
aVp1
p530
aS'utopia'
p531
aS'#000000'
p532
aF8.88595
aI0
aI01
aI00
aI00
aI00
aI00
aI00
aI00
aI00
aa(lp533
I175409
aF104.591
aF275.883
aVp1
p534
aS'utopia'
p535
aS'#000000'
p536
aF8.88595
aI0
aI01
aI00
aI00
aI00
aI00
aI00
aI00
aI00
aa(lp537
I234378
aF123.75304444444444
aF275.883
ag534
aS'utopia'
p538
aS'#000000'
p539
aF8.88595
aI0
aI00
aI00
aI00
aI00
aI00
aI00
aI00
aI00
aa(lp540
I2737
aF128.54355555555554
aF275.883
ag534
aS'utopia'
p541
aS'#000000'
p542
aF8.88595
aI0
aI01
aI00
aI00
aI00
aI00
aI00
aI00
aI00
aa(lp543
I175409
aF149.761
aF275.883
aVp1
p544
aS'utopia'
p545
aS'#000000'
p546
aF8.88595
aI0
aI01
aI00
aI00
aI00
aI00
aI00
aI00
aI00
aa(lp547
I74589
aF55.7183
aF293.654
aVp1
p548
aS'utopia'
p549
aS'#878787'
p550
aF8.88595
aI0
aI01
aI00
aI00
aI00
aI00
aI00
aI00
aI00
aa(lp551
I234378
aF87.41545555555555
aF293.654
ag548
aS'utopia'
p552
aS'#878787'
p553
aF8.88595
aI0
aI00
aI00
aI00
aI00
aI00
aI00
aI00
aI00
aa(lp554
I22476
aF95.7051
aF293.654
aVp1
p555
aS'utopia'
p556
aS'#000000'
p557
aF8.88595
aI0
aI01
aI01
aI00
aI00
aI00
aI00
aI00
aI00
aa(lp558
I234378
aF105.30374
aF293.654
ag555
aS'utopia'
p559
aS'#000000'
p560
aF8.88595
aI0
aI01
aI00
aI00
aI00
aI00
aI00
aI00
aI00
aa(lp561
I234378
aF139.69830000000002
aF293.654
ag555
aS'utopia'
p562
aS'#000000'
p563
aF8.88595
aI0
aI00
aI00
aI00
aI00
aI00
aI00
aI00
aI00
aa(lp564
I234378
aF134.99762
aF293.654
ag555
aS'utopia'
p565
aS'#000000'
p566
aF8.88595
aI0
aI01
aI00
aI00
aI00
aI00
aI00
aI00
aI00
aa(lp567
I234378
aF183.824
aF293.654
aVp1
p568
aS'utopia'
p569
aS'#000000'
p570
aF8.88595
aI0
aI01
aI00
aI00
aI00
aI00
aI00
aI00
aI00
aa(lp571
I231013
aF55.7183
aF311.426
aVp1
p572
aS'utopia'
p573
aS'#878787'
p574
aF8.88595
aI0
aI01
aI00
aI00
aI00
aI00
aI00
aI00
aI00
aa(lp575
I234378
aF72.7498
aF311.426
aVp1
p576
aS'utopia'
p577
aS'#878787'
p578
aF8.88595
aI0
aI01
aI00
aI00
aI00
aI00
aI00
aI00
aI00
aa(lp579
I234378
aF91.25542857142857
aF311.426
ag576
aS'utopia'
p580
aS'#878787'
p581
aF8.88595
aI0
aI00
aI00
aI00
aI00
aI00
aI00
aI00
aI00
aa(lp582
I21716
aF98.6671
aF311.426
aVp1
p583
aS'utopia'
p584
aS'#000000'
p585
aF8.88595
aI0
aI01
aI00
aI00
aI00
aI00
aI00
aI00
aI00
aa(lp586
I234378
aF113.56942000000001
aF311.426
ag583
aS'utopia'
p587
aS'#000000'
p588
aF8.88595
aI0
aI00
aI00
aI00
aI00
aI00
aI00
aI00
aI00
aa(lp589
I234378
aF119.401
aF311.426
aVp1
p590
aS'utopia'
p591
aS'#000000'
p592
aF8.88595
aI0
aI01
aI01
aI01
aI00
aI00
aI00
aI00
aI00
aa(lp593
I234378
aF135.48811999999998
aF311.426
ag590
aS'utopia'
p594
aS'#000000'
p595
aF8.88595
aI0
aI00
aI00
aI00
aI00
aI00
aI00
aI00
aI00
aa(lp596
I234378
aF141.616
aF311.426
aVp1
p597
aS'utopia'
p598
aS'#000000'
p599
aF8.88595
aI0
aI01
aI00
aI00
aI00
aI00
aI00
aI00
aI00
aa(lp600
I234378
aF170.68026666666668
aF311.426
ag597
aS'utopia'
p601
aS'#000000'
p602
aF8.88595
aI0
aI00
aI00
aI00
aI00
aI00
aI00
aI00
aI00
aa(lp603
I234378
aF176.419
aF311.426
aVp1
p604
aS'utopia'
p605
aS'#000000'
p606
aF8.88595
aI0
aI01
aI01
aI00
aI00
aI00
aI00
aI00
aI00
aa(lp607
I234378
aF187.61305000000002
aF311.426
ag604
aS'utopia'
p608
aS'#000000'
p609
aF8.88595
aI0
aI00
aI00
aI00
aI00
aI00
aI00
aI00
aI00
aa(lp610
I234378
aF193.451
aF311.426
aVp1
p611
aS'utopia'
p612
aS'#000000'
p613
aF8.88595
aI0
aI01
aI00
aI00
aI00
aI00
aI00
aI00
aI00
aa(lp614
I234378
aF215.1302
aF311.426
ag611
aS'utopia'
p615
aS'#000000'
p616
aF8.88595
aI0
aI00
aI00
aI00
aI00
aI00
aI00
aI00
aI00
aa(lp617
I44279
aF220.849
aF311.426
aVp1
p618
aS'utopia'
p619
aS'#000000'
p620
aF8.88595
aI0
aI01
aI00
aI00
aI00
aI00
aI00
aI00
aI00
aa(lp621
I234378
aF233.1538
aF311.426
ag618
aS'utopia'
p622
aS'#000000'
p623
aF8.88595
aI0
aI00
aI00
aI00
aI00
aI00
aI00
aI00
aI00
aa(lp624
I234378
aF239.361
aF311.426
aVp1
p625
aS'utopia'
p626
aS'#000000'
p627
aF8.88595
aI0
aI01
aI00
aI00
aI00
aI00
aI00
aI00
aI00
aa(lp628
I234378
aF263.52341666666666
aF311.426
ag625
aS'utopia'
p629
aS'#000000'
p630
aF8.88595
aI0
aI00
aI00
aI00
aI00
aI00
aI00
aI00
aI00
aa(lp631
I234378
aF55.7183
aF321.793
aVp1
p632
aS'utopia'
p633
aS'#000000'
p634
aF8.88595
aI0
aI01
aI00
aI00
aI00
aI00
aI00
aI00
aI00
aa(lp635
I234378
aF93.5213
aF321.793
ag632
aS'utopia'
p636
aS'#000000'
p637
aF8.88595
aI0
aI00
aI00
aI00
aI00
aI00
aI00
aI00
aI00
aa(lp638
I45445
aF99.4076
aF321.793
aVp1
p639
aS'utopia'
p640
aS'#000000'
p641
aF8.88595
aI0
aI01
aI00
aI00
aI00
aI00
aI00
aI00
aI00
aa(lp642
I234378
aF123.62565714285715
aF321.793
ag639
aS'utopia'
p643
aS'#000000'
p644
aF8.88595
aI0
aI00
aI00
aI00
aI00
aI00
aI00
aI00
aI00
aa(lp645
I234378
aF129.768
aF321.793
aVp1
p646
aS'utopia'
p647
aS'#000000'
p648
aF8.88595
aI0
aI01
aI01
aI00
aI00
aI00
aI00
aI00
aI00
aa(lp649
I234378
aF143.738925
aF321.793
ag646
aS'utopia'
p650
aS'#000000'
p651
aF8.88595
aI0
aI00
aI00
aI00
aI00
aI00
aI00
aI00
aI00
aa(lp652
I234378
aF150.502
aF321.793
aVp1
p653
aS'utopia'
p654
aS'#000000'
p655
aF8.88595
aI0
aI01
aI00
aI00
aI00
aI00
aI00
aI00
aI00
aa(lp656
I234378
aF176.51558333333335
aF321.793
ag653
aS'utopia'
p657
aS'#000000'
p658
aF8.88595
aI0
aI00
aI00
aI00
aI00
aI00
aI00
aI00
aI00
aa(lp659
I234378
aF183.824
aF321.793
aVp1
p660
aS'utopia'
p661
aS'#000000'
p662
aF8.88595
aI0
aI01
aI01
aI00
aI00
aI00
aI00
aI00
aI00
aa(lp663
I234378
aF199.46105
aF321.793
ag660
aS'utopia'
p664
aS'#000000'
p665
aF8.88595
aI0
aI00
aI00
aI00
aI00
aI00
aI00
aI00
aI00
aa(lp666
I234378
aF206.779
aF321.793
aVp1
p667
aS'utopia'
p668
aS'#000000'
p669
aF8.88595
aI0
aI01
aI01
aI00
aI00
aI00
aI00
aI00
aI00
aa(lp670
I234378
aF224.64332
aF321.793
ag667
aS'utopia'
p671
aS'#000000'
p672
aF8.88595
aI0
aI00
aI00
aI00
aI00
aI00
aI00
aI00
aI00
aa(lp673
I234378
aF231.216
aF321.793
aVp1
p674
aS'utopia'
p675
aS'#000000'
p676
aF8.88595
aI0
aI01
aI00
aI00
aI00
aI00
aI00
aI00
aI00
aa(lp677
I234378
aF245.52592
aF321.793
ag674
aS'utopia'
p678
aS'#000000'
p679
aF8.88595
aI0
aI00
aI00
aI00
aI00
aI00
aI00
aI00
aI00
aa(lp680
I234378
aF251.209
aF321.793
aVp1
p681
aS'utopia'
p682
aS'#000000'
p683
aF8.88595
aI0
aI01
aI01
aI00
aI00
aI00
aI00
aI00
aI00
aa(lp684
I234378
aF266.290675
aF321.793
ag681
aS'utopia'
p685
aS'#000000'
p686
aF8.88595
aI0
aI00
aI00
aI00
aI00
aI00
aI00
aI00
aI00
aa(lp687
I222873
aF273.424
aF321.793
aVp1
p688
aS'utopia'
p689
aS'#000000'
p690
aF8.88595
aI0
aI01
aI00
aI00
aI00
aI00
aI00
aI00
aI00
aa(lp691
I234378
aF299.5461142857143
aF321.793
ag688
aS'utopia'
p692
aS'#000000'
p693
aF8.88595
aI0
aI00
aI00
aI00
aI00
aI00
aI00
aI00
aI00
aa(lp694
I234378
aF55.7183
aF332.16
aVp1
p695
aS'utopia'
p696
aS'#000000'
p697
aF8.88595
aI0
aI01
aI00
aI00
aI00
aI00
aI00
aI00
aI00
aa(lp698
I234378
aF76.17821666666666
aF332.16
ag695
aS'utopia'
p699
aS'#000000'
p700
aF8.88595
aI0
aI00
aI00
aI00
aI00
aI00
aI00
aI00
aI00
aa(lp701
I77592
aF82.3762
aF332.16
aVp1
p702
aS'utopia'
p703
aS'#000000'
p704
aF8.88595
aI0
aI01
aI00
aI00
aI00
aI00
aI00
aI00
aI00
aa(lp705
I234378
aF109.76774285714285
aF332.16
ag702
aS'utopia'
p706
aS'#000000'
p707
aF8.88595
aI0
aI00
aI00
aI00
aI00
aI00
aI00
aI00
aI00
aa(lp708
I110786
aF116.439
aF332.16
aVp1
p709
aS'utopia'
p710
aS'#000000'
p711
aF8.88595
aI0
aI01
aI00
aI00
aI00
aI00
aI00
aI00
aI00
aa(lp712
I234378
aF144.46525714285713
aF332.16
ag709
aS'utopia'
p713
aS'#000000'
p714
aF8.88595
aI0
aI00
aI00
aI00
aI00
aI00
aI00
aI00
aI00
aa(lp715
I218862
aF151.242
aF332.16
aVp1
p716
aS'utopia'
p717
aS'#000000'
p718
aF8.88595
aI0
aI01
aI00
aI00
aI00
aI00
aI00
aI00
aI00
aa(lp719
I234378
aF171.976
aF332.16
aVp1
p720
aS'utopia'
p721
aS'#000000'
p722
aF8.88595
aI0
aI01
aI00
aI00
aI00
aI00
aI00
aI00
aI00
aa(lp723
I234378
aF205.40227
aF332.16
ag720
aS'utopia'
p724
aS'#000000'
p725
aF8.88595
aI0
aI00
aI00
aI00
aI00
aI00
aI00
aI00
aI00
aa(lp726
I158280
aF211.222
aF332.16
aVp1
p727
aS'utopia'
p728
aS'#000000'
p729
aF8.88595
aI0
aI01
aI00
aI00
aI00
aI00
aI00
aI00
aI00
aa(lp730
I234378
aF227.2004
aF332.16
ag727
aS'utopia'
p731
aS'#000000'
p732
aF8.88595
aI0
aI00
aI00
aI00
aI00
aI00
aI00
aI00
aI00
aa(lp733
I234378
aF231.195
aF332.16
ag727
aS'utopia'
p734
aS'#000000'
p735
aF8.88595
aI0
aI00
aI00
aI00
aI00
aI00
aI00
aI00
aI00
aa(lp736
I234378
aF239.1842
aF332.16
ag727
aS'utopia'
p737
aS'#000000'
p738
aF8.88595
aI0
aI00
aI00
aI00
aI00
aI00
aI00
aI00
aI00
aa(lp739
I234378
aF245.285
aF332.16
aVp1
p740
aS'utopia'
p741
aS'#000000'
p742
aF8.88595
aI0
aI01
aI01
aI00
aI00
aI00
aI00
aI00
aI00
aa(lp743
I234378
aF258.145175
aF332.16
ag740
aS'utopia'
p744
aS'#000000'
p745
aF8.88595
aI0
aI00
aI00
aI00
aI00
aI00
aI00
aI00
aI00
aa(lp746
I234378
aF264.538
aF332.16
aVp1
p747
aS'utopia'
p748
aS'#000000'
p749
aF8.88595
aI0
aI01
aI00
aI00
aI00
aI00
aI00
aI00
aI00
aa(lp750
I234378
aF290.0254857142857
aF332.16
ag747
aS'utopia'
p751
aS'#000000'
p752
aF8.88595
aI0
aI00
aI00
aI00
aI00
aI00
aI00
aI00
aI00
aa(lp753
I160135
aF55.7183
aF342.527
aVp1
p754
aS'utopia'
p755
aS'#000000'
p756
aF8.88595
aI0
aI01
aI00
aI00
aI00
aI00
aI00
aI00
aI00
aa(lp757
I234378
aF88.87076666666667
aF342.527
ag754
aS'utopia'
p758
aS'#000000'
p759
aF8.88595
aI0
aI00
aI00
aI00
aI00
aI00
aI00
aI00
aI00
aa(lp760
I234378
aF93.014825
aF342.527
ag754
aS'utopia'
p761
aS'#000000'
p762
aF8.88595
aI0
aI00
aI00
aI00
aI00
aI00
aI00
aI00
aI00
aa(lp763
I234378
aF101.30294166666667
aF342.527
ag754
aS'utopia'
p764
aS'#000000'
p765
aF8.88595
aI0
aI00
aI00
aI00
aI00
aI00
aI00
aI00
aI00
aa(lp766
I165851
aF107.553
aF342.527
aVp1
p767
aS'utopia'
p768
aS'#000000'
p769
aF8.88595
aI0
aI01
aI00
aI00
aI00
aI00
aI00
aI00
aI00
aa(lp770
I234378
aF134.0151
aF342.527
ag767
aS'utopia'
p771
aS'#000000'
p772
aF8.88595
aI0
aI00
aI00
aI00
aI00
aI00
aI00
aI00
aI00
aa(lp773
I234378
aF137.7954
aF342.527
ag767
aS'utopia'
p774
aS'#000000'
p775
aF8.88595
aI0
aI00
aI00
aI00
aI00
aI00
aI00
aI00
aI00
aa(lp776
I234378
aF145.356
aF342.527
ag767
aS'utopia'
p777
aS'#000000'
p778
aF8.88595
aI0
aI00
aI00
aI00
aI00
aI00
aI00
aI00
aI00
aa(lp779
I234378
aF151.242
aF342.527
aVp1
p780
aS'utopia'
p781
aS'#000000'
p782
aF8.88595
aI0
aI01
aI01
aI01
aI00
aI00
aI00
aI00
aI00
aa(lp783
I234378
aF178.48975
aF342.527
ag780
aS'utopia'
p784
aS'#000000'
p785
aF8.88595
aI0
aI00
aI00
aI00
aI00
aI00
aI00
aI00
aI00
aa(lp786
I234378
aF186.046
aF342.527
aVp1
p787
aS'utopia'
p788
aS'#000000'
p789
aF8.88595
aI0
aI01
aI01
aI01
aI00
aI00
aI00
aI00
aI00
aa(lp790
I234378
aF203.31792
aF342.527
ag787
aS'utopia'
p791
aS'#000000'
p792
aF8.88595
aI0
aI00
aI00
aI00
aI00
aI00
aI00
aI00
aI00
aa(lp793
I51660
aF209.741
aF342.527
aVp1
p794
aS'utopia'
p795
aS'#000000'
p796
aF8.88595
aI0
aI01
aI00
aI00
aI00
aI00
aI00
aI00
aI00
aa(lp797
I234378
aF227.73258333333334
aF342.527
ag794
aS'utopia'
p798
aS'#000000'
p799
aF8.88595
aI0
aI00
aI00
aI00
aI00
aI00
aI00
aI00
aI00
aa(lp800
I81833
aF233.437
aF342.527
aVp1
p801
aS'utopia'
p802
aS'#000000'
p803
aF8.88595
aI0
aI01
aI00
aI00
aI00
aI00
aI00
aI00
aI00
aa(lp804
I234378
aF251.42858333333334
aF342.527
ag801
aS'utopia'
p805
aS'#000000'
p806
aF8.88595
aI0
aI00
aI00
aI00
aI00
aI00
aI00
aI00
aI00
aa(lp807
I234378
aF257.133
aF342.527
aVp1
p808
aS'utopia'
p809
aS'#000000'
p810
aF8.88595
aI0
aI01
aI01
aI00
aI00
aI00
aI00
aI00
aI00
aa(lp811
I234378
aF271.6593
aF342.527
ag808
aS'utopia'
p812
aS'#000000'
p813
aF8.88595
aI0
aI00
aI00
aI00
aI00
aI00
aI00
aI00
aI00
aa(lp814
I216500
aF278.608
aF342.527
aVp1
p815
aS'utopia'
p816
aS'#000000'
p817
aF8.88595
aI0
aI01
aI01
aI00
aI00
aI00
aI00
aI00
aI00
aa(lp818
I234378
aF291.468175
aF342.527
ag815
aS'utopia'
p819
aS'#000000'
p820
aF8.88595
aI0
aI00
aI00
aI00
aI00
aI00
aI00
aI00
aI00
aa(lp821
I234378
aF55.7183
aF352.894
aVp1
p822
aS'utopia'
p823
aS'#000000'
p824
aF8.88595
aI0
aI01
aI01
aI00
aI00
aI00
aI00
aI00
aI00
aa(lp825
I234378
aF68.578475
aF352.894
ag822
aS'utopia'
p826
aS'#000000'
p827
aF8.88595
aI0
aI00
aI00
aI00
aI00
aI00
aI00
aI00
aI00
aa(lp828
I234378
aF74.9712
aF352.894
aVp1
p829
aS'utopia'
p830
aS'#000000'
p831
aF8.88595
aI0
aI01
aI01
aI00
aI00
aI00
aI00
aI00
aI00
aa(lp832
I234378
aF88.942125
aF352.894
ag829
aS'utopia'
p833
aS'#000000'
p834
aF8.88595
aI0
aI00
aI00
aI00
aI00
aI00
aI00
aI00
aI00
aa(lp835
I234378
aF95.7051
aF352.894
aVp1
p836
aS'utopia'
p837
aS'#000000'
p838
aF8.88595
aI0
aI01
aI01
aI00
aI00
aI00
aI00
aI00
aI00
aa(lp839
I51933
aF40.1679
aF389.937
aVp1
p840
aS'utopia'
p841
aS'#02304b'
p842
aF11.8479
aI1
aI01
aI00
aI00
aI00
aI00
aI00
aI00
aI00
aa(lp843
I60220
aF72.0093
aF389.937
aVp1
p844
aS'utopia'
p845
aS'#02304b'
p846
aF11.8479
aI1
aI01
aI00
aI00
aI00
aI00
aI00
aI00
aI00
aa(lp847
I234378
aF40.9084
aF421.654
aVp1
p848
aS'utopia'
p849
aS'#000000'
p850
aF10.3669
aI1
aI01
aI01
aI00
aI00
aI00
aI00
aI00
aI00
aa(lp851
I234378
aF64.6043
aF421.654
aVp1
p852
aS'utopia'
p853
aS'#000000'
p854
aF10.3669
aI1
aI01
aI00
aI00
aI00
aI00
aI00
aI00
aI00
aa(lp855
I40036
aF129.768
aF421.654
aVp1
p856
aS'utopia'
p857
aS'#000000'
p858
aF10.3669
aI1
aI01
aI00
aI00
aI00
aI00
aI00
aI00
aI00
aa(lp859
I234378
aF168.274
aF421.923
aVp1
p860
aS'utopia'
p861
aS'#656565'
p862
aF10.3669
aI0
aI00
aI00
aI00
aI00
aI00
aI00
aI00
aI00
aa(lp863
I15548
aF173.251425
aF421.923
ag860
aS'utopia'
p864
aS'#656565'
p865
aF10.3669
aI0
aI01
aI00
aI00
aI00
aI00
aI00
aI00
aI00
aa(lp866
I70289
aF210.482
aF421.923
aVp1
p867
aS'utopia'
p868
aS'#656565'
p869
aF10.3669
aI0
aI01
aI00
aI00
aI00
aI00
aI00
aI00
aI00
aa(lp870
I234378
aF253.83097777777778
aF421.923
ag867
aS'utopia'
p871
aS'#656565'
p872
aF10.3669
aI0
aI00
aI00
aI00
aI00
aI00
aI00
aI00
aI00
aa(lp873
I55966
aF40.9084
aF438.214
aVp1
p874
aS'utopia'
p875
aS'#656565'
p876
aF10.3669
aI0
aI01
aI00
aI00
aI00
aI00
aI00
aI00
aI00
aa(lp877
I149270
aF73.4902
aF438.214
aVp1
p878
aS'utopia'
p879
aS'#656565'
p880
aF10.3669
aI0
aI01
aI00
aI00
aI00
aI00
aI00
aI00
aI00
aa(lp881
I175409
aF122.363
aF438.214
aVp1
p882
aS'utopia'
p883
aS'#656565'
p884
aF10.3669
aI0
aI01
aI00
aI00
aI00
aI00
aI00
aI00
aI00
aa(lp885
I234378
aF151.242
aF438.214
aVp1
p886
aS'utopia'
p887
aS'#656565'
p888
aF10.3669
aI0
aI01
aI00
aI00
aI00
aI00
aI00
aI00
aI01
aa(lp889
I234378
aF170.495
aF438.214
aVp1
p890
aS'utopia'
p891
aS'#656565'
p892
aF10.3669
aI0
aI00
aI00
aI01
aI01
aI01
aI00
aI00
aI00
aa(lp893
I234378
aF40.9084
aF458.045
aVp1
p894
aS'utopia'
p895
aS'#656565'
p896
aF8.88595
aI0
aI01
aI01
aI00
aI00
aI00
aI00
aI00
aI00
aa(lp897
I234378
aF52.0159
aF458.045
aVp1
p898
aS'utopia'
p899
aS'#656565'
p900
aF8.88595
aI0
aI00
aI00
aI00
aI00
aI00
aI00
aI00
aI00
aa(lp901
I145945
aF55.87482727272727
aF458.045
ag898
aS'utopia'
p902
aS'#656565'
p903
aF8.88595
aI0
aI01
aI00
aI00
aI00
aI00
aI00
aI00
aI00
aa(lp904
I178237
aF96.4456
aF458.045
aVp1
p905
aS'utopia'
p906
aS'#656565'
p907
aF8.88595
aI0
aI01
aI00
aI00
aI00
aI00
aI00
aI00
aI00
aa(lp908
I234378
aF142.71453333333335
aF458.045
ag905
aS'utopia'
p909
aS'#656565'
p910
aF8.88595
aI0
aI00
aI00
aI00
aI00
aI00
aI00
aI00
aI00
aa(lp911
I85218
aF149.021
aF458.045
aVp1
p912
aS'utopia'
p913
aS'#656565'
p914
aF8.88595
aI0
aI00
aI00
aI00
aI00
aI00
aI00
aI00
aI00
aa(lp915
I234378
aF166.052
aF458.045
aVp1
p916
aS'utopia'
p917
aS'#656565'
p918
aF8.88595
aI0
aI01
aI01
aI00
aI00
aI00
aI00
aI00
aI00
aa(lp919
I234378
aF183.084
aF458.045
aVp1
p920
aS'utopia'
p921
aS'#656565'
p922
aF8.88595
aI0
aI00
aI00
aI00
aI00
aI00
aI00
aI00
aI00
aa(lp923
I145945
aF186.94292727272727
aF458.045
ag920
aS'utopia'
p924
aS'#656565'
p925
aF8.88595
aI0
aI01
aI00
aI00
aI00
aI00
aI00
aI00
aI00
aa(lp926
I214011
aF227.513
aF458.045
aVp1
p927
aS'utopia'
p928
aS'#656565'
p929
aF8.88595
aI0
aI01
aI00
aI00
aI00
aI00
aI00
aI00
aI00
aa(lp930
I234378
aF281.53442666666666
aF458.045
ag927
aS'utopia'
p931
aS'#656565'
p932
aF8.88595
aI0
aI00
aI00
aI00
aI00
aI00
aI00
aI00
aI00
aa(lp933
I176435
aF287.494
aF458.045
aVp1
p934
aS'utopia'
p935
aS'#656565'
p936
aF8.88595
aI0
aI00
aI00
aI00
aI00
aI00
aI00
aI00
aI00
aa(lp937
I234378
aF301.80392
aF458.045
ag934
aS'utopia'
p938
aS'#656565'
p939
aF8.88595
aI0
aI00
aI00
aI00
aI00
aI00
aI00
aI00
aI00
aa(lp940
I81833
aF307.487
aF458.045
aVp1
p941
aS'utopia'
p942
aS'#656565'
p943
aF8.88595
aI0
aI01
aI00
aI00
aI00
aI00
aI00
aI00
aI00
aa(lp944
I234378
aF327.04954545454547
aF458.045
ag941
aS'utopia'
p945
aS'#656565'
p946
aF8.88595
aI0
aI00
aI00
aI00
aI00
aI00
aI00
aI00
aI00
aa(lp947
I51660
aF330.9620545454546
aF458.045
ag941
aS'utopia'
p948
aS'#656565'
p949
aF8.88595
aI0
aI01
aI00
aI00
aI00
aI00
aI00
aI00
aI00
aa(lp950
I45324
aF352.657
aF458.045
aVp1
p951
aS'utopia'
p952
aS'#656565'
p953
aF8.88595
aI0
aI00
aI00
aI00
aI00
aI00
aI00
aI00
aI00
aa(lp954
I190926
aF380.056
aF458.045
aVp1
p955
aS'utopia'
p956
aS'#656565'
p957
aF8.88595
aI0
aI00
aI00
aI00
aI00
aI00
aI00
aI00
aI00
aa(lp958
I61195
aF405.232
aF458.045
aVp1
p959
aS'utopia'
p960
aS'#656565'
p961
aF8.88595
aI0
aI00
aI00
aI00
aI00
aI00
aI00
aI00
aI00
aa(lp962
I234378
aF433.84213750000004
aF458.045
ag959
aS'utopia'
p963
aS'#656565'
p964
aF8.88595
aI0
aI00
aI00
aI00
aI00
aI00
aI00
aI00
aI00
aa(lp965
I227799
aF440.036
aF458.045
aVp1
p966
aS'utopia'
p967
aS'#656565'
p968
aF8.88595
aI0
aI00
aI00
aI00
aI00
aI00
aI00
aI00
aI00
aa(lp969
I234378
aF460.77
aF458.045
aVp1
p970
aS'utopia'
p971
aS'#656565'
p972
aF8.88595
aI0
aI00
aI00
aI00
aI00
aI00
aI00
aI00
aI00
aa(lp973
I234378
aF494.4418222222222
aF458.045
ag970
aS'utopia'
p974
aS'#656565'
p975
aF8.88595
aI0
aI00
aI00
aI00
aI00
aI00
aI00
aI00
aI00
aa(lp976
I68032
aF40.9084
aF468.411
aVp1
p977
aS'utopia'
p978
aS'#656565'
p979
aF8.88595
aI0
aI01
aI00
aI00
aI00
aI00
aI00
aI00
aI00
aa(lp980
I85218
aF96.4456
aF468.411
aVp1
p981
aS'utopia'
p982
aS'#656565'
p983
aF8.88595
aI0
aI00
aI00
aI00
aI00
aI00
aI00
aI00
aI00
aa(lp984
I20593
aF113.477
aF468.411
aVp1
p985
aS'utopia'
p986
aS'#656565'
p987
aF8.88595
aI0
aI00
aI00
aI00
aI00
aI00
aI00
aI00
aI00
aa(lp988
I147316
aF166.793
aF468.411
aVp1
p989
aS'utopia'
p990
aS'#656565'
p991
aF8.88595
aI0
aI00
aI00
aI00
aI00
aI00
aI00
aI00
aI00
aa(lp992
I89480
aF200.115
aF468.411
aVp1
p993
aS'utopia'
p994
aS'#656565'
p995
aF8.88595
aI0
aI00
aI00
aI00
aI00
aI00
aI00
aI00
aI00
aa(lp996
I234378
aF210.482
aF468.411
aVp1
p997
aS'utopia'
p998
aS'#656565'
p999
aF8.88595
aI0
aI00
aI00
aI00
aI00
aI00
aI00
aI00
aI00
aa(lp1000
I234378
aF242.323
aF468.411
aVp1
p1001
aS'utopia'
p1002
aS'#656565'
p1003
aF8.88595
aI0
aI00
aI00
aI00
aI00
aI00
aI00
aI00
aI00
aa(lp1004
I234378
aF275.99482222222224
aF468.411
ag1001
aS'utopia'
p1005
aS'#656565'
p1006
aF8.88595
aI0
aI00
aI00
aI00
aI00
aI00
aI00
aI00
aI00
aa(lp1007
I25931
aF282.31
aF468.411
aVp1
p1008
aS'utopia'
p1009
aS'#656565'
p1010
aF8.88595
aI0
aI01
aI00
aI00
aI00
aI00
aI00
aI00
aI00
aa(lp1011
I234378
aF307.487
aF468.411
aVp1
p1012
aS'utopia'
p1013
aS'#656565'
p1014
aF8.88595
aI0
aI00
aI00
aI00
aI00
aI00
aI00
aI00
aI00
aa(lp1015
I234378
aF341.1588222222222
aF468.411
ag1012
aS'utopia'
p1016
aS'#656565'
p1017
aF8.88595
aI0
aI00
aI00
aI00
aI00
aI00
aI00
aI00
aI00
aa(lp1018
I227799
aF347.474
aF468.411
aVp1
p1019
aS'utopia'
p1020
aS'#656565'
p1021
aF8.88595
aI0
aI00
aI00
aI00
aI00
aI00
aI00
aI00
aI00
aa(lp1022
I25931
aF368.208
aF468.411
aVp1
p1023
aS'utopia'
p1024
aS'#656565'
p1025
aF8.88595
aI0
aI00
aI00
aI00
aI00
aI00
aI00
aI00
aI00
aa(lp1026
I234378
aF391.903
aF468.411
aVp1
p1027
aS'utopia'
p1028
aS'#656565'
p1029
aF8.88595
aI0
aI00
aI00
aI00
aI00
aI00
aI00
aI00
aI00
aa(lp1030
I234378
aF408.04333333333335
aF468.411
ag1027
aS'utopia'
p1031
aS'#656565'
p1032
aF8.88595
aI0
aI00
aI00
aI00
aI00
aI00
aI00
aI00
aI00
aa(lp1033
I85218
aF413.378
aF468.411
aVp1
p1034
aS'utopia'
p1035
aS'#656565'
p1036
aF8.88595
aI0
aI00
aI00
aI00
aI00
aI00
aI00
aI00
aI00
aa(lp1037
I234378
aF430.409
aF468.411
aVp1
p1038
aS'utopia'
p1039
aS'#656565'
p1040
aF8.88595
aI0
aI01
aI00
aI00
aI00
aI00
aI00
aI00
aI00
aa(lp1041
I234378
aF454.846
aF468.411
aVp1
p1042
aS'utopia'
p1043
aS'#656565'
p1044
aF8.88595
aI0
aI00
aI00
aI00
aI00
aI00
aI00
aI00
aI00
aa(lp1045
I74495
aF459.2915142857143
aF468.411
ag1042
aS'utopia'
p1046
aS'#656565'
p1047
aF8.88595
aI0
aI01
aI00
aI00
aI00
aI00
aI00
aI00
aI00
aa(lp1048
I12510
aF488.168
aF468.411
aVp1
p1049
aS'utopia'
p1050
aS'#656565'
p1051
aF8.88595
aI0
aI01
aI00
aI00
aI00
aI00
aI00
aI00
aI00
aa(lp1052
I234378
aF514.085
aF468.411
aVp1
p1053
aS'utopia'
p1054
aS'#656565'
p1055
aF8.88595
aI0
aI01
aI00
aI00
aI00
aI00
aI00
aI00
aI00
aa(lp1056
I234378
aF542.3959555555556
aF468.411
ag1053
aS'utopia'
p1057
aS'#656565'
p1058
aF8.88595
aI0
aI00
aI00
aI00
aI00
aI00
aI00
aI00
aI00
aa(lp1059
I234378
aF546.4403777777778
aF468.411
ag1053
aS'utopia'
p1060
aS'#656565'
p1061
aF8.88595
aI0
aI00
aI00
aI00
aI00
aI00
aI00
aI00
aI00
aa(lp1062
I48671
aF40.9084
aF478.778
aVp1
p1063
aS'utopia'
p1064
aS'#656565'
p1065
aF8.88595
aI0
aI01
aI00
aI00
aI00
aI00
aI00
aI00
aI00
aa(lp1066
I129688
aF69.0473
aF478.778
aVp1
p1067
aS'utopia'
p1068
aS'#656565'
p1069
aF8.88595
aI0
aI01
aI00
aI00
aI00
aI00
aI00
aI00
aI00
aa(lp1070
I234378
aF97.1861
aF478.778
aVp1
p1071
aS'utopia'
p1072
aS'#656565'
p1073
aF8.88595
aI0
aI00
aI00
aI00
aI00
aI00
aI00
aI00
aI00
aa(lp1074
I234378
aF101.629
aF478.778
aVp1
p1075
aS'utopia'
p1076
aS'#656565'
p1077
aF8.88595
aI0
aI00
aI00
aI01
aI01
aI00
aI00
aI00
aI00
aa(lp1078
I234378
aF108.294
aF478.778
aVp1
p1079
aS'utopia'
p1080
aS'#656565'
p1081
aF8.88595
aI0
aI01
aI00
aI00
aI00
aI00
aI00
aI00
aI00
aa(lp1082
I124531
aF40.1679
aF514.34
aVp1
p1083
aS'utopia'
p1084
aS'#02304b'
p1085
aF11.8479
aI1
aI01
aI00
aI00
aI00
aI00
aI00
aI00
aI00
aa(lp1086
I209062
aF40.9084
aF542.624
aVp1
p1087
aS'utopia'
p1088
aS'#656565'
p1089
aF10.3669
aI0
aI01
aI00
aI00
aI00
aI00
aI00
aI00
aI00
aa(lp1090
I234378
aF63.1233
aF542.624
aVp1
p1091
aS'utopia'
p1092
aS'#656565'
p1093
aF10.3669
aI0
aI01
aI00
aI00
aI00
aI00
aI00
aI00
aI00
aa(lp1094
I234378
aF111.996
aF542.624
aVp1
p1095
aS'utopia'
p1096
aS'#656565'
p1097
aF10.3669
aI0
aI00
aI00
aI00
aI00
aI00
aI00
aI00
aI00
aa(lp1098
I38609
aF117.92
aF542.624
aVp1
p1099
aS'utopia'
p1100
aS'#656565'
p1101
aF10.3669
aI0
aI01
aI00
aI00
aI00
aI00
aI00
aI00
aI00
aa(lp1102
I230071
aF138.654
aF542.624
aVp1
p1103
aS'utopia'
p1104
aS'#656565'
p1105
aF10.3669
aI0
aI01
aI00
aI00
aI00
aI00
aI00
aI00
aI00
aa(lp1106
I234378
aF165.312
aF542.624
aVp1
p1107
aS'utopia'
p1108
aS'#656565'
p1109
aF10.3669
aI0
aI00
aI00
aI00
aI00
aI00
aI00
aI00
aI00
aa(lp1110
I234378
aF40.9084
aF558.645
aVp1
p1111
aS'utopia'
p1112
aS'#000000'
p1113
aF10.3669
aI1
aI01
aI01
aI00
aI00
aI00
aI00
aI00
aI00
aa(lp1114
I234378
aF63.0549625
aF558.645
ag1111
aS'utopia'
p1115
aS'#000000'
p1116
aF10.3669
aI1
aI00
aI00
aI00
aI00
aI00
aI00
aI00
aI00
aa(lp1117
I234378
aF70.43715
aF558.645
ag1111
aS'utopia'
p1118
aS'#000000'
p1119
aF10.3669
aI1
aI01
aI01
aI00
aI00
aI00
aI00
aI00
aI00
aa(lp1120
I234378
aF102.37
aF558.645
aVp1
p1121
aS'utopia'
p1122
aS'#000000'
p1123
aF10.3669
aI1
aI00
aI00
aI00
aI00
aI00
aI00
aI00
aI00
aa(lp1124
I22981
aF107.47678888888889
aF558.645
ag1121
aS'utopia'
p1125
aS'#000000'
p1126
aF10.3669
aI1
aI01
aI00
aI00
aI00
aI00
aI00
aI00
aI00
aa(lp1127
I234378
aF143.22431111111112
aF558.645
ag1121
aS'utopia'
p1128
aS'#000000'
p1129
aF10.3669
aI1
aI00
aI00
aI00
aI00
aI00
aI00
aI00
aI00
aa(lp1130
I51981
aF40.9084
aF578.908
aVp1
p1131
aS'utopia'
p1132
aS'#656565'
p1133
aF10.3669
aI0
aI01
aI00
aI00
aI00
aI00
aI00
aI00
aI00
aa(lp1134
I144489
aF83.1167
aF578.908
aVp1
p1135
aS'utopia'
p1136
aS'#656565'
p1137
aF10.3669
aI0
aI00
aI00
aI00
aI00
aI00
aI00
aI00
aI00
aa(lp1138
I227369
aF94.2241
aF578.908
aVp1
p1139
aS'utopia'
p1140
aS'#656565'
p1141
aF10.3669
aI0
aI01
aI00
aI00
aI00
aI00
aI00
aI00
aI00
aa(lp1142
I89347
aF143.097
aF578.908
aVp1
p1143
aS'utopia'
p1144
aS'#656565'
p1145
aF10.3669
aI0
aI01
aI00
aI00
aI00
aI00
aI00
aI00
aI00
aa(lp1146
I234378
aF189.008
aF578.908
aVp1
p1147
aS'utopia'
p1148
aS'#656565'
p1149
aF10.3669
aI0
aI01
aI00
aI00
aI00
aI00
aI00
aI00
aI00
aa(lp1150
I144489
aF230.475
aF578.908
aVp1
p1151
aS'utopia'
p1152
aS'#656565'
p1153
aF10.3669
aI0
aI00
aI00
aI00
aI00
aI00
aI00
aI00
aI00
aa(lp1154
I164802
aF241.583
aF578.908
aVp1
p1155
aS'utopia'
p1156
aS'#656565'
p1157
aF10.3669
aI0
aI01
aI00
aI00
aI00
aI00
aI00
aI00
aI00
aa(lp1158
I234378
aF268.241
aF578.908
aVp1
p1159
aS'utopia'
p1160
aS'#656565'
p1161
aF10.3669
aI0
aI00
aI00
aI00
aI00
aI00
aI00
aI00
aI00
aa(lp1162
I234378
aF273.1978857142857
aF578.908
ag1159
aS'utopia'
p1163
aS'#656565'
p1164
aF10.3669
aI0
aI01
aI01
aI00
aI00
aI00
aI00
aI00
aI00
aa(lp1165
I234378
aF297.98231428571427
aF578.908
ag1159
aS'utopia'
p1166
aS'#656565'
p1167
aF10.3669
aI0
aI00
aI00
aI00
aI00
aI00
aI00
aI00
aI00
aa(lp1168
I135639
aF309.708
aF578.908
aVp1
p1169
aS'utopia'
p1170
aS'#656565'
p1171
aF10.3669
aI0
aI00
aI00
aI00
aI00
aI00
aI00
aI00
aI00
aa(lp1172
I234378
aF321.556
aF578.908
aVp1
p1173
aS'utopia'
p1174
aS'#656565'
p1175
aF10.3669
aI0
aI00
aI00
aI01
aI01
aI01
aI00
aI00
aI00
aa(lp1176
I234378
aF40.9084
aF607.047
aVp1
p1177
aS'utopia'
p1178
aS'#656565'
p1179
aF10.3669
aI0
aI01
aI00
aI00
aI00
aI00
aI00
aI00
aI00
aa(lp1180
I234378
aF117.18
aF607.047
aVp1
p1181
aS'utopia'
p1182
aS'#656565'
p1183
aF10.3669
aI0
aI00
aI00
aI00
aI00
aI00
aI00
aI00
aI00
aa(lp1184
I60201
aF123.103
aF607.047
aVp1
p1185
aS'utopia'
p1186
aS'#656565'
p1187
aF10.3669
aI0
aI01
aI00
aI00
aI00
aI00
aI00
aI00
aI00
aa(lp1188
I230071
aF143.097
aF607.047
aVp1
p1189
aS'utopia'
p1190
aS'#656565'
p1191
aF10.3669
aI0
aI01
aI00
aI00
aI00
aI00
aI00
aI00
aI00
aa(lp1192
I234378
aF169.755
aF607.047
aVp1
p1193
aS'utopia'
p1194
aS'#656565'
p1195
aF10.3669
aI0
aI00
aI00
aI00
aI00
aI00
aI00
aI00
aI00
aa(lp1196
I27780
aF40.9084
aF623.068
aVp1
p1197
aS'utopia'
p1198
aS'#000000'
p1199
aF10.3669
aI1
aI01
aI01
aI00
aI00
aI00
aI00
aI00
aI00
aa(lp1200
I234378
aF46.15191818181818
aF623.068
ag1197
aS'utopia'
p1201
aS'#000000'
p1202
aF10.3669
aI1
aI00
aI00
aI00
aI00
aI00
aI00
aI00
aI00
aa(lp1203
I2737
aF51.395436363636364
aF623.068
ag1197
aS'utopia'
p1204
aS'#000000'
p1205
aF10.3669
aI1
aI01
aI00
aI00
aI00
aI00
aI00
aI00
aI00
aa(lp1206
I234378
aF72.36950909090909
aF623.068
ag1197
aS'utopia'
p1207
aS'#000000'
p1208
aF10.3669
aI1
aI00
aI00
aI00
aI00
aI00
aI00
aI00
aI00
aa(lp1209
I27780
aF70.61302727272727
aF623.068
ag1197
aS'utopia'
p1210
aS'#000000'
p1211
aF10.3669
aI1
aI01
aI01
aI00
aI00
aI00
aI00
aI00
aI00
aa(lp1212
I234378
aF75.85654545454545
aF623.068
ag1197
aS'utopia'
p1213
aS'#000000'
p1214
aF10.3669
aI1
aI00
aI00
aI00
aI00
aI00
aI00
aI00
aI00
aa(lp1215
I64620
aF88.10006363636364
aF623.068
ag1197
aS'utopia'
p1216
aS'#000000'
p1217
aF10.3669
aI1
aI01
aI01
aI00
aI00
aI00
aI00
aI00
aI00
aa(lp1218
I234378
aF84.34358181818183
aF623.068
ag1197
aS'utopia'
p1219
aS'#000000'
p1220
aF10.3669
aI1
aI00
aI00
aI00
aI00
aI00
aI00
aI00
aI00
aa(lp1221
I234378
aF100.889
aF623.068
aVp1
p1222
aS'utopia'
p1223
aS'#000000'
p1224
aF10.3669
aI1
aI00
aI00
aI00
aI00
aI00
aI00
aI00
aI00
aa(lp1225
I234378
aF106.48095454545454
aF623.068
ag1222
aS'utopia'
p1226
aS'#000000'
p1227
aF10.3669
aI1
aI01
aI00
aI00
aI00
aI00
aI00
aI00
aI00
aa(lp1228
I234378
aF156.80854545454542
aF623.068
ag1222
aS'utopia'
p1229
aS'#000000'
p1230
aF10.3669
aI1
aI00
aI00
aI00
aI00
aI00
aI00
aI00
aI00
aa(lp1231
I213496
aF40.9084
aF643.331
aVp1
p1232
aS'utopia'
p1233
aS'#656565'
p1234
aF10.3669
aI0
aI01
aI00
aI00
aI00
aI00
aI00
aI00
aI00
aa(lp1235
I234378
aF66.0853
aF643.331
aVp1
p1236
aS'utopia'
p1237
aS'#656565'
p1238
aF10.3669
aI0
aI01
aI00
aI00
aI00
aI00
aI00
aI00
aI00
aa(lp1239
I234378
aF103.11
aF643.331
aVp1
p1240
aS'utopia'
p1241
aS'#656565'
p1242
aF10.3669
aI0
aI01
aI00
aI00
aI00
aI00
aI00
aI00
aI00
aa(lp1243
I234378
aF160.128
aF643.331
aVp1
p1244
aS'utopia'
p1245
aS'#656565'
p1246
aF10.3669
aI0
aI01
aI00
aI00
aI00
aI00
aI00
aI00
aI00
aa(lp1247
I234378
aF239.361
aF643.331
aVp1
p1248
aS'utopia'
p1249
aS'#656565'
p1250
aF10.3669
aI0
aI00
aI00
aI00
aI00
aI00
aI00
aI00
aI00
aa(lp1251
I234378
aF244.61661428571426
aF643.331
ag1248
aS'utopia'
p1252
aS'#656565'
p1253
aF10.3669
aI0
aI01
aI01
aI00
aI00
aI00
aI00
aI00
aI00
aa(lp1254
I234378
aF265.6390714285714
aF643.331
ag1248
aS'utopia'
p1255
aS'#656565'
p1256
aF10.3669
aI0
aI00
aI00
aI00
aI00
aI00
aI00
aI00
aI00
aa(lp1257
I234378
aF270.8946857142857
aF643.331
ag1248
aS'utopia'
p1258
aS'#656565'
p1259
aF10.3669
aI0
aI00
aI00
aI00
aI00
aI00
aI00
aI00
aI00
aa(lp1260
I234378
aF278.608
aF643.331
aVp1
p1261
aS'utopia'
p1262
aS'#656565'
p1263
aF10.3669
aI0
aI01
aI00
aI00
aI00
aI00
aI00
aI00
aI00
aa(lp1264
I135639
aF319.335
aF643.331
aVp1
p1265
aS'utopia'
p1266
aS'#656565'
p1267
aF10.3669
aI0
aI00
aI00
aI00
aI00
aI00
aI00
aI00
aI00
aa(lp1268
I234378
aF331.183
aF643.331
aVp1
p1269
aS'utopia'
p1270
aS'#656565'
p1271
aF10.3669
aI0
aI00
aI00
aI01
aI01
aI01
aI00
aI00
aI00
aa(lp1272
I234378
aF40.1679
aF677.249
aVp1
p1273
aS'utopia'
p1274
aS'#02304b'
p1275
aF11.8479
aI1
aI01
aI00
aI00
aI00
aI00
aI00
aI00
aI00
aa(lp1276
I234378
aF40.9084
aF705.533
aVp1
p1277
aS'utopia'
p1278
aS'#656565'
p1279
aF10.3669
aI0
aI00
aI00
aI01
aI01
aI00
aI00
aI00
aI00
aa(lp1280
I234378
aF48.3134
aF705.533
aVp1
p1281
aS'utopia'
p1282
aS'#656565'
p1283
aF10.3669
aI0
aI00
aI00
aI00
aI00
aI00
aI00
aI00
aI00
aa(lp1284
I229860
aF78.6737
aF705.533
aVp1
p1285
aS'utopia'
p1286
aS'#656565'
p1287
aF10.3669
aI0
aI01
aI00
aI00
aI00
aI00
aI00
aI00
aI00
aa(lp1288
I103666
aF126.065
aF705.533
aVp1
p1289
aS'utopia'
p1290
aS'#656565'
p1291
aF10.3669
aI0
aI01
aI00
aI00
aI00
aI00
aI00
aI00
aI00
aa(lp1292
I135639
aF168.274
aF705.533
aVp1
p1293
aS'utopia'
p1294
aS'#656565'
p1295
aF10.3669
aI0
aI00
aI00
aI00
aI00
aI00
aI00
aI00
aI00
aa(lp1296
I14603
aF180.122
aF705.533
aVp1
p1297
aS'utopia'
p1298
aS'#656565'
p1299
aF10.3669
aI0
aI01
aI00
aI00
aI00
aI00
aI00
aI00
aI00
aa(lp1300
I2174
aF223.07
aF705.533
aVp1
p1301
aS'utopia'
p1302
aS'#656565'
p1303
aF10.3669
aI0
aI01
aI00
aI00
aI00
aI00
aI00
aI00
aI00
aa(lp1304
I132082
aF267.5
aF705.533
aVp1
p1305
aS'utopia'
p1306
aS'#656565'
p1307
aF10.3669
aI0
aI01
aI00
aI00
aI00
aI00
aI00
aI00
aI00
aa(lp1308
I234378
aF320.075
aF705.533
aVp1
p1309
aS'utopia'
p1310
aS'#656565'
p1311
aF10.3669
aI0
aI00
aI00
aI00
aI00
aI00
aI00
aI00
aI00
aa(lp1312
I234378
aF324.9074714285714
aF705.533
ag1309
aS'utopia'
p1313
aS'#656565'
p1314
aF10.3669
aI0
aI01
aI01
aI00
aI00
aI00
aI00
aI00
aI00
aa(lp1315
I234378
aF344.2373571428571
aF705.533
ag1309
aS'utopia'
p1316
aS'#656565'
p1317
aF10.3669
aI0
aI00
aI00
aI00
aI00
aI00
aI00
aI00
aI00
aa(lp1318
I234378
aF349.0698285714285
aF705.533
ag1309
aS'utopia'
p1319
aS'#656565'
p1320
aF10.3669
aI0
aI00
aI00
aI00
aI00
aI00
aI00
aI00
aI00
aa(lp1321
I234378
aF356.36
aF705.533
aVp1
p1322
aS'utopia'
p1323
aS'#656565'
p1324
aF10.3669
aI0
aI01
aI00
aI00
aI00
aI00
aI00
aI00
aI00
aa(lp1325
I22476
aF40.1679
aF743.153
aVp1
p1326
aS'utopia'
p1327
aS'#02304b'
p1328
aF11.8479
aI1
aI01
aI01
aI00
aI00
aI00
aI00
aI00
aI00
aa(lp1329
I234378
aF54.2374
aF743.153
aVp1
p1330
aS'utopia'
p1331
aS'#02304b'
p1332
aF11.8479
aI1
aI01
aI00
aI00
aI00
aI00
aI00
aI00
aI00
aa(lp1333
I109610
aF48.3134
aF771.043
aVp1
p1334
aS'utopia'
p1335
aS'#000000'
p1336
aF8.88595
aI1
aI01
aI00
aI00
aI00
aI00
aI00
aI00
aI00
aa(lp1337
I158577
aF69.7878
aF771.043
aVp1
p1338
aS'utopia'
p1339
aS'#000000'
p1340
aF8.88595
aI1
aI01
aI00
aI00
aI00
aI00
aI00
aI00
aI00
aa(lp1341
I194179
aF188.267
aF771.043
aVp1
p1342
aS'utopia'
p1343
aS'#000000'
p1344
aF8.88595
aI1
aI01
aI00
aI00
aI00
aI00
aI00
aI00
aI00
aa(lp1345
I177981
aF305.265
aF771.043
aVp1
p1346
aS'utopia'
p1347
aS'#000000'
p1348
aF8.88595
aI1
aI01
aI00
aI00
aI00
aI00
aI00
aI00
aI00
aa(lp1349
I25729
aF324.518
aF771.043
aVp1
p1350
aS'utopia'
p1351
aS'#000000'
p1352
aF8.88595
aI1
aI01
aI00
aI00
aI00
aI00
aI00
aI00
aI00
aa(lp1353
I60220
aF412.637
aF771.043
aVp1
p1354
aS'utopia'
p1355
aS'#000000'
p1356
aF8.88595
aI1
aI01
aI00
aI00
aI00
aI00
aI00
aI00
aI00
aa(lp1357
I234378
aF48.3134
aF789.787
aVp1
p1358
aS'utopia'
p1359
aS'#656565'
p1360
aF8.88595
aI0
aI01
aI01
aI01
aI00
aI00
aI00
aI00
aI00
aa(lp1361
I234378
aF65.58532
aF789.787
ag1358
aS'utopia'
p1362
aS'#656565'
p1363
aF8.88595
aI0
aI00
aI00
aI00
aI00
aI00
aI00
aI00
aI00
aa(lp1364
I234378
aF72.0093
aF789.787
aVp1
p1365
aS'utopia'
p1366
aS'#656565'
p1367
aF8.88595
aI0
aI01
aI01
aI00
aI00
aI00
aI00
aI00
aI00
aa(lp1368
I234378
aF89.28121999999999
aF789.787
ag1365
aS'utopia'
p1369
aS'#656565'
p1370
aF8.88595
aI0
aI00
aI00
aI00
aI00
aI00
aI00
aI00
aI00
aa(lp1371
I98131
aF95.7051
aF789.787
aVp1
p1372
aS'utopia'
p1373
aS'#656565'
p1374
aF8.88595
aI0
aI01
aI00
aI00
aI00
aI00
aI00
aI00
aI00
aa(lp1375
I234378
aF121.24358181818182
aF789.787
ag1372
aS'utopia'
p1376
aS'#656565'
p1377
aF8.88595
aI0
aI00
aI00
aI00
aI00
aI00
aI00
aI00
aI00
aa(lp1378
I234378
aF124.89193636363638
aF789.787
ag1372
aS'utopia'
p1379
aS'#656565'
p1380
aF8.88595
aI0
aI00
aI00
aI00
aI00
aI00
aI00
aI00
aI00
aa(lp1381
I41890
aF188.267
aF789.787
aVp1
p1382
aS'utopia'
p1383
aS'#656565'
p1384
aF8.88595
aI0
aI01
aI00
aI00
aI00
aI00
aI00
aI00
aI00
aa(lp1385
I234378
aF317.113
aF789.787
aVp1
p1386
aS'utopia'
p1387
aS'#656565'
p1388
aF8.88595
aI0
aI00
aI00
aI01
aI01
aI01
aI00
aI00
aI00
aa(lp1389
I234378
aF420.042
aF789.787
aVp1
p1390
aS'utopia'
p1391
aS'#656565'
p1392
aF8.88595
aI0
aI00
aI00
aI01
aI01
aI01
aI00
aI00
aI00
aa(lp1393
I234378
aF431.15
aF789.787
aVp1
p1394
aS'utopia'
p1395
aS'#656565'
p1396
aF8.88595
aI0
aI01
aI00
aI00
aI00
aI00
aI00
aI00
aI00
aa(lp1397
I234378
aF48.3134
aF28.557
aVp2
p1398
aS'utopia'
p1399
aS'#656565'
p1400
aF8.88595
aI0
aI01
aI00
aI00
aI00
aI00
aI00
aI00
aI00
aa(lp1401
I41890
aF188.267
aF28.557
aVp2
p1402
aS'utopia'
p1403
aS'#656565'
p1404
aF8.88595
aI0
aI01
aI00
aI00
aI00
aI00
aI00
aI00
aI00
aa(lp1405
I234378
aF317.113
aF28.557
aVp2
p1406
aS'utopia'
p1407
aS'#656565'
p1408
aF8.88595
aI0
aI00
aI00
aI01
aI01
aI01
aI00
aI00
aI00
aa(lp1409
I234378
aF422.264
aF28.557
aVp2
p1410
aS'utopia'
p1411
aS'#656565'
p1412
aF8.88595
aI0
aI00
aI00
aI01
aI01
aI00
aI00
aI00
aI00
aa(lp1413
I234378
aF428.928
aF28.557
aVp2
p1414
aS'utopia'
p1415
aS'#656565'
p1416
aF8.88595
aI0
aI01
aI00
aI00
aI00
aI00
aI00
aI00
aI00
aa(lp1417
I234378
aF48.3134
aF47.0694
aVp2
p1418
aS'utopia'
p1419
aS'#656565'
p1420
aF8.88595
aI0
aI01
aI00
aI00
aI00
aI00
aI00
aI00
aI00
aa(lp1421
I41890
aF188.267
aF47.0694
aVp2
p1422
aS'utopia'
p1423
aS'#656565'
p1424
aF8.88595
aI0
aI01
aI00
aI00
aI00
aI00
aI00
aI00
aI00
aa(lp1425
I234378
aF317.113
aF47.0694
aVp2
p1426
aS'utopia'
p1427
aS'#656565'
p1428
aF8.88595
aI0
aI00
aI00
aI01
aI01
aI01
aI00
aI00
aI00
aa(lp1429
I234378
aF422.264
aF47.0694
aVp2
p1430
aS'utopia'
p1431
aS'#656565'
p1432
aF8.88595
aI0
aI00
aI00
aI01
aI01
aI00
aI00
aI00
aI00
aa(lp1433
I234378
aF428.928
aF47.0694
aVp2
p1434
aS'utopia'
p1435
aS'#656565'
p1436
aF8.88595
aI0
aI01
aI00
aI00
aI00
aI00
aI00
aI00
aI00
aa(lp1437
I234378
aF48.3134
aF65.5818
aVp2
p1438
aS'utopia'
p1439
aS'#656565'
p1440
aF8.88595
aI0
aI01
aI01
aI00
aI00
aI00
aI00
aI00
aI00
aa(lp1441
I234378
aF63.950450000000004
aF65.5818
ag1438
aS'utopia'
p1442
aS'#656565'
p1443
aF8.88595
aI0
aI00
aI00
aI00
aI00
aI00
aI00
aI00
aI00
aa(lp1444
I234378
aF71.2688
aF65.5818
aVp2
p1445
aS'utopia'
p1446
aS'#656565'
p1447
aF8.88595
aI0
aI01
aI01
aI00
aI00
aI00
aI00
aI00
aI00
aa(lp1448
I234378
aF89.13311999999999
aF65.5818
ag1445
aS'utopia'
p1449
aS'#656565'
p1450
aF8.88595
aI0
aI00
aI00
aI00
aI00
aI00
aI00
aI00
aI00
aa(lp1451
I234378
aF95.7051
aF65.5818
aVp2
p1452
aS'utopia'
p1453
aS'#656565'
p1454
aF8.88595
aI0
aI01
aI01
aI00
aI00
aI00
aI00
aI00
aI00
aa(lp1455
I41890
aF188.267
aF65.5818
aVp2
p1456
aS'utopia'
p1457
aS'#656565'
p1458
aF8.88595
aI0
aI01
aI00
aI00
aI00
aI00
aI00
aI00
aI00
aa(lp1459
I234378
aF317.113
aF65.5818
aVp2
p1460
aS'utopia'
p1461
aS'#656565'
p1462
aF8.88595
aI0
aI00
aI00
aI01
aI01
aI01
aI00
aI00
aI00
aa(lp1463
I234378
aF420.042
aF65.5818
aVp2
p1464
aS'utopia'
p1465
aS'#656565'
p1466
aF8.88595
aI0
aI00
aI00
aI01
aI01
aI01
aI00
aI00
aI00
aa(lp1467
I234378
aF431.15
aF65.5818
aVp2
p1468
aS'utopia'
p1469
aS'#656565'
p1470
aF8.88595
aI0
aI01
aI00
aI00
aI00
aI00
aI00
aI00
aI00
aa(lp1471
I234378
aF48.3134
aF84.0941
aVp2
p1472
aS'utopia'
p1473
aS'#656565'
p1474
aF8.88595
aI0
aI01
aI01
aI00
aI00
aI00
aI00
aI00
aI00
aa(lp1475
I41890
aF188.267
aF84.0941
aVp2
p1476
aS'utopia'
p1477
aS'#656565'
p1478
aF8.88595
aI0
aI01
aI00
aI00
aI00
aI00
aI00
aI00
aI00
aa(lp1479
I234378
aF317.113
aF84.0941
aVp2
p1480
aS'utopia'
p1481
aS'#656565'
p1482
aF8.88595
aI0
aI00
aI00
aI01
aI01
aI01
aI00
aI00
aI00
aa(lp1483
I234378
aF420.042
aF84.0941
aVp2
p1484
aS'utopia'
p1485
aS'#656565'
p1486
aF8.88595
aI0
aI00
aI00
aI01
aI01
aI01
aI00
aI00
aI00
aa(lp1487
I234378
aF431.15
aF84.0941
aVp2
p1488
aS'utopia'
p1489
aS'#656565'
p1490
aF8.88595
aI0
aI01
aI00
aI00
aI00
aI00
aI00
aI00
aI00
aa(lp1491
I234378
aF48.3134
aF102.607
aVp2
p1492
aS'utopia'
p1493
aS'#656565'
p1494
aF8.88595
aI0
aI01
aI01
aI00
aI00
aI00
aI00
aI00
aI00
aa(lp1495
I41890
aF188.267
aF102.607
aVp2
p1496
aS'utopia'
p1497
aS'#656565'
p1498
aF8.88595
aI0
aI01
aI00
aI00
aI00
aI00
aI00
aI00
aI00
aa(lp1499
I234378
aF317.113
aF102.607
aVp2
p1500
aS'utopia'
p1501
aS'#656565'
p1502
aF8.88595
aI0
aI00
aI00
aI01
aI01
aI01
aI00
aI00
aI00
aa(lp1503
I234378
aF420.042
aF102.607
aVp2
p1504
aS'utopia'
p1505
aS'#656565'
p1506
aF8.88595
aI0
aI00
aI00
aI01
aI01
aI01
aI00
aI00
aI00
aa(lp1507
I234378
aF431.15
aF102.607
aVp2
p1508
aS'utopia'
p1509
aS'#656565'
p1510
aF8.88595
aI0
aI01
aI00
aI00
aI00
aI00
aI00
aI00
aI00
aa(lp1511
I234378
aF48.3134
aF121.119
aVp2
p1512
aS'utopia'
p1513
aS'#656565'
p1514
aF8.88595
aI0
aI01
aI01
aI00
aI00
aI00
aI00
aI00
aI00
aa(lp1515
I41890
aF188.267
aF121.119
aVp2
p1516
aS'utopia'
p1517
aS'#656565'
p1518
aF8.88595
aI0
aI01
aI00
aI00
aI00
aI00
aI00
aI00
aI00
aa(lp1519
I234378
aF317.113
aF121.119
aVp2
p1520
aS'utopia'
p1521
aS'#656565'
p1522
aF8.88595
aI0
aI00
aI00
aI01
aI01
aI01
aI00
aI00
aI00
aa(lp1523
I234378
aF422.264
aF121.119
aVp2
p1524
aS'utopia'
p1525
aS'#656565'
p1526
aF8.88595
aI0
aI00
aI00
aI01
aI01
aI00
aI00
aI00
aI00
aa(lp1527
I234378
aF428.928
aF121.119
aVp2
p1528
aS'utopia'
p1529
aS'#656565'
p1530
aF8.88595
aI0
aI01
aI00
aI00
aI00
aI00
aI00
aI00
aI00
aa(lp1531
I234378
aF48.3134
aF139.631
aVp2
p1532
aS'utopia'
p1533
aS'#656565'
p1534
aF8.88595
aI0
aI01
aI01
aI00
aI00
aI00
aI00
aI00
aI00
aa(lp1535
I234378
aF76.17823333333334
aF139.631
ag1532
aS'utopia'
p1536
aS'#656565'
p1537
aF8.88595
aI0
aI00
aI00
aI00
aI00
aI00
aI00
aI00
aI00
aa(lp1538
I234378
aF83.8572
aF139.631
aVp2
p1539
aS'utopia'
p1540
aS'#656565'
p1541
aF8.88595
aI0
aI01
aI01
aI00
aI00
aI00
aI00
aI00
aI00
aa(lp1542
I234378
aF106.46072000000001
aF139.631
ag1539
aS'utopia'
p1543
aS'#656565'
p1544
aF8.88595
aI0
aI00
aI00
aI00
aI00
aI00
aI00
aI00
aI00
aa(lp1545
I234378
aF114.218
aF139.631
aVp2
p1546
aS'utopia'
p1547
aS'#656565'
p1548
aF8.88595
aI0
aI01
aI01
aI01
aI00
aI00
aI00
aI00
aI00
aa(lp1549
I41890
aF188.267
aF139.631
aVp2
p1550
aS'utopia'
p1551
aS'#656565'
p1552
aF8.88595
aI0
aI01
aI00
aI00
aI00
aI00
aI00
aI00
aI00
aa(lp1553
I234378
aF317.113
aF139.631
aVp2
p1554
aS'utopia'
p1555
aS'#656565'
p1556
aF8.88595
aI0
aI00
aI00
aI01
aI01
aI01
aI00
aI00
aI00
aa(lp1557
I234378
aF420.042
aF139.631
aVp2
p1558
aS'utopia'
p1559
aS'#656565'
p1560
aF8.88595
aI0
aI00
aI00
aI01
aI01
aI01
aI00
aI00
aI00
aa(lp1561
I234378
aF431.15
aF139.631
aVp2
p1562
aS'utopia'
p1563
aS'#656565'
p1564
aF8.88595
aI0
aI01
aI00
aI00
aI00
aI00
aI00
aI00
aI00
aa(lp1565
I234378
aF48.3134
aF158.144
aVp2
p1566
aS'utopia'
p1567
aS'#656565'
p1568
aF8.88595
aI0
aI01
aI00
aI00
aI00
aI00
aI00
aI00
aI00
aa(lp1569
I234378
aF86.1164
aF158.144
ag1566
aS'utopia'
p1570
aS'#656565'
p1571
aF8.88595
aI0
aI00
aI00
aI00
aI00
aI00
aI00
aI00
aI00
aa(lp1572
I234378
aF92.0026
aF158.144
aVp2
p1573
aS'utopia'
p1574
aS'#656565'
p1575
aF8.88595
aI0
aI01
aI01
aI00
aI00
aI00
aI00
aI00
aI00
aa(lp1576
I234378
aF104.862775
aF158.144
ag1573
aS'utopia'
p1577
aS'#656565'
p1578
aF8.88595
aI0
aI00
aI00
aI00
aI00
aI00
aI00
aI00
aI00
aa(lp1579
I234378
aF111.256
aF158.144
aVp2
p1580
aS'utopia'
p1581
aS'#656565'
p1582
aF8.88595
aI0
aI01
aI00
aI00
aI00
aI00
aI00
aI00
aI00
aa(lp1583
I234378
aF136.74348571428573
aF158.144
ag1580
aS'utopia'
p1584
aS'#656565'
p1585
aF8.88595
aI0
aI00
aI00
aI00
aI00
aI00
aI00
aI00
aI00
aa(lp1586
I234378
aF143.097
aF158.144
aVp2
p1587
aS'utopia'
p1588
aS'#656565'
p1589
aF8.88595
aI0
aI01
aI00
aI00
aI00
aI00
aI00
aI00
aI00
aa(lp1590
I234378
aF48.3134
aF168.511
aVp2
p1591
aS'utopia'
p1592
aS'#656565'
p1593
aF8.88595
aI0
aI01
aI00
aI00
aI00
aI00
aI00
aI00
aI00
aa(lp1594
I41890
aF188.267
aF163.327
aVp2
p1595
aS'utopia'
p1596
aS'#656565'
p1597
aF8.88595
aI0
aI01
aI00
aI00
aI00
aI00
aI00
aI00
aI00
aa(lp1598
I234378
aF317.113
aF163.327
aVp2
p1599
aS'utopia'
p1600
aS'#656565'
p1601
aF8.88595
aI0
aI00
aI00
aI01
aI01
aI01
aI00
aI00
aI00
aa(lp1602
I234378
aF420.042
aF163.327
aVp2
p1603
aS'utopia'
p1604
aS'#656565'
p1605
aF8.88595
aI0
aI00
aI00
aI01
aI01
aI01
aI00
aI00
aI00
aa(lp1606
I234378
aF431.15
aF163.327
aVp2
p1607
aS'utopia'
p1608
aS'#656565'
p1609
aF8.88595
aI0
aI01
aI00
aI00
aI00
aI00
aI00
aI00
aI00
aa(lp1610
I234378
aF48.3134
aF187.023
aVp2
p1611
aS'utopia'
p1612
aS'#656565'
p1613
aF8.88595
aI0
aI01
aI00
aI00
aI00
aI00
aI00
aI00
aI00
aa(lp1614
I234378
aF68.77331666666666
aF187.023
ag1611
aS'utopia'
p1615
aS'#656565'
p1616
aF8.88595
aI0
aI00
aI00
aI00
aI00
aI00
aI00
aI00
aI00
aa(lp1617
I218862
aF74.9712
aF187.023
aVp2
p1618
aS'utopia'
p1619
aS'#656565'
p1620
aF8.88595
aI0
aI01
aI00
aI00
aI00
aI00
aI00
aI00
aI00
aa(lp1621
I234378
aF95.7051
aF187.023
aVp2
p1622
aS'utopia'
p1623
aS'#656565'
p1624
aF8.88595
aI0
aI01
aI00
aI00
aI00
aI00
aI00
aI00
aI00
aa(lp1625
I41890
aF188.267
aF187.023
aVp2
p1626
aS'utopia'
p1627
aS'#656565'
p1628
aF8.88595
aI0
aI01
aI00
aI00
aI00
aI00
aI00
aI00
aI00
aa(lp1629
I234378
aF317.113
aF187.023
aVp2
p1630
aS'utopia'
p1631
aS'#656565'
p1632
aF8.88595
aI0
aI00
aI00
aI01
aI01
aI01
aI00
aI00
aI00
aa(lp1633
I234378
aF420.042
aF187.023
aVp2
p1634
aS'utopia'
p1635
aS'#656565'
p1636
aF8.88595
aI0
aI00
aI00
aI01
aI01
aI01
aI00
aI00
aI00
aa(lp1637
I234378
aF431.15
aF187.023
aVp2
p1638
aS'utopia'
p1639
aS'#656565'
p1640
aF8.88595
aI0
aI01
aI00
aI00
aI00
aI00
aI00
aI00
aI00
aa(lp1641
I77592
aF48.3134
aF205.535
aVp2
p1642
aS'utopia'
p1643
aS'#656565'
p1644
aF8.88595
aI0
aI01
aI00
aI00
aI00
aI00
aI00
aI00
aI00
aa(lp1645
I110786
aF80.1547
aF205.535
aVp2
p1646
aS'utopia'
p1647
aS'#656565'
p1648
aF8.88595
aI0
aI01
aI00
aI00
aI00
aI00
aI00
aI00
aI00
aa(lp1649
I41890
aF188.267
aF205.535
aVp2
p1650
aS'utopia'
p1651
aS'#656565'
p1652
aF8.88595
aI0
aI01
aI00
aI00
aI00
aI00
aI00
aI00
aI00
aa(lp1653
I234378
aF317.113
aF205.535
aVp2
p1654
aS'utopia'
p1655
aS'#656565'
p1656
aF8.88595
aI0
aI00
aI00
aI01
aI01
aI01
aI00
aI00
aI00
aa(lp1657
I234378
aF422.264
aF205.535
aVp2
p1658
aS'utopia'
p1659
aS'#656565'
p1660
aF8.88595
aI0
aI00
aI00
aI01
aI01
aI00
aI00
aI00
aI00
aa(lp1661
I234378
aF428.928
aF205.535
aVp2
p1662
aS'utopia'
p1663
aS'#656565'
p1664
aF8.88595
aI0
aI01
aI00
aI00
aI00
aI00
aI00
aI00
aI00
aa(lp1665
I176767
aF48.3134
aF224.048
aVp2
p1666
aS'utopia'
p1667
aS'#656565'
p1668
aF8.88595
aI0
aI01
aI00
aI00
aI00
aI00
aI00
aI00
aI00
aa(lp1669
I234378
aF86.40482
aF224.048
ag1666
aS'utopia'
p1670
aS'#656565'
p1671
aF8.88595
aI0
aI00
aI00
aI00
aI00
aI00
aI00
aI00
aI00
aa(lp1672
I148996
aF92.7431
aF224.048
aVp2
p1673
aS'utopia'
p1674
aS'#656565'
p1675
aF8.88595
aI0
aI01
aI00
aI00
aI00
aI00
aI00
aI00
aI00
aa(lp1676
I41890
aF188.267
aF224.048
aVp2
p1677
aS'utopia'
p1678
aS'#656565'
p1679
aF8.88595
aI0
aI01
aI00
aI00
aI00
aI00
aI00
aI00
aI00
aa(lp1680
I234378
aF317.113
aF224.048
aVp2
p1681
aS'utopia'
p1682
aS'#656565'
p1683
aF8.88595
aI0
aI00
aI00
aI01
aI01
aI01
aI00
aI00
aI00
aa(lp1684
I234378
aF422.264
aF224.048
aVp2
p1685
aS'utopia'
p1686
aS'#656565'
p1687
aF8.88595
aI0
aI00
aI00
aI01
aI01
aI00
aI00
aI00
aI00
aa(lp1688
I234378
aF428.928
aF224.048
aVp2
p1689
aS'utopia'
p1690
aS'#656565'
p1691
aF8.88595
aI0
aI01
aI00
aI00
aI00
aI00
aI00
aI00
aI00
aa(lp1692
I234378
aF48.3134
aF242.56
aVp2
p1693
aS'utopia'
p1694
aS'#656565'
p1695
aF8.88595
aI0
aI01
aI01
aI00
aI00
aI00
aI00
aI00
aI00
aa(lp1696
I41890
aF188.267
aF242.56
aVp2
p1697
aS'utopia'
p1698
aS'#656565'
p1699
aF8.88595
aI0
aI01
aI00
aI00
aI00
aI00
aI00
aI00
aI00
aa(lp1700
I234378
aF317.113
aF242.56
aVp2
p1701
aS'utopia'
p1702
aS'#656565'
p1703
aF8.88595
aI0
aI00
aI00
aI01
aI01
aI01
aI00
aI00
aI00
aa(lp1704
I234378
aF420.042
aF242.56
aVp2
p1705
aS'utopia'
p1706
aS'#656565'
p1707
aF8.88595
aI0
aI00
aI00
aI01
aI01
aI01
aI00
aI00
aI00
aa(lp1708
I234378
aF431.15
aF242.56
aVp2
p1709
aS'utopia'
p1710
aS'#656565'
p1711
aF8.88595
aI0
aI01
aI00
aI00
aI00
aI00
aI00
aI00
aI00
aa(lp1712
I234378
aF48.3134
aF261.073
aVp2
p1713
aS'utopia'
p1714
aS'#656565'
p1715
aF8.88595
aI0
aI01
aI01
aI00
aI00
aI00
aI00
aI00
aI00
aa(lp1716
I41890
aF188.267
aF261.073
aVp2
p1717
aS'utopia'
p1718
aS'#656565'
p1719
aF8.88595
aI0
aI01
aI00
aI00
aI00
aI00
aI00
aI00
aI00
aa(lp1720
I234378
aF317.113
aF261.073
aVp2
p1721
aS'utopia'
p1722
aS'#656565'
p1723
aF8.88595
aI0
aI00
aI00
aI01
aI01
aI01
aI00
aI00
aI00
aa(lp1724
I234378
aF422.264
aF261.073
aVp2
p1725
aS'utopia'
p1726
aS'#656565'
p1727
aF8.88595
aI0
aI00
aI00
aI01
aI01
aI00
aI00
aI00
aI00
aa(lp1728
I234378
aF428.928
aF261.073
aVp2
p1729
aS'utopia'
p1730
aS'#656565'
p1731
aF8.88595
aI0
aI01
aI00
aI00
aI00
aI00
aI00
aI00
aI00
aa(lp1732
I21716
aF48.3134
aF279.585
aVp2
p1733
aS'utopia'
p1734
aS'#656565'
p1735
aF8.88595
aI0
aI01
aI01
aI00
aI00
aI00
aI00
aI00
aI00
aa(lp1736
I234378
aF66.77012
aF279.585
ag1733
aS'utopia'
p1737
aS'#656565'
p1738
aF8.88595
aI0
aI00
aI00
aI00
aI00
aI00
aI00
aI00
aI00
aa(lp1739
I234378
aF73.4902
aF279.585
aVp2
p1740
aS'utopia'
p1741
aS'#656565'
p1742
aF8.88595
aI0
aI01
aI01
aI01
aI00
aI00
aI00
aI00
aI00
aa(lp1743
I41890
aF188.267
aF279.585
aVp2
p1744
aS'utopia'
p1745
aS'#656565'
p1746
aF8.88595
aI0
aI01
aI00
aI00
aI00
aI00
aI00
aI00
aI00
aa(lp1747
I234378
aF317.113
aF279.585
aVp2
p1748
aS'utopia'
p1749
aS'#656565'
p1750
aF8.88595
aI0
aI00
aI00
aI01
aI01
aI01
aI00
aI00
aI00
aa(lp1751
I234378
aF422.264
aF279.585
aVp2
p1752
aS'utopia'
p1753
aS'#656565'
p1754
aF8.88595
aI0
aI00
aI00
aI01
aI01
aI00
aI00
aI00
aI00
aa(lp1755
I234378
aF428.928
aF279.585
aVp2
p1756
aS'utopia'
p1757
aS'#656565'
p1758
aF8.88595
aI0
aI01
aI00
aI00
aI00
aI00
aI00
aI00
aI00
aa(lp1759
I158280
aF48.3134
aF298.097
aVp2
p1760
aS'utopia'
p1761
aS'#656565'
p1762
aF8.88595
aI0
aI01
aI00
aI00
aI00
aI00
aI00
aI00
aI00
aa(lp1763
I234378
aF64.2918
aF298.097
ag1760
aS'utopia'
p1764
aS'#656565'
p1765
aF8.88595
aI0
aI00
aI00
aI00
aI00
aI00
aI00
aI00
aI00
aa(lp1766
I234378
aF68.2864
aF298.097
ag1760
aS'utopia'
p1767
aS'#656565'
p1768
aF8.88595
aI0
aI00
aI00
aI00
aI00
aI00
aI00
aI00
aI00
aa(lp1769
I234378
aF76.2756
aF298.097
ag1760
aS'utopia'
p1770
aS'#656565'
p1771
aF8.88595
aI0
aI00
aI00
aI00
aI00
aI00
aI00
aI00
aI00
aa(lp1772
I160135
aF82.3762
aF298.097
aVp2
p1773
aS'utopia'
p1774
aS'#656565'
p1775
aF8.88595
aI0
aI01
aI00
aI00
aI00
aI00
aI00
aI00
aI00
aa(lp1776
I234378
aF115.52866666666667
aF298.097
ag1773
aS'utopia'
p1777
aS'#656565'
p1778
aF8.88595
aI0
aI00
aI00
aI00
aI00
aI00
aI00
aI00
aI00
aa(lp1779
I234378
aF119.672725
aF298.097
ag1773
aS'utopia'
p1780
aS'#656565'
p1781
aF8.88595
aI0
aI00
aI00
aI00
aI00
aI00
aI00
aI00
aI00
aa(lp1782
I234378
aF127.96084166666667
aF298.097
ag1773
aS'utopia'
p1783
aS'#656565'
p1784
aF8.88595
aI0
aI00
aI00
aI00
aI00
aI00
aI00
aI00
aI00
aa(lp1785
I165851
aF134.211
aF298.097
aVp2
p1786
aS'utopia'
p1787
aS'#656565'
p1788
aF8.88595
aI0
aI01
aI00
aI00
aI00
aI00
aI00
aI00
aI00
aa(lp1789
I234378
aF161.78498000000002
aF298.097
ag1786
aS'utopia'
p1790
aS'#656565'
p1791
aF8.88595
aI0
aI00
aI00
aI00
aI00
aI00
aI00
aI00
aI00
aa(lp1792
I234378
aF165.72412000000003
aF298.097
ag1786
aS'utopia'
p1793
aS'#656565'
p1794
aF8.88595
aI0
aI00
aI00
aI00
aI00
aI00
aI00
aI00
aI00
aa(lp1795
I41890
aF188.267
aF298.097
aVp2
p1796
aS'utopia'
p1797
aS'#656565'
p1798
aF8.88595
aI0
aI01
aI00
aI00
aI00
aI00
aI00
aI00
aI00
aa(lp1799
I234378
aF317.113
aF298.097
aVp2
p1800
aS'utopia'
p1801
aS'#656565'
p1802
aF8.88595
aI0
aI00
aI00
aI01
aI01
aI01
aI00
aI00
aI00
aa(lp1803
I234378
aF424.485
aF298.097
aVp2
p1804
aS'utopia'
p1805
aS'#656565'
p1806
aF8.88595
aI0
aI00
aI00
aI01
aI01
aI00
aI00
aI00
aI00
aa(lp1807
I91136
aF431.15
aF298.097
aVp2
p1808
aS'utopia'
p1809
aS'#656565'
p1810
aF8.88595
aI0
aI01
aI00
aI00
aI00
aI00
aI00
aI00
aI00
aa(lp1811
I51660
aF48.3134
aF316.61
aVp2
p1812
aS'utopia'
p1813
aS'#656565'
p1814
aF8.88595
aI0
aI01
aI00
aI00
aI00
aI00
aI00
aI00
aI00
aa(lp1815
I234378
aF66.30498333333334
aF316.61
ag1812
aS'utopia'
p1816
aS'#656565'
p1817
aF8.88595
aI0
aI00
aI00
aI00
aI00
aI00
aI00
aI00
aI00
aa(lp1818
I81833
aF72.0093
aF316.61
aVp2
p1819
aS'utopia'
p1820
aS'#656565'
p1821
aF8.88595
aI0
aI01
aI00
aI00
aI00
aI00
aI00
aI00
aI00
aa(lp1822
I234378
aF90.00088333333333
aF316.61
ag1819
aS'utopia'
p1823
aS'#656565'
p1824
aF8.88595
aI0
aI00
aI00
aI00
aI00
aI00
aI00
aI00
aI00
aa(lp1825
I234378
aF95.7051
aF316.61
aVp2
p1826
aS'utopia'
p1827
aS'#656565'
p1828
aF8.88595
aI0
aI01
aI01
aI00
aI00
aI00
aI00
aI00
aI00
aa(lp1829
I234378
aF110.23140000000001
aF316.61
ag1826
aS'utopia'
p1830
aS'#656565'
p1831
aF8.88595
aI0
aI00
aI00
aI00
aI00
aI00
aI00
aI00
aI00
aa(lp1832
I216500
aF117.18
aF316.61
aVp2
p1833
aS'utopia'
p1834
aS'#656565'
p1835
aF8.88595
aI0
aI01
aI00
aI00
aI00
aI00
aI00
aI00
aI00
aa(lp1836
I234378
aF127.81867500000001
aF316.61
ag1833
aS'utopia'
p1837
aS'#656565'
p1838
aF8.88595
aI0
aI00
aI00
aI00
aI00
aI00
aI00
aI00
aI00
aa(lp1839
I194179
aF133.47
aF316.61
aVp2
p1840
aS'utopia'
p1841
aS'#656565'
p1842
aF8.88595
aI0
aI01
aI00
aI00
aI00
aI00
aI00
aI00
aI00
aa(lp1843
I176802
aF48.3134
aF326.977
aVp2
p1844
aS'utopia'
p1845
aS'#656565'
p1846
aF8.88595
aI0
aI01
aI00
aI00
aI00
aI00
aI00
aI00
aI00
aa(lp1847
I41890
aF188.267
aF321.793
aVp2
p1848
aS'utopia'
p1849
aS'#656565'
p1850
aF8.88595
aI0
aI01
aI00
aI00
aI00
aI00
aI00
aI00
aI00
aa(lp1851
I234378
aF317.113
aF321.793
aVp2
p1852
aS'utopia'
p1853
aS'#656565'
p1854
aF8.88595
aI0
aI00
aI00
aI01
aI01
aI01
aI00
aI00
aI00
aa(lp1855
I234378
aF420.042
aF321.793
aVp2
p1856
aS'utopia'
p1857
aS'#656565'
p1858
aF8.88595
aI0
aI00
aI00
aI01
aI01
aI01
aI00
aI00
aI00
aa(lp1859
I234378
aF431.15
aF321.793
aVp2
p1860
aS'utopia'
p1861
aS'#656565'
p1862
aF8.88595
aI0
aI01
aI00
aI00
aI00
aI00
aI00
aI00
aI00
aa(lp1863
I234378
aF48.3134
aF345.489
aVp2
p1864
aS'utopia'
p1865
aS'#656565'
p1866
aF8.88595
aI0
aI01
aI01
aI00
aI00
aI00
aI00
aI00
aI00
aa(lp1867
I234378
aF65.3448
aF345.489
aVp2
p1868
aS'utopia'
p1869
aS'#656565'
p1870
aF8.88595
aI0
aI01
aI01
aI00
aI00
aI00
aI00
aI00
aI00
aa(lp1871
I234378
aF71.83944000000001
aF345.489
ag1868
aS'utopia'
p1872
aS'#656565'
p1873
aF8.88595
aI0
aI00
aI00
aI00
aI00
aI00
aI00
aI00
aI00
aa(lp1874
I234378
aF77.1927
aF345.489
aVp2
p1875
aS'utopia'
p1876
aS'#656565'
p1877
aF8.88595
aI0
aI01
aI00
aI00
aI00
aI00
aI00
aI00
aI00
aa(lp1878
I41890
aF188.267
aF345.489
aVp2
p1879
aS'utopia'
p1880
aS'#656565'
p1881
aF8.88595
aI0
aI01
aI00
aI00
aI00
aI00
aI00
aI00
aI00
aa(lp1882
I234378
aF317.113
aF345.489
aVp2
p1883
aS'utopia'
p1884
aS'#656565'
p1885
aF8.88595
aI0
aI00
aI00
aI01
aI01
aI01
aI00
aI00
aI00
aa(lp1886
I234378
aF424.485
aF345.489
aVp2
p1887
aS'utopia'
p1888
aS'#656565'
p1889
aF8.88595
aI0
aI00
aI00
aI01
aI01
aI00
aI00
aI00
aI00
aa(lp1890
I91136
aF431.15
aF345.489
aVp2
p1891
aS'utopia'
p1892
aS'#656565'
p1893
aF8.88595
aI0
aI01
aI00
aI00
aI00
aI00
aI00
aI00
aI00
aa(lp1894
I195166
aF40.1679
aF395.861
aVp2
p1895
aS'utopia'
p1896
aS'#02304b'
p1897
aF11.8479
aI1
aI01
aI00
aI00
aI00
aI00
aI00
aI00
aI00
aa(lp1898
I136346
aF96.4456
aF395.861
aVp2
p1899
aS'utopia'
p1900
aS'#02304b'
p1901
aF11.8479
aI1
aI01
aI00
aI00
aI00
aI00
aI00
aI00
aI00
aa(lp1902
I195166
aF48.3134
aF423.751
aVp2
p1903
aS'utopia'
p1904
aS'#000000'
p1905
aF8.88595
aI1
aI01
aI00
aI00
aI00
aI00
aI00
aI00
aI00
aa(lp1906
I164378
aF177.16
aF423.751
aVp2
p1907
aS'utopia'
p1908
aS'#000000'
p1909
aF8.88595
aI1
aI01
aI00
aI00
aI00
aI00
aI00
aI00
aI00
aa(lp1910
I175077
aF296.379
aF423.751
aVp2
p1911
aS'utopia'
p1912
aS'#000000'
p1913
aF8.88595
aI1
aI01
aI00
aI00
aI00
aI00
aI00
aI00
aI00
aa(lp1914
I224291
aF397.087
aF423.751
aVp2
p1915
aS'utopia'
p1916
aS'#000000'
p1917
aF8.88595
aI1
aI01
aI00
aI00
aI00
aI00
aI00
aI00
aI00
aa(lp1918
I165206
aF497.054
aF423.751
aVp2
p1919
aS'utopia'
p1920
aS'#000000'
p1921
aF8.88595
aI1
aI01
aI00
aI00
aI00
aI00
aI00
aI00
aI00
aa(lp1922
I58002
aF48.3134
aF442.494
aVp2
p1923
aS'utopia'
p1924
aS'#656565'
p1925
aF8.88595
aI0
aI01
aI00
aI00
aI00
aI00
aI00
aI00
aI00
aa(lp1926
I61354
aF177.16
aF442.494
aVp2
p1927
aS'utopia'
p1928
aS'#656565'
p1929
aF8.88595
aI0
aI01
aI00
aI00
aI00
aI00
aI00
aI00
aI00
aa(lp1930
I234378
aF40.1679
aF474.353
aVp2
p1931
aS'utopia'
p1932
aS'#02304b'
p1933
aF11.8479
aI1
aI01
aI00
aI00
aI00
aI00
aI00
aI00
aI00
aa(lp1934
I201816
aF40.9084
aF506.177
aVp2
p1935
aS'utopia'
p1936
aS'#000000'
p1937
aF8.88595
aI0
aI01
aI00
aI00
aI00
aI00
aI00
aI00
aI00
aa(lp1938
I234378
aF54.9779
aF506.177
aVp2
p1939
aS'utopia'
p1940
aS'#000000'
p1941
aF8.88595
aI0
aI01
aI00
aI00
aI00
aI00
aI00
aI00
aI00
aa(lp1942
I86196
aF89.0407
aF506.177
aVp2
p1943
aS'utopia'
p1944
aS'#000000'
p1945
aF8.88595
aI0
aI01
aI00
aI00
aI00
aI00
aI00
aI00
aI00
aa(lp1946
I177271
aF40.1679
aF545.441
aVp2
p1947
aS'utopia'
p1948
aS'#02304b'
p1949
aF11.8479
aI1
aI01
aI00
aI00
aI00
aI00
aI00
aI00
aI00
aa(lp1950
I234378
aF74.2307
aF545.441
aVp2
p1951
aS'utopia'
p1952
aS'#02304b'
p1953
aF11.8479
aI1
aI01
aI00
aI00
aI00
aI00
aI00
aI00
aI00
aa(lp1954
I7520
aF49.0539
aF566.05
aVp2
p1955
aS'utopia'
p1956
aS'#656565'
p1957
aF10.3669
aI1
aI01
aI00
aI00
aI00
aI00
aI00
aI00
aI00
aa(lp1958
I10865
aF93.4836
aF566.05
aVp2
p1959
aS'utopia'
p1960
aS'#656565'
p1961
aF10.3669
aI1
aI01
aI00
aI00
aI00
aI00
aI00
aI00
aI00
aa(lp1962
I132955
aF49.0539
aF581.707
aVp2
p1963
aS'utopia'
p1964
aS'#656565'
p1965
aF8.88595
aI0
aI01
aI00
aI00
aI00
aI00
aI00
aI00
aI00
aa(lp1966
I144489
aF69.7878
aF581.707
aVp2
p1967
aS'utopia'
p1968
aS'#656565'
p1969
aF8.88595
aI0
aI00
aI00
aI00
aI00
aI00
aI00
aI00
aI00
aa(lp1970
I132529
aF80.1547
aF581.707
aVp2
p1971
aS'utopia'
p1972
aS'#656565'
p1973
aF8.88595
aI0
aI01
aI00
aI00
aI00
aI00
aI00
aI00
aI00
aa(lp1974
I234378
aF98.76336666666667
aF581.707
ag1971
aS'utopia'
p1975
aS'#656565'
p1976
aF8.88595
aI0
aI00
aI00
aI00
aI00
aI00
aI00
aI00
aI00
aa(lp1977
I234378
aF104.591
aF581.707
aVp2
p1978
aS'utopia'
p1979
aS'#434343'
p1980
aF8.88595
aI0
aI00
aI00
aI01
aI01
aI01
aI00
aI00
aI00
aa(lp1981
I27216
aF115.699
aF581.707
aVp2
p1982
aS'utopia'
p1983
aS'#434343'
p1984
aF8.88595
aI0
aI01
aI00
aI00
aI00
aI00
aI00
aI00
aI01
aa(lp1985
I234378
aF131.249
aF581.707
aVp2
p1986
aS'utopia'
p1987
aS'#434343'
p1988
aF8.88595
aI0
aI00
aI00
aI01
aI01
aI01
aI00
aI00
aI00
aa(lp1989
I86794
aF308.968
aF579.379
aVp2
p1990
aS'utopia'
p1991
aS'#656565'
p1992
aF10.3669
aI1
aI01
aI00
aI00
aI00
aI00
aI00
aI00
aI00
aa(lp1993
I131455
aF347.474
aF579.379
aVp2
p1994
aS'utopia'
p1995
aS'#656565'
p1996
aF10.3669
aI1
aI01
aI00
aI00
aI00
aI00
aI00
aI00
aI00
aa(lp1997
I234378
aF365.246
aF579.379
aVp2
p1998
aS'utopia'
p1999
aS'#656565'
p2000
aF10.3669
aI1
aI01
aI00
aI00
aI00
aI00
aI00
aI00
aI00
aa(lp2001
I108944
aF49.0539
aF597.258
aVp2
p2002
aS'utopia'
p2003
aS'#656565'
p2004
aF8.88595
aI0
aI01
aI00
aI00
aI00
aI00
aI00
aI00
aI00
aa(lp2005
I234378
aF76.44544285714287
aF597.258
ag2002
aS'utopia'
p2006
aS'#656565'
p2007
aF8.88595
aI0
aI00
aI00
aI00
aI00
aI00
aI00
aI00
aI00
aa(lp2008
I104428
aF83.1167
aF597.258
aVp2
p2009
aS'utopia'
p2010
aS'#434343'
p2011
aF8.88595
aI0
aI01
aI00
aI00
aI00
aI00
aI00
aI00
aI00
aa(lp2012
I131455
aF308.968
aF595.036
aVp2
p2013
aS'utopia'
p2014
aS'#656565'
p2015
aF8.88595
aI0
aI01
aI00
aI00
aI00
aI00
aI00
aI00
aI00
aa(lp2016
I197416
aF324.518
aF595.036
aVp2
p2017
aS'utopia'
p2018
aS'#656565'
p2019
aF8.88595
aI0
aI01
aI00
aI00
aI00
aI00
aI00
aI00
aI00
aa(lp2020
I234378
aF341.78992
aF595.036
ag2017
aS'utopia'
p2021
aS'#656565'
p2022
aF8.88595
aI0
aI00
aI00
aI00
aI00
aI00
aI00
aI00
aI00
aa(lp2023
I28425
aF348.214
aF595.036
aVp2
p2024
aS'utopia'
p2025
aS'#434343'
p2026
aF8.88595
aI0
aI01
aI00
aI00
aI00
aI00
aI00
aI00
aI00
aa(lp2027
I212271
aF49.0539
aF612.808
aVp2
p2028
aS'utopia'
p2029
aS'#656565'
p2030
aF8.88595
aI0
aI01
aI00
aI00
aI00
aI00
aI00
aI00
aI00
aa(lp2031
I12510
aF79.4142
aF612.808
aVp2
p2032
aS'utopia'
p2033
aS'#656565'
p2034
aF8.88595
aI0
aI01
aI00
aI00
aI00
aI00
aI00
aI00
aI00
aa(lp2035
I234378
aF101.72811428571428
aF612.808
ag2032
aS'utopia'
p2036
aS'#656565'
p2037
aF8.88595
aI0
aI00
aI00
aI00
aI00
aI00
aI00
aI00
aI00
aa(lp2038
I118865
aF107.553
aF612.808
aVp2
p2039
aS'utopia'
p2040
aS'#434343'
p2041
aF8.88595
aI0
aI01
aI00
aI00
aI00
aI00
aI00
aI00
aI00
aa(lp2042
I234378
aF133.68768749999998
aF612.808
ag2039
aS'utopia'
p2043
aS'#434343'
p2044
aF8.88595
aI0
aI00
aI00
aI00
aI00
aI00
aI00
aI00
aI00
aa(lp2045
I136874
aF138.04346875
aF612.808
ag2039
aS'utopia'
p2046
aS'#434343'
p2047
aF8.88595
aI0
aI00
aI00
aI00
aI00
aI00
aI00
aI00
aI00
aa(lp2048
I72722
aF308.968
aF610.587
aVp2
p2049
aS'utopia'
p2050
aS'#656565'
p2051
aF8.88595
aI0
aI01
aI00
aI00
aI00
aI00
aI00
aI00
aI00
aa(lp2052
I12510
aF362.284
aF610.587
aVp2
p2053
aS'utopia'
p2054
aS'#656565'
p2055
aF8.88595
aI0
aI01
aI00
aI00
aI00
aI00
aI00
aI00
aI00
aa(lp2056
I234378
aF384.5979142857143
aF610.587
ag2053
aS'utopia'
p2057
aS'#656565'
p2058
aF8.88595
aI0
aI00
aI00
aI00
aI00
aI00
aI00
aI00
aI00
aa(lp2059
I60201
aF390.422
aF610.587
aVp2
p2060
aS'utopia'
p2061
aS'#434343'
p2062
aF8.88595
aI0
aI01
aI00
aI00
aI00
aI00
aI00
aI00
aI00
aa(lp2063
I230071
aF407.454
aF610.587
aVp2
p2064
aS'utopia'
p2065
aS'#434343'
p2066
aF8.88595
aI0
aI01
aI00
aI00
aI00
aI00
aI00
aI00
aI00
aa(lp2067
I118366
aF49.0539
aF632.695
aVp2
p2068
aS'utopia'
p2069
aS'#656565'
p2070
aF10.3669
aI1
aI01
aI00
aI00
aI00
aI00
aI00
aI00
aI00
aa(lp2071
I234378
aF83.97235
aF632.695
ag2068
aS'utopia'
p2072
aS'#656565'
p2073
aF10.3669
aI1
aI00
aI00
aI00
aI00
aI00
aI00
aI00
aI00
aa(lp2074
I51933
aF308.968
aF630.473
aVp2
p2075
aS'utopia'
p2076
aS'#656565'
p2077
aF10.3669
aI1
aI01
aI00
aI00
aI00
aI00
aI00
aI00
aI00
aa(lp2078
I62768
aF337.107
aF630.473
aVp2
p2079
aS'utopia'
p2080
aS'#656565'
p2081
aF10.3669
aI1
aI01
aI00
aI00
aI00
aI00
aI00
aI00
aI00
aa(lp2082
I234378
aF49.0539
aF645.39
aVp2
p2083
aS'utopia'
p2084
aS'#000000'
p2085
aF8.88595
aI0
aI01
aI01
aI01
aI00
aI00
aI00
aI00
aI00
aa(lp2086
I103743
aF60.9018
aF645.39
aVp2
p2087
aS'utopia'
p2088
aS'#000000'
p2089
aF8.88595
aI0
aI01
aI00
aI00
aI00
aI00
aI00
aI00
aI00
aa(lp2090
I234378
aF74.2307
aF645.39
aVp2
p2091
aS'utopia'
p2092
aS'#000000'
p2093
aF8.88595
aI0
aI01
aI00
aI00
aI00
aI00
aI00
aI00
aI00
aa(lp2094
I162496
aF113.477
aF645.39
aVp2
p2095
aS'utopia'
p2096
aS'#000000'
p2097
aF8.88595
aI0
aI01
aI00
aI00
aI00
aI00
aI00
aI00
aI00
aa(lp2098
I234378
aF49.0539
aF655.757
aVp2
p2099
aS'utopia'
p2100
aS'#000000'
p2101
aF8.88595
aI0
aI01
aI00
aI00
aI00
aI00
aI00
aI00
aI00
aa(lp2102
I234378
aF102.37
aF655.757
aVp2
p2103
aS'utopia'
p2104
aS'#000000'
p2105
aF8.88595
aI0
aI01
aI00
aI00
aI00
aI00
aI00
aI00
aI00
aa(lp2106
I49549
aF128.287
aF655.757
aVp2
p2107
aS'utopia'
p2108
aS'#000000'
p2109
aF8.88595
aI0
aI01
aI00
aI00
aI00
aI00
aI00
aI00
aI00
aa(lp2110
I234378
aF149.96620000000001
aF655.757
ag2107
aS'utopia'
p2111
aS'#000000'
p2112
aF8.88595
aI0
aI00
aI00
aI00
aI00
aI00
aI00
aI00
aI00
aa(lp2113
I220170
aF155.685
aF655.757
aVp2
p2114
aS'utopia'
p2115
aS'#000000'
p2116
aF8.88595
aI0
aI01
aI00
aI00
aI00
aI00
aI00
aI00
aI00
aa(lp2117
I234378
aF171.976
aF655.757
aVp2
p2118
aS'utopia'
p2119
aS'#000000'
p2120
aF8.88595
aI0
aI01
aI00
aI00
aI00
aI00
aI00
aI00
aI00
aa(lp2121
I111618
aF242.323
aF655.757
aVp2
p2122
aS'utopia'
p2123
aS'#000000'
p2124
aF8.88595
aI0
aI01
aI00
aI00
aI00
aI00
aI00
aI00
aI00
aa(lp2125
I142933
aF49.0539
aF666.124
aVp2
p2126
aS'utopia'
p2127
aS'#000000'
p2128
aF8.88595
aI0
aI01
aI00
aI00
aI00
aI00
aI00
aI00
aI00
aa(lp2129
I89480
aF86.8192
aF666.124
aVp2
p2130
aS'utopia'
p2131
aS'#000000'
p2132
aF8.88595
aI0
aI00
aI00
aI00
aI00
aI00
aI00
aI00
aI00
aa(lp2133
I42247
aF97.1861
aF666.124
aVp2
p2134
aS'utopia'
p2135
aS'#000000'
p2136
aF8.88595
aI0
aI01
aI00
aI00
aI00
aI00
aI00
aI00
aI00
aa(lp2137
I16917
aF121.622
aF666.124
aVp2
p2138
aS'utopia'
p2139
aS'#000000'
p2140
aF8.88595
aI0
aI01
aI00
aI00
aI00
aI00
aI00
aI00
aI00
aa(lp2141
I234378
aF134.74712
aF666.124
ag2138
aS'utopia'
p2142
aS'#000000'
p2143
aF8.88595
aI0
aI00
aI00
aI00
aI00
aI00
aI00
aI00
aI00
aa(lp2144
I234378
aF140.135
aF666.124
aVp2
p2145
aS'utopia'
p2146
aS'#000000'
p2147
aF8.88595
aI0
aI01
aI00
aI00
aI00
aI00
aI00
aI00
aI00
aa(lp2148
I234378
aF182.343
aF666.124
aVp2
p2149
aS'utopia'
p2150
aS'#000000'
p2151
aF8.88595
aI0
aI00
aI00
aI01
aI01
aI01
aI00
aI00
aI00
aa(lp2152
I234378
aF49.0539
aF676.491
aVp2
p2153
aS'utopia'
p2154
aS'#000000'
p2155
aF8.88595
aI0
aI00
aI00
aI01
aI01
aI01
aI00
aI00
aI00
aa(lp2156
I31679
aF308.968
aF646.13
aVp2
p2157
aS'utopia'
p2158
aS'#656565'
p2159
aF8.88595
aI0
aI01
aI01
aI00
aI00
aI00
aI00
aI00
aI00
aa(lp2160
I51933
aF322.297
aF646.13
aVp2
p2161
aS'utopia'
p2162
aS'#656565'
p2163
aF8.88595
aI0
aI01
aI00
aI00
aI00
aI00
aI00
aI00
aI00
aa(lp2164
I12510
aF345.993
aF646.13
aVp2
p2165
aS'utopia'
p2166
aS'#656565'
p2167
aF8.88595
aI0
aI01
aI00
aI00
aI00
aI00
aI00
aI00
aI00
aa(lp2168
I234378
aF368.3069142857143
aF646.13
ag2165
aS'utopia'
p2169
aS'#656565'
p2170
aF8.88595
aI0
aI00
aI00
aI00
aI00
aI00
aI00
aI00
aI00
aa(lp2171
I109318
aF374.132
aF646.13
aVp2
p2172
aS'utopia'
p2173
aS'#434343'
p2174
aF8.88595
aI0
aI01
aI00
aI00
aI00
aI00
aI00
aI00
aI00
aa(lp2175
I234378
aF397.087
aF646.13
aVp2
p2176
aS'utopia'
p2177
aS'#434343'
p2178
aF8.88595
aI0
aI01
aI01
aI01
aI00
aI00
aI00
aI00
aI00
aa(lp2179
I222659
aF411.156
aF646.13
aVp2
p2180
aS'utopia'
p2181
aS'#434343'
p2182
aF8.88595
aI0
aI01
aI00
aI00
aI00
aI00
aI00
aI00
aI00
aa(lp2183
I234378
aF308.968
aF661.681
aVp2
p2184
aS'utopia'
p2185
aS'#656565'
p2186
aF8.88595
aI0
aI01
aI00
aI00
aI00
aI00
aI00
aI00
aI00
aa(lp2187
I234378
aF345.72652
aF661.681
ag2184
aS'utopia'
p2188
aS'#656565'
p2189
aF8.88595
aI0
aI00
aI00
aI00
aI00
aI00
aI00
aI00
aI00
aa(lp2190
I164802
aF351.917
aF661.681
aVp2
p2191
aS'utopia'
p2192
aS'#434343'
p2193
aF8.88595
aI0
aI01
aI00
aI00
aI00
aI00
aI00
aI00
aI00
aa(lp2194
I234378
aF372.4684545454545
aF661.681
ag2191
aS'utopia'
p2195
aS'#434343'
p2196
aF8.88595
aI0
aI00
aI00
aI00
aI00
aI00
aI00
aI00
aI00
aa(lp2197
I234378
aF376.5787454545454
aF661.681
ag2191
aS'utopia'
p2198
aS'#434343'
p2199
aF8.88595
aI0
aI01
aI00
aI00
aI00
aI00
aI00
aI00
aI00
aa(lp2200
I234378
aF403.57136363636357
aF661.681
ag2191
aS'utopia'
p2201
aS'#434343'
p2202
aF8.88595
aI0
aI00
aI00
aI00
aI00
aI00
aI00
aI00
aI00
aa(lp2203
I227337
aF417.6816545454545
aF661.681
ag2191
aS'utopia'
p2204
aS'#434343'
p2205
aF8.88595
aI0
aI01
aI00
aI00
aI00
aI00
aI00
aI00
aI00
aa(lp2206
I85540
aF444.479
aF661.681
aVp2
p2207
aS'utopia'
p2208
aS'#434343'
p2209
aF8.88595
aI0
aI01
aI00
aI00
aI00
aI00
aI00
aI00
aI00
aa(lp2210
I182663
aF49.0539
aF689.82
aVp2
p2211
aS'utopia'
p2212
aS'#656565'
p2213
aF8.88595
aI0
aI01
aI00
aI00
aI00
aI00
aI00
aI00
aI00
aa(lp2214
I82279
aF76.4522
aF689.82
aVp2
p2215
aS'utopia'
p2216
aS'#656565'
p2217
aF8.88595
aI0
aI01
aI00
aI00
aI00
aI00
aI00
aI00
aI00
aa(lp2218
I234378
aF96.09372
aF689.82
ag2215
aS'utopia'
p2219
aS'#656565'
p2220
aF8.88595
aI0
aI00
aI00
aI00
aI00
aI00
aI00
aI00
aI00
aa(lp2221
I234378
aF103.11
aF689.82
aVp2
p2222
aS'utopia'
p2223
aS'#000000'
p2224
aF8.88595
aI0
aI01
aI00
aI00
aI00
aI00
aI00
aI00
aI00
aa(lp2225
I166771
aF308.968
aF681.568
aVp2
p2226
aS'utopia'
p2227
aS'#656565'
p2228
aF10.3669
aI1
aI01
aI00
aI00
aI00
aI00
aI00
aI00
aI00
aa(lp2229
I74833
aF365.246
aF681.568
aVp2
p2230
aS'utopia'
p2231
aS'#656565'
p2232
aF10.3669
aI1
aI01
aI00
aI00
aI00
aI00
aI00
aI00
aI00
aa(lp2233
I233758
aF308.968
aF697.225
aVp2
p2234
aS'utopia'
p2235
aS'#656565'
p2236
aF8.88595
aI0
aI01
aI00
aI00
aI00
aI00
aI00
aI00
aI00
aa(lp2237
I234378
aF342.6398222222222
aF697.225
ag2234
aS'utopia'
p2238
aS'#656565'
p2239
aF8.88595
aI0
aI00
aI00
aI00
aI00
aI00
aI00
aI00
aI00
aa(lp2240
I230332
aF348.955
aF697.225
aVp2
p2241
aS'utopia'
p2242
aS'#434343'
p2243
aF8.88595
aI0
aI01
aI00
aI00
aI00
aI00
aI00
aI00
aI00
aa(lp2244
I151511
aF308.968
aF712.775
aVp2
p2245
aS'utopia'
p2246
aS'#656565'
p2247
aF8.88595
aI0
aI01
aI00
aI00
aI00
aI00
aI00
aI00
aI00
aa(lp2248
I234378
aF349.695
aF712.775
aVp2
p2249
aS'utopia'
p2250
aS'#656565'
p2251
aF8.88595
aI0
aI01
aI00
aI00
aI00
aI00
aI00
aI00
aI00
aa(lp2252
I234378
aF391.5370909090909
aF712.775
ag2249
aS'utopia'
p2253
aS'#656565'
p2254
aF8.88595
aI0
aI00
aI00
aI00
aI00
aI00
aI00
aI00
aI00
aa(lp2255
I201816
aF397.827
aF712.775
aVp2
p2256
aS'utopia'
p2257
aS'#434343'
p2258
aF8.88595
aI0
aI01
aI00
aI00
aI00
aI00
aI00
aI00
aI00
aa(lp2259
I1
aI1
aI0
aI0
aI0
aI0
aI0
aI0
aI0
aI0
aI0
aI0
aI0
aI0
aI0
aI0
aI0
aI0
aI0
aI0
aI0
aI0
aI0
aI0
aI0
aI0
aI0
aI0
aI0
aI0
aI0
aI0
aI0
aI0
aI0
aI0
aI0
aI0
aI0
aI0
aI0
aI0
aI0
aI0
aI0
aI0
aI0
aI0
aI0
aI0
aI0
aI0
aI0
aI0
aI0
aI0
aI0
aI0
aI0
aI0
aI0
aI0
aI0
aI0
aI0
aI0
aI0
aI0
aI0
aI0
aI0
aI0
aI0
aI0
aI0
aI0
aI0
aI0
aI0
aI0
aI0
aI0
aI0
aI0
aI0
aI0
aI0
aI0
aI0
aI0
aI0
aI0
aI0
aI0
aI0
aI0
aI0
aI0
aI0
aI0
aI0
aI0
aI0
aI0
aI0
aI0
aI0
aI0
aI0
aI0
aI0
aI0
aI0
aI0
aI0
aI0
aI0
aI0
aI0
aI0
aI0
aI0
aI0
aI0
aI0
aI0
aI0
aI0
aI0
aI0
aI0
aI0
aI0
aI0
aI0
aI0
aI0
aI0
aI0
aI0
aI0
aI0
aI0
aI0
aI0
aI0
aI0
aI0
aI0
aI0
aI0
aI0
aI0
aI0
aI0
aI0
aI0
aI0
aI0
aI0
aI0
aI0
aI0
aI0
aI0
aI0
aI0
aI0
aI0
aI0
aI0
aI0
aI0
aI0
aI0
aI0
aI0
aI0
aI0
aI0
aI0
aI0
aI0
aI0
aI0
aI0
aI0
aI0
aI0
aI0
aI0
aI0
aI0
aI0
aI0
aI0
aI0
aI0
aI0
aI0
aI0
aI0
aI0
aI0
aI0
aI0
aI0
aI0
aI0
aI0
aI0
aI0
aI0
aI0
aI0
aI0
aI0
aI0
aI0
aI0
aI0
aI0
aI0
aI0
aI0
aI0
aI0
aI0
aI0
aI0
aI0
aI0
aI0
aI0
aI0
aI1
aI1
aI0
aI0
aI0
aI0
aI0
aI0
aI0
aI0
aI0
aI0
aI0
aI0
aI0
aI0
aI0
aI0
aI0
aI0
aI0
aI0
aI0
aI0
aI0
aI0
aI0
aI0
aI0
aI0
aI0
aI0
aI0
aI0
aI0
aI0
aI0
aI0
aI0
aI0
aI0
aI0
aI0
aI0
aI0
aI0
aI0
aI0
aI0
aI0
aI0
aI0
aI0
aI0
aI0
aI0
aI0
aI0
aI0
aI0
aI0
aI0
aI0
aI0
aI0
aI1
aI0
aI0
aI0
aI0
aI0
aI0
aI0
aI0
aI0
aI0
aI0
aI0
aI0
aI0
aI0
aI0
aI0
aI0
aI0
aI0
aI0
aI0
aI0
aI0
aI0
aI0
aI0
aI0
aI0
aI0
aI0
aI0
aI0
aI0
aI0
aI0
aI0
aI0
aI0
aI0
aI0
aI0
aI0
aI0
aI0
aI0
aI0
aI0
aI0
aI0
aI0
aI1
aI0
aI0
aI0
aI0
aI0
aI0
aI0
aI0
aI0
aI0
aI0
aI0
aI0
aI1
aI1
aI0
aI0
aI0
aI0
aI0
aI0
aI0
aI0
aI0
aI0
aI0
aI0
aI0
aI0
aI0
aI0
aI0
aI0
aI0
aI0
aI0
aI0
aI0
aI0
aI0
aI0
aI0
aI0
aI0
aI0
aI0
aI0
aI0
aI0
aI0
aI0
aI0
aI0
aI0
aI0
aI0
aI0
aI0
aI0
aI0
aI0
aI0
aI0
aI0
aI0
aI0
aI0
aI0
aI0
aI0
aI0
aI0
aI0
aI0
aI0
aI0
aI0
aI0
aI0
aI0
aI0
aI0
aI0
aI0
aI0
aI0
aI0
aI0
aI0
aI0
aI0
aI0
aI0
aI0
aI0
aI0
aI0
aI0
aI0
aI0
aI0
aI0
aI0
aI0
aI0
aI0
aI0
aI0
aI0
aI0
aI0
aI0
aI0
aI0
aI0
aI0
aI0
aI0
aI0
aI0
aI0
aI0
aI0
aI0
aI0
aI0
aI0
aI0
aI0
aI0
aI0
aI0
aI0
aI0
aI0
aI0
aI0
aI0
aI0
aI0
aI0
aI0
aI0
aI0
aI0
aI0
aI0
aI0
aI0
aI0
aI0
aI0
aI0
aI0
aI0
aI0
aI0
aI0
aI0
aI0
aI0
aI0
aI1
aI1
aI0
aI0
aI0
aI0
aI0
aI0
aI0
aI1
aI0
aI0
aI0
aI1
aI1
aI0
aI0
aI0
aI0
aI0
aI0
aI0
aI0
aI0
aI0
aI0
aI0
aI0
aI0
aI0
aI0
aI0
aI0
aI0
aI0
aI0
aI0
aI0
aI0
aI0
aI0
aI0
aI0
aI0
aI0
aI0
aI0
aI0
aI0
aI0
aI0
aI0
aI0
aI0
aI0
aI0
aI0
aI0
aI0
aI0
aI0
aI0
aI0
aI0
aI0
aI0
aI0
aI0
aI0
aI0
aI0
aI0
aI0
aI0
aI0
aI0
aI0
aI0
aI0
aI0
aI0
aI0
aI0
aI0
aI0
aI0
aI0
aI0
aI0
aI0
aI0
aI0
aI0
aI0
aI0
aI0
atp2260
.