((lp0
(lp1
I234378
aF40.9084
aF53.0111
aVp1
p2
aS'utopia'
p3
aS'#02304b'
p4
aF11.8479
aI1
aI01
aI00
aI00
aI00
aI00
aI00
aI00
aI00
aa(lp5
I21716
aF46.8324
aF74.4677
aVp1
p6
aS'utopia'
p7
aS'#656565'
p8
aF8.88595
aI0
aI01
aI00
aI00
aI00
aI00
aI00
aI00
aI00
aa(lp9
I234378
aF64.01586666666667
aF74.4677
ag6
aS'utopia'
p10
aS'#656565'
p11
aF8.88595
aI0
aI00
aI00
aI00
aI00
aI00
aI00
aI00
aI00
aa(lp12
I234378
aF68.31173333333334
aF74.4677
ag6
aS'utopia'
p13
aS'#656565'
p14
aF8.88595
aI0
aI01
aI01
aI01
aI00
aI00
aI00
aI00
aI00
aa(lp15
I169745
aF87.5597
aF74.4677
aVp1
p16
aS'utopia'
p17
aS'#656565'
p18
aF8.88595
aI0
aI01
aI00
aI00
aI00
aI00
aI00
aI00
aI00
aa(lp19
I234378
aF108.294
aF74.4677
aVp1
p20
aS'utopia'
p21
aS'#656565'
p22
aF8.88595
aI0
aI01
aI00
aI00
aI00
aI00
aI00
aI00
aI00
aa(lp23
I234378
aF149.021
aF74.4677
aVp1
p24
aS'utopia'
p25
aS'#656565'
p26
aF8.88595
aI0
aI01
aI00
aI00
aI00
aI00
aI00
aI00
aI00
aa(lp27
I100815
aF186.046
aF74.4677
aVp1
p28
aS'utopia'
p29
aS'#656565'
p30
aF8.88595
aI0
aI01
aI00
aI00
aI00
aI00
aI00
aI00
aI00
aa(lp31
I234378
aF59.4208
aF124.081
aVp1
p32
aS'utopia'
p33
aS'#0d75b4'
p34
aF8.88595
aI0
aI00
aI00
aI00
aI00
aI00
aI01
aI00
aI00
aa(lp35
I234378
aF301.563
aF124.081
aVp1
p36
aS'utopia'
p37
aS'#000000'
p38
aF8.88595
aI0
aI00
aI00
aI01
aI01
aI01
aI00
aI00
aI00
aa(lp39
I15548
aF55.7183
aF158.884
aVp1
p40
aS'utopia'
p41
aS'#878787'
p42
aF8.88595
aI0
aI01
aI00
aI00
aI00
aI00
aI00
aI00
aI00
aa(lp43
I104542
aF89.0407
aF158.884
aVp1
p44
aS'utopia'
p45
aS'#878787'
p46
aF8.88595
aI0
aI01
aI00
aI00
aI00
aI00
aI00
aI00
aI00
aa(lp47
I234378
aF133.94655
aF158.884
ag44
aS'utopia'
p48
aS'#878787'
p49
aF8.88595
aI0
aI00
aI00
aI00
aI00
aI00
aI00
aI00
aI00
aa(lp50
I234378
aF142.356
aF158.884
aVp1
p51
aS'utopia'
p52
aS'#000000'
p53
aF8.88595
aI0
aI01
aI00
aI00
aI00
aI00
aI00
aI00
aI00
aa(lp54
I132100
aF179.381
aF158.884
aVp1
p55
aS'utopia'
p56
aS'#000000'
p57
aF8.88595
aI0
aI01
aI00
aI00
aI00
aI00
aI00
aI00
aI00
aa(lp58
I169745
aF216.406
aF158.884
aVp1
p59
aS'utopia'
p60
aS'#000000'
p61
aF8.88595
aI0
aI00
aI00
aI00
aI00
aI00
aI00
aI00
aI00
aa(lp62
I183471
aF235.659
aF158.884
aVp1
p63
aS'utopia'
p64
aS'#000000'
p65
aF8.88595
aI0
aI00
aI00
aI00
aI00
aI00
aI00
aI00
aI00
aa(lp66
I234378
aF260.095
aF158.884
aVp1
p67
aS'utopia'
p68
aS'#000000'
p69
aF8.88595
aI0
aI00
aI00
aI00
aI00
aI00
aI00
aI00
aI00
aa(lp70
I144489
aF283.051
aF158.884
aVp1
p71
aS'utopia'
p72
aS'#000000'
p73
aF8.88595
aI0
aI00
aI00
aI00
aI00
aI00
aI00
aI00
aI00
aa(lp74
I60220
aF55.7183
aF169.251
aVp1
p75
aS'utopia'
p76
aS'#000000'
p77
aF8.88595
aI0
aI00
aI00
aI00
aI00
aI00
aI00
aI00
aI00
aa(lp78
I16915
aF308.227
aF158.884
aVp1
p79
aS'utopia'
p80
aS'#878787'
p81
aF8.88595
aI0
aI01
aI00
aI00
aI00
aI00
aI00
aI00
aI00
aa(lp82
I60220
aF330.442
aF158.884
aVp1
p83
aS'utopia'
p84
aS'#878787'
p85
aF8.88595
aI0
aI01
aI00
aI00
aI00
aI00
aI00
aI00
aI00
aa(lp86
I234378
aF372.28409090909093
aF158.884
ag83
aS'utopia'
p87
aS'#878787'
p88
aF8.88595
aI0
aI00
aI00
aI00
aI00
aI00
aI00
aI00
aI00
aa(lp89
I234378
aF380.796
aF158.884
aVp1
p90
aS'utopia'
p91
aS'#000000'
p92
aF8.88595
aI0
aI00
aI00
aI01
aI01
aI00
aI00
aI00
aI00
aa(lp93
I91136
aF387.46
aF158.884
aVp1
p94
aS'utopia'
p95
aS'#000000'
p96
aF8.88595
aI0
aI01
aI00
aI00
aI00
aI00
aI00
aI00
aI00
aa(lp97
I234378
aF403.18559999999997
aF158.884
ag94
aS'utopia'
p98
aS'#000000'
p99
aF8.88595
aI0
aI00
aI00
aI00
aI00
aI00
aI00
aI00
aI00
aa(lp100
I59734
aF407.11699999999996
aF158.884
ag94
aS'utopia'
p101
aS'#000000'
p102
aF8.88595
aI0
aI00
aI00
aI00
aI00
aI00
aI00
aI00
aI00
aa(lp103
I234378
aF411.04839999999996
aF158.884
ag94
aS'utopia'
p104
aS'#000000'
p105
aF8.88595
aI0
aI00
aI00
aI00
aI00
aI00
aI00
aI00
aI00
aa(lp106
I234378
aF417.08
aF158.884
aVp1
p107
aS'utopia'
p108
aS'#000000'
p109
aF8.88595
aI0
aI00
aI00
aI01
aI01
aI00
aI00
aI00
aI00
aa(lp110
I63729
aF423.745
aF158.884
aVp1
p111
aS'utopia'
p112
aS'#000000'
p113
aF8.88595
aI0
aI01
aI00
aI00
aI00
aI00
aI00
aI00
aI00
aa(lp114
I234378
aF446.4985625
aF158.884
ag111
aS'utopia'
p115
aS'#000000'
p116
aF8.88595
aI0
aI00
aI00
aI00
aI00
aI00
aI00
aI00
aI00
aa(lp117
I59734
aF451.04927499999997
aF158.884
ag111
aS'utopia'
p118
aS'#000000'
p119
aF8.88595
aI0
aI00
aI00
aI00
aI00
aI00
aI00
aI00
aI00
aa(lp120
I234378
aF455.59998749999994
aF158.884
ag111
aS'utopia'
p121
aS'#000000'
p122
aF8.88595
aI0
aI00
aI00
aI00
aI00
aI00
aI00
aI00
aI00
aa(lp123
I229300
aF308.227
aF176.656
aVp1
p124
aS'utopia'
p125
aS'#878787'
p126
aF8.88595
aI0
aI01
aI00
aI00
aI00
aI00
aI00
aI00
aI00
aa(lp127
I78894
aF338.588
aF176.656
aVp1
p128
aS'utopia'
p129
aS'#878787'
p130
aF8.88595
aI0
aI01
aI00
aI00
aI00
aI00
aI00
aI00
aI00
aa(lp131
I234378
aF360.9019142857143
aF176.656
ag128
aS'utopia'
p132
aS'#878787'
p133
aF8.88595
aI0
aI00
aI00
aI00
aI00
aI00
aI00
aI00
aI00
aa(lp134
I234378
aF368.948
aF176.656
aVp1
p135
aS'utopia'
p136
aS'#000000'
p137
aF8.88595
aI0
aI01
aI00
aI00
aI00
aI00
aI00
aI00
aI00
aa(lp138
I234378
aF380.796
aF176.656
aVp1
p139
aS'utopia'
p140
aS'#000000'
p141
aF8.88595
aI0
aI00
aI00
aI01
aI01
aI01
aI00
aI00
aI00
aa(lp142
I234378
aF391.903
aF176.656
aVp1
p143
aS'utopia'
p144
aS'#000000'
p145
aF8.88595
aI0
aI01
aI00
aI00
aI00
aI00
aI00
aI00
aI00
aa(lp146
I15548
aF55.7183
aF187.023
aVp1
p147
aS'utopia'
p148
aS'#878787'
p149
aF8.88595
aI0
aI01
aI00
aI00
aI00
aI00
aI00
aI00
aI00
aa(lp150
I2006
aF89.0407
aF187.023
aVp1
p151
aS'utopia'
p152
aS'#878787'
p153
aF8.88595
aI0
aI01
aI00
aI00
aI00
aI00
aI00
aI00
aI00
aa(lp154
I234378
aF124.77815
aF187.023
ag151
aS'utopia'
p155
aS'#878787'
p156
aF8.88595
aI0
aI00
aI00
aI00
aI00
aI00
aI00
aI00
aI00
aa(lp157
I234378
aF134.211
aF187.023
aVp1
p158
aS'utopia'
p159
aS'#000000'
p160
aF8.88595
aI0
aI01
aI00
aI00
aI00
aI00
aI00
aI00
aI00
aa(lp161
I234378
aF308.227
aF194.428
aVp1
p162
aS'utopia'
p163
aS'#878787'
p164
aF8.88595
aI0
aI01
aI00
aI00
aI00
aI00
aI00
aI00
aI00
aa(lp165
I234378
aF346.733
aF194.428
aVp1
p166
aS'utopia'
p167
aS'#878787'
p168
aF8.88595
aI0
aI01
aI01
aI00
aI00
aI00
aI00
aI00
aI00
aa(lp169
I234378
aF361.2593
aF194.428
ag166
aS'utopia'
p170
aS'#878787'
p171
aF8.88595
aI0
aI00
aI00
aI00
aI00
aI00
aI00
aI00
aI00
aa(lp172
I63091
aF370.429
aF194.428
aVp1
p173
aS'utopia'
p174
aS'#000000'
p175
aF8.88595
aI0
aI01
aI00
aI00
aI00
aI00
aI00
aI00
aI00
aa(lp176
I234378
aF387.46
aF194.428
aVp1
p177
aS'utopia'
p178
aS'#000000'
p179
aF8.88595
aI0
aI01
aI00
aI00
aI00
aI00
aI00
aI00
aI00
aa(lp180
I15548
aF55.7183
aF204.795
aVp1
p181
aS'utopia'
p182
aS'#878787'
p183
aF8.88595
aI0
aI01
aI00
aI00
aI00
aI00
aI00
aI00
aI00
aa(lp184
I17057
aF89.0407
aF204.795
aVp1
p185
aS'utopia'
p186
aS'#878787'
p187
aF8.88595
aI0
aI01
aI00
aI00
aI00
aI00
aI00
aI00
aI00
aa(lp188
I234378
aF122.05430000000001
aF204.795
ag185
aS'utopia'
p189
aS'#878787'
p190
aF8.88595
aI0
aI00
aI00
aI00
aI00
aI00
aI00
aI00
aI00
aa(lp191
I234378
aF130.508
aF204.795
aVp1
p192
aS'utopia'
p193
aS'#000000'
p194
aF8.88595
aI0
aI01
aI00
aI00
aI00
aI00
aI00
aI00
aI00
aa(lp195
I7204
aF308.227
aF212.2
aVp1
p196
aS'utopia'
p197
aS'#878787'
p198
aF8.88595
aI0
aI01
aI00
aI00
aI00
aI00
aI00
aI00
aI00
aa(lp199
I189220
aF340.809
aF212.2
aVp1
p200
aS'utopia'
p201
aS'#878787'
p202
aF8.88595
aI0
aI01
aI00
aI00
aI00
aI00
aI00
aI00
aI00
aa(lp203
I234378
aF366.93111428571433
aF212.2
ag200
aS'utopia'
p204
aS'#878787'
p205
aF8.88595
aI0
aI00
aI00
aI00
aI00
aI00
aI00
aI00
aI00
aa(lp206
I27780
aF375.613
aF212.2
aVp1
p207
aS'utopia'
p208
aS'#000000'
p209
aF8.88595
aI0
aI01
aI01
aI00
aI00
aI00
aI00
aI00
aI00
aa(lp210
I234378
aF379.93184545454545
aF212.2
ag207
aS'utopia'
p211
aS'#000000'
p212
aF8.88595
aI0
aI00
aI00
aI00
aI00
aI00
aI00
aI00
aI00
aa(lp213
I2737
aF384.2506909090909
aF212.2
ag207
aS'utopia'
p214
aS'#000000'
p215
aF8.88595
aI0
aI01
aI00
aI00
aI00
aI00
aI00
aI00
aI00
aa(lp216
I234378
aF401.5260727272727
aF212.2
ag207
aS'utopia'
p217
aS'#000000'
p218
aF8.88595
aI0
aI00
aI00
aI00
aI00
aI00
aI00
aI00
aI00
aa(lp219
I27780
aF398.8449181818182
aF212.2
ag207
aS'utopia'
p220
aS'#000000'
p221
aF8.88595
aI0
aI01
aI01
aI00
aI00
aI00
aI00
aI00
aI00
aa(lp222
I234378
aF403.1637636363636
aF212.2
ag207
aS'utopia'
p223
aS'#000000'
p224
aF8.88595
aI0
aI00
aI00
aI00
aI00
aI00
aI00
aI00
aI00
aa(lp225
I64620
aF414.4826090909091
aF212.2
ag207
aS'utopia'
p226
aS'#000000'
p227
aF8.88595
aI0
aI01
aI01
aI00
aI00
aI00
aI00
aI00
aI00
aa(lp228
I234378
aF409.80145454545453
aF212.2
ag207
aS'utopia'
p229
aS'#000000'
p230
aF8.88595
aI0
aI00
aI00
aI00
aI00
aI00
aI00
aI00
aI00
aa(lp231
I234378
aF55.7183
aF222.567
aVp1
p232
aS'utopia'
p233
aS'#878787'
p234
aF8.88595
aI0
aI01
aI00
aI00
aI00
aI00
aI00
aI00
aI00
aa(lp235
I234378
aF70.62062
aF222.567
ag232
aS'utopia'
p236
aS'#878787'
p237
aF8.88595
aI0
aI00
aI00
aI00
aI00
aI00
aI00
aI00
aI00
aa(lp238
I17057
aF76.4522
aF222.567
aVp1
p239
aS'utopia'
p240
aS'#878787'
p241
aF8.88595
aI0
aI01
aI00
aI00
aI00
aI00
aI00
aI00
aI00
aa(lp242
I234378
aF109.4658
aF222.567
ag239
aS'utopia'
p243
aS'#878787'
p244
aF8.88595
aI0
aI00
aI00
aI00
aI00
aI00
aI00
aI00
aI00
aa(lp245
I141914
aF117.92
aF222.567
aVp1
p246
aS'utopia'
p247
aS'#000000'
p248
aF8.88595
aI0
aI01
aI00
aI00
aI00
aI00
aI00
aI00
aI00
aa(lp249
I135639
aF160.128
aF222.567
aVp1
p250
aS'utopia'
p251
aS'#000000'
p252
aF8.88595
aI0
aI00
aI00
aI00
aI00
aI00
aI00
aI00
aI00
aa(lp253
I65446
aF169.755
aF222.567
aVp1
p254
aS'utopia'
p255
aS'#000000'
p256
aF8.88595
aI0
aI01
aI00
aI00
aI00
aI00
aI00
aI00
aI00
aa(lp257
I164802
aF195.672
aF222.567
aVp1
p258
aS'utopia'
p259
aS'#000000'
p260
aF8.88595
aI0
aI01
aI00
aI00
aI00
aI00
aI00
aI00
aI00
aa(lp261
I234378
aF214.28066666666666
aF222.567
ag258
aS'utopia'
p262
aS'#000000'
p263
aF8.88595
aI0
aI00
aI00
aI00
aI00
aI00
aI00
aI00
aI00
aa(lp264
I141914
aF220.108
aF222.567
aVp1
p265
aS'utopia'
p266
aS'#000000'
p267
aF8.88595
aI0
aI01
aI00
aI00
aI00
aI00
aI00
aI00
aI00
aa(lp268
I135639
aF262.317
aF222.567
aVp1
p269
aS'utopia'
p270
aS'#000000'
p271
aF8.88595
aI0
aI00
aI00
aI00
aI00
aI00
aI00
aI00
aI00
aa(lp272
I91495
aF271.943
aF222.567
aVp1
p273
aS'utopia'
p274
aS'#000000'
p275
aF8.88595
aI0
aI01
aI00
aI00
aI00
aI00
aI00
aI00
aI00
aa(lp276
I164802
aF55.7183
aF232.934
aVp1
p277
aS'utopia'
p278
aS'#000000'
p279
aF8.88595
aI0
aI01
aI00
aI00
aI00
aI00
aI00
aI00
aI00
aa(lp280
I48671
aF308.227
aF229.972
aVp1
p281
aS'utopia'
p282
aS'#878787'
p283
aF8.88595
aI0
aI01
aI00
aI00
aI00
aI00
aI00
aI00
aI00
aa(lp284
I129688
aF336.366
aF229.972
aVp1
p285
aS'utopia'
p286
aS'#878787'
p287
aF8.88595
aI0
aI00
aI00
aI00
aI00
aI00
aI00
aI00
aI00
aa(lp288
I234378
aF360.58405714285715
aF229.972
ag285
aS'utopia'
p289
aS'#878787'
p290
aF8.88595
aI0
aI00
aI00
aI00
aI00
aI00
aI00
aI00
aI00
aa(lp291
I234378
aF368.948
aF229.972
aVp1
p292
aS'utopia'
p293
aS'#000000'
p294
aF8.88595
aI0
aI00
aI00
aI01
aI01
aI00
aI00
aI00
aI00
aa(lp295
I234378
aF375.613
aF229.972
aVp1
p296
aS'utopia'
p297
aS'#000000'
p298
aF8.88595
aI0
aI01
aI00
aI00
aI00
aI00
aI00
aI00
aI00
aa(lp299
I98580
aF55.7183
aF250.706
aVp1
p300
aS'utopia'
p301
aS'#878787'
p302
aF8.88595
aI0
aI01
aI00
aI00
aI00
aI00
aI00
aI00
aI00
aa(lp303
I166289
aF100.148
aF250.706
aVp1
p304
aS'utopia'
p305
aS'#878787'
p306
aF8.88595
aI0
aI01
aI00
aI00
aI00
aI00
aI00
aI00
aI00
aa(lp307
I234378
aF116.82751999999999
aF250.706
ag304
aS'utopia'
p308
aS'#878787'
p309
aF8.88595
aI0
aI00
aI00
aI00
aI00
aI00
aI00
aI00
aI00
aa(lp310
I22476
aF125.325
aF250.706
aVp1
p311
aS'utopia'
p312
aS'#000000'
p313
aF8.88595
aI0
aI01
aI01
aI00
aI00
aI00
aI00
aI00
aI00
aa(lp314
I234378
aF135.692
aF250.706
aVp1
p315
aS'utopia'
p316
aS'#000000'
p317
aF8.88595
aI0
aI01
aI00
aI00
aI00
aI00
aI00
aI00
aI00
aa(lp318
I123665
aF178.641
aF250.706
aVp1
p319
aS'utopia'
p320
aS'#000000'
p321
aF8.88595
aI0
aI01
aI00
aI00
aI00
aI00
aI00
aI00
aI00
aa(lp322
I234378
aF226.032
aF250.706
aVp1
p323
aS'utopia'
p324
aS'#000000'
p325
aF8.88595
aI0
aI01
aI00
aI00
aI00
aI00
aI00
aI00
aI00
aa(lp326
I234378
aF283.051
aF250.706
aVp1
p327
aS'utopia'
p328
aS'#000000'
p329
aF8.88595
aI0
aI00
aI00
aI00
aI00
aI00
aI00
aI00
aI00
aa(lp330
I20593
aF55.7183
aF261.073
aVp1
p331
aS'utopia'
p332
aS'#000000'
p333
aF8.88595
aI0
aI01
aI00
aI00
aI00
aI00
aI00
aI00
aI00
aa(lp334
I176435
aF55.7183
aF278.845
aVp1
p335
aS'utopia'
p336
aS'#878787'
p337
aF8.88595
aI0
aI01
aI00
aI00
aI00
aI00
aI00
aI00
aI00
aa(lp338
I234378
aF71.80542
aF278.845
ag335
aS'utopia'
p339
aS'#878787'
p340
aF8.88595
aI0
aI00
aI00
aI00
aI00
aI00
aI00
aI00
aI00
aa(lp341
I210461
aF80.1547
aF278.845
aVp1
p342
aS'utopia'
p343
aS'#000000'
p344
aF8.88595
aI0
aI01
aI00
aI00
aI00
aI00
aI00
aI00
aI00
aa(lp345
I175409
aF104.591
aF278.845
aVp1
p346
aS'utopia'
p347
aS'#000000'
p348
aF8.88595
aI0
aI01
aI00
aI00
aI00
aI00
aI00
aI00
aI00
aa(lp349
I234378
aF123.75304444444444
aF278.845
ag346
aS'utopia'
p350
aS'#000000'
p351
aF8.88595
aI0
aI00
aI00
aI00
aI00
aI00
aI00
aI00
aI00
aa(lp352
I2737
aF128.54355555555554
aF278.845
ag346
aS'utopia'
p353
aS'#000000'
p354
aF8.88595
aI0
aI01
aI00
aI00
aI00
aI00
aI00
aI00
aI00
aa(lp355
I175409
aF149.761
aF278.845
aVp1
p356
aS'utopia'
p357
aS'#000000'
p358
aF8.88595
aI0
aI01
aI00
aI00
aI00
aI00
aI00
aI00
aI00
aa(lp359
I74589
aF55.7183
aF296.616
aVp1
p360
aS'utopia'
p361
aS'#878787'
p362
aF8.88595
aI0
aI01
aI00
aI00
aI00
aI00
aI00
aI00
aI00
aa(lp363
I234378
aF87.41545555555555
aF296.616
ag360
aS'utopia'
p364
aS'#878787'
p365
aF8.88595
aI0
aI00
aI00
aI00
aI00
aI00
aI00
aI00
aI00
aa(lp366
I22476
aF95.7051
aF296.616
aVp1
p367
aS'utopia'
p368
aS'#000000'
p369
aF8.88595
aI0
aI01
aI01
aI00
aI00
aI00
aI00
aI00
aI00
aa(lp370
I234378
aF105.30374
aF296.616
ag367
aS'utopia'
p371
aS'#000000'
p372
aF8.88595
aI0
aI01
aI00
aI00
aI00
aI00
aI00
aI00
aI00
aa(lp373
I234378
aF139.69830000000002
aF296.616
ag367
aS'utopia'
p374
aS'#000000'
p375
aF8.88595
aI0
aI00
aI00
aI00
aI00
aI00
aI00
aI00
aI00
aa(lp376
I234378
aF134.99762
aF296.616
ag367
aS'utopia'
p377
aS'#000000'
p378
aF8.88595
aI0
aI01
aI00
aI00
aI00
aI00
aI00
aI00
aI00
aa(lp379
I234378
aF183.824
aF296.616
aVp1
p380
aS'utopia'
p381
aS'#000000'
p382
aF8.88595
aI0
aI01
aI00
aI00
aI00
aI00
aI00
aI00
aI00
aa(lp383
I231013
aF55.7183
aF314.388
aVp1
p384
aS'utopia'
p385
aS'#878787'
p386
aF8.88595
aI0
aI01
aI00
aI00
aI00
aI00
aI00
aI00
aI00
aa(lp387
I234378
aF72.7498
aF314.388
aVp1
p388
aS'utopia'
p389
aS'#878787'
p390
aF8.88595
aI0
aI01
aI00
aI00
aI00
aI00
aI00
aI00
aI00
aa(lp391
I234378
aF91.25542857142857
aF314.388
ag388
aS'utopia'
p392
aS'#878787'
p393
aF8.88595
aI0
aI00
aI00
aI00
aI00
aI00
aI00
aI00
aI00
aa(lp394
I234378
aF98.6671
aF314.388
aVp1
p395
aS'utopia'
p396
aS'#000000'
p397
aF8.88595
aI0
aI01
aI00
aI00
aI00
aI00
aI00
aI00
aI00
aa(lp398
I234378
aF135.42562
aF314.388
ag395
aS'utopia'
p399
aS'#000000'
p400
aF8.88595
aI0
aI00
aI00
aI00
aI00
aI00
aI00
aI00
aI00
aa(lp401
I21716
aF141.616
aF314.388
aVp1
p402
aS'utopia'
p403
aS'#000000'
p404
aF8.88595
aI0
aI01
aI00
aI00
aI00
aI00
aI00
aI00
aI00
aa(lp405
I234378
aF156.51832000000002
aF314.388
ag402
aS'utopia'
p406
aS'#000000'
p407
aF8.88595
aI0
aI00
aI00
aI00
aI00
aI00
aI00
aI00
aI00
aa(lp408
I234378
aF162.35
aF314.388
aVp1
p409
aS'utopia'
p410
aS'#000000'
p411
aF8.88595
aI0
aI01
aI00
aI01
aI00
aI00
aI00
aI00
aI00
aa(lp412
I234378
aF177.84472
aF314.388
ag409
aS'utopia'
p413
aS'#000000'
p414
aF8.88595
aI0
aI00
aI00
aI00
aI00
aI00
aI00
aI00
aI00
aa(lp415
I100973
aF183.824
aF314.388
aVp1
p416
aS'utopia'
p417
aS'#000000'
p418
aF8.88595
aI0
aI01
aI00
aI00
aI00
aI00
aI00
aI00
aI00
aa(lp419
I17350
aF213.444
aF314.388
aVp1
p420
aS'utopia'
p421
aS'#000000'
p422
aF8.88595
aI0
aI00
aI00
aI00
aI00
aI00
aI00
aI00
aI00
aa(lp423
I234378
aF231.956
aF314.388
aVp1
p424
aS'utopia'
p425
aS'#000000'
p426
aF8.88595
aI0
aI01
aI00
aI00
aI00
aI00
aI00
aI00
aI00
aa(lp427
I234378
aF262.3367111111111
aF314.388
ag424
aS'utopia'
p428
aS'#000000'
p429
aF8.88595
aI0
aI00
aI00
aI00
aI00
aI00
aI00
aI00
aI00
aa(lp430
I148996
aF268.241
aF314.388
aVp1
p431
aS'utopia'
p432
aS'#000000'
p433
aF8.88595
aI0
aI01
aI00
aI00
aI00
aI00
aI00
aI00
aI00
aa(lp434
I234378
aF291.8243428571428
aF314.388
ag431
aS'utopia'
p435
aS'#000000'
p436
aF8.88595
aI0
aI00
aI00
aI00
aI00
aI00
aI00
aI00
aI00
aa(lp437
I148996
aF55.7183
aF324.755
aVp1
p438
aS'utopia'
p439
aS'#000000'
p440
aF8.88595
aI0
aI01
aI00
aI00
aI00
aI00
aI00
aI00
aI00
aa(lp441
I234378
aF83.1167
aF324.755
aVp1
p442
aS'utopia'
p443
aS'#000000'
p444
aF8.88595
aI0
aI01
aI00
aI00
aI00
aI00
aI00
aI00
aI00
aa(lp445
I234378
aF97.643
aF324.755
ag442
aS'utopia'
p446
aS'#000000'
p447
aF8.88595
aI0
aI00
aI00
aI00
aI00
aI00
aI00
aI00
aI00
aa(lp448
I176767
aF104.591
aF324.755
aVp1
p449
aS'utopia'
p450
aS'#000000'
p451
aF8.88595
aI0
aI01
aI00
aI00
aI00
aI00
aI00
aI00
aI00
aa(lp452
I234378
aF142.68241999999998
aF324.755
ag449
aS'utopia'
p453
aS'#000000'
p454
aF8.88595
aI0
aI00
aI00
aI00
aI00
aI00
aI00
aI00
aI00
aa(lp455
I234378
aF149.021
aF324.755
aVp1
p456
aS'utopia'
p457
aS'#000000'
p458
aF8.88595
aI0
aI01
aI01
aI00
aI00
aI00
aI00
aI00
aI00
aa(lp459
I234378
aF161.3258
aF324.755
ag456
aS'utopia'
p460
aS'#000000'
p461
aF8.88595
aI0
aI00
aI00
aI00
aI00
aI00
aI00
aI00
aI00
aa(lp462
I234378
aF167.533
aF324.755
aVp1
p463
aS'utopia'
p464
aS'#000000'
p465
aF8.88595
aI0
aI01
aI00
aI00
aI00
aI00
aI00
aI00
aI00
aa(lp466
I234378
aF189.2122
aF324.755
ag463
aS'utopia'
p467
aS'#000000'
p468
aF8.88595
aI0
aI00
aI00
aI00
aI00
aI00
aI00
aI00
aI00
aa(lp469
I234378
aF194.932
aF324.755
aVp1
p470
aS'utopia'
p471
aS'#000000'
p472
aF8.88595
aI0
aI01
aI01
aI00
aI00
aI00
aI00
aI00
aI00
aa(lp473
I234378
aF217.53552
aF324.755
ag470
aS'utopia'
p474
aS'#000000'
p475
aF8.88595
aI0
aI00
aI00
aI00
aI00
aI00
aI00
aI00
aI00
aa(lp476
I234378
aF225.292
aF324.755
aVp1
p477
aS'utopia'
p478
aS'#000000'
p479
aF8.88595
aI0
aI01
aI00
aI00
aI00
aI00
aI00
aI00
aI00
aa(lp480
I234378
aF262.4218181818182
aF324.755
ag477
aS'utopia'
p481
aS'#000000'
p482
aF8.88595
aI0
aI00
aI00
aI00
aI00
aI00
aI00
aI00
aI00
aa(lp483
I166726
aF55.7183
aF335.122
aVp1
p484
aS'utopia'
p485
aS'#000000'
p486
aF8.88595
aI0
aI01
aI00
aI00
aI00
aI00
aI00
aI00
aI00
aa(lp487
I234378
aF103.11
aF335.122
aVp1
p488
aS'utopia'
p489
aS'#000000'
p490
aF8.88595
aI0
aI01
aI00
aI00
aI00
aI00
aI00
aI00
aI00
aa(lp491
I51933
aF40.1679
aF372.165
aVp1
p492
aS'utopia'
p493
aS'#02304b'
p494
aF11.8479
aI1
aI01
aI00
aI00
aI00
aI00
aI00
aI00
aI00
aa(lp495
I60220
aF72.0093
aF372.165
aVp1
p496
aS'utopia'
p497
aS'#02304b'
p498
aF11.8479
aI1
aI01
aI00
aI00
aI00
aI00
aI00
aI00
aI00
aa(lp499
I234378
aF40.9084
aF403.882
aVp1
p500
aS'utopia'
p501
aS'#000000'
p502
aF10.3669
aI1
aI01
aI00
aI00
aI00
aI00
aI00
aI00
aI00
aa(lp503
I234378
aF72.7498
aF404.151
aVp1
p504
aS'utopia'
p505
aS'#656565'
p506
aF10.3669
aI0
aI00
aI00
aI00
aI00
aI00
aI00
aI00
aI00
aa(lp507
I15548
aF77.72722499999999
aF404.151
ag504
aS'utopia'
p508
aS'#656565'
p509
aF10.3669
aI0
aI01
aI00
aI00
aI00
aI00
aI00
aI00
aI00
aa(lp510
I70289
aF114.958
aF404.151
aVp1
p511
aS'utopia'
p512
aS'#656565'
p513
aF10.3669
aI0
aI01
aI00
aI00
aI00
aI00
aI00
aI00
aI00
aa(lp514
I234378
aF158.30697777777777
aF404.151
ag511
aS'utopia'
p515
aS'#656565'
p516
aF10.3669
aI0
aI00
aI00
aI00
aI00
aI00
aI00
aI00
aI00
aa(lp517
I234378
aF40.9084
aF420.442
aVp1
p518
aS'utopia'
p519
aS'#656565'
p520
aF10.3669
aI0
aI01
aI00
aI00
aI00
aI00
aI00
aI00
aI00
aa(lp521
I132100
aF83.8572
aF420.442
aVp1
p522
aS'utopia'
p523
aS'#656565'
p524
aF10.3669
aI0
aI01
aI00
aI00
aI00
aI00
aI00
aI00
aI00
aa(lp525
I169745
aF127.546
aF420.442
aVp1
p526
aS'utopia'
p527
aS'#656565'
p528
aF10.3669
aI0
aI00
aI00
aI00
aI00
aI00
aI00
aI00
aI00
aa(lp529
I183471
aF151.242
aF420.442
aVp1
p530
aS'utopia'
p531
aS'#656565'
p532
aF10.3669
aI0
aI00
aI00
aI00
aI00
aI00
aI00
aI00
aI00
aa(lp533
I234378
aF180.122
aF420.442
aVp1
p534
aS'utopia'
p535
aS'#656565'
p536
aF10.3669
aI0
aI00
aI00
aI00
aI00
aI00
aI00
aI00
aI00
aa(lp537
I144489
aF206.039
aF420.442
aVp1
p538
aS'utopia'
p539
aS'#656565'
p540
aF10.3669
aI0
aI00
aI00
aI00
aI00
aI00
aI00
aI00
aI00
aa(lp541
I60220
aF217.146
aF420.442
aVp1
p542
aS'utopia'
p543
aS'#656565'
p544
aF10.3669
aI0
aI00
aI00
aI00
aI00
aI00
aI00
aI00
aI00
aa(lp545
I234378
aF274.905
aF420.442
aVp1
p546
aS'utopia'
p547
aS'#656565'
p548
aF10.3669
aI0
aI01
aI00
aI00
aI00
aI00
aI00
aI00
aI01
aa(lp549
I234378
aF294.158
aF420.442
aVp1
p550
aS'utopia'
p551
aS'#656565'
p552
aF10.3669
aI0
aI00
aI00
aI01
aI01
aI01
aI00
aI00
aI00
aa(lp553
I21716
aF40.9084
aF440.273
aVp1
p554
aS'utopia'
p555
aS'#656565'
p556
aF8.88595
aI0
aI01
aI00
aI00
aI00
aI00
aI00
aI00
aI00
aa(lp557
I234378
aF56.35692
aF440.273
ag554
aS'utopia'
p558
aS'#656565'
p559
aF8.88595
aI0
aI00
aI00
aI00
aI00
aI00
aI00
aI00
aI00
aa(lp560
I234378
aF60.21905
aF440.273
ag554
aS'utopia'
p561
aS'#656565'
p562
aF8.88595
aI0
aI01
aI01
aI01
aI00
aI00
aI00
aI00
aI00
aa(lp563
I234378
aF70.66757
aF440.273
ag554
aS'utopia'
p564
aS'#656565'
p565
aF8.88595
aI0
aI00
aI00
aI00
aI00
aI00
aI00
aI00
aI00
aa(lp566
I234378
aF81.6357
aF440.273
aVp1
p567
aS'utopia'
p568
aS'#656565'
p569
aF8.88595
aI0
aI01
aI00
aI00
aI00
aI00
aI00
aI00
aI00
aa(lp570
I100815
aF120.882
aF440.273
aVp1
p571
aS'utopia'
p572
aS'#656565'
p573
aF8.88595
aI0
aI00
aI00
aI00
aI00
aI00
aI00
aI00
aI00
aa(lp574
I48671
aF40.9084
aF450.64
aVp1
p575
aS'utopia'
p576
aS'#656565'
p577
aF8.88595
aI0
aI01
aI00
aI00
aI00
aI00
aI00
aI00
aI00
aa(lp578
I129688
aF69.0473
aF450.64
aVp1
p579
aS'utopia'
p580
aS'#656565'
p581
aF8.88595
aI0
aI01
aI00
aI00
aI00
aI00
aI00
aI00
aI00
aa(lp582
I234378
aF97.1861
aF450.64
aVp1
p583
aS'utopia'
p584
aS'#656565'
p585
aF8.88595
aI0
aI00
aI00
aI00
aI00
aI00
aI00
aI00
aI00
aa(lp586
I234378
aF101.629
aF450.64
aVp1
p587
aS'utopia'
p588
aS'#656565'
p589
aF8.88595
aI0
aI00
aI00
aI01
aI01
aI00
aI00
aI00
aI00
aa(lp590
I234378
aF108.294
aF450.64
aVp1
p591
aS'utopia'
p592
aS'#656565'
p593
aF8.88595
aI0
aI01
aI00
aI00
aI00
aI00
aI00
aI00
aI00
aa(lp594
I29852
aF40.9084
aF483.855
aVp1
p595
aS'utopia'
p596
aS'#000000'
p597
aF10.3669
aI1
aI01
aI00
aI00
aI00
aI00
aI00
aI00
aI00
aa(lp598
I11208
aF40.9084
aF500.416
aVp1
p599
aS'utopia'
p600
aS'#656565'
p601
aF10.3669
aI0
aI01
aI00
aI00
aI00
aI00
aI00
aI00
aI00
aa(lp602
I89147
aF86.8192
aF500.416
aVp1
p603
aS'utopia'
p604
aS'#656565'
p605
aF10.3669
aI0
aI01
aI00
aI00
aI00
aI00
aI00
aI00
aI00
aa(lp606
I27216
aF146.059
aF500.416
aVp1
p607
aS'utopia'
p608
aS'#656565'
p609
aF10.3669
aI0
aI01
aI00
aI00
aI00
aI00
aI00
aI00
aI01
aa(lp610
I234378
aF164.571
aF500.416
aVp1
p611
aS'utopia'
p612
aS'#656565'
p613
aF10.3669
aI0
aI00
aI00
aI01
aI01
aI01
aI00
aI00
aI00
aa(lp614
I89480
aF187.527
aF500.416
aVp1
p615
aS'utopia'
p616
aS'#656565'
p617
aF10.3669
aI0
aI01
aI00
aI00
aI00
aI00
aI00
aI00
aI00
aa(lp618
I234378
aF202.337
aF500.416
aVp1
p619
aS'utopia'
p620
aS'#656565'
p621
aF10.3669
aI0
aI01
aI00
aI00
aI00
aI00
aI00
aI00
aI01
aa(lp622
I234378
aF223.811
aF500.416
aVp1
p623
aS'utopia'
p624
aS'#656565'
p625
aF10.3669
aI0
aI00
aI00
aI01
aI01
aI01
aI00
aI00
aI00
aa(lp626
I146047
aF40.9084
aF543.095
aVp1
p627
aS'utopia'
p628
aS'#000000'
p629
aF10.3669
aI1
aI00
aI00
aI00
aI00
aI00
aI00
aI00
aI00
aa(lp630
I85218
aF71.2688
aF543.095
aVp1
p631
aS'utopia'
p632
aS'#000000'
p633
aF10.3669
aI1
aI00
aI00
aI00
aI00
aI00
aI00
aI00
aI00
aa(lp634
I234378
aF92.0026
aF543.095
aVp1
p635
aS'utopia'
p636
aS'#000000'
p637
aF10.3669
aI1
aI00
aI00
aI00
aI00
aI00
aI00
aI00
aI00
aa(lp638
I234378
aF40.9084
aF559.655
aVp1
p639
aS'utopia'
p640
aS'#656565'
p641
aF10.3669
aI0
aI01
aI00
aI00
aI00
aI00
aI00
aI00
aI00
aa(lp642
I132100
aF83.8572
aF559.655
aVp1
p643
aS'utopia'
p644
aS'#656565'
p645
aF10.3669
aI0
aI01
aI00
aI00
aI00
aI00
aI00
aI00
aI00
aa(lp646
I234378
aF131.989
aF559.655
aVp1
p647
aS'utopia'
p648
aS'#656565'
p649
aF10.3669
aI0
aI01
aI00
aI00
aI00
aI00
aI00
aI00
aI01
aa(lp650
I234378
aF151.242
aF559.655
aVp1
p651
aS'utopia'
p652
aS'#656565'
p653
aF10.3669
aI0
aI00
aI00
aI01
aI01
aI01
aI00
aI00
aI00
aa(lp654
I89480
aF174.198
aF559.655
aVp1
p655
aS'utopia'
p656
aS'#656565'
p657
aF10.3669
aI0
aI01
aI00
aI00
aI00
aI00
aI00
aI00
aI00
aa(lp658
I234378
aF189.008
aF559.655
aVp1
p659
aS'utopia'
p660
aS'#656565'
p661
aF10.3669
aI0
aI01
aI00
aI00
aI00
aI00
aI00
aI00
aI01
aa(lp662
I234378
aF208.26
aF559.655
aVp1
p663
aS'utopia'
p664
aS'#656565'
p665
aF10.3669
aI0
aI00
aI00
aI01
aI01
aI01
aI00
aI00
aI00
aa(lp666
I124531
aF40.1679
aF604.681
aVp1
p667
aS'utopia'
p668
aS'#02304b'
p669
aF11.8479
aI1
aI01
aI00
aI00
aI00
aI00
aI00
aI00
aI00
aa(lp670
I234378
aF40.9084
aF632.964
aVp1
p671
aS'utopia'
p672
aS'#656565'
p673
aF10.3669
aI0
aI01
aI00
aI00
aI00
aI00
aI00
aI00
aI00
aa(lp674
I234378
aF117.18
aF632.964
aVp1
p675
aS'utopia'
p676
aS'#656565'
p677
aF10.3669
aI0
aI00
aI00
aI00
aI00
aI00
aI00
aI00
aI00
aa(lp678
I60201
aF123.103
aF632.964
aVp1
p679
aS'utopia'
p680
aS'#656565'
p681
aF10.3669
aI0
aI01
aI00
aI00
aI00
aI00
aI00
aI00
aI00
aa(lp682
I230071
aF143.097
aF632.964
aVp1
p683
aS'utopia'
p684
aS'#656565'
p685
aF10.3669
aI0
aI01
aI00
aI00
aI00
aI00
aI00
aI00
aI00
aa(lp686
I234378
aF169.755
aF632.964
aVp1
p687
aS'utopia'
p688
aS'#656565'
p689
aF10.3669
aI0
aI00
aI00
aI00
aI00
aI00
aI00
aI00
aI00
aa(lp690
I27780
aF40.9084
aF648.986
aVp1
p691
aS'utopia'
p692
aS'#000000'
p693
aF10.3669
aI1
aI01
aI01
aI00
aI00
aI00
aI00
aI00
aI00
aa(lp694
I234378
aF46.15191818181818
aF648.986
ag691
aS'utopia'
p695
aS'#000000'
p696
aF10.3669
aI1
aI00
aI00
aI00
aI00
aI00
aI00
aI00
aI00
aa(lp697
I2737
aF51.395436363636364
aF648.986
ag691
aS'utopia'
p698
aS'#000000'
p699
aF10.3669
aI1
aI01
aI00
aI00
aI00
aI00
aI00
aI00
aI00
aa(lp700
I234378
aF72.36950909090909
aF648.986
ag691
aS'utopia'
p701
aS'#000000'
p702
aF10.3669
aI1
aI00
aI00
aI00
aI00
aI00
aI00
aI00
aI00
aa(lp703
I27780
aF70.61302727272727
aF648.986
ag691
aS'utopia'
p704
aS'#000000'
p705
aF10.3669
aI1
aI01
aI01
aI00
aI00
aI00
aI00
aI00
aI00
aa(lp706
I234378
aF75.85654545454545
aF648.986
ag691
aS'utopia'
p707
aS'#000000'
p708
aF10.3669
aI1
aI00
aI00
aI00
aI00
aI00
aI00
aI00
aI00
aa(lp709
I64620
aF88.10006363636364
aF648.986
ag691
aS'utopia'
p710
aS'#000000'
p711
aF10.3669
aI1
aI01
aI01
aI00
aI00
aI00
aI00
aI00
aI00
aa(lp712
I234378
aF84.34358181818183
aF648.986
ag691
aS'utopia'
p713
aS'#000000'
p714
aF10.3669
aI1
aI00
aI00
aI00
aI00
aI00
aI00
aI00
aI00
aa(lp715
I234378
aF100.889
aF648.986
aVp1
p716
aS'utopia'
p717
aS'#000000'
p718
aF10.3669
aI1
aI00
aI00
aI00
aI00
aI00
aI00
aI00
aI00
aa(lp719
I234378
aF106.48095454545454
aF648.986
ag716
aS'utopia'
p720
aS'#000000'
p721
aF10.3669
aI1
aI01
aI00
aI00
aI00
aI00
aI00
aI00
aI00
aa(lp722
I234378
aF156.80854545454542
aF648.986
ag716
aS'utopia'
p723
aS'#000000'
p724
aF10.3669
aI1
aI00
aI00
aI00
aI00
aI00
aI00
aI00
aI00
aa(lp725
I234378
aF40.9084
aF669.249
aVp1
p726
aS'utopia'
p727
aS'#656565'
p728
aF10.3669
aI0
aI01
aI01
aI00
aI00
aI00
aI00
aI00
aI00
aa(lp729
I51981
aF120.141
aF669.249
aVp1
p730
aS'utopia'
p731
aS'#656565'
p732
aF10.3669
aI0
aI01
aI01
aI00
aI00
aI00
aI00
aI00
aI00
aa(lp733
I144489
aF177.9
aF669.249
aVp1
p734
aS'utopia'
p735
aS'#656565'
p736
aF10.3669
aI0
aI01
aI01
aI00
aI00
aI00
aI00
aI00
aI00
aa(lp737
I43052
aF194.191
aF669.249
aVp1
p738
aS'utopia'
p739
aS'#656565'
p740
aF10.3669
aI0
aI01
aI01
aI00
aI00
aI00
aI00
aI00
aI00
aa(lp741
I135639
aF272.684
aF669.249
aVp1
p742
aS'utopia'
p743
aS'#656565'
p744
aF10.3669
aI0
aI00
aI00
aI00
aI00
aI00
aI00
aI00
aI00
aa(lp745
I234378
aF284.532
aF669.249
aVp1
p746
aS'utopia'
p747
aS'#656565'
p748
aF10.3669
aI0
aI00
aI00
aI01
aI01
aI01
aI00
aI00
aI00
aa(lp749
I22476
aF40.1679
aF703.166
aVp1
p750
aS'utopia'
p751
aS'#02304b'
p752
aF11.8479
aI1
aI01
aI01
aI00
aI00
aI00
aI00
aI00
aI00
aa(lp753
I234378
aF54.2374
aF703.166
aVp1
p754
aS'utopia'
p755
aS'#02304b'
p756
aF11.8479
aI1
aI01
aI00
aI00
aI00
aI00
aI00
aI00
aI00
aa(lp757
I109610
aF48.3134
aF731.056
aVp1
p758
aS'utopia'
p759
aS'#000000'
p760
aF8.88595
aI1
aI01
aI00
aI00
aI00
aI00
aI00
aI00
aI00
aa(lp761
I158577
aF69.7878
aF731.056
aVp1
p762
aS'utopia'
p763
aS'#000000'
p764
aF8.88595
aI1
aI01
aI00
aI00
aI00
aI00
aI00
aI00
aI00
aa(lp765
I194179
aF188.267
aF731.056
aVp1
p766
aS'utopia'
p767
aS'#000000'
p768
aF8.88595
aI1
aI01
aI00
aI00
aI00
aI00
aI00
aI00
aI00
aa(lp769
I177981
aF305.265
aF731.056
aVp1
p770
aS'utopia'
p771
aS'#000000'
p772
aF8.88595
aI1
aI01
aI00
aI00
aI00
aI00
aI00
aI00
aI00
aa(lp773
I25729
aF324.518
aF731.056
aVp1
p774
aS'utopia'
p775
aS'#000000'
p776
aF8.88595
aI1
aI01
aI00
aI00
aI00
aI00
aI00
aI00
aI00
aa(lp777
I60220
aF412.637
aF731.056
aVp1
p778
aS'utopia'
p779
aS'#000000'
p780
aF8.88595
aI1
aI01
aI00
aI00
aI00
aI00
aI00
aI00
aI00
aa(lp781
I21716
aF48.3134
aF749.8
aVp1
p782
aS'utopia'
p783
aS'#656565'
p784
aF8.88595
aI0
aI01
aI01
aI00
aI00
aI00
aI00
aI00
aI00
aa(lp785
I234378
aF188.267
aF749.8
aVp1
p786
aS'utopia'
p787
aS'#656565'
p788
aF8.88595
aI0
aI00
aI00
aI01
aI01
aI00
aI00
aI00
aI00
aa(lp789
I234378
aF192.0465
aF749.8
ag786
aS'utopia'
p790
aS'#656565'
p791
aF8.88595
aI0
aI00
aI00
aI00
aI00
aI00
aI00
aI00
aI00
aa(lp792
I234378
aF195.82600000000002
aF749.8
ag786
aS'utopia'
p793
aS'#656565'
p794
aF8.88595
aI0
aI00
aI00
aI01
aI01
aI00
aI00
aI00
aI00
aa(lp795
I234378
aF317.113
aF749.8
aVp1
p796
aS'utopia'
p797
aS'#656565'
p798
aF8.88595
aI0
aI00
aI00
aI01
aI01
aI01
aI00
aI00
aI00
aa(lp799
I234378
aF422.264
aF749.8
aVp1
p800
aS'utopia'
p801
aS'#656565'
p802
aF8.88595
aI0
aI00
aI00
aI01
aI01
aI00
aI00
aI00
aI00
aa(lp803
I234378
aF428.928
aF749.8
aVp1
p804
aS'utopia'
p805
aS'#656565'
p806
aF8.88595
aI0
aI01
aI00
aI00
aI00
aI00
aI00
aI00
aI00
aa(lp807
I234378
aF48.3134
aF768.312
aVp1
p808
aS'utopia'
p809
aS'#656565'
p810
aF8.88595
aI0
aI01
aI01
aI01
aI00
aI00
aI00
aI00
aI00
aa(lp811
I234378
aF317.113
aF768.312
aVp1
p812
aS'utopia'
p813
aS'#656565'
p814
aF8.88595
aI0
aI00
aI00
aI01
aI01
aI01
aI00
aI00
aI00
aa(lp815
I234378
aF422.264
aF768.312
aVp1
p816
aS'utopia'
p817
aS'#656565'
p818
aF8.88595
aI0
aI00
aI00
aI01
aI01
aI00
aI00
aI00
aI00
aa(lp819
I234378
aF428.928
aF768.312
aVp1
p820
aS'utopia'
p821
aS'#656565'
p822
aF8.88595
aI0
aI01
aI00
aI00
aI00
aI00
aI00
aI00
aI00
aa(lp823
I234378
aF48.3134
aF786.825
aVp1
p824
aS'utopia'
p825
aS'#656565'
p826
aF8.88595
aI0
aI01
aI00
aI00
aI00
aI00
aI00
aI00
aI00
aa(lp827
I234378
aF188.267
aF786.825
aVp1
p828
aS'utopia'
p829
aS'#656565'
p830
aF8.88595
aI0
aI00
aI00
aI01
aI01
aI00
aI00
aI00
aI00
aa(lp831
I234378
aF192.32196666666667
aF786.825
ag828
aS'utopia'
p832
aS'#656565'
p833
aF8.88595
aI0
aI00
aI00
aI00
aI00
aI00
aI00
aI00
aI00
aa(lp834
I225568
aF196.37693333333334
aF786.825
ag828
aS'utopia'
p835
aS'#656565'
p836
aF8.88595
aI0
aI01
aI01
aI00
aI00
aI00
aI00
aI00
aI00
aa(lp837
I234378
aF317.113
aF786.825
aVp1
p838
aS'utopia'
p839
aS'#656565'
p840
aF8.88595
aI0
aI00
aI00
aI01
aI01
aI01
aI00
aI00
aI00
aa(lp841
I234378
aF422.264
aF786.825
aVp1
p842
aS'utopia'
p843
aS'#656565'
p844
aF8.88595
aI0
aI00
aI00
aI01
aI01
aI00
aI00
aI00
aI00
aa(lp845
I234378
aF428.928
aF786.825
aVp1
p846
aS'utopia'
p847
aS'#656565'
p848
aF8.88595
aI0
aI01
aI00
aI00
aI00
aI00
aI00
aI00
aI00
aa(lp849
I234378
aF48.3134
aF28.557
aVp2
p850
aS'utopia'
p851
aS'#656565'
p852
aF8.88595
aI0
aI01
aI01
aI00
aI00
aI00
aI00
aI00
aI00
aa(lp853
I234378
aF188.267
aF28.557
aVp2
p854
aS'utopia'
p855
aS'#656565'
p856
aF8.88595
aI0
aI00
aI00
aI01
aI01
aI00
aI00
aI00
aI00
aa(lp857
I234378
aF192.32196666666667
aF28.557
ag854
aS'utopia'
p858
aS'#656565'
p859
aF8.88595
aI0
aI00
aI00
aI00
aI00
aI00
aI00
aI00
aI00
aa(lp860
I225568
aF196.37693333333334
aF28.557
ag854
aS'utopia'
p861
aS'#656565'
p862
aF8.88595
aI0
aI01
aI01
aI00
aI00
aI00
aI00
aI00
aI00
aa(lp863
I234378
aF317.113
aF28.557
aVp2
p864
aS'utopia'
p865
aS'#656565'
p866
aF8.88595
aI0
aI00
aI00
aI01
aI01
aI01
aI00
aI00
aI00
aa(lp867
I234378
aF424.485
aF28.557
aVp2
p868
aS'utopia'
p869
aS'#656565'
p870
aF8.88595
aI0
aI00
aI00
aI01
aI01
aI00
aI00
aI00
aI00
aa(lp871
I91136
aF431.15
aF28.557
aVp2
p872
aS'utopia'
p873
aS'#656565'
p874
aF8.88595
aI0
aI01
aI00
aI00
aI00
aI00
aI00
aI00
aI00
aa(lp875
I176767
aF48.3134
aF47.0694
aVp2
p876
aS'utopia'
p877
aS'#656565'
p878
aF8.88595
aI0
aI01
aI00
aI00
aI00
aI00
aI00
aI00
aI00
aa(lp879
I234378
aF188.267
aF47.0694
aVp2
p880
aS'utopia'
p881
aS'#656565'
p882
aF8.88595
aI0
aI00
aI00
aI01
aI01
aI00
aI00
aI00
aI00
aa(lp883
I234378
aF192.32196666666667
aF47.0694
ag880
aS'utopia'
p884
aS'#656565'
p885
aF8.88595
aI0
aI00
aI00
aI00
aI00
aI00
aI00
aI00
aI00
aa(lp886
I225568
aF196.37693333333334
aF47.0694
ag880
aS'utopia'
p887
aS'#656565'
p888
aF8.88595
aI0
aI01
aI01
aI00
aI00
aI00
aI00
aI00
aI00
aa(lp889
I234378
aF317.113
aF47.0694
aVp2
p890
aS'utopia'
p891
aS'#656565'
p892
aF8.88595
aI0
aI00
aI00
aI01
aI01
aI01
aI00
aI00
aI00
aa(lp893
I234378
aF422.264
aF47.0694
aVp2
p894
aS'utopia'
p895
aS'#656565'
p896
aF8.88595
aI0
aI00
aI00
aI01
aI01
aI00
aI00
aI00
aI00
aa(lp897
I234378
aF428.928
aF47.0694
aVp2
p898
aS'utopia'
p899
aS'#656565'
p900
aF8.88595
aI0
aI01
aI00
aI00
aI00
aI00
aI00
aI00
aI00
aa(lp901
I234378
aF48.3134
aF65.5818
aVp2
p902
aS'utopia'
p903
aS'#656565'
p904
aF8.88595
aI0
aI01
aI00
aI00
aI00
aI00
aI00
aI00
aI00
aa(lp905
I234378
aF317.113
aF65.5818
aVp2
p906
aS'utopia'
p907
aS'#656565'
p908
aF8.88595
aI0
aI00
aI00
aI01
aI01
aI01
aI00
aI00
aI00
aa(lp909
I234378
aF422.264
aF65.5818
aVp2
p910
aS'utopia'
p911
aS'#656565'
p912
aF8.88595
aI0
aI00
aI00
aI01
aI01
aI00
aI00
aI00
aI00
aa(lp913
I234378
aF428.928
aF65.5818
aVp2
p914
aS'utopia'
p915
aS'#656565'
p916
aF8.88595
aI0
aI01
aI00
aI00
aI00
aI00
aI00
aI00
aI00
aa(lp917
I234378
aF48.3134
aF84.0941
aVp2
p918
aS'utopia'
p919
aS'#656565'
p920
aF8.88595
aI0
aI01
aI01
aI00
aI00
aI00
aI00
aI00
aI00
aa(lp921
I234378
aF188.267
aF84.0941
aVp2
p922
aS'utopia'
p923
aS'#656565'
p924
aF8.88595
aI0
aI00
aI00
aI01
aI01
aI00
aI00
aI00
aI00
aa(lp925
I234378
aF191.91616666666667
aF84.0941
ag922
aS'utopia'
p926
aS'#656565'
p927
aF8.88595
aI0
aI00
aI00
aI00
aI00
aI00
aI00
aI00
aI00
aa(lp928
I225568
aF195.56533333333334
aF84.0941
ag922
aS'utopia'
p929
aS'#656565'
p930
aF8.88595
aI0
aI00
aI00
aI00
aI00
aI00
aI00
aI00
aI00
aa(lp931
I234378
aF317.113
aF84.0941
aVp2
p932
aS'utopia'
p933
aS'#656565'
p934
aF8.88595
aI0
aI00
aI00
aI01
aI01
aI01
aI00
aI00
aI00
aa(lp935
I234378
aF422.264
aF84.0941
aVp2
p936
aS'utopia'
p937
aS'#656565'
p938
aF8.88595
aI0
aI00
aI00
aI01
aI01
aI00
aI00
aI00
aI00
aa(lp939
I234378
aF428.928
aF84.0941
aVp2
p940
aS'utopia'
p941
aS'#656565'
p942
aF8.88595
aI0
aI01
aI00
aI00
aI00
aI00
aI00
aI00
aI00
aa(lp943
I195166
aF40.1679
aF134.466
aVp2
p944
aS'utopia'
p945
aS'#02304b'
p946
aF11.8479
aI1
aI01
aI00
aI00
aI00
aI00
aI00
aI00
aI00
aa(lp947
I136346
aF96.4456
aF134.466
aVp2
p948
aS'utopia'
p949
aS'#02304b'
p950
aF11.8479
aI1
aI01
aI00
aI00
aI00
aI00
aI00
aI00
aI00
aa(lp951
I195166
aF48.3134
aF162.356
aVp2
p952
aS'utopia'
p953
aS'#000000'
p954
aF8.88595
aI1
aI01
aI00
aI00
aI00
aI00
aI00
aI00
aI00
aa(lp955
I164378
aF177.16
aF162.356
aVp2
p956
aS'utopia'
p957
aS'#000000'
p958
aF8.88595
aI1
aI01
aI00
aI00
aI00
aI00
aI00
aI00
aI00
aa(lp959
I175077
aF296.379
aF162.356
aVp2
p960
aS'utopia'
p961
aS'#000000'
p962
aF8.88595
aI1
aI01
aI00
aI00
aI00
aI00
aI00
aI00
aI00
aa(lp963
I224291
aF397.087
aF162.356
aVp2
p964
aS'utopia'
p965
aS'#000000'
p966
aF8.88595
aI1
aI01
aI00
aI00
aI00
aI00
aI00
aI00
aI00
aa(lp967
I165206
aF497.054
aF162.356
aVp2
p968
aS'utopia'
p969
aS'#000000'
p970
aF8.88595
aI1
aI01
aI00
aI00
aI00
aI00
aI00
aI00
aI00
aa(lp971
I58002
aF48.3134
aF181.099
aVp2
p972
aS'utopia'
p973
aS'#656565'
p974
aF8.88595
aI0
aI01
aI00
aI00
aI00
aI00
aI00
aI00
aI00
aa(lp975
I185159
aF177.16
aF181.099
aVp2
p976
aS'utopia'
p977
aS'#656565'
p978
aF8.88595
aI0
aI01
aI00
aI00
aI00
aI00
aI00
aI00
aI00
aa(lp979
I144532
aF48.3134
aF199.611
aVp2
p980
aS'utopia'
p981
aS'#656565'
p982
aF8.88595
aI0
aI01
aI00
aI00
aI00
aI00
aI00
aI00
aI00
aa(lp983
I185159
aF177.16
aF199.611
aVp2
p984
aS'utopia'
p985
aS'#656565'
p986
aF8.88595
aI0
aI01
aI00
aI00
aI00
aI00
aI00
aI00
aI00
aa(lp987
I234378
aF40.1679
aF231.471
aVp2
p988
aS'utopia'
p989
aS'#02304b'
p990
aF11.8479
aI1
aI01
aI00
aI00
aI00
aI00
aI00
aI00
aI00
aa(lp991
I201816
aF40.9084
aF263.294
aVp2
p992
aS'utopia'
p993
aS'#000000'
p994
aF8.88595
aI0
aI01
aI00
aI00
aI00
aI00
aI00
aI00
aI00
aa(lp995
I234378
aF54.9779
aF263.294
aVp2
p996
aS'utopia'
p997
aS'#000000'
p998
aF8.88595
aI0
aI01
aI00
aI00
aI00
aI00
aI00
aI00
aI00
aa(lp999
I86196
aF89.0407
aF263.294
aVp2
p1000
aS'utopia'
p1001
aS'#000000'
p1002
aF8.88595
aI0
aI01
aI00
aI00
aI00
aI00
aI00
aI00
aI00
aa(lp1003
I177271
aF40.1679
aF302.558
aVp2
p1004
aS'utopia'
p1005
aS'#02304b'
p1006
aF11.8479
aI1
aI01
aI00
aI00
aI00
aI00
aI00
aI00
aI00
aa(lp1007
I234378
aF74.2307
aF302.558
aVp2
p1008
aS'utopia'
p1009
aS'#02304b'
p1010
aF11.8479
aI1
aI01
aI00
aI00
aI00
aI00
aI00
aI00
aI00
aa(lp1011
I7520
aF49.0539
aF326.87
aVp2
p1012
aS'utopia'
p1013
aS'#656565'
p1014
aF10.3669
aI1
aI01
aI00
aI00
aI00
aI00
aI00
aI00
aI00
aa(lp1015
I10865
aF93.4836
aF326.87
aVp2
p1016
aS'utopia'
p1017
aS'#656565'
p1018
aF10.3669
aI1
aI01
aI00
aI00
aI00
aI00
aI00
aI00
aI00
aa(lp1019
I132955
aF49.0539
aF342.527
aVp2
p1020
aS'utopia'
p1021
aS'#656565'
p1022
aF8.88595
aI0
aI01
aI00
aI00
aI00
aI00
aI00
aI00
aI00
aa(lp1023
I144489
aF69.7878
aF342.527
aVp2
p1024
aS'utopia'
p1025
aS'#656565'
p1026
aF8.88595
aI0
aI00
aI00
aI00
aI00
aI00
aI00
aI00
aI00
aa(lp1027
I132529
aF80.1547
aF342.527
aVp2
p1028
aS'utopia'
p1029
aS'#656565'
p1030
aF8.88595
aI0
aI01
aI00
aI00
aI00
aI00
aI00
aI00
aI00
aa(lp1031
I234378
aF98.76336666666667
aF342.527
ag1028
aS'utopia'
p1032
aS'#656565'
p1033
aF8.88595
aI0
aI00
aI00
aI00
aI00
aI00
aI00
aI00
aI00
aa(lp1034
I234378
aF104.591
aF342.527
aVp2
p1035
aS'utopia'
p1036
aS'#434343'
p1037
aF8.88595
aI0
aI00
aI00
aI01
aI01
aI01
aI00
aI00
aI00
aa(lp1038
I234378
aF115.699
aF342.527
aVp2
p1039
aS'utopia'
p1040
aS'#434343'
p1041
aF8.88595
aI0
aI01
aI00
aI00
aI00
aI00
aI00
aI00
aI01
aa(lp1042
I234378
aF132.73
aF342.527
aVp2
p1043
aS'utopia'
p1044
aS'#434343'
p1045
aF8.88595
aI0
aI00
aI00
aI01
aI01
aI01
aI00
aI00
aI00
aa(lp1046
I86794
aF391.903
aF330.573
aVp2
p1047
aS'utopia'
p1048
aS'#656565'
p1049
aF10.3669
aI1
aI01
aI00
aI00
aI00
aI00
aI00
aI00
aI00
aa(lp1050
I131455
aF430.409
aF330.573
aVp2
p1051
aS'utopia'
p1052
aS'#656565'
p1053
aF10.3669
aI1
aI01
aI00
aI00
aI00
aI00
aI00
aI00
aI00
aa(lp1054
I234378
aF448.181
aF330.573
aVp2
p1055
aS'utopia'
p1056
aS'#656565'
p1057
aF10.3669
aI1
aI01
aI00
aI00
aI00
aI00
aI00
aI00
aI00
aa(lp1058
I131455
aF391.903
aF346.23
aVp2
p1059
aS'utopia'
p1060
aS'#656565'
p1061
aF8.88595
aI0
aI01
aI00
aI00
aI00
aI00
aI00
aI00
aI00
aa(lp1062
I197416
aF407.454
aF346.23
aVp2
p1063
aS'utopia'
p1064
aS'#656565'
p1065
aF8.88595
aI0
aI01
aI00
aI00
aI00
aI00
aI00
aI00
aI00
aa(lp1066
I234378
aF424.72592000000003
aF346.23
ag1063
aS'utopia'
p1067
aS'#656565'
p1068
aF8.88595
aI0
aI00
aI00
aI00
aI00
aI00
aI00
aI00
aI00
aa(lp1069
I28425
aF431.15
aF346.23
aVp2
p1070
aS'utopia'
p1071
aS'#434343'
p1072
aF8.88595
aI0
aI01
aI00
aI00
aI00
aI00
aI00
aI00
aI00
aa(lp1073
I108944
aF49.0539
aF358.078
aVp2
p1074
aS'utopia'
p1075
aS'#656565'
p1076
aF8.88595
aI0
aI01
aI00
aI00
aI00
aI00
aI00
aI00
aI00
aa(lp1077
I234378
aF76.44544285714287
aF358.078
ag1074
aS'utopia'
p1078
aS'#656565'
p1079
aF8.88595
aI0
aI00
aI00
aI00
aI00
aI00
aI00
aI00
aI00
aa(lp1080
I104428
aF83.1167
aF358.078
aVp2
p1081
aS'utopia'
p1082
aS'#434343'
p1083
aF8.88595
aI0
aI01
aI00
aI00
aI00
aI00
aI00
aI00
aI00
aa(lp1084
I72722
aF391.903
aF361.78
aVp2
p1085
aS'utopia'
p1086
aS'#656565'
p1087
aF8.88595
aI0
aI01
aI00
aI00
aI00
aI00
aI00
aI00
aI00
aa(lp1088
I12510
aF445.219
aF361.78
aVp2
p1089
aS'utopia'
p1090
aS'#656565'
p1091
aF8.88595
aI0
aI01
aI00
aI00
aI00
aI00
aI00
aI00
aI00
aa(lp1092
I234378
aF467.5329142857143
aF361.78
ag1089
aS'utopia'
p1093
aS'#656565'
p1094
aF8.88595
aI0
aI00
aI00
aI00
aI00
aI00
aI00
aI00
aI00
aa(lp1095
I60201
aF473.358
aF361.78
aVp2
p1096
aS'utopia'
p1097
aS'#434343'
p1098
aF8.88595
aI0
aI01
aI00
aI00
aI00
aI00
aI00
aI00
aI00
aa(lp1099
I230071
aF490.389
aF361.78
aVp2
p1100
aS'utopia'
p1101
aS'#434343'
p1102
aF8.88595
aI0
aI01
aI00
aI00
aI00
aI00
aI00
aI00
aI00
aa(lp1103
I212271
aF49.0539
aF373.628
aVp2
p1104
aS'utopia'
p1105
aS'#656565'
p1106
aF8.88595
aI0
aI01
aI00
aI00
aI00
aI00
aI00
aI00
aI00
aa(lp1107
I12510
aF79.4142
aF373.628
aVp2
p1108
aS'utopia'
p1109
aS'#656565'
p1110
aF8.88595
aI0
aI01
aI00
aI00
aI00
aI00
aI00
aI00
aI00
aa(lp1111
I234378
aF101.72811428571428
aF373.628
ag1108
aS'utopia'
p1112
aS'#656565'
p1113
aF8.88595
aI0
aI00
aI00
aI00
aI00
aI00
aI00
aI00
aI00
aa(lp1114
I97834
aF107.553
aF373.628
aVp2
p1115
aS'utopia'
p1116
aS'#434343'
p1117
aF8.88595
aI0
aI01
aI00
aI00
aI00
aI00
aI00
aI00
aI00
aa(lp1118
I118366
aF49.0539
aF393.515
aVp2
p1119
aS'utopia'
p1120
aS'#656565'
p1121
aF10.3669
aI1
aI01
aI00
aI00
aI00
aI00
aI00
aI00
aI00
aa(lp1122
I234378
aF83.97235
aF393.515
ag1119
aS'utopia'
p1123
aS'#656565'
p1124
aF10.3669
aI1
aI00
aI00
aI00
aI00
aI00
aI00
aI00
aI00
aa(lp1125
I51933
aF391.903
aF381.667
aVp2
p1126
aS'utopia'
p1127
aS'#656565'
p1128
aF10.3669
aI1
aI01
aI00
aI00
aI00
aI00
aI00
aI00
aI00
aa(lp1129
I62768
aF420.042
aF381.667
aVp2
p1130
aS'utopia'
p1131
aS'#656565'
p1132
aF10.3669
aI1
aI01
aI00
aI00
aI00
aI00
aI00
aI00
aI00
aa(lp1133
I234378
aF49.0539
aF406.21
aVp2
p1134
aS'utopia'
p1135
aS'#000000'
p1136
aF8.88595
aI0
aI01
aI00
aI00
aI00
aI00
aI00
aI00
aI00
aa(lp1137
I206915
aF75.7117
aF406.21
aVp2
p1138
aS'utopia'
p1139
aS'#000000'
p1140
aF8.88595
aI0
aI01
aI00
aI00
aI00
aI00
aI00
aI00
aI00
aa(lp1141
I88884
aF97.1861
aF406.21
aVp2
p1142
aS'utopia'
p1143
aS'#000000'
p1144
aF8.88595
aI0
aI01
aI00
aI00
aI00
aI00
aI00
aI00
aI00
aa(lp1145
I234378
aF111.49602
aF406.21
ag1142
aS'utopia'
p1146
aS'#000000'
p1147
aF8.88595
aI0
aI00
aI00
aI00
aI00
aI00
aI00
aI00
aI00
aa(lp1148
I129851
aF117.18
aF406.21
aVp2
p1149
aS'utopia'
p1150
aS'#000000'
p1151
aF8.88595
aI0
aI01
aI00
aI00
aI00
aI00
aI00
aI00
aI00
aa(lp1152
I201816
aF144.578
aF406.21
aVp2
p1153
aS'utopia'
p1154
aS'#000000'
p1155
aF8.88595
aI0
aI01
aI00
aI00
aI00
aI00
aI00
aI00
aI00
aa(lp1156
I234378
aF153.82086666666666
aF406.21
ag1153
aS'utopia'
p1157
aS'#000000'
p1158
aF8.88595
aI0
aI00
aI00
aI01
aI01
aI00
aI00
aI00
aI00
aa(lp1159
I234378
aF157.9423
aF406.21
ag1153
aS'utopia'
p1160
aS'#000000'
p1161
aF8.88595
aI0
aI00
aI00
aI00
aI00
aI00
aI00
aI00
aI00
aa(lp1162
I71195
aF162.06373333333332
aF406.21
ag1153
aS'utopia'
p1163
aS'#000000'
p1164
aF8.88595
aI0
aI01
aI00
aI00
aI00
aI00
aI00
aI00
aI00
aa(lp1165
I201816
aF183.824
aF406.21
aVp2
p1166
aS'utopia'
p1167
aS'#000000'
p1168
aF8.88595
aI0
aI01
aI00
aI00
aI00
aI00
aI00
aI00
aI00
aa(lp1169
I234378
aF193.6085945945946
aF406.21
ag1166
aS'utopia'
p1170
aS'#000000'
p1171
aF8.88595
aI0
aI00
aI00
aI01
aI01
aI01
aI00
aI00
aI00
aa(lp1172
I234378
aF206.7854864864865
aF406.21
ag1166
aS'utopia'
p1173
aS'#000000'
p1174
aF8.88595
aI0
aI00
aI00
aI00
aI00
aI00
aI00
aI00
aI00
aa(lp1175
I234378
aF211.17778378378378
aF406.21
ag1166
aS'utopia'
p1176
aS'#000000'
p1177
aF8.88595
aI0
aI01
aI00
aI00
aI00
aI00
aI00
aI00
aI00
aa(lp1178
I234378
aF247.49305405405403
aF406.21
ag1166
aS'utopia'
p1179
aS'#000000'
p1180
aF8.88595
aI0
aI00
aI00
aI00
aI00
aI00
aI00
aI00
aI00
aa(lp1181
I234378
aF263.88535135135135
aF406.21
ag1166
aS'utopia'
p1182
aS'#000000'
p1183
aF8.88595
aI0
aI01
aI00
aI00
aI00
aI00
aI00
aI00
aI00
aa(lp1184
I234378
aF284.8083243243243
aF406.21
ag1166
aS'utopia'
p1185
aS'#000000'
p1186
aF8.88595
aI0
aI00
aI00
aI00
aI00
aI00
aI00
aI00
aI00
aa(lp1187
I234378
aF312.2006216216216
aF406.21
ag1166
aS'utopia'
p1188
aS'#000000'
p1189
aF8.88595
aI0
aI01
aI00
aI00
aI00
aI00
aI00
aI00
aI00
aa(lp1190
I234378
aF49.0539
aF416.577
aVp2
p1191
aS'utopia'
p1192
aS'#000000'
p1193
aF8.88595
aI0
aI00
aI00
aI01
aI01
aI01
aI00
aI00
aI00
aa(lp1194
I31679
aF391.903
aF397.324
aVp2
p1195
aS'utopia'
p1196
aS'#656565'
p1197
aF8.88595
aI0
aI01
aI01
aI00
aI00
aI00
aI00
aI00
aI00
aa(lp1198
I51933
aF405.232
aF397.324
aVp2
p1199
aS'utopia'
p1200
aS'#656565'
p1201
aF8.88595
aI0
aI01
aI00
aI00
aI00
aI00
aI00
aI00
aI00
aa(lp1202
I12510
aF428.928
aF397.324
aVp2
p1203
aS'utopia'
p1204
aS'#656565'
p1205
aF8.88595
aI0
aI01
aI00
aI00
aI00
aI00
aI00
aI00
aI00
aa(lp1206
I234378
aF451.2419142857143
aF397.324
ag1203
aS'utopia'
p1207
aS'#656565'
p1208
aF8.88595
aI0
aI00
aI00
aI00
aI00
aI00
aI00
aI00
aI00
aa(lp1209
I63091
aF457.067
aF397.324
aVp2
p1210
aS'utopia'
p1211
aS'#434343'
p1212
aF8.88595
aI0
aI01
aI00
aI00
aI00
aI00
aI00
aI00
aI00
aa(lp1213
I234378
aF474.099
aF397.324
aVp2
p1214
aS'utopia'
p1215
aS'#434343'
p1216
aF8.88595
aI0
aI01
aI00
aI00
aI00
aI00
aI00
aI00
aI00
aa(lp1217
I234378
aF391.903
aF412.874
aVp2
p1218
aS'utopia'
p1219
aS'#656565'
p1220
aF8.88595
aI0
aI01
aI00
aI00
aI00
aI00
aI00
aI00
aI00
aa(lp1221
I234378
aF428.66152
aF412.874
ag1218
aS'utopia'
p1222
aS'#656565'
p1223
aF8.88595
aI0
aI00
aI00
aI00
aI00
aI00
aI00
aI00
aI00
aa(lp1224
I63091
aF434.852
aF412.874
aVp2
p1225
aS'utopia'
p1226
aS'#434343'
p1227
aF8.88595
aI0
aI01
aI00
aI00
aI00
aI00
aI00
aI00
aI00
aa(lp1228
I234378
aF451.884
aF412.874
aVp2
p1229
aS'utopia'
p1230
aS'#434343'
p1231
aF8.88595
aI0
aI01
aI00
aI00
aI00
aI00
aI00
aI00
aI00
aa(lp1232
I182663
aF49.0539
aF429.906
aVp2
p1233
aS'utopia'
p1234
aS'#656565'
p1235
aF8.88595
aI0
aI01
aI00
aI00
aI00
aI00
aI00
aI00
aI00
aa(lp1236
I82279
aF76.4522
aF429.906
aVp2
p1237
aS'utopia'
p1238
aS'#656565'
p1239
aF8.88595
aI0
aI01
aI00
aI00
aI00
aI00
aI00
aI00
aI00
aa(lp1240
I234378
aF96.09372
aF429.906
ag1237
aS'utopia'
p1241
aS'#656565'
p1242
aF8.88595
aI0
aI00
aI00
aI00
aI00
aI00
aI00
aI00
aI00
aa(lp1243
I234378
aF103.11
aF429.906
aVp2
p1244
aS'utopia'
p1245
aS'#000000'
p1246
aF8.88595
aI0
aI01
aI00
aI00
aI00
aI00
aI00
aI00
aI00
aa(lp1247
I166771
aF391.903
aF432.761
aVp2
p1248
aS'utopia'
p1249
aS'#656565'
p1250
aF10.3669
aI1
aI01
aI00
aI00
aI00
aI00
aI00
aI00
aI00
aa(lp1251
I74833
aF448.181
aF432.761
aVp2
p1252
aS'utopia'
p1253
aS'#656565'
p1254
aF10.3669
aI1
aI01
aI00
aI00
aI00
aI00
aI00
aI00
aI00
aa(lp1255
I233758
aF391.903
aF448.418
aVp2
p1256
aS'utopia'
p1257
aS'#656565'
p1258
aF8.88595
aI0
aI01
aI00
aI00
aI00
aI00
aI00
aI00
aI00
aa(lp1259
I234378
aF425.5748222222222
aF448.418
ag1256
aS'utopia'
p1260
aS'#656565'
p1261
aF8.88595
aI0
aI00
aI00
aI00
aI00
aI00
aI00
aI00
aI00
aa(lp1262
I63091
aF431.89
aF448.418
aVp2
p1263
aS'utopia'
p1264
aS'#434343'
p1265
aF8.88595
aI0
aI01
aI00
aI00
aI00
aI00
aI00
aI00
aI00
aa(lp1266
I234378
aF448.922
aF448.418
aVp2
p1267
aS'utopia'
p1268
aS'#434343'
p1269
aF8.88595
aI0
aI01
aI00
aI00
aI00
aI00
aI00
aI00
aI00
aa(lp1270
I151511
aF391.903
aF463.969
aVp2
p1271
aS'utopia'
p1272
aS'#656565'
p1273
aF8.88595
aI0
aI01
aI00
aI00
aI00
aI00
aI00
aI00
aI00
aa(lp1274
I234378
aF432.631
aF463.969
aVp2
p1275
aS'utopia'
p1276
aS'#656565'
p1277
aF8.88595
aI0
aI01
aI00
aI00
aI00
aI00
aI00
aI00
aI00
aa(lp1278
I234378
aF474.4730909090909
aF463.969
ag1275
aS'utopia'
p1279
aS'#656565'
p1280
aF8.88595
aI0
aI00
aI00
aI00
aI00
aI00
aI00
aI00
aI00
aa(lp1281
I201816
aF480.763
aF463.969
aVp2
p1282
aS'utopia'
p1283
aS'#434343'
p1284
aF8.88595
aI0
aI01
aI00
aI00
aI00
aI00
aI00
aI00
aI00
aa(lp1285
I1
aI0
aI0
aI0
aI0
aI0
aI0
aI0
aI0
aI0
aI0
aI0
aI0
aI0
aI0
aI0
aI0
aI0
aI0
aI0
aI0
aI0
aI0
aI0
aI0
aI0
aI0
aI0
aI0
aI0
aI0
aI0
aI0
aI0
aI0
aI0
aI0
aI0
aI0
aI0
aI0
aI0
aI0
aI0
aI0
aI0
aI0
aI0
aI0
aI0
aI0
aI0
aI0
aI0
aI0
aI0
aI0
aI0
aI0
aI0
aI0
aI0
aI0
aI0
aI0
aI0
aI0
aI0
aI0
aI0
aI0
aI0
aI0
aI0
aI0
aI0
aI0
aI0
aI0
aI0
aI0
aI0
aI0
aI0
aI0
aI0
aI0
aI0
aI0
aI0
aI0
aI0
aI0
aI0
aI0
aI0
aI0
aI0
aI0
aI0
aI0
aI0
aI0
aI0
aI0
aI0
aI0
aI0
aI0
aI0
aI0
aI0
aI0
aI0
aI0
aI0
aI0
aI0
aI0
aI0
aI0
aI0
aI0
aI0
aI0
aI0
aI0
aI0
aI0
aI0
aI0
aI0
aI0
aI0
aI1
aI1
aI0
aI0
aI0
aI0
aI0
aI0
aI0
aI0
aI0
aI0
aI0
aI0
aI0
aI0
aI0
aI0
aI0
aI0
aI0
aI0
aI0
aI0
aI0
aI0
aI0
aI0
aI0
aI0
aI0
aI0
aI0
aI0
aI0
aI0
aI0
aI0
aI0
aI0
aI0
aI0
aI0
aI0
aI0
aI1
aI0
aI0
aI0
aI0
aI0
aI0
aI0
aI0
aI0
aI0
aI0
aI0
aI0
aI0
aI0
aI0
aI0
aI0
aI0
aI0
aI0
aI0
aI1
aI1
aI0
aI0
aI0
aI0
aI0
aI0
aI0
aI0
aI0
aI0
aI0
aI0
aI0
aI0
aI0
aI0
aI0
aI0
aI0
aI0
aI0
aI0
aI0
aI0
aI0
aI0
aI0
aI0
aI0
aI0
aI0
aI0
aI0
aI0
aI0
aI0
aI0
aI0
aI0
aI0
aI0
aI0
aI0
aI0
aI0
aI0
aI0
aI0
aI0
aI1
aI1
aI0
aI0
aI0
aI0
aI0
aI0
aI0
aI0
aI0
aI1
aI0
aI0
aI0
aI1
aI1
aI0
aI0
aI0
aI0
aI0
aI0
aI0
aI0
aI0
aI0
aI0
aI0
aI0
aI0
aI0
aI0
aI0
aI0
aI0
aI0
aI0
aI0
aI0
aI0
aI0
aI0
aI0
aI0
aI0
aI0
aI0
aI0
aI0
aI0
aI0
aI0
aI0
aI0
aI0
aI0
aI0
aI0
aI0
aI0
aI0
aI0
aI0
aI0
aI0
aI0
aI0
aI0
aI0
aI0
aI0
aI0
aI0
aI0
aI0
aI0
aI0
aI0
aI0
aI0
aI0
aI0
aI0
aI0
aI0
aI0
aI0
aI0
aI0
aI0
atp1286
.