((lp0
(lp1
I234378
aF40.9084
aF53.0111
aVp1
p2
aS'utopia'
p3
aS'#02304b'
p4
aF11.8479
aI1
aI00
aI00
aI00
aI00
aI00
aI00
aI00
aI00
aa(lp5
I234378
aF46.8324
aF74.4677
aVp1
p6
aS'utopia'
p7
aS'#656565'
p8
aF8.88595
aI0
aI01
aI01
aI00
aI00
aI00
aI00
aI00
aI00
aa(lp9
I169745
aF69.0473
aF74.4677
aVp1
p10
aS'utopia'
p11
aS'#656565'
p12
aF8.88595
aI0
aI00
aI00
aI00
aI00
aI00
aI00
aI00
aI00
aa(lp13
I234378
aF88.3002
aF74.4677
aVp1
p14
aS'utopia'
p15
aS'#656565'
p16
aF8.88595
aI0
aI00
aI00
aI01
aI01
aI00
aI00
aI00
aI00
aa(lp17
I234378
aF93.65812857142858
aF74.4677
ag14
aS'utopia'
p18
aS'#656565'
p19
aF8.88595
aI0
aI00
aI00
aI00
aI00
aI00
aI00
aI00
aI00
aa(lp20
I144489
aF120.882
aF74.4677
aVp1
p21
aS'utopia'
p22
aS'#656565'
p23
aF8.88595
aI0
aI00
aI00
aI00
aI00
aI00
aI00
aI00
aI00
aa(lp24
I60220
aF131.249
aF74.4677
aVp1
p25
aS'utopia'
p26
aS'#656565'
p27
aF8.88595
aI0
aI00
aI00
aI00
aI00
aI00
aI00
aI00
aI00
aa(lp28
I234378
aF59.4208
aF124.081
aVp1
p29
aS'utopia'
p30
aS'#0d75b4'
p31
aF8.88595
aI0
aI00
aI00
aI00
aI00
aI00
aI01
aI00
aI00
aa(lp32
I234378
aF301.563
aF124.081
aVp1
p33
aS'utopia'
p34
aS'#000000'
p35
aF8.88595
aI0
aI00
aI00
aI01
aI01
aI01
aI00
aI00
aI00
aa(lp36
I15548
aF55.7183
aF158.884
aVp1
p37
aS'utopia'
p38
aS'#878787'
p39
aF8.88595
aI0
aI01
aI00
aI00
aI00
aI00
aI00
aI00
aI00
aa(lp40
I104542
aF89.0407
aF158.884
aVp1
p41
aS'utopia'
p42
aS'#878787'
p43
aF8.88595
aI0
aI01
aI00
aI00
aI00
aI00
aI00
aI00
aI00
aa(lp44
I234378
aF133.94655
aF158.884
ag41
aS'utopia'
p45
aS'#878787'
p46
aF8.88595
aI0
aI00
aI00
aI00
aI00
aI00
aI00
aI00
aI00
aa(lp47
I55966
aF142.356
aF158.884
aVp1
p48
aS'utopia'
p49
aS'#000000'
p50
aF8.88595
aI0
aI01
aI00
aI00
aI00
aI00
aI00
aI00
aI00
aa(lp51
I234378
aF169.755
aF158.884
aVp1
p52
aS'utopia'
p53
aS'#000000'
p54
aF8.88595
aI0
aI01
aI00
aI00
aI00
aI00
aI00
aI00
aI00
aa(lp55
I132100
aF206.779
aF158.884
aVp1
p56
aS'utopia'
p57
aS'#000000'
p58
aF8.88595
aI0
aI01
aI00
aI00
aI00
aI00
aI00
aI00
aI00
aa(lp59
I16915
aF308.227
aF158.884
aVp1
p60
aS'utopia'
p61
aS'#878787'
p62
aF8.88595
aI0
aI01
aI00
aI00
aI00
aI00
aI00
aI00
aI00
aa(lp63
I60220
aF330.442
aF158.884
aVp1
p64
aS'utopia'
p65
aS'#878787'
p66
aF8.88595
aI0
aI01
aI00
aI00
aI00
aI00
aI00
aI00
aI00
aa(lp67
I234378
aF372.28409090909093
aF158.884
ag64
aS'utopia'
p68
aS'#878787'
p69
aF8.88595
aI0
aI00
aI00
aI00
aI00
aI00
aI00
aI00
aI00
aa(lp70
I234378
aF380.796
aF158.884
aVp1
p71
aS'utopia'
p72
aS'#000000'
p73
aF8.88595
aI0
aI00
aI00
aI01
aI01
aI00
aI00
aI00
aI00
aa(lp74
I91136
aF387.46
aF158.884
aVp1
p75
aS'utopia'
p76
aS'#000000'
p77
aF8.88595
aI0
aI01
aI00
aI00
aI00
aI00
aI00
aI00
aI00
aa(lp78
I234378
aF403.18559999999997
aF158.884
ag75
aS'utopia'
p79
aS'#000000'
p80
aF8.88595
aI0
aI00
aI00
aI00
aI00
aI00
aI00
aI00
aI00
aa(lp81
I59734
aF407.11699999999996
aF158.884
ag75
aS'utopia'
p82
aS'#000000'
p83
aF8.88595
aI0
aI00
aI00
aI00
aI00
aI00
aI00
aI00
aI00
aa(lp84
I234378
aF411.04839999999996
aF158.884
ag75
aS'utopia'
p85
aS'#000000'
p86
aF8.88595
aI0
aI00
aI00
aI00
aI00
aI00
aI00
aI00
aI00
aa(lp87
I234378
aF417.08
aF158.884
aVp1
p88
aS'utopia'
p89
aS'#000000'
p90
aF8.88595
aI0
aI00
aI00
aI01
aI01
aI00
aI00
aI00
aI00
aa(lp91
I63729
aF423.745
aF158.884
aVp1
p92
aS'utopia'
p93
aS'#000000'
p94
aF8.88595
aI0
aI01
aI00
aI00
aI00
aI00
aI00
aI00
aI00
aa(lp95
I234378
aF446.4985625
aF158.884
ag92
aS'utopia'
p96
aS'#000000'
p97
aF8.88595
aI0
aI00
aI00
aI00
aI00
aI00
aI00
aI00
aI00
aa(lp98
I59734
aF451.04927499999997
aF158.884
ag92
aS'utopia'
p99
aS'#000000'
p100
aF8.88595
aI0
aI00
aI00
aI00
aI00
aI00
aI00
aI00
aI00
aa(lp101
I234378
aF455.59998749999994
aF158.884
ag92
aS'utopia'
p102
aS'#000000'
p103
aF8.88595
aI0
aI00
aI00
aI00
aI00
aI00
aI00
aI00
aI00
aa(lp104
I15548
aF55.7183
aF176.656
aVp1
p105
aS'utopia'
p106
aS'#878787'
p107
aF8.88595
aI0
aI01
aI00
aI00
aI00
aI00
aI00
aI00
aI00
aa(lp108
I2006
aF89.0407
aF176.656
aVp1
p109
aS'utopia'
p110
aS'#878787'
p111
aF8.88595
aI0
aI01
aI00
aI00
aI00
aI00
aI00
aI00
aI00
aa(lp112
I234378
aF124.77815
aF176.656
ag109
aS'utopia'
p113
aS'#878787'
p114
aF8.88595
aI0
aI00
aI00
aI00
aI00
aI00
aI00
aI00
aI00
aa(lp115
I234378
aF134.211
aF176.656
aVp1
p116
aS'utopia'
p117
aS'#000000'
p118
aF8.88595
aI0
aI01
aI00
aI00
aI00
aI00
aI00
aI00
aI00
aa(lp119
I234378
aF163.09
aF176.656
aVp1
p120
aS'utopia'
p121
aS'#000000'
p122
aF8.88595
aI0
aI01
aI00
aI00
aI00
aI00
aI00
aI00
aI00
aa(lp123
I40036
aF217.146
aF176.656
aVp1
p124
aS'utopia'
p125
aS'#000000'
p126
aF8.88595
aI0
aI01
aI00
aI00
aI00
aI00
aI00
aI00
aI00
aa(lp127
I229300
aF308.227
aF176.656
aVp1
p128
aS'utopia'
p129
aS'#878787'
p130
aF8.88595
aI0
aI01
aI00
aI00
aI00
aI00
aI00
aI00
aI00
aa(lp131
I78894
aF338.588
aF176.656
aVp1
p132
aS'utopia'
p133
aS'#878787'
p134
aF8.88595
aI0
aI01
aI00
aI00
aI00
aI00
aI00
aI00
aI00
aa(lp135
I234378
aF360.9019142857143
aF176.656
ag132
aS'utopia'
p136
aS'#878787'
p137
aF8.88595
aI0
aI00
aI00
aI00
aI00
aI00
aI00
aI00
aI00
aa(lp138
I234378
aF368.948
aF176.656
aVp1
p139
aS'utopia'
p140
aS'#000000'
p141
aF8.88595
aI0
aI01
aI00
aI00
aI00
aI00
aI00
aI00
aI00
aa(lp142
I234378
aF380.796
aF176.656
aVp1
p143
aS'utopia'
p144
aS'#000000'
p145
aF8.88595
aI0
aI00
aI00
aI01
aI01
aI00
aI00
aI00
aI00
aa(lp146
I234378
aF384.5755
aF176.656
ag143
aS'utopia'
p147
aS'#000000'
p148
aF8.88595
aI0
aI00
aI00
aI00
aI00
aI00
aI00
aI00
aI00
aa(lp149
I234378
aF388.35499999999996
aF176.656
ag143
aS'utopia'
p150
aS'#000000'
p151
aF8.88595
aI0
aI00
aI00
aI01
aI01
aI00
aI00
aI00
aI00
aa(lp152
I234378
aF394.125
aF176.656
aVp1
p153
aS'utopia'
p154
aS'#000000'
p155
aF8.88595
aI0
aI01
aI00
aI00
aI00
aI00
aI00
aI00
aI00
aa(lp156
I15548
aF55.7183
aF194.428
aVp1
p157
aS'utopia'
p158
aS'#878787'
p159
aF8.88595
aI0
aI01
aI00
aI00
aI00
aI00
aI00
aI00
aI00
aa(lp160
I17057
aF89.0407
aF194.428
aVp1
p161
aS'utopia'
p162
aS'#878787'
p163
aF8.88595
aI0
aI01
aI00
aI00
aI00
aI00
aI00
aI00
aI00
aa(lp164
I234378
aF122.05430000000001
aF194.428
ag161
aS'utopia'
p165
aS'#878787'
p166
aF8.88595
aI0
aI00
aI00
aI00
aI00
aI00
aI00
aI00
aI00
aa(lp167
I234378
aF130.508
aF194.428
aVp1
p168
aS'utopia'
p169
aS'#000000'
p170
aF8.88595
aI0
aI01
aI00
aI00
aI00
aI00
aI00
aI00
aI00
aa(lp171
I234378
aF173.457
aF194.428
aVp1
p172
aS'utopia'
p173
aS'#000000'
p174
aF8.88595
aI0
aI00
aI00
aI00
aI00
aI00
aI00
aI00
aI00
aa(lp175
I234378
aF180.122
aF194.428
aVp1
p176
aS'utopia'
p177
aS'#000000'
p178
aF8.88595
aI0
aI01
aI00
aI00
aI00
aI00
aI00
aI00
aI00
aa(lp179
I234378
aF308.227
aF194.428
aVp1
p180
aS'utopia'
p181
aS'#878787'
p182
aF8.88595
aI0
aI01
aI00
aI00
aI00
aI00
aI00
aI00
aI00
aa(lp183
I234378
aF346.733
aF194.428
aVp1
p184
aS'utopia'
p185
aS'#878787'
p186
aF8.88595
aI0
aI01
aI01
aI00
aI00
aI00
aI00
aI00
aI00
aa(lp187
I234378
aF361.2593
aF194.428
ag184
aS'utopia'
p188
aS'#878787'
p189
aF8.88595
aI0
aI00
aI00
aI00
aI00
aI00
aI00
aI00
aI00
aa(lp190
I63091
aF370.429
aF194.428
aVp1
p191
aS'utopia'
p192
aS'#000000'
p193
aF8.88595
aI0
aI01
aI00
aI00
aI00
aI00
aI00
aI00
aI00
aa(lp194
I234378
aF387.46
aF194.428
aVp1
p195
aS'utopia'
p196
aS'#000000'
p197
aF8.88595
aI0
aI01
aI00
aI00
aI00
aI00
aI00
aI00
aI00
aa(lp198
I234378
aF55.7183
aF212.2
aVp1
p199
aS'utopia'
p200
aS'#878787'
p201
aF8.88595
aI0
aI01
aI00
aI00
aI00
aI00
aI00
aI00
aI00
aa(lp202
I234378
aF70.62062
aF212.2
ag199
aS'utopia'
p203
aS'#878787'
p204
aF8.88595
aI0
aI00
aI00
aI00
aI00
aI00
aI00
aI00
aI00
aa(lp205
I17057
aF76.4522
aF212.2
aVp1
p206
aS'utopia'
p207
aS'#878787'
p208
aF8.88595
aI0
aI01
aI00
aI00
aI00
aI00
aI00
aI00
aI00
aa(lp209
I234378
aF109.4658
aF212.2
ag206
aS'utopia'
p210
aS'#878787'
p211
aF8.88595
aI0
aI00
aI00
aI00
aI00
aI00
aI00
aI00
aI00
aa(lp212
I141914
aF117.92
aF212.2
aVp1
p213
aS'utopia'
p214
aS'#000000'
p215
aF8.88595
aI0
aI01
aI00
aI00
aI00
aI00
aI00
aI00
aI00
aa(lp216
I135639
aF160.128
aF212.2
aVp1
p217
aS'utopia'
p218
aS'#000000'
p219
aF8.88595
aI0
aI00
aI00
aI00
aI00
aI00
aI00
aI00
aI00
aa(lp220
I91495
aF169.755
aF212.2
aVp1
p221
aS'utopia'
p222
aS'#000000'
p223
aF8.88595
aI0
aI01
aI00
aI00
aI00
aI00
aI00
aI00
aI00
aa(lp224
I164802
aF194.932
aF212.2
aVp1
p225
aS'utopia'
p226
aS'#000000'
p227
aF8.88595
aI0
aI01
aI00
aI00
aI00
aI00
aI00
aI00
aI00
aa(lp228
I7204
aF308.227
aF212.2
aVp1
p229
aS'utopia'
p230
aS'#878787'
p231
aF8.88595
aI0
aI01
aI00
aI00
aI00
aI00
aI00
aI00
aI00
aa(lp232
I189220
aF340.809
aF212.2
aVp1
p233
aS'utopia'
p234
aS'#878787'
p235
aF8.88595
aI0
aI01
aI00
aI00
aI00
aI00
aI00
aI00
aI00
aa(lp236
I234378
aF366.93111428571433
aF212.2
ag233
aS'utopia'
p237
aS'#878787'
p238
aF8.88595
aI0
aI00
aI00
aI00
aI00
aI00
aI00
aI00
aI00
aa(lp239
I234378
aF375.613
aF212.2
aVp1
p240
aS'utopia'
p241
aS'#000000'
p242
aF8.88595
aI0
aI01
aI01
aI00
aI00
aI00
aI00
aI00
aI00
aa(lp243
I98580
aF55.7183
aF229.972
aVp1
p244
aS'utopia'
p245
aS'#878787'
p246
aF8.88595
aI0
aI01
aI00
aI00
aI00
aI00
aI00
aI00
aI00
aa(lp247
I166289
aF100.148
aF229.972
aVp1
p248
aS'utopia'
p249
aS'#878787'
p250
aF8.88595
aI0
aI01
aI00
aI00
aI00
aI00
aI00
aI00
aI00
aa(lp251
I234378
aF116.82751999999999
aF229.972
ag248
aS'utopia'
p252
aS'#878787'
p253
aF8.88595
aI0
aI00
aI00
aI00
aI00
aI00
aI00
aI00
aI00
aa(lp254
I22476
aF125.325
aF229.972
aVp1
p255
aS'utopia'
p256
aS'#000000'
p257
aF8.88595
aI0
aI01
aI01
aI00
aI00
aI00
aI00
aI00
aI00
aa(lp258
I234378
aF135.692
aF229.972
aVp1
p259
aS'utopia'
p260
aS'#000000'
p261
aF8.88595
aI0
aI01
aI00
aI00
aI00
aI00
aI00
aI00
aI00
aa(lp262
I123665
aF178.641
aF229.972
aVp1
p263
aS'utopia'
p264
aS'#000000'
p265
aF8.88595
aI0
aI01
aI00
aI00
aI00
aI00
aI00
aI00
aI00
aa(lp266
I234378
aF226.032
aF229.972
aVp1
p267
aS'utopia'
p268
aS'#000000'
p269
aF8.88595
aI0
aI01
aI00
aI00
aI00
aI00
aI00
aI00
aI00
aa(lp270
I234378
aF283.051
aF229.972
aVp1
p271
aS'utopia'
p272
aS'#000000'
p273
aF8.88595
aI0
aI00
aI00
aI00
aI00
aI00
aI00
aI00
aI00
aa(lp274
I20593
aF55.7183
aF240.339
aVp1
p275
aS'utopia'
p276
aS'#000000'
p277
aF8.88595
aI0
aI01
aI00
aI00
aI00
aI00
aI00
aI00
aI00
aa(lp278
I48671
aF308.227
aF229.972
aVp1
p279
aS'utopia'
p280
aS'#878787'
p281
aF8.88595
aI0
aI01
aI00
aI00
aI00
aI00
aI00
aI00
aI00
aa(lp282
I129688
aF336.366
aF229.972
aVp1
p283
aS'utopia'
p284
aS'#878787'
p285
aF8.88595
aI0
aI00
aI00
aI00
aI00
aI00
aI00
aI00
aI00
aa(lp286
I234378
aF360.58405714285715
aF229.972
ag283
aS'utopia'
p287
aS'#878787'
p288
aF8.88595
aI0
aI00
aI00
aI00
aI00
aI00
aI00
aI00
aI00
aa(lp289
I234378
aF368.948
aF229.972
aVp1
p290
aS'utopia'
p291
aS'#000000'
p292
aF8.88595
aI0
aI00
aI00
aI01
aI01
aI00
aI00
aI00
aI00
aa(lp293
I234378
aF375.613
aF229.972
aVp1
p294
aS'utopia'
p295
aS'#000000'
p296
aF8.88595
aI0
aI01
aI00
aI00
aI00
aI00
aI00
aI00
aI00
aa(lp297
I176435
aF55.7183
aF258.111
aVp1
p298
aS'utopia'
p299
aS'#878787'
p300
aF8.88595
aI0
aI01
aI00
aI00
aI00
aI00
aI00
aI00
aI00
aa(lp301
I234378
aF71.80542
aF258.111
ag298
aS'utopia'
p302
aS'#878787'
p303
aF8.88595
aI0
aI00
aI00
aI00
aI00
aI00
aI00
aI00
aI00
aa(lp304
I234378
aF80.1547
aF258.111
aVp1
p305
aS'utopia'
p306
aS'#000000'
p307
aF8.88595
aI0
aI01
aI00
aI00
aI00
aI00
aI00
aI00
aI00
aa(lp308
I100815
aF117.18
aF258.111
aVp1
p309
aS'utopia'
p310
aS'#000000'
p311
aF8.88595
aI0
aI01
aI00
aI00
aI00
aI00
aI00
aI00
aI00
aa(lp312
I74589
aF55.7183
aF275.883
aVp1
p313
aS'utopia'
p314
aS'#878787'
p315
aF8.88595
aI0
aI01
aI00
aI00
aI00
aI00
aI00
aI00
aI00
aa(lp316
I234378
aF87.41545555555555
aF275.883
ag313
aS'utopia'
p317
aS'#878787'
p318
aF8.88595
aI0
aI00
aI00
aI00
aI00
aI00
aI00
aI00
aI00
aa(lp319
I22476
aF95.7051
aF275.883
aVp1
p320
aS'utopia'
p321
aS'#000000'
p322
aF8.88595
aI0
aI01
aI01
aI00
aI00
aI00
aI00
aI00
aI00
aa(lp323
I234378
aF105.30374
aF275.883
ag320
aS'utopia'
p324
aS'#000000'
p325
aF8.88595
aI0
aI01
aI00
aI00
aI00
aI00
aI00
aI00
aI00
aa(lp326
I234378
aF139.69830000000002
aF275.883
ag320
aS'utopia'
p327
aS'#000000'
p328
aF8.88595
aI0
aI00
aI00
aI00
aI00
aI00
aI00
aI00
aI00
aa(lp329
I234378
aF134.99762
aF275.883
ag320
aS'utopia'
p330
aS'#000000'
p331
aF8.88595
aI0
aI01
aI00
aI00
aI00
aI00
aI00
aI00
aI00
aa(lp332
I234378
aF183.824
aF275.883
aVp1
p333
aS'utopia'
p334
aS'#000000'
p335
aF8.88595
aI0
aI01
aI00
aI00
aI00
aI00
aI00
aI00
aI00
aa(lp336
I231013
aF55.7183
aF293.654
aVp1
p337
aS'utopia'
p338
aS'#878787'
p339
aF8.88595
aI0
aI01
aI00
aI00
aI00
aI00
aI00
aI00
aI00
aa(lp340
I234378
aF72.7498
aF293.654
aVp1
p341
aS'utopia'
p342
aS'#878787'
p343
aF8.88595
aI0
aI01
aI00
aI00
aI00
aI00
aI00
aI00
aI00
aa(lp344
I234378
aF91.25542857142857
aF293.654
ag341
aS'utopia'
p345
aS'#878787'
p346
aF8.88595
aI0
aI00
aI00
aI00
aI00
aI00
aI00
aI00
aI00
aa(lp347
I148996
aF98.6671
aF293.654
aVp1
p348
aS'utopia'
p349
aS'#000000'
p350
aF8.88595
aI0
aI01
aI00
aI00
aI00
aI00
aI00
aI00
aI00
aa(lp351
I234378
aF126.065
aF293.654
aVp1
p352
aS'utopia'
p353
aS'#000000'
p354
aF8.88595
aI0
aI00
aI00
aI00
aI00
aI00
aI00
aI00
aI00
aa(lp355
I84662
aF130.508
aF293.654
aVp1
p356
aS'utopia'
p357
aS'#000000'
p358
aF8.88595
aI0
aI00
aI00
aI00
aI00
aI00
aI00
aI00
aI00
aa(lp359
I21716
aF150.502
aF293.654
aVp1
p360
aS'utopia'
p361
aS'#000000'
p362
aF8.88595
aI0
aI00
aI00
aI00
aI00
aI00
aI00
aI00
aI00
aa(lp363
I234378
aF164.81192000000001
aF293.654
ag360
aS'utopia'
p364
aS'#000000'
p365
aF8.88595
aI0
aI00
aI00
aI00
aI00
aI00
aI00
aI00
aI00
aa(lp366
I234378
aF170.495
aF293.654
aVp1
p367
aS'utopia'
p368
aS'#000000'
p369
aF8.88595
aI0
aI00
aI00
aI00
aI00
aI00
aI00
aI00
aI00
aa(lp370
I21716
aF186.786
aF293.654
aVp1
p371
aS'utopia'
p372
aS'#000000'
p373
aF8.88595
aI0
aI00
aI00
aI00
aI00
aI00
aI00
aI00
aI00
aa(lp374
I234378
aF204.558
aF293.654
aVp1
p375
aS'utopia'
p376
aS'#000000'
p377
aF8.88595
aI0
aI00
aI00
aI00
aI00
aI00
aI00
aI00
aI00
aa(lp378
I234378
aF214.6413
aF293.654
ag375
aS'utopia'
p379
aS'#000000'
p380
aF8.88595
aI0
aI00
aI00
aI00
aI00
aI00
aI00
aI00
aI00
aa(lp381
I234378
aF220.108
aF293.654
aVp1
p382
aS'utopia'
p383
aS'#000000'
p384
aF8.88595
aI0
aI01
aI00
aI00
aI00
aI00
aI00
aI00
aI00
aa(lp385
I234378
aF249.17226666666667
aF293.654
ag382
aS'utopia'
p386
aS'#000000'
p387
aF8.88595
aI0
aI00
aI00
aI00
aI00
aI00
aI00
aI00
aI00
aa(lp388
I234378
aF254.912
aF293.654
aVp1
p389
aS'utopia'
p390
aS'#000000'
p391
aF8.88595
aI0
aI00
aI00
aI01
aI00
aI00
aI00
aI00
aI00
aa(lp392
I234378
aF269.22192
aF293.654
ag389
aS'utopia'
p393
aS'#000000'
p394
aF8.88595
aI0
aI00
aI00
aI00
aI00
aI00
aI00
aI00
aI00
aa(lp395
I148996
aF274.905
aF293.654
aVp1
p396
aS'utopia'
p397
aS'#000000'
p398
aF8.88595
aI0
aI01
aI00
aI00
aI00
aI00
aI00
aI00
aI00
aa(lp399
I234378
aF55.7183
aF304.021
aVp1
p400
aS'utopia'
p401
aS'#000000'
p402
aF8.88595
aI0
aI00
aI00
aI00
aI00
aI00
aI00
aI00
aI00
aa(lp403
I234378
aF70.2446
aF304.021
ag400
aS'utopia'
p404
aS'#000000'
p405
aF8.88595
aI0
aI00
aI00
aI00
aI00
aI00
aI00
aI00
aI00
aa(lp406
I17350
aF77.1927
aF304.021
aVp1
p407
aS'utopia'
p408
aS'#000000'
p409
aF8.88595
aI0
aI01
aI00
aI00
aI00
aI00
aI00
aI00
aI00
aa(lp410
I234378
aF97.1861
aF304.021
aVp1
p411
aS'utopia'
p412
aS'#000000'
p413
aF8.88595
aI0
aI01
aI00
aI00
aI00
aI00
aI00
aI00
aI00
aa(lp414
I234378
aF127.56681111111111
aF304.021
ag411
aS'utopia'
p415
aS'#000000'
p416
aF8.88595
aI0
aI00
aI00
aI00
aI00
aI00
aI00
aI00
aI00
aa(lp417
I89217
aF133.47
aF304.021
aVp1
p418
aS'utopia'
p419
aS'#000000'
p420
aF8.88595
aI0
aI01
aI00
aI00
aI00
aI00
aI00
aI00
aI00
aa(lp421
I234378
aF148.96472
aF304.021
ag418
aS'utopia'
p422
aS'#000000'
p423
aF8.88595
aI0
aI00
aI00
aI00
aI00
aI00
aI00
aI00
aI00
aa(lp424
I106895
aF154.945
aF304.021
aVp1
p425
aS'utopia'
p426
aS'#000000'
p427
aF8.88595
aI0
aI01
aI01
aI00
aI00
aI00
aI00
aI00
aI00
aa(lp428
I234378
aF174.58652
aF304.021
ag425
aS'utopia'
p429
aS'#000000'
p430
aF8.88595
aI0
aI00
aI00
aI00
aI00
aI00
aI00
aI00
aI00
aa(lp431
I21716
aF181.603
aF304.021
aVp1
p432
aS'utopia'
p433
aS'#000000'
p434
aF8.88595
aI0
aI01
aI00
aI00
aI00
aI00
aI00
aI00
aI00
aa(lp435
I51933
aF40.1679
aF341.064
aVp1
p436
aS'utopia'
p437
aS'#02304b'
p438
aF11.8479
aI1
aI01
aI00
aI00
aI00
aI00
aI00
aI00
aI00
aa(lp439
I60220
aF72.0093
aF341.064
aVp1
p440
aS'utopia'
p441
aS'#02304b'
p442
aF11.8479
aI1
aI01
aI00
aI00
aI00
aI00
aI00
aI00
aI00
aa(lp443
I234378
aF40.9084
aF372.781
aVp1
p444
aS'utopia'
p445
aS'#000000'
p446
aF10.3669
aI1
aI01
aI00
aI00
aI00
aI00
aI00
aI00
aI00
aa(lp447
I234378
aF76.4522
aF372.781
aVp1
p448
aS'utopia'
p449
aS'#000000'
p450
aF10.3669
aI1
aI01
aI00
aI00
aI00
aI00
aI00
aI00
aI00
aa(lp451
I40036
aF141.616
aF372.781
aVp1
p452
aS'utopia'
p453
aS'#000000'
p454
aF10.3669
aI1
aI01
aI00
aI00
aI00
aI00
aI00
aI00
aI00
aa(lp455
I234378
aF180.122
aF373.05
aVp1
p456
aS'utopia'
p457
aS'#656565'
p458
aF10.3669
aI0
aI00
aI00
aI00
aI00
aI00
aI00
aI00
aI00
aa(lp459
I15548
aF185.09942500000002
aF373.05
ag456
aS'utopia'
p460
aS'#656565'
p461
aF10.3669
aI0
aI01
aI00
aI00
aI00
aI00
aI00
aI00
aI00
aa(lp462
I70289
aF222.33
aF373.05
aVp1
p463
aS'utopia'
p464
aS'#656565'
p465
aF10.3669
aI0
aI01
aI00
aI00
aI00
aI00
aI00
aI00
aI00
aa(lp466
I234378
aF265.6789777777778
aF373.05
ag463
aS'utopia'
p467
aS'#656565'
p468
aF10.3669
aI0
aI00
aI00
aI00
aI00
aI00
aI00
aI00
aI00
aa(lp469
I55966
aF40.9084
aF389.341
aVp1
p470
aS'utopia'
p471
aS'#656565'
p472
aF10.3669
aI0
aI01
aI00
aI00
aI00
aI00
aI00
aI00
aI00
aa(lp473
I234378
aF73.4902
aF389.341
aVp1
p474
aS'utopia'
p475
aS'#656565'
p476
aF10.3669
aI0
aI01
aI00
aI00
aI00
aI00
aI00
aI00
aI00
aa(lp477
I132100
aF116.439
aF389.341
aVp1
p478
aS'utopia'
p479
aS'#656565'
p480
aF10.3669
aI0
aI01
aI00
aI00
aI00
aI00
aI00
aI00
aI00
aa(lp481
I234378
aF164.571
aF389.341
aVp1
p482
aS'utopia'
p483
aS'#656565'
p484
aF10.3669
aI0
aI01
aI00
aI00
aI00
aI00
aI00
aI00
aI01
aa(lp485
I234378
aF186.046
aF389.341
aVp1
p486
aS'utopia'
p487
aS'#656565'
p488
aF10.3669
aI0
aI00
aI00
aI01
aI01
aI01
aI00
aI00
aI00
aa(lp489
I234378
aF40.9084
aF409.172
aVp1
p490
aS'utopia'
p491
aS'#656565'
p492
aF8.88595
aI0
aI01
aI00
aI00
aI00
aI00
aI00
aI00
aI00
aa(lp493
I197030
aF80.8952
aF409.172
aVp1
p494
aS'utopia'
p495
aS'#656565'
p496
aF8.88595
aI0
aI01
aI01
aI00
aI00
aI00
aI00
aI00
aI00
aa(lp497
I16326
aF86.0787
aF409.172
aVp1
p498
aS'utopia'
p499
aS'#656565'
p500
aF8.88595
aI0
aI00
aI00
aI00
aI00
aI00
aI00
aI00
aI00
aa(lp501
I87610
aF100.889
aF409.172
aVp1
p502
aS'utopia'
p503
aS'#656565'
p504
aF8.88595
aI0
aI00
aI00
aI00
aI00
aI00
aI00
aI00
aI00
aa(lp505
I190806
aF131.989
aF409.172
aVp1
p506
aS'utopia'
p507
aS'#656565'
p508
aF8.88595
aI0
aI00
aI00
aI00
aI00
aI00
aI00
aI00
aI00
aa(lp509
I16329
aF146.059
aF409.172
aVp1
p510
aS'utopia'
p511
aS'#656565'
p512
aF8.88595
aI0
aI00
aI00
aI00
aI00
aI00
aI00
aI00
aI00
aa(lp513
I212664
aF157.907
aF409.172
aVp1
p514
aS'utopia'
p515
aS'#656565'
p516
aF8.88595
aI0
aI00
aI00
aI00
aI00
aI00
aI00
aI00
aI00
aa(lp517
I144483
aF207.52
aF409.172
aVp1
p518
aS'utopia'
p519
aS'#656565'
p520
aF8.88595
aI0
aI00
aI00
aI00
aI00
aI00
aI00
aI00
aI00
aa(lp521
I148996
aF220.108
aF409.172
aVp1
p522
aS'utopia'
p523
aS'#656565'
p524
aF8.88595
aI0
aI01
aI00
aI00
aI00
aI00
aI00
aI00
aI00
aa(lp525
I144503
aF247.507
aF409.172
aVp1
p526
aS'utopia'
p527
aS'#656565'
p528
aF8.88595
aI0
aI00
aI00
aI00
aI00
aI00
aI00
aI00
aI00
aa(lp529
I21716
aF258.614
aF409.172
aVp1
p530
aS'utopia'
p531
aS'#656565'
p532
aF8.88595
aI0
aI01
aI00
aI00
aI00
aI00
aI00
aI00
aI00
aa(lp533
I17350
aF277.127
aF409.172
aVp1
p534
aS'utopia'
p535
aS'#656565'
p536
aF8.88595
aI0
aI00
aI00
aI00
aI00
aI00
aI00
aI00
aI00
aa(lp537
I234378
aF295.639
aF409.172
aVp1
p538
aS'utopia'
p539
aS'#656565'
p540
aF8.88595
aI0
aI00
aI00
aI00
aI00
aI00
aI00
aI00
aI00
aa(lp541
I43052
aF328.961
aF409.172
aVp1
p542
aS'utopia'
p543
aS'#656565'
p544
aF8.88595
aI0
aI00
aI00
aI00
aI00
aI00
aI00
aI00
aI00
aa(lp545
I194354
aF374.872
aF409.172
aVp1
p546
aS'utopia'
p547
aS'#656565'
p548
aF8.88595
aI0
aI01
aI00
aI00
aI00
aI00
aI00
aI00
aI00
aa(lp549
I234378
aF391.903
aF409.172
aVp1
p550
aS'utopia'
p551
aS'#656565'
p552
aF8.88595
aI0
aI00
aI00
aI00
aI00
aI00
aI00
aI00
aI00
aa(lp553
I234378
aF428.188
aF409.172
aVp1
p554
aS'utopia'
p555
aS'#656565'
p556
aF8.88595
aI0
aI00
aI00
aI00
aI00
aI00
aI00
aI00
aI00
aa(lp557
I84932
aF455.586
aF409.172
aVp1
p558
aS'utopia'
p559
aS'#656565'
p560
aF8.88595
aI0
aI00
aI00
aI00
aI00
aI00
aI00
aI00
aI00
aa(lp561
I16331
aF470.396
aF409.172
aVp1
p562
aS'utopia'
p563
aS'#656565'
p564
aF8.88595
aI0
aI00
aI00
aI00
aI00
aI00
aI00
aI00
aI00
aa(lp565
I219349
aF480.763
aF409.172
aVp1
p566
aS'utopia'
p567
aS'#656565'
p568
aF8.88595
aI0
aI00
aI00
aI00
aI00
aI00
aI00
aI00
aI00
aa(lp569
I234378
aF506.68
aF409.172
aVp1
p570
aS'utopia'
p571
aS'#656565'
p572
aF8.88595
aI0
aI00
aI00
aI00
aI00
aI00
aI00
aI00
aI00
aa(lp573
I16915
aF511.123
aF409.172
aVp1
p574
aS'utopia'
p575
aS'#656565'
p576
aF8.88595
aI0
aI01
aI00
aI00
aI00
aI00
aI00
aI00
aI00
aa(lp577
I234378
aF533.338
aF409.172
aVp1
p578
aS'utopia'
p579
aS'#656565'
p580
aF8.88595
aI0
aI01
aI00
aI00
aI00
aI00
aI00
aI00
aI00
aa(lp581
I234378
aF550.37
aF409.172
aVp1
p582
aS'utopia'
p583
aS'#656565'
p584
aF8.88595
aI0
aI00
aI00
aI00
aI00
aI00
aI00
aI00
aI00
aa(lp585
I30648
aF40.9084
aF419.539
aVp1
p586
aS'utopia'
p587
aS'#656565'
p588
aF8.88595
aI0
aI01
aI00
aI00
aI00
aI00
aI00
aI00
aI00
aa(lp589
I234378
aF73.4902
aF419.539
aVp1
p590
aS'utopia'
p591
aS'#656565'
p592
aF8.88595
aI0
aI00
aI00
aI01
aI01
aI00
aI00
aI00
aI00
aa(lp593
I234378
aF77.2697
aF419.539
ag590
aS'utopia'
p594
aS'#656565'
p595
aF8.88595
aI0
aI00
aI00
aI00
aI00
aI00
aI00
aI00
aI00
aa(lp596
I234378
aF81.0492
aF419.539
ag590
aS'utopia'
p597
aS'#656565'
p598
aF8.88595
aI0
aI00
aI00
aI01
aI01
aI00
aI00
aI00
aI00
aa(lp599
I234378
aF86.8192
aF419.539
aVp1
p600
aS'utopia'
p601
aS'#656565'
p602
aF8.88595
aI0
aI00
aI00
aI00
aI00
aI00
aI00
aI00
aI00
aa(lp603
I157052
aF109.775
aF419.539
aVp1
p604
aS'utopia'
p605
aS'#656565'
p606
aF8.88595
aI0
aI01
aI00
aI00
aI00
aI00
aI00
aI00
aI00
aa(lp607
I234378
aF146.059
aF419.539
aVp1
p608
aS'utopia'
p609
aS'#656565'
p610
aF8.88595
aI0
aI01
aI00
aI00
aI00
aI00
aI00
aI00
aI00
aa(lp611
I234378
aF163.09
aF419.539
aVp1
p612
aS'utopia'
p613
aS'#656565'
p614
aF8.88595
aI0
aI00
aI00
aI00
aI00
aI00
aI00
aI00
aI00
aa(lp615
I234378
aF167.533
aF419.539
aVp1
p616
aS'utopia'
p617
aS'#656565'
p618
aF8.88595
aI0
aI00
aI00
aI01
aI01
aI00
aI00
aI00
aI00
aa(lp619
I234378
aF171.3125
aF419.539
ag616
aS'utopia'
p620
aS'#656565'
p621
aF8.88595
aI0
aI00
aI00
aI00
aI00
aI00
aI00
aI00
aI00
aa(lp622
I234378
aF175.092
aF419.539
ag616
aS'utopia'
p623
aS'#656565'
p624
aF8.88595
aI0
aI00
aI00
aI01
aI01
aI00
aI00
aI00
aI00
aa(lp625
I234378
aF180.862
aF419.539
aVp1
p626
aS'utopia'
p627
aS'#656565'
p628
aF8.88595
aI0
aI00
aI00
aI00
aI00
aI00
aI00
aI00
aI00
aa(lp629
I144489
aF203.818
aF419.539
aVp1
p630
aS'utopia'
p631
aS'#656565'
p632
aF8.88595
aI0
aI00
aI00
aI00
aI00
aI00
aI00
aI00
aI00
aa(lp633
I177958
aF214.184
aF419.539
aVp1
p634
aS'utopia'
p635
aS'#656565'
p636
aF8.88595
aI0
aI00
aI00
aI00
aI00
aI00
aI00
aI00
aI00
aa(lp637
I60220
aF244.545
aF419.539
aVp1
p638
aS'utopia'
p639
aS'#656565'
p640
aF8.88595
aI0
aI00
aI00
aI00
aI00
aI00
aI00
aI00
aI00
aa(lp641
I234378
aF289.715
aF419.539
aVp1
p642
aS'utopia'
p643
aS'#656565'
p644
aF8.88595
aI0
aI01
aI01
aI00
aI00
aI00
aI00
aI00
aI00
aa(lp645
I234378
aF308.968
aF419.539
aVp1
p646
aS'utopia'
p647
aS'#656565'
p648
aF8.88595
aI0
aI00
aI00
aI00
aI00
aI00
aI00
aI00
aI00
aa(lp649
I234378
aF313.411
aF419.539
aVp1
p650
aS'utopia'
p651
aS'#656565'
p652
aF8.88595
aI0
aI00
aI00
aI01
aI01
aI00
aI00
aI00
aI00
aa(lp653
I234378
aF317.1905
aF419.539
ag650
aS'utopia'
p654
aS'#656565'
p655
aF8.88595
aI0
aI00
aI00
aI00
aI00
aI00
aI00
aI00
aI00
aa(lp656
I234378
aF320.96999999999997
aF419.539
ag650
aS'utopia'
p657
aS'#656565'
p658
aF8.88595
aI0
aI00
aI00
aI01
aI01
aI00
aI00
aI00
aI00
aa(lp659
I234378
aF326.74
aF419.539
aVp1
p660
aS'utopia'
p661
aS'#656565'
p662
aF8.88595
aI0
aI01
aI01
aI00
aI00
aI00
aI00
aI00
aI00
aa(lp663
I234378
aF351.176
aF419.539
aVp1
p664
aS'utopia'
p665
aS'#656565'
p666
aF8.88595
aI0
aI00
aI00
aI00
aI00
aI00
aI00
aI00
aI00
aa(lp667
I2006
aF355.619
aF419.539
aVp1
p668
aS'utopia'
p669
aS'#656565'
p670
aF8.88595
aI0
aI01
aI00
aI00
aI00
aI00
aI00
aI00
aI00
aa(lp671
I234378
aF396.346
aF419.539
aVp1
p672
aS'utopia'
p673
aS'#656565'
p674
aF8.88595
aI0
aI00
aI00
aI00
aI00
aI00
aI00
aI00
aI00
aa(lp675
I15548
aF437.074
aF419.539
aVp1
p676
aS'utopia'
p677
aS'#656565'
p678
aF8.88595
aI0
aI01
aI00
aI00
aI00
aI00
aI00
aI00
aI00
aa(lp679
I17057
aF470.396
aF419.539
aVp1
p680
aS'utopia'
p681
aS'#656565'
p682
aF8.88595
aI0
aI01
aI00
aI00
aI00
aI00
aI00
aI00
aI00
aa(lp683
I234378
aF503.4096
aF419.539
ag680
aS'utopia'
p684
aS'#656565'
p685
aF8.88595
aI0
aI00
aI00
aI00
aI00
aI00
aI00
aI00
aI00
aa(lp686
I234378
aF509.642
aF419.539
aVp1
p687
aS'utopia'
p688
aS'#656565'
p689
aF8.88595
aI0
aI01
aI00
aI00
aI00
aI00
aI00
aI00
aI00
aa(lp690
I48671
aF40.9084
aF429.906
aVp1
p691
aS'utopia'
p692
aS'#656565'
p693
aF8.88595
aI0
aI01
aI00
aI00
aI00
aI00
aI00
aI00
aI00
aa(lp694
I129688
aF69.0473
aF429.906
aVp1
p695
aS'utopia'
p696
aS'#656565'
p697
aF8.88595
aI0
aI01
aI00
aI00
aI00
aI00
aI00
aI00
aI00
aa(lp698
I234378
aF93.26535714285716
aF429.906
ag695
aS'utopia'
p699
aS'#656565'
p700
aF8.88595
aI0
aI00
aI00
aI00
aI00
aI00
aI00
aI00
aI00
aa(lp701
I109424
aF99.4076
aF429.906
aVp1
p702
aS'utopia'
p703
aS'#656565'
p704
aF8.88595
aI0
aI01
aI00
aI00
aI00
aI00
aI00
aI00
aI00
aa(lp705
I234378
aF129.768
aF429.906
aVp1
p706
aS'utopia'
p707
aS'#656565'
p708
aF8.88595
aI0
aI00
aI00
aI00
aI00
aI00
aI00
aI00
aI00
aa(lp709
I234378
aF133.21575
aF429.906
ag706
aS'utopia'
p710
aS'#656565'
p711
aF8.88595
aI0
aI00
aI00
aI01
aI01
aI00
aI00
aI00
aI00
aa(lp712
I234378
aF138.654
aF429.906
aVp1
p713
aS'utopia'
p714
aS'#656565'
p715
aF8.88595
aI0
aI00
aI00
aI00
aI00
aI00
aI00
aI00
aI00
aa(lp716
I234378
aF171.236
aF429.906
aVp1
p717
aS'utopia'
p718
aS'#656565'
p719
aF8.88595
aI0
aI00
aI00
aI00
aI00
aI00
aI00
aI00
aI00
aa(lp720
I234378
aF177.9
aF429.906
aVp1
p721
aS'utopia'
p722
aS'#656565'
p723
aF8.88595
aI0
aI01
aI00
aI00
aI00
aI00
aI00
aI00
aI00
aa(lp724
I15429
aF195.672
aF429.906
aVp1
p725
aS'utopia'
p726
aS'#656565'
p727
aF8.88595
aI0
aI00
aI00
aI00
aI00
aI00
aI00
aI00
aI00
aa(lp728
I89480
aF208.26
aF429.906
aVp1
p729
aS'utopia'
p730
aS'#656565'
p731
aF8.88595
aI0
aI00
aI00
aI00
aI00
aI00
aI00
aI00
aI00
aa(lp732
I234378
aF218.627
aF429.906
aVp1
p733
aS'utopia'
p734
aS'#656565'
p735
aF8.88595
aI0
aI00
aI00
aI01
aI01
aI00
aI00
aI00
aI00
aa(lp736
I63729
aF225.292
aF429.906
aVp1
p737
aS'utopia'
p738
aS'#656565'
p739
aF8.88595
aI0
aI00
aI00
aI00
aI00
aI00
aI00
aI00
aI00
aa(lp740
I111474
aF254.171
aF429.906
aVp1
p741
aS'utopia'
p742
aS'#656565'
p743
aF8.88595
aI0
aI01
aI00
aI00
aI00
aI00
aI00
aI00
aI00
aa(lp744
I201816
aF271.203
aF429.906
aVp1
p745
aS'utopia'
p746
aS'#656565'
p747
aF8.88595
aI0
aI01
aI00
aI00
aI00
aI00
aI00
aI00
aI00
aa(lp748
I234378
aF285.272
aF429.906
aVp1
p749
aS'utopia'
p750
aS'#656565'
p751
aF8.88595
aI0
aI00
aI00
aI00
aI00
aI00
aI00
aI00
aI00
aa(lp752
I234378
aF289.715
aF429.906
aVp1
p753
aS'utopia'
p754
aS'#656565'
p755
aF8.88595
aI0
aI00
aI00
aI01
aI00
aI00
aI00
aI00
aI00
aa(lp756
I33301
aF337.107
aF429.906
aVp1
p757
aS'utopia'
p758
aS'#656565'
p759
aF8.88595
aI0
aI01
aI00
aI00
aI00
aI00
aI00
aI00
aI00
aa(lp760
I234378
aF370.429
aF429.906
aVp1
p761
aS'utopia'
p762
aS'#656565'
p763
aF8.88595
aI0
aI00
aI00
aI00
aI00
aI00
aI00
aI00
aI00
aa(lp764
I234378
aF374.872
aF429.906
aVp1
p765
aS'utopia'
p766
aS'#656565'
p767
aF8.88595
aI0
aI00
aI00
aI01
aI01
aI01
aI00
aI00
aI00
aa(lp768
I234378
aF403.751
aF429.906
aVp1
p769
aS'utopia'
p770
aS'#656565'
p771
aF8.88595
aI0
aI00
aI00
aI01
aI01
aI01
aI00
aI00
aI00
aa(lp772
I234378
aF414.859
aF429.906
aVp1
p773
aS'utopia'
p774
aS'#656565'
p775
aF8.88595
aI0
aI00
aI00
aI01
aI01
aI01
aI00
aI00
aI00
aa(lp776
I82809
aF425.966
aF429.906
aVp1
p777
aS'utopia'
p778
aS'#656565'
p779
aF8.88595
aI0
aI01
aI00
aI00
aI00
aI00
aI00
aI00
aI00
aa(lp780
I108443
aF464.472
aF429.906
aVp1
p781
aS'utopia'
p782
aS'#656565'
p783
aF8.88595
aI0
aI01
aI00
aI00
aI00
aI00
aI00
aI00
aI00
aa(lp784
I234378
aF494.092
aF429.906
aVp1
p785
aS'utopia'
p786
aS'#656565'
p787
aF8.88595
aI0
aI00
aI00
aI00
aI00
aI00
aI00
aI00
aI00
aa(lp788
I230812
aF498.12834285714285
aF429.906
ag785
aS'utopia'
p789
aS'#656565'
p790
aF8.88595
aI0
aI00
aI00
aI00
aI00
aI00
aI00
aI00
aI00
aa(lp791
I234378
aF514.2737142857143
aF429.906
ag785
aS'utopia'
p792
aS'#656565'
p793
aF8.88595
aI0
aI00
aI00
aI00
aI00
aI00
aI00
aI00
aI00
aa(lp794
I234378
aF518.3100571428571
aF429.906
ag785
aS'utopia'
p795
aS'#656565'
p796
aF8.88595
aI0
aI00
aI00
aI00
aI00
aI00
aI00
aI00
aI00
aa(lp797
I234378
aF40.9084
aF440.273
aVp1
p798
aS'utopia'
p799
aS'#656565'
p800
aF8.88595
aI0
aI00
aI00
aI01
aI01
aI01
aI00
aI00
aI00
aa(lp801
I110717
aF87.5597
aF440.273
aVp1
p802
aS'utopia'
p803
aS'#656565'
p804
aF8.88595
aI0
aI00
aI00
aI00
aI00
aI00
aI00
aI00
aI00
aa(lp805
I194354
aF123.844
aF440.273
aVp1
p806
aS'utopia'
p807
aS'#656565'
p808
aF8.88595
aI0
aI00
aI00
aI00
aI00
aI00
aI00
aI00
aI00
aa(lp809
I234378
aF138.654
aF440.273
aVp1
p810
aS'utopia'
p811
aS'#656565'
p812
aF8.88595
aI0
aI00
aI00
aI00
aI00
aI00
aI00
aI00
aI00
aa(lp813
I183172
aF173.457
aF440.273
aVp1
p814
aS'utopia'
p815
aS'#656565'
p816
aF8.88595
aI0
aI00
aI00
aI00
aI00
aI00
aI00
aI00
aI00
aa(lp817
I169745
aF205.299
aF440.273
aVp1
p818
aS'utopia'
p819
aS'#656565'
p820
aF8.88595
aI0
aI00
aI00
aI00
aI00
aI00
aI00
aI00
aI00
aa(lp821
I46544
aF224.551
aF440.273
aVp1
p822
aS'utopia'
p823
aS'#656565'
p824
aF8.88595
aI0
aI00
aI00
aI00
aI00
aI00
aI00
aI00
aI00
aa(lp825
I169404
aF240.842
aF440.273
aVp1
p826
aS'utopia'
p827
aS'#656565'
p828
aF8.88595
aI0
aI00
aI00
aI00
aI00
aI00
aI00
aI00
aI00
aa(lp829
I234378
aF260.095
aF440.273
aVp1
p830
aS'utopia'
p831
aS'#656565'
p832
aF8.88595
aI0
aI01
aI00
aI00
aI00
aI00
aI00
aI00
aI00
aa(lp833
I234378
aF290.0010125
aF440.273
ag830
aS'utopia'
p834
aS'#656565'
p835
aF8.88595
aI0
aI00
aI00
aI00
aI00
aI00
aI00
aI00
aI00
aa(lp836
I234378
aF296.379
aF440.273
aVp1
p837
aS'utopia'
p838
aS'#656565'
p839
aF8.88595
aI0
aI01
aI00
aI00
aI00
aI00
aI00
aI00
aI00
aa(lp840
I234378
aF321.556
aF440.273
aVp1
p841
aS'utopia'
p842
aS'#656565'
p843
aF8.88595
aI0
aI01
aI00
aI00
aI00
aI00
aI00
aI00
aI00
aa(lp844
I234378
aF351.917
aF440.273
aVp1
p845
aS'utopia'
p846
aS'#656565'
p847
aF8.88595
aI0
aI00
aI00
aI01
aI01
aI01
aI00
aI00
aI00
aa(lp848
I234378
aF367.467
aF440.273
aVp1
p849
aS'utopia'
p850
aS'#656565'
p851
aF8.88595
aI0
aI00
aI00
aI01
aI01
aI01
aI00
aI00
aI00
aa(lp852
I234378
aF383.018
aF440.273
aVp1
p853
aS'utopia'
p854
aS'#656565'
p855
aF8.88595
aI0
aI00
aI00
aI01
aI01
aI01
aI00
aI00
aI00
aa(lp856
I234378
aF394.125
aF440.273
aVp1
p857
aS'utopia'
p858
aS'#656565'
p859
aF8.88595
aI0
aI00
aI00
aI01
aI01
aI01
aI00
aI00
aI00
aa(lp860
I48671
aF40.9084
aF450.64
aVp1
p861
aS'utopia'
p862
aS'#656565'
p863
aF8.88595
aI0
aI01
aI00
aI00
aI00
aI00
aI00
aI00
aI00
aa(lp864
I129688
aF69.0473
aF450.64
aVp1
p865
aS'utopia'
p866
aS'#656565'
p867
aF8.88595
aI0
aI01
aI00
aI00
aI00
aI00
aI00
aI00
aI00
aa(lp868
I234378
aF97.1861
aF450.64
aVp1
p869
aS'utopia'
p870
aS'#656565'
p871
aF8.88595
aI0
aI00
aI00
aI00
aI00
aI00
aI00
aI00
aI00
aa(lp872
I234378
aF101.629
aF450.64
aVp1
p873
aS'utopia'
p874
aS'#656565'
p875
aF8.88595
aI0
aI00
aI00
aI01
aI01
aI00
aI00
aI00
aI00
aa(lp876
I234378
aF108.294
aF450.64
aVp1
p877
aS'utopia'
p878
aS'#656565'
p879
aF8.88595
aI0
aI01
aI00
aI00
aI00
aI00
aI00
aI00
aI00
aa(lp880
I124531
aF40.1679
aF486.201
aVp1
p881
aS'utopia'
p882
aS'#02304b'
p883
aF11.8479
aI1
aI01
aI00
aI00
aI00
aI00
aI00
aI00
aI00
aa(lp884
I209062
aF40.9084
aF514.485
aVp1
p885
aS'utopia'
p886
aS'#656565'
p887
aF10.3669
aI0
aI01
aI00
aI00
aI00
aI00
aI00
aI00
aI00
aa(lp888
I234378
aF63.1233
aF514.485
aVp1
p889
aS'utopia'
p890
aS'#656565'
p891
aF10.3669
aI0
aI01
aI00
aI00
aI00
aI00
aI00
aI00
aI00
aa(lp892
I234378
aF111.996
aF514.485
aVp1
p893
aS'utopia'
p894
aS'#656565'
p895
aF10.3669
aI0
aI00
aI00
aI00
aI00
aI00
aI00
aI00
aI00
aa(lp896
I60201
aF117.92
aF514.485
aVp1
p897
aS'utopia'
p898
aS'#656565'
p899
aF10.3669
aI0
aI01
aI00
aI00
aI00
aI00
aI00
aI00
aI00
aa(lp900
I230071
aF137.913
aF514.485
aVp1
p901
aS'utopia'
p902
aS'#656565'
p903
aF10.3669
aI0
aI01
aI00
aI00
aI00
aI00
aI00
aI00
aI00
aa(lp904
I234378
aF164.571
aF514.485
aVp1
p905
aS'utopia'
p906
aS'#656565'
p907
aF10.3669
aI0
aI00
aI00
aI00
aI00
aI00
aI00
aI00
aI00
aa(lp908
I234378
aF40.9084
aF530.507
aVp1
p909
aS'utopia'
p910
aS'#000000'
p911
aF10.3669
aI1
aI01
aI01
aI00
aI00
aI00
aI00
aI00
aI00
aa(lp912
I234378
aF66.8258
aF530.507
aVp1
p913
aS'utopia'
p914
aS'#000000'
p915
aF10.3669
aI1
aI00
aI00
aI00
aI00
aI00
aI00
aI00
aI00
aa(lp916
I234378
aF72.41775454545454
aF530.507
ag913
aS'utopia'
p917
aS'#000000'
p918
aF10.3669
aI1
aI01
aI00
aI00
aI00
aI00
aI00
aI00
aI00
aa(lp919
I234378
aF122.74534545454544
aF530.507
ag913
aS'utopia'
p920
aS'#000000'
p921
aF10.3669
aI1
aI00
aI00
aI00
aI00
aI00
aI00
aI00
aI00
aa(lp922
I234378
aF40.9084
aF550.769
aVp1
p923
aS'utopia'
p924
aS'#656565'
p925
aF10.3669
aI0
aI01
aI00
aI00
aI00
aI00
aI00
aI00
aI00
aa(lp926
I153079
aF85.3382
aF550.769
aVp1
p927
aS'utopia'
p928
aS'#656565'
p929
aF10.3669
aI0
aI01
aI00
aI00
aI00
aI00
aI00
aI00
aI00
aa(lp930
I135639
aF140.135
aF550.769
aVp1
p931
aS'utopia'
p932
aS'#656565'
p933
aF10.3669
aI0
aI00
aI00
aI00
aI00
aI00
aI00
aI00
aI00
aa(lp934
I234378
aF151.983
aF550.769
aVp1
p935
aS'utopia'
p936
aS'#656565'
p937
aF10.3669
aI0
aI00
aI00
aI01
aI01
aI01
aI00
aI00
aI00
aa(lp938
I234378
aF40.9084
aF578.908
aVp1
p939
aS'utopia'
p940
aS'#656565'
p941
aF10.3669
aI0
aI01
aI00
aI00
aI00
aI00
aI00
aI00
aI00
aa(lp942
I234378
aF117.18
aF578.908
aVp1
p943
aS'utopia'
p944
aS'#656565'
p945
aF10.3669
aI0
aI00
aI00
aI00
aI00
aI00
aI00
aI00
aI00
aa(lp946
I60201
aF123.103
aF578.908
aVp1
p947
aS'utopia'
p948
aS'#656565'
p949
aF10.3669
aI0
aI01
aI00
aI00
aI00
aI00
aI00
aI00
aI00
aa(lp950
I230071
aF143.097
aF578.908
aVp1
p951
aS'utopia'
p952
aS'#656565'
p953
aF10.3669
aI0
aI01
aI00
aI00
aI00
aI00
aI00
aI00
aI00
aa(lp954
I234378
aF169.755
aF578.908
aVp1
p955
aS'utopia'
p956
aS'#656565'
p957
aF10.3669
aI0
aI00
aI00
aI00
aI00
aI00
aI00
aI00
aI00
aa(lp958
I234378
aF40.9084
aF594.93
aVp1
p959
aS'utopia'
p960
aS'#000000'
p961
aF10.3669
aI1
aI01
aI01
aI00
aI00
aI00
aI00
aI00
aI00
aa(lp962
I234378
aF64.6043
aF594.93
aVp1
p963
aS'utopia'
p964
aS'#000000'
p965
aF10.3669
aI1
aI00
aI00
aI00
aI00
aI00
aI00
aI00
aI00
aa(lp966
I234378
aF70.19625454545454
aF594.93
ag963
aS'utopia'
p967
aS'#000000'
p968
aF10.3669
aI1
aI01
aI00
aI00
aI00
aI00
aI00
aI00
aI00
aa(lp969
I234378
aF120.52384545454544
aF594.93
ag963
aS'utopia'
p970
aS'#000000'
p971
aF10.3669
aI1
aI00
aI00
aI00
aI00
aI00
aI00
aI00
aI00
aa(lp972
I234378
aF40.9084
aF615.193
aVp1
p973
aS'utopia'
p974
aS'#656565'
p975
aF10.3669
aI0
aI01
aI00
aI00
aI00
aI00
aI00
aI00
aI00
aa(lp976
I153079
aF85.3382
aF615.193
aVp1
p977
aS'utopia'
p978
aS'#656565'
p979
aF10.3669
aI0
aI01
aI00
aI00
aI00
aI00
aI00
aI00
aI00
aa(lp980
I135639
aF140.135
aF615.193
aVp1
p981
aS'utopia'
p982
aS'#656565'
p983
aF10.3669
aI0
aI00
aI00
aI00
aI00
aI00
aI00
aI00
aI00
aa(lp984
I234378
aF151.983
aF615.193
aVp1
p985
aS'utopia'
p986
aS'#656565'
p987
aF10.3669
aI0
aI00
aI00
aI01
aI01
aI01
aI00
aI00
aI00
aa(lp988
I22476
aF40.1679
aF649.11
aVp1
p989
aS'utopia'
p990
aS'#02304b'
p991
aF11.8479
aI1
aI01
aI01
aI00
aI00
aI00
aI00
aI00
aI00
aa(lp992
I234378
aF54.2374
aF649.11
aVp1
p993
aS'utopia'
p994
aS'#02304b'
p995
aF11.8479
aI1
aI01
aI00
aI00
aI00
aI00
aI00
aI00
aI00
aa(lp996
I109610
aF48.3134
aF677.0
aVp1
p997
aS'utopia'
p998
aS'#000000'
p999
aF8.88595
aI1
aI01
aI00
aI00
aI00
aI00
aI00
aI00
aI00
aa(lp1000
I158577
aF69.7878
aF677.0
aVp1
p1001
aS'utopia'
p1002
aS'#000000'
p1003
aF8.88595
aI1
aI01
aI00
aI00
aI00
aI00
aI00
aI00
aI00
aa(lp1004
I194179
aF188.267
aF677.0
aVp1
p1005
aS'utopia'
p1006
aS'#000000'
p1007
aF8.88595
aI1
aI01
aI00
aI00
aI00
aI00
aI00
aI00
aI00
aa(lp1008
I177981
aF305.265
aF677.0
aVp1
p1009
aS'utopia'
p1010
aS'#000000'
p1011
aF8.88595
aI1
aI01
aI00
aI00
aI00
aI00
aI00
aI00
aI00
aa(lp1012
I25729
aF324.518
aF677.0
aVp1
p1013
aS'utopia'
p1014
aS'#000000'
p1015
aF8.88595
aI1
aI01
aI00
aI00
aI00
aI00
aI00
aI00
aI00
aa(lp1016
I60220
aF412.637
aF677.0
aVp1
p1017
aS'utopia'
p1018
aS'#000000'
p1019
aF8.88595
aI1
aI01
aI00
aI00
aI00
aI00
aI00
aI00
aI00
aa(lp1020
I148996
aF48.3134
aF695.744
aVp1
p1021
aS'utopia'
p1022
aS'#656565'
p1023
aF8.88595
aI0
aI01
aI00
aI00
aI00
aI00
aI00
aI00
aI00
aa(lp1024
I234378
aF188.267
aF695.744
aVp1
p1025
aS'utopia'
p1026
aS'#656565'
p1027
aF8.88595
aI0
aI00
aI00
aI01
aI01
aI00
aI00
aI00
aI00
aa(lp1028
I234378
aF192.0465
aF695.744
ag1025
aS'utopia'
p1029
aS'#656565'
p1030
aF8.88595
aI0
aI00
aI00
aI00
aI00
aI00
aI00
aI00
aI00
aa(lp1031
I234378
aF195.82600000000002
aF695.744
ag1025
aS'utopia'
p1032
aS'#656565'
p1033
aF8.88595
aI0
aI00
aI00
aI01
aI01
aI00
aI00
aI00
aI00
aa(lp1034
I234378
aF317.113
aF695.744
aVp1
p1035
aS'utopia'
p1036
aS'#656565'
p1037
aF8.88595
aI0
aI00
aI00
aI01
aI01
aI01
aI00
aI00
aI00
aa(lp1038
I234378
aF403.011
aF695.744
aVp1
p1039
aS'utopia'
p1040
aS'#656565'
p1041
aF8.88595
aI0
aI00
aI00
aI01
aI01
aI00
aI00
aI00
aI00
aa(lp1042
I234378
aF409.675
aF695.744
aVp1
p1043
aS'utopia'
p1044
aS'#656565'
p1045
aF8.88595
aI0
aI01
aI00
aI00
aI00
aI00
aI00
aI00
aI00
aa(lp1046
I234378
aF433.371
aF695.744
aVp1
p1047
aS'utopia'
p1048
aS'#656565'
p1049
aF8.88595
aI0
aI00
aI00
aI01
aI01
aI00
aI00
aI00
aI00
aa(lp1050
I234378
aF440.036
aF695.744
aVp1
p1051
aS'utopia'
p1052
aS'#656565'
p1053
aF8.88595
aI0
aI01
aI00
aI00
aI00
aI00
aI00
aI00
aI00
aa(lp1054
I89217
aF48.3134
aF714.256
aVp1
p1055
aS'utopia'
p1056
aS'#656565'
p1057
aF8.88595
aI0
aI01
aI01
aI00
aI00
aI00
aI00
aI00
aI00
aa(lp1058
I234378
aF188.267
aF714.256
aVp1
p1059
aS'utopia'
p1060
aS'#656565'
p1061
aF8.88595
aI0
aI00
aI00
aI01
aI01
aI00
aI00
aI00
aI00
aa(lp1062
I234378
aF317.113
aF714.256
aVp1
p1063
aS'utopia'
p1064
aS'#656565'
p1065
aF8.88595
aI0
aI00
aI00
aI01
aI01
aI01
aI00
aI00
aI00
aa(lp1066
I234378
aF403.011
aF714.256
aVp1
p1067
aS'utopia'
p1068
aS'#656565'
p1069
aF8.88595
aI0
aI00
aI00
aI01
aI01
aI00
aI00
aI00
aI00
aa(lp1070
I234378
aF409.675
aF714.256
aVp1
p1071
aS'utopia'
p1072
aS'#656565'
p1073
aF8.88595
aI0
aI01
aI00
aI00
aI00
aI00
aI00
aI00
aI00
aa(lp1074
I234378
aF433.371
aF714.256
aVp1
p1075
aS'utopia'
p1076
aS'#656565'
p1077
aF8.88595
aI0
aI00
aI00
aI01
aI01
aI00
aI00
aI00
aI00
aa(lp1078
I234378
aF440.036
aF714.256
aVp1
p1079
aS'utopia'
p1080
aS'#656565'
p1081
aF8.88595
aI0
aI01
aI00
aI00
aI00
aI00
aI00
aI00
aI00
aa(lp1082
I45445
aF48.3134
aF732.769
aVp1
p1083
aS'utopia'
p1084
aS'#656565'
p1085
aF8.88595
aI0
aI01
aI01
aI00
aI00
aI00
aI00
aI00
aI00
aa(lp1086
I234378
aF85.3382
aF732.769
aVp1
p1087
aS'utopia'
p1088
aS'#656565'
p1089
aF8.88595
aI0
aI00
aI01
aI01
aI00
aI00
aI00
aI00
aI00
aa(lp1090
I234378
aF188.267
aF732.769
aVp1
p1091
aS'utopia'
p1092
aS'#656565'
p1093
aF8.88595
aI0
aI00
aI00
aI01
aI00
aI00
aI00
aI00
aI00
aa(lp1094
I234378
aF195.71936666666667
aF732.769
ag1091
aS'utopia'
p1095
aS'#656565'
p1096
aF8.88595
aI0
aI00
aI00
aI00
aI00
aI00
aI00
aI00
aI00
aa(lp1097
I234378
aF199.44555
aF732.769
ag1091
aS'utopia'
p1098
aS'#656565'
p1099
aF8.88595
aI0
aI00
aI00
aI01
aI00
aI00
aI00
aI00
aI00
aa(lp1100
I234378
aF317.113
aF732.769
aVp1
p1101
aS'utopia'
p1102
aS'#656565'
p1103
aF8.88595
aI0
aI00
aI00
aI01
aI01
aI01
aI00
aI00
aI00
aa(lp1104
I234378
aF422.264
aF732.769
aVp1
p1105
aS'utopia'
p1106
aS'#656565'
p1107
aF8.88595
aI0
aI00
aI00
aI01
aI01
aI00
aI00
aI00
aI00
aa(lp1108
I234378
aF428.928
aF732.769
aVp1
p1109
aS'utopia'
p1110
aS'#656565'
p1111
aF8.88595
aI0
aI01
aI00
aI00
aI00
aI00
aI00
aI00
aI00
aa(lp1112
I234378
aF48.3134
aF751.281
aVp1
p1113
aS'utopia'
p1114
aS'#656565'
p1115
aF8.88595
aI0
aI01
aI01
aI00
aI00
aI00
aI00
aI00
aI00
aa(lp1116
I234378
aF317.113
aF751.281
aVp1
p1117
aS'utopia'
p1118
aS'#656565'
p1119
aF8.88595
aI0
aI00
aI00
aI01
aI01
aI01
aI00
aI00
aI00
aa(lp1120
I234378
aF422.264
aF751.281
aVp1
p1121
aS'utopia'
p1122
aS'#656565'
p1123
aF8.88595
aI0
aI00
aI00
aI01
aI01
aI00
aI00
aI00
aI00
aa(lp1124
I234378
aF428.928
aF751.281
aVp1
p1125
aS'utopia'
p1126
aS'#656565'
p1127
aF8.88595
aI0
aI01
aI00
aI00
aI00
aI00
aI00
aI00
aI00
aa(lp1128
I234378
aF48.3134
aF769.793
aVp1
p1129
aS'utopia'
p1130
aS'#656565'
p1131
aF8.88595
aI0
aI01
aI01
aI00
aI00
aI00
aI00
aI00
aI00
aa(lp1132
I234378
aF317.113
aF769.793
aVp1
p1133
aS'utopia'
p1134
aS'#656565'
p1135
aF8.88595
aI0
aI00
aI00
aI01
aI01
aI01
aI00
aI00
aI00
aa(lp1136
I21716
aF48.3134
aF788.306
aVp1
p1137
aS'utopia'
p1138
aS'#656565'
p1139
aF8.88595
aI0
aI01
aI01
aI00
aI00
aI00
aI00
aI00
aI00
aa(lp1140
I234378
aF66.4842
aF788.306
ag1137
aS'utopia'
p1141
aS'#656565'
p1142
aF8.88595
aI0
aI00
aI00
aI00
aI00
aI00
aI00
aI00
aI00
aa(lp1143
I234378
aF71.0269
aF788.306
ag1137
aS'utopia'
p1144
aS'#656565'
p1145
aF8.88595
aI0
aI01
aI01
aI01
aI00
aI00
aI00
aI00
aI00
aa(lp1146
I234378
aF317.113
aF788.306
aVp1
p1147
aS'utopia'
p1148
aS'#656565'
p1149
aF8.88595
aI0
aI00
aI00
aI01
aI01
aI01
aI00
aI00
aI00
aa(lp1150
I234378
aF48.3134
aF28.557
aVp2
p1151
aS'utopia'
p1152
aS'#656565'
p1153
aF8.88595
aI0
aI01
aI01
aI00
aI00
aI00
aI00
aI00
aI00
aa(lp1154
I234378
aF188.267
aF28.557
aVp2
p1155
aS'utopia'
p1156
aS'#656565'
p1157
aF8.88595
aI0
aI00
aI00
aI01
aI01
aI00
aI00
aI00
aI00
aa(lp1158
I234378
aF317.113
aF28.557
aVp2
p1159
aS'utopia'
p1160
aS'#656565'
p1161
aF8.88595
aI0
aI00
aI00
aI01
aI01
aI01
aI00
aI00
aI00
aa(lp1162
I234378
aF48.3134
aF47.0694
aVp2
p1163
aS'utopia'
p1164
aS'#656565'
p1165
aF8.88595
aI0
aI01
aI01
aI00
aI00
aI00
aI00
aI00
aI00
aa(lp1166
I234378
aF62.3532125
aF47.0694
ag1163
aS'utopia'
p1167
aS'#656565'
p1168
aF8.88595
aI0
aI00
aI00
aI00
aI00
aI00
aI00
aI00
aI00
aa(lp1169
I21716
aF67.03314999999999
aF47.0694
ag1163
aS'utopia'
p1170
aS'#656565'
p1171
aF8.88595
aI0
aI01
aI01
aI00
aI00
aI00
aI00
aI00
aI00
aa(lp1172
I115862
aF88.3002
aF47.0694
aVp2
p1173
aS'utopia'
p1174
aS'#656565'
p1175
aF8.88595
aI0
aI01
aI01
aI00
aI00
aI00
aI00
aI00
aI00
aa(lp1176
I234378
aF317.113
aF47.0694
aVp2
p1177
aS'utopia'
p1178
aS'#656565'
p1179
aF8.88595
aI0
aI00
aI00
aI01
aI01
aI01
aI00
aI00
aI00
aa(lp1180
I234378
aF48.3134
aF65.5818
aVp2
p1181
aS'utopia'
p1182
aS'#656565'
p1183
aF8.88595
aI0
aI01
aI01
aI00
aI00
aI00
aI00
aI00
aI00
aa(lp1184
I234378
aF317.113
aF65.5818
aVp2
p1185
aS'utopia'
p1186
aS'#656565'
p1187
aF8.88595
aI0
aI00
aI00
aI01
aI01
aI01
aI00
aI00
aI00
aa(lp1188
I195166
aF40.1679
aF115.953
aVp2
p1189
aS'utopia'
p1190
aS'#02304b'
p1191
aF11.8479
aI1
aI01
aI00
aI00
aI00
aI00
aI00
aI00
aI00
aa(lp1192
I136346
aF96.4456
aF115.953
aVp2
p1193
aS'utopia'
p1194
aS'#02304b'
p1195
aF11.8479
aI1
aI01
aI00
aI00
aI00
aI00
aI00
aI00
aI00
aa(lp1196
I195166
aF48.3134
aF143.843
aVp2
p1197
aS'utopia'
p1198
aS'#000000'
p1199
aF8.88595
aI1
aI01
aI00
aI00
aI00
aI00
aI00
aI00
aI00
aa(lp1200
I164378
aF177.16
aF143.843
aVp2
p1201
aS'utopia'
p1202
aS'#000000'
p1203
aF8.88595
aI1
aI01
aI00
aI00
aI00
aI00
aI00
aI00
aI00
aa(lp1204
I175077
aF296.379
aF143.843
aVp2
p1205
aS'utopia'
p1206
aS'#000000'
p1207
aF8.88595
aI1
aI01
aI00
aI00
aI00
aI00
aI00
aI00
aI00
aa(lp1208
I224291
aF397.087
aF143.843
aVp2
p1209
aS'utopia'
p1210
aS'#000000'
p1211
aF8.88595
aI1
aI01
aI00
aI00
aI00
aI00
aI00
aI00
aI00
aa(lp1212
I165206
aF497.054
aF143.843
aVp2
p1213
aS'utopia'
p1214
aS'#000000'
p1215
aF8.88595
aI1
aI01
aI00
aI00
aI00
aI00
aI00
aI00
aI00
aa(lp1216
I58002
aF48.3134
aF162.587
aVp2
p1217
aS'utopia'
p1218
aS'#656565'
p1219
aF8.88595
aI0
aI01
aI00
aI00
aI00
aI00
aI00
aI00
aI00
aa(lp1220
I185159
aF177.16
aF162.587
aVp2
p1221
aS'utopia'
p1222
aS'#656565'
p1223
aF8.88595
aI0
aI01
aI00
aI00
aI00
aI00
aI00
aI00
aI00
aa(lp1224
I144532
aF48.3134
aF181.099
aVp2
p1225
aS'utopia'
p1226
aS'#656565'
p1227
aF8.88595
aI0
aI01
aI00
aI00
aI00
aI00
aI00
aI00
aI00
aa(lp1228
I185159
aF177.16
aF181.099
aVp2
p1229
aS'utopia'
p1230
aS'#656565'
p1231
aF8.88595
aI0
aI01
aI00
aI00
aI00
aI00
aI00
aI00
aI00
aa(lp1232
I106589
aF48.3134
aF199.611
aVp2
p1233
aS'utopia'
p1234
aS'#656565'
p1235
aF8.88595
aI0
aI01
aI00
aI00
aI00
aI00
aI00
aI00
aI00
aa(lp1236
I185159
aF177.16
aF199.611
aVp2
p1237
aS'utopia'
p1238
aS'#656565'
p1239
aF8.88595
aI0
aI01
aI00
aI00
aI00
aI00
aI00
aI00
aI00
aa(lp1240
I234378
aF40.1679
aF34.4987
aVp3
p1241
aS'utopia'
p1242
aS'#02304b'
p1243
aF11.8479
aI1
aI01
aI00
aI00
aI00
aI00
aI00
aI00
aI00
aa(lp1244
I151732
aF40.9084
aF66.2156
aVp3
p1245
aS'utopia'
p1246
aS'#000000'
p1247
aF10.3669
aI1
aI01
aI00
aI00
aI00
aI00
aI00
aI00
aI00
aa(lp1248
I220029
aF69.0473
aF66.2156
aVp3
p1249
aS'utopia'
p1250
aS'#000000'
p1251
aF10.3669
aI1
aI01
aI00
aI00
aI00
aI00
aI00
aI00
aI00
aa(lp1252
I51933
aF123.844
aF66.2156
aVp3
p1253
aS'utopia'
p1254
aS'#000000'
p1255
aF10.3669
aI1
aI01
aI00
aI00
aI00
aI00
aI00
aI00
aI00
aa(lp1256
I136661
aF151.983
aF66.2156
aVp3
p1257
aS'utopia'
p1258
aS'#000000'
p1259
aF10.3669
aI1
aI00
aI00
aI00
aI00
aI00
aI00
aI00
aI00
aa(lp1260
I234378
aF181.603
aF66.2156
aVp3
p1261
aS'utopia'
p1262
aS'#000000'
p1263
aF10.3669
aI1
aI00
aI00
aI00
aI00
aI00
aI00
aI00
aI00
aa(lp1264
I234378
aF187.98134000000002
aF66.2156
ag1261
aS'utopia'
p1265
aS'#000000'
p1266
aF10.3669
aI1
aI01
aI01
aI00
aI00
aI00
aI00
aI00
aI00
aa(lp1267
I234378
aF207.11636000000001
aF66.2156
ag1261
aS'utopia'
p1268
aS'#000000'
p1269
aF10.3669
aI1
aI00
aI00
aI00
aI00
aI00
aI00
aI00
aI00
aa(lp1270
I151732
aF40.9084
aF82.7761
aVp3
p1271
aS'utopia'
p1272
aS'#656565'
p1273
aF10.3669
aI0
aI01
aI00
aI00
aI00
aI00
aI00
aI00
aI00
aa(lp1274
I234378
aF69.0473
aF82.7761
aVp3
p1275
aS'utopia'
p1276
aS'#656565'
p1277
aF10.3669
aI0
aI01
aI00
aI00
aI00
aI00
aI00
aI00
aI00
aa(lp1278
I234378
aF105.1255625
aF82.7761
ag1275
aS'utopia'
p1279
aS'#656565'
p1280
aF10.3669
aI0
aI00
aI00
aI00
aI00
aI00
aI00
aI00
aI00
aa(lp1281
I31679
aF112.737
aF82.7761
aVp3
p1282
aS'utopia'
p1283
aS'#656565'
p1284
aF10.3669
aI0
aI01
aI01
aI00
aI00
aI00
aI00
aI00
aI00
aa(lp1285
I234378
aF133.47
aF82.7761
aVp3
p1286
aS'utopia'
p1287
aS'#656565'
p1288
aF10.3669
aI0
aI01
aI00
aI00
aI00
aI00
aI00
aI00
aI00
aa(lp1289
I60201
aF170.495
aF82.7761
aVp3
p1290
aS'utopia'
p1291
aS'#656565'
p1292
aF10.3669
aI0
aI01
aI00
aI00
aI00
aI00
aI00
aI00
aI00
aa(lp1293
I230071
aF190.489
aF82.7761
aVp3
p1294
aS'utopia'
p1295
aS'#656565'
p1296
aF10.3669
aI0
aI01
aI00
aI00
aI00
aI00
aI00
aI00
aI00
aa(lp1297
I131049
aF221.589
aF82.7761
aVp3
p1298
aS'utopia'
p1299
aS'#656565'
p1300
aF10.3669
aI0
aI00
aI00
aI00
aI00
aI00
aI00
aI00
aI00
aa(lp1301
I234378
aF246.026
aF82.7761
aVp3
p1302
aS'utopia'
p1303
aS'#656565'
p1304
aF10.3669
aI0
aI01
aI00
aI00
aI00
aI00
aI00
aI00
aI01
aa(lp1305
I234378
aF267.5
aF82.7761
aVp3
p1306
aS'utopia'
p1307
aS'#656565'
p1308
aF10.3669
aI0
aI00
aI00
aI01
aI01
aI01
aI00
aI00
aI00
aa(lp1309
I89480
aF290.456
aF82.7761
aVp3
p1310
aS'utopia'
p1311
aS'#656565'
p1312
aF10.3669
aI0
aI00
aI00
aI00
aI00
aI00
aI00
aI00
aI00
aa(lp1313
I37510
aF302.303
aF82.7761
aVp3
p1314
aS'utopia'
p1315
aS'#656565'
p1316
aF10.3669
aI0
aI01
aI00
aI00
aI00
aI00
aI00
aI00
aI01
aa(lp1317
I234378
aF323.037
aF82.7761
aVp3
p1318
aS'utopia'
p1319
aS'#656565'
p1320
aF10.3669
aI0
aI00
aI00
aI01
aI01
aI01
aI00
aI00
aI00
aa(lp1321
I164802
aF40.9084
aF99.067
aVp3
p1322
aS'utopia'
p1323
aS'#656565'
p1324
aF10.3669
aI0
aI00
aI00
aI00
aI00
aI00
aI00
aI00
aI00
aa(lp1325
I109610
aF40.9084
aF115.195
aVp3
p1326
aS'utopia'
p1327
aS'#656565'
p1328
aF8.88595
aI0
aI01
aI00
aI00
aI00
aI00
aI00
aI00
aI00
aa(lp1329
I25729
aF58.6803
aF115.195
aVp3
p1330
aS'utopia'
p1331
aS'#656565'
p1332
aF8.88595
aI0
aI01
aI00
aI00
aI00
aI00
aI00
aI00
aI00
aa(lp1333
I234378
aF76.54462000000001
aF115.195
ag1330
aS'utopia'
p1334
aS'#656565'
p1335
aF8.88595
aI0
aI00
aI00
aI00
aI00
aI00
aI00
aI00
aI00
aa(lp1336
I148996
aF85.3382
aF115.195
aVp3
p1337
aS'utopia'
p1338
aS'#656565'
p1339
aF8.88595
aI0
aI01
aI00
aI00
aI00
aI00
aI00
aI00
aI00
aa(lp1340
I234378
aF112.737
aF115.195
aVp3
p1341
aS'utopia'
p1342
aS'#656565'
p1343
aF8.88595
aI0
aI01
aI01
aI00
aI00
aI00
aI00
aI00
aI00
aa(lp1344
I234378
aF129.4848
aF115.195
ag1341
aS'utopia'
p1345
aS'#656565'
p1346
aF8.88595
aI0
aI00
aI00
aI00
aI00
aI00
aI00
aI00
aI00
aa(lp1347
I234378
aF137.173
aF115.195
aVp3
p1348
aS'utopia'
p1349
aS'#656565'
p1350
aF8.88595
aI0
aI01
aI00
aI00
aI00
aI00
aI00
aI00
aI00
aa(lp1351
I234378
aF161.33541666666667
aF115.195
ag1348
aS'utopia'
p1352
aS'#656565'
p1353
aF8.88595
aI0
aI00
aI00
aI00
aI00
aI00
aI00
aI00
aI00
aa(lp1354
I234378
aF168.274
aF115.195
aVp3
p1355
aS'utopia'
p1356
aS'#656565'
p1357
aF8.88595
aI0
aI01
aI01
aI00
aI00
aI00
aI00
aI00
aI00
aa(lp1358
I234378
aF183.91105
aF115.195
ag1355
aS'utopia'
p1359
aS'#656565'
p1360
aF8.88595
aI0
aI00
aI00
aI00
aI00
aI00
aI00
aI00
aI00
aa(lp1361
I196920
aF191.229
aF115.195
aVp3
p1362
aS'utopia'
p1363
aS'#656565'
p1364
aF8.88595
aI0
aI01
aI00
aI00
aI00
aI00
aI00
aI00
aI00
aa(lp1365
I234378
aF217.146
aF115.195
aVp3
p1366
aS'utopia'
p1367
aS'#656565'
p1368
aF8.88595
aI0
aI01
aI01
aI00
aI00
aI00
aI00
aI00
aI00
aa(lp1369
I234378
aF232.3798
aF115.195
ag1366
aS'utopia'
p1370
aS'#656565'
p1371
aF8.88595
aI0
aI01
aI01
aI00
aI00
aI00
aI00
aI00
aI00
aa(lp1372
I17350
aF247.507
aF115.195
aVp3
p1373
aS'utopia'
p1374
aS'#656565'
p1375
aF8.88595
aI0
aI01
aI00
aI00
aI00
aI00
aI00
aI00
aI00
aa(lp1376
I234378
aF267.5
aF115.195
aVp3
p1377
aS'utopia'
p1378
aS'#656565'
p1379
aF8.88595
aI0
aI01
aI00
aI00
aI00
aI00
aI00
aI00
aI00
aa(lp1380
I210461
aF40.9084
aF129.264
aVp3
p1381
aS'utopia'
p1382
aS'#656565'
p1383
aF8.88595
aI0
aI01
aI00
aI00
aI00
aI00
aI00
aI00
aI00
aa(lp1384
I340
aF65.3448
aF129.264
aVp3
p1385
aS'utopia'
p1386
aS'#656565'
p1387
aF8.88595
aI0
aI01
aI00
aI00
aI00
aI00
aI00
aI00
aI00
aa(lp1388
I234378
aF79.65472000000001
aF129.264
ag1385
aS'utopia'
p1389
aS'#656565'
p1390
aF8.88595
aI0
aI00
aI00
aI00
aI00
aI00
aI00
aI00
aI00
aa(lp1391
I234378
aF87.5597
aF129.264
aVp3
p1392
aS'utopia'
p1393
aS'#656565'
p1394
aF8.88595
aI0
aI00
aI00
aI01
aI01
aI00
aI00
aI00
aI00
aa(lp1395
I176435
aF40.9084
aF143.334
aVp3
p1396
aS'utopia'
p1397
aS'#656565'
p1398
aF8.88595
aI0
aI01
aI00
aI00
aI00
aI00
aI00
aI00
aI00
aa(lp1399
I234378
aF60.9018
aF143.334
aVp3
p1400
aS'utopia'
p1401
aS'#656565'
p1402
aF8.88595
aI0
aI00
aI00
aI00
aI00
aI00
aI00
aI00
aI00
aa(lp1403
I234378
aF67.5663
aF143.334
aVp3
p1404
aS'utopia'
p1405
aS'#656565'
p1406
aF8.88595
aI0
aI01
aI00
aI00
aI00
aI00
aI00
aI00
aI00
aa(lp1407
I234378
aF74.55463333333333
aF143.334
ag1404
aS'utopia'
p1408
aS'#656565'
p1409
aF8.88595
aI0
aI00
aI00
aI00
aI00
aI00
aI00
aI00
aI00
aa(lp1410
I150037
aF80.1547
aF143.334
aVp3
p1411
aS'utopia'
p1412
aS'#656565'
p1413
aF8.88595
aI0
aI01
aI00
aI00
aI00
aI00
aI00
aI00
aI00
aa(lp1414
I176435
aF40.9084
aF157.403
aVp3
p1415
aS'utopia'
p1416
aS'#656565'
p1417
aF8.88595
aI0
aI01
aI00
aI00
aI00
aI00
aI00
aI00
aI00
aa(lp1418
I66756
aF60.9018
aF157.403
aVp3
p1419
aS'utopia'
p1420
aS'#656565'
p1421
aF8.88595
aI0
aI01
aI00
aI00
aI00
aI00
aI00
aI00
aI00
aa(lp1422
I234378
aF105.12885833333334
aF157.403
ag1419
aS'utopia'
p1423
aS'#656565'
p1424
aF8.88595
aI0
aI00
aI00
aI00
aI00
aI00
aI00
aI00
aI00
aa(lp1425
I234378
aF113.477
aF157.403
aVp3
p1426
aS'utopia'
p1427
aS'#656565'
p1428
aF8.88595
aI0
aI01
aI00
aI00
aI00
aI00
aI00
aI00
aI00
aa(lp1429
I194354
aF154.204
aF157.403
aVp3
p1430
aS'utopia'
p1431
aS'#656565'
p1432
aF8.88595
aI0
aI00
aI00
aI00
aI00
aI00
aI00
aI00
aI00
aa(lp1433
I98580
aF169.014
aF157.403
aVp3
p1434
aS'utopia'
p1435
aS'#656565'
p1436
aF8.88595
aI0
aI00
aI00
aI00
aI00
aI00
aI00
aI00
aI00
aa(lp1437
I234378
aF211.222
aF157.403
aVp3
p1438
aS'utopia'
p1439
aS'#656565'
p1440
aF8.88595
aI0
aI00
aI00
aI00
aI00
aI00
aI00
aI00
aI00
aa(lp1441
I16331
aF266.76
aF157.403
aVp3
p1442
aS'utopia'
p1443
aS'#656565'
p1444
aF8.88595
aI0
aI00
aI00
aI00
aI00
aI00
aI00
aI00
aI00
aa(lp1445
I24385
aF277.127
aF157.403
aVp3
p1446
aS'utopia'
p1447
aS'#656565'
p1448
aF8.88595
aI0
aI00
aI00
aI00
aI00
aI00
aI00
aI00
aI00
aa(lp1449
I194354
aF292.677
aF157.403
aVp3
p1450
aS'utopia'
p1451
aS'#656565'
p1452
aF8.88595
aI0
aI00
aI00
aI00
aI00
aI00
aI00
aI00
aI00
aa(lp1453
I234378
aF307.487
aF157.403
aVp3
p1454
aS'utopia'
p1455
aS'#656565'
p1456
aF8.88595
aI0
aI00
aI00
aI00
aI00
aI00
aI00
aI00
aI00
aa(lp1457
I234378
aF358.85872307692307
aF157.403
ag1454
aS'utopia'
p1458
aS'#656565'
p1459
aF8.88595
aI0
aI00
aI00
aI00
aI00
aI00
aI00
aI00
aI00
aa(lp1460
I234378
aF365.246
aF157.403
aVp3
p1461
aS'utopia'
p1462
aS'#656565'
p1463
aF8.88595
aI0
aI01
aI00
aI00
aI00
aI00
aI00
aI00
aI00
aa(lp1464
I194354
aF411.897
aF157.403
aVp3
p1465
aS'utopia'
p1466
aS'#656565'
p1467
aF8.88595
aI0
aI00
aI00
aI00
aI00
aI00
aI00
aI00
aI00
aa(lp1468
I177958
aF426.707
aF157.403
aVp3
p1469
aS'utopia'
p1470
aS'#656565'
p1471
aF8.88595
aI0
aI00
aI00
aI00
aI00
aI00
aI00
aI00
aI00
aa(lp1472
I221291
aF457.067
aF157.403
aVp3
p1473
aS'utopia'
p1474
aS'#656565'
p1475
aF8.88595
aI0
aI00
aI00
aI00
aI00
aI00
aI00
aI00
aI00
aa(lp1476
I190806
aF478.541
aF157.403
aVp3
p1477
aS'utopia'
p1478
aS'#656565'
p1479
aF8.88595
aI0
aI00
aI00
aI00
aI00
aI00
aI00
aI00
aI00
aa(lp1480
I194354
aF492.611
aF157.403
aVp3
p1481
aS'utopia'
p1482
aS'#656565'
p1483
aF8.88595
aI0
aI00
aI00
aI00
aI00
aI00
aI00
aI00
aI00
aa(lp1484
I7938
aF507.421
aF157.403
aVp3
p1485
aS'utopia'
p1486
aS'#656565'
p1487
aF8.88595
aI0
aI00
aI00
aI00
aI00
aI00
aI00
aI00
aI00
aa(lp1488
I177958
aF40.9084
aF167.77
aVp3
p1489
aS'utopia'
p1490
aS'#656565'
p1491
aF8.88595
aI0
aI00
aI00
aI00
aI00
aI00
aI00
aI00
aI00
aa(lp1492
I234378
aF71.2688
aF167.77
aVp3
p1493
aS'utopia'
p1494
aS'#656565'
p1495
aF8.88595
aI0
aI00
aI00
aI00
aI00
aI00
aI00
aI00
aI00
aa(lp1496
I234378
aF103.118625
aF167.77
ag1493
aS'utopia'
p1497
aS'#656565'
p1498
aF8.88595
aI0
aI00
aI00
aI00
aI00
aI00
aI00
aI00
aI00
aa(lp1499
I234378
aF109.775
aF167.77
aVp3
p1500
aS'utopia'
p1501
aS'#656565'
p1502
aF8.88595
aI0
aI01
aI00
aI00
aI00
aI00
aI00
aI00
aI00
aa(lp1503
I85218
aF150.502
aF167.77
aVp3
p1504
aS'utopia'
p1505
aS'#656565'
p1506
aF8.88595
aI0
aI00
aI00
aI00
aI00
aI00
aI00
aI00
aI00
aa(lp1507
I234378
aF167.533
aF167.77
aVp3
p1508
aS'utopia'
p1509
aS'#656565'
p1510
aF8.88595
aI0
aI00
aI00
aI00
aI00
aI00
aI00
aI00
aI00
aa(lp1511
I194354
aF207.52
aF167.77
aVp3
p1512
aS'utopia'
p1513
aS'#656565'
p1514
aF8.88595
aI0
aI00
aI00
aI00
aI00
aI00
aI00
aI00
aI00
aa(lp1515
I121847
aF222.33
aF167.77
aVp3
p1516
aS'utopia'
p1517
aS'#656565'
p1518
aF8.88595
aI0
aI00
aI00
aI00
aI00
aI00
aI00
aI00
aI00
aa(lp1519
I234378
aF238.621
aF167.77
aVp3
p1520
aS'utopia'
p1521
aS'#656565'
p1522
aF8.88595
aI0
aI00
aI00
aI00
aI00
aI00
aI00
aI00
aI00
aa(lp1523
I234378
aF257.84675
aF167.77
ag1520
aS'utopia'
p1524
aS'#656565'
p1525
aF8.88595
aI0
aI00
aI00
aI00
aI00
aI00
aI00
aI00
aI00
aa(lp1526
I234378
aF263.798
aF167.77
aVp3
p1527
aS'utopia'
p1528
aS'#656565'
p1529
aF8.88595
aI0
aI01
aI00
aI00
aI00
aI00
aI00
aI00
aI00
aa(lp1530
I194354
aF321.556
aF167.77
aVp3
p1531
aS'utopia'
p1532
aS'#656565'
p1533
aF8.88595
aI0
aI00
aI00
aI00
aI00
aI00
aI00
aI00
aI00
aa(lp1534
I51694
aF336.366
aF167.77
aVp3
p1535
aS'utopia'
p1536
aS'#656565'
p1537
aF8.88595
aI0
aI00
aI00
aI00
aI00
aI00
aI00
aI00
aI00
aa(lp1538
I234378
aF368.208
aF167.77
aVp3
p1539
aS'utopia'
p1540
aS'#656565'
p1541
aF8.88595
aI0
aI00
aI00
aI00
aI00
aI00
aI00
aI00
aI00
aa(lp1542
I144483
aF388.201
aF167.77
aVp3
p1543
aS'utopia'
p1544
aS'#656565'
p1545
aF8.88595
aI0
aI00
aI00
aI00
aI00
aI00
aI00
aI00
aI00
aa(lp1546
I194354
aF400.789
aF167.77
aVp3
p1547
aS'utopia'
p1548
aS'#656565'
p1549
aF8.88595
aI0
aI00
aI00
aI00
aI00
aI00
aI00
aI00
aI00
aa(lp1550
I234378
aF415.599
aF167.77
aVp3
p1551
aS'utopia'
p1552
aS'#656565'
p1553
aF8.88595
aI0
aI00
aI00
aI00
aI00
aI00
aI00
aI00
aI00
aa(lp1554
I177958
aF458.548
aF167.77
aVp3
p1555
aS'utopia'
p1556
aS'#656565'
p1557
aF8.88595
aI0
aI00
aI00
aI00
aI00
aI00
aI00
aI00
aI00
aa(lp1558
I234378
aF488.908
aF167.77
aVp3
p1559
aS'utopia'
p1560
aS'#656565'
p1561
aF8.88595
aI0
aI00
aI00
aI00
aI00
aI00
aI00
aI00
aI00
aa(lp1562
I177958
aF40.9084
aF181.84
aVp3
p1563
aS'utopia'
p1564
aS'#656565'
p1565
aF8.88595
aI0
aI01
aI00
aI00
aI00
aI00
aI00
aI00
aI00
aa(lp1566
I234378
aF71.2688
aF181.84
aVp3
p1567
aS'utopia'
p1568
aS'#656565'
p1569
aF8.88595
aI0
aI01
aI00
aI00
aI00
aI00
aI00
aI00
aI00
aa(lp1570
I234378
aF96.6393375
aF181.84
ag1567
aS'utopia'
p1571
aS'#656565'
p1572
aF8.88595
aI0
aI00
aI00
aI00
aI00
aI00
aI00
aI00
aI00
aa(lp1573
I234378
aF104.591
aF181.84
aVp3
p1574
aS'utopia'
p1575
aS'#656565'
p1576
aF8.88595
aI0
aI01
aI00
aI00
aI00
aI00
aI00
aI00
aI00
aa(lp1577
I17350
aF147.54
aF181.84
aVp3
p1578
aS'utopia'
p1579
aS'#656565'
p1580
aF8.88595
aI0
aI00
aI00
aI00
aI00
aI00
aI00
aI00
aI00
aa(lp1581
I60220
aF166.052
aF181.84
aVp3
p1582
aS'utopia'
p1583
aS'#656565'
p1584
aF8.88595
aI0
aI00
aI00
aI00
aI00
aI00
aI00
aI00
aI00
aa(lp1585
I234378
aF211.222
aF181.84
aVp3
p1586
aS'utopia'
p1587
aS'#656565'
p1588
aF8.88595
aI0
aI00
aI00
aI00
aI00
aI00
aI00
aI00
aI00
aa(lp1589
I134051
aF246.026
aF181.84
aVp3
p1590
aS'utopia'
p1591
aS'#656565'
p1592
aF8.88595
aI0
aI00
aI00
aI00
aI00
aI00
aI00
aI00
aI00
aa(lp1593
I68365
aF290.456
aF181.84
aVp3
p1594
aS'utopia'
p1595
aS'#656565'
p1596
aF8.88595
aI0
aI00
aI00
aI00
aI00
aI00
aI00
aI00
aI00
aa(lp1597
I89480
aF317.854
aF181.84
aVp3
p1598
aS'utopia'
p1599
aS'#656565'
p1600
aF8.88595
aI0
aI00
aI00
aI00
aI00
aI00
aI00
aI00
aI00
aa(lp1601
I114954
aF328.221
aF181.84
aVp3
p1602
aS'utopia'
p1603
aS'#656565'
p1604
aF8.88595
aI0
aI00
aI00
aI00
aI00
aI00
aI00
aI00
aI00
aa(lp1605
I151732
aF363.024
aF181.84
aVp3
p1606
aS'utopia'
p1607
aS'#656565'
p1608
aF8.88595
aI0
aI01
aI00
aI00
aI00
aI00
aI00
aI00
aI00
aa(lp1609
I166245
aF386.72
aF181.84
aVp3
p1610
aS'utopia'
p1611
aS'#656565'
p1612
aF8.88595
aI0
aI00
aI00
aI00
aI00
aI00
aI00
aI00
aI00
aa(lp1613
I234378
aF422.264
aF181.84
aVp3
p1614
aS'utopia'
p1615
aS'#656565'
p1616
aF8.88595
aI0
aI00
aI00
aI00
aI00
aI00
aI00
aI00
aI00
aa(lp1617
I169745
aF471.877
aF181.84
aVp3
p1618
aS'utopia'
p1619
aS'#656565'
p1620
aF8.88595
aI0
aI00
aI00
aI00
aI00
aI00
aI00
aI00
aI00
aa(lp1621
I166593
aF491.13
aF181.84
aVp3
p1622
aS'utopia'
p1623
aS'#656565'
p1624
aF8.88595
aI0
aI00
aI00
aI00
aI00
aI00
aI00
aI00
aI00
aa(lp1625
I234378
aF497.794
aF181.84
aVp3
p1626
aS'utopia'
p1627
aS'#656565'
p1628
aF8.88595
aI0
aI00
aI00
aI00
aI00
aI00
aI00
aI00
aI00
aa(lp1629
I52628
aF40.9084
aF192.207
aVp3
p1630
aS'utopia'
p1631
aS'#656565'
p1632
aF8.88595
aI0
aI00
aI00
aI00
aI00
aI00
aI00
aI00
aI00
aa(lp1633
I144489
aF60.9018
aF192.207
aVp3
p1634
aS'utopia'
p1635
aS'#656565'
p1636
aF8.88595
aI0
aI00
aI00
aI00
aI00
aI00
aI00
aI00
aI00
aa(lp1637
I194354
aF71.2688
aF192.207
aVp3
p1638
aS'utopia'
p1639
aS'#656565'
p1640
aF8.88595
aI0
aI00
aI00
aI00
aI00
aI00
aI00
aI00
aI00
aa(lp1641
I234378
aF86.0787
aF192.207
aVp3
p1642
aS'utopia'
p1643
aS'#656565'
p1644
aF8.88595
aI0
aI00
aI00
aI00
aI00
aI00
aI00
aI00
aI00
aa(lp1645
I234378
aF103.851
aF192.207
aVp3
p1646
aS'utopia'
p1647
aS'#656565'
p1648
aF8.88595
aI0
aI00
aI00
aI00
aI00
aI00
aI00
aI00
aI00
aa(lp1649
I22474
aF148.28
aF192.207
aVp3
p1650
aS'utopia'
p1651
aS'#656565'
p1652
aF8.88595
aI0
aI00
aI00
aI00
aI00
aI00
aI00
aI00
aI00
aa(lp1653
I194354
aF156.426
aF192.207
aVp3
p1654
aS'utopia'
p1655
aS'#656565'
p1656
aF8.88595
aI0
aI00
aI00
aI00
aI00
aI00
aI00
aI00
aI00
aa(lp1657
I83693
aF171.236
aF192.207
aVp3
p1658
aS'utopia'
p1659
aS'#656565'
p1660
aF8.88595
aI0
aI00
aI00
aI00
aI00
aI00
aI00
aI00
aI00
aa(lp1661
I177958
aF194.191
aF192.207
aVp3
p1662
aS'utopia'
p1663
aS'#656565'
p1664
aF8.88595
aI0
aI00
aI00
aI00
aI00
aI00
aI00
aI00
aI00
aa(lp1665
I192651
aF224.551
aF192.207
aVp3
p1666
aS'utopia'
p1667
aS'#656565'
p1668
aF8.88595
aI0
aI00
aI00
aI00
aI00
aI00
aI00
aI00
aI00
aa(lp1669
I234378
aF236.399
aF192.207
aVp3
p1670
aS'utopia'
p1671
aS'#656565'
p1672
aF8.88595
aI0
aI00
aI00
aI00
aI00
aI00
aI00
aI00
aI00
aa(lp1673
I118865
aF259.355
aF192.207
aVp3
p1674
aS'utopia'
p1675
aS'#656565'
p1676
aF8.88595
aI0
aI00
aI00
aI00
aI00
aI00
aI00
aI00
aI00
aa(lp1677
I181401
aF283.791
aF192.207
aVp3
p1678
aS'utopia'
p1679
aS'#656565'
p1680
aF8.88595
aI0
aI00
aI00
aI00
aI00
aI00
aI00
aI00
aI00
aa(lp1681
I135639
aF301.563
aF192.207
aVp3
p1682
aS'utopia'
p1683
aS'#656565'
p1684
aF8.88595
aI0
aI00
aI00
aI00
aI00
aI00
aI00
aI00
aI00
aa(lp1685
I194354
aF311.189
aF192.207
aVp3
p1686
aS'utopia'
p1687
aS'#656565'
p1688
aF8.88595
aI0
aI00
aI00
aI00
aI00
aI00
aI00
aI00
aI00
aa(lp1689
I120218
aF325.999
aF192.207
aVp3
p1690
aS'utopia'
p1691
aS'#656565'
p1692
aF8.88595
aI0
aI00
aI00
aI00
aI00
aI00
aI00
aI00
aI00
aa(lp1693
I33705
aF365.986
aF192.207
aVp3
p1694
aS'utopia'
p1695
aS'#656565'
p1696
aF8.88595
aI0
aI00
aI00
aI00
aI00
aI00
aI00
aI00
aI00
aa(lp1697
I216970
aF382.277
aF192.207
aVp3
p1698
aS'utopia'
p1699
aS'#656565'
p1700
aF8.88595
aI0
aI00
aI00
aI00
aI00
aI00
aI00
aI00
aI00
aa(lp1701
I194354
aF405.232
aF192.207
aVp3
p1702
aS'utopia'
p1703
aS'#656565'
p1704
aF8.88595
aI0
aI00
aI00
aI00
aI00
aI00
aI00
aI00
aI00
aa(lp1705
I234378
aF420.042
aF192.207
aVp3
p1706
aS'utopia'
p1707
aS'#656565'
p1708
aF8.88595
aI0
aI00
aI00
aI00
aI00
aI00
aI00
aI00
aI00
aa(lp1709
I234378
aF448.181
aF192.207
aVp3
p1710
aS'utopia'
p1711
aS'#656565'
p1712
aF8.88595
aI0
aI00
aI00
aI00
aI00
aI00
aI00
aI00
aI00
aa(lp1713
I33705
aF452.32185
aF192.207
ag1710
aS'utopia'
p1714
aS'#656565'
p1715
aF8.88595
aI0
aI00
aI00
aI00
aI00
aI00
aI00
aI00
aI00
aa(lp1716
I229868
aF466.694
aF192.207
aVp3
p1717
aS'utopia'
p1718
aS'#656565'
p1719
aF8.88595
aI0
aI00
aI00
aI00
aI00
aI00
aI00
aI00
aI00
aa(lp1720
I194354
aF479.282
aF192.207
aVp3
p1721
aS'utopia'
p1722
aS'#656565'
p1723
aF8.88595
aI0
aI00
aI00
aI00
aI00
aI00
aI00
aI00
aI00
aa(lp1724
I90895
aF494.092
aF192.207
aVp3
p1725
aS'utopia'
p1726
aS'#656565'
p1727
aF8.88595
aI0
aI00
aI00
aI00
aI00
aI00
aI00
aI00
aI00
aa(lp1728
I234378
aF545.7695071428572
aF192.207
ag1725
aS'utopia'
p1729
aS'#656565'
p1730
aF8.88595
aI0
aI00
aI00
aI00
aI00
aI00
aI00
aI00
aI00
aa(lp1731
I33705
aF40.9084
aF202.573
aVp3
p1732
aS'utopia'
p1733
aS'#656565'
p1734
aF8.88595
aI0
aI00
aI00
aI00
aI00
aI00
aI00
aI00
aI00
aa(lp1735
I216970
aF57.1993
aF202.573
aVp3
p1736
aS'utopia'
p1737
aS'#656565'
p1738
aF8.88595
aI0
aI00
aI00
aI00
aI00
aI00
aI00
aI00
aI00
aa(lp1739
I218852
aF80.1547
aF202.573
aVp3
p1740
aS'utopia'
p1741
aS'#656565'
p1742
aF8.88595
aI0
aI00
aI00
aI00
aI00
aI00
aI00
aI00
aI00
aa(lp1743
I234378
aF100.889
aF202.573
aVp3
p1744
aS'utopia'
p1745
aS'#656565'
p1746
aF8.88595
aI0
aI00
aI00
aI00
aI00
aI00
aI00
aI00
aI00
aa(lp1747
I135639
aF129.768
aF202.573
aVp3
p1748
aS'utopia'
p1749
aS'#656565'
p1750
aF8.88595
aI0
aI00
aI00
aI00
aI00
aI00
aI00
aI00
aI00
aa(lp1751
I46544
aF139.394
aF202.573
aVp3
p1752
aS'utopia'
p1753
aS'#656565'
p1754
aF8.88595
aI0
aI00
aI00
aI00
aI00
aI00
aI00
aI00
aI00
aa(lp1755
I156028
aF155.685
aF202.573
aVp3
p1756
aS'utopia'
p1757
aS'#656565'
p1758
aF8.88595
aI0
aI00
aI00
aI00
aI00
aI00
aI00
aI00
aI00
aa(lp1759
I194354
aF173.457
aF202.573
aVp3
p1760
aS'utopia'
p1761
aS'#656565'
p1762
aF8.88595
aI0
aI01
aI00
aI00
aI00
aI00
aI00
aI00
aI00
aa(lp1763
I120218
aF190.489
aF202.573
aVp3
p1764
aS'utopia'
p1765
aS'#656565'
p1766
aF8.88595
aI0
aI00
aI00
aI00
aI00
aI00
aI00
aI00
aI00
aa(lp1767
I97584
aF230.475
aF202.573
aVp3
p1768
aS'utopia'
p1769
aS'#656565'
p1770
aF8.88595
aI0
aI00
aI00
aI00
aI00
aI00
aI00
aI00
aI00
aa(lp1771
I109318
aF259.355
aF202.573
aVp3
p1772
aS'utopia'
p1773
aS'#656565'
p1774
aF8.88595
aI0
aI00
aI00
aI00
aI00
aI00
aI00
aI00
aI00
aa(lp1775
I89480
aF280.829
aF202.573
aVp3
p1776
aS'utopia'
p1777
aS'#656565'
p1778
aF8.88595
aI0
aI00
aI00
aI00
aI00
aI00
aI00
aI00
aI00
aa(lp1779
I55486
aF291.196
aF202.573
aVp3
p1780
aS'utopia'
p1781
aS'#656565'
p1782
aF8.88595
aI0
aI00
aI00
aI00
aI00
aI00
aI00
aI00
aI00
aa(lp1783
I135639
aF316.373
aF202.573
aVp3
p1784
aS'utopia'
p1785
aS'#656565'
p1786
aF8.88595
aI0
aI00
aI00
aI00
aI00
aI00
aI00
aI00
aI00
aa(lp1787
I194354
aF325.999
aF202.573
aVp3
p1788
aS'utopia'
p1789
aS'#656565'
p1790
aF8.88595
aI0
aI00
aI00
aI00
aI00
aI00
aI00
aI00
aI00
aa(lp1791
I52628
aF340.809
aF202.573
aVp3
p1792
aS'utopia'
p1793
aS'#656565'
p1794
aF8.88595
aI0
aI00
aI00
aI00
aI00
aI00
aI00
aI00
aI00
aa(lp1795
I12510
aF360.803
aF202.573
aVp3
p1796
aS'utopia'
p1797
aS'#656565'
p1798
aF8.88595
aI0
aI00
aI00
aI00
aI00
aI00
aI00
aI00
aI00
aa(lp1799
I190806
aF385.979
aF202.573
aVp3
p1800
aS'utopia'
p1801
aS'#656565'
p1802
aF8.88595
aI0
aI00
aI00
aI00
aI00
aI00
aI00
aI00
aI00
aa(lp1803
I89992
aF400.049
aF202.573
aVp3
p1804
aS'utopia'
p1805
aS'#656565'
p1806
aF8.88595
aI0
aI00
aI00
aI00
aI00
aI00
aI00
aI00
aI00
aa(lp1807
I194354
aF435.593
aF202.573
aVp3
p1808
aS'utopia'
p1809
aS'#656565'
p1810
aF8.88595
aI0
aI00
aI00
aI00
aI00
aI00
aI00
aI00
aI00
aa(lp1811
I15548
aF450.403
aF202.573
aVp3
p1812
aS'utopia'
p1813
aS'#656565'
p1814
aF8.88595
aI0
aI00
aI00
aI00
aI00
aI00
aI00
aI00
aI00
aa(lp1815
I12510
aF482.244
aF202.573
aVp3
p1816
aS'utopia'
p1817
aS'#656565'
p1818
aF8.88595
aI0
aI00
aI00
aI00
aI00
aI00
aI00
aI00
aI00
aa(lp1819
I144489
aF507.421
aF202.573
aVp3
p1820
aS'utopia'
p1821
aS'#656565'
p1822
aF8.88595
aI0
aI00
aI00
aI00
aI00
aI00
aI00
aI00
aI00
aa(lp1823
I109070
aF517.788
aF202.573
aVp3
p1824
aS'utopia'
p1825
aS'#656565'
p1826
aF8.88595
aI0
aI00
aI00
aI00
aI00
aI00
aI00
aI00
aI00
aa(lp1827
I164851
aF40.9084
aF212.94
aVp3
p1828
aS'utopia'
p1829
aS'#656565'
p1830
aF8.88595
aI0
aI00
aI00
aI00
aI00
aI00
aI00
aI00
aI00
aa(lp1831
I234378
aF62.303015384615385
aF212.94
ag1828
aS'utopia'
p1832
aS'#656565'
p1833
aF8.88595
aI0
aI00
aI00
aI00
aI00
aI00
aI00
aI00
aI00
aa(lp1834
I139832
aF66.58193846153846
aF212.94
ag1828
aS'utopia'
p1835
aS'#656565'
p1836
aF8.88595
aI0
aI01
aI00
aI00
aI00
aI00
aI00
aI00
aI00
aa(lp1837
I234378
aF98.6671
aF212.94
aVp3
p1838
aS'utopia'
p1839
aS'#656565'
p1840
aF8.88595
aI0
aI00
aI00
aI00
aI00
aI00
aI00
aI00
aI00
aa(lp1841
I234378
aF126.065
aF212.94
aVp3
p1842
aS'utopia'
p1843
aS'#656565'
p1844
aF8.88595
aI0
aI01
aI00
aI00
aI00
aI00
aI00
aI00
aI00
aa(lp1845
I234378
aF145.90783333333331
aF212.94
ag1842
aS'utopia'
p1846
aS'#656565'
p1847
aF8.88595
aI0
aI00
aI00
aI00
aI00
aI00
aI00
aI00
aI00
aa(lp1848
I234378
aF151.983
aF212.94
aVp3
p1849
aS'utopia'
p1850
aS'#656565'
p1851
aF8.88595
aI0
aI01
aI00
aI00
aI00
aI00
aI00
aI00
aI00
aa(lp1852
I234378
aF188.07507
aF212.94
ag1849
aS'utopia'
p1853
aS'#656565'
p1854
aF8.88595
aI0
aI00
aI00
aI00
aI00
aI00
aI00
aI00
aI00
aa(lp1855
I234378
aF194.191
aF212.94
aVp3
p1856
aS'utopia'
p1857
aS'#656565'
p1858
aF8.88595
aI0
aI01
aI00
aI00
aI00
aI00
aI00
aI00
aI00
aa(lp1859
I234378
aF224.551
aF212.94
aVp3
p1860
aS'utopia'
p1861
aS'#656565'
p1862
aF8.88595
aI0
aI00
aI00
aI00
aI00
aI00
aI00
aI00
aI00
aa(lp1863
I60534
aF251.95
aF212.94
aVp3
p1864
aS'utopia'
p1865
aS'#656565'
p1866
aF8.88595
aI0
aI00
aI00
aI00
aI00
aI00
aI00
aI00
aI00
aa(lp1867
I194354
aF269.722
aF212.94
aVp3
p1868
aS'utopia'
p1869
aS'#656565'
p1870
aF8.88595
aI0
aI00
aI00
aI00
aI00
aI00
aI00
aI00
aI00
aa(lp1871
I120218
aF284.532
aF212.94
aVp3
p1872
aS'utopia'
p1873
aS'#656565'
p1874
aF8.88595
aI0
aI00
aI00
aI00
aI00
aI00
aI00
aI00
aI00
aa(lp1875
I33705
aF324.518
aF212.94
aVp3
p1876
aS'utopia'
p1877
aS'#656565'
p1878
aF8.88595
aI0
aI00
aI00
aI00
aI00
aI00
aI00
aI00
aI00
aa(lp1879
I68365
aF340.809
aF212.94
aVp3
p1880
aS'utopia'
p1881
aS'#656565'
p1882
aF8.88595
aI0
aI00
aI00
aI00
aI00
aI00
aI00
aI00
aI00
aa(lp1883
I209548
aF368.208
aF212.94
aVp3
p1884
aS'utopia'
p1885
aS'#656565'
p1886
aF8.88595
aI0
aI00
aI00
aI00
aI00
aI00
aI00
aI00
aI00
aa(lp1887
I131049
aF400.049
aF212.94
aVp3
p1888
aS'utopia'
p1889
aS'#656565'
p1890
aF8.88595
aI0
aI00
aI00
aI00
aI00
aI00
aI00
aI00
aI00
aa(lp1891
I46544
aF422.264
aF212.94
aVp3
p1892
aS'utopia'
p1893
aS'#656565'
p1894
aF8.88595
aI0
aI00
aI00
aI00
aI00
aI00
aI00
aI00
aI00
aa(lp1895
I234378
aF438.555
aF212.94
aVp3
p1896
aS'utopia'
p1897
aS'#656565'
p1898
aF8.88595
aI0
aI00
aI00
aI00
aI00
aI00
aI00
aI00
aI00
aa(lp1899
I234378
aF480.763
aF212.94
aVp3
p1900
aS'utopia'
p1901
aS'#656565'
p1902
aF8.88595
aI0
aI00
aI00
aI00
aI00
aI00
aI00
aI00
aI00
aa(lp1903
I156028
aF498.535
aF212.94
aVp3
p1904
aS'utopia'
p1905
aS'#656565'
p1906
aF8.88595
aI0
aI00
aI00
aI00
aI00
aI00
aI00
aI00
aI00
aa(lp1907
I234378
aF40.9084
aF249.859
aVp3
p1908
aS'utopia'
p1909
aS'#000000'
p1910
aF10.3669
aI1
aI01
aI01
aI00
aI00
aI00
aI00
aI00
aI00
aa(lp1911
I234378
aF66.88483333333333
aF249.859
ag1908
aS'utopia'
p1912
aS'#000000'
p1913
aF10.3669
aI1
aI01
aI00
aI00
aI00
aI00
aI00
aI00
aI00
aa(lp1914
I151732
aF40.9084
aF266.419
aVp3
p1915
aS'utopia'
p1916
aS'#656565'
p1917
aF10.3669
aI0
aI01
aI01
aI00
aI00
aI00
aI00
aI00
aI00
aa(lp1918
I234378
aF75.7117
aF266.419
aVp3
p1919
aS'utopia'
p1920
aS'#656565'
p1921
aF10.3669
aI0
aI01
aI00
aI00
aI00
aI00
aI00
aI00
aI00
aa(lp1922
I234378
aF120.882
aF266.419
aVp3
p1923
aS'utopia'
p1924
aS'#656565'
p1925
aF10.3669
aI0
aI01
aI00
aI00
aI00
aI00
aI00
aI00
aI00
aa(lp1926
I60201
aF157.907
aF266.419
aVp3
p1927
aS'utopia'
p1928
aS'#656565'
p1929
aF10.3669
aI0
aI01
aI00
aI00
aI00
aI00
aI00
aI00
aI00
aa(lp1930
I230071
aF177.9
aF266.419
aVp3
p1931
aS'utopia'
p1932
aS'#656565'
p1933
aF10.3669
aI0
aI01
aI00
aI00
aI00
aI00
aI00
aI00
aI00
aa(lp1934
I131049
aF209.001
aF266.419
aVp3
p1935
aS'utopia'
p1936
aS'#656565'
p1937
aF10.3669
aI0
aI00
aI00
aI00
aI00
aI00
aI00
aI00
aI00
aa(lp1938
I234378
aF233.437
aF266.419
aVp3
p1939
aS'utopia'
p1940
aS'#656565'
p1941
aF10.3669
aI0
aI01
aI00
aI00
aI00
aI00
aI00
aI00
aI01
aa(lp1942
I234378
aF253.431
aF266.419
aVp3
p1943
aS'utopia'
p1944
aS'#656565'
p1945
aF10.3669
aI0
aI00
aI00
aI01
aI01
aI01
aI00
aI00
aI00
aa(lp1946
I89480
aF276.386
aF266.419
aVp3
p1947
aS'utopia'
p1948
aS'#656565'
p1949
aF10.3669
aI0
aI00
aI00
aI00
aI00
aI00
aI00
aI00
aI00
aa(lp1950
I234378
aF288.234
aF266.419
aVp3
p1951
aS'utopia'
p1952
aS'#656565'
p1953
aF10.3669
aI0
aI01
aI00
aI00
aI00
aI00
aI00
aI00
aI01
aa(lp1954
I234378
aF307.487
aF266.419
aVp3
p1955
aS'utopia'
p1956
aS'#656565'
p1957
aF10.3669
aI0
aI00
aI00
aI01
aI01
aI01
aI00
aI00
aI00
aa(lp1958
I164802
aF40.9084
aF282.71
aVp3
p1959
aS'utopia'
p1960
aS'#656565'
p1961
aF10.3669
aI0
aI01
aI00
aI00
aI00
aI00
aI00
aI00
aI00
aa(lp1962
I109610
aF40.9084
aF298.838
aVp3
p1963
aS'utopia'
p1964
aS'#656565'
p1965
aF8.88595
aI0
aI01
aI00
aI00
aI00
aI00
aI00
aI00
aI00
aa(lp1966
I25729
aF58.6803
aF298.838
aVp3
p1967
aS'utopia'
p1968
aS'#656565'
p1969
aF8.88595
aI0
aI01
aI00
aI00
aI00
aI00
aI00
aI00
aI00
aa(lp1970
I234378
aF76.54462000000001
aF298.838
ag1967
aS'utopia'
p1971
aS'#656565'
p1972
aF8.88595
aI0
aI00
aI00
aI00
aI00
aI00
aI00
aI00
aI00
aa(lp1973
I21716
aF85.3382
aF298.838
aVp3
p1974
aS'utopia'
p1975
aS'#656565'
p1976
aF8.88595
aI0
aI01
aI00
aI00
aI00
aI00
aI00
aI00
aI00
aa(lp1977
I234378
aF103.851
aF298.838
aVp3
p1978
aS'utopia'
p1979
aS'#656565'
p1980
aF8.88595
aI0
aI00
aI00
aI01
aI00
aI00
aI00
aI00
aI00
aa(lp1981
I84662
aF123.103
aF298.838
aVp3
p1982
aS'utopia'
p1983
aS'#656565'
p1984
aF8.88595
aI0
aI00
aI00
aI00
aI00
aI00
aI00
aI00
aI00
aa(lp1985
I21716
aF143.097
aF298.838
aVp3
p1986
aS'utopia'
p1987
aS'#656565'
p1988
aF8.88595
aI0
aI00
aI00
aI00
aI00
aI00
aI00
aI00
aI00
aa(lp1989
I234378
aF160.869
aF298.838
aVp3
p1990
aS'utopia'
p1991
aS'#656565'
p1992
aF8.88595
aI0
aI00
aI00
aI00
aI00
aI00
aI00
aI00
aI00
aa(lp1993
I234378
aF164.941725
aF298.838
ag1990
aS'utopia'
p1994
aS'#656565'
p1995
aF8.88595
aI0
aI00
aI00
aI00
aI00
aI00
aI00
aI00
aI00
aa(lp1996
I21716
aF179.381
aF298.838
aVp3
p1997
aS'utopia'
p1998
aS'#656565'
p1999
aF8.88595
aI0
aI00
aI00
aI00
aI00
aI00
aI00
aI00
aI00
aa(lp2000
I234378
aF197.153
aF298.838
aVp3
p2001
aS'utopia'
p2002
aS'#656565'
p2003
aF8.88595
aI0
aI00
aI00
aI00
aI00
aI00
aI00
aI00
aI00
aa(lp2004
I234378
aF200.528925
aF298.838
ag2001
aS'utopia'
p2005
aS'#656565'
p2006
aF8.88595
aI0
aI00
aI00
aI00
aI00
aI00
aI00
aI00
aI00
aa(lp2007
I234378
aF212.703
aF298.838
aVp3
p2008
aS'utopia'
p2009
aS'#656565'
p2010
aF8.88595
aI0
aI00
aI00
aI00
aI00
aI00
aI00
aI00
aI00
aa(lp2011
I234378
aF243.60737894736843
aF298.838
ag2008
aS'utopia'
p2012
aS'#656565'
p2013
aF8.88595
aI0
aI00
aI00
aI00
aI00
aI00
aI00
aI00
aI00
aa(lp2014
I234378
aF247.4704263157895
aF298.838
ag2008
aS'utopia'
p2015
aS'#656565'
p2016
aF8.88595
aI0
aI00
aI00
aI00
aI00
aI00
aI00
aI00
aI00
aa(lp2017
I234378
aF257.9226157894737
aF298.838
ag2008
aS'utopia'
p2018
aS'#656565'
p2019
aF8.88595
aI0
aI00
aI00
aI00
aI00
aI00
aI00
aI00
aI00
aa(lp2020
I234378
aF266.78566315789476
aF298.838
ag2008
aS'utopia'
p2021
aS'#656565'
p2022
aF8.88595
aI0
aI00
aI00
aI00
aI00
aI00
aI00
aI00
aI00
aa(lp2023
I234378
aF288.234
aF298.838
aVp3
p2024
aS'utopia'
p2025
aS'#656565'
p2026
aF8.88595
aI0
aI00
aI00
aI01
aI00
aI00
aI00
aI00
aI00
aa(lp2027
I234378
aF294.23498
aF298.838
ag2024
aS'utopia'
p2028
aS'#656565'
p2029
aF8.88595
aI0
aI00
aI00
aI00
aI00
aI00
aI00
aI00
aI00
aa(lp2030
I234378
aF299.341
aF298.838
aVp3
p2031
aS'utopia'
p2032
aS'#656565'
p2033
aF8.88595
aI0
aI00
aI00
aI01
aI00
aI00
aI00
aI00
aI00
aa(lp2034
I210461
aF40.9084
aF312.907
aVp3
p2035
aS'utopia'
p2036
aS'#656565'
p2037
aF8.88595
aI0
aI01
aI00
aI00
aI00
aI00
aI00
aI00
aI00
aa(lp2038
I340
aF65.3448
aF312.907
aVp3
p2039
aS'utopia'
p2040
aS'#656565'
p2041
aF8.88595
aI0
aI01
aI00
aI00
aI00
aI00
aI00
aI00
aI00
aa(lp2042
I234378
aF79.65472000000001
aF312.907
ag2039
aS'utopia'
p2043
aS'#656565'
p2044
aF8.88595
aI0
aI00
aI00
aI00
aI00
aI00
aI00
aI00
aI00
aa(lp2045
I234378
aF87.5597
aF312.907
aVp3
p2046
aS'utopia'
p2047
aS'#656565'
p2048
aF8.88595
aI0
aI00
aI00
aI01
aI01
aI00
aI00
aI00
aI00
aa(lp2049
I176435
aF40.9084
aF326.977
aVp3
p2050
aS'utopia'
p2051
aS'#656565'
p2052
aF8.88595
aI0
aI01
aI00
aI00
aI00
aI00
aI00
aI00
aI00
aa(lp2053
I234378
aF60.9018
aF326.977
aVp3
p2054
aS'utopia'
p2055
aS'#656565'
p2056
aF8.88595
aI0
aI00
aI00
aI00
aI00
aI00
aI00
aI00
aI00
aa(lp2057
I234378
aF67.5663
aF326.977
aVp3
p2058
aS'utopia'
p2059
aS'#656565'
p2060
aF8.88595
aI0
aI01
aI00
aI00
aI00
aI00
aI00
aI00
aI00
aa(lp2061
I234378
aF74.55463333333333
aF326.977
ag2058
aS'utopia'
p2062
aS'#656565'
p2063
aF8.88595
aI0
aI00
aI00
aI00
aI00
aI00
aI00
aI00
aI00
aa(lp2064
I150037
aF80.1547
aF326.977
aVp3
p2065
aS'utopia'
p2066
aS'#656565'
p2067
aF8.88595
aI0
aI01
aI00
aI00
aI00
aI00
aI00
aI00
aI00
aa(lp2068
I176435
aF40.9084
aF341.046
aVp3
p2069
aS'utopia'
p2070
aS'#656565'
p2071
aF8.88595
aI0
aI01
aI00
aI00
aI00
aI00
aI00
aI00
aI00
aa(lp2072
I66756
aF60.9018
aF341.046
aVp3
p2073
aS'utopia'
p2074
aS'#656565'
p2075
aF8.88595
aI0
aI01
aI00
aI00
aI00
aI00
aI00
aI00
aI00
aa(lp2076
I234378
aF105.12885833333334
aF341.046
ag2073
aS'utopia'
p2077
aS'#656565'
p2078
aF8.88595
aI0
aI00
aI00
aI00
aI00
aI00
aI00
aI00
aI00
aa(lp2079
I105322
aF113.477
aF341.046
aVp3
p2080
aS'utopia'
p2081
aS'#656565'
p2082
aF8.88595
aI0
aI01
aI00
aI00
aI00
aI00
aI00
aI00
aI00
aa(lp2083
I135639
aF149.761
aF341.046
aVp3
p2084
aS'utopia'
p2085
aS'#656565'
p2086
aF8.88595
aI0
aI00
aI00
aI00
aI00
aI00
aI00
aI00
aI00
aa(lp2087
I153278
aF159.388
aF341.046
aVp3
p2088
aS'utopia'
p2089
aS'#656565'
p2090
aF8.88595
aI0
aI00
aI00
aI00
aI00
aI00
aI00
aI00
aI00
aa(lp2091
I31703
aF176.419
aF341.046
aVp3
p2092
aS'utopia'
p2093
aS'#656565'
p2094
aF8.88595
aI0
aI00
aI00
aI00
aI00
aI00
aI00
aI00
aI00
aa(lp2095
I85218
aF200.115
aF341.046
aVp3
p2096
aS'utopia'
p2097
aS'#656565'
p2098
aF8.88595
aI0
aI00
aI00
aI00
aI00
aI00
aI00
aI00
aI00
aa(lp2099
I59164
aF217.146
aF341.046
aVp3
p2100
aS'utopia'
p2101
aS'#656565'
p2102
aF8.88595
aI0
aI00
aI00
aI00
aI00
aI00
aI00
aI00
aI00
aa(lp2103
I211693
aF248.247
aF341.046
aVp3
p2104
aS'utopia'
p2105
aS'#656565'
p2106
aF8.88595
aI0
aI00
aI00
aI00
aI00
aI00
aI00
aI00
aI00
aa(lp2107
I144489
aF284.532
aF341.046
aVp3
p2108
aS'utopia'
p2109
aS'#656565'
p2110
aF8.88595
aI0
aI00
aI00
aI00
aI00
aI00
aI00
aI00
aI00
aa(lp2111
I174268
aF294.899
aF341.046
aVp3
p2112
aS'utopia'
p2113
aS'#656565'
p2114
aF8.88595
aI0
aI00
aI00
aI00
aI00
aI00
aI00
aI00
aI00
aa(lp2115
I234378
aF325.999
aF341.046
aVp3
p2116
aS'utopia'
p2117
aS'#656565'
p2118
aF8.88595
aI0
aI00
aI00
aI00
aI00
aI00
aI00
aI00
aI00
aa(lp2119
I234378
aF350.1802
aF341.046
ag2116
aS'utopia'
p2120
aS'#656565'
p2121
aF8.88595
aI0
aI00
aI00
aI00
aI00
aI00
aI00
aI00
aI00
aa(lp2122
I234378
aF354.2104
aF341.046
ag2116
aS'utopia'
p2123
aS'#656565'
p2124
aF8.88595
aI0
aI00
aI00
aI00
aI00
aI00
aI00
aI00
aI00
aa(lp2125
I218768
aF384.499
aF341.046
aVp3
p2126
aS'utopia'
p2127
aS'#656565'
p2128
aF8.88595
aI0
aI00
aI00
aI00
aI00
aI00
aI00
aI00
aI00
aa(lp2129
I89480
aF414.118
aF341.046
aVp3
p2130
aS'utopia'
p2131
aS'#656565'
p2132
aF8.88595
aI0
aI00
aI00
aI00
aI00
aI00
aI00
aI00
aI00
aa(lp2133
I151732
aF424.485
aF341.046
aVp3
p2134
aS'utopia'
p2135
aS'#656565'
p2136
aF8.88595
aI0
aI01
aI00
aI00
aI00
aI00
aI00
aI00
aI00
aa(lp2137
I35885
aF448.181
aF341.046
aVp3
p2138
aS'utopia'
p2139
aS'#656565'
p2140
aF8.88595
aI0
aI00
aI00
aI00
aI00
aI00
aI00
aI00
aI00
aa(lp2141
I17350
aF473.358
aF341.046
aVp3
p2142
aS'utopia'
p2143
aS'#656565'
p2144
aF8.88595
aI0
aI00
aI00
aI00
aI00
aI00
aI00
aI00
aI00
aa(lp2145
I234378
aF491.87
aF341.046
aVp3
p2146
aS'utopia'
p2147
aS'#656565'
p2148
aF8.88595
aI0
aI00
aI00
aI00
aI00
aI00
aI00
aI00
aI00
aa(lp2149
I140548
aF513.345
aF341.046
aVp3
p2150
aS'utopia'
p2151
aS'#656565'
p2152
aF8.88595
aI0
aI00
aI00
aI00
aI00
aI00
aI00
aI00
aI00
aa(lp2153
I89480
aF40.9084
aF351.413
aVp3
p2154
aS'utopia'
p2155
aS'#656565'
p2156
aF8.88595
aI0
aI00
aI00
aI00
aI00
aI00
aI00
aI00
aI00
aa(lp2157
I234378
aF51.2754
aF351.413
aVp3
p2158
aS'utopia'
p2159
aS'#656565'
p2160
aF8.88595
aI0
aI00
aI00
aI00
aI00
aI00
aI00
aI00
aI00
aa(lp2161
I105322
aF92.7431
aF351.413
aVp3
p2162
aS'utopia'
p2163
aS'#656565'
p2164
aF8.88595
aI0
aI01
aI00
aI00
aI00
aI00
aI00
aI00
aI00
aa(lp2165
I135639
aF129.027
aF351.413
aVp3
p2166
aS'utopia'
p2167
aS'#656565'
p2168
aF8.88595
aI0
aI00
aI00
aI00
aI00
aI00
aI00
aI00
aI00
aa(lp2169
I125078
aF138.654
aF351.413
aVp3
p2170
aS'utopia'
p2171
aS'#656565'
p2172
aF8.88595
aI0
aI00
aI00
aI00
aI00
aI00
aI00
aI00
aI00
aa(lp2173
I85218
aF166.793
aF351.413
aVp3
p2174
aS'utopia'
p2175
aS'#656565'
p2176
aF8.88595
aI0
aI00
aI00
aI00
aI00
aI00
aI00
aI00
aI00
aa(lp2177
I142554
aF183.824
aF351.413
aVp3
p2178
aS'utopia'
p2179
aS'#656565'
p2180
aF8.88595
aI0
aI00
aI00
aI00
aI00
aI00
aI00
aI00
aI00
aa(lp2181
I144489
aF233.437
aF351.413
aVp3
p2182
aS'utopia'
p2183
aS'#656565'
p2184
aF8.88595
aI0
aI00
aI00
aI00
aI00
aI00
aI00
aI00
aI00
aa(lp2185
I174268
aF243.804
aF351.413
aVp3
p2186
aS'utopia'
p2187
aS'#656565'
p2188
aF8.88595
aI0
aI00
aI00
aI00
aI00
aI00
aI00
aI00
aI00
aa(lp2189
I234378
aF274.905
aF351.413
aVp3
p2190
aS'utopia'
p2191
aS'#656565'
p2192
aF8.88595
aI0
aI00
aI00
aI00
aI00
aI00
aI00
aI00
aI00
aa(lp2193
I140548
aF296.379
aF351.413
aVp3
p2194
aS'utopia'
p2195
aS'#656565'
p2196
aF8.88595
aI0
aI00
aI00
aI00
aI00
aI00
aI00
aI00
aI00
aa(lp2197
I89480
aF337.847
aF351.413
aVp3
p2198
aS'utopia'
p2199
aS'#656565'
p2200
aF8.88595
aI0
aI00
aI00
aI00
aI00
aI00
aI00
aI00
aI00
aa(lp2201
I194354
aF348.214
aF351.413
aVp3
p2202
aS'utopia'
p2203
aS'#656565'
p2204
aF8.88595
aI0
aI00
aI00
aI00
aI00
aI00
aI00
aI00
aI00
aa(lp2205
I109318
aF363.024
aF351.413
aVp3
p2206
aS'utopia'
p2207
aS'#656565'
p2208
aF8.88595
aI0
aI00
aI00
aI00
aI00
aI00
aI00
aI00
aI00
aa(lp2209
I234378
aF384.499
aF351.413
aVp3
p2210
aS'utopia'
p2211
aS'#656565'
p2212
aF8.88595
aI0
aI01
aI00
aI00
aI00
aI00
aI00
aI00
aI00
aa(lp2213
I135639
aF423.004
aF351.413
aVp3
p2214
aS'utopia'
p2215
aS'#656565'
p2216
aF8.88595
aI0
aI00
aI00
aI00
aI00
aI00
aI00
aI00
aI00
aa(lp2217
I204548
aF432.631
aF351.413
aVp3
p2218
aS'utopia'
p2219
aS'#656565'
p2220
aF8.88595
aI0
aI00
aI00
aI00
aI00
aI00
aI00
aI00
aI00
aa(lp2221
I169745
aF466.694
aF351.413
aVp3
p2222
aS'utopia'
p2223
aS'#656565'
p2224
aF8.88595
aI0
aI00
aI00
aI00
aI00
aI00
aI00
aI00
aI00
aa(lp2225
I234378
aF485.946
aF351.413
aVp3
p2226
aS'utopia'
p2227
aS'#656565'
p2228
aF8.88595
aI0
aI00
aI00
aI00
aI00
aI00
aI00
aI00
aI00
aa(lp2229
I85218
aF511.864
aF351.413
aVp3
p2230
aS'utopia'
p2231
aS'#656565'
p2232
aF8.88595
aI0
aI00
aI00
aI00
aI00
aI00
aI00
aI00
aI00
aa(lp2233
I166245
aF40.9084
aF361.78
aVp3
p2234
aS'utopia'
p2235
aS'#656565'
p2236
aF8.88595
aI0
aI01
aI00
aI00
aI00
aI00
aI00
aI00
aI00
aa(lp2237
I177958
aF40.9084
aF375.85
aVp3
p2238
aS'utopia'
p2239
aS'#656565'
p2240
aF8.88595
aI0
aI01
aI00
aI00
aI00
aI00
aI00
aI00
aI00
aa(lp2241
I234378
aF71.2688
aF375.85
aVp3
p2242
aS'utopia'
p2243
aS'#656565'
p2244
aF8.88595
aI0
aI01
aI00
aI00
aI00
aI00
aI00
aI00
aI00
aa(lp2245
I234378
aF96.6393375
aF375.85
ag2242
aS'utopia'
p2246
aS'#656565'
p2247
aF8.88595
aI0
aI00
aI00
aI00
aI00
aI00
aI00
aI00
aI00
aa(lp2248
I194354
aF104.591
aF375.85
aVp3
p2249
aS'utopia'
p2250
aS'#656565'
p2251
aF8.88595
aI0
aI01
aI00
aI00
aI00
aI00
aI00
aI00
aI00
aa(lp2252
I234378
aF121.622
aF375.85
aVp3
p2253
aS'utopia'
p2254
aS'#656565'
p2255
aF8.88595
aI0
aI01
aI01
aI00
aI00
aI00
aI00
aI00
aI00
aa(lp2256
I177958
aF143.837
aF375.85
aVp3
p2257
aS'utopia'
p2258
aS'#656565'
p2259
aF8.88595
aI0
aI01
aI00
aI00
aI00
aI00
aI00
aI00
aI00
aa(lp2260
I234378
aF174.198
aF375.85
aVp3
p2261
aS'utopia'
p2262
aS'#656565'
p2263
aF8.88595
aI0
aI00
aI00
aI00
aI00
aI00
aI00
aI00
aI00
aa(lp2264
I210520
aF196.413
aF375.85
aVp3
p2265
aS'utopia'
p2266
aS'#656565'
p2267
aF8.88595
aI0
aI00
aI00
aI00
aI00
aI00
aI00
aI00
aI00
aa(lp2268
I144489
aF223.07
aF375.85
aVp3
p2269
aS'utopia'
p2270
aS'#656565'
p2271
aF8.88595
aI0
aI00
aI00
aI00
aI00
aI00
aI00
aI00
aI00
aa(lp2272
I151732
aF233.437
aF375.85
aVp3
p2273
aS'utopia'
p2274
aS'#656565'
p2275
aF8.88595
aI0
aI01
aI00
aI00
aI00
aI00
aI00
aI00
aI00
aa(lp2276
I234378
aF257.133
aF375.85
aVp3
p2277
aS'utopia'
p2278
aS'#656565'
p2279
aF8.88595
aI0
aI00
aI00
aI00
aI00
aI00
aI00
aI00
aI00
aa(lp2280
I22476
aF294.899
aF375.85
aVp3
p2281
aS'utopia'
p2282
aS'#656565'
p2283
aF8.88595
aI0
aI01
aI00
aI00
aI00
aI00
aI00
aI00
aI00
aa(lp2284
I22474
aF303.044
aF375.85
aVp3
p2285
aS'utopia'
p2286
aS'#656565'
p2287
aF8.88595
aI0
aI00
aI00
aI00
aI00
aI00
aI00
aI00
aI00
aa(lp2288
I234378
aF311.189
aF375.85
aVp3
p2289
aS'utopia'
p2290
aS'#656565'
p2291
aF8.88595
aI0
aI00
aI00
aI00
aI00
aI00
aI00
aI00
aI00
aa(lp2292
I35885
aF354.138
aF375.85
aVp3
p2293
aS'utopia'
p2294
aS'#656565'
p2295
aF8.88595
aI0
aI00
aI00
aI00
aI00
aI00
aI00
aI00
aI00
aa(lp2296
I144483
aF379.315
aF375.85
aVp3
p2297
aS'utopia'
p2298
aS'#656565'
p2299
aF8.88595
aI0
aI00
aI00
aI00
aI00
aI00
aI00
aI00
aI00
aa(lp2300
I100065
aF391.903
aF375.85
aVp3
p2301
aS'utopia'
p2302
aS'#656565'
p2303
aF8.88595
aI0
aI00
aI00
aI00
aI00
aI00
aI00
aI00
aI00
aa(lp2304
I234378
aF416.34
aF375.85
aVp3
p2305
aS'utopia'
p2306
aS'#656565'
p2307
aF8.88595
aI0
aI00
aI00
aI00
aI00
aI00
aI00
aI00
aI00
aa(lp2308
I234378
aF434.3315833333333
aF375.85
ag2305
aS'utopia'
p2309
aS'#656565'
p2310
aF8.88595
aI0
aI00
aI00
aI00
aI00
aI00
aI00
aI00
aI00
aa(lp2311
I194354
aF440.036
aF375.85
aVp3
p2312
aS'utopia'
p2313
aS'#656565'
p2314
aF8.88595
aI0
aI01
aI00
aI00
aI00
aI00
aI00
aI00
aI00
aa(lp2315
I12510
aF457.067
aF375.85
aVp3
p2316
aS'utopia'
p2317
aS'#656565'
p2318
aF8.88595
aI0
aI01
aI00
aI00
aI00
aI00
aI00
aI00
aI00
aa(lp2319
I156028
aF482.984
aF375.85
aVp3
p2320
aS'utopia'
p2321
aS'#656565'
p2322
aF8.88595
aI0
aI01
aI00
aI00
aI00
aI00
aI00
aI00
aI00
aa(lp2323
I234378
aF502.978
aF375.85
aVp3
p2324
aS'utopia'
p2325
aS'#656565'
p2326
aF8.88595
aI0
aI00
aI00
aI00
aI00
aI00
aI00
aI00
aI00
aa(lp2327
I234378
aF40.9084
aF386.216
aVp3
p2328
aS'utopia'
p2329
aS'#656565'
p2330
aF8.88595
aI0
aI00
aI00
aI00
aI00
aI00
aI00
aI00
aI00
aa(lp2331
I89480
aF84.5977
aF386.216
aVp3
p2332
aS'utopia'
p2333
aS'#656565'
p2334
aF8.88595
aI0
aI00
aI00
aI00
aI00
aI00
aI00
aI00
aI00
aa(lp2335
I160850
aF94.9646
aF386.216
aVp3
p2336
aS'utopia'
p2337
aS'#656565'
p2338
aF8.88595
aI0
aI00
aI00
aI00
aI00
aI00
aI00
aI00
aI00
aa(lp2339
I19784
aF122.363
aF386.216
aVp3
p2340
aS'utopia'
p2341
aS'#656565'
p2342
aF8.88595
aI0
aI00
aI00
aI00
aI00
aI00
aI00
aI00
aI00
aa(lp2343
I230071
aF139.52886666666666
aF386.216
ag2340
aS'utopia'
p2344
aS'#656565'
p2345
aF8.88595
aI0
aI00
aI00
aI00
aI00
aI00
aI00
aI00
aI00
aa(lp2346
I12510
aF160.869
aF386.216
aVp3
p2347
aS'utopia'
p2348
aS'#656565'
p2349
aF8.88595
aI0
aI00
aI00
aI00
aI00
aI00
aI00
aI00
aI00
aa(lp2350
I144483
aF186.046
aF386.216
aVp3
p2351
aS'utopia'
p2352
aS'#656565'
p2353
aF8.88595
aI0
aI00
aI00
aI00
aI00
aI00
aI00
aI00
aI00
aa(lp2354
I109070
aF198.634
aF386.216
aVp3
p2355
aS'utopia'
p2356
aS'#656565'
p2357
aF8.88595
aI0
aI00
aI00
aI00
aI00
aI00
aI00
aI00
aI00
aa(lp2358
I234378
aF211.963
aF386.216
aVp3
p2359
aS'utopia'
p2360
aS'#656565'
p2361
aF8.88595
aI0
aI00
aI00
aI00
aI00
aI00
aI00
aI00
aI00
aa(lp2362
I85218
aF240.102
aF386.216
aVp3
p2363
aS'utopia'
p2364
aS'#656565'
p2365
aF8.88595
aI0
aI00
aI00
aI00
aI00
aI00
aI00
aI00
aI00
aa(lp2366
I234378
aF257.133
aF386.216
aVp3
p2367
aS'utopia'
p2368
aS'#656565'
p2369
aF8.88595
aI0
aI00
aI00
aI00
aI00
aI00
aI00
aI00
aI00
aa(lp2370
I234378
aF284.44726249999997
aF386.216
ag2367
aS'utopia'
p2371
aS'#656565'
p2372
aF8.88595
aI0
aI00
aI00
aI00
aI00
aI00
aI00
aI00
aI00
aa(lp2373
I101504
aF290.456
aF386.216
aVp3
p2374
aS'utopia'
p2375
aS'#656565'
p2376
aF8.88595
aI0
aI01
aI00
aI00
aI00
aI00
aI00
aI00
aI00
aa(lp2377
I194354
aF313.411
aF386.216
aVp3
p2378
aS'utopia'
p2379
aS'#656565'
p2380
aF8.88595
aI0
aI00
aI00
aI00
aI00
aI00
aI00
aI00
aI00
aa(lp2381
I164851
aF328.221
aF386.216
aVp3
p2382
aS'utopia'
p2383
aS'#656565'
p2384
aF8.88595
aI0
aI00
aI00
aI00
aI00
aI00
aI00
aI00
aI00
aa(lp2385
I22474
aF352.657
aF386.216
aVp3
p2386
aS'utopia'
p2387
aS'#656565'
p2388
aF8.88595
aI0
aI00
aI00
aI00
aI00
aI00
aI00
aI00
aI00
aa(lp2389
I234378
aF360.803
aF386.216
aVp3
p2390
aS'utopia'
p2391
aS'#656565'
p2392
aF8.88595
aI0
aI00
aI00
aI00
aI00
aI00
aI00
aI00
aI00
aa(lp2393
I194354
aF400.789
aF386.216
aVp3
p2394
aS'utopia'
p2395
aS'#656565'
p2396
aF8.88595
aI0
aI00
aI00
aI00
aI00
aI00
aI00
aI00
aI00
aa(lp2397
I164851
aF415.599
aF386.216
aVp3
p2398
aS'utopia'
p2399
aS'#656565'
p2400
aF8.88595
aI0
aI00
aI00
aI00
aI00
aI00
aI00
aI00
aI00
aa(lp2401
I22474
aF440.036
aF386.216
aVp3
p2402
aS'utopia'
p2403
aS'#656565'
p2404
aF8.88595
aI0
aI00
aI00
aI00
aI00
aI00
aI00
aI00
aI00
aa(lp2405
I234378
aF448.181
aF386.216
aVp3
p2406
aS'utopia'
p2407
aS'#656565'
p2408
aF8.88595
aI0
aI00
aI00
aI00
aI00
aI00
aI00
aI00
aI00
aa(lp2409
I135639
aF480.763
aF386.216
aVp3
p2410
aS'utopia'
p2411
aS'#656565'
p2412
aF8.88595
aI0
aI00
aI00
aI00
aI00
aI00
aI00
aI00
aI00
aa(lp2413
I89480
aF490.389
aF386.216
aVp3
p2414
aS'utopia'
p2415
aS'#656565'
p2416
aF8.88595
aI0
aI00
aI00
aI00
aI00
aI00
aI00
aI00
aI00
aa(lp2417
I234378
aF500.756
aF386.216
aVp3
p2418
aS'utopia'
p2419
aS'#656565'
p2420
aF8.88595
aI0
aI01
aI01
aI00
aI00
aI00
aI00
aI00
aI00
aa(lp2421
I85218
aF519.269
aF386.216
aVp3
p2422
aS'utopia'
p2423
aS'#656565'
p2424
aF8.88595
aI0
aI00
aI00
aI00
aI00
aI00
aI00
aI00
aI00
aa(lp2425
I194354
aF536.3
aF386.216
aVp3
p2426
aS'utopia'
p2427
aS'#656565'
p2428
aF8.88595
aI0
aI00
aI00
aI00
aI00
aI00
aI00
aI00
aI00
aa(lp2429
I139832
aF40.9084
aF396.583
aVp3
p2430
aS'utopia'
p2431
aS'#656565'
p2432
aF8.88595
aI0
aI00
aI00
aI00
aI00
aI00
aI00
aI00
aI00
aa(lp2433
I22474
aF71.2688
aF396.583
aVp3
p2434
aS'utopia'
p2435
aS'#656565'
p2436
aF8.88595
aI0
aI00
aI00
aI00
aI00
aI00
aI00
aI00
aI00
aa(lp2437
I234378
aF79.4142
aF396.583
aVp3
p2438
aS'utopia'
p2439
aS'#656565'
p2440
aF8.88595
aI0
aI00
aI00
aI00
aI00
aI00
aI00
aI00
aI00
aa(lp2441
I234378
aF117.801525
aF396.583
ag2438
aS'utopia'
p2442
aS'#656565'
p2443
aF8.88595
aI0
aI00
aI00
aI00
aI00
aI00
aI00
aI00
aI00
aa(lp2444
I117724
aF122.06678333333333
aF396.583
ag2438
aS'utopia'
p2445
aS'#656565'
p2446
aF8.88595
aI0
aI00
aI00
aI00
aI00
aI00
aI00
aI00
aI00
aa(lp2447
I139832
aF132.73
aF396.583
aVp3
p2448
aS'utopia'
p2449
aS'#656565'
p2450
aF8.88595
aI0
aI01
aI00
aI00
aI00
aI00
aI00
aI00
aI00
aa(lp2451
I156028
aF163.831
aF396.583
aVp3
p2452
aS'utopia'
p2453
aS'#656565'
p2454
aF8.88595
aI0
aI00
aI00
aI00
aI00
aI00
aI00
aI00
aI00
aa(lp2455
I234378
aF181.603
aF396.583
aVp3
p2456
aS'utopia'
p2457
aS'#656565'
p2458
aF8.88595
aI0
aI00
aI00
aI00
aI00
aI00
aI00
aI00
aI00
aa(lp2459
I166593
aF208.26
aF396.583
aVp3
p2460
aS'utopia'
p2461
aS'#656565'
p2462
aF8.88595
aI0
aI00
aI00
aI00
aI00
aI00
aI00
aI00
aI00
aa(lp2463
I120218
aF214.925
aF396.583
aVp3
p2464
aS'utopia'
p2465
aS'#656565'
p2466
aF8.88595
aI0
aI00
aI00
aI00
aI00
aI00
aI00
aI00
aI00
aa(lp2467
I89480
aF254.912
aF396.583
aVp3
p2468
aS'utopia'
p2469
aS'#656565'
p2470
aF8.88595
aI0
aI00
aI00
aI00
aI00
aI00
aI00
aI00
aI00
aa(lp2471
I52628
aF265.279
aF396.583
aVp3
p2472
aS'utopia'
p2473
aS'#656565'
p2474
aF8.88595
aI0
aI00
aI00
aI00
aI00
aI00
aI00
aI00
aI00
aa(lp2475
I194354
aF285.272
aF396.583
aVp3
p2476
aS'utopia'
p2477
aS'#656565'
p2478
aF8.88595
aI0
aI00
aI00
aI00
aI00
aI00
aI00
aI00
aI00
aa(lp2479
I139832
aF300.082
aF396.583
aVp3
p2480
aS'utopia'
p2481
aS'#656565'
p2482
aF8.88595
aI0
aI00
aI00
aI00
aI00
aI00
aI00
aI00
aI00
aa(lp2483
I234378
aF330.442
aF396.583
aVp3
p2484
aS'utopia'
p2485
aS'#656565'
p2486
aF8.88595
aI0
aI00
aI00
aI00
aI00
aI00
aI00
aI00
aI00
aa(lp2487
I94749
aF357.841
aF396.583
aVp3
p2488
aS'utopia'
p2489
aS'#656565'
p2490
aF8.88595
aI0
aI00
aI00
aI00
aI00
aI00
aI00
aI00
aI00
aa(lp2491
I190806
aF378.575
aF396.583
aVp3
p2492
aS'utopia'
p2493
aS'#656565'
p2494
aF8.88595
aI0
aI00
aI00
aI00
aI00
aI00
aI00
aI00
aI00
aa(lp2495
I85235
aF392.644
aF396.583
aVp3
p2496
aS'utopia'
p2497
aS'#656565'
p2498
aF8.88595
aI0
aI00
aI00
aI00
aI00
aI00
aI00
aI00
aI00
aa(lp2499
I40536
aF408.935
aF396.583
aVp3
p2500
aS'utopia'
p2501
aS'#656565'
p2502
aF8.88595
aI0
aI00
aI00
aI00
aI00
aI00
aI00
aI00
aI00
aa(lp2503
I139832
aF429.669
aF396.583
aVp3
p2504
aS'utopia'
p2505
aS'#656565'
p2506
aF8.88595
aI0
aI00
aI00
aI00
aI00
aI00
aI00
aI00
aI00
aa(lp2507
I75081
aF460.029
aF396.583
aVp3
p2508
aS'utopia'
p2509
aS'#656565'
p2510
aF8.88595
aI0
aI00
aI00
aI00
aI00
aI00
aI00
aI00
aI00
aa(lp2511
I144503
aF494.092
aF396.583
aVp3
p2512
aS'utopia'
p2513
aS'#656565'
p2514
aF8.88595
aI0
aI00
aI00
aI00
aI00
aI00
aI00
aI00
aI00
aa(lp2515
I153843
aF505.199
aF396.583
aVp3
p2516
aS'utopia'
p2517
aS'#656565'
p2518
aF8.88595
aI0
aI00
aI00
aI00
aI00
aI00
aI00
aI00
aI00
aa(lp2519
I144503
aF530.376
aF396.583
aVp3
p2520
aS'utopia'
p2521
aS'#656565'
p2522
aF8.88595
aI0
aI00
aI00
aI00
aI00
aI00
aI00
aI00
aI00
aa(lp2523
I45499
aF40.9084
aF406.95
aVp3
p2524
aS'utopia'
p2525
aS'#656565'
p2526
aF8.88595
aI0
aI00
aI00
aI00
aI00
aI00
aI00
aI00
aI00
aa(lp2527
I184118
aF63.1233
aF406.95
aVp3
p2528
aS'utopia'
p2529
aS'#656565'
p2530
aF8.88595
aI0
aI00
aI00
aI00
aI00
aI00
aI00
aI00
aI00
aa(lp2531
I194354
aF91.2621
aF406.95
aVp3
p2532
aS'utopia'
p2533
aS'#656565'
p2534
aF8.88595
aI0
aI01
aI00
aI00
aI00
aI00
aI00
aI00
aI00
aa(lp2535
I234378
aF108.294
aF406.95
aVp3
p2536
aS'utopia'
p2537
aS'#656565'
p2538
aF8.88595
aI0
aI00
aI00
aI00
aI00
aI00
aI00
aI00
aI00
aa(lp2539
I156028
aF139.394
aF406.95
aVp3
p2540
aS'utopia'
p2541
aS'#656565'
p2542
aF8.88595
aI0
aI00
aI00
aI00
aI00
aI00
aI00
aI00
aI00
aa(lp2543
I234378
aF157.166
aF406.95
aVp3
p2544
aS'utopia'
p2545
aS'#656565'
p2546
aF8.88595
aI0
aI01
aI00
aI00
aI00
aI00
aI00
aI00
aI00
aa(lp2547
I151732
aF185.305
aF406.95
aVp3
p2548
aS'utopia'
p2549
aS'#656565'
p2550
aF8.88595
aI0
aI01
aI00
aI00
aI00
aI00
aI00
aI00
aI00
aa(lp2551
I234378
aF209.001
aF406.95
aVp3
p2552
aS'utopia'
p2553
aS'#656565'
p2554
aF8.88595
aI0
aI00
aI00
aI00
aI00
aI00
aI00
aI00
aI00
aa(lp2555
I89480
aF252.69
aF406.95
aVp3
p2556
aS'utopia'
p2557
aS'#656565'
p2558
aF8.88595
aI0
aI00
aI00
aI00
aI00
aI00
aI00
aI00
aI00
aa(lp2559
I98224
aF263.057
aF406.95
aVp3
p2560
aS'utopia'
p2561
aS'#656565'
p2562
aF8.88595
aI0
aI00
aI00
aI00
aI00
aI00
aI00
aI00
aI00
aa(lp2563
I232734
aF294.899
aF406.95
aVp3
p2564
aS'utopia'
p2565
aS'#656565'
p2566
aF8.88595
aI0
aI01
aI00
aI00
aI00
aI00
aI00
aI00
aI00
aa(lp2567
I190806
aF324.518
aF406.95
aVp3
p2568
aS'utopia'
p2569
aS'#656565'
p2570
aF8.88595
aI0
aI00
aI00
aI00
aI00
aI00
aI00
aI00
aI00
aa(lp2571
I153843
aF338.588
aF406.95
aVp3
p2572
aS'utopia'
p2573
aS'#656565'
p2574
aF8.88595
aI0
aI01
aI00
aI00
aI00
aI00
aI00
aI00
aI00
aa(lp2575
I234378
aF365.246
aF406.95
aVp3
p2576
aS'utopia'
p2577
aS'#656565'
p2578
aF8.88595
aI0
aI00
aI00
aI00
aI00
aI00
aI00
aI00
aI00
aa(lp2579
I22476
aF393.384
aF406.95
aVp3
p2580
aS'utopia'
p2581
aS'#656565'
p2582
aF8.88595
aI0
aI01
aI00
aI00
aI00
aI00
aI00
aI00
aI00
aa(lp2583
I33705
aF401.53
aF406.95
aVp3
p2584
aS'utopia'
p2585
aS'#656565'
p2586
aF8.88595
aI0
aI00
aI00
aI00
aI00
aI00
aI00
aI00
aI00
aa(lp2587
I24205
aF417.821
aF406.95
aVp3
p2588
aS'utopia'
p2589
aS'#656565'
p2590
aF8.88595
aI0
aI01
aI00
aI00
aI00
aI00
aI00
aI00
aI00
aa(lp2591
I166593
aF445.96
aF406.95
aVp3
p2592
aS'utopia'
p2593
aS'#656565'
p2594
aF8.88595
aI0
aI00
aI00
aI00
aI00
aI00
aI00
aI00
aI00
aa(lp2595
I232734
aF452.624
aF406.95
aVp3
p2596
aS'utopia'
p2597
aS'#656565'
p2598
aF8.88595
aI0
aI00
aI00
aI00
aI00
aI00
aI00
aI00
aI00
aa(lp2599
I98224
aF480.022
aF406.95
aVp3
p2600
aS'utopia'
p2601
aS'#656565'
p2602
aF8.88595
aI0
aI00
aI00
aI00
aI00
aI00
aI00
aI00
aI00
aa(lp2603
I192651
aF511.864
aF406.95
aVp3
p2604
aS'utopia'
p2605
aS'#656565'
p2606
aF8.88595
aI0
aI00
aI00
aI00
aI00
aI00
aI00
aI00
aI00
aa(lp2607
I234378
aF40.9084
aF417.317
aVp3
p2608
aS'utopia'
p2609
aS'#656565'
p2610
aF8.88595
aI0
aI00
aI00
aI00
aI00
aI00
aI00
aI00
aI00
aa(lp2611
I75592
aF77.1927
aF417.317
aVp3
p2612
aS'utopia'
p2613
aS'#656565'
p2614
aF8.88595
aI0
aI00
aI00
aI00
aI00
aI00
aI00
aI00
aI00
aa(lp2615
I234378
aF93.4836
aF417.317
aVp3
p2616
aS'utopia'
p2617
aS'#656565'
p2618
aF8.88595
aI0
aI00
aI00
aI00
aI00
aI00
aI00
aI00
aI00
aa(lp2619
I131049
aF117.18
aF417.317
aVp3
p2620
aS'utopia'
p2621
aS'#656565'
p2622
aF8.88595
aI0
aI00
aI00
aI00
aI00
aI00
aI00
aI00
aI00
aa(lp2623
I16329
aF139.394
aF417.317
aVp3
p2624
aS'utopia'
p2625
aS'#656565'
p2626
aF8.88595
aI0
aI00
aI00
aI00
aI00
aI00
aI00
aI00
aI00
aa(lp2627
I74713
aF151.242
aF417.317
aVp3
p2628
aS'utopia'
p2629
aS'#656565'
p2630
aF8.88595
aI0
aI00
aI00
aI00
aI00
aI00
aI00
aI00
aI00
aa(lp2631
I234378
aF183.084
aF417.317
aVp3
p2632
aS'utopia'
p2633
aS'#656565'
p2634
aF8.88595
aI0
aI00
aI00
aI00
aI00
aI00
aI00
aI00
aI00
aa(lp2635
I164851
aF203.818
aF417.317
aVp3
p2636
aS'utopia'
p2637
aS'#656565'
p2638
aF8.88595
aI0
aI00
aI00
aI00
aI00
aI00
aI00
aI00
aI00
aa(lp2639
I194354
aF228.254
aF417.317
aVp3
p2640
aS'utopia'
p2641
aS'#656565'
p2642
aF8.88595
aI0
aI01
aI00
aI00
aI00
aI00
aI00
aI00
aI00
aa(lp2643
I14603
aF245.285
aF417.317
aVp3
p2644
aS'utopia'
p2645
aS'#656565'
p2646
aF8.88595
aI0
aI01
aI00
aI00
aI00
aI00
aI00
aI00
aI00
aa(lp2647
I234378
aF281.57
aF417.317
aVp3
p2648
aS'utopia'
p2649
aS'#656565'
p2650
aF8.88595
aI0
aI01
aI00
aI00
aI00
aI00
aI00
aI00
aI00
aa(lp2651
I85218
aF322.297
aF417.317
aVp3
p2652
aS'utopia'
p2653
aS'#656565'
p2654
aF8.88595
aI0
aI00
aI00
aI00
aI00
aI00
aI00
aI00
aI00
aa(lp2655
I234378
aF339.328
aF417.317
aVp3
p2656
aS'utopia'
p2657
aS'#656565'
p2658
aF8.88595
aI0
aI01
aI00
aI00
aI00
aI00
aI00
aI00
aI00
aa(lp2659
I96646
aF385.979
aF417.317
aVp3
p2660
aS'utopia'
p2661
aS'#656565'
p2662
aF8.88595
aI0
aI00
aI00
aI00
aI00
aI00
aI00
aI00
aI00
aa(lp2663
I46033
aF411.156
aF417.317
aVp3
p2664
aS'utopia'
p2665
aS'#656565'
p2666
aF8.88595
aI0
aI00
aI00
aI00
aI00
aI00
aI00
aI00
aI00
aa(lp2667
I144503
aF445.96
aF417.317
aVp3
p2668
aS'utopia'
p2669
aS'#656565'
p2670
aF8.88595
aI0
aI00
aI00
aI00
aI00
aI00
aI00
aI00
aI00
aa(lp2671
I233901
aF457.067
aF417.317
aVp3
p2672
aS'utopia'
p2673
aS'#656565'
p2674
aF8.88595
aI0
aI00
aI00
aI00
aI00
aI00
aI00
aI00
aI00
aa(lp2675
I194354
aF478.541
aF417.317
aVp3
p2676
aS'utopia'
p2677
aS'#656565'
p2678
aF8.88595
aI0
aI00
aI00
aI00
aI00
aI00
aI00
aI00
aI00
aa(lp2679
I98224
aF493.351
aF417.317
aVp3
p2680
aS'utopia'
p2681
aS'#656565'
p2682
aF8.88595
aI0
aI00
aI00
aI00
aI00
aI00
aI00
aI00
aI00
aa(lp2683
I218914
aF525.193
aF417.317
aVp3
p2684
aS'utopia'
p2685
aS'#656565'
p2686
aF8.88595
aI0
aI00
aI00
aI00
aI00
aI00
aI00
aI00
aI00
aa(lp2687
I22474
aF40.9084
aF427.684
aVp3
p2688
aS'utopia'
p2689
aS'#656565'
p2690
aF8.88595
aI0
aI00
aI00
aI00
aI00
aI00
aI00
aI00
aI00
aa(lp2691
I234378
aF49.0539
aF427.684
aVp3
p2692
aS'utopia'
p2693
aS'#656565'
p2694
aF8.88595
aI0
aI00
aI00
aI00
aI00
aI00
aI00
aI00
aI00
aa(lp2695
I135639
aF77.1927
aF427.684
aVp3
p2696
aS'utopia'
p2697
aS'#656565'
p2698
aF8.88595
aI0
aI00
aI00
aI00
aI00
aI00
aI00
aI00
aI00
aa(lp2699
I194354
aF86.8192
aF427.684
aVp3
p2700
aS'utopia'
p2701
aS'#656565'
p2702
aF8.88595
aI0
aI00
aI00
aI00
aI00
aI00
aI00
aI00
aI00
aa(lp2703
I234378
aF101.629
aF427.684
aVp3
p2704
aS'utopia'
p2705
aS'#656565'
p2706
aF8.88595
aI0
aI00
aI00
aI00
aI00
aI00
aI00
aI00
aI00
aa(lp2707
I156028
aF132.73
aF427.684
aVp3
p2708
aS'utopia'
p2709
aS'#656565'
p2710
aF8.88595
aI0
aI00
aI00
aI00
aI00
aI00
aI00
aI00
aI00
aa(lp2711
I101504
aF150.502
aF427.684
aVp3
p2712
aS'utopia'
p2713
aS'#656565'
p2714
aF8.88595
aI0
aI01
aI00
aI00
aI00
aI00
aI00
aI00
aI00
aa(lp2715
I22476
aF173.457
aF427.684
aVp3
p2716
aS'utopia'
p2717
aS'#656565'
p2718
aF8.88595
aI0
aI00
aI00
aI00
aI00
aI00
aI00
aI00
aI00
aa(lp2719
I22474
aF180.862
aF427.684
aVp3
p2720
aS'utopia'
p2721
aS'#656565'
p2722
aF8.88595
aI0
aI00
aI00
aI00
aI00
aI00
aI00
aI00
aI00
aa(lp2723
I234378
aF189.008
aF427.684
aVp3
p2724
aS'utopia'
p2725
aS'#656565'
p2726
aF8.88595
aI0
aI00
aI00
aI00
aI00
aI00
aI00
aI00
aI00
aa(lp2727
I234378
aF224.6544888888889
aF427.684
ag2724
aS'utopia'
p2728
aS'#656565'
p2729
aF8.88595
aI0
aI00
aI00
aI00
aI00
aI00
aI00
aI00
aI00
aa(lp2730
I194354
aF231.216
aF427.684
aVp3
p2731
aS'utopia'
p2732
aS'#656565'
p2733
aF8.88595
aI0
aI00
aI00
aI00
aI00
aI00
aI00
aI00
aI00
aa(lp2734
I164851
aF246.026
aF427.684
aVp3
p2735
aS'utopia'
p2736
aS'#656565'
p2737
aF8.88595
aI0
aI00
aI00
aI00
aI00
aI00
aI00
aI00
aI00
aa(lp2738
I22474
aF270.462
aF427.684
aVp3
p2739
aS'utopia'
p2740
aS'#656565'
p2741
aF8.88595
aI0
aI00
aI00
aI00
aI00
aI00
aI00
aI00
aI00
aa(lp2742
I234378
aF278.608
aF427.684
aVp3
p2743
aS'utopia'
p2744
aS'#656565'
p2745
aF8.88595
aI0
aI00
aI00
aI00
aI00
aI00
aI00
aI00
aI00
aa(lp2746
I15726
aF317.854
aF427.684
aVp3
p2747
aS'utopia'
p2748
aS'#656565'
p2749
aF8.88595
aI0
aI00
aI00
aI00
aI00
aI00
aI00
aI00
aI00
aa(lp2750
I234378
aF335.626
aF427.684
aVp3
p2751
aS'utopia'
p2752
aS'#656565'
p2753
aF8.88595
aI0
aI01
aI01
aI00
aI00
aI00
aI00
aI00
aI00
aa(lp2754
I190806
aF354.138
aF427.684
aVp3
p2755
aS'utopia'
p2756
aS'#656565'
p2757
aF8.88595
aI0
aI00
aI00
aI00
aI00
aI00
aI00
aI00
aI00
aa(lp2758
I234378
aF368.208
aF427.684
aVp3
p2759
aS'utopia'
p2760
aS'#656565'
p2761
aF8.88595
aI0
aI00
aI00
aI00
aI00
aI00
aI00
aI00
aI00
aa(lp2762
I188043
aF412.637
aF427.684
aVp3
p2763
aS'utopia'
p2764
aS'#656565'
p2765
aF8.88595
aI0
aI01
aI00
aI00
aI00
aI00
aI00
aI00
aI00
aa(lp2766
I51017
aF437.814
aF427.684
aVp3
p2767
aS'utopia'
p2768
aS'#656565'
p2769
aF8.88595
aI0
aI00
aI00
aI00
aI00
aI00
aI00
aI00
aI00
aa(lp2770
I194354
aF457.067
aF427.684
aVp3
p2771
aS'utopia'
p2772
aS'#656565'
p2773
aF8.88595
aI0
aI00
aI00
aI00
aI00
aI00
aI00
aI00
aI00
aa(lp2774
I98224
aF471.877
aF427.684
aVp3
p2775
aS'utopia'
p2776
aS'#656565'
p2777
aF8.88595
aI0
aI00
aI00
aI00
aI00
aI00
aI00
aI00
aI00
aa(lp2778
I22474
aF503.718
aF427.684
aVp3
p2779
aS'utopia'
p2780
aS'#656565'
p2781
aF8.88595
aI0
aI00
aI00
aI00
aI00
aI00
aI00
aI00
aI00
aa(lp2782
I234378
aF511.864
aF427.684
aVp3
p2783
aS'utopia'
p2784
aS'#656565'
p2785
aF8.88595
aI0
aI00
aI00
aI00
aI00
aI00
aI00
aI00
aI00
aa(lp2786
I176802
aF40.9084
aF438.051
aVp3
p2787
aS'utopia'
p2788
aS'#656565'
p2789
aF8.88595
aI0
aI00
aI00
aI00
aI00
aI00
aI00
aI00
aI00
aa(lp2790
I234378
aF57.9398
aF438.051
aVp3
p2791
aS'utopia'
p2792
aS'#656565'
p2793
aF8.88595
aI0
aI01
aI00
aI00
aI00
aI00
aI00
aI00
aI00
aa(lp2794
I22474
aF129.027
aF438.051
aVp3
p2795
aS'utopia'
p2796
aS'#656565'
p2797
aF8.88595
aI0
aI00
aI00
aI00
aI00
aI00
aI00
aI00
aI00
aa(lp2798
I183670
aF137.173
aF438.051
aVp3
p2799
aS'utopia'
p2800
aS'#656565'
p2801
aF8.88595
aI0
aI00
aI00
aI00
aI00
aI00
aI00
aI00
aI00
aa(lp2802
I89480
aF155.685
aF438.051
aVp3
p2803
aS'utopia'
p2804
aS'#656565'
p2805
aF8.88595
aI0
aI00
aI00
aI00
aI00
aI00
aI00
aI00
aI00
aa(lp2806
I120218
aF166.052
aF438.051
aVp3
p2807
aS'utopia'
p2808
aS'#656565'
p2809
aF8.88595
aI0
aI00
aI00
aI00
aI00
aI00
aI00
aI00
aI00
aa(lp2810
I234378
aF206.039
aF438.051
aVp3
p2811
aS'utopia'
p2812
aS'#656565'
p2813
aF8.88595
aI0
aI00
aI00
aI00
aI00
aI00
aI00
aI00
aI00
aa(lp2814
I96646
aF246.766
aF438.051
aVp3
p2815
aS'utopia'
p2816
aS'#656565'
p2817
aF8.88595
aI0
aI00
aI00
aI00
aI00
aI00
aI00
aI00
aI00
aa(lp2818
I138783
aF271.943
aF438.051
aVp3
p2819
aS'utopia'
p2820
aS'#656565'
p2821
aF8.88595
aI0
aI00
aI00
aI00
aI00
aI00
aI00
aI00
aI00
aa(lp2822
I144503
aF308.968
aF438.051
aVp3
p2823
aS'utopia'
p2824
aS'#656565'
p2825
aF8.88595
aI0
aI00
aI00
aI00
aI00
aI00
aI00
aI00
aI00
aa(lp2826
I61675
aF320.075
aF438.051
aVp3
p2827
aS'utopia'
p2828
aS'#656565'
p2829
aF8.88595
aI0
aI00
aI00
aI00
aI00
aI00
aI00
aI00
aI00
aa(lp2830
I162068
aF345.993
aF438.051
aVp3
p2831
aS'utopia'
p2832
aS'#656565'
p2833
aF8.88595
aI0
aI00
aI00
aI00
aI00
aI00
aI00
aI00
aI00
aa(lp2834
I169745
aF369.689
aF438.051
aVp3
p2835
aS'utopia'
p2836
aS'#656565'
p2837
aF8.88595
aI0
aI00
aI00
aI00
aI00
aI00
aI00
aI00
aI00
aa(lp2838
I228218
aF388.941
aF438.051
aVp3
p2839
aS'utopia'
p2840
aS'#656565'
p2841
aF8.88595
aI0
aI00
aI00
aI00
aI00
aI00
aI00
aI00
aI00
aa(lp2842
I139832
aF411.897
aF438.051
aVp3
p2843
aS'utopia'
p2844
aS'#656565'
p2845
aF8.88595
aI0
aI00
aI00
aI00
aI00
aI00
aI00
aI00
aI00
aa(lp2846
I156028
aF442.257
aF438.051
aVp3
p2847
aS'utopia'
p2848
aS'#656565'
p2849
aF8.88595
aI0
aI00
aI00
aI00
aI00
aI00
aI00
aI00
aI00
aa(lp2850
I234378
aF456.56692
aF438.051
ag2847
aS'utopia'
p2851
aS'#656565'
p2852
aF8.88595
aI0
aI00
aI00
aI00
aI00
aI00
aI00
aI00
aI00
aa(lp2853
I234378
aF462.251
aF438.051
aVp3
p2854
aS'utopia'
p2855
aS'#656565'
p2856
aF8.88595
aI0
aI00
aI00
aI00
aI00
aI00
aI00
aI00
aI00
aa(lp2857
I156028
aF493.351
aF438.051
aVp3
p2858
aS'utopia'
p2859
aS'#656565'
p2860
aF8.88595
aI0
aI00
aI00
aI00
aI00
aI00
aI00
aI00
aI00
aa(lp2861
I234378
aF511.123
aF438.051
aVp3
p2862
aS'utopia'
p2863
aS'#656565'
p2864
aF8.88595
aI0
aI00
aI00
aI00
aI00
aI00
aI00
aI00
aI00
aa(lp2865
I12510
aF514.7404285714285
aF438.051
ag2862
aS'utopia'
p2866
aS'#656565'
p2867
aF8.88595
aI0
aI00
aI00
aI00
aI00
aI00
aI00
aI00
aI00
aa(lp2868
I156028
aF40.9084
aF448.418
aVp3
p2869
aS'utopia'
p2870
aS'#656565'
p2871
aF8.88595
aI0
aI00
aI00
aI00
aI00
aI00
aI00
aI00
aI00
aa(lp2872
I193136
aF58.6803
aF448.418
aVp3
p2873
aS'utopia'
p2874
aS'#656565'
p2875
aF8.88595
aI0
aI00
aI00
aI00
aI00
aI00
aI00
aI00
aI00
aa(lp2876
I84932
aF81.6357
aF448.418
aVp3
p2877
aS'utopia'
p2878
aS'#656565'
p2879
aF8.88595
aI0
aI00
aI00
aI00
aI00
aI00
aI00
aI00
aI00
aa(lp2880
I182318
aF96.4456
aF448.418
aVp3
p2881
aS'utopia'
p2882
aS'#656565'
p2883
aF8.88595
aI0
aI00
aI00
aI00
aI00
aI00
aI00
aI00
aI00
aa(lp2884
I100065
aF107.553
aF448.418
aVp3
p2885
aS'utopia'
p2886
aS'#656565'
p2887
aF8.88595
aI0
aI00
aI00
aI00
aI00
aI00
aI00
aI00
aI00
aa(lp2888
I234378
aF131.989
aF448.418
aVp3
p2889
aS'utopia'
p2890
aS'#656565'
p2891
aF8.88595
aI0
aI00
aI00
aI00
aI00
aI00
aI00
aI00
aI00
aa(lp2892
I84932
aF153.464
aF448.418
aVp3
p2893
aS'utopia'
p2894
aS'#656565'
p2895
aF8.88595
aI0
aI00
aI00
aI00
aI00
aI00
aI00
aI00
aI00
aa(lp2896
I234378
aF168.274
aF448.418
aVp3
p2897
aS'utopia'
p2898
aS'#656565'
p2899
aF8.88595
aI0
aI00
aI00
aI00
aI00
aI00
aI00
aI00
aI00
aa(lp2900
I169745
aF211.963
aF448.418
aVp3
p2901
aS'utopia'
p2902
aS'#656565'
p2903
aF8.88595
aI0
aI00
aI00
aI00
aI00
aI00
aI00
aI00
aI00
aa(lp2904
I194354
aF231.216
aF448.418
aVp3
p2905
aS'utopia'
p2906
aS'#656565'
p2907
aF8.88595
aI0
aI00
aI00
aI00
aI00
aI00
aI00
aI00
aI00
aa(lp2908
I177958
aF246.026
aF448.418
aVp3
p2909
aS'utopia'
p2910
aS'#656565'
p2911
aF8.88595
aI0
aI00
aI00
aI00
aI00
aI00
aI00
aI00
aI00
aa(lp2912
I89480
aF276.386
aF448.418
aVp3
p2913
aS'utopia'
p2914
aS'#656565'
p2915
aF8.88595
aI0
aI00
aI00
aI00
aI00
aI00
aI00
aI00
aI00
aa(lp2916
I60201
aF286.753
aF448.418
aVp3
p2917
aS'utopia'
p2918
aS'#656565'
p2919
aF8.88595
aI0
aI00
aI00
aI00
aI00
aI00
aI00
aI00
aI00
aa(lp2920
I213747
aF301.563
aF448.418
aVp3
p2921
aS'utopia'
p2922
aS'#656565'
p2923
aF8.88595
aI0
aI00
aI00
aI00
aI00
aI00
aI00
aI00
aI00
aa(lp2924
I194354
aF313.411
aF448.418
aVp3
p2925
aS'utopia'
p2926
aS'#656565'
p2927
aF8.88595
aI0
aI00
aI00
aI00
aI00
aI00
aI00
aI00
aI00
aa(lp2928
I41890
aF328.221
aF448.418
aVp3
p2929
aS'utopia'
p2930
aS'#656565'
p2931
aF8.88595
aI0
aI00
aI00
aI00
aI00
aI00
aI00
aI00
aI00
aa(lp2932
I194354
aF339.328
aF448.418
aVp3
p2933
aS'utopia'
p2934
aS'#656565'
p2935
aF8.88595
aI0
aI00
aI00
aI00
aI00
aI00
aI00
aI00
aI00
aa(lp2936
I234378
aF354.138
aF448.418
aVp3
p2937
aS'utopia'
p2938
aS'#656565'
p2939
aF8.88595
aI0
aI00
aI00
aI00
aI00
aI00
aI00
aI00
aI00
aa(lp2940
I42193
aF40.9084
aF485.336
aVp3
p2941
aS'utopia'
p2942
aS'#000000'
p2943
aF10.3669
aI1
aI01
aI00
aI00
aI00
aI00
aI00
aI00
aI00
aa(lp2944
I113211
aF90.5217
aF485.336
aVp3
p2945
aS'utopia'
p2946
aS'#000000'
p2947
aF10.3669
aI1
aI01
aI00
aI00
aI00
aI00
aI00
aI00
aI00
aa(lp2948
I234378
aF131.249
aF485.336
aVp3
p2949
aS'utopia'
p2950
aS'#000000'
p2951
aF10.3669
aI1
aI01
aI00
aI00
aI00
aI00
aI00
aI00
aI00
aa(lp2952
I151732
aF40.9084
aF501.897
aVp3
p2953
aS'utopia'
p2954
aS'#656565'
p2955
aF10.3669
aI0
aI01
aI00
aI00
aI00
aI00
aI00
aI00
aI00
aa(lp2956
I234378
aF69.0473
aF501.897
aVp3
p2957
aS'utopia'
p2958
aS'#656565'
p2959
aF10.3669
aI0
aI01
aI00
aI00
aI00
aI00
aI00
aI00
aI00
aa(lp2960
I234378
aF114.218
aF501.897
aVp3
p2961
aS'utopia'
p2962
aS'#656565'
p2963
aF10.3669
aI0
aI01
aI00
aI00
aI00
aI00
aI00
aI00
aI00
aa(lp2964
I60201
aF151.242
aF501.897
aVp3
p2965
aS'utopia'
p2966
aS'#656565'
p2967
aF10.3669
aI0
aI01
aI00
aI00
aI00
aI00
aI00
aI00
aI00
aa(lp2968
I230071
aF171.236
aF501.897
aVp3
p2969
aS'utopia'
p2970
aS'#656565'
p2971
aF10.3669
aI0
aI01
aI00
aI00
aI00
aI00
aI00
aI00
aI00
aa(lp2972
I131049
aF202.337
aF501.897
aVp3
p2973
aS'utopia'
p2974
aS'#656565'
p2975
aF10.3669
aI0
aI00
aI00
aI00
aI00
aI00
aI00
aI00
aI00
aa(lp2976
I27216
aF226.773
aF501.897
aVp3
p2977
aS'utopia'
p2978
aS'#656565'
p2979
aF10.3669
aI0
aI01
aI00
aI00
aI00
aI00
aI00
aI00
aI01
aa(lp2980
I234378
aF245.285
aF501.897
aVp3
p2981
aS'utopia'
p2982
aS'#656565'
p2983
aF10.3669
aI0
aI00
aI00
aI01
aI01
aI01
aI00
aI00
aI00
aa(lp2984
I89480
aF268.241
aF501.897
aVp3
p2985
aS'utopia'
p2986
aS'#656565'
p2987
aF10.3669
aI0
aI00
aI00
aI00
aI00
aI00
aI00
aI00
aI00
aa(lp2988
I234378
aF280.089
aF501.897
aVp3
p2989
aS'utopia'
p2990
aS'#656565'
p2991
aF10.3669
aI0
aI01
aI00
aI00
aI00
aI00
aI00
aI00
aI01
aa(lp2992
I234378
aF300.822
aF501.897
aVp3
p2993
aS'utopia'
p2994
aS'#656565'
p2995
aF10.3669
aI0
aI00
aI00
aI01
aI01
aI01
aI00
aI00
aI00
aa(lp2996
I164802
aF40.9084
aF518.188
aVp3
p2997
aS'utopia'
p2998
aS'#656565'
p2999
aF10.3669
aI0
aI01
aI00
aI00
aI00
aI00
aI00
aI00
aI00
aa(lp3000
I234378
aF67.6181
aF518.188
ag2997
aS'utopia'
p3001
aS'#656565'
p3002
aF10.3669
aI0
aI00
aI00
aI00
aI00
aI00
aI00
aI00
aI00
aa(lp3003
I234378
aF72.96003999999999
aF518.188
ag2997
aS'utopia'
p3004
aS'#656565'
p3005
aF10.3669
aI0
aI00
aI00
aI00
aI00
aI00
aI00
aI00
aI00
aa(lp3006
I109610
aF40.9084
aF534.316
aVp3
p3007
aS'utopia'
p3008
aS'#656565'
p3009
aF8.88595
aI0
aI01
aI00
aI00
aI00
aI00
aI00
aI00
aI00
aa(lp3010
I25729
aF58.6803
aF534.316
aVp3
p3011
aS'utopia'
p3012
aS'#656565'
p3013
aF8.88595
aI0
aI01
aI00
aI00
aI00
aI00
aI00
aI00
aI00
aa(lp3014
I234378
aF76.54462000000001
aF534.316
ag3011
aS'utopia'
p3015
aS'#656565'
p3016
aF8.88595
aI0
aI00
aI00
aI00
aI00
aI00
aI00
aI00
aI00
aa(lp3017
I21716
aF85.3382
aF534.316
aVp3
p3018
aS'utopia'
p3019
aS'#656565'
p3020
aF8.88595
aI0
aI01
aI00
aI00
aI00
aI00
aI00
aI00
aI00
aa(lp3021
I234378
aF100.24052
aF534.316
ag3018
aS'utopia'
p3022
aS'#656565'
p3023
aF8.88595
aI0
aI00
aI00
aI00
aI00
aI00
aI00
aI00
aI00
aa(lp3024
I234378
aF106.072
aF534.316
aVp3
p3025
aS'utopia'
p3026
aS'#656565'
p3027
aF8.88595
aI0
aI01
aI01
aI00
aI00
aI00
aI00
aI00
aI00
aa(lp3028
I234378
aF117.26605
aF534.316
ag3025
aS'utopia'
p3029
aS'#656565'
p3030
aF8.88595
aI0
aI00
aI00
aI00
aI00
aI00
aI00
aI00
aI00
aa(lp3031
I234378
aF123.103
aF534.316
aVp3
p3032
aS'utopia'
p3033
aS'#656565'
p3034
aF8.88595
aI0
aI01
aI00
aI00
aI00
aI00
aI00
aI00
aI00
aa(lp3035
I234378
aF143.837
aF534.316
aVp3
p3036
aS'utopia'
p3037
aS'#656565'
p3038
aF8.88595
aI0
aI00
aI00
aI00
aI00
aI00
aI00
aI00
aI00
aa(lp3039
I176767
aF147.88657272727272
aF534.316
ag3036
aS'utopia'
p3040
aS'#656565'
p3041
aF8.88595
aI0
aI01
aI00
aI00
aI00
aI00
aI00
aI00
aI00
aa(lp3042
I234378
aF174.33272727272725
aF534.316
ag3036
aS'utopia'
p3043
aS'#656565'
p3044
aF8.88595
aI0
aI00
aI00
aI00
aI00
aI00
aI00
aI00
aI00
aa(lp3045
I234378
aF190.489
aF534.316
aVp3
p3046
aS'utopia'
p3047
aS'#656565'
p3048
aF8.88595
aI0
aI01
aI00
aI00
aI00
aI00
aI00
aI00
aI00
aa(lp3049
I234378
aF228.994
aF534.316
aVp3
p3050
aS'utopia'
p3051
aS'#656565'
p3052
aF8.88595
aI0
aI01
aI01
aI00
aI00
aI00
aI00
aI00
aI00
aa(lp3053
I234378
aF237.46326666666667
aF534.316
ag3050
aS'utopia'
p3054
aS'#656565'
p3055
aF8.88595
aI0
aI00
aI00
aI00
aI00
aI00
aI00
aI00
aI00
aa(lp3056
I110786
aF243.804
aF534.316
aVp3
p3057
aS'utopia'
p3058
aS'#656565'
p3059
aF8.88595
aI0
aI01
aI00
aI00
aI00
aI00
aI00
aI00
aI00
aa(lp3060
I234378
aF271.83025714285714
aF534.316
ag3057
aS'utopia'
p3061
aS'#656565'
p3062
aF8.88595
aI0
aI00
aI00
aI00
aI00
aI00
aI00
aI00
aI00
aa(lp3063
I210461
aF40.9084
aF548.385
aVp3
p3064
aS'utopia'
p3065
aS'#656565'
p3066
aF8.88595
aI0
aI01
aI00
aI00
aI00
aI00
aI00
aI00
aI00
aa(lp3067
I340
aF65.3448
aF548.385
aVp3
p3068
aS'utopia'
p3069
aS'#656565'
p3070
aF8.88595
aI0
aI01
aI00
aI00
aI00
aI00
aI00
aI00
aI00
aa(lp3071
I234378
aF79.65472000000001
aF548.385
ag3068
aS'utopia'
p3072
aS'#656565'
p3073
aF8.88595
aI0
aI00
aI00
aI00
aI00
aI00
aI00
aI00
aI00
aa(lp3074
I234378
aF87.5597
aF548.385
aVp3
p3075
aS'utopia'
p3076
aS'#656565'
p3077
aF8.88595
aI0
aI00
aI00
aI01
aI01
aI00
aI00
aI00
aI00
aa(lp3078
I176435
aF40.9084
aF562.454
aVp3
p3079
aS'utopia'
p3080
aS'#656565'
p3081
aF8.88595
aI0
aI01
aI00
aI00
aI00
aI00
aI00
aI00
aI00
aa(lp3082
I234378
aF60.9018
aF562.454
aVp3
p3083
aS'utopia'
p3084
aS'#656565'
p3085
aF8.88595
aI0
aI00
aI00
aI00
aI00
aI00
aI00
aI00
aI00
aa(lp3086
I150037
aF67.5663
aF562.454
aVp3
p3087
aS'utopia'
p3088
aS'#656565'
p3089
aF8.88595
aI0
aI01
aI00
aI00
aI00
aI00
aI00
aI00
aI00
aa(lp3090
I176435
aF40.9084
aF576.524
aVp3
p3091
aS'utopia'
p3092
aS'#656565'
p3093
aF8.88595
aI0
aI01
aI00
aI00
aI00
aI00
aI00
aI00
aI00
aa(lp3094
I66756
aF60.9018
aF576.524
aVp3
p3095
aS'utopia'
p3096
aS'#656565'
p3097
aF8.88595
aI0
aI01
aI00
aI00
aI00
aI00
aI00
aI00
aI00
aa(lp3098
I234378
aF105.12885833333334
aF576.524
ag3095
aS'utopia'
p3099
aS'#656565'
p3100
aF8.88595
aI0
aI00
aI00
aI00
aI00
aI00
aI00
aI00
aI00
aa(lp3101
I105322
aF113.477
aF576.524
aVp3
p3102
aS'utopia'
p3103
aS'#656565'
p3104
aF8.88595
aI0
aI01
aI00
aI00
aI00
aI00
aI00
aI00
aI00
aa(lp3105
I135639
aF149.761
aF576.524
aVp3
p3106
aS'utopia'
p3107
aS'#656565'
p3108
aF8.88595
aI0
aI00
aI00
aI00
aI00
aI00
aI00
aI00
aI00
aa(lp3109
I153278
aF159.388
aF576.524
aVp3
p3110
aS'utopia'
p3111
aS'#656565'
p3112
aF8.88595
aI0
aI00
aI00
aI00
aI00
aI00
aI00
aI00
aI00
aa(lp3113
I31703
aF176.419
aF576.524
aVp3
p3114
aS'utopia'
p3115
aS'#656565'
p3116
aF8.88595
aI0
aI00
aI00
aI00
aI00
aI00
aI00
aI00
aI00
aa(lp3117
I85218
aF200.115
aF576.524
aVp3
p3118
aS'utopia'
p3119
aS'#656565'
p3120
aF8.88595
aI0
aI00
aI00
aI00
aI00
aI00
aI00
aI00
aI00
aa(lp3121
I59164
aF217.146
aF576.524
aVp3
p3122
aS'utopia'
p3123
aS'#656565'
p3124
aF8.88595
aI0
aI00
aI00
aI00
aI00
aI00
aI00
aI00
aI00
aa(lp3125
I211693
aF248.247
aF576.524
aVp3
p3126
aS'utopia'
p3127
aS'#656565'
p3128
aF8.88595
aI0
aI00
aI00
aI00
aI00
aI00
aI00
aI00
aI00
aa(lp3129
I144489
aF284.532
aF576.524
aVp3
p3130
aS'utopia'
p3131
aS'#656565'
p3132
aF8.88595
aI0
aI00
aI00
aI00
aI00
aI00
aI00
aI00
aI00
aa(lp3133
I174268
aF294.899
aF576.524
aVp3
p3134
aS'utopia'
p3135
aS'#656565'
p3136
aF8.88595
aI0
aI00
aI00
aI00
aI00
aI00
aI00
aI00
aI00
aa(lp3137
I234378
aF325.999
aF576.524
aVp3
p3138
aS'utopia'
p3139
aS'#656565'
p3140
aF8.88595
aI0
aI00
aI00
aI00
aI00
aI00
aI00
aI00
aI00
aa(lp3141
I234378
aF350.1802
aF576.524
ag3138
aS'utopia'
p3142
aS'#656565'
p3143
aF8.88595
aI0
aI00
aI00
aI00
aI00
aI00
aI00
aI00
aI00
aa(lp3144
I234378
aF354.2104
aF576.524
ag3138
aS'utopia'
p3145
aS'#656565'
p3146
aF8.88595
aI0
aI00
aI00
aI00
aI00
aI00
aI00
aI00
aI00
aa(lp3147
I218768
aF384.499
aF576.524
aVp3
p3148
aS'utopia'
p3149
aS'#656565'
p3150
aF8.88595
aI0
aI00
aI00
aI00
aI00
aI00
aI00
aI00
aI00
aa(lp3151
I89480
aF414.118
aF576.524
aVp3
p3152
aS'utopia'
p3153
aS'#656565'
p3154
aF8.88595
aI0
aI00
aI00
aI00
aI00
aI00
aI00
aI00
aI00
aa(lp3155
I151732
aF424.485
aF576.524
aVp3
p3156
aS'utopia'
p3157
aS'#656565'
p3158
aF8.88595
aI0
aI01
aI00
aI00
aI00
aI00
aI00
aI00
aI00
aa(lp3159
I35885
aF448.181
aF576.524
aVp3
p3160
aS'utopia'
p3161
aS'#656565'
p3162
aF8.88595
aI0
aI00
aI00
aI00
aI00
aI00
aI00
aI00
aI00
aa(lp3163
I17350
aF473.358
aF576.524
aVp3
p3164
aS'utopia'
p3165
aS'#656565'
p3166
aF8.88595
aI0
aI00
aI00
aI00
aI00
aI00
aI00
aI00
aI00
aa(lp3167
I234378
aF491.87
aF576.524
aVp3
p3168
aS'utopia'
p3169
aS'#656565'
p3170
aF8.88595
aI0
aI00
aI00
aI00
aI00
aI00
aI00
aI00
aI00
aa(lp3171
I140548
aF513.345
aF576.524
aVp3
p3172
aS'utopia'
p3173
aS'#656565'
p3174
aF8.88595
aI0
aI00
aI00
aI00
aI00
aI00
aI00
aI00
aI00
aa(lp3175
I89480
aF40.9084
aF586.891
aVp3
p3176
aS'utopia'
p3177
aS'#656565'
p3178
aF8.88595
aI0
aI00
aI00
aI00
aI00
aI00
aI00
aI00
aI00
aa(lp3179
I234378
aF51.2754
aF586.891
aVp3
p3180
aS'utopia'
p3181
aS'#656565'
p3182
aF8.88595
aI0
aI00
aI00
aI00
aI00
aI00
aI00
aI00
aI00
aa(lp3183
I234378
aF89.07839999999999
aF586.891
ag3180
aS'utopia'
p3184
aS'#656565'
p3185
aF8.88595
aI0
aI00
aI00
aI00
aI00
aI00
aI00
aI00
aI00
aa(lp3186
I105322
aF94.9646
aF586.891
aVp3
p3187
aS'utopia'
p3188
aS'#656565'
p3189
aF8.88595
aI0
aI01
aI00
aI00
aI00
aI00
aI00
aI00
aI00
aa(lp3190
I135639
aF131.249
aF586.891
aVp3
p3191
aS'utopia'
p3192
aS'#656565'
p3193
aF8.88595
aI0
aI00
aI00
aI00
aI00
aI00
aI00
aI00
aI00
aa(lp3194
I125078
aF140.875
aF586.891
aVp3
p3195
aS'utopia'
p3196
aS'#656565'
p3197
aF8.88595
aI0
aI00
aI00
aI00
aI00
aI00
aI00
aI00
aI00
aa(lp3198
I85218
aF169.014
aF586.891
aVp3
p3199
aS'utopia'
p3200
aS'#656565'
p3201
aF8.88595
aI0
aI00
aI00
aI00
aI00
aI00
aI00
aI00
aI00
aa(lp3202
I142554
aF186.046
aF586.891
aVp3
p3203
aS'utopia'
p3204
aS'#656565'
p3205
aF8.88595
aI0
aI00
aI00
aI00
aI00
aI00
aI00
aI00
aI00
aa(lp3206
I144489
aF235.659
aF586.891
aVp3
p3207
aS'utopia'
p3208
aS'#656565'
p3209
aF8.88595
aI0
aI00
aI00
aI00
aI00
aI00
aI00
aI00
aI00
aa(lp3210
I174268
aF246.026
aF586.891
aVp3
p3211
aS'utopia'
p3212
aS'#656565'
p3213
aF8.88595
aI0
aI00
aI00
aI00
aI00
aI00
aI00
aI00
aI00
aa(lp3214
I234378
aF277.127
aF586.891
aVp3
p3215
aS'utopia'
p3216
aS'#656565'
p3217
aF8.88595
aI0
aI00
aI00
aI00
aI00
aI00
aI00
aI00
aI00
aa(lp3218
I140548
aF298.601
aF586.891
aVp3
p3219
aS'utopia'
p3220
aS'#656565'
p3221
aF8.88595
aI0
aI00
aI00
aI00
aI00
aI00
aI00
aI00
aI00
aa(lp3222
I89480
aF340.069
aF586.891
aVp3
p3223
aS'utopia'
p3224
aS'#656565'
p3225
aF8.88595
aI0
aI00
aI00
aI00
aI00
aI00
aI00
aI00
aI00
aa(lp3226
I194354
aF350.436
aF586.891
aVp3
p3227
aS'utopia'
p3228
aS'#656565'
p3229
aF8.88595
aI0
aI00
aI00
aI00
aI00
aI00
aI00
aI00
aI00
aa(lp3230
I109318
aF365.246
aF586.891
aVp3
p3231
aS'utopia'
p3232
aS'#656565'
p3233
aF8.88595
aI0
aI00
aI00
aI00
aI00
aI00
aI00
aI00
aI00
aa(lp3234
I234378
aF382.51792
aF586.891
ag3231
aS'utopia'
p3235
aS'#656565'
p3236
aF8.88595
aI0
aI00
aI00
aI00
aI00
aI00
aI00
aI00
aI00
aa(lp3237
I234378
aF388.941
aF586.891
aVp3
p3238
aS'utopia'
p3239
aS'#656565'
p3240
aF8.88595
aI0
aI01
aI00
aI00
aI00
aI00
aI00
aI00
aI00
aa(lp3241
I135639
aF427.447
aF586.891
aVp3
p3242
aS'utopia'
p3243
aS'#656565'
p3244
aF8.88595
aI0
aI00
aI00
aI00
aI00
aI00
aI00
aI00
aI00
aa(lp3245
I163414
aF437.074
aF586.891
aVp3
p3246
aS'utopia'
p3247
aS'#656565'
p3248
aF8.88595
aI0
aI00
aI00
aI00
aI00
aI00
aI00
aI00
aI00
aa(lp3249
I234378
aF473.358
aF586.891
aVp3
p3250
aS'utopia'
p3251
aS'#656565'
p3252
aF8.88595
aI0
aI01
aI01
aI01
aI00
aI00
aI00
aI00
aI00
aa(lp3253
I234378
aF482.92876
aF586.891
ag3250
aS'utopia'
p3254
aS'#656565'
p3255
aF8.88595
aI0
aI00
aI00
aI00
aI00
aI00
aI00
aI00
aI00
aa(lp3256
I234378
aF487.71414
aF586.891
ag3250
aS'utopia'
p3257
aS'#656565'
p3258
aF8.88595
aI0
aI01
aI01
aI01
aI00
aI00
aI00
aI00
aI00
aa(lp3259
I190806
aF499.275
aF586.891
aVp3
p3260
aS'utopia'
p3261
aS'#656565'
p3262
aF8.88595
aI0
aI00
aI00
aI00
aI00
aI00
aI00
aI00
aI00
aa(lp3263
I151732
aF513.345
aF586.891
aVp3
p3264
aS'utopia'
p3265
aS'#656565'
p3266
aF8.88595
aI0
aI01
aI00
aI00
aI00
aI00
aI00
aI00
aI00
aa(lp3267
I35885
aF40.9084
aF597.258
aVp3
p3268
aS'utopia'
p3269
aS'#656565'
p3270
aF8.88595
aI0
aI00
aI00
aI00
aI00
aI00
aI00
aI00
aI00
aa(lp3271
I200489
aF66.0853
aF597.258
aVp3
p3272
aS'utopia'
p3273
aS'#656565'
p3274
aF8.88595
aI0
aI00
aI00
aI00
aI00
aI00
aI00
aI00
aI00
aa(lp3275
I177958
aF40.9084
aF611.327
aVp3
p3276
aS'utopia'
p3277
aS'#656565'
p3278
aF8.88595
aI0
aI01
aI00
aI00
aI00
aI00
aI00
aI00
aI00
aa(lp3279
I234378
aF71.2688
aF611.327
aVp3
p3280
aS'utopia'
p3281
aS'#656565'
p3282
aF8.88595
aI0
aI01
aI00
aI00
aI00
aI00
aI00
aI00
aI00
aa(lp3283
I234378
aF96.6393375
aF611.327
ag3280
aS'utopia'
p3284
aS'#656565'
p3285
aF8.88595
aI0
aI00
aI00
aI00
aI00
aI00
aI00
aI00
aI00
aa(lp3286
I194354
aF104.591
aF611.327
aVp3
p3287
aS'utopia'
p3288
aS'#656565'
p3289
aF8.88595
aI0
aI01
aI00
aI00
aI00
aI00
aI00
aI00
aI00
aa(lp3290
I151732
aF121.622
aF611.327
aVp3
p3291
aS'utopia'
p3292
aS'#656565'
p3293
aF8.88595
aI0
aI01
aI00
aI00
aI00
aI00
aI00
aI00
aI00
aa(lp3294
I42193
aF145.318
aF611.327
aVp3
p3295
aS'utopia'
p3296
aS'#656565'
p3297
aF8.88595
aI0
aI01
aI00
aI00
aI00
aI00
aI00
aI00
aI00
aa(lp3298
I113211
aF185.305
aF611.327
aVp3
p3299
aS'utopia'
p3300
aS'#656565'
p3301
aF8.88595
aI0
aI01
aI00
aI00
aI00
aI00
aI00
aI00
aI00
aa(lp3302
I234378
aF218.627
aF611.327
aVp3
p3303
aS'utopia'
p3304
aS'#656565'
p3305
aF8.88595
aI0
aI01
aI00
aI00
aI00
aI00
aI00
aI00
aI00
aa(lp3306
I234378
aF271.943
aF611.327
aVp3
p3307
aS'utopia'
p3308
aS'#656565'
p3309
aF8.88595
aI0
aI00
aI00
aI00
aI00
aI00
aI00
aI00
aI00
aa(lp3310
I234378
aF276.41026
aF611.327
ag3307
aS'utopia'
p3311
aS'#656565'
p3312
aF8.88595
aI0
aI01
aI01
aI00
aI00
aI00
aI00
aI00
aI00
aa(lp3313
I234378
aF289.81204
aF611.327
ag3307
aS'utopia'
p3314
aS'#656565'
p3315
aF8.88595
aI0
aI00
aI00
aI00
aI00
aI00
aI00
aI00
aI00
aa(lp3316
I156028
aF296.379
aF611.327
aVp3
p3317
aS'utopia'
p3318
aS'#656565'
p3319
aF8.88595
aI0
aI01
aI00
aI00
aI00
aI00
aI00
aI00
aI00
aa(lp3320
I234378
aF316.373
aF611.327
aVp3
p3321
aS'utopia'
p3322
aS'#656565'
p3323
aF8.88595
aI0
aI00
aI00
aI00
aI00
aI00
aI00
aI00
aI00
aa(lp3324
I49042
aF360.062
aF611.327
aVp3
p3325
aS'utopia'
p3326
aS'#656565'
p3327
aF8.88595
aI0
aI00
aI00
aI00
aI00
aI00
aI00
aI00
aI00
aa(lp3328
I89480
aF377.094
aF611.327
aVp3
p3329
aS'utopia'
p3330
aS'#656565'
p3331
aF8.88595
aI0
aI00
aI00
aI00
aI00
aI00
aI00
aI00
aI00
aa(lp3332
I109270
aF387.46
aF611.327
aVp3
p3333
aS'utopia'
p3334
aS'#656565'
p3335
aF8.88595
aI0
aI00
aI00
aI00
aI00
aI00
aI00
aI00
aI00
aa(lp3336
I85218
aF427.447
aF611.327
aVp3
p3337
aS'utopia'
p3338
aS'#656565'
p3339
aF8.88595
aI0
aI00
aI00
aI00
aI00
aI00
aI00
aI00
aI00
aa(lp3340
I39041
aF444.479
aF611.327
aVp3
p3341
aS'utopia'
p3342
aS'#656565'
p3343
aF8.88595
aI0
aI00
aI00
aI00
aI00
aI00
aI00
aI00
aI00
aa(lp3344
I133618
aF481.503
aF611.327
aVp3
p3345
aS'utopia'
p3346
aS'#656565'
p3347
aF8.88595
aI0
aI00
aI00
aI00
aI00
aI00
aI00
aI00
aI00
aa(lp3348
I19068
aF514.826
aF611.327
aVp3
p3349
aS'utopia'
p3350
aS'#656565'
p3351
aF8.88595
aI0
aI00
aI00
aI00
aI00
aI00
aI00
aI00
aI00
aa(lp3352
I42193
aF40.9084
aF621.694
aVp3
p3353
aS'utopia'
p3354
aS'#656565'
p3355
aF8.88595
aI0
aI00
aI00
aI00
aI00
aI00
aI00
aI00
aI00
aa(lp3356
I113211
aF80.1547
aF621.694
aVp3
p3357
aS'utopia'
p3358
aS'#656565'
p3359
aF8.88595
aI0
aI00
aI00
aI00
aI00
aI00
aI00
aI00
aI00
aa(lp3360
I85218
aF111.256
aF621.694
aVp3
p3361
aS'utopia'
p3362
aS'#656565'
p3363
aF8.88595
aI0
aI00
aI00
aI00
aI00
aI00
aI00
aI00
aI00
aa(lp3364
I18050
aF128.287
aF621.694
aVp3
p3365
aS'utopia'
p3366
aS'#656565'
p3367
aF8.88595
aI0
aI00
aI00
aI00
aI00
aI00
aI00
aI00
aI00
aa(lp3368
I234378
aF161.609
aF621.694
aVp3
p3369
aS'utopia'
p3370
aS'#656565'
p3371
aF8.88595
aI0
aI00
aI00
aI00
aI00
aI00
aI00
aI00
aI00
aa(lp3372
I190806
aF210.482
aF621.694
aVp3
p3373
aS'utopia'
p3374
aS'#656565'
p3375
aF8.88595
aI0
aI00
aI00
aI00
aI00
aI00
aI00
aI00
aI00
aa(lp3376
I61342
aF224.551
aF621.694
aVp3
p3377
aS'utopia'
p3378
aS'#656565'
p3379
aF8.88595
aI0
aI00
aI00
aI00
aI00
aI00
aI00
aI00
aI00
aa(lp3380
I151732
aF245.285
aF621.694
aVp3
p3381
aS'utopia'
p3382
aS'#656565'
p3383
aF8.88595
aI0
aI01
aI00
aI00
aI00
aI00
aI00
aI00
aI00
aa(lp3384
I234378
aF268.981
aF621.694
aVp3
p3385
aS'utopia'
p3386
aS'#656565'
p3387
aF8.88595
aI0
aI00
aI00
aI00
aI00
aI00
aI00
aI00
aI00
aa(lp3388
I234378
aF293.19905714285716
aF621.694
ag3385
aS'utopia'
p3389
aS'#656565'
p3390
aF8.88595
aI0
aI00
aI00
aI00
aI00
aI00
aI00
aI00
aI00
aa(lp3391
I16329
aF299.341
aF621.694
aVp3
p3392
aS'utopia'
p3393
aS'#656565'
p3394
aF8.88595
aI0
aI01
aI00
aI00
aI00
aI00
aI00
aI00
aI00
aa(lp3395
I44367
aF312.67
aF621.694
aVp3
p3396
aS'utopia'
p3397
aS'#656565'
p3398
aF8.88595
aI0
aI00
aI00
aI00
aI00
aI00
aI00
aI00
aI00
aa(lp3399
I89480
aF330.3971272727273
aF621.694
ag3396
aS'utopia'
p3400
aS'#656565'
p3401
aF8.88595
aI0
aI00
aI00
aI00
aI00
aI00
aI00
aI00
aI00
aa(lp3402
I203832
aF339.76069090909095
aF621.694
ag3396
aS'utopia'
p3403
aS'#656565'
p3404
aF8.88595
aI0
aI00
aI00
aI00
aI00
aI00
aI00
aI00
aI00
aa(lp3405
I221858
aF360.803
aF621.694
aVp3
p3406
aS'utopia'
p3407
aS'#656565'
p3408
aF8.88595
aI0
aI00
aI00
aI00
aI00
aI00
aI00
aI00
aI00
aa(lp3409
I85218
aF397.827
aF621.694
aVp3
p3410
aS'utopia'
p3411
aS'#656565'
p3412
aF8.88595
aI0
aI00
aI00
aI00
aI00
aI00
aI00
aI00
aI00
aa(lp3413
I17524
aF414.859
aF621.694
aVp3
p3414
aS'utopia'
p3415
aS'#656565'
p3416
aF8.88595
aI0
aI00
aI00
aI00
aI00
aI00
aI00
aI00
aI00
aa(lp3417
I175452
aF455.586
aF621.694
aVp3
p3418
aS'utopia'
p3419
aS'#656565'
p3420
aF8.88595
aI0
aI00
aI00
aI00
aI00
aI00
aI00
aI00
aI00
aa(lp3421
I127485
aF491.13
aF621.694
aVp3
p3422
aS'utopia'
p3423
aS'#656565'
p3424
aF8.88595
aI0
aI00
aI00
aI00
aI00
aI00
aI00
aI00
aI00
aa(lp3425
I94934
aF40.9084
aF632.061
aVp3
p3426
aS'utopia'
p3427
aS'#656565'
p3428
aF8.88595
aI0
aI00
aI00
aI00
aI00
aI00
aI00
aI00
aI00
aa(lp3429
I234378
aF81.6357
aF632.061
aVp3
p3430
aS'utopia'
p3431
aS'#656565'
p3432
aF8.88595
aI0
aI00
aI00
aI00
aI00
aI00
aI00
aI00
aI00
aa(lp3433
I46544
aF109.034
aF632.061
aVp3
p3434
aS'utopia'
p3435
aS'#656565'
p3436
aF8.88595
aI0
aI00
aI00
aI00
aI00
aI00
aI00
aI00
aI00
aa(lp3437
I156028
aF125.325
aF632.061
aVp3
p3438
aS'utopia'
p3439
aS'#656565'
p3440
aF8.88595
aI0
aI00
aI00
aI00
aI00
aI00
aI00
aI00
aI00
aa(lp3441
I158730
aF143.097
aF632.061
aVp3
p3442
aS'utopia'
p3443
aS'#656565'
p3444
aF8.88595
aI0
aI00
aI00
aI00
aI00
aI00
aI00
aI00
aI00
aa(lp3445
I190806
aF163.831
aF632.061
aVp3
p3446
aS'utopia'
p3447
aS'#656565'
p3448
aF8.88595
aI0
aI00
aI00
aI00
aI00
aI00
aI00
aI00
aI00
aa(lp3449
I234378
aF177.9
aF632.061
aVp3
p3450
aS'utopia'
p3451
aS'#656565'
p3452
aF8.88595
aI0
aI00
aI00
aI00
aI00
aI00
aI00
aI00
aI00
aa(lp3453
I61342
aF218.627
aF632.061
aVp3
p3454
aS'utopia'
p3455
aS'#656565'
p3456
aF8.88595
aI0
aI00
aI00
aI00
aI00
aI00
aI00
aI00
aI00
aa(lp3457
I113211
aF239.361
aF632.061
aVp3
p3458
aS'utopia'
p3459
aS'#656565'
p3460
aF8.88595
aI0
aI00
aI00
aI00
aI00
aI00
aI00
aI00
aI00
aa(lp3461
I192846
aF270.462
aF632.061
aVp3
p3462
aS'utopia'
p3463
aS'#656565'
p3464
aF8.88595
aI0
aI00
aI00
aI00
aI00
aI00
aI00
aI00
aI00
aa(lp3465
I234378
aF300.55602
aF632.061
ag3462
aS'utopia'
p3466
aS'#656565'
p3467
aF8.88595
aI0
aI00
aI00
aI00
aI00
aI00
aI00
aI00
aI00
aa(lp3468
I135639
aF306.006
aF632.061
aVp3
p3469
aS'utopia'
p3470
aS'#656565'
p3471
aF8.88595
aI0
aI00
aI00
aI00
aI00
aI00
aI00
aI00
aI00
aa(lp3472
I166593
aF315.632
aF632.061
aVp3
p3473
aS'utopia'
p3474
aS'#656565'
p3475
aF8.88595
aI0
aI00
aI00
aI00
aI00
aI00
aI00
aI00
aI00
aa(lp3476
I2002
aF322.297
aF632.061
aVp3
p3477
aS'utopia'
p3478
aS'#656565'
p3479
aF8.88595
aI0
aI00
aI00
aI00
aI00
aI00
aI00
aI00
aI00
aa(lp3480
I213286
aF345.993
aF632.061
aVp3
p3481
aS'utopia'
p3482
aS'#656565'
p3483
aF8.88595
aI0
aI00
aI00
aI00
aI00
aI00
aI00
aI00
aI00
aa(lp3484
I85218
aF380.056
aF632.061
aVp3
p3485
aS'utopia'
p3486
aS'#656565'
p3487
aF8.88595
aI0
aI00
aI00
aI00
aI00
aI00
aI00
aI00
aI00
aa(lp3488
I80068
aF397.087
aF632.061
aVp3
p3489
aS'utopia'
p3490
aS'#656565'
p3491
aF8.88595
aI0
aI00
aI00
aI00
aI00
aI00
aI00
aI00
aI00
aa(lp3492
I45645
aF433.371
aF632.061
aVp3
p3493
aS'utopia'
p3494
aS'#656565'
p3495
aF8.88595
aI0
aI00
aI00
aI00
aI00
aI00
aI00
aI00
aI00
aa(lp3496
I234378
aF446.78655
aF632.061
ag3493
aS'utopia'
p3497
aS'#656565'
p3498
aF8.88595
aI0
aI00
aI00
aI00
aI00
aI00
aI00
aI00
aI00
aa(lp3499
I194354
aF453.365
aF632.061
aVp3
p3500
aS'utopia'
p3501
aS'#656565'
p3502
aF8.88595
aI0
aI01
aI00
aI00
aI00
aI00
aI00
aI00
aI00
aa(lp3503
I234378
aF470.396
aF632.061
aVp3
p3504
aS'utopia'
p3505
aS'#656565'
p3506
aF8.88595
aI0
aI00
aI00
aI00
aI00
aI00
aI00
aI00
aI00
aa(lp3507
I141687
aF494.092
aF632.061
aVp3
p3508
aS'utopia'
p3509
aS'#656565'
p3510
aF8.88595
aI0
aI00
aI00
aI00
aI00
aI00
aI00
aI00
aI00
aa(lp3511
I169745
aF40.9084
aF642.428
aVp3
p3512
aS'utopia'
p3513
aS'#656565'
p3514
aF8.88595
aI0
aI00
aI00
aI00
aI00
aI00
aI00
aI00
aI00
aa(lp3515
I194354
aF60.1613
aF642.428
aVp3
p3516
aS'utopia'
p3517
aS'#656565'
p3518
aF8.88595
aI0
aI00
aI00
aI00
aI00
aI00
aI00
aI00
aI00
aa(lp3519
I151732
aF74.9712
aF642.428
aVp3
p3520
aS'utopia'
p3521
aS'#656565'
p3522
aF8.88595
aI0
aI01
aI00
aI00
aI00
aI00
aI00
aI00
aI00
aa(lp3523
I234378
aF98.6671
aF642.428
aVp3
p3524
aS'utopia'
p3525
aS'#656565'
p3526
aF8.88595
aI0
aI01
aI00
aI00
aI00
aI00
aI00
aI00
aI00
aa(lp3527
I156028
aF136.432
aF642.428
aVp3
p3528
aS'utopia'
p3529
aS'#656565'
p3530
aF8.88595
aI0
aI01
aI00
aI00
aI00
aI00
aI00
aI00
aI00
aa(lp3531
I234378
aF156.426
aF642.428
aVp3
p3532
aS'utopia'
p3533
aS'#656565'
p3534
aF8.88595
aI0
aI00
aI00
aI00
aI00
aI00
aI00
aI00
aI00
aa(lp3535
I166593
aF189.008
aF642.428
aVp3
p3536
aS'utopia'
p3537
aS'#656565'
p3538
aF8.88595
aI0
aI00
aI00
aI00
aI00
aI00
aI00
aI00
aI00
aa(lp3539
I31643
aF195.672
aF642.428
aVp3
p3540
aS'utopia'
p3541
aS'#656565'
p3542
aF8.88595
aI0
aI00
aI00
aI00
aI00
aI00
aI00
aI00
aI00
aa(lp3543
I234378
aF232.697
aF642.428
aVp3
p3544
aS'utopia'
p3545
aS'#656565'
p3546
aF8.88595
aI0
aI00
aI00
aI00
aI00
aI00
aI00
aI00
aI00
aa(lp3547
I234378
aF259.355
aF642.428
aVp3
p3548
aS'utopia'
p3549
aS'#656565'
p3550
aF8.88595
aI0
aI00
aI00
aI00
aI00
aI00
aI00
aI00
aI00
aa(lp3551
I60220
aF295.639
aF642.428
aVp3
p3552
aS'utopia'
p3553
aS'#656565'
p3554
aF8.88595
aI0
aI00
aI00
aI00
aI00
aI00
aI00
aI00
aI00
aa(lp3555
I234378
aF336.8079090909091
aF642.428
ag3552
aS'utopia'
p3556
aS'#656565'
p3557
aF8.88595
aI0
aI00
aI00
aI00
aI00
aI00
aI00
aI00
aI00
aa(lp3558
I234378
aF40.9084
aF679.346
aVp3
p3559
aS'utopia'
p3560
aS'#000000'
p3561
aF10.3669
aI1
aI01
aI01
aI00
aI00
aI00
aI00
aI00
aI00
aa(lp3562
I234378
aF60.9018
aF679.346
aVp3
p3563
aS'utopia'
p3564
aS'#000000'
p3565
aF10.3669
aI1
aI00
aI00
aI00
aI00
aI00
aI00
aI00
aI00
aa(lp3566
I234378
aF66.0853
aF679.346
aVp3
p3567
aS'utopia'
p3568
aS'#000000'
p3569
aF10.3669
aI1
aI01
aI00
aI00
aI00
aI00
aI00
aI00
aI00
aa(lp3570
I156028
aF111.256
aF679.346
aVp3
p3571
aS'utopia'
p3572
aS'#000000'
p3573
aF10.3669
aI1
aI01
aI00
aI00
aI00
aI00
aI00
aI00
aI00
aa(lp3574
I151732
aF40.9084
aF695.907
aVp3
p3575
aS'utopia'
p3576
aS'#656565'
p3577
aF10.3669
aI0
aI01
aI00
aI00
aI00
aI00
aI00
aI00
aI00
aa(lp3578
I234378
aF69.0473
aF695.907
aVp3
p3579
aS'utopia'
p3580
aS'#656565'
p3581
aF10.3669
aI0
aI01
aI00
aI00
aI00
aI00
aI00
aI00
aI00
aa(lp3582
I234378
aF114.218
aF695.907
aVp3
p3583
aS'utopia'
p3584
aS'#656565'
p3585
aF10.3669
aI0
aI01
aI00
aI00
aI00
aI00
aI00
aI00
aI00
aa(lp3586
I60201
aF151.242
aF695.907
aVp3
p3587
aS'utopia'
p3588
aS'#656565'
p3589
aF10.3669
aI0
aI01
aI00
aI00
aI00
aI00
aI00
aI00
aI00
aa(lp3590
I230071
aF171.236
aF695.907
aVp3
p3591
aS'utopia'
p3592
aS'#656565'
p3593
aF10.3669
aI0
aI01
aI00
aI00
aI00
aI00
aI00
aI00
aI00
aa(lp3594
I131049
aF202.337
aF695.907
aVp3
p3595
aS'utopia'
p3596
aS'#656565'
p3597
aF10.3669
aI0
aI00
aI00
aI00
aI00
aI00
aI00
aI00
aI00
aa(lp3598
I234378
aF226.773
aF695.907
aVp3
p3599
aS'utopia'
p3600
aS'#656565'
p3601
aF10.3669
aI0
aI01
aI00
aI00
aI00
aI00
aI00
aI00
aI01
aa(lp3602
I234378
aF248.247
aF695.907
aVp3
p3603
aS'utopia'
p3604
aS'#656565'
p3605
aF10.3669
aI0
aI00
aI00
aI01
aI01
aI01
aI00
aI00
aI00
aa(lp3606
I89480
aF271.203
aF695.907
aVp3
p3607
aS'utopia'
p3608
aS'#656565'
p3609
aF10.3669
aI0
aI00
aI00
aI00
aI00
aI00
aI00
aI00
aI00
aa(lp3610
I234378
aF283.051
aF695.907
aVp3
p3611
aS'utopia'
p3612
aS'#656565'
p3613
aF10.3669
aI0
aI01
aI00
aI00
aI00
aI00
aI00
aI00
aI01
aa(lp3614
I234378
aF303.044
aF695.907
aVp3
p3615
aS'utopia'
p3616
aS'#656565'
p3617
aF10.3669
aI0
aI00
aI00
aI01
aI01
aI01
aI00
aI00
aI00
aa(lp3618
I164802
aF40.9084
aF712.198
aVp3
p3619
aS'utopia'
p3620
aS'#656565'
p3621
aF10.3669
aI0
aI01
aI00
aI00
aI00
aI00
aI00
aI00
aI00
aa(lp3622
I234378
aF67.6181
aF712.198
ag3619
aS'utopia'
p3623
aS'#656565'
p3624
aF10.3669
aI0
aI00
aI00
aI00
aI00
aI00
aI00
aI00
aI00
aa(lp3625
I234378
aF72.96003999999999
aF712.198
ag3619
aS'utopia'
p3626
aS'#656565'
p3627
aF10.3669
aI0
aI00
aI00
aI00
aI00
aI00
aI00
aI00
aI00
aa(lp3628
I109610
aF40.9084
aF728.326
aVp3
p3629
aS'utopia'
p3630
aS'#656565'
p3631
aF8.88595
aI0
aI01
aI00
aI00
aI00
aI00
aI00
aI00
aI00
aa(lp3632
I25729
aF58.6803
aF728.326
aVp3
p3633
aS'utopia'
p3634
aS'#656565'
p3635
aF8.88595
aI0
aI01
aI00
aI00
aI00
aI00
aI00
aI00
aI00
aa(lp3636
I234378
aF76.54462000000001
aF728.326
ag3633
aS'utopia'
p3637
aS'#656565'
p3638
aF8.88595
aI0
aI00
aI00
aI00
aI00
aI00
aI00
aI00
aI00
aa(lp3639
I21716
aF85.3382
aF728.326
aVp3
p3640
aS'utopia'
p3641
aS'#656565'
p3642
aF8.88595
aI0
aI01
aI00
aI00
aI00
aI00
aI00
aI00
aI00
aa(lp3643
I234378
aF100.24052
aF728.326
ag3640
aS'utopia'
p3644
aS'#656565'
p3645
aF8.88595
aI0
aI00
aI00
aI00
aI00
aI00
aI00
aI00
aI00
aa(lp3646
I234378
aF106.072
aF728.326
aVp3
p3647
aS'utopia'
p3648
aS'#656565'
p3649
aF8.88595
aI0
aI00
aI00
aI01
aI00
aI00
aI00
aI00
aI00
aa(lp3650
I234378
aF123.844
aF728.326
aVp3
p3651
aS'utopia'
p3652
aS'#656565'
p3653
aF8.88595
aI0
aI00
aI00
aI00
aI00
aI00
aI00
aI00
aI00
aa(lp3654
I234378
aF127.21992499999999
aF728.326
ag3651
aS'utopia'
p3655
aS'#656565'
p3656
aF8.88595
aI0
aI00
aI00
aI00
aI00
aI00
aI00
aI00
aI00
aa(lp3657
I234378
aF139.394
aF728.326
aVp3
p3658
aS'utopia'
p3659
aS'#656565'
p3660
aF8.88595
aI0
aI00
aI00
aI00
aI00
aI00
aI00
aI00
aI00
aa(lp3661
I234378
aF168.65668571428571
aF728.326
ag3658
aS'utopia'
p3662
aS'#656565'
p3663
aF8.88595
aI0
aI00
aI00
aI00
aI00
aI00
aI00
aI00
aI00
aa(lp3664
I234378
aF172.31452142857142
aF728.326
ag3658
aS'utopia'
p3665
aS'#656565'
p3666
aF8.88595
aI0
aI00
aI00
aI00
aI00
aI00
aI00
aI00
aI00
aa(lp3667
I234378
aF181.9458642857143
aF728.326
ag3658
aS'utopia'
p3668
aS'#656565'
p3669
aF8.88595
aI0
aI00
aI00
aI00
aI00
aI00
aI00
aI00
aI00
aa(lp3670
I45445
aF192.71
aF728.326
aVp3
p3671
aS'utopia'
p3672
aS'#656565'
p3673
aF8.88595
aI0
aI00
aI00
aI00
aI00
aI00
aI00
aI00
aI00
aa(lp3674
I234378
aF219.368
aF728.326
aVp3
p3675
aS'utopia'
p3676
aS'#656565'
p3677
aF8.88595
aI0
aI00
aI00
aI01
aI00
aI00
aI00
aI00
aI00
aa(lp3678
I234378
aF227.26465714285715
aF728.326
ag3675
aS'utopia'
p3679
aS'#656565'
p3680
aF8.88595
aI0
aI00
aI00
aI00
aI00
aI00
aI00
aI00
aI00
aa(lp3681
I234378
aF231.2129857142857
aF728.326
ag3675
aS'utopia'
p3682
aS'#656565'
p3683
aF8.88595
aI0
aI00
aI00
aI00
aI00
aI00
aI00
aI00
aI00
aa(lp3684
I210461
aF40.9084
aF742.395
aVp3
p3685
aS'utopia'
p3686
aS'#656565'
p3687
aF8.88595
aI0
aI01
aI00
aI00
aI00
aI00
aI00
aI00
aI00
aa(lp3688
I340
aF65.3448
aF742.395
aVp3
p3689
aS'utopia'
p3690
aS'#656565'
p3691
aF8.88595
aI0
aI01
aI00
aI00
aI00
aI00
aI00
aI00
aI00
aa(lp3692
I234378
aF79.65472000000001
aF742.395
ag3689
aS'utopia'
p3693
aS'#656565'
p3694
aF8.88595
aI0
aI00
aI00
aI00
aI00
aI00
aI00
aI00
aI00
aa(lp3695
I234378
aF87.5597
aF742.395
aVp3
p3696
aS'utopia'
p3697
aS'#656565'
p3698
aF8.88595
aI0
aI00
aI00
aI01
aI01
aI00
aI00
aI00
aI00
aa(lp3699
I176435
aF40.9084
aF756.464
aVp3
p3700
aS'utopia'
p3701
aS'#656565'
p3702
aF8.88595
aI0
aI01
aI00
aI00
aI00
aI00
aI00
aI00
aI00
aa(lp3703
I234378
aF60.9018
aF756.464
aVp3
p3704
aS'utopia'
p3705
aS'#656565'
p3706
aF8.88595
aI0
aI00
aI00
aI00
aI00
aI00
aI00
aI00
aI00
aa(lp3707
I150037
aF67.5663
aF756.464
aVp3
p3708
aS'utopia'
p3709
aS'#656565'
p3710
aF8.88595
aI0
aI01
aI00
aI00
aI00
aI00
aI00
aI00
aI00
aa(lp3711
I176435
aF40.9084
aF770.534
aVp3
p3712
aS'utopia'
p3713
aS'#656565'
p3714
aF8.88595
aI0
aI01
aI00
aI00
aI00
aI00
aI00
aI00
aI00
aa(lp3715
I66756
aF60.9018
aF770.534
aVp3
p3716
aS'utopia'
p3717
aS'#656565'
p3718
aF8.88595
aI0
aI01
aI00
aI00
aI00
aI00
aI00
aI00
aI00
aa(lp3719
I234378
aF105.12885833333334
aF770.534
ag3716
aS'utopia'
p3720
aS'#656565'
p3721
aF8.88595
aI0
aI00
aI00
aI00
aI00
aI00
aI00
aI00
aI00
aa(lp3722
I105322
aF113.477
aF770.534
aVp3
p3723
aS'utopia'
p3724
aS'#656565'
p3725
aF8.88595
aI0
aI01
aI00
aI00
aI00
aI00
aI00
aI00
aI00
aa(lp3726
I135639
aF149.761
aF770.534
aVp3
p3727
aS'utopia'
p3728
aS'#656565'
p3729
aF8.88595
aI0
aI00
aI00
aI00
aI00
aI00
aI00
aI00
aI00
aa(lp3730
I153278
aF159.388
aF770.534
aVp3
p3731
aS'utopia'
p3732
aS'#656565'
p3733
aF8.88595
aI0
aI00
aI00
aI00
aI00
aI00
aI00
aI00
aI00
aa(lp3734
I31703
aF176.419
aF770.534
aVp3
p3735
aS'utopia'
p3736
aS'#656565'
p3737
aF8.88595
aI0
aI00
aI00
aI00
aI00
aI00
aI00
aI00
aI00
aa(lp3738
I85218
aF200.115
aF770.534
aVp3
p3739
aS'utopia'
p3740
aS'#656565'
p3741
aF8.88595
aI0
aI00
aI00
aI00
aI00
aI00
aI00
aI00
aI00
aa(lp3742
I59164
aF217.146
aF770.534
aVp3
p3743
aS'utopia'
p3744
aS'#656565'
p3745
aF8.88595
aI0
aI00
aI00
aI00
aI00
aI00
aI00
aI00
aI00
aa(lp3746
I211693
aF248.247
aF770.534
aVp3
p3747
aS'utopia'
p3748
aS'#656565'
p3749
aF8.88595
aI0
aI00
aI00
aI00
aI00
aI00
aI00
aI00
aI00
aa(lp3750
I144489
aF284.532
aF770.534
aVp3
p3751
aS'utopia'
p3752
aS'#656565'
p3753
aF8.88595
aI0
aI00
aI00
aI00
aI00
aI00
aI00
aI00
aI00
aa(lp3754
I174268
aF294.899
aF770.534
aVp3
p3755
aS'utopia'
p3756
aS'#656565'
p3757
aF8.88595
aI0
aI00
aI00
aI00
aI00
aI00
aI00
aI00
aI00
aa(lp3758
I234378
aF325.999
aF770.534
aVp3
p3759
aS'utopia'
p3760
aS'#656565'
p3761
aF8.88595
aI0
aI00
aI00
aI00
aI00
aI00
aI00
aI00
aI00
aa(lp3762
I234378
aF350.1802
aF770.534
ag3759
aS'utopia'
p3763
aS'#656565'
p3764
aF8.88595
aI0
aI00
aI00
aI00
aI00
aI00
aI00
aI00
aI00
aa(lp3765
I234378
aF354.2104
aF770.534
ag3759
aS'utopia'
p3766
aS'#656565'
p3767
aF8.88595
aI0
aI00
aI00
aI00
aI00
aI00
aI00
aI00
aI00
aa(lp3768
I218768
aF384.499
aF770.534
aVp3
p3769
aS'utopia'
p3770
aS'#656565'
p3771
aF8.88595
aI0
aI00
aI00
aI00
aI00
aI00
aI00
aI00
aI00
aa(lp3772
I89480
aF414.118
aF770.534
aVp3
p3773
aS'utopia'
p3774
aS'#656565'
p3775
aF8.88595
aI0
aI00
aI00
aI00
aI00
aI00
aI00
aI00
aI00
aa(lp3776
I151732
aF424.485
aF770.534
aVp3
p3777
aS'utopia'
p3778
aS'#656565'
p3779
aF8.88595
aI0
aI01
aI00
aI00
aI00
aI00
aI00
aI00
aI00
aa(lp3780
I35885
aF448.181
aF770.534
aVp3
p3781
aS'utopia'
p3782
aS'#656565'
p3783
aF8.88595
aI0
aI00
aI00
aI00
aI00
aI00
aI00
aI00
aI00
aa(lp3784
I17350
aF473.358
aF770.534
aVp3
p3785
aS'utopia'
p3786
aS'#656565'
p3787
aF8.88595
aI0
aI00
aI00
aI00
aI00
aI00
aI00
aI00
aI00
aa(lp3788
I234378
aF491.87
aF770.534
aVp3
p3789
aS'utopia'
p3790
aS'#656565'
p3791
aF8.88595
aI0
aI00
aI00
aI00
aI00
aI00
aI00
aI00
aI00
aa(lp3792
I140548
aF513.345
aF770.534
aVp3
p3793
aS'utopia'
p3794
aS'#656565'
p3795
aF8.88595
aI0
aI00
aI00
aI00
aI00
aI00
aI00
aI00
aI00
aa(lp3796
I89480
aF40.9084
aF780.901
aVp3
p3797
aS'utopia'
p3798
aS'#656565'
p3799
aF8.88595
aI0
aI00
aI00
aI00
aI00
aI00
aI00
aI00
aI00
aa(lp3800
I234378
aF51.2754
aF780.901
aVp3
p3801
aS'utopia'
p3802
aS'#656565'
p3803
aF8.88595
aI0
aI00
aI00
aI00
aI00
aI00
aI00
aI00
aI00
aa(lp3804
I234378
aF89.07839999999999
aF780.901
ag3801
aS'utopia'
p3805
aS'#656565'
p3806
aF8.88595
aI0
aI00
aI00
aI00
aI00
aI00
aI00
aI00
aI00
aa(lp3807
I105322
aF94.9646
aF780.901
aVp3
p3808
aS'utopia'
p3809
aS'#656565'
p3810
aF8.88595
aI0
aI01
aI00
aI00
aI00
aI00
aI00
aI00
aI00
aa(lp3811
I135639
aF131.249
aF780.901
aVp3
p3812
aS'utopia'
p3813
aS'#656565'
p3814
aF8.88595
aI0
aI00
aI00
aI00
aI00
aI00
aI00
aI00
aI00
aa(lp3815
I125078
aF140.875
aF780.901
aVp3
p3816
aS'utopia'
p3817
aS'#656565'
p3818
aF8.88595
aI0
aI00
aI00
aI00
aI00
aI00
aI00
aI00
aI00
aa(lp3819
I85218
aF169.014
aF780.901
aVp3
p3820
aS'utopia'
p3821
aS'#656565'
p3822
aF8.88595
aI0
aI00
aI00
aI00
aI00
aI00
aI00
aI00
aI00
aa(lp3823
I142554
aF186.046
aF780.901
aVp3
p3824
aS'utopia'
p3825
aS'#656565'
p3826
aF8.88595
aI0
aI00
aI00
aI00
aI00
aI00
aI00
aI00
aI00
aa(lp3827
I144489
aF235.659
aF780.901
aVp3
p3828
aS'utopia'
p3829
aS'#656565'
p3830
aF8.88595
aI0
aI00
aI00
aI00
aI00
aI00
aI00
aI00
aI00
aa(lp3831
I174268
aF246.026
aF780.901
aVp3
p3832
aS'utopia'
p3833
aS'#656565'
p3834
aF8.88595
aI0
aI00
aI00
aI00
aI00
aI00
aI00
aI00
aI00
aa(lp3835
I234378
aF277.127
aF780.901
aVp3
p3836
aS'utopia'
p3837
aS'#656565'
p3838
aF8.88595
aI0
aI00
aI00
aI00
aI00
aI00
aI00
aI00
aI00
aa(lp3839
I140548
aF298.601
aF780.901
aVp3
p3840
aS'utopia'
p3841
aS'#656565'
p3842
aF8.88595
aI0
aI00
aI00
aI00
aI00
aI00
aI00
aI00
aI00
aa(lp3843
I89480
aF340.069
aF780.901
aVp3
p3844
aS'utopia'
p3845
aS'#656565'
p3846
aF8.88595
aI0
aI00
aI00
aI00
aI00
aI00
aI00
aI00
aI00
aa(lp3847
I194354
aF350.436
aF780.901
aVp3
p3848
aS'utopia'
p3849
aS'#656565'
p3850
aF8.88595
aI0
aI00
aI00
aI00
aI00
aI00
aI00
aI00
aI00
aa(lp3851
I109318
aF365.246
aF780.901
aVp3
p3852
aS'utopia'
p3853
aS'#656565'
p3854
aF8.88595
aI0
aI00
aI00
aI00
aI00
aI00
aI00
aI00
aI00
aa(lp3855
I234378
aF382.51792
aF780.901
ag3852
aS'utopia'
p3856
aS'#656565'
p3857
aF8.88595
aI0
aI00
aI00
aI00
aI00
aI00
aI00
aI00
aI00
aa(lp3858
I177958
aF40.9084
aF794.97
aVp3
p3859
aS'utopia'
p3860
aS'#656565'
p3861
aF8.88595
aI0
aI01
aI00
aI00
aI00
aI00
aI00
aI00
aI00
aa(lp3862
I234378
aF71.2688
aF794.97
aVp3
p3863
aS'utopia'
p3864
aS'#656565'
p3865
aF8.88595
aI0
aI01
aI00
aI00
aI00
aI00
aI00
aI00
aI00
aa(lp3866
I234378
aF96.6393375
aF794.97
ag3863
aS'utopia'
p3867
aS'#656565'
p3868
aF8.88595
aI0
aI00
aI00
aI00
aI00
aI00
aI00
aI00
aI00
aa(lp3869
I234378
aF104.591
aF794.97
aVp3
p3870
aS'utopia'
p3871
aS'#656565'
p3872
aF8.88595
aI0
aI01
aI00
aI00
aI00
aI00
aI00
aI00
aI00
aa(lp3873
I220029
aF138.654
aF794.97
aVp3
p3874
aS'utopia'
p3875
aS'#656565'
p3876
aF8.88595
aI0
aI01
aI00
aI00
aI00
aI00
aI00
aI00
aI00
aa(lp3877
I75520
aF185.305
aF794.97
aVp3
p3878
aS'utopia'
p3879
aS'#656565'
p3880
aF8.88595
aI0
aI01
aI00
aI00
aI00
aI00
aI00
aI00
aI00
aa(lp3881
I234378
aF231.216
aF794.97
aVp3
p3882
aS'utopia'
p3883
aS'#656565'
p3884
aF8.88595
aI0
aI00
aI00
aI00
aI00
aI00
aI00
aI00
aI00
aa(lp3885
I234378
aF235.38706000000002
aF794.97
ag3882
aS'utopia'
p3886
aS'#656565'
p3887
aF8.88595
aI0
aI01
aI01
aI00
aI00
aI00
aI00
aI00
aI00
aa(lp3888
I234378
aF247.90024000000003
aF794.97
ag3882
aS'utopia'
p3889
aS'#656565'
p3890
aF8.88595
aI0
aI00
aI00
aI00
aI00
aI00
aI00
aI00
aI00
aa(lp3891
I22474
aF254.171
aF794.97
aVp3
p3892
aS'utopia'
p3893
aS'#656565'
p3894
aF8.88595
aI0
aI00
aI00
aI00
aI00
aI00
aI00
aI00
aI00
aa(lp3895
I166593
aF262.317
aF794.97
aVp3
p3896
aS'utopia'
p3897
aS'#656565'
p3898
aF8.88595
aI0
aI00
aI00
aI00
aI00
aI00
aI00
aI00
aI00
aa(lp3899
I187900
aF268.981
aF794.97
aVp3
p3900
aS'utopia'
p3901
aS'#656565'
p3902
aF8.88595
aI0
aI00
aI00
aI00
aI00
aI00
aI00
aI00
aI00
aa(lp3903
I234378
aF304.525
aF794.97
aVp3
p3904
aS'utopia'
p3905
aS'#656565'
p3906
aF8.88595
aI0
aI00
aI00
aI00
aI00
aI00
aI00
aI00
aI00
aa(lp3907
I192651
aF331.923
aF794.97
aVp3
p3908
aS'utopia'
p3909
aS'#656565'
p3910
aF8.88595
aI0
aI00
aI00
aI00
aI00
aI00
aI00
aI00
aI00
aa(lp3911
I194354
aF343.771
aF794.97
aVp3
p3912
aS'utopia'
p3913
aS'#656565'
p3914
aF8.88595
aI0
aI00
aI00
aI00
aI00
aI00
aI00
aI00
aI00
aa(lp3915
I234378
aF358.581
aF794.97
aVp3
p3916
aS'utopia'
p3917
aS'#656565'
p3918
aF8.88595
aI0
aI00
aI00
aI00
aI00
aI00
aI00
aI00
aI00
aa(lp3919
I234378
aF402.27
aF794.97
aVp3
p3920
aS'utopia'
p3921
aS'#656565'
p3922
aF8.88595
aI0
aI00
aI00
aI00
aI00
aI00
aI00
aI00
aI00
aa(lp3923
I234378
aF430.409
aF794.97
aVp3
p3924
aS'utopia'
p3925
aS'#656565'
p3926
aF8.88595
aI0
aI00
aI00
aI00
aI00
aI00
aI00
aI00
aI00
aa(lp3927
I194354
aF453.365
aF794.97
aVp3
p3928
aS'utopia'
p3929
aS'#656565'
p3930
aF8.88595
aI0
aI00
aI00
aI00
aI00
aI00
aI00
aI00
aI00
aa(lp3931
I234378
aF468.175
aF794.97
aVp3
p3932
aS'utopia'
p3933
aS'#656565'
p3934
aF8.88595
aI0
aI01
aI00
aI00
aI00
aI00
aI00
aI00
aI00
aa(lp3935
I156028
aF505.94
aF794.97
aVp3
p3936
aS'utopia'
p3937
aS'#656565'
p3938
aF8.88595
aI0
aI01
aI00
aI00
aI00
aI00
aI00
aI00
aI00
aa(lp3939
I234378
aF522.02712
aF794.97
ag3936
aS'utopia'
p3940
aS'#656565'
p3941
aF8.88595
aI0
aI00
aI00
aI00
aI00
aI00
aI00
aI00
aI00
aa(lp3942
I194354
aF528.155
aF794.97
aVp3
p3943
aS'utopia'
p3944
aS'#656565'
p3945
aF8.88595
aI0
aI01
aI00
aI00
aI00
aI00
aI00
aI00
aI00
aa(lp3946
I167213
aF40.9084
aF28.557
aVp4
p3947
aS'utopia'
p3948
aS'#656565'
p3949
aF8.88595
aI0
aI00
aI00
aI00
aI00
aI00
aI00
aI00
aI00
aa(lp3950
I234378
aF82.3762
aF28.557
aVp4
p3951
aS'utopia'
p3952
aS'#656565'
p3953
aF8.88595
aI0
aI01
aI00
aI00
aI00
aI00
aI00
aI00
aI00
aa(lp3954
I97584
aF106.813
aF28.557
aVp4
p3955
aS'utopia'
p3956
aS'#656565'
p3957
aF8.88595
aI0
aI00
aI00
aI00
aI00
aI00
aI00
aI00
aI00
aa(lp3958
I46280
aF135.692
aF28.557
aVp4
p3959
aS'utopia'
p3960
aS'#656565'
p3961
aF8.88595
aI0
aI00
aI00
aI00
aI00
aI00
aI00
aI00
aI00
aa(lp3962
I16329
aF165.312
aF28.557
aVp4
p3963
aS'utopia'
p3964
aS'#656565'
p3965
aF8.88595
aI0
aI00
aI00
aI00
aI00
aI00
aI00
aI00
aI00
aa(lp3966
I234378
aF177.16
aF28.557
aVp4
p3967
aS'utopia'
p3968
aS'#656565'
p3969
aF8.88595
aI0
aI01
aI00
aI00
aI00
aI00
aI00
aI00
aI00
aa(lp3970
I220029
aF211.222
aF28.557
aVp4
p3971
aS'utopia'
p3972
aS'#656565'
p3973
aF8.88595
aI0
aI01
aI00
aI00
aI00
aI00
aI00
aI00
aI00
aa(lp3974
I75520
aF257.874
aF28.557
aVp4
p3975
aS'utopia'
p3976
aS'#656565'
p3977
aF8.88595
aI0
aI01
aI00
aI00
aI00
aI00
aI00
aI00
aI00
aa(lp3978
I234378
aF303.784
aF28.557
aVp4
p3979
aS'utopia'
p3980
aS'#656565'
p3981
aF8.88595
aI0
aI00
aI00
aI00
aI00
aI00
aI00
aI00
aI00
aa(lp3982
I234378
aF307.95506
aF28.557
ag3979
aS'utopia'
p3983
aS'#656565'
p3984
aF8.88595
aI0
aI01
aI01
aI00
aI00
aI00
aI00
aI00
aI00
aa(lp3985
I234378
aF320.46824
aF28.557
ag3979
aS'utopia'
p3986
aS'#656565'
p3987
aF8.88595
aI0
aI00
aI00
aI00
aI00
aI00
aI00
aI00
aI00
aa(lp3988
I135639
aF326.74
aF28.557
aVp4
p3989
aS'utopia'
p3990
aS'#656565'
p3991
aF8.88595
aI0
aI00
aI00
aI00
aI00
aI00
aI00
aI00
aI00
aa(lp3992
I234378
aF336.366
aF28.557
aVp4
p3993
aS'utopia'
p3994
aS'#656565'
p3995
aF8.88595
aI0
aI01
aI01
aI00
aI00
aI00
aI00
aI00
aI00
aa(lp3996
I156028
aF353.398
aF28.557
aVp4
p3997
aS'utopia'
p3998
aS'#656565'
p3999
aF8.88595
aI0
aI00
aI00
aI00
aI00
aI00
aI00
aI00
aI00
aa(lp4000
I101504
aF371.17
aF28.557
aVp4
p4001
aS'utopia'
p4002
aS'#656565'
p4003
aF8.88595
aI0
aI00
aI00
aI00
aI00
aI00
aI00
aI00
aI00
aa(lp4004
I194354
aF392.644
aF28.557
aVp4
p4005
aS'utopia'
p4006
aS'#656565'
p4007
aF8.88595
aI0
aI00
aI00
aI00
aI00
aI00
aI00
aI00
aI00
aa(lp4008
I120218
aF407.454
aF28.557
aVp4
p4009
aS'utopia'
p4010
aS'#656565'
p4011
aF8.88595
aI0
aI00
aI00
aI00
aI00
aI00
aI00
aI00
aI00
aa(lp4012
I22474
aF447.441
aF28.557
aVp4
p4013
aS'utopia'
p4014
aS'#656565'
p4015
aF8.88595
aI0
aI00
aI00
aI00
aI00
aI00
aI00
aI00
aI00
aa(lp4016
I234378
aF455.586
aF28.557
aVp4
p4017
aS'utopia'
p4018
aS'#656565'
p4019
aF8.88595
aI0
aI00
aI00
aI00
aI00
aI00
aI00
aI00
aI00
aa(lp4020
I192651
aF482.984
aF28.557
aVp4
p4021
aS'utopia'
p4022
aS'#656565'
p4023
aF8.88595
aI0
aI00
aI00
aI00
aI00
aI00
aI00
aI00
aI00
aa(lp4024
I200058
aF494.832
aF28.557
aVp4
p4025
aS'utopia'
p4026
aS'#656565'
p4027
aF8.88595
aI0
aI00
aI00
aI00
aI00
aI00
aI00
aI00
aI00
aa(lp4028
I194354
aF520.009
aF28.557
aVp4
p4029
aS'utopia'
p4030
aS'#656565'
p4031
aF8.88595
aI0
aI00
aI00
aI00
aI00
aI00
aI00
aI00
aI00
aa(lp4032
I234378
aF40.9084
aF38.9239
aVp4
p4033
aS'utopia'
p4034
aS'#656565'
p4035
aF8.88595
aI0
aI00
aI00
aI00
aI00
aI00
aI00
aI00
aI00
aa(lp4036
I22484
aF64.6043
aF38.9239
aVp4
p4037
aS'utopia'
p4038
aS'#656565'
p4039
aF8.88595
aI0
aI00
aI00
aI00
aI00
aI00
aI00
aI00
aI00
aa(lp4040
I234378
aF71.09894
aF38.9239
ag4037
aS'utopia'
p4041
aS'#656565'
p4042
aF8.88595
aI0
aI00
aI00
aI00
aI00
aI00
aI00
aI00
aI00
aa(lp4043
I120218
aF76.4522
aF38.9239
aVp4
p4044
aS'utopia'
p4045
aS'#656565'
p4046
aF8.88595
aI0
aI00
aI00
aI00
aI00
aI00
aI00
aI00
aI00
aa(lp4047
I75081
aF116.439
aF38.9239
aVp4
p4048
aS'utopia'
p4049
aS'#656565'
p4050
aF8.88595
aI0
aI00
aI00
aI00
aI00
aI00
aI00
aI00
aI00
aa(lp4051
I234378
aF145.73468571428572
aF38.9239
ag4048
aS'utopia'
p4052
aS'#656565'
p4053
aF8.88595
aI0
aI00
aI00
aI00
aI00
aI00
aI00
aI00
aI00
aa(lp4054
I234378
aF152.723
aF38.9239
aVp4
p4055
aS'utopia'
p4056
aS'#656565'
p4057
aF8.88595
aI0
aI00
aI00
aI00
aI00
aI00
aI00
aI00
aI00
aa(lp4058
I137949
aF169.014
aF38.9239
aVp4
p4059
aS'utopia'
p4060
aS'#656565'
p4061
aF8.88595
aI0
aI00
aI00
aI00
aI00
aI00
aI00
aI00
aI00
aa(lp4062
I22484
aF188.267
aF38.9239
aVp4
p4063
aS'utopia'
p4064
aS'#656565'
p4065
aF8.88595
aI0
aI00
aI00
aI00
aI00
aI00
aI00
aI00
aI00
aa(lp4066
I234378
aF194.76164
aF38.9239
ag4063
aS'utopia'
p4067
aS'#656565'
p4068
aF8.88595
aI0
aI00
aI00
aI00
aI00
aI00
aI00
aI00
aI00
aa(lp4069
I2006
aF200.115
aF38.9239
aVp4
p4070
aS'utopia'
p4071
aS'#656565'
p4072
aF8.88595
aI0
aI00
aI00
aI00
aI00
aI00
aI00
aI00
aI00
aa(lp4073
I158577
aF239.361
aF38.9239
aVp4
p4074
aS'utopia'
p4075
aS'#656565'
p4076
aF8.88595
aI0
aI00
aI00
aI00
aI00
aI00
aI00
aI00
aI00
aa(lp4077
I85218
aF263.798
aF38.9239
aVp4
p4078
aS'utopia'
p4079
aS'#656565'
p4080
aF8.88595
aI0
aI00
aI00
aI00
aI00
aI00
aI00
aI00
aI00
aa(lp4081
I177271
aF280.829
aF38.9239
aVp4
p4082
aS'utopia'
p4083
aS'#656565'
p4084
aF8.88595
aI0
aI00
aI00
aI00
aI00
aI00
aI00
aI00
aI00
aa(lp4085
I234378
aF304.525
aF38.9239
aVp4
p4086
aS'utopia'
p4087
aS'#656565'
p4088
aF8.88595
aI0
aI00
aI00
aI00
aI00
aI00
aI00
aI00
aI00
aa(lp4089
I194354
aF331.923
aF38.9239
aVp4
p4090
aS'utopia'
p4091
aS'#656565'
p4092
aF8.88595
aI0
aI00
aI00
aI00
aI00
aI00
aI00
aI00
aI00
aa(lp4093
I120218
aF346.733
aF38.9239
aVp4
p4094
aS'utopia'
p4095
aS'#656565'
p4096
aF8.88595
aI0
aI01
aI00
aI00
aI00
aI00
aI00
aI00
aI00
aa(lp4097
I119502
aF388.201
aF38.9239
aVp4
p4098
aS'utopia'
p4099
aS'#656565'
p4100
aF8.88595
aI0
aI01
aI00
aI00
aI00
aI00
aI00
aI00
aI00
aa(lp4101
I234378
aF418.561
aF38.9239
aVp4
p4102
aS'utopia'
p4103
aS'#656565'
p4104
aF8.88595
aI0
aI01
aI00
aI00
aI00
aI00
aI00
aI00
aI00
aa(lp4105
I220029
aF452.624
aF38.9239
aVp4
p4106
aS'utopia'
p4107
aS'#656565'
p4108
aF8.88595
aI0
aI01
aI00
aI00
aI00
aI00
aI00
aI00
aI00
aa(lp4109
I147316
aF499.275
aF38.9239
aVp4
p4110
aS'utopia'
p4111
aS'#656565'
p4112
aF8.88595
aI0
aI01
aI00
aI00
aI00
aI00
aI00
aI00
aI00
aa(lp4113
I234378
aF40.9084
aF49.2908
aVp4
p4114
aS'utopia'
p4115
aS'#656565'
p4116
aF8.88595
aI0
aI00
aI00
aI00
aI00
aI00
aI00
aI00
aI00
aa(lp4117
I113929
aF68.3068
aF49.2908
aVp4
p4118
aS'utopia'
p4119
aS'#656565'
p4120
aF8.88595
aI0
aI00
aI00
aI00
aI00
aI00
aI00
aI00
aI00
aa(lp4121
I33301
aF83.8572
aF49.2908
aVp4
p4122
aS'utopia'
p4123
aS'#656565'
p4124
aF8.88595
aI0
aI00
aI00
aI00
aI00
aI00
aI00
aI00
aI00
aa(lp4125
I194354
aF115.699
aF49.2908
aVp4
p4126
aS'utopia'
p4127
aS'#656565'
p4128
aF8.88595
aI0
aI00
aI00
aI00
aI00
aI00
aI00
aI00
aI00
aa(lp4129
I222122
aF130.508
aF49.2908
aVp4
p4130
aS'utopia'
p4131
aS'#656565'
p4132
aF8.88595
aI0
aI00
aI00
aI00
aI00
aI00
aI00
aI00
aI00
aa(lp4133
I234378
aF179.381
aF49.2908
aVp4
p4134
aS'utopia'
p4135
aS'#656565'
p4136
aF8.88595
aI0
aI00
aI00
aI00
aI00
aI00
aI00
aI00
aI00
aa(lp4137
I210945
aF212.703
aF49.2908
aVp4
p4138
aS'utopia'
p4139
aS'#656565'
p4140
aF8.88595
aI0
aI00
aI00
aI00
aI00
aI00
aI00
aI00
aI00
aa(lp4141
I61342
aF239.361
aF49.2908
aVp4
p4142
aS'utopia'
p4143
aS'#656565'
p4144
aF8.88595
aI0
aI00
aI00
aI00
aI00
aI00
aI00
aI00
aI00
aa(lp4145
I229426
aF260.095
aF49.2908
aVp4
p4146
aS'utopia'
p4147
aS'#656565'
p4148
aF8.88595
aI0
aI00
aI00
aI00
aI00
aI00
aI00
aI00
aI00
aa(lp4149
I89480
aF311.93
aF49.2908
aVp4
p4150
aS'utopia'
p4151
aS'#656565'
p4152
aF8.88595
aI0
aI00
aI00
aI00
aI00
aI00
aI00
aI00
aI00
aa(lp4153
I160850
aF322.297
aF49.2908
aVp4
p4154
aS'utopia'
p4155
aS'#656565'
p4156
aF8.88595
aI0
aI00
aI00
aI00
aI00
aI00
aI00
aI00
aI00
aa(lp4157
I138783
aF349.695
aF49.2908
aVp4
p4158
aS'utopia'
p4159
aS'#656565'
p4160
aF8.88595
aI0
aI00
aI00
aI00
aI00
aI00
aI00
aI00
aI00
aa(lp4161
I144489
aF386.72
aF49.2908
aVp4
p4162
aS'utopia'
p4163
aS'#656565'
p4164
aF8.88595
aI0
aI00
aI00
aI00
aI00
aI00
aI00
aI00
aI00
aa(lp4165
I110385
aF397.087
aF49.2908
aVp4
p4166
aS'utopia'
p4167
aS'#656565'
p4168
aF8.88595
aI0
aI00
aI00
aI00
aI00
aI00
aI00
aI00
aI00
aa(lp4169
I98224
aF414.859
aF49.2908
aVp4
p4170
aS'utopia'
p4171
aS'#656565'
p4172
aF8.88595
aI0
aI00
aI00
aI00
aI00
aI00
aI00
aI00
aI00
aa(lp4173
I234378
aF442.8212
aF49.2908
ag4170
aS'utopia'
p4174
aS'#656565'
p4175
aF8.88595
aI0
aI00
aI00
aI00
aI00
aI00
aI00
aI00
aI00
aa(lp4176
I49373
aF448.922
aF49.2908
aVp4
p4177
aS'utopia'
p4178
aS'#656565'
p4179
aF8.88595
aI0
aI01
aI00
aI00
aI00
aI00
aI00
aI00
aI00
aa(lp4180
I59470
aF473.358
aF49.2908
aVp4
p4181
aS'utopia'
p4182
aS'#656565'
p4183
aF8.88595
aI0
aI00
aI00
aI00
aI00
aI00
aI00
aI00
aI00
aa(lp4184
I144489
aF502.978
aF49.2908
aVp4
p4185
aS'utopia'
p4186
aS'#656565'
p4187
aF8.88595
aI0
aI00
aI00
aI00
aI00
aI00
aI00
aI00
aI00
aa(lp4188
I138783
aF513.345
aF49.2908
aVp4
p4189
aS'utopia'
p4190
aS'#656565'
p4191
aF8.88595
aI0
aI00
aI00
aI00
aI00
aI00
aI00
aI00
aI00
aa(lp4192
I234378
aF546.3586
aF49.2908
ag4189
aS'utopia'
p4193
aS'#656565'
p4194
aF8.88595
aI0
aI00
aI00
aI00
aI00
aI00
aI00
aI00
aI00
aa(lp4195
I61342
aF40.9084
aF59.6578
aVp4
p4196
aS'utopia'
p4197
aS'#656565'
p4198
aF8.88595
aI0
aI00
aI00
aI00
aI00
aI00
aI00
aI00
aI00
aa(lp4199
I127485
aF61.6423
aF59.6578
aVp4
p4200
aS'utopia'
p4201
aS'#656565'
p4202
aF8.88595
aI0
aI00
aI00
aI00
aI00
aI00
aI00
aI00
aI00
aa(lp4203
I113929
aF89.7812
aF59.6578
aVp4
p4204
aS'utopia'
p4205
aS'#656565'
p4206
aF8.88595
aI0
aI00
aI00
aI00
aI00
aI00
aI00
aI00
aI00
aa(lp4207
I192638
aF105.332
aF59.6578
aVp4
p4208
aS'utopia'
p4209
aS'#656565'
p4210
aF8.88595
aI0
aI00
aI00
aI00
aI00
aI00
aI00
aI00
aI00
aa(lp4211
I234378
aF117.18
aF59.6578
aVp4
p4212
aS'utopia'
p4213
aS'#656565'
p4214
aF8.88595
aI0
aI00
aI00
aI00
aI00
aI00
aI00
aI00
aI00
aa(lp4215
I77389
aF151.983
aF59.6578
aVp4
p4216
aS'utopia'
p4217
aS'#656565'
p4218
aF8.88595
aI0
aI00
aI00
aI00
aI00
aI00
aI00
aI00
aI00
aa(lp4219
I234378
aF196.21005833333334
aF59.6578
ag4216
aS'utopia'
p4220
aS'#656565'
p4221
aF8.88595
aI0
aI00
aI00
aI00
aI00
aI00
aI00
aI00
aI00
aa(lp4222
I188043
aF202.337
aF59.6578
aVp4
p4223
aS'utopia'
p4224
aS'#656565'
p4225
aF8.88595
aI0
aI01
aI00
aI00
aI00
aI00
aI00
aI00
aI00
aa(lp4226
I162759
aF227.513
aF59.6578
aVp4
p4227
aS'utopia'
p4228
aS'#656565'
p4229
aF8.88595
aI0
aI00
aI00
aI00
aI00
aI00
aI00
aI00
aI00
aa(lp4230
I234378
aF262.50126666666665
aF59.6578
ag4227
aS'utopia'
p4231
aS'#656565'
p4232
aF8.88595
aI0
aI00
aI00
aI00
aI00
aI00
aI00
aI00
aI00
aa(lp4233
I49042
aF268.981
aF59.6578
aVp4
p4234
aS'utopia'
p4235
aS'#656565'
p4236
aF8.88595
aI0
aI00
aI00
aI00
aI00
aI00
aI00
aI00
aI00
aa(lp4237
I113929
aF286.013
aF59.6578
aVp4
p4238
aS'utopia'
p4239
aS'#656565'
p4240
aF8.88595
aI0
aI00
aI00
aI00
aI00
aI00
aI00
aI00
aI00
aa(lp4241
I163825
aF301.563
aF59.6578
aVp4
p4242
aS'utopia'
p4243
aS'#656565'
p4244
aF8.88595
aI0
aI00
aI00
aI00
aI00
aI00
aI00
aI00
aI00
aa(lp4245
I16329
aF331.923
aF59.6578
aVp4
p4246
aS'utopia'
p4247
aS'#656565'
p4248
aF8.88595
aI0
aI00
aI00
aI00
aI00
aI00
aI00
aI00
aI00
aa(lp4249
I64620
aF343.771
aF59.6578
aVp4
p4250
aS'utopia'
p4251
aS'#656565'
p4252
aF8.88595
aI0
aI00
aI00
aI00
aI00
aI00
aI00
aI00
aI00
aa(lp4253
I169404
aF349.00713333333334
aF59.6578
ag4250
aS'utopia'
p4254
aS'#656565'
p4255
aF8.88595
aI0
aI00
aI00
aI00
aI00
aI00
aI00
aI00
aI00
aa(lp4256
I89480
aF371.17
aF59.6578
aVp4
p4257
aS'utopia'
p4258
aS'#656565'
p4259
aF8.88595
aI0
aI00
aI00
aI00
aI00
aI00
aI00
aI00
aI00
aa(lp4260
I218252
aF381.537
aF59.6578
aVp4
p4261
aS'utopia'
p4262
aS'#656565'
p4263
aF8.88595
aI0
aI00
aI00
aI00
aI00
aI00
aI00
aI00
aI00
aa(lp4264
I175989
aF408.194
aF59.6578
aVp4
p4265
aS'utopia'
p4266
aS'#656565'
p4267
aF8.88595
aI0
aI00
aI00
aI00
aI00
aI00
aI00
aI00
aI00
aa(lp4268
I46280
aF425.966
aF59.6578
aVp4
p4269
aS'utopia'
p4270
aS'#656565'
p4271
aF8.88595
aI0
aI00
aI00
aI00
aI00
aI00
aI00
aI00
aI00
aa(lp4272
I68365
aF455.586
aF59.6578
aVp4
p4273
aS'utopia'
p4274
aS'#656565'
p4275
aF8.88595
aI0
aI00
aI00
aI00
aI00
aI00
aI00
aI00
aI00
aa(lp4276
I234378
aF482.984
aF59.6578
aVp4
p4277
aS'utopia'
p4278
aS'#656565'
p4279
aF8.88595
aI0
aI00
aI00
aI00
aI00
aI00
aI00
aI00
aI00
aa(lp4280
I39932
aF498.535
aF59.6578
aVp4
p4281
aS'utopia'
p4282
aS'#656565'
p4283
aF8.88595
aI0
aI00
aI00
aI00
aI00
aI00
aI00
aI00
aI00
aa(lp4284
I234378
aF520.009
aF59.6578
aVp4
p4285
aS'utopia'
p4286
aS'#656565'
p4287
aF8.88595
aI0
aI00
aI00
aI00
aI00
aI00
aI00
aI00
aI00
aa(lp4288
I234378
aF548.6191375
aF59.6578
ag4285
aS'utopia'
p4289
aS'#656565'
p4290
aF8.88595
aI0
aI00
aI00
aI00
aI00
aI00
aI00
aI00
aI00
aa(lp4291
I135639
aF40.9084
aF70.0247
aVp4
p4292
aS'utopia'
p4293
aS'#656565'
p4294
aF8.88595
aI0
aI01
aI00
aI00
aI00
aI00
aI00
aI00
aI00
aa(lp4295
I234378
aF51.2754
aF70.0247
aVp4
p4296
aS'utopia'
p4297
aS'#656565'
p4298
aF8.88595
aI0
aI00
aI00
aI00
aI00
aI00
aI00
aI00
aI00
aa(lp4299
I156028
aF87.5597
aF70.0247
aVp4
p4300
aS'utopia'
p4301
aS'#656565'
p4302
aF8.88595
aI0
aI00
aI00
aI00
aI00
aI00
aI00
aI00
aI00
aa(lp4303
I193136
aF105.332
aF70.0247
aVp4
p4304
aS'utopia'
p4305
aS'#656565'
p4306
aF8.88595
aI0
aI00
aI00
aI00
aI00
aI00
aI00
aI00
aI00
aa(lp4307
I84932
aF128.287
aF70.0247
aVp4
p4308
aS'utopia'
p4309
aS'#656565'
p4310
aF8.88595
aI0
aI00
aI00
aI00
aI00
aI00
aI00
aI00
aI00
aa(lp4311
I52532
aF143.097
aF70.0247
aVp4
p4312
aS'utopia'
p4313
aS'#656565'
p4314
aF8.88595
aI0
aI00
aI00
aI00
aI00
aI00
aI00
aI00
aI00
aa(lp4315
I234378
aF179.381
aF70.0247
aVp4
p4316
aS'utopia'
p4317
aS'#656565'
p4318
aF8.88595
aI0
aI00
aI00
aI00
aI00
aI00
aI00
aI00
aI00
aa(lp4319
I234378
aF215.665
aF70.0247
aVp4
p4320
aS'utopia'
p4321
aS'#656565'
p4322
aF8.88595
aI0
aI00
aI00
aI00
aI00
aI00
aI00
aI00
aI00
aa(lp4323
I156028
aF251.95
aF70.0247
aVp4
p4324
aS'utopia'
p4325
aS'#656565'
p4326
aF8.88595
aI0
aI01
aI00
aI00
aI00
aI00
aI00
aI00
aI00
aa(lp4327
I182663
aF271.943
aF70.0247
aVp4
p4328
aS'utopia'
p4329
aS'#656565'
p4330
aF8.88595
aI0
aI01
aI00
aI00
aI00
aI00
aI00
aI00
aI00
aa(lp4331
I234378
aF293.95412
aF70.0247
ag4328
aS'utopia'
p4332
aS'#656565'
p4333
aF8.88595
aI0
aI00
aI00
aI00
aI00
aI00
aI00
aI00
aI00
aa(lp4334
I234378
aF301.563
aF70.0247
aVp4
p4335
aS'utopia'
p4336
aS'#656565'
p4337
aF8.88595
aI0
aI01
aI01
aI00
aI00
aI00
aI00
aI00
aI00
aa(lp4338
I75520
aF312.67
aF70.0247
aVp4
p4339
aS'utopia'
p4340
aS'#656565'
p4341
aF8.88595
aI0
aI01
aI00
aI00
aI00
aI00
aI00
aI00
aI00
aa(lp4342
I234378
aF354.09367000000003
aF70.0247
ag4339
aS'utopia'
p4343
aS'#656565'
p4344
aF8.88595
aI0
aI00
aI00
aI00
aI00
aI00
aI00
aI00
aI00
aa(lp4345
I234378
aF360.803
aF70.0247
aVp4
p4346
aS'utopia'
p4347
aS'#656565'
p4348
aF8.88595
aI0
aI01
aI00
aI00
aI00
aI00
aI00
aI00
aI00
aa(lp4349
I234378
aF391.8419333333333
aF70.0247
ag4346
aS'utopia'
p4350
aS'#656565'
p4351
aF8.88595
aI0
aI00
aI00
aI00
aI00
aI00
aI00
aI00
aI00
aa(lp4352
I164851
aF397.827
aF70.0247
aVp4
p4353
aS'utopia'
p4354
aS'#656565'
p4355
aF8.88595
aI0
aI00
aI00
aI00
aI00
aI00
aI00
aI00
aI00
aa(lp4356
I234378
aF422.264
aF70.0247
aVp4
p4357
aS'utopia'
p4358
aS'#656565'
p4359
aF8.88595
aI0
aI00
aI00
aI00
aI00
aI00
aI00
aI00
aI00
aa(lp4360
I234378
aF459.02252
aF70.0247
ag4357
aS'utopia'
p4361
aS'#656565'
p4362
aF8.88595
aI0
aI00
aI00
aI00
aI00
aI00
aI00
aI00
aI00
aa(lp4363
I234378
aF465.213
aF70.0247
aVp4
p4364
aS'utopia'
p4365
aS'#656565'
p4366
aF8.88595
aI0
aI00
aI00
aI00
aI00
aI00
aI00
aI00
aI00
aa(lp4367
I234378
aF494.9354888888889
aF70.0247
ag4364
aS'utopia'
p4368
aS'#656565'
p4369
aF8.88595
aI0
aI00
aI00
aI00
aI00
aI00
aI00
aI00
aI00
aa(lp4370
I118366
aF500.756
aF70.0247
aVp4
p4371
aS'utopia'
p4372
aS'#656565'
p4373
aF8.88595
aI0
aI01
aI00
aI00
aI00
aI00
aI00
aI00
aI00
aa(lp4374
I175531
aF40.9084
aF80.3917
aVp4
p4375
aS'utopia'
p4376
aS'#656565'
p4377
aF8.88595
aI0
aI00
aI00
aI00
aI00
aI00
aI00
aI00
aI00
aa(lp4378
I234378
aF58.77272
aF80.3917
ag4375
aS'utopia'
p4379
aS'#656565'
p4380
aF8.88595
aI0
aI00
aI00
aI00
aI00
aI00
aI00
aI00
aI00
aa(lp4381
I34704
aF65.3448
aF80.3917
aVp4
p4382
aS'utopia'
p4383
aS'#656565'
p4384
aF8.88595
aI0
aI01
aI00
aI00
aI00
aI00
aI00
aI00
aI00
aa(lp4385
I234378
aF86.8192
aF80.3917
aVp4
p4386
aS'utopia'
p4387
aS'#656565'
p4388
aF8.88595
aI0
aI00
aI00
aI00
aI00
aI00
aI00
aI00
aI00
aa(lp4389
I135639
aF90.36566666666666
aF80.3917
ag4386
aS'utopia'
p4390
aS'#656565'
p4391
aF8.88595
aI0
aI01
aI00
aI00
aI00
aI00
aI00
aI00
aI00
aa(lp4392
I194354
aF99.4076
aF80.3917
aVp4
p4393
aS'utopia'
p4394
aS'#656565'
p4395
aF8.88595
aI0
aI00
aI00
aI00
aI00
aI00
aI00
aI00
aI00
aa(lp4396
I49656
aF114.218
aF80.3917
aVp4
p4397
aS'utopia'
p4398
aS'#656565'
p4399
aF8.88595
aI0
aI00
aI00
aI00
aI00
aI00
aI00
aI00
aI00
aa(lp4400
I234378
aF143.837
aF80.3917
aVp4
p4401
aS'utopia'
p4402
aS'#656565'
p4403
aF8.88595
aI0
aI00
aI00
aI00
aI00
aI00
aI00
aI00
aI00
aa(lp4404
I233620
aF171.236
aF80.3917
aVp4
p4405
aS'utopia'
p4406
aS'#656565'
p4407
aF8.88595
aI0
aI00
aI00
aI00
aI00
aI00
aI00
aI00
aI00
aa(lp4408
I87604
aF186.046
aF80.3917
aVp4
p4409
aS'utopia'
p4410
aS'#656565'
p4411
aF8.88595
aI0
aI00
aI00
aI00
aI00
aI00
aI00
aI00
aI00
aa(lp4412
I234378
aF208.82478749999999
aF80.3917
ag4409
aS'utopia'
p4413
aS'#656565'
p4414
aF8.88595
aI0
aI00
aI00
aI00
aI00
aI00
aI00
aI00
aI00
aa(lp4415
I175452
aF214.184
aF80.3917
aVp4
p4416
aS'utopia'
p4417
aS'#656565'
p4418
aF8.88595
aI0
aI00
aI00
aI00
aI00
aI00
aI00
aI00
aI00
aa(lp4419
I118366
aF249.728
aF80.3917
aVp4
p4420
aS'utopia'
p4421
aS'#656565'
p4422
aF8.88595
aI0
aI00
aI00
aI00
aI00
aI00
aI00
aI00
aI00
aa(lp4423
I234378
aF278.3381375
aF80.3917
ag4420
aS'utopia'
p4424
aS'#656565'
p4425
aF8.88595
aI0
aI00
aI00
aI00
aI00
aI00
aI00
aI00
aI00
aa(lp4426
I25691
aF284.532
aF80.3917
aVp4
p4427
aS'utopia'
p4428
aS'#656565'
p4429
aF8.88595
aI0
aI00
aI00
aI00
aI00
aI00
aI00
aI00
aI00
aa(lp4430
I137949
aF301.563
aF80.3917
aVp4
p4431
aS'utopia'
p4432
aS'#656565'
p4433
aF8.88595
aI0
aI00
aI00
aI00
aI00
aI00
aI00
aI00
aI00
aa(lp4434
I234378
aF317.26065714285716
aF80.3917
ag4431
aS'utopia'
p4435
aS'#656565'
p4436
aF8.88595
aI0
aI00
aI00
aI00
aI00
aI00
aI00
aI00
aI00
aa(lp4437
I234378
aF321.18507142857146
aF80.3917
ag4431
aS'utopia'
p4438
aS'#656565'
p4439
aF8.88595
aI0
aI00
aI00
aI00
aI00
aI00
aI00
aI00
aI00
aa(lp4440
I234378
aF358.581
aF80.3917
aVp4
p4441
aS'utopia'
p4442
aS'#656565'
p4443
aF8.88595
aI0
aI00
aI00
aI00
aI00
aI00
aI00
aI00
aI00
aa(lp4444
I234378
aF372.89092
aF80.3917
ag4441
aS'utopia'
p4445
aS'#656565'
p4446
aF8.88595
aI0
aI00
aI00
aI00
aI00
aI00
aI00
aI00
aI00
aa(lp4447
I127730
aF378.575
aF80.3917
aVp4
p4448
aS'utopia'
p4449
aS'#656565'
p4450
aF8.88595
aI0
aI00
aI00
aI00
aI00
aI00
aI00
aI00
aI00
aa(lp4451
I234378
aF423.745
aF80.3917
aVp4
p4452
aS'utopia'
p4453
aS'#656565'
p4454
aF8.88595
aI0
aI00
aI00
aI00
aI00
aI00
aI00
aI00
aI00
aa(lp4455
I234378
aF445.96
aF80.3917
aVp4
p4456
aS'utopia'
p4457
aS'#656565'
p4458
aF8.88595
aI0
aI00
aI00
aI00
aI00
aI00
aI00
aI00
aI00
aa(lp4459
I234378
aF514.7955625
aF80.3917
ag4456
aS'utopia'
p4460
aS'#656565'
p4461
aF8.88595
aI0
aI00
aI00
aI00
aI00
aI00
aI00
aI00
aI00
aa(lp4462
I164851
aF521.49
aF80.3917
aVp4
p4463
aS'utopia'
p4464
aS'#656565'
p4465
aF8.88595
aI0
aI00
aI00
aI00
aI00
aI00
aI00
aI00
aI00
aa(lp4466
I234378
aF40.9084
aF90.7586
aVp4
p4467
aS'utopia'
p4468
aS'#656565'
p4469
aF8.88595
aI0
aI00
aI00
aI00
aI00
aI00
aI00
aI00
aI00
aa(lp4470
I234378
aF76.4522
aF90.7586
aVp4
p4471
aS'utopia'
p4472
aS'#656565'
p4473
aF8.88595
aI0
aI00
aI00
aI00
aI00
aI00
aI00
aI00
aI00
aa(lp4474
I146188
aF81.33355
aF90.7586
ag4471
aS'utopia'
p4475
aS'#656565'
p4476
aF8.88595
aI0
aI01
aI00
aI00
aI00
aI00
aI00
aI00
aI00
aa(lp4477
I208583
aF97.9266
aF90.7586
aVp4
p4478
aS'utopia'
p4479
aS'#656565'
p4480
aF8.88595
aI0
aI00
aI00
aI00
aI00
aI00
aI00
aI00
aI00
aa(lp4481
I175452
aF134.951
aF90.7586
aVp4
p4482
aS'utopia'
p4483
aS'#656565'
p4484
aF8.88595
aI0
aI00
aI00
aI00
aI00
aI00
aI00
aI00
aI00
aa(lp4485
I98224
aF170.495
aF90.7586
aVp4
p4486
aS'utopia'
p4487
aS'#656565'
p4488
aF8.88595
aI0
aI00
aI00
aI00
aI00
aI00
aI00
aI00
aI00
aa(lp4489
I234378
aF198.4572
aF90.7586
ag4486
aS'utopia'
p4490
aS'#656565'
p4491
aF8.88595
aI0
aI00
aI00
aI00
aI00
aI00
aI00
aI00
aI00
aa(lp4492
I18050
aF204.558
aF90.7586
aVp4
p4493
aS'utopia'
p4494
aS'#656565'
p4495
aF8.88595
aI0
aI00
aI00
aI00
aI00
aI00
aI00
aI00
aI00
aa(lp4496
I234378
aF237.88
aF90.7586
aVp4
p4497
aS'utopia'
p4498
aS'#656565'
p4499
aF8.88595
aI0
aI00
aI00
aI00
aI00
aI00
aI00
aI00
aI00
aa(lp4500
I84932
aF269.722
aF90.7586
aVp4
p4501
aS'utopia'
p4502
aS'#656565'
p4503
aF8.88595
aI0
aI00
aI00
aI00
aI00
aI00
aI00
aI00
aI00
aa(lp4504
I102117
aF284.532
aF90.7586
aVp4
p4505
aS'utopia'
p4506
aS'#656565'
p4507
aF8.88595
aI0
aI00
aI00
aI00
aI00
aI00
aI00
aI00
aI00
aa(lp4508
I234378
aF40.9084
aF127.677
aVp4
p4509
aS'utopia'
p4510
aS'#000000'
p4511
aF10.3669
aI1
aI01
aI00
aI00
aI00
aI00
aI00
aI00
aI00
aa(lp4512
I234378
aF40.9084
aF144.237
aVp4
p4513
aS'utopia'
p4514
aS'#656565'
p4515
aF10.3669
aI0
aI01
aI00
aI00
aI00
aI00
aI00
aI00
aI00
aa(lp4516
I234378
aF74.9712
aF144.237
aVp4
p4517
aS'utopia'
p4518
aS'#656565'
p4519
aF10.3669
aI0
aI01
aI00
aI00
aI00
aI00
aI00
aI00
aI00
aa(lp4520
I234378
aF144.578
aF144.237
aVp4
p4521
aS'utopia'
p4522
aS'#656565'
p4523
aF10.3669
aI0
aI01
aI00
aI00
aI00
aI00
aI00
aI00
aI00
aa(lp4524
I60201
aF181.603
aF144.237
aVp4
p4525
aS'utopia'
p4526
aS'#656565'
p4527
aF10.3669
aI0
aI01
aI00
aI00
aI00
aI00
aI00
aI00
aI00
aa(lp4528
I230071
aF201.596
aF144.237
aVp4
p4529
aS'utopia'
p4530
aS'#656565'
p4531
aF10.3669
aI0
aI01
aI00
aI00
aI00
aI00
aI00
aI00
aI00
aa(lp4532
I131049
aF232.697
aF144.237
aVp4
p4533
aS'utopia'
p4534
aS'#656565'
p4535
aF10.3669
aI0
aI00
aI00
aI00
aI00
aI00
aI00
aI00
aI00
aa(lp4536
I37510
aF257.133
aF144.237
aVp4
p4537
aS'utopia'
p4538
aS'#656565'
p4539
aF10.3669
aI0
aI01
aI00
aI00
aI00
aI00
aI00
aI00
aI01
aa(lp4540
I234378
aF277.867
aF144.237
aVp4
p4541
aS'utopia'
p4542
aS'#656565'
p4543
aF10.3669
aI0
aI00
aI00
aI01
aI01
aI01
aI00
aI00
aI00
aa(lp4544
I89480
aF300.822
aF144.237
aVp4
p4545
aS'utopia'
p4546
aS'#656565'
p4547
aF10.3669
aI0
aI00
aI00
aI00
aI00
aI00
aI00
aI00
aI00
aa(lp4548
I234378
aF312.67
aF144.237
aVp4
p4549
aS'utopia'
p4550
aS'#656565'
p4551
aF10.3669
aI0
aI01
aI00
aI00
aI00
aI00
aI00
aI00
aI01
aa(lp4552
I234378
aF331.923
aF144.237
aVp4
p4553
aS'utopia'
p4554
aS'#656565'
p4555
aF10.3669
aI0
aI00
aI00
aI01
aI01
aI01
aI00
aI00
aI00
aa(lp4556
I164802
aF40.9084
aF160.528
aVp4
p4557
aS'utopia'
p4558
aS'#656565'
p4559
aF10.3669
aI0
aI01
aI00
aI00
aI00
aI00
aI00
aI00
aI00
aa(lp4560
I234378
aF67.24785
aF160.528
ag4557
aS'utopia'
p4561
aS'#656565'
p4562
aF10.3669
aI0
aI00
aI00
aI00
aI00
aI00
aI00
aI00
aI00
aa(lp4563
I234378
aF72.51574
aF160.528
ag4557
aS'utopia'
p4564
aS'#656565'
p4565
aF10.3669
aI0
aI01
aI00
aI00
aI00
aI00
aI00
aI00
aI00
aa(lp4566
I109610
aF40.9084
aF176.656
aVp4
p4567
aS'utopia'
p4568
aS'#656565'
p4569
aF8.88595
aI0
aI01
aI00
aI00
aI00
aI00
aI00
aI00
aI00
aa(lp4570
I25729
aF58.6803
aF176.656
aVp4
p4571
aS'utopia'
p4572
aS'#656565'
p4573
aF8.88595
aI0
aI01
aI00
aI00
aI00
aI00
aI00
aI00
aI00
aa(lp4574
I234378
aF76.54462000000001
aF176.656
ag4571
aS'utopia'
p4575
aS'#656565'
p4576
aF8.88595
aI0
aI00
aI00
aI00
aI00
aI00
aI00
aI00
aI00
aa(lp4577
I21716
aF85.3382
aF176.656
aVp4
p4578
aS'utopia'
p4579
aS'#656565'
p4580
aF8.88595
aI0
aI01
aI00
aI00
aI00
aI00
aI00
aI00
aI00
aa(lp4581
I234378
aF103.851
aF176.656
aVp4
p4582
aS'utopia'
p4583
aS'#656565'
p4584
aF8.88595
aI0
aI00
aI00
aI00
aI00
aI00
aI00
aI00
aI00
aa(lp4585
I234378
aF107.13228
aF176.656
ag4582
aS'utopia'
p4586
aS'#656565'
p4587
aF8.88595
aI0
aI01
aI00
aI00
aI00
aI00
aI00
aI00
aI00
aa(lp4588
I234378
aF112.97612
aF176.656
ag4582
aS'utopia'
p4589
aS'#656565'
p4590
aF8.88595
aI0
aI00
aI00
aI00
aI00
aI00
aI00
aI00
aI00
aa(lp4591
I234378
aF122.363
aF176.656
aVp4
p4592
aS'utopia'
p4593
aS'#656565'
p4594
aF8.88595
aI0
aI00
aI00
aI00
aI00
aI00
aI00
aI00
aI00
aa(lp4595
I234378
aF154.204
aF176.656
aVp4
p4596
aS'utopia'
p4597
aS'#656565'
p4598
aF8.88595
aI0
aI00
aI00
aI00
aI00
aI00
aI00
aI00
aI00
aa(lp4599
I234378
aF158.647
aF176.656
aVp4
p4600
aS'utopia'
p4601
aS'#656565'
p4602
aF8.88595
aI0
aI01
aI01
aI00
aI00
aI00
aI00
aI00
aI00
aa(lp4603
I234378
aF177.69611999999998
aF176.656
ag4600
aS'utopia'
p4604
aS'#656565'
p4605
aF8.88595
aI0
aI00
aI00
aI00
aI00
aI00
aI00
aI00
aI00
aa(lp4606
I234378
aF184.565
aF176.656
aVp4
p4607
aS'utopia'
p4608
aS'#656565'
p4609
aF8.88595
aI0
aI01
aI00
aI00
aI00
aI00
aI00
aI00
aI00
aa(lp4610
I234378
aF223.07
aF176.656
aVp4
p4611
aS'utopia'
p4612
aS'#656565'
p4613
aF8.88595
aI0
aI00
aI00
aI01
aI01
aI01
aI00
aI00
aI00
aa(lp4614
I210461
aF40.9084
aF190.726
aVp4
p4615
aS'utopia'
p4616
aS'#656565'
p4617
aF8.88595
aI0
aI01
aI00
aI00
aI00
aI00
aI00
aI00
aI00
aa(lp4618
I340
aF65.3448
aF190.726
aVp4
p4619
aS'utopia'
p4620
aS'#656565'
p4621
aF8.88595
aI0
aI01
aI00
aI00
aI00
aI00
aI00
aI00
aI00
aa(lp4622
I234378
aF79.65472000000001
aF190.726
ag4619
aS'utopia'
p4623
aS'#656565'
p4624
aF8.88595
aI0
aI00
aI00
aI00
aI00
aI00
aI00
aI00
aI00
aa(lp4625
I234378
aF87.5597
aF190.726
aVp4
p4626
aS'utopia'
p4627
aS'#656565'
p4628
aF8.88595
aI0
aI00
aI00
aI01
aI01
aI00
aI00
aI00
aI00
aa(lp4629
I176435
aF40.9084
aF204.795
aVp4
p4630
aS'utopia'
p4631
aS'#656565'
p4632
aF8.88595
aI0
aI01
aI00
aI00
aI00
aI00
aI00
aI00
aI00
aa(lp4633
I234378
aF60.9018
aF204.795
aVp4
p4634
aS'utopia'
p4635
aS'#656565'
p4636
aF8.88595
aI0
aI00
aI00
aI00
aI00
aI00
aI00
aI00
aI00
aa(lp4637
I150037
aF67.5663
aF204.795
aVp4
p4638
aS'utopia'
p4639
aS'#656565'
p4640
aF8.88595
aI0
aI01
aI00
aI00
aI00
aI00
aI00
aI00
aI00
aa(lp4641
I176435
aF40.9084
aF218.864
aVp4
p4642
aS'utopia'
p4643
aS'#656565'
p4644
aF8.88595
aI0
aI01
aI00
aI00
aI00
aI00
aI00
aI00
aI00
aa(lp4645
I66756
aF60.9018
aF218.864
aVp4
p4646
aS'utopia'
p4647
aS'#656565'
p4648
aF8.88595
aI0
aI01
aI00
aI00
aI00
aI00
aI00
aI00
aI00
aa(lp4649
I234378
aF105.12885833333334
aF218.864
ag4646
aS'utopia'
p4650
aS'#656565'
p4651
aF8.88595
aI0
aI00
aI00
aI00
aI00
aI00
aI00
aI00
aI00
aa(lp4652
I105322
aF113.477
aF218.864
aVp4
p4653
aS'utopia'
p4654
aS'#656565'
p4655
aF8.88595
aI0
aI01
aI00
aI00
aI00
aI00
aI00
aI00
aI00
aa(lp4656
I135639
aF149.761
aF218.864
aVp4
p4657
aS'utopia'
p4658
aS'#656565'
p4659
aF8.88595
aI0
aI00
aI00
aI00
aI00
aI00
aI00
aI00
aI00
aa(lp4660
I234378
aF159.388
aF218.864
aVp4
p4661
aS'utopia'
p4662
aS'#656565'
p4663
aF8.88595
aI0
aI00
aI00
aI00
aI00
aI00
aI00
aI00
aI00
aa(lp4664
I169745
aF188.267
aF218.864
aVp4
p4665
aS'utopia'
p4666
aS'#656565'
p4667
aF8.88595
aI0
aI00
aI00
aI00
aI00
aI00
aI00
aI00
aI00
aa(lp4668
I234378
aF207.52
aF218.864
aVp4
p4669
aS'utopia'
p4670
aS'#656565'
p4671
aF8.88595
aI0
aI01
aI01
aI00
aI00
aI00
aI00
aI00
aI00
aa(lp4672
I234378
aF218.71405000000001
aF218.864
ag4669
aS'utopia'
p4673
aS'#656565'
p4674
aF8.88595
aI0
aI00
aI00
aI00
aI00
aI00
aI00
aI00
aI00
aa(lp4675
I234378
aF224.551
aF218.864
aVp4
p4676
aS'utopia'
p4677
aS'#656565'
p4678
aF8.88595
aI0
aI01
aI00
aI00
aI00
aI00
aI00
aI00
aI00
aa(lp4679
I234378
aF249.9215375
aF218.864
ag4676
aS'utopia'
p4680
aS'#656565'
p4681
aF8.88595
aI0
aI00
aI00
aI00
aI00
aI00
aI00
aI00
aI00
aa(lp4682
I105322
aF255.652
aF218.864
aVp4
p4683
aS'utopia'
p4684
aS'#656565'
p4685
aF8.88595
aI0
aI01
aI00
aI00
aI00
aI00
aI00
aI00
aI00
aa(lp4686
I135639
aF291.937
aF218.864
aVp4
p4687
aS'utopia'
p4688
aS'#656565'
p4689
aF8.88595
aI0
aI00
aI00
aI00
aI00
aI00
aI00
aI00
aI00
aa(lp4690
I167796
aF301.563
aF218.864
aVp4
p4691
aS'utopia'
p4692
aS'#656565'
p4693
aF8.88595
aI0
aI01
aI00
aI00
aI00
aI00
aI00
aI00
aI00
aa(lp4694
I234378
aF338.52593333333334
aF218.864
ag4691
aS'utopia'
p4695
aS'#656565'
p4696
aF8.88595
aI0
aI00
aI00
aI00
aI00
aI00
aI00
aI00
aI00
aa(lp4697
I123669
aF345.252
aF218.864
aVp4
p4698
aS'utopia'
p4699
aS'#656565'
p4700
aF8.88595
aI0
aI01
aI00
aI00
aI00
aI00
aI00
aI00
aI00
aa(lp4701
I234378
aF395.606
aF218.864
aVp4
p4702
aS'utopia'
p4703
aS'#656565'
p4704
aF8.88595
aI0
aI01
aI00
aI00
aI00
aI00
aI00
aI00
aI00
aa(lp4705
I234378
aF427.455825
aF218.864
ag4702
aS'utopia'
p4706
aS'#656565'
p4707
aF8.88595
aI0
aI00
aI00
aI00
aI00
aI00
aI00
aI00
aI00
aa(lp4708
I177958
aF40.9084
aF232.934
aVp4
p4709
aS'utopia'
p4710
aS'#656565'
p4711
aF8.88595
aI0
aI01
aI00
aI00
aI00
aI00
aI00
aI00
aI00
aa(lp4712
I234378
aF71.2688
aF232.934
aVp4
p4713
aS'utopia'
p4714
aS'#656565'
p4715
aF8.88595
aI0
aI01
aI00
aI00
aI00
aI00
aI00
aI00
aI00
aa(lp4716
I234378
aF96.6393375
aF232.934
ag4713
aS'utopia'
p4717
aS'#656565'
p4718
aF8.88595
aI0
aI00
aI00
aI00
aI00
aI00
aI00
aI00
aI00
aa(lp4719
I22476
aF104.591
aF232.934
aVp4
p4720
aS'utopia'
p4721
aS'#656565'
p4722
aF8.88595
aI0
aI01
aI00
aI00
aI00
aI00
aI00
aI00
aI00
aa(lp4723
I22474
aF112.737
aF232.934
aVp4
p4724
aS'utopia'
p4725
aS'#656565'
p4726
aF8.88595
aI0
aI00
aI00
aI00
aI00
aI00
aI00
aI00
aI00
aa(lp4727
I16329
aF120.882
aF232.934
aVp4
p4728
aS'utopia'
p4729
aS'#656565'
p4730
aF8.88595
aI0
aI00
aI00
aI00
aI00
aI00
aI00
aI00
aI00
aa(lp4731
I234378
aF132.73
aF232.934
aVp4
p4732
aS'utopia'
p4733
aS'#656565'
p4734
aF8.88595
aI0
aI00
aI00
aI00
aI00
aI00
aI00
aI00
aI00
aa(lp4735
I206869
aF160.869
aF232.934
aVp4
p4736
aS'utopia'
p4737
aS'#656565'
p4738
aF8.88595
aI0
aI00
aI00
aI00
aI00
aI00
aI00
aI00
aI00
aa(lp4739
I177958
aF193.451
aF232.934
aVp4
p4740
aS'utopia'
p4741
aS'#656565'
p4742
aF8.88595
aI0
aI00
aI00
aI00
aI00
aI00
aI00
aI00
aI00
aa(lp4743
I234378
aF220.117325
aF232.934
ag4740
aS'utopia'
p4744
aS'#656565'
p4745
aF8.88595
aI0
aI00
aI00
aI00
aI00
aI00
aI00
aI00
aI00
aa(lp4746
I46544
aF226.032
aF232.934
aVp4
p4747
aS'utopia'
p4748
aS'#656565'
p4749
aF8.88595
aI0
aI01
aI00
aI00
aI00
aI00
aI00
aI00
aI00
aa(lp4750
I177958
aF244.545
aF232.934
aVp4
p4751
aS'utopia'
p4752
aS'#656565'
p4753
aF8.88595
aI0
aI00
aI00
aI00
aI00
aI00
aI00
aI00
aI00
aa(lp4754
I22474
aF274.905
aF232.934
aVp4
p4755
aS'utopia'
p4756
aS'#656565'
p4757
aF8.88595
aI0
aI00
aI00
aI00
aI00
aI00
aI00
aI00
aI00
aa(lp4758
I25729
aF283.051
aF232.934
aVp4
p4759
aS'utopia'
p4760
aS'#656565'
p4761
aF8.88595
aI0
aI00
aI00
aI00
aI00
aI00
aI00
aI00
aI00
aa(lp4762
I190806
aF303.784
aF232.934
aVp4
p4763
aS'utopia'
p4764
aS'#656565'
p4765
aF8.88595
aI0
aI00
aI00
aI00
aI00
aI00
aI00
aI00
aI00
aa(lp4766
I194354
aF317.854
aF232.934
aVp4
p4767
aS'utopia'
p4768
aS'#656565'
p4769
aF8.88595
aI0
aI00
aI00
aI00
aI00
aI00
aI00
aI00
aI00
aa(lp4770
I234378
aF332.664
aF232.934
aVp4
p4771
aS'utopia'
p4772
aS'#656565'
p4773
aF8.88595
aI0
aI00
aI00
aI00
aI00
aI00
aI00
aI00
aI00
aa(lp4774
I141799
aF371.91
aF232.934
aVp4
p4775
aS'utopia'
p4776
aS'#656565'
p4777
aF8.88595
aI0
aI00
aI00
aI00
aI00
aI00
aI00
aI00
aI00
aa(lp4778
I234378
aF420.1494714285715
aF232.934
ag4775
aS'utopia'
p4779
aS'#656565'
p4780
aF8.88595
aI0
aI00
aI00
aI00
aI00
aI00
aI00
aI00
aI00
aa(lp4781
I234378
aF425.966
aF232.934
aVp4
p4782
aS'utopia'
p4783
aS'#656565'
p4784
aF8.88595
aI0
aI01
aI00
aI00
aI00
aI00
aI00
aI00
aI00
aa(lp4785
I46544
aF450.403
aF232.934
aVp4
p4786
aS'utopia'
p4787
aS'#656565'
p4788
aF8.88595
aI0
aI00
aI00
aI00
aI00
aI00
aI00
aI00
aI00
aa(lp4789
I177958
aF466.694
aF232.934
aVp4
p4790
aS'utopia'
p4791
aS'#656565'
p4792
aF8.88595
aI0
aI00
aI00
aI00
aI00
aI00
aI00
aI00
aI00
aa(lp4793
I200489
aF497.054
aF232.934
aVp4
p4794
aS'utopia'
p4795
aS'#656565'
p4796
aF8.88595
aI0
aI00
aI00
aI00
aI00
aI00
aI00
aI00
aI00
aa(lp4797
I33705
aF510.383
aF232.934
aVp4
p4798
aS'utopia'
p4799
aS'#656565'
p4800
aF8.88595
aI0
aI00
aI00
aI00
aI00
aI00
aI00
aI00
aI00
aa(lp4801
I80866
aF40.9084
aF243.301
aVp4
p4802
aS'utopia'
p4803
aS'#656565'
p4804
aF8.88595
aI0
aI00
aI00
aI00
aI00
aI00
aI00
aI00
aI00
aa(lp4805
I194354
aF74.2307
aF243.301
aVp4
p4806
aS'utopia'
p4807
aS'#656565'
p4808
aF8.88595
aI0
aI00
aI00
aI00
aI00
aI00
aI00
aI00
aI00
aa(lp4809
I212986
aF89.0407
aF243.301
aVp4
p4810
aS'utopia'
p4811
aS'#656565'
p4812
aF8.88595
aI0
aI00
aI00
aI00
aI00
aI00
aI00
aI00
aI00
aa(lp4813
I179872
aF108.294
aF243.301
aVp4
p4814
aS'utopia'
p4815
aS'#656565'
p4816
aF8.88595
aI0
aI00
aI00
aI00
aI00
aI00
aI00
aI00
aI00
aa(lp4817
I226514
aF130.508
aF243.301
aVp4
p4818
aS'utopia'
p4819
aS'#656565'
p4820
aF8.88595
aI0
aI00
aI00
aI00
aI00
aI00
aI00
aI00
aI00
aa(lp4821
I234378
aF154.945
aF243.301
aVp4
p4822
aS'utopia'
p4823
aS'#656565'
p4824
aF8.88595
aI0
aI00
aI00
aI00
aI00
aI00
aI00
aI00
aI00
aa(lp4825
I234378
aF182.2592625
aF243.301
ag4822
aS'utopia'
p4826
aS'#656565'
p4827
aF8.88595
aI0
aI00
aI00
aI00
aI00
aI00
aI00
aI00
aI00
aa(lp4828
I234378
aF188.267
aF243.301
aVp4
p4829
aS'utopia'
p4830
aS'#656565'
p4831
aF8.88595
aI0
aI00
aI00
aI00
aI00
aI00
aI00
aI00
aI00
aa(lp4832
I144489
aF222.33
aF243.301
aVp4
p4833
aS'utopia'
p4834
aS'#656565'
p4835
aF8.88595
aI0
aI00
aI00
aI00
aI00
aI00
aI00
aI00
aI00
aa(lp4836
I204548
aF232.697
aF243.301
aVp4
p4837
aS'utopia'
p4838
aS'#656565'
p4839
aF8.88595
aI0
aI00
aI00
aI00
aI00
aI00
aI00
aI00
aI00
aa(lp4840
I63729
aF266.76
aF243.301
aVp4
p4841
aS'utopia'
p4842
aS'#656565'
p4843
aF8.88595
aI0
aI00
aI00
aI00
aI00
aI00
aI00
aI00
aI00
aa(lp4844
I25691
aF295.639
aF243.301
aVp4
p4845
aS'utopia'
p4846
aS'#656565'
p4847
aF8.88595
aI0
aI00
aI00
aI00
aI00
aI00
aI00
aI00
aI00
aa(lp4848
I85218
aF312.67
aF243.301
aVp4
p4849
aS'utopia'
p4850
aS'#656565'
p4851
aF8.88595
aI0
aI00
aI00
aI00
aI00
aI00
aI00
aI00
aI00
aa(lp4852
I1222
aF329.702
aF243.301
aVp4
p4853
aS'utopia'
p4854
aS'#656565'
p4855
aF8.88595
aI0
aI00
aI00
aI00
aI00
aI00
aI00
aI00
aI00
aa(lp4856
I25691
aF361.543
aF243.301
aVp4
p4857
aS'utopia'
p4858
aS'#656565'
p4859
aF8.88595
aI0
aI00
aI00
aI00
aI00
aI00
aI00
aI00
aI00
aa(lp4860
I234378
aF378.575
aF243.301
aVp4
p4861
aS'utopia'
p4862
aS'#656565'
p4863
aF8.88595
aI0
aI00
aI00
aI00
aI00
aI00
aI00
aI00
aI00
aa(lp4864
I41890
aF409.675
aF243.301
aVp4
p4865
aS'utopia'
p4866
aS'#656565'
p4867
aF8.88595
aI0
aI01
aI00
aI00
aI00
aI00
aI00
aI00
aI00
aa(lp4868
I194354
aF422.264
aF243.301
aVp4
p4869
aS'utopia'
p4870
aS'#656565'
p4871
aF8.88595
aI0
aI00
aI00
aI00
aI00
aI00
aI00
aI00
aI00
aa(lp4872
I123665
aF437.074
aF243.301
aVp4
p4873
aS'utopia'
p4874
aS'#656565'
p4875
aF8.88595
aI0
aI00
aI00
aI00
aI00
aI00
aI00
aI00
aI00
aa(lp4876
I234378
aF482.984
aF243.301
aVp4
p4877
aS'utopia'
p4878
aS'#656565'
p4879
aF8.88595
aI0
aI00
aI00
aI00
aI00
aI00
aI00
aI00
aI00
aa(lp4880
I85218
aF510.383
aF243.301
aVp4
p4881
aS'utopia'
p4882
aS'#656565'
p4883
aF8.88595
aI0
aI00
aI00
aI00
aI00
aI00
aI00
aI00
aI00
aa(lp4884
I218852
aF527.414
aF243.301
aVp4
p4885
aS'utopia'
p4886
aS'#656565'
p4887
aF8.88595
aI0
aI00
aI00
aI00
aI00
aI00
aI00
aI00
aI00
aa(lp4888
I234378
aF40.9084
aF253.668
aVp4
p4889
aS'utopia'
p4890
aS'#656565'
p4891
aF8.88595
aI0
aI01
aI01
aI00
aI00
aI00
aI00
aI00
aI00
aa(lp4892
I234378
aF60.9018
aF253.668
aVp4
p4893
aS'utopia'
p4894
aS'#656565'
p4895
aF8.88595
aI0
aI00
aI00
aI00
aI00
aI00
aI00
aI00
aI00
aa(lp4896
I84932
aF88.3002
aF253.668
aVp4
p4897
aS'utopia'
p4898
aS'#656565'
p4899
aF8.88595
aI0
aI00
aI00
aI00
aI00
aI00
aI00
aI00
aI00
aa(lp4900
I60534
aF103.11
aF253.668
aVp4
p4901
aS'utopia'
p4902
aS'#656565'
p4903
aF8.88595
aI0
aI00
aI00
aI00
aI00
aI00
aI00
aI00
aI00
aa(lp4904
I102117
aF120.882
aF253.668
aVp4
p4905
aS'utopia'
p4906
aS'#656565'
p4907
aF8.88595
aI0
aI00
aI00
aI00
aI00
aI00
aI00
aI00
aI00
aa(lp4908
I234378
aF148.8442
aF253.668
ag4905
aS'utopia'
p4909
aS'#656565'
p4910
aF8.88595
aI0
aI00
aI00
aI00
aI00
aI00
aI00
aI00
aI00
aa(lp4911
I88543
aF154.945
aF253.668
aVp4
p4912
aS'utopia'
p4913
aS'#656565'
p4914
aF8.88595
aI0
aI01
aI00
aI00
aI00
aI00
aI00
aI00
aI00
aa(lp4915
I153177
aF180.122
aF253.668
aVp4
p4916
aS'utopia'
p4917
aS'#656565'
p4918
aF8.88595
aI0
aI00
aI00
aI00
aI00
aI00
aI00
aI00
aI00
aa(lp4919
I85218
aF234.178
aF253.668
aVp4
p4920
aS'utopia'
p4921
aS'#656565'
p4922
aF8.88595
aI0
aI00
aI00
aI00
aI00
aI00
aI00
aI00
aI00
aa(lp4923
I131455
aF251.209
aF253.668
aVp4
p4924
aS'utopia'
p4925
aS'#656565'
p4926
aF8.88595
aI0
aI00
aI00
aI00
aI00
aI00
aI00
aI00
aI00
aa(lp4927
I33870
aF266.019
aF253.668
aVp4
p4928
aS'utopia'
p4929
aS'#656565'
p4930
aF8.88595
aI0
aI00
aI00
aI00
aI00
aI00
aI00
aI00
aI00
aa(lp4931
I234378
aF286.013
aF253.668
aVp4
p4932
aS'utopia'
p4933
aS'#656565'
p4934
aF8.88595
aI0
aI00
aI00
aI00
aI00
aI00
aI00
aI00
aI00
aa(lp4935
I84932
aF313.411
aF253.668
aVp4
p4936
aS'utopia'
p4937
aS'#656565'
p4938
aF8.88595
aI0
aI00
aI00
aI00
aI00
aI00
aI00
aI00
aI00
aa(lp4939
I60534
aF328.221
aF253.668
aVp4
p4940
aS'utopia'
p4941
aS'#656565'
p4942
aF8.88595
aI0
aI00
aI00
aI00
aI00
aI00
aI00
aI00
aI00
aa(lp4943
I102117
aF345.993
aF253.668
aVp4
p4944
aS'utopia'
p4945
aS'#656565'
p4946
aF8.88595
aI0
aI00
aI00
aI00
aI00
aI00
aI00
aI00
aI00
aa(lp4947
I177271
aF40.1679
aF296.634
aVp4
p4948
aS'utopia'
p4949
aS'#02304b'
p4950
aF11.8479
aI1
aI01
aI00
aI00
aI00
aI00
aI00
aI00
aI00
aa(lp4951
I234378
aF74.2307
aF296.634
aVp4
p4952
aS'utopia'
p4953
aS'#02304b'
p4954
aF11.8479
aI1
aI01
aI00
aI00
aI00
aI00
aI00
aI00
aI00
aa(lp4955
I7520
aF49.0539
aF320.946
aVp4
p4956
aS'utopia'
p4957
aS'#656565'
p4958
aF10.3669
aI1
aI01
aI00
aI00
aI00
aI00
aI00
aI00
aI00
aa(lp4959
I10865
aF93.4836
aF320.946
aVp4
p4960
aS'utopia'
p4961
aS'#656565'
p4962
aF10.3669
aI1
aI01
aI00
aI00
aI00
aI00
aI00
aI00
aI00
aa(lp4963
I132955
aF49.0539
aF336.603
aVp4
p4964
aS'utopia'
p4965
aS'#656565'
p4966
aF8.88595
aI0
aI01
aI00
aI00
aI00
aI00
aI00
aI00
aI00
aa(lp4967
I144489
aF69.7878
aF336.603
aVp4
p4968
aS'utopia'
p4969
aS'#656565'
p4970
aF8.88595
aI0
aI00
aI00
aI00
aI00
aI00
aI00
aI00
aI00
aa(lp4971
I132529
aF80.1547
aF336.603
aVp4
p4972
aS'utopia'
p4973
aS'#656565'
p4974
aF8.88595
aI0
aI01
aI00
aI00
aI00
aI00
aI00
aI00
aI00
aa(lp4975
I234378
aF98.76336666666667
aF336.603
ag4972
aS'utopia'
p4976
aS'#656565'
p4977
aF8.88595
aI0
aI00
aI00
aI00
aI00
aI00
aI00
aI00
aI00
aa(lp4978
I234378
aF104.591
aF336.603
aVp4
p4979
aS'utopia'
p4980
aS'#434343'
p4981
aF8.88595
aI0
aI00
aI00
aI01
aI01
aI01
aI00
aI00
aI00
aa(lp4982
I61519
aF115.699
aF336.603
aVp4
p4983
aS'utopia'
p4984
aS'#434343'
p4985
aF8.88595
aI0
aI01
aI00
aI00
aI00
aI00
aI00
aI00
aI01
aa(lp4986
I234378
aF130.508
aF336.603
aVp4
p4987
aS'utopia'
p4988
aS'#434343'
p4989
aF8.88595
aI0
aI00
aI00
aI01
aI01
aI01
aI00
aI00
aI00
aa(lp4990
I108944
aF49.0539
aF352.154
aVp4
p4991
aS'utopia'
p4992
aS'#656565'
p4993
aF8.88595
aI0
aI01
aI00
aI00
aI00
aI00
aI00
aI00
aI00
aa(lp4994
I234378
aF76.44544285714287
aF352.154
ag4991
aS'utopia'
p4995
aS'#656565'
p4996
aF8.88595
aI0
aI00
aI00
aI00
aI00
aI00
aI00
aI00
aI00
aa(lp4997
I104428
aF83.1167
aF352.154
aVp4
p4998
aS'utopia'
p4999
aS'#434343'
p5000
aF8.88595
aI0
aI01
aI00
aI00
aI00
aI00
aI00
aI00
aI00
aa(lp5001
I212271
aF49.0539
aF367.704
aVp4
p5002
aS'utopia'
p5003
aS'#656565'
p5004
aF8.88595
aI0
aI01
aI00
aI00
aI00
aI00
aI00
aI00
aI00
aa(lp5005
I12510
aF79.4142
aF367.704
aVp4
p5006
aS'utopia'
p5007
aS'#656565'
p5008
aF8.88595
aI0
aI01
aI00
aI00
aI00
aI00
aI00
aI00
aI00
aa(lp5009
I234378
aF101.72811428571428
aF367.704
ag5006
aS'utopia'
p5010
aS'#656565'
p5011
aF8.88595
aI0
aI00
aI00
aI00
aI00
aI00
aI00
aI00
aI00
aa(lp5012
I97834
aF107.553
aF367.704
aVp4
p5013
aS'utopia'
p5014
aS'#434343'
p5015
aF8.88595
aI0
aI01
aI00
aI00
aI00
aI00
aI00
aI00
aI00
aa(lp5016
I118366
aF49.0539
aF387.591
aVp4
p5017
aS'utopia'
p5018
aS'#656565'
p5019
aF10.3669
aI1
aI01
aI00
aI00
aI00
aI00
aI00
aI00
aI00
aa(lp5020
I234378
aF83.97235
aF387.591
ag5017
aS'utopia'
p5021
aS'#656565'
p5022
aF10.3669
aI1
aI00
aI00
aI00
aI00
aI00
aI00
aI00
aI00
aa(lp5023
I234378
aF49.0539
aF400.286
aVp4
p5024
aS'utopia'
p5025
aS'#000000'
p5026
aF8.88595
aI0
aI00
aI00
aI01
aI01
aI01
aI00
aI00
aI00
aa(lp5027
I234378
aF60.1613
aF400.286
aVp4
p5028
aS'utopia'
p5029
aS'#000000'
p5030
aF8.88595
aI0
aI00
aI00
aI01
aI01
aI01
aI00
aI00
aI00
aa(lp5031
I234378
aF79.4142
aF400.286
aVp4
p5032
aS'utopia'
p5033
aS'#000000'
p5034
aF8.88595
aI0
aI00
aI00
aI00
aI00
aI00
aI00
aI00
aI00
aa(lp5035
I111618
aF89.0407
aF400.286
aVp4
p5036
aS'utopia'
p5037
aS'#000000'
p5038
aF8.88595
aI0
aI00
aI00
aI00
aI00
aI00
aI00
aI00
aI00
aa(lp5039
I234378
aF49.0539
aF410.653
aVp4
p5040
aS'utopia'
p5041
aS'#000000'
p5042
aF8.88595
aI0
aI00
aI00
aI01
aI01
aI01
aI00
aI00
aI00
aa(lp5043
I182663
aF49.0539
aF423.982
aVp4
p5044
aS'utopia'
p5045
aS'#656565'
p5046
aF8.88595
aI0
aI01
aI00
aI00
aI00
aI00
aI00
aI00
aI00
aa(lp5047
I82279
aF76.4522
aF423.982
aVp4
p5048
aS'utopia'
p5049
aS'#656565'
p5050
aF8.88595
aI0
aI01
aI00
aI00
aI00
aI00
aI00
aI00
aI00
aa(lp5051
I234378
aF96.09372
aF423.982
ag5048
aS'utopia'
p5052
aS'#656565'
p5053
aF8.88595
aI0
aI00
aI00
aI00
aI00
aI00
aI00
aI00
aI00
aa(lp5054
I234378
aF103.11
aF423.982
aVp4
p5055
aS'utopia'
p5056
aS'#000000'
p5057
aF8.88595
aI0
aI01
aI00
aI00
aI00
aI00
aI00
aI00
aI00
aa(lp5058
I86794
aF292.677
aF324.649
aVp4
p5059
aS'utopia'
p5060
aS'#656565'
p5061
aF10.3669
aI1
aI01
aI00
aI00
aI00
aI00
aI00
aI00
aI00
aa(lp5062
I131455
aF331.183
aF324.649
aVp4
p5063
aS'utopia'
p5064
aS'#656565'
p5065
aF10.3669
aI1
aI01
aI00
aI00
aI00
aI00
aI00
aI00
aI00
aa(lp5066
I234378
aF348.955
aF324.649
aVp4
p5067
aS'utopia'
p5068
aS'#656565'
p5069
aF10.3669
aI1
aI01
aI00
aI00
aI00
aI00
aI00
aI00
aI00
aa(lp5070
I131455
aF292.677
aF340.306
aVp4
p5071
aS'utopia'
p5072
aS'#656565'
p5073
aF8.88595
aI0
aI01
aI00
aI00
aI00
aI00
aI00
aI00
aI00
aa(lp5074
I197416
aF308.227
aF340.306
aVp4
p5075
aS'utopia'
p5076
aS'#656565'
p5077
aF8.88595
aI0
aI01
aI00
aI00
aI00
aI00
aI00
aI00
aI00
aa(lp5078
I234378
aF325.49892
aF340.306
ag5075
aS'utopia'
p5079
aS'#656565'
p5080
aF8.88595
aI0
aI00
aI00
aI00
aI00
aI00
aI00
aI00
aI00
aa(lp5081
I28425
aF331.923
aF340.306
aVp4
p5082
aS'utopia'
p5083
aS'#434343'
p5084
aF8.88595
aI0
aI01
aI00
aI00
aI00
aI00
aI00
aI00
aI00
aa(lp5085
I72722
aF292.677
aF355.856
aVp4
p5086
aS'utopia'
p5087
aS'#656565'
p5088
aF8.88595
aI0
aI01
aI00
aI00
aI00
aI00
aI00
aI00
aI00
aa(lp5089
I12510
aF345.993
aF355.856
aVp4
p5090
aS'utopia'
p5091
aS'#656565'
p5092
aF8.88595
aI0
aI01
aI00
aI00
aI00
aI00
aI00
aI00
aI00
aa(lp5093
I234378
aF368.3069142857143
aF355.856
ag5090
aS'utopia'
p5094
aS'#656565'
p5095
aF8.88595
aI0
aI00
aI00
aI00
aI00
aI00
aI00
aI00
aI00
aa(lp5096
I60201
aF374.132
aF355.856
aVp4
p5097
aS'utopia'
p5098
aS'#434343'
p5099
aF8.88595
aI0
aI01
aI00
aI00
aI00
aI00
aI00
aI00
aI00
aa(lp5100
I230071
aF391.163
aF355.856
aVp4
p5101
aS'utopia'
p5102
aS'#434343'
p5103
aF8.88595
aI0
aI01
aI00
aI00
aI00
aI00
aI00
aI00
aI00
aa(lp5104
I51933
aF292.677
aF375.743
aVp4
p5105
aS'utopia'
p5106
aS'#656565'
p5107
aF10.3669
aI1
aI01
aI00
aI00
aI00
aI00
aI00
aI00
aI00
aa(lp5108
I62768
aF320.816
aF375.743
aVp4
p5109
aS'utopia'
p5110
aS'#656565'
p5111
aF10.3669
aI1
aI01
aI00
aI00
aI00
aI00
aI00
aI00
aI00
aa(lp5112
I31679
aF292.677
aF391.4
aVp4
p5113
aS'utopia'
p5114
aS'#656565'
p5115
aF8.88595
aI0
aI01
aI01
aI00
aI00
aI00
aI00
aI00
aI00
aa(lp5116
I51933
aF306.006
aF391.4
aVp4
p5117
aS'utopia'
p5118
aS'#656565'
p5119
aF8.88595
aI0
aI01
aI00
aI00
aI00
aI00
aI00
aI00
aI00
aa(lp5120
I12510
aF329.702
aF391.4
aVp4
p5121
aS'utopia'
p5122
aS'#656565'
p5123
aF8.88595
aI0
aI01
aI00
aI00
aI00
aI00
aI00
aI00
aI00
aa(lp5124
I234378
aF352.0159142857143
aF391.4
ag5121
aS'utopia'
p5125
aS'#656565'
p5126
aF8.88595
aI0
aI00
aI00
aI00
aI00
aI00
aI00
aI00
aI00
aa(lp5127
I109318
aF357.841
aF391.4
aVp4
p5128
aS'utopia'
p5129
aS'#434343'
p5130
aF8.88595
aI0
aI01
aI00
aI00
aI00
aI00
aI00
aI00
aI00
aa(lp5131
I234378
aF380.796
aF391.4
aVp4
p5132
aS'utopia'
p5133
aS'#434343'
p5134
aF8.88595
aI0
aI01
aI01
aI01
aI00
aI00
aI00
aI00
aI00
aa(lp5135
I222659
aF394.865
aF391.4
aVp4
p5136
aS'utopia'
p5137
aS'#434343'
p5138
aF8.88595
aI0
aI01
aI00
aI00
aI00
aI00
aI00
aI00
aI00
aa(lp5139
I234378
aF292.677
aF406.95
aVp4
p5140
aS'utopia'
p5141
aS'#656565'
p5142
aF8.88595
aI0
aI01
aI00
aI00
aI00
aI00
aI00
aI00
aI00
aa(lp5143
I234378
aF329.43552
aF406.95
ag5140
aS'utopia'
p5144
aS'#656565'
p5145
aF8.88595
aI0
aI00
aI00
aI00
aI00
aI00
aI00
aI00
aI00
aa(lp5146
I148968
aF335.626
aF406.95
aVp4
p5147
aS'utopia'
p5148
aS'#434343'
p5149
aF8.88595
aI0
aI01
aI00
aI00
aI00
aI00
aI00
aI00
aI00
aa(lp5150
I166771
aF292.677
aF426.837
aVp4
p5151
aS'utopia'
p5152
aS'#656565'
p5153
aF10.3669
aI1
aI01
aI00
aI00
aI00
aI00
aI00
aI00
aI00
aa(lp5154
I74833
aF348.955
aF426.837
aVp4
p5155
aS'utopia'
p5156
aS'#656565'
p5157
aF10.3669
aI1
aI01
aI00
aI00
aI00
aI00
aI00
aI00
aI00
aa(lp5158
I233758
aF292.677
aF442.494
aVp4
p5159
aS'utopia'
p5160
aS'#656565'
p5161
aF8.88595
aI0
aI01
aI00
aI00
aI00
aI00
aI00
aI00
aI00
aa(lp5162
I234378
aF326.3488222222222
aF442.494
ag5159
aS'utopia'
p5163
aS'#656565'
p5164
aF8.88595
aI0
aI00
aI00
aI00
aI00
aI00
aI00
aI00
aI00
aa(lp5165
I230332
aF332.664
aF442.494
aVp4
p5166
aS'utopia'
p5167
aS'#434343'
p5168
aF8.88595
aI0
aI01
aI00
aI00
aI00
aI00
aI00
aI00
aI00
aa(lp5169
I151511
aF292.677
aF458.045
aVp4
p5170
aS'utopia'
p5171
aS'#656565'
p5172
aF8.88595
aI0
aI01
aI00
aI00
aI00
aI00
aI00
aI00
aI00
aa(lp5173
I234378
aF333.404
aF458.045
aVp4
p5174
aS'utopia'
p5175
aS'#656565'
p5176
aF8.88595
aI0
aI01
aI00
aI00
aI00
aI00
aI00
aI00
aI00
aa(lp5177
I234378
aF375.2460909090909
aF458.045
ag5174
aS'utopia'
p5178
aS'#656565'
p5179
aF8.88595
aI0
aI00
aI00
aI00
aI00
aI00
aI00
aI00
aI00
aa(lp5180
I201816
aF381.537
aF458.045
aVp4
p5181
aS'utopia'
p5182
aS'#434343'
p5183
aF8.88595
aI0
aI01
aI00
aI00
aI00
aI00
aI00
aI00
aI00
aa(lp5184
I1
aI0
aI0
aI0
aI0
aI0
aI0
aI0
aI0
aI0
aI0
aI0
aI0
aI0
aI0
aI0
aI0
aI0
aI0
aI0
aI0
aI0
aI0
aI0
aI0
aI0
aI0
aI0
aI0
aI0
aI0
aI0
aI0
aI0
aI0
aI0
aI0
aI0
aI0
aI0
aI0
aI0
aI0
aI0
aI0
aI0
aI0
aI0
aI0
aI0
aI0
aI0
aI0
aI0
aI0
aI0
aI0
aI0
aI0
aI0
aI0
aI0
aI0
aI0
aI0
aI0
aI0
aI0
aI0
aI0
aI0
aI0
aI0
aI0
aI0
aI0
aI0
aI0
aI0
aI0
aI0
aI0
aI0
aI0
aI0
aI0
aI0
aI0
aI0
aI0
aI0
aI0
aI0
aI0
aI0
aI0
aI0
aI0
aI0
aI0
aI0
aI0
aI0
aI0
aI0
aI0
aI0
aI0
aI0
aI0
aI0
aI0
aI0
aI0
aI0
aI0
aI0
aI1
aI1
aI0
aI0
aI0
aI0
aI0
aI0
aI0
aI0
aI0
aI0
aI0
aI0
aI0
aI0
aI0
aI0
aI0
aI0
aI0
aI0
aI0
aI0
aI0
aI0
aI0
aI0
aI0
aI0
aI0
aI0
aI0
aI0
aI0
aI0
aI0
aI0
aI0
aI0
aI0
aI0
aI0
aI0
aI0
aI0
aI0
aI0
aI0
aI0
aI0
aI0
aI0
aI0
aI0
aI0
aI0
aI0
aI0
aI0
aI0
aI0
aI0
aI0
aI0
aI0
aI0
aI0
aI0
aI0
aI0
aI0
aI0
aI0
aI0
aI0
aI0
aI0
aI0
aI0
aI0
aI0
aI0
aI0
aI0
aI0
aI0
aI0
aI0
aI0
aI0
aI0
aI0
aI0
aI0
aI0
aI0
aI0
aI0
aI0
aI0
aI0
aI0
aI0
aI0
aI0
aI0
aI0
aI0
aI0
aI0
aI0
aI0
aI0
aI0
aI1
aI0
aI0
aI0
aI0
aI0
aI0
aI0
aI0
aI0
aI0
aI0
aI0
aI0
aI0
aI0
aI0
aI0
aI0
aI0
aI0
aI0
aI0
aI0
aI0
aI0
aI0
aI0
aI1
aI1
aI0
aI0
aI0
aI0
aI0
aI0
aI0
aI0
aI0
aI0
aI0
aI0
aI0
aI0
aI0
aI0
aI0
aI0
aI0
aI0
aI0
aI0
aI0
aI0
aI0
aI0
aI0
aI0
aI0
aI0
aI0
aI0
aI0
aI0
aI0
aI0
aI0
aI0
aI0
aI0
aI0
aI0
aI0
aI0
aI0
aI0
aI0
aI0
aI0
aI0
aI1
aI1
aI0
aI0
aI0
aI0
aI0
aI0
aI0
aI0
aI0
aI0
aI0
aI1
aI0
aI0
aI0
aI0
aI0
aI0
aI0
aI0
aI0
aI0
aI0
aI0
aI0
aI0
aI0
aI0
aI0
aI0
aI0
aI0
aI0
aI0
aI0
aI0
aI0
aI0
aI0
aI0
aI0
aI0
aI0
aI0
aI0
aI0
aI0
aI0
aI0
aI0
aI0
aI0
aI0
aI0
aI0
aI0
aI0
aI0
aI0
aI0
aI0
aI0
aI0
aI0
aI0
aI0
aI0
aI0
aI0
aI0
aI0
aI0
aI0
aI0
aI0
aI0
aI0
aI0
aI0
aI0
aI0
aI0
aI0
aI0
aI0
aI0
aI0
aI0
aI0
aI0
aI0
aI0
aI0
aI0
aI0
aI0
aI0
aI0
aI0
aI0
aI0
aI0
aI0
aI0
aI0
aI0
aI0
aI0
aI0
aI0
aI0
aI0
aI0
aI0
aI0
aI0
aI0
aI0
aI0
aI0
aI0
aI0
aI0
aI0
aI0
aI0
aI0
aI0
aI0
aI0
aI0
aI0
aI0
aI0
aI0
aI0
aI0
aI0
aI0
aI0
aI0
aI0
aI0
aI0
aI0
aI0
aI0
aI0
aI0
aI0
aI0
aI0
aI0
aI0
aI0
aI0
aI0
aI0
aI0
aI0
aI0
aI0
aI0
aI0
aI0
aI0
aI0
aI0
aI0
aI0
aI0
aI0
aI0
aI0
aI0
aI0
aI0
aI0
aI0
aI0
aI0
aI0
aI0
aI0
aI0
aI0
aI0
aI0
aI0
aI0
aI0
aI0
aI0
aI0
aI0
aI0
aI0
aI0
aI0
aI0
aI0
aI0
aI0
aI0
aI0
aI0
aI0
aI0
aI0
aI0
aI0
aI0
aI0
aI0
aI0
aI0
aI0
aI0
aI0
aI0
aI0
aI0
aI0
aI0
aI0
aI0
aI0
aI0
aI0
aI0
aI0
aI0
aI0
aI0
aI0
aI0
aI0
aI0
aI0
aI0
aI0
aI0
aI0
aI0
aI0
aI0
aI0
aI0
aI0
aI0
aI0
aI0
aI0
aI0
aI0
aI0
aI0
aI0
aI0
aI0
aI0
aI0
aI0
aI0
aI0
aI0
aI0
aI0
aI0
aI0
aI0
aI0
aI0
aI0
aI0
aI0
aI0
aI0
aI0
aI0
aI0
aI0
aI0
aI0
aI0
aI0
aI0
aI0
aI0
aI0
aI0
aI0
aI0
aI0
aI0
aI0
aI0
aI0
aI0
aI0
aI0
aI0
aI0
aI0
aI0
aI0
aI0
aI0
aI0
aI0
aI0
aI0
aI0
aI0
aI0
aI0
aI0
aI0
aI0
aI0
aI0
aI0
aI0
aI0
aI0
aI0
aI0
aI0
aI0
aI0
aI0
aI0
aI0
aI0
aI0
aI0
aI0
aI0
aI0
aI0
aI0
aI0
aI0
aI0
aI0
aI0
aI0
aI0
aI0
aI0
aI0
aI0
aI0
aI0
aI0
aI0
aI0
aI0
aI0
aI0
aI0
aI0
aI0
aI0
aI0
aI0
aI0
aI0
aI0
aI0
aI0
aI0
aI0
aI0
aI0
aI0
aI0
aI0
aI0
aI0
aI0
aI0
aI0
aI0
aI0
aI0
aI0
aI0
aI0
aI0
aI0
aI0
aI0
aI0
aI0
aI0
aI0
aI0
aI0
aI0
aI0
aI0
aI0
aI0
aI0
aI0
aI0
aI0
aI0
aI0
aI0
aI0
aI0
aI0
aI0
aI0
aI0
aI0
aI0
aI0
aI0
aI0
aI0
aI0
aI0
aI0
aI0
aI0
aI0
aI0
aI0
aI0
aI0
aI0
aI0
aI0
aI0
aI0
aI0
aI0
aI0
aI0
aI0
aI0
aI0
aI0
aI0
aI0
aI0
aI0
aI0
aI0
aI0
aI0
aI0
aI0
aI0
aI0
aI0
aI0
aI0
aI0
aI0
aI0
aI0
aI0
aI0
aI0
aI0
aI0
aI0
aI0
aI0
aI0
aI0
aI0
aI0
aI0
aI0
aI0
aI0
aI0
aI0
aI0
aI0
aI0
aI0
aI0
aI0
aI0
aI0
aI0
aI0
aI0
aI0
aI0
aI0
aI0
aI0
aI0
aI0
aI0
aI0
aI0
aI0
aI0
aI0
aI0
aI0
aI0
aI0
aI0
aI0
aI0
aI0
aI0
aI0
aI0
aI0
aI0
aI0
aI0
aI0
aI0
aI0
aI0
aI0
aI0
aI0
aI0
aI0
aI0
aI0
aI0
aI0
aI0
aI0
aI0
aI0
aI0
aI0
aI0
aI0
aI0
aI0
aI0
aI0
aI0
aI0
aI0
aI0
aI0
aI0
aI0
aI0
aI0
aI0
aI0
aI0
aI0
aI0
aI0
aI0
aI0
aI0
aI0
aI0
aI0
aI0
aI0
aI0
aI0
aI0
aI0
aI0
aI0
aI0
aI0
aI0
aI0
aI0
aI0
aI0
aI0
aI0
aI0
aI0
aI0
aI0
aI0
aI0
aI0
aI0
aI0
aI0
aI0
aI0
aI0
aI0
aI0
aI0
aI0
aI0
aI0
aI0
aI0
aI0
aI0
aI0
aI0
aI0
aI0
aI0
aI0
aI0
aI0
aI0
aI0
aI0
aI0
aI0
aI0
aI0
aI0
aI0
aI0
aI0
aI0
aI0
aI0
aI0
aI0
aI0
aI0
aI0
aI0
aI0
aI0
aI0
aI0
aI0
aI0
aI0
aI0
aI0
aI0
aI0
aI0
aI0
aI0
aI0
aI0
aI0
aI0
aI0
aI0
aI0
aI0
aI0
aI0
aI0
aI0
aI0
aI0
aI0
aI0
aI0
aI0
aI0
aI0
aI0
aI0
aI0
aI0
aI0
aI0
aI0
aI0
aI0
aI0
aI0
aI0
aI0
aI0
aI0
aI0
aI0
aI0
aI0
aI0
aI0
aI0
aI0
aI0
aI0
aI0
aI0
aI0
aI0
aI0
aI0
aI0
aI0
aI0
aI0
aI0
aI0
aI0
aI0
aI0
aI0
aI0
aI0
aI0
aI0
aI0
aI0
aI0
aI0
aI0
aI0
aI0
aI0
aI0
aI0
aI0
aI0
aI0
aI0
aI0
aI0
aI0
aI0
aI0
aI0
aI0
aI0
aI0
aI0
aI0
aI0
aI0
aI0
aI0
aI0
aI0
aI0
aI0
aI0
aI0
aI0
aI0
aI0
aI0
aI0
aI0
aI0
aI0
aI0
aI0
aI0
aI0
aI0
aI0
aI0
aI0
aI0
aI0
aI0
aI0
aI0
aI0
aI0
aI0
aI0
aI0
aI0
aI0
aI0
aI0
aI0
aI0
aI0
aI0
aI0
aI0
aI0
aI0
aI0
aI0
aI0
aI0
aI0
aI0
aI0
aI0
aI0
aI0
aI0
aI0
aI0
aI0
aI0
aI0
aI0
aI0
aI0
aI0
aI0
aI0
aI0
aI0
aI0
aI0
aI0
aI0
aI0
aI0
aI0
aI0
aI0
aI0
aI0
aI0
aI0
aI0
aI0
aI0
aI0
aI0
aI0
aI0
aI0
aI0
aI0
aI0
aI0
aI0
aI0
aI0
aI0
aI0
aI0
aI0
aI0
aI0
aI0
aI0
aI0
aI0
aI0
aI0
aI0
aI0
aI0
aI0
aI0
aI0
aI0
aI0
aI0
aI0
aI0
aI0
aI0
aI0
aI0
aI0
aI0
aI0
aI0
aI0
aI0
aI0
aI0
aI0
aI0
aI0
aI0
aI0
aI0
aI0
aI0
aI0
aI0
aI0
aI0
aI0
aI0
aI0
aI0
aI0
aI0
aI0
aI0
aI0
aI0
aI0
aI0
aI0
aI0
aI0
aI0
aI0
aI0
aI0
aI0
aI0
aI0
aI0
aI0
aI0
aI0
aI0
aI0
aI0
aI0
aI0
aI0
aI0
aI0
aI0
aI0
aI0
aI0
aI0
aI0
aI0
aI0
aI0
aI0
aI0
aI0
aI0
aI0
aI0
aI0
aI0
aI0
aI0
aI0
aI0
aI0
aI0
aI0
aI0
aI0
aI0
aI0
aI0
aI0
aI0
aI0
aI0
aI0
aI0
aI0
aI0
aI0
aI0
aI0
aI0
aI0
aI0
aI0
aI0
aI0
aI0
aI0
aI0
aI0
aI1
aI1
aI0
aI0
aI0
aI0
aI0
aI0
aI0
aI0
aI0
aI0
aI0
aI0
aI0
aI0
aI0
aI0
aI0
aI0
aI0
aI0
aI0
aI0
aI0
aI0
aI0
aI0
aI0
aI0
aI0
aI0
aI0
aI0
aI0
aI0
aI0
aI0
aI0
aI0
aI0
aI0
aI0
aI0
aI0
aI0
aI0
aI0
aI0
aI0
aI0
aI0
aI0
aI0
aI0
aI0
aI0
aI0
aI0
aI0
aI0
aI0
atp5185
.