((lp0
(lp1
I234378
aF40.9084
aF53.0111
aVp1
p2
aS'utopia'
p3
aS'#02304b'
p4
aF11.8479
aI1
aI01
aI00
aI00
aI00
aI00
aI00
aI00
aI00
aa(lp5
I234378
aF85.3382
aF53.0111
aVp1
p6
aS'utopia'
p7
aS'#02304b'
p8
aF11.8479
aI1
aI01
aI00
aI00
aI00
aI00
aI00
aI00
aI00
aa(lp9
I54866
aF46.8324
aF74.4677
aVp1
p10
aS'utopia'
p11
aS'#656565'
p12
aF8.88595
aI0
aI01
aI00
aI00
aI00
aI00
aI00
aI00
aI00
aa(lp13
I234378
aF68.3068
aF74.4677
aVp1
p14
aS'utopia'
p15
aS'#656565'
p16
aF8.88595
aI0
aI00
aI00
aI01
aI01
aI01
aI00
aI00
aI00
aa(lp17
I234378
aF79.4142
aF74.4677
aVp1
p18
aS'utopia'
p19
aS'#656565'
p20
aF8.88595
aI0
aI00
aI00
aI00
aI00
aI00
aI00
aI00
aI00
aa(lp21
I144489
aF102.37
aF74.4677
aVp1
p22
aS'utopia'
p23
aS'#656565'
p24
aF8.88595
aI0
aI00
aI00
aI00
aI00
aI00
aI00
aI00
aI00
aa(lp25
I60220
aF112.737
aF74.4677
aVp1
p26
aS'utopia'
p27
aS'#656565'
p28
aF8.88595
aI0
aI00
aI00
aI00
aI00
aI00
aI00
aI00
aI00
aa(lp29
I135639
aF157.907
aF74.4677
aVp1
p30
aS'utopia'
p31
aS'#656565'
p32
aF8.88595
aI0
aI00
aI00
aI00
aI00
aI00
aI00
aI00
aI00
aa(lp33
I234378
aF167.533
aF74.4677
aVp1
p34
aS'utopia'
p35
aS'#656565'
p36
aF8.88595
aI0
aI00
aI00
aI00
aI00
aI00
aI00
aI00
aI00
aa(lp37
I17350
aF212.703
aF74.4677
aVp1
p38
aS'utopia'
p39
aS'#656565'
p40
aF8.88595
aI0
aI01
aI00
aI00
aI00
aI00
aI00
aI00
aI00
aa(lp41
I143195
aF240.842
aF74.4677
aVp1
p42
aS'utopia'
p43
aS'#656565'
p44
aF8.88595
aI0
aI01
aI00
aI00
aI00
aI00
aI00
aI00
aI00
aa(lp45
I234378
aF283.791
aF74.4677
aVp1
p46
aS'utopia'
p47
aS'#656565'
p48
aF8.88595
aI0
aI00
aI00
aI00
aI00
aI00
aI00
aI00
aI00
aa(lp49
I234378
aF329.69441538461535
aF74.4677
ag46
aS'utopia'
p50
aS'#656565'
p51
aF8.88595
aI0
aI00
aI00
aI00
aI00
aI00
aI00
aI00
aI00
aa(lp52
I234378
aF335.626
aF74.4677
aVp1
p53
aS'utopia'
p54
aS'#656565'
p55
aF8.88595
aI0
aI01
aI00
aI00
aI00
aI00
aI00
aI00
aI00
aa(lp56
I144483
aF363.765
aF74.4677
aVp1
p57
aS'utopia'
p58
aS'#656565'
p59
aF8.88595
aI0
aI00
aI00
aI00
aI00
aI00
aI00
aI00
aI00
aa(lp60
I60220
aF376.353
aF74.4677
aVp1
p61
aS'utopia'
p62
aS'#656565'
p63
aF8.88595
aI0
aI00
aI00
aI00
aI00
aI00
aI00
aI00
aI00
aa(lp64
I135639
aF421.523
aF74.4677
aVp1
p65
aS'utopia'
p66
aS'#656565'
p67
aF8.88595
aI0
aI00
aI00
aI00
aI00
aI00
aI00
aI00
aI00
aa(lp68
I234378
aF40.9084
aF84.8346
aVp1
p69
aS'utopia'
p70
aS'#656565'
p71
aF8.88595
aI0
aI01
aI00
aI00
aI00
aI00
aI00
aI00
aI00
aa(lp72
I234378
aF86.33068
aF84.8346
ag69
aS'utopia'
p73
aS'#656565'
p74
aF8.88595
aI0
aI00
aI00
aI00
aI00
aI00
aI00
aI00
aI00
aa(lp75
I234378
aF93.4836
aF84.8346
aVp1
p76
aS'utopia'
p77
aS'#656565'
p78
aF8.88595
aI0
aI01
aI01
aI00
aI00
aI00
aI00
aI00
aI00
aa(lp79
I234378
aF122.363
aF84.8346
aVp1
p80
aS'utopia'
p81
aS'#656565'
p82
aF8.88595
aI0
aI01
aI01
aI00
aI00
aI00
aI00
aI00
aI00
aa(lp83
I234378
aF144.578
aF84.8346
aVp1
p84
aS'utopia'
p85
aS'#656565'
p86
aF8.88595
aI0
aI00
aI00
aI00
aI00
aI00
aI00
aI00
aI00
aa(lp87
I234378
aF176.427825
aF84.8346
ag84
aS'utopia'
p88
aS'#656565'
p89
aF8.88595
aI0
aI00
aI00
aI00
aI00
aI00
aI00
aI00
aI00
aa(lp90
I185159
aF183.084
aF84.8346
aVp1
p91
aS'utopia'
p92
aS'#656565'
p93
aF8.88595
aI0
aI01
aI00
aI00
aI00
aI00
aI00
aI00
aI00
aa(lp94
I135639
aF211.222
aF84.8346
aVp1
p95
aS'utopia'
p96
aS'#656565'
p97
aF8.88595
aI0
aI00
aI00
aI00
aI00
aI00
aI00
aI00
aI00
aa(lp98
I132957
aF220.849
aF84.8346
aVp1
p99
aS'utopia'
p100
aS'#656565'
p101
aF8.88595
aI0
aI01
aI00
aI00
aI00
aI00
aI00
aI00
aI00
aa(lp102
I234378
aF241.583
aF84.8346
aVp1
p103
aS'utopia'
p104
aS'#656565'
p105
aF8.88595
aI0
aI01
aI00
aI00
aI00
aI00
aI00
aI00
aI00
aa(lp106
I85218
aF284.532
aF84.8346
aVp1
p107
aS'utopia'
p108
aS'#656565'
p109
aF8.88595
aI0
aI00
aI00
aI00
aI00
aI00
aI00
aI00
aI00
aa(lp110
I234378
aF301.563
aF84.8346
aVp1
p111
aS'utopia'
p112
aS'#656565'
p113
aF8.88595
aI0
aI01
aI00
aI00
aI00
aI00
aI00
aI00
aI00
aa(lp114
I234378
aF343.4050909090909
aF84.8346
ag111
aS'utopia'
p115
aS'#656565'
p116
aF8.88595
aI0
aI00
aI00
aI00
aI00
aI00
aI00
aI00
aI00
aa(lp117
I62551
aF349.695
aF84.8346
aVp1
p118
aS'utopia'
p119
aS'#656565'
p120
aF8.88595
aI0
aI01
aI00
aI00
aI00
aI00
aI00
aI00
aI00
aa(lp121
I39932
aF372.651
aF84.8346
aVp1
p122
aS'utopia'
p123
aS'#656565'
p124
aF8.88595
aI0
aI00
aI00
aI00
aI00
aI00
aI00
aI00
aI00
aa(lp125
I123583
aF394.125
aF84.8346
aVp1
p126
aS'utopia'
p127
aS'#656565'
p128
aF8.88595
aI0
aI00
aI00
aI00
aI00
aI00
aI00
aI00
aI00
aa(lp129
I16331
aF428.188
aF84.8346
aVp1
p130
aS'utopia'
p131
aS'#656565'
p132
aF8.88595
aI0
aI00
aI00
aI00
aI00
aI00
aI00
aI00
aI00
aa(lp133
I16329
aF438.555
aF84.8346
aVp1
p134
aS'utopia'
p135
aS'#656565'
p136
aF8.88595
aI0
aI00
aI00
aI00
aI00
aI00
aI00
aI00
aI00
aa(lp137
I217975
aF40.9084
aF95.2016
aVp1
p138
aS'utopia'
p139
aS'#656565'
p140
aF8.88595
aI0
aI01
aI00
aI00
aI00
aI00
aI00
aI00
aI00
aa(lp141
I190806
aF79.4142
aF95.2016
aVp1
p142
aS'utopia'
p143
aS'#656565'
p144
aF8.88595
aI0
aI00
aI00
aI00
aI00
aI00
aI00
aI00
aI00
aa(lp145
I54866
aF93.4836
aF95.2016
aVp1
p146
aS'utopia'
p147
aS'#656565'
p148
aF8.88595
aI0
aI00
aI00
aI00
aI00
aI00
aI00
aI00
aI00
aa(lp149
I234378
aF113.477
aF95.2016
aVp1
p150
aS'utopia'
p151
aS'#656565'
p152
aF8.88595
aI0
aI00
aI00
aI01
aI01
aI00
aI00
aI00
aI00
aa(lp153
I234378
aF120.141
aF95.2016
aVp1
p154
aS'utopia'
p155
aS'#656565'
p156
aF8.88595
aI0
aI00
aI00
aI00
aI00
aI00
aI00
aI00
aI00
aa(lp157
I234378
aF139.36675
aF95.2016
ag154
aS'utopia'
p158
aS'#656565'
p159
aF8.88595
aI0
aI00
aI00
aI00
aI00
aI00
aI00
aI00
aI00
aa(lp160
I234378
aF59.4208
aF124.081
aVp1
p161
aS'utopia'
p162
aS'#0d75b4'
p163
aF8.88595
aI0
aI00
aI00
aI00
aI00
aI00
aI01
aI00
aI00
aa(lp164
I234378
aF301.563
aF124.081
aVp1
p165
aS'utopia'
p166
aS'#000000'
p167
aF8.88595
aI0
aI00
aI00
aI01
aI01
aI01
aI00
aI00
aI00
aa(lp168
I15548
aF55.7183
aF158.884
aVp1
p169
aS'utopia'
p170
aS'#878787'
p171
aF8.88595
aI0
aI01
aI00
aI00
aI00
aI00
aI00
aI00
aI00
aa(lp172
I104542
aF89.0407
aF158.884
aVp1
p173
aS'utopia'
p174
aS'#878787'
p175
aF8.88595
aI0
aI01
aI00
aI00
aI00
aI00
aI00
aI00
aI00
aa(lp176
I234378
aF133.94655
aF158.884
ag173
aS'utopia'
p177
aS'#878787'
p178
aF8.88595
aI0
aI00
aI00
aI00
aI00
aI00
aI00
aI00
aI00
aa(lp179
I55966
aF142.356
aF158.884
aVp1
p180
aS'utopia'
p181
aS'#000000'
p182
aF8.88595
aI0
aI01
aI00
aI00
aI00
aI00
aI00
aI00
aI00
aa(lp183
I234378
aF169.755
aF158.884
aVp1
p184
aS'utopia'
p185
aS'#000000'
p186
aF8.88595
aI0
aI01
aI00
aI00
aI00
aI00
aI00
aI00
aI00
aa(lp187
I132100
aF206.779
aF158.884
aVp1
p188
aS'utopia'
p189
aS'#000000'
p190
aF8.88595
aI0
aI01
aI00
aI00
aI00
aI00
aI00
aI00
aI00
aa(lp191
I16915
aF308.227
aF158.884
aVp1
p192
aS'utopia'
p193
aS'#878787'
p194
aF8.88595
aI0
aI01
aI00
aI00
aI00
aI00
aI00
aI00
aI00
aa(lp195
I60220
aF330.442
aF158.884
aVp1
p196
aS'utopia'
p197
aS'#878787'
p198
aF8.88595
aI0
aI01
aI00
aI00
aI00
aI00
aI00
aI00
aI00
aa(lp199
I234378
aF372.28409090909093
aF158.884
ag196
aS'utopia'
p200
aS'#878787'
p201
aF8.88595
aI0
aI00
aI00
aI00
aI00
aI00
aI00
aI00
aI00
aa(lp202
I234378
aF380.796
aF158.884
aVp1
p203
aS'utopia'
p204
aS'#000000'
p205
aF8.88595
aI0
aI00
aI00
aI01
aI01
aI01
aI00
aI00
aI00
aa(lp206
I91136
aF391.903
aF158.884
aVp1
p207
aS'utopia'
p208
aS'#000000'
p209
aF8.88595
aI0
aI01
aI00
aI00
aI00
aI00
aI00
aI00
aI00
aa(lp210
I234378
aF407.6286
aF158.884
ag207
aS'utopia'
p211
aS'#000000'
p212
aF8.88595
aI0
aI00
aI00
aI00
aI00
aI00
aI00
aI00
aI00
aa(lp213
I59734
aF411.56
aF158.884
ag207
aS'utopia'
p214
aS'#000000'
p215
aF8.88595
aI0
aI00
aI00
aI00
aI00
aI00
aI00
aI00
aI00
aa(lp216
I234378
aF415.4914
aF158.884
ag207
aS'utopia'
p217
aS'#000000'
p218
aF8.88595
aI0
aI00
aI00
aI00
aI00
aI00
aI00
aI00
aI00
aa(lp219
I234378
aF421.523
aF158.884
aVp1
p220
aS'utopia'
p221
aS'#000000'
p222
aF8.88595
aI0
aI00
aI00
aI01
aI01
aI00
aI00
aI00
aI00
aa(lp223
I63729
aF428.188
aF158.884
aVp1
p224
aS'utopia'
p225
aS'#000000'
p226
aF8.88595
aI0
aI01
aI00
aI00
aI00
aI00
aI00
aI00
aI00
aa(lp227
I234378
aF450.9415625
aF158.884
ag224
aS'utopia'
p228
aS'#000000'
p229
aF8.88595
aI0
aI00
aI00
aI00
aI00
aI00
aI00
aI00
aI00
aa(lp230
I59734
aF455.49227499999995
aF158.884
ag224
aS'utopia'
p231
aS'#000000'
p232
aF8.88595
aI0
aI00
aI00
aI00
aI00
aI00
aI00
aI00
aI00
aa(lp233
I234378
aF460.0429874999999
aF158.884
ag224
aS'utopia'
p234
aS'#000000'
p235
aF8.88595
aI0
aI00
aI00
aI00
aI00
aI00
aI00
aI00
aI00
aa(lp236
I15548
aF55.7183
aF176.656
aVp1
p237
aS'utopia'
p238
aS'#878787'
p239
aF8.88595
aI0
aI01
aI00
aI00
aI00
aI00
aI00
aI00
aI00
aa(lp240
I2006
aF89.0407
aF176.656
aVp1
p241
aS'utopia'
p242
aS'#878787'
p243
aF8.88595
aI0
aI01
aI00
aI00
aI00
aI00
aI00
aI00
aI00
aa(lp244
I234378
aF124.77815
aF176.656
ag241
aS'utopia'
p245
aS'#878787'
p246
aF8.88595
aI0
aI00
aI00
aI00
aI00
aI00
aI00
aI00
aI00
aa(lp247
I138204
aF134.211
aF176.656
aVp1
p248
aS'utopia'
p249
aS'#000000'
p250
aF8.88595
aI0
aI01
aI01
aI00
aI00
aI00
aI00
aI00
aI00
aa(lp251
I198119
aF148.28
aF176.656
aVp1
p252
aS'utopia'
p253
aS'#000000'
p254
aF8.88595
aI0
aI01
aI00
aI00
aI00
aI00
aI00
aI00
aI00
aa(lp255
I229300
aF308.227
aF176.656
aVp1
p256
aS'utopia'
p257
aS'#878787'
p258
aF8.88595
aI0
aI01
aI00
aI00
aI00
aI00
aI00
aI00
aI00
aa(lp259
I78894
aF338.588
aF176.656
aVp1
p260
aS'utopia'
p261
aS'#878787'
p262
aF8.88595
aI0
aI01
aI00
aI00
aI00
aI00
aI00
aI00
aI00
aa(lp263
I234378
aF360.9019142857143
aF176.656
ag260
aS'utopia'
p264
aS'#878787'
p265
aF8.88595
aI0
aI00
aI00
aI00
aI00
aI00
aI00
aI00
aI00
aa(lp266
I234378
aF368.948
aF176.656
aVp1
p267
aS'utopia'
p268
aS'#000000'
p269
aF8.88595
aI0
aI01
aI00
aI00
aI00
aI00
aI00
aI00
aI00
aa(lp270
I234378
aF380.796
aF176.656
aVp1
p271
aS'utopia'
p272
aS'#000000'
p273
aF8.88595
aI0
aI00
aI00
aI01
aI01
aI01
aI00
aI00
aI00
aa(lp274
I234378
aF391.903
aF176.656
aVp1
p275
aS'utopia'
p276
aS'#000000'
p277
aF8.88595
aI0
aI01
aI00
aI00
aI00
aI00
aI00
aI00
aI00
aa(lp278
I15548
aF55.7183
aF194.428
aVp1
p279
aS'utopia'
p280
aS'#878787'
p281
aF8.88595
aI0
aI01
aI00
aI00
aI00
aI00
aI00
aI00
aI00
aa(lp282
I17057
aF89.0407
aF194.428
aVp1
p283
aS'utopia'
p284
aS'#878787'
p285
aF8.88595
aI0
aI01
aI00
aI00
aI00
aI00
aI00
aI00
aI00
aa(lp286
I234378
aF122.05430000000001
aF194.428
ag283
aS'utopia'
p287
aS'#878787'
p288
aF8.88595
aI0
aI00
aI00
aI00
aI00
aI00
aI00
aI00
aI00
aa(lp289
I234378
aF130.508
aF194.428
aVp1
p290
aS'utopia'
p291
aS'#000000'
p292
aF8.88595
aI0
aI01
aI00
aI00
aI00
aI00
aI00
aI00
aI00
aa(lp293
I234378
aF173.457
aF194.428
aVp1
p294
aS'utopia'
p295
aS'#000000'
p296
aF8.88595
aI0
aI00
aI00
aI00
aI00
aI00
aI00
aI00
aI00
aa(lp297
I234378
aF180.122
aF194.428
aVp1
p298
aS'utopia'
p299
aS'#000000'
p300
aF8.88595
aI0
aI01
aI00
aI00
aI00
aI00
aI00
aI00
aI00
aa(lp301
I234378
aF308.227
aF194.428
aVp1
p302
aS'utopia'
p303
aS'#878787'
p304
aF8.88595
aI0
aI01
aI00
aI00
aI00
aI00
aI00
aI00
aI00
aa(lp305
I234378
aF346.733
aF194.428
aVp1
p306
aS'utopia'
p307
aS'#878787'
p308
aF8.88595
aI0
aI01
aI01
aI00
aI00
aI00
aI00
aI00
aI00
aa(lp309
I234378
aF361.2593
aF194.428
ag306
aS'utopia'
p310
aS'#878787'
p311
aF8.88595
aI0
aI00
aI00
aI00
aI00
aI00
aI00
aI00
aI00
aa(lp312
I63091
aF370.429
aF194.428
aVp1
p313
aS'utopia'
p314
aS'#000000'
p315
aF8.88595
aI0
aI01
aI00
aI00
aI00
aI00
aI00
aI00
aI00
aa(lp316
I234378
aF387.46
aF194.428
aVp1
p317
aS'utopia'
p318
aS'#000000'
p319
aF8.88595
aI0
aI01
aI00
aI00
aI00
aI00
aI00
aI00
aI00
aa(lp320
I234378
aF55.7183
aF212.2
aVp1
p321
aS'utopia'
p322
aS'#878787'
p323
aF8.88595
aI0
aI01
aI00
aI00
aI00
aI00
aI00
aI00
aI00
aa(lp324
I234378
aF70.62062
aF212.2
ag321
aS'utopia'
p325
aS'#878787'
p326
aF8.88595
aI0
aI00
aI00
aI00
aI00
aI00
aI00
aI00
aI00
aa(lp327
I17057
aF76.4522
aF212.2
aVp1
p328
aS'utopia'
p329
aS'#878787'
p330
aF8.88595
aI0
aI01
aI00
aI00
aI00
aI00
aI00
aI00
aI00
aa(lp331
I234378
aF109.4658
aF212.2
ag328
aS'utopia'
p332
aS'#878787'
p333
aF8.88595
aI0
aI00
aI00
aI00
aI00
aI00
aI00
aI00
aI00
aa(lp334
I234378
aF117.92
aF212.2
aVp1
p335
aS'utopia'
p336
aS'#000000'
p337
aF8.88595
aI0
aI01
aI00
aI00
aI00
aI00
aI00
aI00
aI00
aa(lp338
I234378
aF160.869
aF212.2
aVp1
p339
aS'utopia'
p340
aS'#000000'
p341
aF8.88595
aI0
aI00
aI00
aI00
aI00
aI00
aI00
aI00
aI00
aa(lp342
I234378
aF167.533
aF212.2
aVp1
p343
aS'utopia'
p344
aS'#000000'
p345
aF8.88595
aI0
aI01
aI00
aI00
aI00
aI00
aI00
aI00
aI00
aa(lp346
I234378
aF205.62442
aF212.2
ag343
aS'utopia'
p347
aS'#000000'
p348
aF8.88595
aI0
aI00
aI00
aI00
aI00
aI00
aI00
aI00
aI00
aa(lp349
I234378
aF211.963
aF212.2
aVp1
p350
aS'utopia'
p351
aS'#000000'
p352
aF8.88595
aI0
aI01
aI00
aI00
aI00
aI00
aI00
aI00
aI00
aa(lp353
I234378
aF254.05311999999998
aF212.2
ag350
aS'utopia'
p354
aS'#000000'
p355
aF8.88595
aI0
aI00
aI00
aI00
aI00
aI00
aI00
aI00
aI00
aa(lp356
I234378
aF260.836
aF212.2
aVp1
p357
aS'utopia'
p358
aS'#000000'
p359
aF8.88595
aI0
aI01
aI00
aI00
aI00
aI00
aI00
aI00
aI00
aa(lp360
I7204
aF308.227
aF212.2
aVp1
p361
aS'utopia'
p362
aS'#878787'
p363
aF8.88595
aI0
aI01
aI00
aI00
aI00
aI00
aI00
aI00
aI00
aa(lp364
I189220
aF340.809
aF212.2
aVp1
p365
aS'utopia'
p366
aS'#878787'
p367
aF8.88595
aI0
aI01
aI00
aI00
aI00
aI00
aI00
aI00
aI00
aa(lp368
I234378
aF366.93111428571433
aF212.2
ag365
aS'utopia'
p369
aS'#878787'
p370
aF8.88595
aI0
aI00
aI00
aI00
aI00
aI00
aI00
aI00
aI00
aa(lp371
I27780
aF375.613
aF212.2
aVp1
p372
aS'utopia'
p373
aS'#000000'
p374
aF8.88595
aI0
aI01
aI01
aI00
aI00
aI00
aI00
aI00
aI00
aa(lp375
I234378
aF379.93184545454545
aF212.2
ag372
aS'utopia'
p376
aS'#000000'
p377
aF8.88595
aI0
aI00
aI00
aI00
aI00
aI00
aI00
aI00
aI00
aa(lp378
I2737
aF384.2506909090909
aF212.2
ag372
aS'utopia'
p379
aS'#000000'
p380
aF8.88595
aI0
aI01
aI00
aI00
aI00
aI00
aI00
aI00
aI00
aa(lp381
I234378
aF401.5260727272727
aF212.2
ag372
aS'utopia'
p382
aS'#000000'
p383
aF8.88595
aI0
aI00
aI00
aI00
aI00
aI00
aI00
aI00
aI00
aa(lp384
I27780
aF398.8449181818182
aF212.2
ag372
aS'utopia'
p385
aS'#000000'
p386
aF8.88595
aI0
aI01
aI01
aI00
aI00
aI00
aI00
aI00
aI00
aa(lp387
I234378
aF403.1637636363636
aF212.2
ag372
aS'utopia'
p388
aS'#000000'
p389
aF8.88595
aI0
aI00
aI00
aI00
aI00
aI00
aI00
aI00
aI00
aa(lp390
I64620
aF414.4826090909091
aF212.2
ag372
aS'utopia'
p391
aS'#000000'
p392
aF8.88595
aI0
aI01
aI01
aI00
aI00
aI00
aI00
aI00
aI00
aa(lp393
I234378
aF409.80145454545453
aF212.2
ag372
aS'utopia'
p394
aS'#000000'
p395
aF8.88595
aI0
aI00
aI00
aI00
aI00
aI00
aI00
aI00
aI00
aa(lp396
I98580
aF55.7183
aF229.972
aVp1
p397
aS'utopia'
p398
aS'#878787'
p399
aF8.88595
aI0
aI01
aI00
aI00
aI00
aI00
aI00
aI00
aI00
aa(lp400
I166289
aF100.148
aF229.972
aVp1
p401
aS'utopia'
p402
aS'#878787'
p403
aF8.88595
aI0
aI01
aI00
aI00
aI00
aI00
aI00
aI00
aI00
aa(lp404
I234378
aF116.82751999999999
aF229.972
ag401
aS'utopia'
p405
aS'#878787'
p406
aF8.88595
aI0
aI00
aI00
aI00
aI00
aI00
aI00
aI00
aI00
aa(lp407
I22476
aF125.325
aF229.972
aVp1
p408
aS'utopia'
p409
aS'#000000'
p410
aF8.88595
aI0
aI01
aI01
aI00
aI00
aI00
aI00
aI00
aI00
aa(lp411
I234378
aF135.692
aF229.972
aVp1
p412
aS'utopia'
p413
aS'#000000'
p414
aF8.88595
aI0
aI01
aI00
aI00
aI00
aI00
aI00
aI00
aI00
aa(lp415
I123665
aF178.641
aF229.972
aVp1
p416
aS'utopia'
p417
aS'#000000'
p418
aF8.88595
aI0
aI01
aI00
aI00
aI00
aI00
aI00
aI00
aI00
aa(lp419
I234378
aF226.032
aF229.972
aVp1
p420
aS'utopia'
p421
aS'#000000'
p422
aF8.88595
aI0
aI01
aI00
aI00
aI00
aI00
aI00
aI00
aI00
aa(lp423
I234378
aF283.051
aF229.972
aVp1
p424
aS'utopia'
p425
aS'#000000'
p426
aF8.88595
aI0
aI00
aI00
aI00
aI00
aI00
aI00
aI00
aI00
aa(lp427
I20593
aF55.7183
aF240.339
aVp1
p428
aS'utopia'
p429
aS'#000000'
p430
aF8.88595
aI0
aI01
aI00
aI00
aI00
aI00
aI00
aI00
aI00
aa(lp431
I48671
aF308.227
aF229.972
aVp1
p432
aS'utopia'
p433
aS'#878787'
p434
aF8.88595
aI0
aI01
aI00
aI00
aI00
aI00
aI00
aI00
aI00
aa(lp435
I129688
aF336.366
aF229.972
aVp1
p436
aS'utopia'
p437
aS'#878787'
p438
aF8.88595
aI0
aI00
aI00
aI00
aI00
aI00
aI00
aI00
aI00
aa(lp439
I234378
aF360.58405714285715
aF229.972
ag436
aS'utopia'
p440
aS'#878787'
p441
aF8.88595
aI0
aI00
aI00
aI00
aI00
aI00
aI00
aI00
aI00
aa(lp442
I234378
aF368.948
aF229.972
aVp1
p443
aS'utopia'
p444
aS'#000000'
p445
aF8.88595
aI0
aI00
aI00
aI01
aI01
aI00
aI00
aI00
aI00
aa(lp446
I234378
aF375.613
aF229.972
aVp1
p447
aS'utopia'
p448
aS'#000000'
p449
aF8.88595
aI0
aI01
aI00
aI00
aI00
aI00
aI00
aI00
aI00
aa(lp450
I176435
aF55.7183
aF258.111
aVp1
p451
aS'utopia'
p452
aS'#878787'
p453
aF8.88595
aI0
aI01
aI00
aI00
aI00
aI00
aI00
aI00
aI00
aa(lp454
I234378
aF71.80542
aF258.111
ag451
aS'utopia'
p455
aS'#878787'
p456
aF8.88595
aI0
aI00
aI00
aI00
aI00
aI00
aI00
aI00
aI00
aa(lp457
I210461
aF80.1547
aF258.111
aVp1
p458
aS'utopia'
p459
aS'#000000'
p460
aF8.88595
aI0
aI01
aI00
aI00
aI00
aI00
aI00
aI00
aI00
aa(lp461
I175409
aF104.591
aF258.111
aVp1
p462
aS'utopia'
p463
aS'#000000'
p464
aF8.88595
aI0
aI01
aI00
aI00
aI00
aI00
aI00
aI00
aI00
aa(lp465
I234378
aF123.75304444444444
aF258.111
ag462
aS'utopia'
p466
aS'#000000'
p467
aF8.88595
aI0
aI00
aI00
aI00
aI00
aI00
aI00
aI00
aI00
aa(lp468
I2737
aF128.54355555555554
aF258.111
ag462
aS'utopia'
p469
aS'#000000'
p470
aF8.88595
aI0
aI01
aI00
aI00
aI00
aI00
aI00
aI00
aI00
aa(lp471
I175409
aF149.761
aF258.111
aVp1
p472
aS'utopia'
p473
aS'#000000'
p474
aF8.88595
aI0
aI01
aI00
aI00
aI00
aI00
aI00
aI00
aI00
aa(lp475
I74589
aF55.7183
aF275.883
aVp1
p476
aS'utopia'
p477
aS'#878787'
p478
aF8.88595
aI0
aI01
aI00
aI00
aI00
aI00
aI00
aI00
aI00
aa(lp479
I234378
aF87.41545555555555
aF275.883
ag476
aS'utopia'
p480
aS'#878787'
p481
aF8.88595
aI0
aI00
aI00
aI00
aI00
aI00
aI00
aI00
aI00
aa(lp482
I22476
aF95.7051
aF275.883
aVp1
p483
aS'utopia'
p484
aS'#000000'
p485
aF8.88595
aI0
aI01
aI01
aI00
aI00
aI00
aI00
aI00
aI00
aa(lp486
I234378
aF105.30374
aF275.883
ag483
aS'utopia'
p487
aS'#000000'
p488
aF8.88595
aI0
aI01
aI00
aI00
aI00
aI00
aI00
aI00
aI00
aa(lp489
I234378
aF139.69830000000002
aF275.883
ag483
aS'utopia'
p490
aS'#000000'
p491
aF8.88595
aI0
aI00
aI00
aI00
aI00
aI00
aI00
aI00
aI00
aa(lp492
I234378
aF134.99762
aF275.883
ag483
aS'utopia'
p493
aS'#000000'
p494
aF8.88595
aI0
aI01
aI00
aI00
aI00
aI00
aI00
aI00
aI00
aa(lp495
I234378
aF183.824
aF275.883
aVp1
p496
aS'utopia'
p497
aS'#000000'
p498
aF8.88595
aI0
aI01
aI00
aI00
aI00
aI00
aI00
aI00
aI00
aa(lp499
I231013
aF55.7183
aF293.654
aVp1
p500
aS'utopia'
p501
aS'#878787'
p502
aF8.88595
aI0
aI01
aI00
aI00
aI00
aI00
aI00
aI00
aI00
aa(lp503
I234378
aF72.7498
aF293.654
aVp1
p504
aS'utopia'
p505
aS'#878787'
p506
aF8.88595
aI0
aI01
aI00
aI00
aI00
aI00
aI00
aI00
aI00
aa(lp507
I234378
aF91.25542857142857
aF293.654
ag504
aS'utopia'
p508
aS'#878787'
p509
aF8.88595
aI0
aI00
aI00
aI00
aI00
aI00
aI00
aI00
aI00
aa(lp510
I234378
aF98.6671
aF293.654
aVp1
p511
aS'utopia'
p512
aS'#000000'
p513
aF8.88595
aI0
aI01
aI00
aI00
aI00
aI00
aI00
aI00
aI00
aa(lp514
I234378
aF135.42562
aF293.654
ag511
aS'utopia'
p515
aS'#000000'
p516
aF8.88595
aI0
aI00
aI00
aI00
aI00
aI00
aI00
aI00
aI00
aa(lp517
I234378
aF141.616
aF293.654
aVp1
p518
aS'utopia'
p519
aS'#000000'
p520
aF8.88595
aI0
aI01
aI00
aI00
aI00
aI00
aI00
aI00
aI00
aa(lp521
I234378
aF178.7458181818182
aF293.654
ag518
aS'utopia'
p522
aS'#000000'
p523
aF8.88595
aI0
aI00
aI00
aI00
aI00
aI00
aI00
aI00
aI00
aa(lp524
I84662
aF184.565
aF293.654
aVp1
p525
aS'utopia'
p526
aS'#000000'
p527
aF8.88595
aI0
aI01
aI00
aI00
aI00
aI00
aI00
aI00
aI00
aa(lp528
I21716
aF206.039
aF293.654
aVp1
p529
aS'utopia'
p530
aS'#000000'
p531
aF8.88595
aI0
aI01
aI00
aI00
aI00
aI00
aI00
aI00
aI00
aa(lp532
I234378
aF220.94132
aF293.654
ag529
aS'utopia'
p533
aS'#000000'
p534
aF8.88595
aI0
aI00
aI00
aI00
aI00
aI00
aI00
aI00
aI00
aa(lp535
I234378
aF226.773
aF293.654
aVp1
p536
aS'utopia'
p537
aS'#000000'
p538
aF8.88595
aI0
aI01
aI00
aI00
aI00
aI00
aI00
aI00
aI00
aa(lp539
I234378
aF267.94190909090906
aF293.654
ag536
aS'utopia'
p540
aS'#000000'
p541
aF8.88595
aI0
aI00
aI00
aI00
aI00
aI00
aI00
aI00
aI00
aa(lp542
I234378
aF274.165
aF293.654
aVp1
p543
aS'utopia'
p544
aS'#000000'
p545
aF8.88595
aI0
aI01
aI00
aI00
aI00
aI00
aI00
aI00
aI00
aa(lp546
I234378
aF300.17858333333334
aF293.654
ag543
aS'utopia'
p547
aS'#000000'
p548
aF8.88595
aI0
aI00
aI00
aI00
aI00
aI00
aI00
aI00
aI00
aa(lp549
I218728
aF55.7183
aF304.021
aVp1
p550
aS'utopia'
p551
aS'#000000'
p552
aF8.88595
aI0
aI01
aI00
aI00
aI00
aI00
aI00
aI00
aI00
aa(lp553
I234378
aF70.62062
aF304.021
ag550
aS'utopia'
p554
aS'#000000'
p555
aF8.88595
aI0
aI00
aI00
aI00
aI00
aI00
aI00
aI00
aI00
aa(lp556
I234378
aF76.4522
aF304.021
aVp1
p557
aS'utopia'
p558
aS'#000000'
p559
aF8.88595
aI0
aI01
aI01
aI00
aI00
aI00
aI00
aI00
aI00
aa(lp560
I234378
aF91.53387500000001
aF304.021
ag557
aS'utopia'
p561
aS'#000000'
p562
aF8.88595
aI0
aI00
aI00
aI00
aI00
aI00
aI00
aI00
aI00
aa(lp563
I234378
aF98.6671
aF304.021
aVp1
p564
aS'utopia'
p565
aS'#000000'
p566
aF8.88595
aI0
aI00
aI00
aI00
aI00
aI00
aI00
aI00
aI00
aa(lp567
I234378
aF123.51987142857143
aF304.021
ag564
aS'utopia'
p568
aS'#000000'
p569
aF8.88595
aI0
aI00
aI00
aI00
aI00
aI00
aI00
aI00
aI00
aa(lp570
I234378
aF129.768
aF304.021
aVp1
p571
aS'utopia'
p572
aS'#000000'
p573
aF8.88595
aI0
aI01
aI01
aI01
aI00
aI00
aI00
aI00
aI00
aa(lp574
I234378
aF157.01575
aF304.021
ag571
aS'utopia'
p575
aS'#000000'
p576
aF8.88595
aI0
aI00
aI00
aI00
aI00
aI00
aI00
aI00
aI00
aa(lp577
I234378
aF164.571
aF304.021
aVp1
p578
aS'utopia'
p579
aS'#000000'
p580
aF8.88595
aI0
aI01
aI01
aI01
aI00
aI00
aI00
aI00
aI00
aa(lp581
I234378
aF181.84292
aF304.021
ag578
aS'utopia'
p582
aS'#000000'
p583
aF8.88595
aI0
aI00
aI00
aI00
aI00
aI00
aI00
aI00
aI00
aa(lp584
I136358
aF188.267
aF304.021
aVp1
p585
aS'utopia'
p586
aS'#000000'
p587
aF8.88595
aI0
aI01
aI00
aI00
aI00
aI00
aI00
aI00
aI00
aa(lp588
I234378
aF207.49275
aF304.021
ag585
aS'utopia'
p589
aS'#000000'
p590
aF8.88595
aI0
aI00
aI00
aI00
aI00
aI00
aI00
aI00
aI00
aa(lp591
I234378
aF213.444
aF304.021
aVp1
p592
aS'utopia'
p593
aS'#000000'
p594
aF8.88595
aI0
aI01
aI00
aI00
aI00
aI00
aI00
aI00
aI00
aa(lp595
I234378
aF260.0309538461538
aF304.021
ag592
aS'utopia'
p596
aS'#000000'
p597
aF8.88595
aI0
aI00
aI00
aI00
aI00
aI00
aI00
aI00
aI00
aa(lp598
I234378
aF266.019
aF304.021
aVp1
p599
aS'utopia'
p600
aS'#000000'
p601
aF8.88595
aI0
aI01
aI01
aI00
aI00
aI00
aI00
aI00
aI00
aa(lp602
I234378
aF279.989925
aF304.021
ag599
aS'utopia'
p603
aS'#000000'
p604
aF8.88595
aI0
aI00
aI00
aI00
aI00
aI00
aI00
aI00
aI00
aa(lp605
I25724
aF55.7183
aF314.388
aVp1
p606
aS'utopia'
p607
aS'#000000'
p608
aF8.88595
aI0
aI01
aI00
aI00
aI00
aI00
aI00
aI00
aI00
aa(lp609
I234378
aF93.14327
aF314.388
ag606
aS'utopia'
p610
aS'#000000'
p611
aF8.88595
aI0
aI00
aI00
aI00
aI00
aI00
aI00
aI00
aI00
aa(lp612
I114315
aF99.4076
aF314.388
aVp1
p613
aS'utopia'
p614
aS'#000000'
p615
aF8.88595
aI0
aI01
aI00
aI00
aI00
aI00
aI00
aI00
aI00
aa(lp616
I234378
aF140.875
aF314.388
aVp1
p617
aS'utopia'
p618
aS'#000000'
p619
aF8.88595
aI0
aI01
aI00
aI00
aI00
aI00
aI00
aI00
aI00
aa(lp620
I234378
aF178.00481818181817
aF314.388
ag617
aS'utopia'
p621
aS'#000000'
p622
aF8.88595
aI0
aI00
aI00
aI00
aI00
aI00
aI00
aI00
aI00
aa(lp623
I234378
aF183.824
aF314.388
aVp1
p624
aS'utopia'
p625
aS'#000000'
p626
aF8.88595
aI0
aI01
aI01
aI00
aI00
aI00
aI00
aI00
aI00
aa(lp627
I234378
aF202.28072
aF314.388
ag624
aS'utopia'
p628
aS'#000000'
p629
aF8.88595
aI0
aI00
aI00
aI00
aI00
aI00
aI00
aI00
aI00
aa(lp630
I176767
aF209.001
aF314.388
aVp1
p631
aS'utopia'
p632
aS'#000000'
p633
aF8.88595
aI0
aI01
aI00
aI00
aI00
aI00
aI00
aI00
aI00
aa(lp634
I234378
aF247.09242
aF314.388
ag631
aS'utopia'
p635
aS'#000000'
p636
aF8.88595
aI0
aI00
aI00
aI00
aI00
aI00
aI00
aI00
aI00
aa(lp637
I234378
aF253.431
aF314.388
aVp1
p638
aS'utopia'
p639
aS'#000000'
p640
aF8.88595
aI0
aI01
aI01
aI00
aI00
aI00
aI00
aI00
aI00
aa(lp641
I234378
aF269.06805
aF314.388
ag638
aS'utopia'
p642
aS'#000000'
p643
aF8.88595
aI0
aI00
aI00
aI00
aI00
aI00
aI00
aI00
aI00
aa(lp644
I151617
aF55.7183
aF324.755
aVp1
p645
aS'utopia'
p646
aS'#000000'
p647
aF8.88595
aI0
aI01
aI00
aI00
aI00
aI00
aI00
aI00
aI00
aa(lp648
I234378
aF86.9201875
aF324.755
ag645
aS'utopia'
p649
aS'#000000'
p650
aF8.88595
aI0
aI00
aI00
aI00
aI00
aI00
aI00
aI00
aI00
aa(lp651
I108765
aF93.4836
aF324.755
aVp1
p652
aS'utopia'
p653
aS'#000000'
p654
aF8.88595
aI0
aI01
aI00
aI00
aI00
aI00
aI00
aI00
aI00
aa(lp655
I234378
aF112.06015555555555
aF324.755
ag652
aS'utopia'
p656
aS'#000000'
p657
aF8.88595
aI0
aI00
aI00
aI00
aI00
aI00
aI00
aI00
aI00
aa(lp658
I234378
aF115.77546666666666
aF324.755
ag652
aS'utopia'
p659
aS'#000000'
p660
aF8.88595
aI0
aI01
aI00
aI00
aI00
aI00
aI00
aI00
aI00
aa(lp661
I234378
aF123.20608888888889
aF324.755
ag652
aS'utopia'
p662
aS'#000000'
p663
aF8.88595
aI0
aI00
aI00
aI00
aI00
aI00
aI00
aI00
aI00
aa(lp664
I158280
aF129.027
aF324.755
aVp1
p665
aS'utopia'
p666
aS'#000000'
p667
aF8.88595
aI0
aI01
aI00
aI00
aI00
aI00
aI00
aI00
aI00
aa(lp668
I234378
aF145.37564999999998
aF324.755
ag665
aS'utopia'
p669
aS'#000000'
p670
aF8.88595
aI0
aI00
aI00
aI00
aI00
aI00
aI00
aI00
aI00
aa(lp671
I234378
aF149.46281249999998
aF324.755
ag665
aS'utopia'
p672
aS'#000000'
p673
aF8.88595
aI0
aI01
aI00
aI00
aI00
aI00
aI00
aI00
aI00
aa(lp674
I234378
aF157.6371375
aF324.755
ag665
aS'utopia'
p675
aS'#000000'
p676
aF8.88595
aI0
aI00
aI00
aI00
aI00
aI00
aI00
aI00
aI00
aa(lp677
I174854
aF163.831
aF324.755
aVp1
p678
aS'utopia'
p679
aS'#000000'
p680
aF8.88595
aI0
aI01
aI00
aI00
aI00
aI00
aI00
aI00
aI00
aa(lp681
I234378
aF192.4411375
aF324.755
ag678
aS'utopia'
p682
aS'#000000'
p683
aF8.88595
aI0
aI00
aI00
aI00
aI00
aI00
aI00
aI00
aI00
aa(lp684
I36642
aF198.634
aF324.755
aVp1
p685
aS'utopia'
p686
aS'#000000'
p687
aF8.88595
aI0
aI01
aI00
aI00
aI00
aI00
aI00
aI00
aI00
aa(lp688
I46145
aF223.07
aF324.755
aVp1
p689
aS'utopia'
p690
aS'#000000'
p691
aF8.88595
aI0
aI01
aI00
aI00
aI00
aI00
aI00
aI00
aI00
aa(lp692
I51933
aF40.1679
aF361.798
aVp1
p693
aS'utopia'
p694
aS'#02304b'
p695
aF11.8479
aI1
aI01
aI00
aI00
aI00
aI00
aI00
aI00
aI00
aa(lp696
I60220
aF72.0093
aF361.798
aVp1
p697
aS'utopia'
p698
aS'#02304b'
p699
aF11.8479
aI1
aI01
aI00
aI00
aI00
aI00
aI00
aI00
aI00
aa(lp700
I138204
aF40.9084
aF393.515
aVp1
p701
aS'utopia'
p702
aS'#000000'
p703
aF10.3669
aI1
aI01
aI01
aI00
aI00
aI00
aI00
aI00
aI00
aa(lp704
I198119
aF57.1993
aF393.515
aVp1
p705
aS'utopia'
p706
aS'#000000'
p707
aF10.3669
aI1
aI01
aI00
aI00
aI00
aI00
aI00
aI00
aI00
aa(lp708
I234378
aF91.2621
aF393.784
aVp1
p709
aS'utopia'
p710
aS'#656565'
p711
aF10.3669
aI0
aI00
aI00
aI00
aI00
aI00
aI00
aI00
aI00
aa(lp712
I15548
aF96.239525
aF393.784
ag709
aS'utopia'
p713
aS'#656565'
p714
aF10.3669
aI0
aI01
aI00
aI00
aI00
aI00
aI00
aI00
aI00
aa(lp715
I70289
aF133.47
aF393.784
aVp1
p716
aS'utopia'
p717
aS'#656565'
p718
aF10.3669
aI0
aI01
aI00
aI00
aI00
aI00
aI00
aI00
aI00
aa(lp719
I234378
aF176.81897777777777
aF393.784
ag716
aS'utopia'
p720
aS'#656565'
p721
aF10.3669
aI0
aI00
aI00
aI00
aI00
aI00
aI00
aI00
aI00
aa(lp722
I55966
aF40.9084
aF410.075
aVp1
p723
aS'utopia'
p724
aS'#656565'
p725
aF10.3669
aI0
aI01
aI00
aI00
aI00
aI00
aI00
aI00
aI00
aa(lp726
I234378
aF73.4902
aF410.075
aVp1
p727
aS'utopia'
p728
aS'#656565'
p729
aF10.3669
aI0
aI01
aI00
aI00
aI00
aI00
aI00
aI00
aI00
aa(lp730
I132100
aF116.439
aF410.075
aVp1
p731
aS'utopia'
p732
aS'#656565'
p733
aF10.3669
aI0
aI01
aI00
aI00
aI00
aI00
aI00
aI00
aI00
aa(lp734
I61519
aF164.571
aF410.075
aVp1
p735
aS'utopia'
p736
aS'#656565'
p737
aF10.3669
aI0
aI01
aI00
aI00
aI00
aI00
aI00
aI00
aI01
aa(lp738
I234378
aF182.343
aF410.075
aVp1
p739
aS'utopia'
p740
aS'#656565'
p741
aF10.3669
aI0
aI00
aI00
aI01
aI01
aI01
aI00
aI00
aI00
aa(lp742
I17350
aF40.9084
aF429.906
aVp1
p743
aS'utopia'
p744
aS'#656565'
p745
aF8.88595
aI0
aI01
aI00
aI00
aI00
aI00
aI00
aI00
aI00
aa(lp746
I68032
aF60.9018
aF429.906
aVp1
p747
aS'utopia'
p748
aS'#656565'
p749
aF8.88595
aI0
aI01
aI00
aI00
aI00
aI00
aI00
aI00
aI00
aa(lp750
I234378
aF111.916775
aF429.906
ag747
aS'utopia'
p751
aS'#656565'
p752
aF8.88595
aI0
aI00
aI00
aI00
aI00
aI00
aI00
aI00
aI00
aa(lp753
I234378
aF118.66
aF429.906
aVp1
p754
aS'utopia'
p755
aS'#656565'
p756
aF8.88595
aI0
aI01
aI00
aI00
aI00
aI00
aI00
aI00
aI00
aa(lp757
I210461
aF162.35
aF429.906
aVp1
p758
aS'utopia'
p759
aS'#656565'
p760
aF8.88595
aI0
aI00
aI00
aI00
aI00
aI00
aI00
aI00
aI00
aa(lp761
I234378
aF184.565
aF429.906
aVp1
p762
aS'utopia'
p763
aS'#656565'
p764
aF8.88595
aI0
aI00
aI00
aI00
aI00
aI00
aI00
aI00
aI00
aa(lp765
I234378
aF219.6545125
aF429.906
ag762
aS'utopia'
p766
aS'#656565'
p767
aF8.88595
aI0
aI00
aI00
aI00
aI00
aI00
aI00
aI00
aI00
aa(lp768
I221291
aF226.773
aF429.906
aVp1
p769
aS'utopia'
p770
aS'#656565'
p771
aF8.88595
aI0
aI01
aI00
aI00
aI00
aI00
aI00
aI00
aI00
aa(lp772
I56042
aF249.728
aF429.906
aVp1
p773
aS'utopia'
p774
aS'#656565'
p775
aF8.88595
aI0
aI00
aI00
aI00
aI00
aI00
aI00
aI00
aI00
aa(lp776
I234378
aF273.94605714285717
aF429.906
ag773
aS'utopia'
p777
aS'#656565'
p778
aF8.88595
aI0
aI00
aI00
aI00
aI00
aI00
aI00
aI00
aI00
aa(lp779
I48671
aF40.9084
aF440.273
aVp1
p780
aS'utopia'
p781
aS'#656565'
p782
aF8.88595
aI0
aI01
aI00
aI00
aI00
aI00
aI00
aI00
aI00
aa(lp783
I129688
aF69.0473
aF440.273
aVp1
p784
aS'utopia'
p785
aS'#656565'
p786
aF8.88595
aI0
aI01
aI00
aI00
aI00
aI00
aI00
aI00
aI00
aa(lp787
I234378
aF97.1861
aF440.273
aVp1
p788
aS'utopia'
p789
aS'#656565'
p790
aF8.88595
aI0
aI00
aI00
aI00
aI00
aI00
aI00
aI00
aI00
aa(lp791
I234378
aF101.629
aF440.273
aVp1
p792
aS'utopia'
p793
aS'#656565'
p794
aF8.88595
aI0
aI00
aI00
aI01
aI01
aI00
aI00
aI00
aI00
aa(lp795
I234378
aF108.294
aF440.273
aVp1
p796
aS'utopia'
p797
aS'#656565'
p798
aF8.88595
aI0
aI01
aI00
aI00
aI00
aI00
aI00
aI00
aI00
aa(lp799
I234378
aF40.9084
aF473.488
aVp1
p800
aS'utopia'
p801
aS'#000000'
p802
aF10.3669
aI1
aI01
aI00
aI00
aI00
aI00
aI00
aI00
aI00
aa(lp803
I234378
aF101.629
aF473.488
aVp1
p804
aS'utopia'
p805
aS'#000000'
p806
aF10.3669
aI1
aI01
aI00
aI00
aI00
aI00
aI00
aI00
aI00
aa(lp807
I83140
aF161.609
aF473.488
aVp1
p808
aS'utopia'
p809
aS'#000000'
p810
aF10.3669
aI1
aI01
aI00
aI00
aI00
aI00
aI00
aI00
aI00
aa(lp811
I40036
aF197.894
aF473.488
aVp1
p812
aS'utopia'
p813
aS'#000000'
p814
aF10.3669
aI1
aI01
aI00
aI00
aI00
aI00
aI00
aI00
aI00
aa(lp815
I43052
aF40.9084
aF490.049
aVp1
p816
aS'utopia'
p817
aS'#656565'
p818
aF10.3669
aI0
aI01
aI00
aI00
aI00
aI00
aI00
aI00
aI00
aa(lp819
I234229
aF98.6671
aF490.049
aVp1
p820
aS'utopia'
p821
aS'#656565'
p822
aF10.3669
aI0
aI01
aI00
aI00
aI00
aI00
aI00
aI00
aI00
aa(lp823
I234378
aF136.432
aF490.049
aVp1
p824
aS'utopia'
p825
aS'#656565'
p826
aF10.3669
aI0
aI01
aI00
aI00
aI00
aI00
aI00
aI00
aI01
aa(lp827
I234378
aF157.907
aF490.049
aVp1
p828
aS'utopia'
p829
aS'#656565'
p830
aF10.3669
aI0
aI00
aI00
aI01
aI01
aI01
aI00
aI00
aI00
aa(lp831
I89480
aF180.862
aF490.049
aVp1
p832
aS'utopia'
p833
aS'#656565'
p834
aF10.3669
aI0
aI01
aI00
aI00
aI00
aI00
aI00
aI00
aI00
aa(lp835
I234378
aF195.672
aF490.049
aVp1
p836
aS'utopia'
p837
aS'#656565'
p838
aF10.3669
aI0
aI01
aI00
aI00
aI00
aI00
aI00
aI00
aI01
aa(lp839
I234378
aF214.925
aF490.049
aVp1
p840
aS'utopia'
p841
aS'#656565'
p842
aF10.3669
aI0
aI00
aI00
aI01
aI01
aI01
aI00
aI00
aI00
aa(lp843
I43052
aF40.9084
aF509.879
aVp1
p844
aS'utopia'
p845
aS'#656565'
p846
aF8.88595
aI0
aI01
aI00
aI00
aI00
aI00
aI00
aI00
aI00
aa(lp847
I175409
aF89.0407
aF509.879
aVp1
p848
aS'utopia'
p849
aS'#656565'
p850
aF8.88595
aI0
aI01
aI00
aI00
aI00
aI00
aI00
aI00
aI00
aa(lp851
I234378
aF106.31262000000001
aF509.879
ag848
aS'utopia'
p852
aS'#656565'
p853
aF8.88595
aI0
aI00
aI00
aI00
aI00
aI00
aI00
aI00
aI00
aa(lp854
I177958
aF112.737
aF509.879
aVp1
p855
aS'utopia'
p856
aS'#656565'
p857
aF8.88595
aI0
aI01
aI00
aI00
aI00
aI00
aI00
aI00
aI00
aa(lp858
I166558
aF143.097
aF509.879
aVp1
p859
aS'utopia'
p860
aS'#656565'
p861
aF8.88595
aI0
aI01
aI00
aI00
aI00
aI00
aI00
aI00
aI00
aa(lp862
I234378
aF173.47771111111112
aF509.879
ag859
aS'utopia'
p863
aS'#656565'
p864
aF8.88595
aI0
aI00
aI00
aI00
aI00
aI00
aI00
aI00
aI00
aa(lp865
I43275
aF179.381
aF509.879
aVp1
p866
aS'utopia'
p867
aS'#656565'
p868
aF8.88595
aI0
aI01
aI00
aI00
aI00
aI00
aI00
aI00
aI00
aa(lp869
I154254
aF211.963
aF509.879
aVp1
p870
aS'utopia'
p871
aS'#656565'
p872
aF8.88595
aI0
aI01
aI00
aI00
aI00
aI00
aI00
aI00
aI00
aa(lp873
I144690
aF263.798
aF509.879
aVp1
p874
aS'utopia'
p875
aS'#656565'
p876
aF8.88595
aI0
aI01
aI00
aI00
aI00
aI00
aI00
aI00
aI00
aa(lp877
I234378
aF288.65077142857143
aF509.879
ag874
aS'utopia'
p878
aS'#656565'
p879
aF8.88595
aI0
aI00
aI00
aI00
aI00
aI00
aI00
aI00
aI00
aa(lp880
I218728
aF294.899
aF509.879
aVp1
p881
aS'utopia'
p882
aS'#656565'
p883
aF8.88595
aI0
aI01
aI00
aI00
aI00
aI00
aI00
aI00
aI00
aa(lp884
I234378
aF313.411
aF509.879
aVp1
p885
aS'utopia'
p886
aS'#656565'
p887
aF8.88595
aI0
aI00
aI00
aI00
aI00
aI00
aI00
aI00
aI00
aa(lp888
I136358
aF320.075
aF509.879
aVp1
p889
aS'utopia'
p890
aS'#656565'
p891
aF8.88595
aI0
aI01
aI00
aI00
aI00
aI00
aI00
aI00
aI00
aa(lp892
I234378
aF343.031
aF509.879
aVp1
p893
aS'utopia'
p894
aS'#656565'
p895
aF8.88595
aI0
aI00
aI00
aI00
aI00
aI00
aI00
aI00
aI00
aa(lp896
I234378
aF349.695
aF509.879
aVp1
p897
aS'utopia'
p898
aS'#656565'
p899
aF8.88595
aI0
aI01
aI00
aI00
aI00
aI00
aI00
aI00
aI00
aa(lp900
I234378
aF397.087
aF509.879
aVp1
p901
aS'utopia'
p902
aS'#656565'
p903
aF8.88595
aI0
aI00
aI00
aI00
aI00
aI00
aI00
aI00
aI00
aa(lp904
I234378
aF403.751
aF509.879
aVp1
p905
aS'utopia'
p906
aS'#656565'
p907
aF8.88595
aI0
aI01
aI00
aI00
aI00
aI00
aI00
aI00
aI00
aa(lp908
I68032
aF434.852
aF509.879
aVp1
p909
aS'utopia'
p910
aS'#656565'
p911
aF8.88595
aI0
aI00
aI00
aI00
aI00
aI00
aI00
aI00
aI00
aa(lp912
I42284
aF40.9084
aF543.095
aVp1
p913
aS'utopia'
p914
aS'#000000'
p915
aF10.3669
aI1
aI01
aI00
aI00
aI00
aI00
aI00
aI00
aI00
aa(lp916
I234378
aF92.7431
aF543.095
aVp1
p917
aS'utopia'
p918
aS'#000000'
p919
aF10.3669
aI1
aI01
aI00
aI00
aI00
aI00
aI00
aI00
aI00
aa(lp920
I234378
aF157.907
aF543.095
aVp1
p921
aS'utopia'
p922
aS'#000000'
p923
aF10.3669
aI1
aI01
aI00
aI00
aI00
aI00
aI00
aI00
aI00
aa(lp924
I149270
aF40.9084
aF559.655
aVp1
p925
aS'utopia'
p926
aS'#656565'
p927
aF10.3669
aI0
aI01
aI00
aI00
aI00
aI00
aI00
aI00
aI00
aa(lp928
I217975
aF89.7812
aF559.655
aVp1
p929
aS'utopia'
p930
aS'#656565'
p931
aF10.3669
aI0
aI01
aI00
aI00
aI00
aI00
aI00
aI00
aI00
aa(lp932
I234378
aF139.394
aF559.655
aVp1
p933
aS'utopia'
p934
aS'#656565'
p935
aF10.3669
aI0
aI01
aI00
aI00
aI00
aI00
aI00
aI00
aI01
aa(lp936
I234378
aF158.647
aF559.655
aVp1
p937
aS'utopia'
p938
aS'#656565'
p939
aF10.3669
aI0
aI00
aI00
aI01
aI01
aI01
aI00
aI00
aI00
aa(lp940
I89480
aF181.603
aF559.655
aVp1
p941
aS'utopia'
p942
aS'#656565'
p943
aF10.3669
aI0
aI01
aI00
aI00
aI00
aI00
aI00
aI00
aI00
aa(lp944
I61519
aF196.413
aF559.655
aVp1
p945
aS'utopia'
p946
aS'#656565'
p947
aF10.3669
aI0
aI01
aI00
aI00
aI00
aI00
aI00
aI00
aI01
aa(lp948
I234378
aF214.184
aF559.655
aVp1
p949
aS'utopia'
p950
aS'#656565'
p951
aF10.3669
aI0
aI00
aI00
aI01
aI01
aI01
aI00
aI00
aI00
aa(lp952
I234378
aF40.9084
aF579.486
aVp1
p953
aS'utopia'
p954
aS'#656565'
p955
aF8.88595
aI0
aI01
aI00
aI00
aI00
aI00
aI00
aI00
aI00
aa(lp956
I217975
aF80.1547
aF579.486
aVp1
p957
aS'utopia'
p958
aS'#656565'
p959
aF8.88595
aI0
aI01
aI00
aI00
aI00
aI00
aI00
aI00
aI00
aa(lp960
I234378
aF114.91387
aF579.486
ag957
aS'utopia'
p961
aS'#656565'
p962
aF8.88595
aI0
aI00
aI00
aI00
aI00
aI00
aI00
aI00
aI00
aa(lp963
I17350
aF120.882
aF579.486
aVp1
p964
aS'utopia'
p965
aS'#656565'
p966
aF8.88595
aI0
aI01
aI00
aI00
aI00
aI00
aI00
aI00
aI00
aa(lp967
I68032
aF140.875
aF579.486
aVp1
p968
aS'utopia'
p969
aS'#656565'
p970
aF8.88595
aI0
aI01
aI00
aI00
aI00
aI00
aI00
aI00
aI00
aa(lp971
I234378
aF191.889975
aF579.486
ag968
aS'utopia'
p972
aS'#656565'
p973
aF8.88595
aI0
aI00
aI00
aI00
aI00
aI00
aI00
aI00
aI00
aa(lp974
I221291
aF198.634
aF579.486
aVp1
p975
aS'utopia'
p976
aS'#656565'
p977
aF8.88595
aI0
aI01
aI00
aI00
aI00
aI00
aI00
aI00
aI00
aa(lp978
I234378
aF221.589
aF579.486
aVp1
p979
aS'utopia'
p980
aS'#656565'
p981
aF8.88595
aI0
aI00
aI00
aI00
aI00
aI00
aI00
aI00
aI00
aa(lp982
I234378
aF249.5512
aF579.486
ag979
aS'utopia'
p983
aS'#656565'
p984
aF8.88595
aI0
aI00
aI00
aI00
aI00
aI00
aI00
aI00
aI00
aa(lp985
I24205
aF255.652
aF579.486
aVp1
p986
aS'utopia'
p987
aS'#656565'
p988
aF8.88595
aI0
aI01
aI00
aI00
aI00
aI00
aI00
aI00
aI00
aa(lp989
I234378
aF283.791
aF579.486
aVp1
p990
aS'utopia'
p991
aS'#656565'
p992
aF8.88595
aI0
aI01
aI00
aI00
aI00
aI00
aI00
aI00
aI00
aa(lp993
I234378
aF302.84012
aF579.486
ag990
aS'utopia'
p994
aS'#656565'
p995
aF8.88595
aI0
aI00
aI00
aI00
aI00
aI00
aI00
aI00
aI00
aa(lp996
I179418
aF309.708
aF579.486
aVp1
p997
aS'utopia'
p998
aS'#656565'
p999
aF8.88595
aI0
aI00
aI00
aI00
aI00
aI00
aI00
aI00
aI00
aa(lp1000
I149270
aF342.29
aF579.486
aVp1
p1001
aS'utopia'
p1002
aS'#656565'
p1003
aF8.88595
aI0
aI01
aI00
aI00
aI00
aI00
aI00
aI00
aI00
aa(lp1004
I234378
aF382.277
aF579.486
aVp1
p1005
aS'utopia'
p1006
aS'#656565'
p1007
aF8.88595
aI0
aI01
aI00
aI00
aI00
aI00
aI00
aI00
aI00
aa(lp1008
I234378
aF40.9084
aF612.702
aVp1
p1009
aS'utopia'
p1010
aS'#000000'
p1011
aF10.3669
aI1
aI01
aI00
aI00
aI00
aI00
aI00
aI00
aI00
aa(lp1012
I234378
aF69.7878
aF612.702
aVp1
p1013
aS'utopia'
p1014
aS'#000000'
p1015
aF10.3669
aI1
aI01
aI00
aI00
aI00
aI00
aI00
aI00
aI00
aa(lp1016
I83140
aF110.515
aF612.702
aVp1
p1017
aS'utopia'
p1018
aS'#000000'
p1019
aF10.3669
aI1
aI01
aI00
aI00
aI00
aI00
aI00
aI00
aI00
aa(lp1020
I40036
aF146.799
aF612.702
aVp1
p1021
aS'utopia'
p1022
aS'#000000'
p1023
aF10.3669
aI1
aI01
aI00
aI00
aI00
aI00
aI00
aI00
aI00
aa(lp1024
I43052
aF40.9084
aF629.262
aVp1
p1025
aS'utopia'
p1026
aS'#656565'
p1027
aF10.3669
aI0
aI01
aI00
aI00
aI00
aI00
aI00
aI00
aI00
aa(lp1028
I234229
aF98.6671
aF629.262
aVp1
p1029
aS'utopia'
p1030
aS'#656565'
p1031
aF10.3669
aI0
aI01
aI00
aI00
aI00
aI00
aI00
aI00
aI00
aa(lp1032
I234378
aF136.432
aF629.262
aVp1
p1033
aS'utopia'
p1034
aS'#656565'
p1035
aF10.3669
aI0
aI01
aI00
aI00
aI00
aI00
aI00
aI00
aI01
aa(lp1036
I234378
aF155.685
aF629.262
aVp1
p1037
aS'utopia'
p1038
aS'#656565'
p1039
aF10.3669
aI0
aI00
aI00
aI01
aI01
aI01
aI00
aI00
aI00
aa(lp1040
I89480
aF178.641
aF629.262
aVp1
p1041
aS'utopia'
p1042
aS'#656565'
p1043
aF10.3669
aI0
aI01
aI00
aI00
aI00
aI00
aI00
aI00
aI00
aa(lp1044
I234378
aF193.451
aF629.262
aVp1
p1045
aS'utopia'
p1046
aS'#656565'
p1047
aF10.3669
aI0
aI01
aI00
aI00
aI00
aI00
aI00
aI00
aI01
aa(lp1048
I234378
aF212.703
aF629.262
aVp1
p1049
aS'utopia'
p1050
aS'#656565'
p1051
aF10.3669
aI0
aI00
aI00
aI01
aI01
aI01
aI00
aI00
aI00
aa(lp1052
I234378
aF40.9084
aF671.941
aVp1
p1053
aS'utopia'
p1054
aS'#000000'
p1055
aF10.3669
aI1
aI01
aI00
aI00
aI00
aI00
aI00
aI00
aI00
aa(lp1056
I234378
aF84.5977
aF671.941
aVp1
p1057
aS'utopia'
p1058
aS'#000000'
p1059
aF10.3669
aI1
aI01
aI00
aI00
aI00
aI00
aI00
aI00
aI00
aa(lp1060
I234378
aF40.9084
aF688.502
aVp1
p1061
aS'utopia'
p1062
aS'#656565'
p1063
aF10.3669
aI0
aI01
aI00
aI00
aI00
aI00
aI00
aI00
aI00
aa(lp1064
I132100
aF83.8572
aF688.502
aVp1
p1065
aS'utopia'
p1066
aS'#656565'
p1067
aF10.3669
aI0
aI01
aI00
aI00
aI00
aI00
aI00
aI00
aI00
aa(lp1068
I27216
aF131.989
aF688.502
aVp1
p1069
aS'utopia'
p1070
aS'#656565'
p1071
aF10.3669
aI0
aI01
aI00
aI00
aI00
aI00
aI00
aI00
aI01
aa(lp1072
I234378
aF150.502
aF688.502
aVp1
p1073
aS'utopia'
p1074
aS'#656565'
p1075
aF10.3669
aI0
aI00
aI00
aI01
aI01
aI01
aI00
aI00
aI00
aa(lp1076
I89480
aF173.457
aF688.502
aVp1
p1077
aS'utopia'
p1078
aS'#656565'
p1079
aF10.3669
aI0
aI01
aI00
aI00
aI00
aI00
aI00
aI00
aI00
aa(lp1080
I234378
aF188.267
aF688.502
aVp1
p1081
aS'utopia'
p1082
aS'#656565'
p1083
aF10.3669
aI0
aI01
aI00
aI00
aI00
aI00
aI00
aI00
aI01
aa(lp1084
I234378
aF207.52
aF688.502
aVp1
p1085
aS'utopia'
p1086
aS'#656565'
p1087
aF10.3669
aI0
aI00
aI00
aI01
aI01
aI01
aI00
aI00
aI00
aa(lp1088
I124531
aF40.1679
aF34.4987
aVp2
p1089
aS'utopia'
p1090
aS'#02304b'
p1091
aF11.8479
aI1
aI01
aI00
aI00
aI00
aI00
aI00
aI00
aI00
aa(lp1092
I234378
aF40.9084
aF62.7827
aVp2
p1093
aS'utopia'
p1094
aS'#656565'
p1095
aF10.3669
aI0
aI01
aI00
aI00
aI00
aI00
aI00
aI00
aI00
aa(lp1096
I234378
aF117.18
aF62.7827
aVp2
p1097
aS'utopia'
p1098
aS'#656565'
p1099
aF10.3669
aI0
aI00
aI00
aI00
aI00
aI00
aI00
aI00
aI00
aa(lp1100
I60201
aF123.103
aF62.7827
aVp2
p1101
aS'utopia'
p1102
aS'#656565'
p1103
aF10.3669
aI0
aI01
aI00
aI00
aI00
aI00
aI00
aI00
aI00
aa(lp1104
I230071
aF143.097
aF62.7827
aVp2
p1105
aS'utopia'
p1106
aS'#656565'
p1107
aF10.3669
aI0
aI01
aI00
aI00
aI00
aI00
aI00
aI00
aI00
aa(lp1108
I234378
aF169.755
aF62.7827
aVp2
p1109
aS'utopia'
p1110
aS'#656565'
p1111
aF10.3669
aI0
aI00
aI00
aI00
aI00
aI00
aI00
aI00
aI00
aa(lp1112
I27780
aF40.9084
aF78.804
aVp2
p1113
aS'utopia'
p1114
aS'#000000'
p1115
aF10.3669
aI1
aI01
aI01
aI00
aI00
aI00
aI00
aI00
aI00
aa(lp1116
I234378
aF46.15191818181818
aF78.804
ag1113
aS'utopia'
p1117
aS'#000000'
p1118
aF10.3669
aI1
aI00
aI00
aI00
aI00
aI00
aI00
aI00
aI00
aa(lp1119
I2737
aF51.395436363636364
aF78.804
ag1113
aS'utopia'
p1120
aS'#000000'
p1121
aF10.3669
aI1
aI01
aI00
aI00
aI00
aI00
aI00
aI00
aI00
aa(lp1122
I234378
aF72.36950909090909
aF78.804
ag1113
aS'utopia'
p1123
aS'#000000'
p1124
aF10.3669
aI1
aI00
aI00
aI00
aI00
aI00
aI00
aI00
aI00
aa(lp1125
I27780
aF70.61302727272727
aF78.804
ag1113
aS'utopia'
p1126
aS'#000000'
p1127
aF10.3669
aI1
aI01
aI01
aI00
aI00
aI00
aI00
aI00
aI00
aa(lp1128
I234378
aF75.85654545454545
aF78.804
ag1113
aS'utopia'
p1129
aS'#000000'
p1130
aF10.3669
aI1
aI00
aI00
aI00
aI00
aI00
aI00
aI00
aI00
aa(lp1131
I64620
aF88.10006363636364
aF78.804
ag1113
aS'utopia'
p1132
aS'#000000'
p1133
aF10.3669
aI1
aI01
aI01
aI00
aI00
aI00
aI00
aI00
aI00
aa(lp1134
I234378
aF84.34358181818183
aF78.804
ag1113
aS'utopia'
p1135
aS'#000000'
p1136
aF10.3669
aI1
aI00
aI00
aI00
aI00
aI00
aI00
aI00
aI00
aa(lp1137
I234378
aF100.889
aF78.804
aVp2
p1138
aS'utopia'
p1139
aS'#000000'
p1140
aF10.3669
aI1
aI00
aI00
aI00
aI00
aI00
aI00
aI00
aI00
aa(lp1141
I234378
aF106.48095454545454
aF78.804
ag1138
aS'utopia'
p1142
aS'#000000'
p1143
aF10.3669
aI1
aI01
aI00
aI00
aI00
aI00
aI00
aI00
aI00
aa(lp1144
I234378
aF156.80854545454542
aF78.804
ag1138
aS'utopia'
p1145
aS'#000000'
p1146
aF10.3669
aI1
aI00
aI00
aI00
aI00
aI00
aI00
aI00
aI00
aa(lp1147
I234378
aF40.9084
aF99.067
aVp2
p1148
aS'utopia'
p1149
aS'#656565'
p1150
aF10.3669
aI0
aI01
aI00
aI00
aI00
aI00
aI00
aI00
aI00
aa(lp1151
I234378
aF61.6423
aF99.067
aVp2
p1152
aS'utopia'
p1153
aS'#656565'
p1154
aF10.3669
aI0
aI01
aI00
aI00
aI00
aI00
aI00
aI00
aI00
aa(lp1155
I153079
aF98.6671
aF99.067
aVp2
p1156
aS'utopia'
p1157
aS'#656565'
p1158
aF10.3669
aI0
aI01
aI00
aI00
aI00
aI00
aI00
aI00
aI00
aa(lp1159
I144489
aF149.021
aF99.067
aVp2
p1160
aS'utopia'
p1161
aS'#656565'
p1162
aF10.3669
aI0
aI00
aI00
aI00
aI00
aI00
aI00
aI00
aI00
aa(lp1163
I43052
aF160.128
aF99.067
aVp2
p1164
aS'utopia'
p1165
aS'#656565'
p1166
aF10.3669
aI0
aI01
aI00
aI00
aI00
aI00
aI00
aI00
aI00
aa(lp1167
I234378
aF217.887
aF99.067
aVp2
p1168
aS'utopia'
p1169
aS'#656565'
p1170
aF10.3669
aI0
aI00
aI00
aI00
aI00
aI00
aI00
aI00
aI00
aa(lp1171
I234378
aF223.67003333333332
aF99.067
ag1168
aS'utopia'
p1172
aS'#656565'
p1173
aF10.3669
aI0
aI01
aI01
aI00
aI00
aI00
aI00
aI00
aI00
aa(lp1174
I234378
aF246.80216666666666
aF99.067
ag1168
aS'utopia'
p1175
aS'#656565'
p1176
aF10.3669
aI0
aI00
aI00
aI00
aI00
aI00
aI00
aI00
aI00
aa(lp1177
I135639
aF259.355
aF99.067
aVp2
p1178
aS'utopia'
p1179
aS'#656565'
p1180
aF10.3669
aI0
aI00
aI00
aI00
aI00
aI00
aI00
aI00
aI00
aa(lp1181
I234378
aF271.203
aF99.067
aVp2
p1182
aS'utopia'
p1183
aS'#656565'
p1184
aF10.3669
aI0
aI00
aI00
aI01
aI01
aI01
aI00
aI00
aI00
aa(lp1185
I22476
aF40.1679
aF132.985
aVp2
p1186
aS'utopia'
p1187
aS'#02304b'
p1188
aF11.8479
aI1
aI01
aI01
aI00
aI00
aI00
aI00
aI00
aI00
aa(lp1189
I234378
aF54.2374
aF132.985
aVp2
p1190
aS'utopia'
p1191
aS'#02304b'
p1192
aF11.8479
aI1
aI01
aI00
aI00
aI00
aI00
aI00
aI00
aI00
aa(lp1193
I109610
aF48.3134
aF160.875
aVp2
p1194
aS'utopia'
p1195
aS'#000000'
p1196
aF8.88595
aI1
aI01
aI00
aI00
aI00
aI00
aI00
aI00
aI00
aa(lp1197
I158577
aF69.7878
aF160.875
aVp2
p1198
aS'utopia'
p1199
aS'#000000'
p1200
aF8.88595
aI1
aI01
aI00
aI00
aI00
aI00
aI00
aI00
aI00
aa(lp1201
I194179
aF188.267
aF160.875
aVp2
p1202
aS'utopia'
p1203
aS'#000000'
p1204
aF8.88595
aI1
aI01
aI00
aI00
aI00
aI00
aI00
aI00
aI00
aa(lp1205
I177981
aF305.265
aF160.875
aVp2
p1206
aS'utopia'
p1207
aS'#000000'
p1208
aF8.88595
aI1
aI01
aI00
aI00
aI00
aI00
aI00
aI00
aI00
aa(lp1209
I25729
aF324.518
aF160.875
aVp2
p1210
aS'utopia'
p1211
aS'#000000'
p1212
aF8.88595
aI1
aI01
aI00
aI00
aI00
aI00
aI00
aI00
aI00
aa(lp1213
I60220
aF412.637
aF160.875
aVp2
p1214
aS'utopia'
p1215
aS'#000000'
p1216
aF8.88595
aI1
aI01
aI00
aI00
aI00
aI00
aI00
aI00
aI00
aa(lp1217
I84662
aF48.3134
aF179.618
aVp2
p1218
aS'utopia'
p1219
aS'#656565'
p1220
aF8.88595
aI0
aI01
aI01
aI00
aI00
aI00
aI00
aI00
aI00
aa(lp1221
I21716
aF74.2307
aF179.618
aVp2
p1222
aS'utopia'
p1223
aS'#656565'
p1224
aF8.88595
aI0
aI01
aI01
aI00
aI00
aI00
aI00
aI00
aI00
aa(lp1225
I234378
aF188.267
aF179.618
aVp2
p1226
aS'utopia'
p1227
aS'#656565'
p1228
aF8.88595
aI0
aI00
aI00
aI01
aI01
aI00
aI00
aI00
aI00
aa(lp1229
I234378
aF317.113
aF179.618
aVp2
p1230
aS'utopia'
p1231
aS'#656565'
p1232
aF8.88595
aI0
aI00
aI00
aI01
aI01
aI01
aI00
aI00
aI00
aa(lp1233
I234378
aF422.264
aF179.618
aVp2
p1234
aS'utopia'
p1235
aS'#656565'
p1236
aF8.88595
aI0
aI00
aI00
aI01
aI01
aI00
aI00
aI00
aI00
aa(lp1237
I234378
aF428.928
aF179.618
aVp2
p1238
aS'utopia'
p1239
aS'#656565'
p1240
aF8.88595
aI0
aI01
aI00
aI00
aI00
aI00
aI00
aI00
aI00
aa(lp1241
I234378
aF48.3134
aF198.131
aVp2
p1242
aS'utopia'
p1243
aS'#656565'
p1244
aF8.88595
aI0
aI01
aI00
aI00
aI00
aI00
aI00
aI00
aI00
aa(lp1245
I234378
aF188.267
aF198.131
aVp2
p1246
aS'utopia'
p1247
aS'#656565'
p1248
aF8.88595
aI0
aI00
aI00
aI01
aI01
aI00
aI00
aI00
aI00
aa(lp1249
I234378
aF192.0465
aF198.131
ag1246
aS'utopia'
p1250
aS'#656565'
p1251
aF8.88595
aI0
aI00
aI00
aI00
aI00
aI00
aI00
aI00
aI00
aa(lp1252
I234378
aF195.82600000000002
aF198.131
ag1246
aS'utopia'
p1253
aS'#656565'
p1254
aF8.88595
aI0
aI00
aI00
aI01
aI01
aI00
aI00
aI00
aI00
aa(lp1255
I234378
aF317.113
aF198.131
aVp2
p1256
aS'utopia'
p1257
aS'#656565'
p1258
aF8.88595
aI0
aI00
aI00
aI01
aI01
aI01
aI00
aI00
aI00
aa(lp1259
I234378
aF422.264
aF198.131
aVp2
p1260
aS'utopia'
p1261
aS'#656565'
p1262
aF8.88595
aI0
aI00
aI00
aI01
aI01
aI00
aI00
aI00
aI00
aa(lp1263
I234378
aF428.928
aF198.131
aVp2
p1264
aS'utopia'
p1265
aS'#656565'
p1266
aF8.88595
aI0
aI01
aI00
aI00
aI00
aI00
aI00
aI00
aI00
aa(lp1267
I234378
aF48.3134
aF216.643
aVp2
p1268
aS'utopia'
p1269
aS'#656565'
p1270
aF8.88595
aI0
aI01
aI00
aI00
aI00
aI00
aI00
aI00
aI00
aa(lp1271
I234378
aF188.267
aF216.643
aVp2
p1272
aS'utopia'
p1273
aS'#656565'
p1274
aF8.88595
aI0
aI00
aI00
aI01
aI01
aI00
aI00
aI00
aI00
aa(lp1275
I234378
aF192.0465
aF216.643
ag1272
aS'utopia'
p1276
aS'#656565'
p1277
aF8.88595
aI0
aI00
aI00
aI00
aI00
aI00
aI00
aI00
aI00
aa(lp1278
I234378
aF195.82600000000002
aF216.643
ag1272
aS'utopia'
p1279
aS'#656565'
p1280
aF8.88595
aI0
aI00
aI00
aI01
aI01
aI00
aI00
aI00
aI00
aa(lp1281
I234378
aF317.113
aF216.643
aVp2
p1282
aS'utopia'
p1283
aS'#656565'
p1284
aF8.88595
aI0
aI00
aI00
aI01
aI01
aI01
aI00
aI00
aI00
aa(lp1285
I234378
aF422.264
aF216.643
aVp2
p1286
aS'utopia'
p1287
aS'#656565'
p1288
aF8.88595
aI0
aI00
aI00
aI01
aI01
aI00
aI00
aI00
aI00
aa(lp1289
I234378
aF428.928
aF216.643
aVp2
p1290
aS'utopia'
p1291
aS'#656565'
p1292
aF8.88595
aI0
aI01
aI00
aI00
aI00
aI00
aI00
aI00
aI00
aa(lp1293
I234378
aF48.3134
aF235.155
aVp2
p1294
aS'utopia'
p1295
aS'#656565'
p1296
aF8.88595
aI0
aI01
aI00
aI00
aI00
aI00
aI00
aI00
aI00
aa(lp1297
I234378
aF188.267
aF235.155
aVp2
p1298
aS'utopia'
p1299
aS'#656565'
p1300
aF8.88595
aI0
aI00
aI00
aI01
aI01
aI00
aI00
aI00
aI00
aa(lp1301
I234378
aF317.113
aF235.155
aVp2
p1302
aS'utopia'
p1303
aS'#656565'
p1304
aF8.88595
aI0
aI00
aI00
aI01
aI01
aI01
aI00
aI00
aI00
aa(lp1305
I234378
aF422.264
aF235.155
aVp2
p1306
aS'utopia'
p1307
aS'#656565'
p1308
aF8.88595
aI0
aI00
aI00
aI01
aI01
aI00
aI00
aI00
aI00
aa(lp1309
I234378
aF428.928
aF235.155
aVp2
p1310
aS'utopia'
p1311
aS'#656565'
p1312
aF8.88595
aI0
aI01
aI00
aI00
aI00
aI00
aI00
aI00
aI00
aa(lp1313
I234378
aF48.3134
aF253.668
aVp2
p1314
aS'utopia'
p1315
aS'#656565'
p1316
aF8.88595
aI0
aI01
aI00
aI00
aI00
aI00
aI00
aI00
aI00
aa(lp1317
I234378
aF188.267
aF253.668
aVp2
p1318
aS'utopia'
p1319
aS'#656565'
p1320
aF8.88595
aI0
aI00
aI00
aI01
aI01
aI00
aI00
aI00
aI00
aa(lp1321
I234378
aF192.0465
aF253.668
ag1318
aS'utopia'
p1322
aS'#656565'
p1323
aF8.88595
aI0
aI00
aI00
aI00
aI00
aI00
aI00
aI00
aI00
aa(lp1324
I234378
aF193.82600000000002
aF253.668
ag1318
aS'utopia'
p1325
aS'#656565'
p1326
aF8.88595
aI0
aI00
aI00
aI01
aI01
aI00
aI00
aI00
aI00
aa(lp1327
I234378
aF317.113
aF253.668
aVp2
p1328
aS'utopia'
p1329
aS'#656565'
p1330
aF8.88595
aI0
aI00
aI00
aI01
aI01
aI01
aI00
aI00
aI00
aa(lp1331
I234378
aF422.264
aF253.668
aVp2
p1332
aS'utopia'
p1333
aS'#656565'
p1334
aF8.88595
aI0
aI00
aI00
aI01
aI01
aI00
aI00
aI00
aI00
aa(lp1335
I234378
aF428.928
aF253.668
aVp2
p1336
aS'utopia'
p1337
aS'#656565'
p1338
aF8.88595
aI0
aI01
aI00
aI00
aI00
aI00
aI00
aI00
aI00
aa(lp1339
I218728
aF48.3134
aF272.18
aVp2
p1340
aS'utopia'
p1341
aS'#656565'
p1342
aF8.88595
aI0
aI01
aI00
aI00
aI00
aI00
aI00
aI00
aI00
aa(lp1343
I234378
aF188.267
aF272.18
aVp2
p1344
aS'utopia'
p1345
aS'#656565'
p1346
aF8.88595
aI0
aI00
aI00
aI01
aI01
aI00
aI00
aI00
aI00
aa(lp1347
I234378
aF192.0465
aF272.18
ag1344
aS'utopia'
p1348
aS'#656565'
p1349
aF8.88595
aI0
aI00
aI00
aI00
aI00
aI00
aI00
aI00
aI00
aa(lp1350
I234378
aF195.82600000000002
aF272.18
ag1344
aS'utopia'
p1351
aS'#656565'
p1352
aF8.88595
aI0
aI00
aI00
aI01
aI01
aI00
aI00
aI00
aI00
aa(lp1353
I234378
aF317.113
aF272.18
aVp2
p1354
aS'utopia'
p1355
aS'#656565'
p1356
aF8.88595
aI0
aI00
aI00
aI01
aI01
aI01
aI00
aI00
aI00
aa(lp1357
I234378
aF422.264
aF272.18
aVp2
p1358
aS'utopia'
p1359
aS'#656565'
p1360
aF8.88595
aI0
aI00
aI00
aI01
aI01
aI00
aI00
aI00
aI00
aa(lp1361
I234378
aF428.928
aF272.18
aVp2
p1362
aS'utopia'
p1363
aS'#656565'
p1364
aF8.88595
aI0
aI01
aI00
aI00
aI00
aI00
aI00
aI00
aI00
aa(lp1365
I136358
aF48.3134
aF290.692
aVp2
p1366
aS'utopia'
p1367
aS'#656565'
p1368
aF8.88595
aI0
aI01
aI00
aI00
aI00
aI00
aI00
aI00
aI00
aa(lp1369
I234378
aF188.267
aF290.692
aVp2
p1370
aS'utopia'
p1371
aS'#656565'
p1372
aF8.88595
aI0
aI01
aI01
aI01
aI00
aI00
aI00
aI00
aI00
aa(lp1373
I234378
aF317.113
aF290.692
aVp2
p1374
aS'utopia'
p1375
aS'#656565'
p1376
aF8.88595
aI0
aI00
aI00
aI01
aI01
aI01
aI00
aI00
aI00
aa(lp1377
I234378
aF422.264
aF290.692
aVp2
p1378
aS'utopia'
p1379
aS'#656565'
p1380
aF8.88595
aI0
aI00
aI00
aI01
aI01
aI00
aI00
aI00
aI00
aa(lp1381
I234378
aF428.928
aF290.692
aVp2
p1382
aS'utopia'
p1383
aS'#656565'
p1384
aF8.88595
aI0
aI01
aI00
aI00
aI00
aI00
aI00
aI00
aI00
aa(lp1385
I234378
aF48.3134
aF309.205
aVp2
p1386
aS'utopia'
p1387
aS'#656565'
p1388
aF8.88595
aI0
aI01
aI01
aI00
aI00
aI00
aI00
aI00
aI00
aa(lp1389
I234378
aF188.267
aF309.205
aVp2
p1390
aS'utopia'
p1391
aS'#656565'
p1392
aF8.88595
aI0
aI00
aI00
aI01
aI01
aI00
aI00
aI00
aI00
aa(lp1393
I234378
aF317.113
aF309.205
aVp2
p1394
aS'utopia'
p1395
aS'#656565'
p1396
aF8.88595
aI0
aI00
aI00
aI01
aI01
aI01
aI00
aI00
aI00
aa(lp1397
I234378
aF422.264
aF309.205
aVp2
p1398
aS'utopia'
p1399
aS'#656565'
p1400
aF8.88595
aI0
aI00
aI00
aI01
aI01
aI00
aI00
aI00
aI00
aa(lp1401
I234378
aF428.928
aF309.205
aVp2
p1402
aS'utopia'
p1403
aS'#656565'
p1404
aF8.88595
aI0
aI01
aI00
aI00
aI00
aI00
aI00
aI00
aI00
aa(lp1405
I234378
aF48.3134
aF327.717
aVp2
p1406
aS'utopia'
p1407
aS'#656565'
p1408
aF8.88595
aI0
aI01
aI01
aI00
aI00
aI00
aI00
aI00
aI00
aa(lp1409
I234378
aF188.267
aF327.717
aVp2
p1410
aS'utopia'
p1411
aS'#656565'
p1412
aF8.88595
aI0
aI00
aI00
aI01
aI01
aI00
aI00
aI00
aI00
aa(lp1413
I234378
aF317.113
aF327.717
aVp2
p1414
aS'utopia'
p1415
aS'#656565'
p1416
aF8.88595
aI0
aI00
aI00
aI01
aI01
aI01
aI00
aI00
aI00
aa(lp1417
I234378
aF422.264
aF327.717
aVp2
p1418
aS'utopia'
p1419
aS'#656565'
p1420
aF8.88595
aI0
aI00
aI00
aI01
aI01
aI00
aI00
aI00
aI00
aa(lp1421
I234378
aF428.928
aF327.717
aVp2
p1422
aS'utopia'
p1423
aS'#656565'
p1424
aF8.88595
aI0
aI01
aI00
aI00
aI00
aI00
aI00
aI00
aI00
aa(lp1425
I234378
aF48.3134
aF346.23
aVp2
p1426
aS'utopia'
p1427
aS'#656565'
p1428
aF8.88595
aI0
aI01
aI01
aI00
aI00
aI00
aI00
aI00
aI00
aa(lp1429
I234378
aF188.267
aF346.23
aVp2
p1430
aS'utopia'
p1431
aS'#656565'
p1432
aF8.88595
aI0
aI00
aI00
aI01
aI01
aI00
aI00
aI00
aI00
aa(lp1433
I234378
aF317.113
aF346.23
aVp2
p1434
aS'utopia'
p1435
aS'#656565'
p1436
aF8.88595
aI0
aI00
aI00
aI01
aI01
aI01
aI00
aI00
aI00
aa(lp1437
I234378
aF422.264
aF346.23
aVp2
p1438
aS'utopia'
p1439
aS'#656565'
p1440
aF8.88595
aI0
aI00
aI00
aI01
aI01
aI00
aI00
aI00
aI00
aa(lp1441
I234378
aF428.928
aF346.23
aVp2
p1442
aS'utopia'
p1443
aS'#656565'
p1444
aF8.88595
aI0
aI01
aI00
aI00
aI00
aI00
aI00
aI00
aI00
aa(lp1445
I234378
aF48.3134
aF364.742
aVp2
p1446
aS'utopia'
p1447
aS'#656565'
p1448
aF8.88595
aI0
aI01
aI01
aI00
aI00
aI00
aI00
aI00
aI00
aa(lp1449
I234378
aF188.267
aF364.742
aVp2
p1450
aS'utopia'
p1451
aS'#656565'
p1452
aF8.88595
aI0
aI00
aI00
aI01
aI01
aI00
aI00
aI00
aI00
aa(lp1453
I234378
aF317.113
aF364.742
aVp2
p1454
aS'utopia'
p1455
aS'#656565'
p1456
aF8.88595
aI0
aI00
aI00
aI01
aI01
aI01
aI00
aI00
aI00
aa(lp1457
I234378
aF422.264
aF364.742
aVp2
p1458
aS'utopia'
p1459
aS'#656565'
p1460
aF8.88595
aI0
aI00
aI00
aI01
aI01
aI00
aI00
aI00
aI00
aa(lp1461
I234378
aF428.928
aF364.742
aVp2
p1462
aS'utopia'
p1463
aS'#656565'
p1464
aF8.88595
aI0
aI01
aI00
aI00
aI00
aI00
aI00
aI00
aI00
aa(lp1465
I234378
aF48.3134
aF383.254
aVp2
p1466
aS'utopia'
p1467
aS'#656565'
p1468
aF8.88595
aI0
aI01
aI01
aI00
aI00
aI00
aI00
aI00
aI00
aa(lp1469
I234378
aF188.267
aF383.254
aVp2
p1470
aS'utopia'
p1471
aS'#656565'
p1472
aF8.88595
aI0
aI00
aI00
aI01
aI01
aI00
aI00
aI00
aI00
aa(lp1473
I234378
aF317.113
aF383.254
aVp2
p1474
aS'utopia'
p1475
aS'#656565'
p1476
aF8.88595
aI0
aI00
aI00
aI01
aI01
aI01
aI00
aI00
aI00
aa(lp1477
I234378
aF422.264
aF383.254
aVp2
p1478
aS'utopia'
p1479
aS'#656565'
p1480
aF8.88595
aI0
aI00
aI00
aI01
aI01
aI00
aI00
aI00
aI00
aa(lp1481
I234378
aF428.928
aF383.254
aVp2
p1482
aS'utopia'
p1483
aS'#656565'
p1484
aF8.88595
aI0
aI01
aI00
aI00
aI00
aI00
aI00
aI00
aI00
aa(lp1485
I195166
aF40.1679
aF433.626
aVp2
p1486
aS'utopia'
p1487
aS'#02304b'
p1488
aF11.8479
aI1
aI01
aI00
aI00
aI00
aI00
aI00
aI00
aI00
aa(lp1489
I136346
aF96.4456
aF433.626
aVp2
p1490
aS'utopia'
p1491
aS'#02304b'
p1492
aF11.8479
aI1
aI01
aI00
aI00
aI00
aI00
aI00
aI00
aI00
aa(lp1493
I201816
aF40.9084
aF461.747
aVp2
p1494
aS'utopia'
p1495
aS'#000000'
p1496
aF8.88595
aI0
aI01
aI00
aI00
aI00
aI00
aI00
aI00
aI00
aa(lp1497
I234378
aF54.9779
aF461.747
aVp2
p1498
aS'utopia'
p1499
aS'#000000'
p1500
aF8.88595
aI0
aI01
aI00
aI00
aI00
aI00
aI00
aI00
aI00
aa(lp1501
I47284
aF98.6671
aF461.747
aVp2
p1502
aS'utopia'
p1503
aS'#000000'
p1504
aF8.88595
aI0
aI01
aI00
aI00
aI00
aI00
aI00
aI00
aI00
aa(lp1505
I234378
aF40.1679
aF496.568
aVp2
p1506
aS'utopia'
p1507
aS'#02304b'
p1508
aF11.8479
aI1
aI01
aI00
aI00
aI00
aI00
aI00
aI00
aI00
aa(lp1509
I201816
aF40.9084
aF528.392
aVp2
p1510
aS'utopia'
p1511
aS'#000000'
p1512
aF8.88595
aI0
aI01
aI00
aI00
aI00
aI00
aI00
aI00
aI00
aa(lp1513
I234378
aF54.9779
aF528.392
aVp2
p1514
aS'utopia'
p1515
aS'#000000'
p1516
aF8.88595
aI0
aI01
aI00
aI00
aI00
aI00
aI00
aI00
aI00
aa(lp1517
I86196
aF89.0407
aF528.392
aVp2
p1518
aS'utopia'
p1519
aS'#000000'
p1520
aF8.88595
aI0
aI01
aI00
aI00
aI00
aI00
aI00
aI00
aI00
aa(lp1521
I177271
aF40.1679
aF567.656
aVp2
p1522
aS'utopia'
p1523
aS'#02304b'
p1524
aF11.8479
aI1
aI01
aI00
aI00
aI00
aI00
aI00
aI00
aI00
aa(lp1525
I234378
aF74.2307
aF567.656
aVp2
p1526
aS'utopia'
p1527
aS'#02304b'
p1528
aF11.8479
aI1
aI01
aI00
aI00
aI00
aI00
aI00
aI00
aI00
aa(lp1529
I7520
aF49.0539
aF588.265
aVp2
p1530
aS'utopia'
p1531
aS'#656565'
p1532
aF10.3669
aI1
aI01
aI00
aI00
aI00
aI00
aI00
aI00
aI00
aa(lp1533
I10865
aF93.4836
aF588.265
aVp2
p1534
aS'utopia'
p1535
aS'#656565'
p1536
aF10.3669
aI1
aI01
aI00
aI00
aI00
aI00
aI00
aI00
aI00
aa(lp1537
I132955
aF49.0539
aF603.922
aVp2
p1538
aS'utopia'
p1539
aS'#656565'
p1540
aF8.88595
aI0
aI01
aI00
aI00
aI00
aI00
aI00
aI00
aI00
aa(lp1541
I144489
aF69.7878
aF603.922
aVp2
p1542
aS'utopia'
p1543
aS'#656565'
p1544
aF8.88595
aI0
aI00
aI00
aI00
aI00
aI00
aI00
aI00
aI00
aa(lp1545
I132529
aF80.1547
aF603.922
aVp2
p1546
aS'utopia'
p1547
aS'#656565'
p1548
aF8.88595
aI0
aI01
aI00
aI00
aI00
aI00
aI00
aI00
aI00
aa(lp1549
I234378
aF98.76336666666667
aF603.922
ag1546
aS'utopia'
p1550
aS'#656565'
p1551
aF8.88595
aI0
aI00
aI00
aI00
aI00
aI00
aI00
aI00
aI00
aa(lp1552
I234378
aF104.591
aF603.922
aVp2
p1553
aS'utopia'
p1554
aS'#434343'
p1555
aF8.88595
aI0
aI00
aI00
aI01
aI01
aI01
aI00
aI00
aI00
aa(lp1556
I27216
aF115.699
aF603.922
aVp2
p1557
aS'utopia'
p1558
aS'#434343'
p1559
aF8.88595
aI0
aI01
aI00
aI00
aI00
aI00
aI00
aI00
aI01
aa(lp1560
I234378
aF131.249
aF603.922
aVp2
p1561
aS'utopia'
p1562
aS'#434343'
p1563
aF8.88595
aI0
aI00
aI00
aI01
aI01
aI01
aI00
aI00
aI00
aa(lp1564
I86794
aF293.418
aF601.594
aVp2
p1565
aS'utopia'
p1566
aS'#656565'
p1567
aF10.3669
aI1
aI01
aI00
aI00
aI00
aI00
aI00
aI00
aI00
aa(lp1568
I131455
aF331.923
aF601.594
aVp2
p1569
aS'utopia'
p1570
aS'#656565'
p1571
aF10.3669
aI1
aI01
aI00
aI00
aI00
aI00
aI00
aI00
aI00
aa(lp1572
I234378
aF349.695
aF601.594
aVp2
p1573
aS'utopia'
p1574
aS'#656565'
p1575
aF10.3669
aI1
aI01
aI00
aI00
aI00
aI00
aI00
aI00
aI00
aa(lp1576
I108944
aF49.0539
aF619.473
aVp2
p1577
aS'utopia'
p1578
aS'#656565'
p1579
aF8.88595
aI0
aI01
aI00
aI00
aI00
aI00
aI00
aI00
aI00
aa(lp1580
I234378
aF76.44544285714287
aF619.473
ag1577
aS'utopia'
p1581
aS'#656565'
p1582
aF8.88595
aI0
aI00
aI00
aI00
aI00
aI00
aI00
aI00
aI00
aa(lp1583
I104428
aF83.1167
aF619.473
aVp2
p1584
aS'utopia'
p1585
aS'#434343'
p1586
aF8.88595
aI0
aI01
aI00
aI00
aI00
aI00
aI00
aI00
aI00
aa(lp1587
I131455
aF293.418
aF617.251
aVp2
p1588
aS'utopia'
p1589
aS'#656565'
p1590
aF8.88595
aI0
aI01
aI00
aI00
aI00
aI00
aI00
aI00
aI00
aa(lp1591
I197416
aF308.968
aF617.251
aVp2
p1592
aS'utopia'
p1593
aS'#656565'
p1594
aF8.88595
aI0
aI01
aI00
aI00
aI00
aI00
aI00
aI00
aI00
aa(lp1595
I234378
aF326.23992000000004
aF617.251
ag1592
aS'utopia'
p1596
aS'#656565'
p1597
aF8.88595
aI0
aI00
aI00
aI00
aI00
aI00
aI00
aI00
aI00
aa(lp1598
I28425
aF332.664
aF617.251
aVp2
p1599
aS'utopia'
p1600
aS'#434343'
p1601
aF8.88595
aI0
aI01
aI00
aI00
aI00
aI00
aI00
aI00
aI00
aa(lp1602
I234378
aF378.575
aF617.251
aVp2
p1603
aS'utopia'
p1604
aS'#434343'
p1605
aF8.88595
aI0
aI00
aI00
aI00
aI00
aI00
aI00
aI00
aI00
aa(lp1606
I137944
aF383.1298636363636
aF617.251
ag1603
aS'utopia'
p1607
aS'#434343'
p1608
aF8.88595
aI0
aI01
aI00
aI00
aI00
aI00
aI00
aI00
aI00
aa(lp1609
I234378
aF414.1236363636363
aF617.251
ag1603
aS'utopia'
p1610
aS'#434343'
p1611
aF8.88595
aI0
aI00
aI00
aI00
aI00
aI00
aI00
aI00
aI00
aa(lp1612
I42298
aF428.67849999999993
aF617.251
ag1603
aS'utopia'
p1613
aS'#434343'
p1614
aF8.88595
aI0
aI01
aI00
aI00
aI00
aI00
aI00
aI00
aI00
aa(lp1615
I212271
aF49.0539
aF635.023
aVp2
p1616
aS'utopia'
p1617
aS'#656565'
p1618
aF8.88595
aI0
aI01
aI00
aI00
aI00
aI00
aI00
aI00
aI00
aa(lp1619
I12510
aF79.4142
aF635.023
aVp2
p1620
aS'utopia'
p1621
aS'#656565'
p1622
aF8.88595
aI0
aI01
aI00
aI00
aI00
aI00
aI00
aI00
aI00
aa(lp1623
I234378
aF101.72811428571428
aF635.023
ag1620
aS'utopia'
p1624
aS'#656565'
p1625
aF8.88595
aI0
aI00
aI00
aI00
aI00
aI00
aI00
aI00
aI00
aa(lp1626
I97834
aF107.553
aF635.023
aVp2
p1627
aS'utopia'
p1628
aS'#434343'
p1629
aF8.88595
aI0
aI01
aI00
aI00
aI00
aI00
aI00
aI00
aI00
aa(lp1630
I72722
aF293.418
aF632.802
aVp2
p1631
aS'utopia'
p1632
aS'#656565'
p1633
aF8.88595
aI0
aI01
aI00
aI00
aI00
aI00
aI00
aI00
aI00
aa(lp1634
I12510
aF346.733
aF632.802
aVp2
p1635
aS'utopia'
p1636
aS'#656565'
p1637
aF8.88595
aI0
aI01
aI00
aI00
aI00
aI00
aI00
aI00
aI00
aa(lp1638
I234378
aF369.0469142857143
aF632.802
ag1635
aS'utopia'
p1639
aS'#656565'
p1640
aF8.88595
aI0
aI00
aI00
aI00
aI00
aI00
aI00
aI00
aI00
aa(lp1641
I60201
aF374.872
aF632.802
aVp2
p1642
aS'utopia'
p1643
aS'#434343'
p1644
aF8.88595
aI0
aI01
aI00
aI00
aI00
aI00
aI00
aI00
aI00
aa(lp1645
I230071
aF391.903
aF632.802
aVp2
p1646
aS'utopia'
p1647
aS'#434343'
p1648
aF8.88595
aI0
aI01
aI00
aI00
aI00
aI00
aI00
aI00
aI00
aa(lp1649
I118366
aF49.0539
aF654.91
aVp2
p1650
aS'utopia'
p1651
aS'#656565'
p1652
aF10.3669
aI1
aI01
aI00
aI00
aI00
aI00
aI00
aI00
aI00
aa(lp1653
I234378
aF83.97235
aF654.91
ag1650
aS'utopia'
p1654
aS'#656565'
p1655
aF10.3669
aI1
aI00
aI00
aI00
aI00
aI00
aI00
aI00
aI00
aa(lp1656
I51933
aF293.418
aF652.688
aVp2
p1657
aS'utopia'
p1658
aS'#656565'
p1659
aF10.3669
aI1
aI01
aI00
aI00
aI00
aI00
aI00
aI00
aI00
aa(lp1660
I62768
aF321.556
aF652.688
aVp2
p1661
aS'utopia'
p1662
aS'#656565'
p1663
aF10.3669
aI1
aI01
aI00
aI00
aI00
aI00
aI00
aI00
aI00
aa(lp1664
I234378
aF49.0539
aF667.605
aVp2
p1665
aS'utopia'
p1666
aS'#000000'
p1667
aF8.88595
aI0
aI00
aI00
aI01
aI01
aI01
aI00
aI00
aI00
aa(lp1668
I234378
aF58.03226
aF667.605
ag1665
aS'utopia'
p1669
aS'#000000'
p1670
aF8.88595
aI0
aI00
aI00
aI00
aI00
aI00
aI00
aI00
aI00
aa(lp1671
I234378
aF62.52144
aF667.605
ag1665
aS'utopia'
p1672
aS'#000000'
p1673
aF8.88595
aI0
aI00
aI00
aI01
aI01
aI01
aI00
aI00
aI00
aa(lp1674
I125801
aF75.7117
aF667.605
aVp2
p1675
aS'utopia'
p1676
aS'#000000'
p1677
aF8.88595
aI0
aI00
aI00
aI00
aI00
aI00
aI00
aI00
aI00
aa(lp1678
I44521
aF93.4836
aF667.605
aVp2
p1679
aS'utopia'
p1680
aS'#000000'
p1681
aF8.88595
aI0
aI00
aI00
aI00
aI00
aI00
aI00
aI00
aI00
aa(lp1682
I234378
aF111.47518333333333
aF667.605
ag1679
aS'utopia'
p1683
aS'#000000'
p1684
aF8.88595
aI0
aI00
aI00
aI00
aI00
aI00
aI00
aI00
aI00
aa(lp1685
I159630
aF117.18
aF667.605
aVp2
p1686
aS'utopia'
p1687
aS'#000000'
p1688
aF8.88595
aI0
aI01
aI00
aI00
aI00
aI00
aI00
aI00
aI00
aa(lp1689
I85663
aF149.021
aF667.605
aVp2
p1690
aS'utopia'
p1691
aS'#000000'
p1692
aF8.88595
aI0
aI01
aI00
aI00
aI00
aI00
aI00
aI00
aI00
aa(lp1693
I234378
aF49.0539
aF677.972
aVp2
p1694
aS'utopia'
p1695
aS'#000000'
p1696
aF8.88595
aI0
aI00
aI00
aI01
aI00
aI00
aI00
aI00
aI00
aa(lp1697
I87333
aF63.8638
aF677.972
aVp2
p1698
aS'utopia'
p1699
aS'#000000'
p1700
aF8.88595
aI0
aI01
aI00
aI00
aI00
aI00
aI00
aI00
aI00
aa(lp1701
I234378
aF84.32371666666666
aF677.972
ag1698
aS'utopia'
p1702
aS'#000000'
p1703
aF8.88595
aI0
aI00
aI00
aI00
aI00
aI00
aI00
aI00
aI00
aa(lp1704
I234378
aF90.5217
aF677.972
aVp2
p1705
aS'utopia'
p1706
aS'#000000'
p1707
aF8.88595
aI0
aI01
aI00
aI00
aI00
aI00
aI00
aI00
aI00
aa(lp1708
I17283
aF130.508
aF677.972
aVp2
p1709
aS'utopia'
p1710
aS'#000000'
p1711
aF8.88595
aI0
aI01
aI00
aI00
aI00
aI00
aI00
aI00
aI00
aa(lp1712
I234378
aF157.89954285714288
aF677.972
ag1709
aS'utopia'
p1713
aS'#000000'
p1714
aF8.88595
aI0
aI00
aI00
aI00
aI00
aI00
aI00
aI00
aI00
aa(lp1715
I234378
aF49.0539
aF688.339
aVp2
p1716
aS'utopia'
p1717
aS'#000000'
p1718
aF8.88595
aI0
aI01
aI00
aI00
aI00
aI00
aI00
aI00
aI00
aa(lp1719
I234378
aF49.0539
aF698.706
aVp2
p1720
aS'utopia'
p1721
aS'#000000'
p1722
aF8.88595
aI0
aI00
aI00
aI01
aI01
aI01
aI00
aI00
aI00
aa(lp1723
I182663
aF49.0539
aF712.035
aVp2
p1724
aS'utopia'
p1725
aS'#656565'
p1726
aF8.88595
aI0
aI01
aI00
aI00
aI00
aI00
aI00
aI00
aI00
aa(lp1727
I82279
aF76.4522
aF712.035
aVp2
p1728
aS'utopia'
p1729
aS'#656565'
p1730
aF8.88595
aI0
aI01
aI00
aI00
aI00
aI00
aI00
aI00
aI00
aa(lp1731
I234378
aF96.09372
aF712.035
ag1728
aS'utopia'
p1732
aS'#656565'
p1733
aF8.88595
aI0
aI00
aI00
aI00
aI00
aI00
aI00
aI00
aI00
aa(lp1734
I234378
aF103.11
aF712.035
aVp2
p1735
aS'utopia'
p1736
aS'#000000'
p1737
aF8.88595
aI0
aI01
aI00
aI00
aI00
aI00
aI00
aI00
aI00
aa(lp1738
I31679
aF293.418
aF668.345
aVp2
p1739
aS'utopia'
p1740
aS'#656565'
p1741
aF8.88595
aI0
aI01
aI01
aI00
aI00
aI00
aI00
aI00
aI00
aa(lp1742
I51933
aF306.746
aF668.345
aVp2
p1743
aS'utopia'
p1744
aS'#656565'
p1745
aF8.88595
aI0
aI01
aI00
aI00
aI00
aI00
aI00
aI00
aI00
aa(lp1746
I12510
aF330.442
aF668.345
aVp2
p1747
aS'utopia'
p1748
aS'#656565'
p1749
aF8.88595
aI0
aI01
aI00
aI00
aI00
aI00
aI00
aI00
aI00
aa(lp1750
I234378
aF352.7559142857143
aF668.345
ag1747
aS'utopia'
p1751
aS'#656565'
p1752
aF8.88595
aI0
aI00
aI00
aI00
aI00
aI00
aI00
aI00
aI00
aa(lp1753
I109318
aF358.581
aF668.345
aVp2
p1754
aS'utopia'
p1755
aS'#434343'
p1756
aF8.88595
aI0
aI01
aI00
aI00
aI00
aI00
aI00
aI00
aI00
aa(lp1757
I234378
aF381.537
aF668.345
aVp2
p1758
aS'utopia'
p1759
aS'#434343'
p1760
aF8.88595
aI0
aI01
aI01
aI01
aI00
aI00
aI00
aI00
aI00
aa(lp1761
I222659
aF395.606
aF668.345
aVp2
p1762
aS'utopia'
p1763
aS'#434343'
p1764
aF8.88595
aI0
aI01
aI00
aI00
aI00
aI00
aI00
aI00
aI00
aa(lp1765
I234378
aF293.418
aF683.896
aVp2
p1766
aS'utopia'
p1767
aS'#656565'
p1768
aF8.88595
aI0
aI01
aI00
aI00
aI00
aI00
aI00
aI00
aI00
aa(lp1769
I234378
aF330.17652
aF683.896
ag1766
aS'utopia'
p1770
aS'#656565'
p1771
aF8.88595
aI0
aI00
aI00
aI00
aI00
aI00
aI00
aI00
aI00
aa(lp1772
I164802
aF336.366
aF683.896
aVp2
p1773
aS'utopia'
p1774
aS'#434343'
p1775
aF8.88595
aI0
aI01
aI00
aI00
aI00
aI00
aI00
aI00
aI00
aa(lp1776
I166771
aF293.418
aF703.783
aVp2
p1777
aS'utopia'
p1778
aS'#656565'
p1779
aF10.3669
aI1
aI01
aI00
aI00
aI00
aI00
aI00
aI00
aI00
aa(lp1780
I74833
aF349.695
aF703.783
aVp2
p1781
aS'utopia'
p1782
aS'#656565'
p1783
aF10.3669
aI1
aI01
aI00
aI00
aI00
aI00
aI00
aI00
aI00
aa(lp1784
I233758
aF293.418
aF719.44
aVp2
p1785
aS'utopia'
p1786
aS'#656565'
p1787
aF8.88595
aI0
aI01
aI00
aI00
aI00
aI00
aI00
aI00
aI00
aa(lp1788
I234378
aF327.0898222222222
aF719.44
ag1785
aS'utopia'
p1789
aS'#656565'
p1790
aF8.88595
aI0
aI00
aI00
aI00
aI00
aI00
aI00
aI00
aI00
aa(lp1791
I230332
aF333.404
aF719.44
aVp2
p1792
aS'utopia'
p1793
aS'#434343'
p1794
aF8.88595
aI0
aI01
aI00
aI00
aI00
aI00
aI00
aI00
aI00
aa(lp1795
I151511
aF293.418
aF734.99
aVp2
p1796
aS'utopia'
p1797
aS'#656565'
p1798
aF8.88595
aI0
aI01
aI00
aI00
aI00
aI00
aI00
aI00
aI00
aa(lp1799
I234378
aF334.145
aF734.99
aVp2
p1800
aS'utopia'
p1801
aS'#656565'
p1802
aF8.88595
aI0
aI01
aI00
aI00
aI00
aI00
aI00
aI00
aI00
aa(lp1803
I234378
aF375.9870909090909
aF734.99
ag1800
aS'utopia'
p1804
aS'#656565'
p1805
aF8.88595
aI0
aI00
aI00
aI00
aI00
aI00
aI00
aI00
aI00
aa(lp1806
I201816
aF382.277
aF734.99
aVp2
p1807
aS'utopia'
p1808
aS'#434343'
p1809
aF8.88595
aI0
aI01
aI00
aI00
aI00
aI00
aI00
aI00
aI00
aa(lp1810
I1
aI1
aI0
aI0
aI0
aI0
aI0
aI0
aI0
aI0
aI0
aI0
aI0
aI0
aI0
aI0
aI0
aI0
aI0
aI0
aI0
aI0
aI0
aI0
aI0
aI0
aI0
aI0
aI0
aI0
aI0
aI0
aI0
aI0
aI0
aI0
aI0
aI0
aI0
aI0
aI0
aI0
aI0
aI0
aI0
aI0
aI0
aI0
aI0
aI0
aI0
aI0
aI0
aI0
aI0
aI0
aI0
aI0
aI0
aI0
aI0
aI0
aI0
aI0
aI0
aI0
aI0
aI0
aI0
aI0
aI0
aI0
aI0
aI0
aI0
aI0
aI0
aI0
aI0
aI0
aI0
aI0
aI0
aI0
aI0
aI0
aI0
aI0
aI0
aI0
aI0
aI0
aI0
aI0
aI0
aI0
aI0
aI0
aI0
aI0
aI0
aI0
aI0
aI0
aI0
aI0
aI0
aI0
aI0
aI0
aI0
aI0
aI0
aI0
aI0
aI0
aI0
aI0
aI0
aI0
aI0
aI0
aI0
aI0
aI0
aI0
aI0
aI0
aI0
aI0
aI0
aI0
aI0
aI0
aI0
aI0
aI0
aI0
aI0
aI0
aI0
aI0
aI0
aI0
aI0
aI0
aI0
aI0
aI0
aI0
aI0
aI0
aI0
aI0
aI0
aI0
aI0
aI0
aI0
aI0
aI0
aI0
aI0
aI0
aI0
aI0
aI0
aI0
aI0
aI0
aI0
aI0
aI0
aI0
aI0
aI0
aI0
aI0
aI0
aI0
aI0
aI0
aI0
aI0
aI0
aI0
aI0
aI0
aI0
aI1
aI1
aI0
aI0
aI0
aI0
aI0
aI0
aI0
aI0
aI0
aI0
aI0
aI0
aI0
aI0
aI0
aI0
aI0
aI0
aI0
aI0
aI0
aI0
aI0
aI0
aI0
aI0
aI0
aI0
aI0
aI0
aI0
aI0
aI0
aI0
aI0
aI0
aI0
aI0
aI0
aI0
aI0
aI0
aI0
aI0
aI0
aI0
aI0
aI0
aI0
aI0
aI0
aI0
aI0
aI0
aI0
aI0
aI0
aI0
aI0
aI0
aI0
aI0
aI0
aI0
aI0
aI0
aI0
aI0
aI0
aI0
aI0
aI0
aI0
aI0
aI0
aI0
aI0
aI0
aI0
aI0
aI0
aI0
aI0
aI0
aI0
aI0
aI0
aI0
aI0
aI0
aI0
aI0
aI0
aI0
aI0
aI0
aI0
aI0
aI0
aI0
aI1
aI0
aI0
aI0
aI0
aI0
aI0
aI0
aI0
aI0
aI0
aI0
aI0
aI0
aI0
aI0
aI0
aI0
aI0
aI0
aI0
aI0
aI0
aI0
aI0
aI0
aI0
aI1
aI1
aI0
aI0
aI0
aI0
aI0
aI0
aI0
aI0
aI0
aI0
aI0
aI0
aI0
aI0
aI0
aI0
aI0
aI0
aI0
aI0
aI0
aI0
aI0
aI0
aI0
aI0
aI0
aI0
aI0
aI0
aI0
aI0
aI0
aI0
aI0
aI0
aI0
aI0
aI0
aI0
aI0
aI0
aI0
aI0
aI0
aI0
aI0
aI0
aI0
aI0
aI0
aI0
aI0
aI0
aI0
aI0
aI0
aI0
aI0
aI0
aI0
aI0
aI0
aI0
aI0
aI0
aI0
aI0
aI0
aI0
aI0
aI0
aI0
aI0
aI0
aI1
aI1
aI0
aI0
aI0
aI1
aI0
aI0
aI0
aI1
aI1
aI0
aI0
aI0
aI0
aI0
aI0
aI0
aI0
aI0
aI0
aI0
aI0
aI0
aI0
aI0
aI0
aI0
aI0
aI0
aI0
aI0
aI0
aI0
aI0
aI0
aI0
aI0
aI0
aI0
aI0
aI0
aI0
aI0
aI0
aI0
aI0
aI0
aI0
aI0
aI0
aI0
aI0
aI0
aI0
aI0
aI0
aI0
aI0
aI0
aI0
aI0
aI0
aI0
aI0
aI0
aI0
aI0
aI0
aI0
aI0
aI0
aI0
aI0
aI0
aI0
aI0
aI0
aI0
aI0
aI0
aI0
aI0
aI0
aI0
aI0
atp1811
.