((lp0
(lp1
I234378
aF40.9084
aF53.0111
aVp1
p2
aS'utopia'
p3
aS'#02304b'
p4
aF11.8479
aI1
aI01
aI00
aI00
aI00
aI00
aI00
aI00
aI00
aa(lp5
I234378
aF80.1547
aF53.0111
aVp1
p6
aS'utopia'
p7
aS'#02304b'
p8
aF11.8479
aI1
aI01
aI00
aI00
aI00
aI00
aI00
aI00
aI00
aa(lp9
I234378
aF120.141
aF53.0111
aVp1
p10
aS'utopia'
p11
aS'#02304b'
p12
aF11.8479
aI1
aI01
aI00
aI00
aI00
aI00
aI00
aI00
aI00
aa(lp13
I16915
aF46.8324
aF74.4677
aVp1
p14
aS'utopia'
p15
aS'#656565'
p16
aF8.88595
aI0
aI01
aI00
aI00
aI00
aI00
aI00
aI00
aI00
aa(lp17
I51933
aF69.0473
aF74.4677
aVp1
p18
aS'utopia'
p19
aS'#656565'
p20
aF8.88595
aI0
aI01
aI00
aI00
aI00
aI00
aI00
aI00
aI00
aa(lp21
I60220
aF92.7431
aF74.4677
aVp1
p22
aS'utopia'
p23
aS'#656565'
p24
aF8.88595
aI0
aI01
aI00
aI00
aI00
aI00
aI00
aI00
aI00
aa(lp25
I234378
aF134.5851909090909
aF74.4677
ag22
aS'utopia'
p26
aS'#656565'
p27
aF8.88595
aI0
aI00
aI00
aI00
aI00
aI00
aI00
aI00
aI00
aa(lp28
I234378
aF140.875
aF74.4677
aVp1
p29
aS'utopia'
p30
aS'#656565'
p31
aF8.88595
aI0
aI00
aI00
aI01
aI01
aI00
aI00
aI00
aI00
aa(lp32
I234378
aF144.6545
aF74.4677
ag29
aS'utopia'
p33
aS'#656565'
p34
aF8.88595
aI0
aI00
aI00
aI00
aI00
aI00
aI00
aI00
aI00
aa(lp35
I234378
aF148.43400000000003
aF74.4677
ag29
aS'utopia'
p36
aS'#656565'
p37
aF8.88595
aI0
aI00
aI00
aI01
aI01
aI00
aI00
aI00
aI00
aa(lp38
I234378
aF154.204
aF74.4677
aVp1
p39
aS'utopia'
p40
aS'#656565'
p41
aF8.88595
aI0
aI01
aI00
aI00
aI00
aI00
aI00
aI00
aI00
aa(lp42
I234378
aF177.9
aF74.4677
aVp1
p43
aS'utopia'
p44
aS'#656565'
p45
aF8.88595
aI0
aI00
aI00
aI00
aI00
aI00
aI00
aI00
aI00
aa(lp46
I234378
aF180.75846666666666
aF74.4677
ag43
aS'utopia'
p47
aS'#656565'
p48
aF8.88595
aI0
aI00
aI00
aI00
aI00
aI00
aI00
aI00
aI00
aa(lp49
I63022
aF191.97
aF74.4677
aVp1
p50
aS'utopia'
p51
aS'#656565'
p52
aF8.88595
aI0
aI01
aI00
aI00
aI00
aI00
aI00
aI00
aI00
aa(lp53
I85218
aF226.032
aF74.4677
aVp1
p54
aS'utopia'
p55
aS'#656565'
p56
aF8.88595
aI0
aI00
aI00
aI00
aI00
aI00
aI00
aI00
aI00
aa(lp57
I119502
aF243.064
aF74.4677
aVp1
p58
aS'utopia'
p59
aS'#656565'
p60
aF8.88595
aI0
aI01
aI00
aI00
aI00
aI00
aI00
aI00
aI00
aa(lp61
I68032
aF273.424
aF74.4677
aVp1
p62
aS'utopia'
p63
aS'#656565'
p64
aF8.88595
aI0
aI01
aI00
aI00
aI00
aI00
aI00
aI00
aI00
aa(lp65
I234378
aF328.961
aF74.4677
aVp1
p66
aS'utopia'
p67
aS'#656565'
p68
aF8.88595
aI0
aI00
aI00
aI00
aI00
aI00
aI00
aI00
aI00
aa(lp69
I55966
aF332.94190000000003
aF74.4677
ag66
aS'utopia'
p70
aS'#656565'
p71
aF8.88595
aI0
aI01
aI00
aI00
aI00
aI00
aI00
aI00
aI00
aa(lp72
I11208
aF359.322
aF74.4677
aVp1
p73
aS'utopia'
p74
aS'#656565'
p75
aF8.88595
aI0
aI01
aI00
aI00
aI00
aI00
aI00
aI00
aI00
aa(lp76
I234378
aF398.568
aF74.4677
aVp1
p77
aS'utopia'
p78
aS'#656565'
p79
aF8.88595
aI0
aI01
aI00
aI00
aI00
aI00
aI00
aI00
aI00
aa(lp80
I234378
aF432.2450666666666
aF74.4677
ag77
aS'utopia'
p81
aS'#656565'
p82
aF8.88595
aI0
aI00
aI00
aI00
aI00
aI00
aI00
aI00
aI00
aa(lp83
I234378
aF59.4208
aF124.821
aVp1
p84
aS'utopia'
p85
aS'#0d75b4'
p86
aF8.88595
aI0
aI00
aI00
aI00
aI00
aI00
aI01
aI00
aI00
aa(lp87
I234378
aF301.563
aF124.081
aVp1
p88
aS'utopia'
p89
aS'#000000'
p90
aF8.88595
aI0
aI00
aI00
aI01
aI01
aI01
aI00
aI00
aI00
aa(lp91
I234378
aF59.4208
aF141.853
aVp1
p92
aS'utopia'
p93
aS'#0d75b4'
p94
aF8.88595
aI0
aI00
aI00
aI00
aI00
aI00
aI01
aI00
aI00
aa(lp95
I234378
aF301.563
aF141.853
aVp1
p96
aS'utopia'
p97
aS'#000000'
p98
aF8.88595
aI0
aI00
aI00
aI01
aI01
aI01
aI00
aI00
aI00
aa(lp99
I15548
aF55.7183
aF176.656
aVp1
p100
aS'utopia'
p101
aS'#878787'
p102
aF8.88595
aI0
aI01
aI00
aI00
aI00
aI00
aI00
aI00
aI00
aa(lp103
I104542
aF89.0407
aF176.656
aVp1
p104
aS'utopia'
p105
aS'#878787'
p106
aF8.88595
aI0
aI01
aI00
aI00
aI00
aI00
aI00
aI00
aI00
aa(lp107
I234378
aF133.94655
aF176.656
ag104
aS'utopia'
p108
aS'#878787'
p109
aF8.88595
aI0
aI00
aI00
aI00
aI00
aI00
aI00
aI00
aI00
aa(lp110
I11208
aF142.356
aF176.656
aVp1
p111
aS'utopia'
p112
aS'#000000'
p113
aF8.88595
aI0
aI01
aI00
aI00
aI00
aI00
aI00
aI00
aI00
aa(lp114
I16915
aF308.227
aF176.656
aVp1
p115
aS'utopia'
p116
aS'#878787'
p117
aF8.88595
aI0
aI01
aI00
aI00
aI00
aI00
aI00
aI00
aI00
aa(lp118
I60220
aF330.442
aF176.656
aVp1
p119
aS'utopia'
p120
aS'#878787'
p121
aF8.88595
aI0
aI01
aI00
aI00
aI00
aI00
aI00
aI00
aI00
aa(lp122
I234378
aF372.28409090909093
aF176.656
ag119
aS'utopia'
p123
aS'#878787'
p124
aF8.88595
aI0
aI00
aI00
aI00
aI00
aI00
aI00
aI00
aI00
aa(lp125
I234378
aF380.796
aF176.656
aVp1
p126
aS'utopia'
p127
aS'#000000'
p128
aF8.88595
aI0
aI00
aI00
aI01
aI01
aI00
aI00
aI00
aI00
aa(lp129
I91136
aF387.46
aF176.656
aVp1
p130
aS'utopia'
p131
aS'#000000'
p132
aF8.88595
aI0
aI01
aI00
aI00
aI00
aI00
aI00
aI00
aI00
aa(lp133
I234378
aF403.18559999999997
aF176.656
ag130
aS'utopia'
p134
aS'#000000'
p135
aF8.88595
aI0
aI00
aI00
aI00
aI00
aI00
aI00
aI00
aI00
aa(lp136
I59734
aF407.11699999999996
aF176.656
ag130
aS'utopia'
p137
aS'#000000'
p138
aF8.88595
aI0
aI00
aI00
aI00
aI00
aI00
aI00
aI00
aI00
aa(lp139
I234378
aF411.04839999999996
aF176.656
ag130
aS'utopia'
p140
aS'#000000'
p141
aF8.88595
aI0
aI00
aI00
aI00
aI00
aI00
aI00
aI00
aI00
aa(lp142
I234378
aF417.08
aF176.656
aVp1
p143
aS'utopia'
p144
aS'#000000'
p145
aF8.88595
aI0
aI00
aI00
aI01
aI01
aI00
aI00
aI00
aI00
aa(lp146
I63729
aF423.745
aF176.656
aVp1
p147
aS'utopia'
p148
aS'#000000'
p149
aF8.88595
aI0
aI01
aI00
aI00
aI00
aI00
aI00
aI00
aI00
aa(lp150
I234378
aF446.4985625
aF176.656
ag147
aS'utopia'
p151
aS'#000000'
p152
aF8.88595
aI0
aI00
aI00
aI00
aI00
aI00
aI00
aI00
aI00
aa(lp153
I59734
aF451.04927499999997
aF176.656
ag147
aS'utopia'
p154
aS'#000000'
p155
aF8.88595
aI0
aI00
aI00
aI00
aI00
aI00
aI00
aI00
aI00
aa(lp156
I234378
aF455.59998749999994
aF176.656
ag147
aS'utopia'
p157
aS'#000000'
p158
aF8.88595
aI0
aI00
aI00
aI00
aI00
aI00
aI00
aI00
aI00
aa(lp159
I15548
aF55.7183
aF194.428
aVp1
p160
aS'utopia'
p161
aS'#878787'
p162
aF8.88595
aI0
aI01
aI00
aI00
aI00
aI00
aI00
aI00
aI00
aa(lp163
I2006
aF89.0407
aF194.428
aVp1
p164
aS'utopia'
p165
aS'#878787'
p166
aF8.88595
aI0
aI01
aI00
aI00
aI00
aI00
aI00
aI00
aI00
aa(lp167
I234378
aF124.77815
aF194.428
ag164
aS'utopia'
p168
aS'#878787'
p169
aF8.88595
aI0
aI00
aI00
aI00
aI00
aI00
aI00
aI00
aI00
aa(lp170
I234378
aF134.211
aF194.428
aVp1
p171
aS'utopia'
p172
aS'#000000'
p173
aF8.88595
aI0
aI01
aI00
aI00
aI00
aI00
aI00
aI00
aI00
aa(lp174
I91539
aF173.457
aF194.428
aVp1
p175
aS'utopia'
p176
aS'#000000'
p177
aF8.88595
aI0
aI01
aI00
aI00
aI00
aI00
aI00
aI00
aI00
aa(lp178
I229300
aF308.227
aF194.428
aVp1
p179
aS'utopia'
p180
aS'#878787'
p181
aF8.88595
aI0
aI01
aI00
aI00
aI00
aI00
aI00
aI00
aI00
aa(lp182
I78894
aF338.588
aF194.428
aVp1
p183
aS'utopia'
p184
aS'#878787'
p185
aF8.88595
aI0
aI01
aI00
aI00
aI00
aI00
aI00
aI00
aI00
aa(lp186
I234378
aF360.9019142857143
aF194.428
ag183
aS'utopia'
p187
aS'#878787'
p188
aF8.88595
aI0
aI00
aI00
aI00
aI00
aI00
aI00
aI00
aI00
aa(lp189
I234378
aF368.948
aF194.428
aVp1
p190
aS'utopia'
p191
aS'#000000'
p192
aF8.88595
aI0
aI01
aI00
aI00
aI00
aI00
aI00
aI00
aI00
aa(lp193
I234378
aF380.796
aF194.428
aVp1
p194
aS'utopia'
p195
aS'#000000'
p196
aF8.88595
aI0
aI00
aI00
aI01
aI01
aI01
aI00
aI00
aI00
aa(lp197
I234378
aF388.6867
aF194.428
ag194
aS'utopia'
p198
aS'#000000'
p199
aF8.88595
aI0
aI00
aI00
aI00
aI00
aI00
aI00
aI00
aI00
aa(lp200
I234378
aF392.63205
aF194.428
ag194
aS'utopia'
p201
aS'#000000'
p202
aF8.88595
aI0
aI00
aI00
aI01
aI01
aI00
aI00
aI00
aI00
aa(lp203
I234378
aF398.568
aF194.428
aVp1
p204
aS'utopia'
p205
aS'#000000'
p206
aF8.88595
aI0
aI01
aI00
aI00
aI00
aI00
aI00
aI00
aI00
aa(lp207
I15548
aF55.7183
aF212.2
aVp1
p208
aS'utopia'
p209
aS'#878787'
p210
aF8.88595
aI0
aI01
aI00
aI00
aI00
aI00
aI00
aI00
aI00
aa(lp211
I17057
aF89.0407
aF212.2
aVp1
p212
aS'utopia'
p213
aS'#878787'
p214
aF8.88595
aI0
aI01
aI00
aI00
aI00
aI00
aI00
aI00
aI00
aa(lp215
I234378
aF122.05430000000001
aF212.2
ag212
aS'utopia'
p216
aS'#878787'
p217
aF8.88595
aI0
aI00
aI00
aI00
aI00
aI00
aI00
aI00
aI00
aa(lp218
I234378
aF130.508
aF212.2
aVp1
p219
aS'utopia'
p220
aS'#000000'
p221
aF8.88595
aI0
aI01
aI00
aI00
aI00
aI00
aI00
aI00
aI00
aa(lp222
I234378
aF308.227
aF212.2
aVp1
p223
aS'utopia'
p224
aS'#878787'
p225
aF8.88595
aI0
aI01
aI00
aI00
aI00
aI00
aI00
aI00
aI00
aa(lp226
I234378
aF346.733
aF212.2
aVp1
p227
aS'utopia'
p228
aS'#878787'
p229
aF8.88595
aI0
aI01
aI01
aI00
aI00
aI00
aI00
aI00
aI00
aa(lp230
I234378
aF361.2593
aF212.2
ag227
aS'utopia'
p231
aS'#878787'
p232
aF8.88595
aI0
aI00
aI00
aI00
aI00
aI00
aI00
aI00
aI00
aa(lp233
I63091
aF370.429
aF212.2
aVp1
p234
aS'utopia'
p235
aS'#000000'
p236
aF8.88595
aI0
aI01
aI00
aI00
aI00
aI00
aI00
aI00
aI00
aa(lp237
I234378
aF387.46
aF212.2
aVp1
p238
aS'utopia'
p239
aS'#000000'
p240
aF8.88595
aI0
aI01
aI00
aI00
aI00
aI00
aI00
aI00
aI00
aa(lp241
I234378
aF55.7183
aF229.972
aVp1
p242
aS'utopia'
p243
aS'#878787'
p244
aF8.88595
aI0
aI01
aI00
aI00
aI00
aI00
aI00
aI00
aI00
aa(lp245
I234378
aF70.62062
aF229.972
ag242
aS'utopia'
p246
aS'#878787'
p247
aF8.88595
aI0
aI00
aI00
aI00
aI00
aI00
aI00
aI00
aI00
aa(lp248
I17057
aF76.4522
aF229.972
aVp1
p249
aS'utopia'
p250
aS'#878787'
p251
aF8.88595
aI0
aI01
aI00
aI00
aI00
aI00
aI00
aI00
aI00
aa(lp252
I234378
aF109.4658
aF229.972
ag249
aS'utopia'
p253
aS'#878787'
p254
aF8.88595
aI0
aI00
aI00
aI00
aI00
aI00
aI00
aI00
aI00
aa(lp255
I70852
aF117.92
aF229.972
aVp1
p256
aS'utopia'
p257
aS'#000000'
p258
aF8.88595
aI0
aI01
aI00
aI00
aI00
aI00
aI00
aI00
aI00
aa(lp259
I234378
aF140.875
aF229.972
aVp1
p260
aS'utopia'
p261
aS'#000000'
p262
aF8.88595
aI0
aI00
aI00
aI00
aI00
aI00
aI00
aI00
aI00
aa(lp263
I234378
aF147.54
aF229.972
aVp1
p264
aS'utopia'
p265
aS'#000000'
p266
aF8.88595
aI0
aI01
aI01
aI00
aI00
aI00
aI00
aI00
aI00
aa(lp267
I7204
aF308.227
aF229.972
aVp1
p268
aS'utopia'
p269
aS'#878787'
p270
aF8.88595
aI0
aI01
aI00
aI00
aI00
aI00
aI00
aI00
aI00
aa(lp271
I189220
aF340.809
aF229.972
aVp1
p272
aS'utopia'
p273
aS'#878787'
p274
aF8.88595
aI0
aI01
aI00
aI00
aI00
aI00
aI00
aI00
aI00
aa(lp275
I234378
aF366.93111428571433
aF229.972
ag272
aS'utopia'
p276
aS'#878787'
p277
aF8.88595
aI0
aI00
aI00
aI00
aI00
aI00
aI00
aI00
aI00
aa(lp278
I27780
aF375.613
aF229.972
aVp1
p279
aS'utopia'
p280
aS'#000000'
p281
aF8.88595
aI0
aI01
aI01
aI00
aI00
aI00
aI00
aI00
aI00
aa(lp282
I234378
aF379.93184545454545
aF229.972
ag279
aS'utopia'
p283
aS'#000000'
p284
aF8.88595
aI0
aI00
aI00
aI00
aI00
aI00
aI00
aI00
aI00
aa(lp285
I2737
aF384.2506909090909
aF229.972
ag279
aS'utopia'
p286
aS'#000000'
p287
aF8.88595
aI0
aI01
aI00
aI00
aI00
aI00
aI00
aI00
aI00
aa(lp288
I234378
aF401.5260727272727
aF229.972
ag279
aS'utopia'
p289
aS'#000000'
p290
aF8.88595
aI0
aI00
aI00
aI00
aI00
aI00
aI00
aI00
aI00
aa(lp291
I27780
aF398.8449181818182
aF229.972
ag279
aS'utopia'
p292
aS'#000000'
p293
aF8.88595
aI0
aI01
aI01
aI00
aI00
aI00
aI00
aI00
aI00
aa(lp294
I234378
aF403.1637636363636
aF229.972
ag279
aS'utopia'
p295
aS'#000000'
p296
aF8.88595
aI0
aI00
aI00
aI00
aI00
aI00
aI00
aI00
aI00
aa(lp297
I64620
aF414.4826090909091
aF229.972
ag279
aS'utopia'
p298
aS'#000000'
p299
aF8.88595
aI0
aI01
aI01
aI00
aI00
aI00
aI00
aI00
aI00
aa(lp300
I234378
aF409.80145454545453
aF229.972
ag279
aS'utopia'
p301
aS'#000000'
p302
aF8.88595
aI0
aI00
aI00
aI00
aI00
aI00
aI00
aI00
aI00
aa(lp303
I98580
aF55.7183
aF247.744
aVp1
p304
aS'utopia'
p305
aS'#878787'
p306
aF8.88595
aI0
aI01
aI00
aI00
aI00
aI00
aI00
aI00
aI00
aa(lp307
I166289
aF100.148
aF247.744
aVp1
p308
aS'utopia'
p309
aS'#878787'
p310
aF8.88595
aI0
aI01
aI00
aI00
aI00
aI00
aI00
aI00
aI00
aa(lp311
I234378
aF116.82751999999999
aF247.744
ag308
aS'utopia'
p312
aS'#878787'
p313
aF8.88595
aI0
aI00
aI00
aI00
aI00
aI00
aI00
aI00
aI00
aa(lp314
I22476
aF125.325
aF247.744
aVp1
p315
aS'utopia'
p316
aS'#000000'
p317
aF8.88595
aI0
aI01
aI01
aI00
aI00
aI00
aI00
aI00
aI00
aa(lp318
I234378
aF135.692
aF247.744
aVp1
p319
aS'utopia'
p320
aS'#000000'
p321
aF8.88595
aI0
aI01
aI00
aI00
aI00
aI00
aI00
aI00
aI00
aa(lp322
I234378
aF178.641
aF247.744
aVp1
p323
aS'utopia'
p324
aS'#000000'
p325
aF8.88595
aI0
aI01
aI00
aI00
aI00
aI00
aI00
aI00
aI00
aa(lp326
I234378
aF214.925
aF247.744
aVp1
p327
aS'utopia'
p328
aS'#000000'
p329
aF8.88595
aI0
aI01
aI00
aI00
aI00
aI00
aI00
aI00
aI00
aa(lp330
I48671
aF308.227
aF247.744
aVp1
p331
aS'utopia'
p332
aS'#878787'
p333
aF8.88595
aI0
aI01
aI00
aI00
aI00
aI00
aI00
aI00
aI00
aa(lp334
I129688
aF336.366
aF247.744
aVp1
p335
aS'utopia'
p336
aS'#878787'
p337
aF8.88595
aI0
aI00
aI00
aI00
aI00
aI00
aI00
aI00
aI00
aa(lp338
I234378
aF360.58405714285715
aF247.744
ag335
aS'utopia'
p339
aS'#878787'
p340
aF8.88595
aI0
aI00
aI00
aI00
aI00
aI00
aI00
aI00
aI00
aa(lp341
I234378
aF368.948
aF247.744
aVp1
p342
aS'utopia'
p343
aS'#000000'
p344
aF8.88595
aI0
aI00
aI00
aI01
aI01
aI00
aI00
aI00
aI00
aa(lp345
I234378
aF375.613
aF247.744
aVp1
p346
aS'utopia'
p347
aS'#000000'
p348
aF8.88595
aI0
aI01
aI00
aI00
aI00
aI00
aI00
aI00
aI00
aa(lp349
I176435
aF55.7183
aF265.516
aVp1
p350
aS'utopia'
p351
aS'#878787'
p352
aF8.88595
aI0
aI01
aI00
aI00
aI00
aI00
aI00
aI00
aI00
aa(lp353
I234378
aF71.80542
aF265.516
ag350
aS'utopia'
p354
aS'#878787'
p355
aF8.88595
aI0
aI00
aI00
aI00
aI00
aI00
aI00
aI00
aI00
aa(lp356
I234378
aF80.1547
aF265.516
aVp1
p357
aS'utopia'
p358
aS'#000000'
p359
aF8.88595
aI0
aI01
aI00
aI00
aI00
aI00
aI00
aI00
aI00
aa(lp360
I100815
aF117.18
aF265.516
aVp1
p361
aS'utopia'
p362
aS'#000000'
p363
aF8.88595
aI0
aI01
aI00
aI00
aI00
aI00
aI00
aI00
aI00
aa(lp364
I74589
aF55.7183
aF283.288
aVp1
p365
aS'utopia'
p366
aS'#878787'
p367
aF8.88595
aI0
aI01
aI00
aI00
aI00
aI00
aI00
aI00
aI00
aa(lp368
I234378
aF87.41545555555555
aF283.288
ag365
aS'utopia'
p369
aS'#878787'
p370
aF8.88595
aI0
aI00
aI00
aI00
aI00
aI00
aI00
aI00
aI00
aa(lp371
I22476
aF95.7051
aF283.288
aVp1
p372
aS'utopia'
p373
aS'#000000'
p374
aF8.88595
aI0
aI01
aI01
aI00
aI00
aI00
aI00
aI00
aI00
aa(lp375
I234378
aF105.30374
aF283.288
ag372
aS'utopia'
p376
aS'#000000'
p377
aF8.88595
aI0
aI01
aI00
aI00
aI00
aI00
aI00
aI00
aI00
aa(lp378
I234378
aF139.69830000000002
aF283.288
ag372
aS'utopia'
p379
aS'#000000'
p380
aF8.88595
aI0
aI00
aI00
aI00
aI00
aI00
aI00
aI00
aI00
aa(lp381
I234378
aF134.99762
aF283.288
ag372
aS'utopia'
p382
aS'#000000'
p383
aF8.88595
aI0
aI01
aI00
aI00
aI00
aI00
aI00
aI00
aI00
aa(lp384
I234378
aF183.824
aF283.288
aVp1
p385
aS'utopia'
p386
aS'#000000'
p387
aF8.88595
aI0
aI01
aI00
aI00
aI00
aI00
aI00
aI00
aI00
aa(lp388
I231013
aF55.7183
aF301.059
aVp1
p389
aS'utopia'
p390
aS'#878787'
p391
aF8.88595
aI0
aI01
aI00
aI00
aI00
aI00
aI00
aI00
aI00
aa(lp392
I234378
aF72.7498
aF301.059
aVp1
p393
aS'utopia'
p394
aS'#878787'
p395
aF8.88595
aI0
aI01
aI00
aI00
aI00
aI00
aI00
aI00
aI00
aa(lp396
I234378
aF91.25542857142857
aF301.059
ag393
aS'utopia'
p397
aS'#878787'
p398
aF8.88595
aI0
aI00
aI00
aI00
aI00
aI00
aI00
aI00
aI00
aa(lp399
I84662
aF98.6671
aF301.059
aVp1
p400
aS'utopia'
p401
aS'#000000'
p402
aF8.88595
aI0
aI01
aI00
aI00
aI00
aI00
aI00
aI00
aI00
aa(lp403
I21716
aF116.30042
aF301.059
ag400
aS'utopia'
p404
aS'#000000'
p405
aF8.88595
aI0
aI01
aI00
aI00
aI00
aI00
aI00
aI00
aI00
aa(lp406
I234378
aF132.93374
aF301.059
ag400
aS'utopia'
p407
aS'#000000'
p408
aF8.88595
aI0
aI00
aI00
aI00
aI00
aI00
aI00
aI00
aI00
aa(lp409
I148996
aF142.356
aF301.059
aVp1
p410
aS'utopia'
p411
aS'#000000'
p412
aF8.88595
aI0
aI01
aI00
aI00
aI00
aI00
aI00
aI00
aI00
aa(lp413
I234378
aF165.93934285714286
aF301.059
ag410
aS'utopia'
p414
aS'#000000'
p415
aF8.88595
aI0
aI00
aI00
aI00
aI00
aI00
aI00
aI00
aI00
aa(lp416
I176767
aF171.976
aF301.059
aVp1
p417
aS'utopia'
p418
aS'#000000'
p419
aF8.88595
aI0
aI01
aI00
aI00
aI00
aI00
aI00
aI00
aI00
aa(lp420
I234378
aF210.06742
aF301.059
ag417
aS'utopia'
p421
aS'#000000'
p422
aF8.88595
aI0
aI00
aI00
aI00
aI00
aI00
aI00
aI00
aI00
aa(lp423
I21716
aF216.406
aF301.059
aVp1
p424
aS'utopia'
p425
aS'#000000'
p426
aF8.88595
aI0
aI01
aI00
aI00
aI00
aI00
aI00
aI00
aI00
aa(lp427
I17350
aF234.918
aF301.059
aVp1
p428
aS'utopia'
p429
aS'#000000'
p430
aF8.88595
aI0
aI01
aI00
aI00
aI00
aI00
aI00
aI00
aI00
aa(lp431
I234378
aF254.912
aF301.059
aVp1
p432
aS'utopia'
p433
aS'#000000'
p434
aF8.88595
aI0
aI01
aI00
aI00
aI00
aI00
aI00
aI00
aI00
aa(lp435
I234378
aF285.2927111111111
aF301.059
ag432
aS'utopia'
p436
aS'#000000'
p437
aF8.88595
aI0
aI00
aI00
aI00
aI00
aI00
aI00
aI00
aI00
aa(lp438
I21716
aF55.7183
aF311.426
aVp1
p439
aS'utopia'
p440
aS'#000000'
p441
aF8.88595
aI0
aI01
aI00
aI00
aI00
aI00
aI00
aI00
aI00
aa(lp442
I234378
aF74.2307
aF311.426
aVp1
p443
aS'utopia'
p444
aS'#000000'
p445
aF8.88595
aI0
aI01
aI00
aI00
aI00
aI00
aI00
aI00
aI00
aa(lp446
I234378
aF117.18
aF311.426
aVp1
p447
aS'utopia'
p448
aS'#000000'
p449
aF8.88595
aI0
aI01
aI00
aI00
aI00
aI00
aI00
aI00
aI00
aa(lp450
I234378
aF147.56071111111112
aF311.426
ag447
aS'utopia'
p451
aS'#000000'
p452
aF8.88595
aI0
aI00
aI00
aI00
aI00
aI00
aI00
aI00
aI00
aa(lp453
I218862
aF153.464
aF311.426
aVp1
p454
aS'utopia'
p455
aS'#000000'
p456
aF8.88595
aI0
aI01
aI00
aI00
aI00
aI00
aI00
aI00
aI00
aa(lp457
I234378
aF174.198
aF311.426
aVp1
p458
aS'utopia'
p459
aS'#000000'
p460
aF8.88595
aI0
aI01
aI00
aI00
aI00
aI00
aI00
aI00
aI00
aa(lp461
I234378
aF199.56853750000002
aF311.426
ag458
aS'utopia'
p462
aS'#000000'
p463
aF8.88595
aI0
aI00
aI00
aI00
aI00
aI00
aI00
aI00
aI00
aa(lp464
I234378
aF205.299
aF311.426
aVp1
p465
aS'utopia'
p466
aS'#000000'
p467
aF8.88595
aI0
aI00
aI00
aI01
aI00
aI00
aI00
aI00
aI00
aa(lp468
I234378
aF224.551
aF311.426
aVp1
p469
aS'utopia'
p470
aS'#000000'
p471
aF8.88595
aI0
aI00
aI00
aI00
aI00
aI00
aI00
aI00
aI00
aa(lp472
I234378
aF228.994
aF311.426
aVp1
p473
aS'utopia'
p474
aS'#000000'
p475
aF8.88595
aI0
aI01
aI01
aI00
aI00
aI00
aI00
aI00
aI00
aa(lp476
I234378
aF242.40955
aF311.426
ag473
aS'utopia'
p477
aS'#000000'
p478
aF8.88595
aI0
aI00
aI00
aI00
aI00
aI00
aI00
aI00
aI00
aa(lp479
I234378
aF248.988
aF311.426
aVp1
p480
aS'utopia'
p481
aS'#000000'
p482
aF8.88595
aI0
aI01
aI01
aI00
aI00
aI00
aI00
aI00
aI00
aa(lp483
I234378
aF265.7358
aF311.426
ag480
aS'utopia'
p484
aS'#000000'
p485
aF8.88595
aI0
aI00
aI00
aI00
aI00
aI00
aI00
aI00
aI00
aa(lp486
I234378
aF273.424
aF311.426
aVp1
p487
aS'utopia'
p488
aS'#000000'
p489
aF8.88595
aI0
aI00
aI00
aI01
aI00
aI00
aI00
aI00
aI00
aa(lp490
I234378
aF290.7985
aF311.426
ag487
aS'utopia'
p491
aS'#000000'
p492
aF8.88595
aI0
aI00
aI00
aI00
aI00
aI00
aI00
aI00
aI00
aa(lp493
I234378
aF55.7183
aF321.793
aVp1
p494
aS'utopia'
p495
aS'#000000'
p496
aF8.88595
aI0
aI01
aI01
aI00
aI00
aI00
aI00
aI00
aI00
aa(lp497
I234378
aF74.76742
aF321.793
ag494
aS'utopia'
p498
aS'#000000'
p499
aF8.88595
aI0
aI00
aI00
aI00
aI00
aI00
aI00
aI00
aI00
aa(lp500
I153515
aF81.6357
aF321.793
aVp1
p501
aS'utopia'
p502
aS'#000000'
p503
aF8.88595
aI0
aI01
aI00
aI00
aI00
aI00
aI00
aI00
aI00
aa(lp504
I234378
aF111.256
aF321.793
aVp1
p505
aS'utopia'
p506
aS'#000000'
p507
aF8.88595
aI0
aI01
aI00
aI00
aI00
aI00
aI00
aI00
aI00
aa(lp508
I134213
aF125.325
aF321.793
aVp1
p509
aS'utopia'
p510
aS'#000000'
p511
aF8.88595
aI0
aI01
aI00
aI00
aI00
aI00
aI00
aI00
aI00
aa(lp512
I234378
aF162.08352
aF321.793
ag509
aS'utopia'
p513
aS'#000000'
p514
aF8.88595
aI0
aI00
aI00
aI00
aI00
aI00
aI00
aI00
aI00
aa(lp515
I234378
aF168.274
aF321.793
aVp1
p516
aS'utopia'
p517
aS'#000000'
p518
aF8.88595
aI0
aI01
aI01
aI00
aI00
aI00
aI00
aI00
aI00
aa(lp519
I234378
aF200.115
aF321.793
aVp1
p520
aS'utopia'
p521
aS'#000000'
p522
aF8.88595
aI0
aI00
aI00
aI01
aI01
aI00
aI00
aI00
aI00
aa(lp523
I234378
aF203.4761
aF321.793
ag520
aS'utopia'
p524
aS'#000000'
p525
aF8.88595
aI0
aI00
aI00
aI00
aI00
aI00
aI00
aI00
aI00
aa(lp526
I234378
aF206.8372
aF321.793
ag520
aS'utopia'
p527
aS'#000000'
p528
aF8.88595
aI0
aI00
aI00
aI01
aI01
aI00
aI00
aI00
aI00
aa(lp529
I234378
aF210.1983
aF321.793
ag520
aS'utopia'
p530
aS'#000000'
p531
aF8.88595
aI0
aI00
aI00
aI00
aI00
aI00
aI00
aI00
aI00
aa(lp532
I223319
aF215.665
aF321.793
aVp1
p533
aS'utopia'
p534
aS'#000000'
p535
aF8.88595
aI0
aI01
aI00
aI00
aI00
aI00
aI00
aI00
aI00
aa(lp536
I234378
aF241.683475
aF321.793
ag533
aS'utopia'
p537
aS'#000000'
p538
aF8.88595
aI0
aI00
aI00
aI00
aI00
aI00
aI00
aI00
aI00
aa(lp539
I234378
aF247.507
aF321.793
aVp1
p540
aS'utopia'
p541
aS'#000000'
p542
aF8.88595
aI0
aI01
aI00
aI00
aI00
aI00
aI00
aI00
aI00
aa(lp543
I234378
aF271.6694166666667
aF321.793
ag540
aS'utopia'
p544
aS'#000000'
p545
aF8.88595
aI0
aI00
aI00
aI00
aI00
aI00
aI00
aI00
aI00
aa(lp546
I106895
aF278.608
aF321.793
aVp1
p547
aS'utopia'
p548
aS'#000000'
p549
aF8.88595
aI0
aI01
aI01
aI00
aI00
aI00
aI00
aI00
aI00
aa(lp550
I234378
aF55.7183
aF332.16
aVp1
p551
aS'utopia'
p552
aS'#000000'
p553
aF8.88595
aI0
aI01
aI01
aI00
aI00
aI00
aI00
aI00
aI00
aa(lp554
I234378
aF63.69396666666667
aF332.16
ag551
aS'utopia'
p555
aS'#000000'
p556
aF8.88595
aI0
aI00
aI00
aI00
aI00
aI00
aI00
aI00
aI00
aa(lp557
I80365
aF69.7878
aF332.16
aVp1
p558
aS'utopia'
p559
aS'#000000'
p560
aF8.88595
aI0
aI01
aI00
aI00
aI00
aI00
aI00
aI00
aI00
aa(lp561
I234378
aF86.0787
aF332.16
aVp1
p562
aS'utopia'
p563
aS'#000000'
p564
aF8.88595
aI0
aI01
aI00
aI00
aI00
aI00
aI00
aI00
aI00
aa(lp565
I234378
aF111.996
aF332.16
aVp1
p566
aS'utopia'
p567
aS'#000000'
p568
aF8.88595
aI0
aI00
aI00
aI01
aI01
aI00
aI00
aI00
aI00
aa(lp569
I234378
aF115.35709999999999
aF332.16
ag566
aS'utopia'
p570
aS'#000000'
p571
aF8.88595
aI0
aI00
aI00
aI00
aI00
aI00
aI00
aI00
aI00
aa(lp572
I234378
aF118.71819999999998
aF332.16
ag566
aS'utopia'
p573
aS'#000000'
p574
aF8.88595
aI0
aI00
aI00
aI01
aI01
aI00
aI00
aI00
aI00
aa(lp575
I234378
aF122.07929999999998
aF332.16
ag566
aS'utopia'
p576
aS'#000000'
p577
aF8.88595
aI0
aI00
aI00
aI00
aI00
aI00
aI00
aI00
aI00
aa(lp578
I216500
aF127.546
aF332.16
aVp1
p579
aS'utopia'
p580
aS'#000000'
p581
aF8.88595
aI0
aI01
aI01
aI00
aI00
aI00
aI00
aI00
aI00
aa(lp582
I234378
aF140.40617500000002
aF332.16
ag579
aS'utopia'
p583
aS'#000000'
p584
aF8.88595
aI0
aI00
aI00
aI00
aI00
aI00
aI00
aI00
aI00
aa(lp585
I51660
aF146.799
aF332.16
aVp1
p586
aS'utopia'
p587
aS'#000000'
p588
aF8.88595
aI0
aI01
aI00
aI00
aI00
aI00
aI00
aI00
aI00
aa(lp589
I234378
aF164.79058333333333
aF332.16
ag586
aS'utopia'
p590
aS'#000000'
p591
aF8.88595
aI0
aI00
aI00
aI00
aI00
aI00
aI00
aI00
aI00
aa(lp592
I110786
aF170.495
aF332.16
aVp1
p593
aS'utopia'
p594
aS'#000000'
p595
aF8.88595
aI0
aI01
aI00
aI00
aI00
aI00
aI00
aI00
aI00
aa(lp596
I234378
aF203.077
aF332.16
aVp1
p597
aS'utopia'
p598
aS'#000000'
p599
aF8.88595
aI0
aI00
aI00
aI01
aI01
aI00
aI00
aI00
aI00
aa(lp600
I234378
aF206.46699
aF332.16
ag597
aS'utopia'
p601
aS'#000000'
p602
aF8.88595
aI0
aI00
aI00
aI00
aI00
aI00
aI00
aI00
aI00
aa(lp603
I234378
aF211.963
aF332.16
aVp1
p604
aS'utopia'
p605
aS'#000000'
p606
aF8.88595
aI0
aI01
aI01
aI00
aI00
aI00
aI00
aI00
aI00
aa(lp607
I234378
aF232.19692
aF332.16
ag604
aS'utopia'
p608
aS'#000000'
p609
aF8.88595
aI0
aI00
aI00
aI00
aI00
aI00
aI00
aI00
aI00
aa(lp610
I234378
aF239.361
aF332.16
aVp1
p611
aS'utopia'
p612
aS'#000000'
p613
aF8.88595
aI0
aI01
aI01
aI00
aI00
aI00
aI00
aI00
aI00
aa(lp614
I234378
aF259.59492
aF332.16
ag611
aS'utopia'
p615
aS'#000000'
p616
aF8.88595
aI0
aI00
aI00
aI00
aI00
aI00
aI00
aI00
aI00
aa(lp617
I234378
aF266.76
aF332.16
aVp1
p618
aS'utopia'
p619
aS'#000000'
p620
aF8.88595
aI0
aI01
aI01
aI00
aI00
aI00
aI00
aI00
aI00
aa(lp621
I234378
aF288.17872
aF332.16
ag618
aS'utopia'
p622
aS'#000000'
p623
aF8.88595
aI0
aI00
aI00
aI00
aI00
aI00
aI00
aI00
aI00
aa(lp624
I101582
aF55.7183
aF342.527
aVp1
p625
aS'utopia'
p626
aS'#000000'
p627
aF8.88595
aI0
aI01
aI00
aI00
aI00
aI00
aI00
aI00
aI00
aa(lp628
I224218
aF85.3382
aF342.527
aVp1
p629
aS'utopia'
p630
aS'#000000'
p631
aF8.88595
aI0
aI01
aI00
aI00
aI00
aI00
aI00
aI00
aI00
aa(lp632
I234378
aF111.46031428571429
aF342.527
ag629
aS'utopia'
p633
aS'#000000'
p634
aF8.88595
aI0
aI00
aI00
aI00
aI00
aI00
aI00
aI00
aI00
aa(lp635
I23917
aF117.92
aF342.527
aVp1
p636
aS'utopia'
p637
aS'#000000'
p638
aF8.88595
aI0
aI01
aI00
aI00
aI00
aI00
aI00
aI00
aI00
aa(lp639
I51933
aF40.1679
aF379.57
aVp1
p640
aS'utopia'
p641
aS'#02304b'
p642
aF11.8479
aI1
aI01
aI00
aI00
aI00
aI00
aI00
aI00
aI00
aa(lp643
I60220
aF72.0093
aF379.57
aVp1
p644
aS'utopia'
p645
aS'#02304b'
p646
aF11.8479
aI1
aI01
aI00
aI00
aI00
aI00
aI00
aI00
aI00
aa(lp647
I234378
aF40.9084
aF411.287
aVp1
p648
aS'utopia'
p649
aS'#000000'
p650
aF10.3669
aI1
aI01
aI00
aI00
aI00
aI00
aI00
aI00
aI00
aa(lp651
I91539
aF88.3002
aF411.287
aVp1
p652
aS'utopia'
p653
aS'#000000'
p654
aF10.3669
aI1
aI01
aI00
aI00
aI00
aI00
aI00
aI00
aI00
aa(lp655
I234378
aF116.439
aF411.556
aVp1
p656
aS'utopia'
p657
aS'#656565'
p658
aF10.3669
aI0
aI00
aI00
aI00
aI00
aI00
aI00
aI00
aI00
aa(lp659
I15548
aF121.41642499999999
aF411.556
ag656
aS'utopia'
p660
aS'#656565'
p661
aF10.3669
aI0
aI01
aI00
aI00
aI00
aI00
aI00
aI00
aI00
aa(lp662
I70289
aF158.647
aF411.556
aVp1
p663
aS'utopia'
p664
aS'#656565'
p665
aF10.3669
aI0
aI01
aI00
aI00
aI00
aI00
aI00
aI00
aI00
aa(lp666
I234378
aF201.99597777777777
aF411.556
ag663
aS'utopia'
p667
aS'#656565'
p668
aF10.3669
aI0
aI00
aI00
aI00
aI00
aI00
aI00
aI00
aI00
aa(lp669
I11208
aF40.9084
aF427.847
aVp1
p670
aS'utopia'
p671
aS'#656565'
p672
aF10.3669
aI0
aI01
aI00
aI00
aI00
aI00
aI00
aI00
aI00
aa(lp673
I234378
aF91.2621
aF427.847
aVp1
p674
aS'utopia'
p675
aS'#656565'
p676
aF10.3669
aI0
aI01
aI00
aI00
aI00
aI00
aI00
aI00
aI01
aa(lp677
I234378
aF111.996
aF427.847
aVp1
p678
aS'utopia'
p679
aS'#656565'
p680
aF10.3669
aI0
aI00
aI00
aI01
aI01
aI01
aI00
aI00
aI00
aa(lp681
I234378
aF40.9084
aF447.678
aVp1
p682
aS'utopia'
p683
aS'#656565'
p684
aF8.88595
aI0
aI01
aI00
aI00
aI00
aI00
aI00
aI00
aI00
aa(lp685
I16331
aF80.8952
aF447.678
aVp1
p686
aS'utopia'
p687
aS'#656565'
p688
aF8.88595
aI0
aI00
aI00
aI00
aI00
aI00
aI00
aI00
aI00
aa(lp689
I166593
aF91.2621
aF447.678
aVp1
p690
aS'utopia'
p691
aS'#656565'
p692
aF8.88595
aI0
aI00
aI00
aI00
aI00
aI00
aI00
aI00
aI00
aa(lp693
I11208
aF97.9266
aF447.678
aVp1
p694
aS'utopia'
p695
aS'#656565'
p696
aF8.88595
aI0
aI01
aI00
aI00
aI00
aI00
aI00
aI00
aI00
aa(lp697
I21716
aF137.173
aF447.678
aVp1
p698
aS'utopia'
p699
aS'#656565'
p700
aF8.88595
aI0
aI00
aI00
aI00
aI00
aI00
aI00
aI00
aI00
aa(lp701
I234378
aF154.945
aF447.678
aVp1
p702
aS'utopia'
p703
aS'#656565'
p704
aF8.88595
aI0
aI01
aI00
aI00
aI00
aI00
aI00
aI00
aI00
aa(lp705
I48671
aF40.9084
aF458.045
aVp1
p706
aS'utopia'
p707
aS'#656565'
p708
aF8.88595
aI0
aI01
aI00
aI00
aI00
aI00
aI00
aI00
aI00
aa(lp709
I129688
aF69.0473
aF458.045
aVp1
p710
aS'utopia'
p711
aS'#656565'
p712
aF8.88595
aI0
aI01
aI00
aI00
aI00
aI00
aI00
aI00
aI00
aa(lp713
I234378
aF97.1861
aF458.045
aVp1
p714
aS'utopia'
p715
aS'#656565'
p716
aF8.88595
aI0
aI00
aI00
aI00
aI00
aI00
aI00
aI00
aI00
aa(lp717
I234378
aF101.629
aF458.045
aVp1
p718
aS'utopia'
p719
aS'#656565'
p720
aF8.88595
aI0
aI00
aI00
aI01
aI01
aI00
aI00
aI00
aI00
aa(lp721
I234378
aF108.294
aF458.045
aVp1
p722
aS'utopia'
p723
aS'#656565'
p724
aF8.88595
aI0
aI01
aI00
aI00
aI00
aI00
aI00
aI00
aI00
aa(lp725
I234378
aF40.9084
aF491.26
aVp1
p726
aS'utopia'
p727
aS'#000000'
p728
aF10.3669
aI1
aI01
aI00
aI00
aI00
aI00
aI00
aI00
aI00
aa(lp729
I234378
aF94.9646
aF491.26
aVp1
p730
aS'utopia'
p731
aS'#000000'
p732
aF10.3669
aI1
aI01
aI00
aI00
aI00
aI00
aI00
aI00
aI00
aa(lp733
I55966
aF40.9084
aF507.821
aVp1
p734
aS'utopia'
p735
aS'#656565'
p736
aF10.3669
aI0
aI01
aI00
aI00
aI00
aI00
aI00
aI00
aI00
aa(lp737
I11208
aF73.4902
aF507.821
aVp1
p738
aS'utopia'
p739
aS'#656565'
p740
aF10.3669
aI0
aI01
aI00
aI00
aI00
aI00
aI00
aI00
aI00
aa(lp741
I234378
aF119.401
aF507.821
aVp1
p742
aS'utopia'
p743
aS'#656565'
p744
aF10.3669
aI0
aI01
aI00
aI00
aI00
aI00
aI00
aI00
aI00
aa(lp745
I37510
aF166.793
aF507.821
aVp1
p746
aS'utopia'
p747
aS'#656565'
p748
aF10.3669
aI0
aI01
aI00
aI00
aI00
aI00
aI00
aI00
aI01
aa(lp749
I234378
aF187.527
aF507.821
aVp1
p750
aS'utopia'
p751
aS'#656565'
p752
aF10.3669
aI0
aI00
aI00
aI01
aI01
aI01
aI00
aI00
aI00
aa(lp753
I89480
aF210.482
aF507.821
aVp1
p754
aS'utopia'
p755
aS'#656565'
p756
aF10.3669
aI0
aI01
aI00
aI00
aI00
aI00
aI00
aI00
aI00
aa(lp757
I234378
aF225.292
aF507.821
aVp1
p758
aS'utopia'
p759
aS'#656565'
p760
aF10.3669
aI0
aI01
aI00
aI00
aI00
aI00
aI00
aI00
aI01
aa(lp761
I234378
aF246.026
aF507.821
aVp1
p762
aS'utopia'
p763
aS'#656565'
p764
aF10.3669
aI0
aI00
aI00
aI01
aI01
aI01
aI00
aI00
aI00
aa(lp765
I55966
aF40.9084
aF527.651
aVp1
p766
aS'utopia'
p767
aS'#656565'
p768
aF8.88595
aI0
aI01
aI00
aI00
aI00
aI00
aI00
aI00
aI00
aa(lp769
I11208
aF68.3068
aF527.651
aVp1
p770
aS'utopia'
p771
aS'#656565'
p772
aF8.88595
aI0
aI01
aI00
aI00
aI00
aI00
aI00
aI00
aI00
aa(lp773
I21716
aF107.553
aF527.651
aVp1
p774
aS'utopia'
p775
aS'#656565'
p776
aF8.88595
aI0
aI00
aI00
aI00
aI00
aI00
aI00
aI00
aI00
aa(lp777
I100815
aF125.325
aF527.651
aVp1
p778
aS'utopia'
p779
aS'#656565'
p780
aF8.88595
aI0
aI01
aI00
aI00
aI00
aI00
aI00
aI00
aI00
aa(lp781
I234378
aF40.9084
aF560.867
aVp1
p782
aS'utopia'
p783
aS'#000000'
p784
aF10.3669
aI1
aI01
aI00
aI00
aI00
aI00
aI00
aI00
aI00
aa(lp785
I198119
aF80.8952
aF560.867
aVp1
p786
aS'utopia'
p787
aS'#000000'
p788
aF10.3669
aI1
aI01
aI00
aI00
aI00
aI00
aI00
aI00
aI00
aa(lp789
I164802
aF114.958
aF560.867
aVp1
p790
aS'utopia'
p791
aS'#000000'
p792
aF10.3669
aI1
aI01
aI00
aI00
aI00
aI00
aI00
aI00
aI00
aa(lp793
I234378
aF142.356
aF560.867
aVp1
p794
aS'utopia'
p795
aS'#000000'
p796
aF10.3669
aI1
aI01
aI00
aI00
aI00
aI00
aI00
aI00
aI00
aa(lp797
I234378
aF156.1803
aF560.867
ag794
aS'utopia'
p798
aS'#000000'
p799
aF10.3669
aI1
aI00
aI00
aI00
aI00
aI00
aI00
aI00
aI00
aa(lp800
I234378
aF163.09
aF560.867
aVp1
p801
aS'utopia'
p802
aS'#000000'
p803
aF10.3669
aI1
aI01
aI00
aI00
aI00
aI00
aI00
aI00
aI00
aa(lp804
I234378
aF176.9143
aF560.867
ag801
aS'utopia'
p805
aS'#000000'
p806
aF10.3669
aI1
aI00
aI00
aI00
aI00
aI00
aI00
aI00
aI00
aa(lp807
I55966
aF40.9084
aF577.427
aVp1
p808
aS'utopia'
p809
aS'#656565'
p810
aF10.3669
aI0
aI01
aI00
aI00
aI00
aI00
aI00
aI00
aI00
aa(lp811
I234378
aF73.4902
aF577.427
aVp1
p812
aS'utopia'
p813
aS'#656565'
p814
aF10.3669
aI0
aI01
aI00
aI00
aI00
aI00
aI00
aI00
aI00
aa(lp815
I132100
aF116.439
aF577.427
aVp1
p816
aS'utopia'
p817
aS'#656565'
p818
aF10.3669
aI0
aI01
aI00
aI00
aI00
aI00
aI00
aI00
aI00
aa(lp819
I234378
aF164.571
aF577.427
aVp1
p820
aS'utopia'
p821
aS'#656565'
p822
aF10.3669
aI0
aI01
aI00
aI00
aI00
aI00
aI00
aI00
aI01
aa(lp823
I234378
aF185.305
aF577.427
aVp1
p824
aS'utopia'
p825
aS'#656565'
p826
aF10.3669
aI0
aI00
aI00
aI01
aI01
aI01
aI00
aI00
aI00
aa(lp827
I89480
aF208.26
aF577.427
aVp1
p828
aS'utopia'
p829
aS'#656565'
p830
aF10.3669
aI0
aI01
aI00
aI00
aI00
aI00
aI00
aI00
aI00
aa(lp831
I37510
aF223.07
aF577.427
aVp1
p832
aS'utopia'
p833
aS'#656565'
p834
aF10.3669
aI0
aI01
aI00
aI00
aI00
aI00
aI00
aI00
aI01
aa(lp835
I234378
aF243.804
aF577.427
aVp1
p836
aS'utopia'
p837
aS'#656565'
p838
aF10.3669
aI0
aI00
aI00
aI01
aI01
aI01
aI00
aI00
aI00
aa(lp839
I55966
aF40.9084
aF597.258
aVp1
p840
aS'utopia'
p841
aS'#656565'
p842
aF8.88595
aI0
aI01
aI00
aI00
aI00
aI00
aI00
aI00
aI00
aa(lp843
I234378
aF68.3068
aF597.258
aVp1
p844
aS'utopia'
p845
aS'#656565'
p846
aF8.88595
aI0
aI01
aI00
aI00
aI00
aI00
aI00
aI00
aI00
aa(lp847
I132100
aF105.332
aF597.258
aVp1
p848
aS'utopia'
p849
aS'#656565'
p850
aF8.88595
aI0
aI01
aI00
aI00
aI00
aI00
aI00
aI00
aI00
aa(lp851
I124531
aF40.1679
aF632.819
aVp1
p852
aS'utopia'
p853
aS'#02304b'
p854
aF11.8479
aI1
aI01
aI00
aI00
aI00
aI00
aI00
aI00
aI00
aa(lp855
I234378
aF40.9084
aF661.103
aVp1
p856
aS'utopia'
p857
aS'#656565'
p858
aF10.3669
aI0
aI01
aI00
aI00
aI00
aI00
aI00
aI00
aI00
aa(lp859
I234378
aF117.18
aF661.103
aVp1
p860
aS'utopia'
p861
aS'#656565'
p862
aF10.3669
aI0
aI00
aI00
aI00
aI00
aI00
aI00
aI00
aI00
aa(lp863
I60201
aF123.103
aF661.103
aVp1
p864
aS'utopia'
p865
aS'#656565'
p866
aF10.3669
aI0
aI01
aI00
aI00
aI00
aI00
aI00
aI00
aI00
aa(lp867
I230071
aF143.097
aF661.103
aVp1
p868
aS'utopia'
p869
aS'#656565'
p870
aF10.3669
aI0
aI01
aI00
aI00
aI00
aI00
aI00
aI00
aI00
aa(lp871
I234378
aF169.755
aF661.103
aVp1
p872
aS'utopia'
p873
aS'#656565'
p874
aF10.3669
aI0
aI00
aI00
aI00
aI00
aI00
aI00
aI00
aI00
aa(lp875
I27780
aF40.9084
aF677.125
aVp1
p876
aS'utopia'
p877
aS'#000000'
p878
aF10.3669
aI1
aI01
aI01
aI00
aI00
aI00
aI00
aI00
aI00
aa(lp879
I234378
aF46.15191818181818
aF677.125
ag876
aS'utopia'
p880
aS'#000000'
p881
aF10.3669
aI1
aI00
aI00
aI00
aI00
aI00
aI00
aI00
aI00
aa(lp882
I2737
aF51.395436363636364
aF677.125
ag876
aS'utopia'
p883
aS'#000000'
p884
aF10.3669
aI1
aI01
aI00
aI00
aI00
aI00
aI00
aI00
aI00
aa(lp885
I234378
aF72.36950909090909
aF677.125
ag876
aS'utopia'
p886
aS'#000000'
p887
aF10.3669
aI1
aI00
aI00
aI00
aI00
aI00
aI00
aI00
aI00
aa(lp888
I27780
aF70.61302727272727
aF677.125
ag876
aS'utopia'
p889
aS'#000000'
p890
aF10.3669
aI1
aI01
aI01
aI00
aI00
aI00
aI00
aI00
aI00
aa(lp891
I234378
aF75.85654545454545
aF677.125
ag876
aS'utopia'
p892
aS'#000000'
p893
aF10.3669
aI1
aI00
aI00
aI00
aI00
aI00
aI00
aI00
aI00
aa(lp894
I64620
aF88.10006363636364
aF677.125
ag876
aS'utopia'
p895
aS'#000000'
p896
aF10.3669
aI1
aI01
aI01
aI00
aI00
aI00
aI00
aI00
aI00
aa(lp897
I234378
aF84.34358181818183
aF677.125
ag876
aS'utopia'
p898
aS'#000000'
p899
aF10.3669
aI1
aI00
aI00
aI00
aI00
aI00
aI00
aI00
aI00
aa(lp900
I234378
aF100.889
aF677.125
aVp1
p901
aS'utopia'
p902
aS'#000000'
p903
aF10.3669
aI1
aI00
aI00
aI00
aI00
aI00
aI00
aI00
aI00
aa(lp904
I234378
aF106.48095454545454
aF677.125
ag901
aS'utopia'
p905
aS'#000000'
p906
aF10.3669
aI1
aI01
aI00
aI00
aI00
aI00
aI00
aI00
aI00
aa(lp907
I234378
aF156.80854545454542
aF677.125
ag901
aS'utopia'
p908
aS'#000000'
p909
aF10.3669
aI1
aI00
aI00
aI00
aI00
aI00
aI00
aI00
aI00
aa(lp910
I234378
aF40.9084
aF697.388
aVp1
p911
aS'utopia'
p912
aS'#656565'
p913
aF10.3669
aI0
aI01
aI00
aI00
aI00
aI00
aI00
aI00
aI00
aa(lp914
I234378
aF67.5663
aF697.388
aVp1
p915
aS'utopia'
p916
aS'#656565'
p917
aF10.3669
aI0
aI01
aI00
aI00
aI00
aI00
aI00
aI00
aI00
aa(lp918
I149270
aF106.813
aF697.388
aVp1
p919
aS'utopia'
p920
aS'#656565'
p921
aF10.3669
aI0
aI01
aI00
aI00
aI00
aI00
aI00
aI00
aI00
aa(lp922
I153079
aF155.685
aF697.388
aVp1
p923
aS'utopia'
p924
aS'#656565'
p925
aF10.3669
aI0
aI01
aI00
aI00
aI00
aI00
aI00
aI00
aI00
aa(lp926
I234378
aF206.039
aF697.388
aVp1
p927
aS'utopia'
p928
aS'#656565'
p929
aF10.3669
aI0
aI00
aI00
aI00
aI00
aI00
aI00
aI00
aI00
aa(lp930
I234378
aF212.06885
aF697.388
ag927
aS'utopia'
p931
aS'#656565'
p932
aF10.3669
aI0
aI01
aI01
aI00
aI00
aI00
aI00
aI00
aI00
aa(lp933
I234378
aF236.18824999999998
aF697.388
ag927
aS'utopia'
p934
aS'#656565'
p935
aF10.3669
aI0
aI00
aI00
aI00
aI00
aI00
aI00
aI00
aI00
aa(lp936
I135639
aF248.988
aF697.388
aVp1
p937
aS'utopia'
p938
aS'#656565'
p939
aF10.3669
aI0
aI00
aI00
aI00
aI00
aI00
aI00
aI00
aI00
aa(lp940
I234378
aF260.836
aF697.388
aVp1
p941
aS'utopia'
p942
aS'#656565'
p943
aF10.3669
aI0
aI00
aI00
aI01
aI01
aI01
aI00
aI00
aI00
aa(lp944
I22476
aF40.1679
aF731.305
aVp1
p945
aS'utopia'
p946
aS'#02304b'
p947
aF11.8479
aI1
aI01
aI01
aI00
aI00
aI00
aI00
aI00
aI00
aa(lp948
I234378
aF54.2374
aF731.305
aVp1
p949
aS'utopia'
p950
aS'#02304b'
p951
aF11.8479
aI1
aI01
aI00
aI00
aI00
aI00
aI00
aI00
aI00
aa(lp952
I201816
aF40.9084
aF759.426
aVp1
p953
aS'utopia'
p954
aS'#000000'
p955
aF8.88595
aI0
aI01
aI00
aI00
aI00
aI00
aI00
aI00
aI00
aa(lp956
I22476
aF54.9779
aF759.426
aVp1
p957
aS'utopia'
p958
aS'#000000'
p959
aF8.88595
aI0
aI01
aI01
aI00
aI00
aI00
aI00
aI00
aI00
aa(lp960
I234378
aF65.3448
aF759.426
aVp1
p961
aS'utopia'
p962
aS'#000000'
p963
aF8.88595
aI0
aI01
aI00
aI00
aI00
aI00
aI00
aI00
aI00
aa(lp964
I86196
aF86.8192
aF759.426
aVp1
p965
aS'utopia'
p966
aS'#000000'
p967
aF8.88595
aI0
aI00
aI00
aI00
aI00
aI00
aI00
aI00
aI00
aa(lp968
I195166
aF40.1679
aF41.9037
aVp2
p969
aS'utopia'
p970
aS'#02304b'
p971
aF11.8479
aI1
aI01
aI00
aI00
aI00
aI00
aI00
aI00
aI00
aa(lp972
I136346
aF96.4456
aF41.9037
aVp2
p973
aS'utopia'
p974
aS'#02304b'
p975
aF11.8479
aI1
aI01
aI00
aI00
aI00
aI00
aI00
aI00
aI00
aa(lp976
I201816
aF40.9084
aF70.0247
aVp2
p977
aS'utopia'
p978
aS'#000000'
p979
aF8.88595
aI0
aI01
aI00
aI00
aI00
aI00
aI00
aI00
aI00
aa(lp980
I234378
aF54.9779
aF70.0247
aVp2
p981
aS'utopia'
p982
aS'#000000'
p983
aF8.88595
aI0
aI01
aI00
aI00
aI00
aI00
aI00
aI00
aI00
aa(lp984
I47284
aF98.6671
aF70.0247
aVp2
p985
aS'utopia'
p986
aS'#000000'
p987
aF8.88595
aI0
aI01
aI00
aI00
aI00
aI00
aI00
aI00
aI00
aa(lp988
I234378
aF40.1679
aF104.846
aVp2
p989
aS'utopia'
p990
aS'#02304b'
p991
aF11.8479
aI1
aI01
aI00
aI00
aI00
aI00
aI00
aI00
aI00
aa(lp992
I201816
aF40.9084
aF136.669
aVp2
p993
aS'utopia'
p994
aS'#000000'
p995
aF8.88595
aI0
aI01
aI00
aI00
aI00
aI00
aI00
aI00
aI00
aa(lp996
I234378
aF54.9779
aF136.669
aVp2
p997
aS'utopia'
p998
aS'#000000'
p999
aF8.88595
aI0
aI01
aI00
aI00
aI00
aI00
aI00
aI00
aI00
aa(lp1000
I86196
aF89.0407
aF136.669
aVp2
p1001
aS'utopia'
p1002
aS'#000000'
p1003
aF8.88595
aI0
aI01
aI00
aI00
aI00
aI00
aI00
aI00
aI00
aa(lp1004
I177271
aF40.1679
aF175.933
aVp2
p1005
aS'utopia'
p1006
aS'#02304b'
p1007
aF11.8479
aI1
aI01
aI00
aI00
aI00
aI00
aI00
aI00
aI00
aa(lp1008
I234378
aF74.2307
aF175.933
aVp2
p1009
aS'utopia'
p1010
aS'#02304b'
p1011
aF11.8479
aI1
aI01
aI00
aI00
aI00
aI00
aI00
aI00
aI00
aa(lp1012
I7520
aF49.0539
aF206.91
aVp2
p1013
aS'utopia'
p1014
aS'#656565'
p1015
aF10.3669
aI1
aI01
aI00
aI00
aI00
aI00
aI00
aI00
aI00
aa(lp1016
I10865
aF93.4836
aF206.91
aVp2
p1017
aS'utopia'
p1018
aS'#656565'
p1019
aF10.3669
aI1
aI01
aI00
aI00
aI00
aI00
aI00
aI00
aI00
aa(lp1020
I132955
aF49.0539
aF222.567
aVp2
p1021
aS'utopia'
p1022
aS'#656565'
p1023
aF8.88595
aI0
aI01
aI00
aI00
aI00
aI00
aI00
aI00
aI00
aa(lp1024
I144489
aF69.7878
aF222.567
aVp2
p1025
aS'utopia'
p1026
aS'#656565'
p1027
aF8.88595
aI0
aI00
aI00
aI00
aI00
aI00
aI00
aI00
aI00
aa(lp1028
I132529
aF80.1547
aF222.567
aVp2
p1029
aS'utopia'
p1030
aS'#656565'
p1031
aF8.88595
aI0
aI01
aI00
aI00
aI00
aI00
aI00
aI00
aI00
aa(lp1032
I234378
aF98.76336666666667
aF222.567
ag1029
aS'utopia'
p1033
aS'#656565'
p1034
aF8.88595
aI0
aI00
aI00
aI00
aI00
aI00
aI00
aI00
aI00
aa(lp1035
I234378
aF104.591
aF222.567
aVp2
p1036
aS'utopia'
p1037
aS'#434343'
p1038
aF8.88595
aI0
aI00
aI00
aI01
aI01
aI01
aI00
aI00
aI00
aa(lp1039
I234378
aF115.699
aF222.567
aVp2
p1040
aS'utopia'
p1041
aS'#434343'
p1042
aF8.88595
aI0
aI01
aI00
aI00
aI00
aI00
aI00
aI00
aI01
aa(lp1043
I234378
aF131.989
aF222.567
aVp2
p1044
aS'utopia'
p1045
aS'#434343'
p1046
aF8.88595
aI0
aI00
aI00
aI01
aI01
aI01
aI00
aI00
aI00
aa(lp1047
I108944
aF49.0539
aF238.117
aVp2
p1048
aS'utopia'
p1049
aS'#656565'
p1050
aF8.88595
aI0
aI01
aI00
aI00
aI00
aI00
aI00
aI00
aI00
aa(lp1051
I234378
aF76.44544285714287
aF238.117
ag1048
aS'utopia'
p1052
aS'#656565'
p1053
aF8.88595
aI0
aI00
aI00
aI00
aI00
aI00
aI00
aI00
aI00
aa(lp1054
I104428
aF83.1167
aF238.117
aVp2
p1055
aS'utopia'
p1056
aS'#434343'
p1057
aF8.88595
aI0
aI01
aI00
aI00
aI00
aI00
aI00
aI00
aI00
aa(lp1058
I212271
aF49.0539
aF253.668
aVp2
p1059
aS'utopia'
p1060
aS'#656565'
p1061
aF8.88595
aI0
aI01
aI00
aI00
aI00
aI00
aI00
aI00
aI00
aa(lp1062
I12510
aF79.4142
aF253.668
aVp2
p1063
aS'utopia'
p1064
aS'#656565'
p1065
aF8.88595
aI0
aI01
aI00
aI00
aI00
aI00
aI00
aI00
aI00
aa(lp1066
I234378
aF101.72811428571428
aF253.668
ag1063
aS'utopia'
p1067
aS'#656565'
p1068
aF8.88595
aI0
aI00
aI00
aI00
aI00
aI00
aI00
aI00
aI00
aa(lp1069
I118865
aF107.553
aF253.668
aVp2
p1070
aS'utopia'
p1071
aS'#434343'
p1072
aF8.88595
aI0
aI01
aI00
aI00
aI00
aI00
aI00
aI00
aI00
aa(lp1073
I234378
aF133.68768749999998
aF253.668
ag1070
aS'utopia'
p1074
aS'#434343'
p1075
aF8.88595
aI0
aI00
aI00
aI00
aI00
aI00
aI00
aI00
aI00
aa(lp1076
I136874
aF138.04346875
aF253.668
ag1070
aS'utopia'
p1077
aS'#434343'
p1078
aF8.88595
aI0
aI00
aI00
aI00
aI00
aI00
aI00
aI00
aI00
aa(lp1079
I118366
aF49.0539
aF273.554
aVp2
p1080
aS'utopia'
p1081
aS'#656565'
p1082
aF10.3669
aI1
aI01
aI00
aI00
aI00
aI00
aI00
aI00
aI00
aa(lp1083
I234378
aF83.97235
aF273.554
ag1080
aS'utopia'
p1084
aS'#656565'
p1085
aF10.3669
aI1
aI00
aI00
aI00
aI00
aI00
aI00
aI00
aI00
aa(lp1086
I71195
aF49.0539
aF286.25
aVp2
p1087
aS'utopia'
p1088
aS'#000000'
p1089
aF8.88595
aI0
aI01
aI00
aI00
aI00
aI00
aI00
aI00
aI00
aa(lp1090
I201816
aF66.0853
aF286.25
aVp2
p1091
aS'utopia'
p1092
aS'#000000'
p1093
aF8.88595
aI0
aI01
aI00
aI00
aI00
aI00
aI00
aI00
aI00
aa(lp1094
I234378
aF80.1547
aF286.25
aVp2
p1095
aS'utopia'
p1096
aS'#000000'
p1097
aF8.88595
aI0
aI00
aI00
aI00
aI00
aI00
aI00
aI00
aI00
aa(lp1098
I234378
aF84.5977
aF286.25
aVp2
p1099
aS'utopia'
p1100
aS'#000000'
p1101
aF8.88595
aI0
aI00
aI00
aI01
aI01
aI01
aI00
aI00
aI00
aa(lp1102
I129851
aF104.591
aF286.25
aVp2
p1103
aS'utopia'
p1104
aS'#000000'
p1105
aF8.88595
aI0
aI00
aI00
aI00
aI00
aI00
aI00
aI00
aI00
aa(lp1106
I234378
aF127.97092857142857
aF286.25
ag1103
aS'utopia'
p1107
aS'#000000'
p1108
aF8.88595
aI0
aI00
aI00
aI01
aI01
aI00
aI00
aI00
aI00
aa(lp1109
I49897
aF137.913
aF286.25
aVp2
p1110
aS'utopia'
p1111
aS'#000000'
p1112
aF8.88595
aI0
aI00
aI00
aI00
aI00
aI00
aI00
aI00
aI00
aa(lp1113
I27780
aF160.965
aF286.25
ag1110
aS'utopia'
p1114
aS'#000000'
p1115
aF8.88595
aI0
aI01
aI01
aI00
aI00
aI00
aI00
aI00
aI00
aa(lp1116
I169406
aF171.236
aF286.25
aVp2
p1117
aS'utopia'
p1118
aS'#000000'
p1119
aF8.88595
aI0
aI00
aI00
aI00
aI00
aI00
aI00
aI00
aI00
aa(lp1120
I211331
aF193.451
aF286.25
aVp2
p1121
aS'utopia'
p1122
aS'#000000'
p1123
aF8.88595
aI0
aI00
aI00
aI00
aI00
aI00
aI00
aI00
aI00
aa(lp1124
I171568
aF228.254
aF286.25
aVp2
p1125
aS'utopia'
p1126
aS'#000000'
p1127
aF8.88595
aI0
aI00
aI00
aI00
aI00
aI00
aI00
aI00
aI00
aa(lp1128
I211331
aF257.874
aF286.25
aVp2
p1129
aS'utopia'
p1130
aS'#000000'
p1131
aF8.88595
aI0
aI00
aI00
aI00
aI00
aI00
aI00
aI00
aI00
aa(lp1132
I234378
aF292.677
aF286.25
aVp2
p1133
aS'utopia'
p1134
aS'#000000'
p1135
aF8.88595
aI0
aI00
aI00
aI00
aI00
aI00
aI00
aI00
aI00
aa(lp1136
I19365
aF327.48
aF286.25
aVp2
p1137
aS'utopia'
p1138
aS'#000000'
p1139
aF8.88595
aI0
aI00
aI00
aI00
aI00
aI00
aI00
aI00
aI00
aa(lp1140
I234378
aF49.0539
aF296.616
aVp2
p1141
aS'utopia'
p1142
aS'#000000'
p1143
aF8.88595
aI0
aI00
aI00
aI01
aI01
aI01
aI00
aI00
aI00
aa(lp1144
I182663
aF49.0539
aF309.945
aVp2
p1145
aS'utopia'
p1146
aS'#656565'
p1147
aF8.88595
aI0
aI01
aI00
aI00
aI00
aI00
aI00
aI00
aI00
aa(lp1148
I82279
aF76.4522
aF309.945
aVp2
p1149
aS'utopia'
p1150
aS'#656565'
p1151
aF8.88595
aI0
aI01
aI00
aI00
aI00
aI00
aI00
aI00
aI00
aa(lp1152
I234378
aF96.09372
aF309.945
ag1149
aS'utopia'
p1153
aS'#656565'
p1154
aF8.88595
aI0
aI00
aI00
aI00
aI00
aI00
aI00
aI00
aI00
aa(lp1155
I234378
aF103.11
aF309.945
aVp2
p1156
aS'utopia'
p1157
aS'#000000'
p1158
aF8.88595
aI0
aI01
aI00
aI00
aI00
aI00
aI00
aI00
aI00
aa(lp1159
I86794
aF409.675
aF203.948
aVp2
p1160
aS'utopia'
p1161
aS'#656565'
p1162
aF10.3669
aI1
aI01
aI00
aI00
aI00
aI00
aI00
aI00
aI00
aa(lp1163
I131455
aF448.181
aF203.948
aVp2
p1164
aS'utopia'
p1165
aS'#656565'
p1166
aF10.3669
aI1
aI01
aI00
aI00
aI00
aI00
aI00
aI00
aI00
aa(lp1167
I234378
aF465.953
aF203.948
aVp2
p1168
aS'utopia'
p1169
aS'#656565'
p1170
aF10.3669
aI1
aI01
aI00
aI00
aI00
aI00
aI00
aI00
aI00
aa(lp1171
I131455
aF409.675
aF219.605
aVp2
p1172
aS'utopia'
p1173
aS'#656565'
p1174
aF8.88595
aI0
aI01
aI00
aI00
aI00
aI00
aI00
aI00
aI00
aa(lp1175
I197416
aF425.226
aF219.605
aVp2
p1176
aS'utopia'
p1177
aS'#656565'
p1178
aF8.88595
aI0
aI01
aI00
aI00
aI00
aI00
aI00
aI00
aI00
aa(lp1179
I234378
aF442.49792
aF219.605
ag1176
aS'utopia'
p1180
aS'#656565'
p1181
aF8.88595
aI0
aI00
aI00
aI00
aI00
aI00
aI00
aI00
aI00
aa(lp1182
I28425
aF448.922
aF219.605
aVp2
p1183
aS'utopia'
p1184
aS'#434343'
p1185
aF8.88595
aI0
aI01
aI00
aI00
aI00
aI00
aI00
aI00
aI00
aa(lp1186
I234378
aF409.675
aF233.674
aVp2
p1187
aS'utopia'
p1188
aS'#434343'
p1189
aF8.88595
aI0
aI00
aI00
aI00
aI00
aI00
aI00
aI00
aI00
aa(lp1190
I137944
aF414.22986363636363
aF233.674
ag1187
aS'utopia'
p1191
aS'#434343'
p1192
aF8.88595
aI0
aI01
aI00
aI00
aI00
aI00
aI00
aI00
aI00
aa(lp1193
I234378
aF445.22363636363633
aF233.674
ag1187
aS'utopia'
p1194
aS'#434343'
p1195
aF8.88595
aI0
aI00
aI00
aI00
aI00
aI00
aI00
aI00
aI00
aa(lp1196
I42298
aF459.77849999999995
aF233.674
ag1187
aS'utopia'
p1197
aS'#434343'
p1198
aF8.88595
aI0
aI01
aI00
aI00
aI00
aI00
aI00
aI00
aI00
aa(lp1199
I72722
aF409.675
aF247.744
aVp2
p1200
aS'utopia'
p1201
aS'#656565'
p1202
aF8.88595
aI0
aI01
aI00
aI00
aI00
aI00
aI00
aI00
aI00
aa(lp1203
I12510
aF462.991
aF247.744
aVp2
p1204
aS'utopia'
p1205
aS'#656565'
p1206
aF8.88595
aI0
aI01
aI00
aI00
aI00
aI00
aI00
aI00
aI00
aa(lp1207
I234378
aF485.3049142857143
aF247.744
ag1204
aS'utopia'
p1208
aS'#656565'
p1209
aF8.88595
aI0
aI00
aI00
aI00
aI00
aI00
aI00
aI00
aI00
aa(lp1210
I63091
aF491.13
aF247.744
aVp2
p1211
aS'utopia'
p1212
aS'#434343'
p1213
aF8.88595
aI0
aI01
aI00
aI00
aI00
aI00
aI00
aI00
aI00
aa(lp1214
I234378
aF508.161
aF247.744
aVp2
p1215
aS'utopia'
p1216
aS'#434343'
p1217
aF8.88595
aI0
aI01
aI00
aI00
aI00
aI00
aI00
aI00
aI00
aa(lp1218
I51933
aF409.675
aF267.63
aVp2
p1219
aS'utopia'
p1220
aS'#656565'
p1221
aF10.3669
aI1
aI01
aI00
aI00
aI00
aI00
aI00
aI00
aI00
aa(lp1222
I62768
aF437.814
aF267.63
aVp2
p1223
aS'utopia'
p1224
aS'#656565'
p1225
aF10.3669
aI1
aI01
aI00
aI00
aI00
aI00
aI00
aI00
aI00
aa(lp1226
I31679
aF409.675
aF283.288
aVp2
p1227
aS'utopia'
p1228
aS'#656565'
p1229
aF8.88595
aI0
aI01
aI01
aI00
aI00
aI00
aI00
aI00
aI00
aa(lp1230
I51933
aF423.004
aF283.288
aVp2
p1231
aS'utopia'
p1232
aS'#656565'
p1233
aF8.88595
aI0
aI01
aI00
aI00
aI00
aI00
aI00
aI00
aI00
aa(lp1234
I12510
aF446.7
aF283.288
aVp2
p1235
aS'utopia'
p1236
aS'#656565'
p1237
aF8.88595
aI0
aI01
aI00
aI00
aI00
aI00
aI00
aI00
aI00
aa(lp1238
I234378
aF469.0139142857143
aF283.288
ag1235
aS'utopia'
p1239
aS'#656565'
p1240
aF8.88595
aI0
aI00
aI00
aI00
aI00
aI00
aI00
aI00
aI00
aa(lp1241
I63091
aF474.839
aF283.288
aVp2
p1242
aS'utopia'
p1243
aS'#434343'
p1244
aF8.88595
aI0
aI01
aI00
aI00
aI00
aI00
aI00
aI00
aI00
aa(lp1245
I234378
aF491.87
aF283.288
aVp2
p1246
aS'utopia'
p1247
aS'#434343'
p1248
aF8.88595
aI0
aI01
aI00
aI00
aI00
aI00
aI00
aI00
aI00
aa(lp1249
I234378
aF409.675
aF298.838
aVp2
p1250
aS'utopia'
p1251
aS'#656565'
p1252
aF8.88595
aI0
aI01
aI00
aI00
aI00
aI00
aI00
aI00
aI00
aa(lp1253
I234378
aF446.43352
aF298.838
ag1250
aS'utopia'
p1254
aS'#656565'
p1255
aF8.88595
aI0
aI00
aI00
aI00
aI00
aI00
aI00
aI00
aI00
aa(lp1256
I63091
aF452.624
aF298.838
aVp2
p1257
aS'utopia'
p1258
aS'#434343'
p1259
aF8.88595
aI0
aI01
aI00
aI00
aI00
aI00
aI00
aI00
aI00
aa(lp1260
I234378
aF469.656
aF298.838
aVp2
p1261
aS'utopia'
p1262
aS'#434343'
p1263
aF8.88595
aI0
aI01
aI00
aI00
aI00
aI00
aI00
aI00
aI00
aa(lp1264
I166771
aF409.675
aF318.725
aVp2
p1265
aS'utopia'
p1266
aS'#656565'
p1267
aF10.3669
aI1
aI01
aI00
aI00
aI00
aI00
aI00
aI00
aI00
aa(lp1268
I74833
aF465.953
aF318.725
aVp2
p1269
aS'utopia'
p1270
aS'#656565'
p1271
aF10.3669
aI1
aI01
aI00
aI00
aI00
aI00
aI00
aI00
aI00
aa(lp1272
I233758
aF409.675
aF334.382
aVp2
p1273
aS'utopia'
p1274
aS'#656565'
p1275
aF8.88595
aI0
aI01
aI00
aI00
aI00
aI00
aI00
aI00
aI00
aa(lp1276
I234378
aF443.3468222222222
aF334.382
ag1273
aS'utopia'
p1277
aS'#656565'
p1278
aF8.88595
aI0
aI00
aI00
aI00
aI00
aI00
aI00
aI00
aI00
aa(lp1279
I63091
aF449.662
aF334.382
aVp2
p1280
aS'utopia'
p1281
aS'#434343'
p1282
aF8.88595
aI0
aI01
aI00
aI00
aI00
aI00
aI00
aI00
aI00
aa(lp1283
I234378
aF466.694
aF334.382
aVp2
p1284
aS'utopia'
p1285
aS'#434343'
p1286
aF8.88595
aI0
aI01
aI00
aI00
aI00
aI00
aI00
aI00
aI00
aa(lp1287
I151511
aF409.675
aF349.932
aVp2
p1288
aS'utopia'
p1289
aS'#656565'
p1290
aF8.88595
aI0
aI01
aI00
aI00
aI00
aI00
aI00
aI00
aI00
aa(lp1291
I234378
aF450.403
aF349.932
aVp2
p1292
aS'utopia'
p1293
aS'#656565'
p1294
aF8.88595
aI0
aI01
aI00
aI00
aI00
aI00
aI00
aI00
aI00
aa(lp1295
I234378
aF492.24509090909095
aF349.932
ag1292
aS'utopia'
p1296
aS'#656565'
p1297
aF8.88595
aI0
aI00
aI00
aI00
aI00
aI00
aI00
aI00
aI00
aa(lp1298
I201816
aF498.535
aF349.932
aVp2
p1299
aS'utopia'
p1300
aS'#434343'
p1301
aF8.88595
aI0
aI01
aI00
aI00
aI00
aI00
aI00
aI00
aI00
aa(lp1302
I1
aI1
aI1
aI0
aI0
aI0
aI0
aI0
aI0
aI0
aI0
aI0
aI0
aI0
aI0
aI0
aI0
aI0
aI0
aI0
aI0
aI0
aI0
aI0
aI0
aI0
aI0
aI0
aI0
aI0
aI0
aI0
aI0
aI0
aI0
aI0
aI0
aI0
aI0
aI0
aI0
aI0
aI0
aI0
aI0
aI0
aI0
aI0
aI0
aI0
aI0
aI0
aI0
aI0
aI0
aI0
aI0
aI0
aI0
aI0
aI0
aI0
aI0
aI0
aI0
aI0
aI0
aI0
aI0
aI0
aI0
aI0
aI0
aI0
aI0
aI0
aI0
aI0
aI0
aI0
aI0
aI0
aI0
aI0
aI0
aI0
aI0
aI0
aI0
aI0
aI0
aI0
aI0
aI0
aI0
aI0
aI0
aI0
aI0
aI0
aI0
aI0
aI0
aI0
aI0
aI0
aI0
aI0
aI0
aI0
aI0
aI0
aI0
aI0
aI0
aI0
aI0
aI0
aI0
aI0
aI0
aI0
aI0
aI0
aI0
aI0
aI0
aI0
aI0
aI0
aI0
aI0
aI0
aI0
aI0
aI0
aI0
aI0
aI0
aI0
aI0
aI0
aI0
aI0
aI0
aI0
aI0
aI0
aI0
aI0
aI0
aI0
aI0
aI0
aI0
aI0
aI0
aI0
aI0
aI0
aI0
aI0
aI0
aI0
aI0
aI0
aI0
aI0
aI0
aI0
aI0
aI0
aI0
aI0
aI0
aI0
aI1
aI1
aI0
aI0
aI0
aI0
aI0
aI0
aI0
aI0
aI0
aI0
aI0
aI0
aI0
aI0
aI0
aI0
aI0
aI0
aI0
aI0
aI0
aI0
aI0
aI0
aI0
aI0
aI0
aI0
aI0
aI0
aI0
aI0
aI0
aI0
aI0
aI0
aI0
aI0
aI0
aI0
aI0
aI0
aI0
aI0
aI0
aI0
aI0
aI0
aI0
aI0
aI0
aI0
aI1
aI0
aI0
aI0
aI0
aI0
aI0
aI0
aI0
aI0
aI0
aI0
aI0
aI0
aI0
aI0
aI0
aI0
aI0
aI0
aI0
aI0
aI0
aI0
aI0
aI0
aI1
aI1
aI0
aI0
aI0
aI0
aI1
aI1
aI0
aI0
aI0
aI1
aI0
aI0
aI0
aI1
aI1
aI0
aI0
aI0
aI0
aI0
aI0
aI0
aI0
aI0
aI0
aI0
aI0
aI0
aI0
aI0
aI0
aI0
aI0
aI0
aI0
aI0
aI0
aI0
aI0
aI0
aI0
aI0
aI0
aI0
aI0
aI0
aI0
aI0
aI0
aI0
aI0
aI0
aI0
aI0
aI0
aI0
aI0
aI0
aI0
aI0
aI0
aI0
aI0
aI0
aI0
aI0
aI0
aI0
aI0
aI0
aI0
aI0
aI0
aI0
aI0
aI0
aI0
aI0
aI0
aI0
aI0
aI0
aI0
aI0
aI0
aI0
aI0
aI0
aI0
aI0
aI0
aI0
atp1303
.