((lp0
(lp1
I234378
aF40.9084
aF53.0111
aVp1
p2
aS'utopia'
p3
aS'#02304b'
p4
aF11.8479
aI1
aI01
aI00
aI00
aI00
aI00
aI00
aI00
aI00
aa(lp5
I175409
aF46.8324
aF74.4677
aVp1
p6
aS'utopia'
p7
aS'#656565'
p8
aF8.88595
aI0
aI01
aI00
aI00
aI00
aI00
aI00
aI00
aI00
aa(lp9
I132100
aF68.3068
aF74.4677
aVp1
p10
aS'utopia'
p11
aS'#656565'
p12
aF8.88595
aI0
aI01
aI00
aI00
aI00
aI00
aI00
aI00
aI00
aa(lp13
I234378
aF103.84698823529412
aF74.4677
ag10
aS'utopia'
p14
aS'#656565'
p15
aF8.88595
aI0
aI01
aI00
aI00
aI00
aI00
aI00
aI00
aI00
aa(lp16
I68032
aF143.837
aF74.4677
aVp1
p17
aS'utopia'
p18
aS'#656565'
p19
aF8.88595
aI0
aI01
aI00
aI00
aI00
aI00
aI00
aI00
aI00
aa(lp20
I169745
aF199.375
aF74.4677
aVp1
p21
aS'utopia'
p22
aS'#656565'
p23
aF8.88595
aI0
aI00
aI00
aI00
aI00
aI00
aI00
aI00
aI00
aa(lp24
I234378
aF218.627
aF74.4677
aVp1
p25
aS'utopia'
p26
aS'#656565'
p27
aF8.88595
aI0
aI00
aI00
aI01
aI01
aI00
aI00
aI00
aI00
aa(lp28
I234378
aF225.292
aF74.4677
aVp1
p29
aS'utopia'
p30
aS'#656565'
p31
aF8.88595
aI0
aI00
aI00
aI00
aI00
aI00
aI00
aI00
aI00
aa(lp32
I234378
aF253.431
aF74.4677
aVp1
p33
aS'utopia'
p34
aS'#656565'
p35
aF8.88595
aI0
aI01
aI00
aI00
aI00
aI00
aI00
aI00
aI00
aa(lp36
I234378
aF59.4208
aF132.967
aVp1
p37
aS'utopia'
p38
aS'#0d75b4'
p39
aF8.88595
aI0
aI00
aI00
aI00
aI00
aI00
aI01
aI00
aI00
aa(lp40
I234378
aF301.563
aF124.081
aVp1
p41
aS'utopia'
p42
aS'#000000'
p43
aF8.88595
aI0
aI00
aI00
aI01
aI01
aI01
aI00
aI00
aI00
aa(lp44
I15548
aF55.7183
aF176.656
aVp1
p45
aS'utopia'
p46
aS'#878787'
p47
aF8.88595
aI0
aI01
aI00
aI00
aI00
aI00
aI00
aI00
aI00
aa(lp48
I104542
aF89.0407
aF176.656
aVp1
p49
aS'utopia'
p50
aS'#878787'
p51
aF8.88595
aI0
aI01
aI00
aI00
aI00
aI00
aI00
aI00
aI00
aa(lp52
I234378
aF133.94655
aF176.656
ag49
aS'utopia'
p53
aS'#878787'
p54
aF8.88595
aI0
aI00
aI00
aI00
aI00
aI00
aI00
aI00
aI00
aa(lp55
I175409
aF142.356
aF176.656
aVp1
p56
aS'utopia'
p57
aS'#000000'
p58
aF8.88595
aI0
aI01
aI00
aI00
aI00
aI00
aI00
aI00
aI00
aa(lp59
I132100
aF163.831
aF176.656
aVp1
p60
aS'utopia'
p61
aS'#000000'
p62
aF8.88595
aI0
aI01
aI00
aI00
aI00
aI00
aI00
aI00
aI00
aa(lp63
I234378
aF200.856
aF176.656
aVp1
p64
aS'utopia'
p65
aS'#000000'
p66
aF8.88595
aI0
aI01
aI00
aI00
aI00
aI00
aI00
aI00
aI00
aa(lp67
I68032
aF241.583
aF176.656
aVp1
p68
aS'utopia'
p69
aS'#000000'
p70
aF8.88595
aI0
aI01
aI00
aI00
aI00
aI00
aI00
aI00
aI00
aa(lp71
I15548
aF55.7183
aF194.428
aVp1
p72
aS'utopia'
p73
aS'#878787'
p74
aF8.88595
aI0
aI01
aI00
aI00
aI00
aI00
aI00
aI00
aI00
aa(lp75
I2006
aF89.0407
aF194.428
aVp1
p76
aS'utopia'
p77
aS'#878787'
p78
aF8.88595
aI0
aI01
aI00
aI00
aI00
aI00
aI00
aI00
aI00
aa(lp79
I234378
aF124.77815
aF194.428
ag76
aS'utopia'
p80
aS'#878787'
p81
aF8.88595
aI0
aI00
aI00
aI00
aI00
aI00
aI00
aI00
aI00
aa(lp82
I134833
aF134.211
aF194.428
aVp1
p83
aS'utopia'
p84
aS'#000000'
p85
aF8.88595
aI0
aI01
aI00
aI00
aI00
aI00
aI00
aI00
aI00
aa(lp86
I19068
aF167.533
aF194.428
aVp1
p87
aS'utopia'
p88
aS'#000000'
p89
aF8.88595
aI0
aI01
aI00
aI00
aI00
aI00
aI00
aI00
aI00
aa(lp90
I127135
aF195.672
aF194.428
aVp1
p91
aS'utopia'
p92
aS'#000000'
p93
aF8.88595
aI0
aI01
aI00
aI00
aI00
aI00
aI00
aI00
aI00
aa(lp94
I234378
aF221.589
aF194.428
aVp1
p95
aS'utopia'
p96
aS'#000000'
p97
aF8.88595
aI0
aI01
aI00
aI00
aI00
aI00
aI00
aI00
aI00
aa(lp98
I234378
aF260.095
aF194.428
aVp1
p99
aS'utopia'
p100
aS'#000000'
p101
aF8.88595
aI0
aI01
aI00
aI00
aI00
aI00
aI00
aI00
aI00
aa(lp102
I234378
aF271.28905000000003
aF194.428
ag99
aS'utopia'
p103
aS'#000000'
p104
aF8.88595
aI0
aI00
aI00
aI00
aI00
aI00
aI00
aI00
aI00
aa(lp105
I234378
aF277.127
aF194.428
aVp1
p106
aS'utopia'
p107
aS'#000000'
p108
aF8.88595
aI0
aI01
aI00
aI00
aI00
aI00
aI00
aI00
aI00
aa(lp109
I15548
aF55.7183
aF212.2
aVp1
p110
aS'utopia'
p111
aS'#878787'
p112
aF8.88595
aI0
aI01
aI00
aI00
aI00
aI00
aI00
aI00
aI00
aa(lp113
I17057
aF89.0407
aF212.2
aVp1
p114
aS'utopia'
p115
aS'#878787'
p116
aF8.88595
aI0
aI01
aI00
aI00
aI00
aI00
aI00
aI00
aI00
aa(lp117
I234378
aF122.05430000000001
aF212.2
ag114
aS'utopia'
p118
aS'#878787'
p119
aF8.88595
aI0
aI00
aI00
aI00
aI00
aI00
aI00
aI00
aI00
aa(lp120
I234378
aF130.508
aF212.2
aVp1
p121
aS'utopia'
p122
aS'#000000'
p123
aF8.88595
aI0
aI01
aI00
aI00
aI00
aI00
aI00
aI00
aI00
aa(lp124
I234378
aF173.457
aF212.2
aVp1
p125
aS'utopia'
p126
aS'#000000'
p127
aF8.88595
aI0
aI00
aI00
aI00
aI00
aI00
aI00
aI00
aI00
aa(lp128
I234378
aF180.122
aF212.2
aVp1
p129
aS'utopia'
p130
aS'#000000'
p131
aF8.88595
aI0
aI01
aI00
aI00
aI00
aI00
aI00
aI00
aI00
aa(lp132
I234378
aF55.7183
aF229.972
aVp1
p133
aS'utopia'
p134
aS'#878787'
p135
aF8.88595
aI0
aI01
aI00
aI00
aI00
aI00
aI00
aI00
aI00
aa(lp136
I234378
aF70.62062
aF229.972
ag133
aS'utopia'
p137
aS'#878787'
p138
aF8.88595
aI0
aI00
aI00
aI00
aI00
aI00
aI00
aI00
aI00
aa(lp139
I17057
aF76.4522
aF229.972
aVp1
p140
aS'utopia'
p141
aS'#878787'
p142
aF8.88595
aI0
aI01
aI00
aI00
aI00
aI00
aI00
aI00
aI00
aa(lp143
I234378
aF109.4658
aF229.972
ag140
aS'utopia'
p144
aS'#878787'
p145
aF8.88595
aI0
aI00
aI00
aI00
aI00
aI00
aI00
aI00
aI00
aa(lp146
I234378
aF117.92
aF229.972
aVp1
p147
aS'utopia'
p148
aS'#000000'
p149
aF8.88595
aI0
aI01
aI00
aI00
aI00
aI00
aI00
aI00
aI00
aa(lp150
I234378
aF160.869
aF229.972
aVp1
p151
aS'utopia'
p152
aS'#000000'
p153
aF8.88595
aI0
aI00
aI00
aI00
aI00
aI00
aI00
aI00
aI00
aa(lp154
I234378
aF167.533
aF229.972
aVp1
p155
aS'utopia'
p156
aS'#000000'
p157
aF8.88595
aI0
aI01
aI00
aI00
aI00
aI00
aI00
aI00
aI00
aa(lp158
I234378
aF205.62442
aF229.972
ag155
aS'utopia'
p159
aS'#000000'
p160
aF8.88595
aI0
aI00
aI00
aI00
aI00
aI00
aI00
aI00
aI00
aa(lp161
I70852
aF211.963
aF229.972
aVp1
p162
aS'utopia'
p163
aS'#000000'
p164
aF8.88595
aI0
aI01
aI00
aI00
aI00
aI00
aI00
aI00
aI00
aa(lp165
I234378
aF234.918
aF229.972
aVp1
p166
aS'utopia'
p167
aS'#000000'
p168
aF8.88595
aI0
aI00
aI00
aI00
aI00
aI00
aI00
aI00
aI00
aa(lp169
I234378
aF241.583
aF229.972
aVp1
p170
aS'utopia'
p171
aS'#000000'
p172
aF8.88595
aI0
aI01
aI01
aI00
aI00
aI00
aI00
aI00
aI00
aa(lp173
I234378
aF257.22005
aF229.972
ag170
aS'utopia'
p174
aS'#000000'
p175
aF8.88595
aI0
aI00
aI00
aI00
aI00
aI00
aI00
aI00
aI00
aa(lp176
I234378
aF55.7183
aF240.339
aVp1
p177
aS'utopia'
p178
aS'#000000'
p179
aF8.88595
aI0
aI01
aI00
aI00
aI00
aI00
aI00
aI00
aI00
aa(lp180
I98580
aF55.7183
aF258.111
aVp1
p181
aS'utopia'
p182
aS'#878787'
p183
aF8.88595
aI0
aI01
aI00
aI00
aI00
aI00
aI00
aI00
aI00
aa(lp184
I166289
aF100.148
aF258.111
aVp1
p185
aS'utopia'
p186
aS'#878787'
p187
aF8.88595
aI0
aI01
aI00
aI00
aI00
aI00
aI00
aI00
aI00
aa(lp188
I234378
aF116.82751999999999
aF258.111
ag185
aS'utopia'
p189
aS'#878787'
p190
aF8.88595
aI0
aI00
aI00
aI00
aI00
aI00
aI00
aI00
aI00
aa(lp191
I22476
aF125.325
aF258.111
aVp1
p192
aS'utopia'
p193
aS'#000000'
p194
aF8.88595
aI0
aI01
aI01
aI00
aI00
aI00
aI00
aI00
aI00
aa(lp195
I234378
aF135.692
aF258.111
aVp1
p196
aS'utopia'
p197
aS'#000000'
p198
aF8.88595
aI0
aI01
aI00
aI00
aI00
aI00
aI00
aI00
aI00
aa(lp199
I25931
aF178.641
aF258.111
aVp1
p200
aS'utopia'
p201
aS'#000000'
p202
aF8.88595
aI0
aI01
aI00
aI00
aI00
aI00
aI00
aI00
aI00
aa(lp203
I96642
aF203.818
aF258.111
aVp1
p204
aS'utopia'
p205
aS'#000000'
p206
aF8.88595
aI0
aI01
aI00
aI00
aI00
aI00
aI00
aI00
aI00
aa(lp207
I176435
aF55.7183
aF275.883
aVp1
p208
aS'utopia'
p209
aS'#878787'
p210
aF8.88595
aI0
aI01
aI00
aI00
aI00
aI00
aI00
aI00
aI00
aa(lp211
I234378
aF71.80542
aF275.883
ag208
aS'utopia'
p212
aS'#878787'
p213
aF8.88595
aI0
aI00
aI00
aI00
aI00
aI00
aI00
aI00
aI00
aa(lp214
I210461
aF80.1547
aF275.883
aVp1
p215
aS'utopia'
p216
aS'#000000'
p217
aF8.88595
aI0
aI01
aI00
aI00
aI00
aI00
aI00
aI00
aI00
aa(lp218
I175409
aF104.591
aF275.883
aVp1
p219
aS'utopia'
p220
aS'#000000'
p221
aF8.88595
aI0
aI01
aI00
aI00
aI00
aI00
aI00
aI00
aI00
aa(lp222
I234378
aF123.75304444444444
aF275.883
ag219
aS'utopia'
p223
aS'#000000'
p224
aF8.88595
aI0
aI00
aI00
aI00
aI00
aI00
aI00
aI00
aI00
aa(lp225
I2737
aF128.54355555555554
aF275.883
ag219
aS'utopia'
p226
aS'#000000'
p227
aF8.88595
aI0
aI01
aI00
aI00
aI00
aI00
aI00
aI00
aI00
aa(lp228
I175409
aF149.761
aF275.883
aVp1
p229
aS'utopia'
p230
aS'#000000'
p231
aF8.88595
aI0
aI01
aI00
aI00
aI00
aI00
aI00
aI00
aI00
aa(lp232
I74589
aF55.7183
aF293.654
aVp1
p233
aS'utopia'
p234
aS'#878787'
p235
aF8.88595
aI0
aI01
aI00
aI00
aI00
aI00
aI00
aI00
aI00
aa(lp236
I234378
aF87.41545555555555
aF293.654
ag233
aS'utopia'
p237
aS'#878787'
p238
aF8.88595
aI0
aI00
aI00
aI00
aI00
aI00
aI00
aI00
aI00
aa(lp239
I22476
aF95.7051
aF293.654
aVp1
p240
aS'utopia'
p241
aS'#000000'
p242
aF8.88595
aI0
aI01
aI01
aI00
aI00
aI00
aI00
aI00
aI00
aa(lp243
I234378
aF105.30374
aF293.654
ag240
aS'utopia'
p244
aS'#000000'
p245
aF8.88595
aI0
aI01
aI00
aI00
aI00
aI00
aI00
aI00
aI00
aa(lp246
I234378
aF139.69830000000002
aF293.654
ag240
aS'utopia'
p247
aS'#000000'
p248
aF8.88595
aI0
aI00
aI00
aI00
aI00
aI00
aI00
aI00
aI00
aa(lp249
I234378
aF134.99762
aF293.654
ag240
aS'utopia'
p250
aS'#000000'
p251
aF8.88595
aI0
aI01
aI00
aI00
aI00
aI00
aI00
aI00
aI00
aa(lp252
I234378
aF183.824
aF293.654
aVp1
p253
aS'utopia'
p254
aS'#000000'
p255
aF8.88595
aI0
aI01
aI00
aI00
aI00
aI00
aI00
aI00
aI00
aa(lp256
I231013
aF55.7183
aF311.426
aVp1
p257
aS'utopia'
p258
aS'#878787'
p259
aF8.88595
aI0
aI01
aI00
aI00
aI00
aI00
aI00
aI00
aI00
aa(lp260
I234378
aF72.7498
aF311.426
aVp1
p261
aS'utopia'
p262
aS'#878787'
p263
aF8.88595
aI0
aI01
aI00
aI00
aI00
aI00
aI00
aI00
aI00
aa(lp264
I234378
aF91.25542857142857
aF311.426
ag261
aS'utopia'
p265
aS'#878787'
p266
aF8.88595
aI0
aI00
aI00
aI00
aI00
aI00
aI00
aI00
aI00
aa(lp267
I84662
aF98.6671
aF311.426
aVp1
p268
aS'utopia'
p269
aS'#000000'
p270
aF8.88595
aI0
aI01
aI00
aI00
aI00
aI00
aI00
aI00
aI00
aa(lp271
I21716
aF120.141
aF311.426
aVp1
p272
aS'utopia'
p273
aS'#000000'
p274
aF8.88595
aI0
aI01
aI00
aI00
aI00
aI00
aI00
aI00
aI00
aa(lp275
I234378
aF135.04332
aF311.426
ag272
aS'utopia'
p276
aS'#000000'
p277
aF8.88595
aI0
aI00
aI00
aI00
aI00
aI00
aI00
aI00
aI00
aa(lp278
I234378
aF140.875
aF311.426
aVp1
p279
aS'utopia'
p280
aS'#000000'
p281
aF8.88595
aI0
aI01
aI01
aI01
aI00
aI00
aI00
aI00
aI00
aa(lp282
I234378
aF156.96212
aF311.426
ag279
aS'utopia'
p283
aS'#000000'
p284
aF8.88595
aI0
aI00
aI00
aI00
aI00
aI00
aI00
aI00
aI00
aa(lp285
I234378
aF163.09
aF311.426
aVp1
p286
aS'utopia'
p287
aS'#000000'
p288
aF8.88595
aI0
aI01
aI00
aI00
aI00
aI00
aI00
aI00
aI00
aa(lp289
I234378
aF184.7692
aF311.426
ag286
aS'utopia'
p290
aS'#000000'
p291
aF8.88595
aI0
aI00
aI00
aI00
aI00
aI00
aI00
aI00
aI00
aa(lp292
I176767
aF190.489
aF311.426
aVp1
p293
aS'utopia'
p294
aS'#000000'
p295
aF8.88595
aI0
aI01
aI00
aI00
aI00
aI00
aI00
aI00
aI00
aa(lp296
I234378
aF228.58042
aF311.426
ag293
aS'utopia'
p297
aS'#000000'
p298
aF8.88595
aI0
aI00
aI00
aI00
aI00
aI00
aI00
aI00
aI00
aa(lp299
I234378
aF234.918
aF311.426
aVp1
p300
aS'utopia'
p301
aS'#000000'
p302
aF8.88595
aI0
aI01
aI01
aI01
aI00
aI00
aI00
aI00
aI00
aa(lp303
I234378
aF255.995
aF311.426
ag300
aS'utopia'
p304
aS'#000000'
p305
aF8.88595
aI0
aI00
aI00
aI00
aI00
aI00
aI00
aI00
aI00
aa(lp306
I148996
aF262.317
aF311.426
aVp1
p307
aS'utopia'
p308
aS'#000000'
p309
aF8.88595
aI0
aI01
aI00
aI00
aI00
aI00
aI00
aI00
aI00
aa(lp310
I234378
aF285.90034285714285
aF311.426
ag307
aS'utopia'
p311
aS'#000000'
p312
aF8.88595
aI0
aI00
aI00
aI00
aI00
aI00
aI00
aI00
aI00
aa(lp313
I17350
aF55.7183
aF321.793
aVp1
p314
aS'utopia'
p315
aS'#000000'
p316
aF8.88595
aI0
aI01
aI00
aI00
aI00
aI00
aI00
aI00
aI00
aa(lp317
I234378
aF75.7117
aF321.793
aVp1
p318
aS'utopia'
p319
aS'#000000'
p320
aF8.88595
aI0
aI01
aI00
aI00
aI00
aI00
aI00
aI00
aI00
aa(lp321
I234378
aF106.0924111111111
aF321.793
ag318
aS'utopia'
p322
aS'#000000'
p323
aF8.88595
aI0
aI00
aI00
aI00
aI00
aI00
aI00
aI00
aI00
aa(lp324
I234378
aF111.996
aF321.793
aVp1
p325
aS'utopia'
p326
aS'#000000'
p327
aF8.88595
aI0
aI01
aI01
aI00
aI00
aI00
aI00
aI00
aI00
aa(lp328
I234378
aF133.07299999999998
aF321.793
ag325
aS'utopia'
p329
aS'#000000'
p330
aF8.88595
aI0
aI00
aI00
aI00
aI00
aI00
aI00
aI00
aI00
aa(lp331
I234378
aF139.394
aF321.793
aVp1
p332
aS'utopia'
p333
aS'#000000'
p334
aF8.88595
aI0
aI00
aI00
aI00
aI00
aI00
aI00
aI00
aI00
aa(lp335
I234378
aF164.24677142857144
aF321.793
ag332
aS'utopia'
p336
aS'#000000'
p337
aF8.88595
aI0
aI00
aI00
aI00
aI00
aI00
aI00
aI00
aI00
aa(lp338
I234378
aF170.495
aF321.793
aVp1
p339
aS'utopia'
p340
aS'#000000'
p341
aF8.88595
aI0
aI01
aI00
aI00
aI00
aI00
aI00
aI00
aI00
aa(lp342
I234378
aF185.98972
aF321.793
ag339
aS'utopia'
p343
aS'#000000'
p344
aF8.88595
aI0
aI00
aI00
aI00
aI00
aI00
aI00
aI00
aI00
aa(lp345
I234378
aF191.97
aF321.793
aVp1
p346
aS'utopia'
p347
aS'#000000'
p348
aF8.88595
aI0
aI01
aI01
aI00
aI00
aI00
aI00
aI00
aI00
aa(lp349
I234378
aF210.42672
aF321.793
ag346
aS'utopia'
p350
aS'#000000'
p351
aF8.88595
aI0
aI00
aI00
aI00
aI00
aI00
aI00
aI00
aI00
aa(lp352
I234378
aF217.146
aF321.793
aVp1
p353
aS'utopia'
p354
aS'#000000'
p355
aF8.88595
aI0
aI01
aI00
aI00
aI00
aI00
aI00
aI00
aI00
aa(lp356
I234378
aF254.27581818181818
aF321.793
ag353
aS'utopia'
p357
aS'#000000'
p358
aF8.88595
aI0
aI00
aI00
aI00
aI00
aI00
aI00
aI00
aI00
aa(lp359
I234378
aF260.095
aF321.793
aVp1
p360
aS'utopia'
p361
aS'#000000'
p362
aF8.88595
aI0
aI01
aI00
aI00
aI00
aI00
aI00
aI00
aI00
aa(lp363
I234378
aF286.10858333333334
aF321.793
ag360
aS'utopia'
p364
aS'#000000'
p365
aF8.88595
aI0
aI00
aI00
aI00
aI00
aI00
aI00
aI00
aI00
aa(lp366
I234378
aF55.7183
aF332.16
aVp1
p367
aS'utopia'
p368
aS'#000000'
p369
aF8.88595
aI0
aI01
aI00
aI00
aI00
aI00
aI00
aI00
aI00
aa(lp370
I234378
aF87.41545555555555
aF332.16
ag367
aS'utopia'
p371
aS'#000000'
p372
aF8.88595
aI0
aI00
aI00
aI00
aI00
aI00
aI00
aI00
aI00
aa(lp373
I45445
aF93.4836
aF332.16
aVp1
p374
aS'utopia'
p375
aS'#000000'
p376
aF8.88595
aI0
aI01
aI00
aI00
aI00
aI00
aI00
aI00
aI00
aa(lp377
I51933
aF40.1679
aF369.203
aVp1
p378
aS'utopia'
p379
aS'#02304b'
p380
aF11.8479
aI1
aI01
aI00
aI00
aI00
aI00
aI00
aI00
aI00
aa(lp381
I60220
aF72.0093
aF369.203
aVp1
p382
aS'utopia'
p383
aS'#02304b'
p384
aF11.8479
aI1
aI01
aI00
aI00
aI00
aI00
aI00
aI00
aI00
aa(lp385
I134833
aF40.9084
aF400.92
aVp1
p386
aS'utopia'
p387
aS'#000000'
p388
aF10.3669
aI1
aI01
aI00
aI00
aI00
aI00
aI00
aI00
aI00
aa(lp389
I19068
aF80.8952
aF400.92
aVp1
p390
aS'utopia'
p391
aS'#000000'
p392
aF10.3669
aI1
aI01
aI00
aI00
aI00
aI00
aI00
aI00
aI00
aa(lp393
I127135
aF114.218
aF400.92
aVp1
p394
aS'utopia'
p395
aS'#000000'
p396
aF10.3669
aI1
aI01
aI00
aI00
aI00
aI00
aI00
aI00
aI00
aa(lp397
I234378
aF145.318
aF400.92
aVp1
p398
aS'utopia'
p399
aS'#000000'
p400
aF10.3669
aI1
aI01
aI00
aI00
aI00
aI00
aI00
aI00
aI00
aa(lp401
I234378
aF192.71
aF400.92
aVp1
p402
aS'utopia'
p403
aS'#000000'
p404
aF10.3669
aI1
aI01
aI00
aI00
aI00
aI00
aI00
aI00
aI00
aa(lp405
I234378
aF206.5343
aF400.92
ag402
aS'utopia'
p406
aS'#000000'
p407
aF10.3669
aI1
aI00
aI00
aI00
aI00
aI00
aI00
aI00
aI00
aa(lp408
I234378
aF213.444
aF400.92
aVp1
p409
aS'utopia'
p410
aS'#000000'
p411
aF10.3669
aI1
aI01
aI00
aI00
aI00
aI00
aI00
aI00
aI00
aa(lp412
I234378
aF231.216
aF401.189
aVp1
p413
aS'utopia'
p414
aS'#656565'
p415
aF10.3669
aI0
aI00
aI00
aI00
aI00
aI00
aI00
aI00
aI00
aa(lp416
I15548
aF236.19342500000002
aF401.189
ag413
aS'utopia'
p417
aS'#656565'
p418
aF10.3669
aI0
aI01
aI00
aI00
aI00
aI00
aI00
aI00
aI00
aa(lp419
I70289
aF273.424
aF401.189
aVp1
p420
aS'utopia'
p421
aS'#656565'
p422
aF10.3669
aI0
aI01
aI00
aI00
aI00
aI00
aI00
aI00
aI00
aa(lp423
I234378
aF316.7729777777778
aF401.189
ag420
aS'utopia'
p424
aS'#656565'
p425
aF10.3669
aI0
aI00
aI00
aI00
aI00
aI00
aI00
aI00
aI00
aa(lp426
I175409
aF40.9084
aF417.48
aVp1
p427
aS'utopia'
p428
aS'#656565'
p429
aF10.3669
aI0
aI01
aI00
aI00
aI00
aI00
aI00
aI00
aI00
aa(lp430
I132100
aF65.3448
aF417.48
aVp1
p431
aS'utopia'
p432
aS'#656565'
p433
aF10.3669
aI0
aI01
aI00
aI00
aI00
aI00
aI00
aI00
aI00
aa(lp434
I234378
aF109.034
aF417.48
aVp1
p435
aS'utopia'
p436
aS'#656565'
p437
aF10.3669
aI0
aI01
aI00
aI00
aI00
aI00
aI00
aI00
aI00
aa(lp438
I68032
aF155.685
aF417.48
aVp1
p439
aS'utopia'
p440
aS'#656565'
p441
aF10.3669
aI0
aI01
aI00
aI00
aI00
aI00
aI00
aI00
aI00
aa(lp442
I234378
aF226.773
aF417.48
aVp1
p443
aS'utopia'
p444
aS'#656565'
p445
aF10.3669
aI0
aI01
aI00
aI00
aI00
aI00
aI00
aI00
aI01
aa(lp446
I234378
aF248.247
aF417.48
aVp1
p447
aS'utopia'
p448
aS'#656565'
p449
aF10.3669
aI0
aI00
aI00
aI01
aI01
aI01
aI00
aI00
aI00
aa(lp450
I105322
aF40.9084
aF437.311
aVp1
p451
aS'utopia'
p452
aS'#656565'
p453
aF8.88595
aI0
aI01
aI00
aI00
aI00
aI00
aI00
aI00
aI00
aa(lp454
I135639
aF77.1927
aF437.311
aVp1
p455
aS'utopia'
p456
aS'#656565'
p457
aF8.88595
aI0
aI00
aI00
aI00
aI00
aI00
aI00
aI00
aI00
aa(lp458
I234378
aF86.8192
aF437.311
aVp1
p459
aS'utopia'
p460
aS'#656565'
p461
aF8.88595
aI0
aI00
aI00
aI00
aI00
aI00
aI00
aI00
aI00
aa(lp462
I234378
aF111.67197142857142
aF437.311
ag459
aS'utopia'
p463
aS'#656565'
p464
aF8.88595
aI0
aI00
aI00
aI00
aI00
aI00
aI00
aI00
aI00
aa(lp465
I154254
aF117.92
aF437.311
aVp1
p466
aS'utopia'
p467
aS'#656565'
p468
aF8.88595
aI0
aI00
aI00
aI00
aI00
aI00
aI00
aI00
aI00
aa(lp469
I144690
aF168.274
aF437.311
aVp1
p470
aS'utopia'
p471
aS'#656565'
p472
aF8.88595
aI0
aI00
aI00
aI00
aI00
aI00
aI00
aI00
aI00
aa(lp473
I234378
aF191.85734285714287
aF437.311
ag470
aS'utopia'
p474
aS'#656565'
p475
aF8.88595
aI0
aI00
aI00
aI00
aI00
aI00
aI00
aI00
aI00
aa(lp476
I142554
aF197.894
aF437.311
aVp1
p477
aS'utopia'
p478
aS'#656565'
p479
aF8.88595
aI0
aI00
aI00
aI00
aI00
aI00
aI00
aI00
aI00
aa(lp480
I153177
aF247.507
aF437.311
aVp1
p481
aS'utopia'
p482
aS'#656565'
p483
aF8.88595
aI0
aI00
aI00
aI00
aI00
aI00
aI00
aI00
aI00
aa(lp484
I234378
aF296.754
aF437.311
ag481
aS'utopia'
p485
aS'#656565'
p486
aF8.88595
aI0
aI00
aI00
aI00
aI00
aI00
aI00
aI00
aI00
aa(lp487
I202216
aF303.784
aF437.311
aVp1
p488
aS'utopia'
p489
aS'#656565'
p490
aF8.88595
aI0
aI00
aI00
aI00
aI00
aI00
aI00
aI00
aI00
aa(lp491
I96295
aF355.619
aF437.311
aVp1
p492
aS'utopia'
p493
aS'#656565'
p494
aF8.88595
aI0
aI00
aI00
aI00
aI00
aI00
aI00
aI00
aI00
aa(lp495
I234378
aF391.04462
aF437.311
ag492
aS'utopia'
p496
aS'#656565'
p497
aF8.88595
aI0
aI00
aI00
aI00
aI00
aI00
aI00
aI00
aI00
aa(lp498
I202216
aF397.087
aF437.311
aVp1
p499
aS'utopia'
p500
aS'#656565'
p501
aF8.88595
aI0
aI00
aI00
aI00
aI00
aI00
aI00
aI00
aI00
aa(lp502
I166558
aF448.922
aF437.311
aVp1
p503
aS'utopia'
p504
aS'#656565'
p505
aF8.88595
aI0
aI00
aI00
aI00
aI00
aI00
aI00
aI00
aI00
aa(lp506
I85218
aF481.503
aF437.311
aVp1
p507
aS'utopia'
p508
aS'#656565'
p509
aF8.88595
aI0
aI00
aI00
aI00
aI00
aI00
aI00
aI00
aI00
aa(lp510
I234378
aF498.535
aF437.311
aVp1
p511
aS'utopia'
p512
aS'#656565'
p513
aF8.88595
aI0
aI00
aI00
aI00
aI00
aI00
aI00
aI00
aI00
aa(lp514
I210461
aF40.9084
aF447.678
aVp1
p515
aS'utopia'
p516
aS'#656565'
p517
aF8.88595
aI0
aI00
aI00
aI00
aI00
aI00
aI00
aI00
aI00
aa(lp518
I89480
aF63.1233
aF447.678
aVp1
p519
aS'utopia'
p520
aS'#656565'
p521
aF8.88595
aI0
aI00
aI00
aI00
aI00
aI00
aI00
aI00
aI00
aa(lp522
I85235
aF73.4902
aF447.678
aVp1
p523
aS'utopia'
p524
aS'#656565'
p525
aF8.88595
aI0
aI00
aI00
aI00
aI00
aI00
aI00
aI00
aI00
aa(lp526
I98580
aF89.7812
aF447.678
aVp1
p527
aS'utopia'
p528
aS'#656565'
p529
aF8.88595
aI0
aI00
aI00
aI00
aI00
aI00
aI00
aI00
aI00
aa(lp530
I85218
aF131.989
aF447.678
aVp1
p531
aS'utopia'
p532
aS'#656565'
p533
aF8.88595
aI0
aI00
aI00
aI00
aI00
aI00
aI00
aI00
aI00
aa(lp534
I149270
aF149.021
aF447.678
aVp1
p535
aS'utopia'
p536
aS'#656565'
p537
aF8.88595
aI0
aI00
aI00
aI00
aI00
aI00
aI00
aI00
aI00
aa(lp538
I234378
aF186.786
aF447.678
aVp1
p539
aS'utopia'
p540
aS'#656565'
p541
aF8.88595
aI0
aI00
aI00
aI00
aI00
aI00
aI00
aI00
aI00
aa(lp542
I48671
aF40.9084
aF458.045
aVp1
p543
aS'utopia'
p544
aS'#656565'
p545
aF8.88595
aI0
aI01
aI00
aI00
aI00
aI00
aI00
aI00
aI00
aa(lp546
I129688
aF69.0473
aF458.045
aVp1
p547
aS'utopia'
p548
aS'#656565'
p549
aF8.88595
aI0
aI01
aI00
aI00
aI00
aI00
aI00
aI00
aI00
aa(lp550
I234378
aF97.1861
aF458.045
aVp1
p551
aS'utopia'
p552
aS'#656565'
p553
aF8.88595
aI0
aI00
aI00
aI00
aI00
aI00
aI00
aI00
aI00
aa(lp554
I234378
aF101.629
aF458.045
aVp1
p555
aS'utopia'
p556
aS'#656565'
p557
aF8.88595
aI0
aI00
aI00
aI01
aI01
aI00
aI00
aI00
aI00
aa(lp558
I234378
aF108.294
aF458.045
aVp1
p559
aS'utopia'
p560
aS'#656565'
p561
aF8.88595
aI0
aI01
aI00
aI00
aI00
aI00
aI00
aI00
aI00
aa(lp562
I234378
aF40.9084
aF491.26
aVp1
p563
aS'utopia'
p564
aS'#000000'
p565
aF10.3669
aI1
aI01
aI00
aI00
aI00
aI00
aI00
aI00
aI00
aa(lp566
I43052
aF95.7051
aF491.26
aVp1
p567
aS'utopia'
p568
aS'#000000'
p569
aF10.3669
aI1
aI01
aI00
aI00
aI00
aI00
aI00
aI00
aI00
aa(lp570
I234378
aF153.464
aF491.26
aVp1
p571
aS'utopia'
p572
aS'#000000'
p573
aF10.3669
aI1
aI01
aI00
aI00
aI00
aI00
aI00
aI00
aI00
aa(lp574
I55966
aF40.9084
aF507.821
aVp1
p575
aS'utopia'
p576
aS'#656565'
p577
aF10.3669
aI0
aI01
aI00
aI00
aI00
aI00
aI00
aI00
aI00
aa(lp578
I234378
aF73.4902
aF507.821
aVp1
p579
aS'utopia'
p580
aS'#656565'
p581
aF10.3669
aI0
aI01
aI00
aI00
aI00
aI00
aI00
aI00
aI00
aa(lp582
I132100
aF116.439
aF507.821
aVp1
p583
aS'utopia'
p584
aS'#656565'
p585
aF10.3669
aI0
aI01
aI00
aI00
aI00
aI00
aI00
aI00
aI00
aa(lp586
I234378
aF164.571
aF507.821
aVp1
p587
aS'utopia'
p588
aS'#656565'
p589
aF10.3669
aI0
aI01
aI00
aI00
aI00
aI00
aI00
aI00
aI01
aa(lp590
I234378
aF184.565
aF507.821
aVp1
p591
aS'utopia'
p592
aS'#656565'
p593
aF10.3669
aI0
aI00
aI00
aI01
aI01
aI01
aI00
aI00
aI00
aa(lp594
I89480
aF207.52
aF507.821
aVp1
p595
aS'utopia'
p596
aS'#656565'
p597
aF10.3669
aI0
aI01
aI00
aI00
aI00
aI00
aI00
aI00
aI00
aa(lp598
I234378
aF222.33
aF507.821
aVp1
p599
aS'utopia'
p600
aS'#656565'
p601
aF10.3669
aI0
aI01
aI00
aI00
aI00
aI00
aI00
aI00
aI01
aa(lp602
I234378
aF243.804
aF507.821
aVp1
p603
aS'utopia'
p604
aS'#656565'
p605
aF10.3669
aI0
aI00
aI00
aI01
aI01
aI01
aI00
aI00
aI00
aa(lp606
I234378
aF40.9084
aF550.5
aVp1
p607
aS'utopia'
p608
aS'#000000'
p609
aF10.3669
aI1
aI01
aI00
aI00
aI00
aI00
aI00
aI00
aI00
aa(lp610
I234378
aF67.5663
aF550.5
aVp1
p611
aS'utopia'
p612
aS'#000000'
p613
aF10.3669
aI1
aI01
aI00
aI00
aI00
aI00
aI00
aI00
aI00
aa(lp614
I234378
aF132.73
aF550.5
aVp1
p615
aS'utopia'
p616
aS'#000000'
p617
aF10.3669
aI1
aI01
aI00
aI00
aI00
aI00
aI00
aI00
aI00
aa(lp618
I55966
aF40.9084
aF567.06
aVp1
p619
aS'utopia'
p620
aS'#656565'
p621
aF10.3669
aI0
aI01
aI00
aI00
aI00
aI00
aI00
aI00
aI00
aa(lp622
I234378
aF73.4902
aF567.06
aVp1
p623
aS'utopia'
p624
aS'#656565'
p625
aF10.3669
aI0
aI01
aI00
aI00
aI00
aI00
aI00
aI00
aI00
aa(lp626
I132100
aF116.439
aF567.06
aVp1
p627
aS'utopia'
p628
aS'#656565'
p629
aF10.3669
aI0
aI01
aI00
aI00
aI00
aI00
aI00
aI00
aI00
aa(lp630
I234378
aF164.571
aF567.06
aVp1
p631
aS'utopia'
p632
aS'#656565'
p633
aF10.3669
aI0
aI01
aI00
aI00
aI00
aI00
aI00
aI00
aI01
aa(lp634
I234378
aF183.824
aF567.06
aVp1
p635
aS'utopia'
p636
aS'#656565'
p637
aF10.3669
aI0
aI00
aI00
aI01
aI01
aI01
aI00
aI00
aI00
aa(lp638
I89480
aF206.779
aF567.06
aVp1
p639
aS'utopia'
p640
aS'#656565'
p641
aF10.3669
aI0
aI01
aI00
aI00
aI00
aI00
aI00
aI00
aI00
aa(lp642
I27216
aF221.589
aF567.06
aVp1
p643
aS'utopia'
p644
aS'#656565'
p645
aF10.3669
aI0
aI01
aI00
aI00
aI00
aI00
aI00
aI00
aI01
aa(lp646
I234378
aF240.102
aF567.06
aVp1
p647
aS'utopia'
p648
aS'#656565'
p649
aF10.3669
aI0
aI00
aI00
aI01
aI01
aI01
aI00
aI00
aI00
aa(lp650
I124531
aF40.1679
aF612.085
aVp1
p651
aS'utopia'
p652
aS'#02304b'
p653
aF11.8479
aI1
aI01
aI00
aI00
aI00
aI00
aI00
aI00
aI00
aa(lp654
I209062
aF40.9084
aF640.369
aVp1
p655
aS'utopia'
p656
aS'#656565'
p657
aF10.3669
aI0
aI01
aI00
aI00
aI00
aI00
aI00
aI00
aI00
aa(lp658
I234378
aF63.1233
aF640.369
aVp1
p659
aS'utopia'
p660
aS'#656565'
p661
aF10.3669
aI0
aI01
aI00
aI00
aI00
aI00
aI00
aI00
aI00
aa(lp662
I234378
aF111.996
aF640.369
aVp1
p663
aS'utopia'
p664
aS'#656565'
p665
aF10.3669
aI0
aI00
aI00
aI00
aI00
aI00
aI00
aI00
aI00
aa(lp666
I4787
aF117.92
aF640.369
aVp1
p667
aS'utopia'
p668
aS'#656565'
p669
aF10.3669
aI0
aI01
aI00
aI00
aI00
aI00
aI00
aI00
aI00
aa(lp670
I234378
aF193.25582608695652
aF640.369
ag667
aS'utopia'
p671
aS'#656565'
p672
aF10.3669
aI0
aI00
aI00
aI00
aI00
aI00
aI00
aI00
aI00
aa(lp673
I221779
aF198.63695652173914
aF640.369
ag667
aS'utopia'
p674
aS'#656565'
p675
aF10.3669
aI0
aI01
aI00
aI00
aI00
aI00
aI00
aI00
aI00
aa(lp676
I177216
aF243.804
aF640.369
aVp1
p677
aS'utopia'
p678
aS'#656565'
p679
aF10.3669
aI0
aI01
aI00
aI00
aI00
aI00
aI00
aI00
aI00
aa(lp680
I234378
aF287.494
aF640.369
aVp1
p681
aS'utopia'
p682
aS'#656565'
p683
aF10.3669
aI0
aI00
aI00
aI00
aI00
aI00
aI00
aI00
aI00
aa(lp684
I234378
aF40.9084
aF656.391
aVp1
p685
aS'utopia'
p686
aS'#000000'
p687
aF10.3669
aI1
aI00
aI00
aI00
aI00
aI00
aI00
aI00
aI00
aa(lp688
I234378
aF77.1927
aF656.391
aVp1
p689
aS'utopia'
p690
aS'#000000'
p691
aF10.3669
aI1
aI00
aI00
aI00
aI00
aI00
aI00
aI00
aI00
aa(lp692
I22476
aF81.80006666666667
aF656.391
ag689
aS'utopia'
p693
aS'#000000'
p694
aF10.3669
aI1
aI01
aI01
aI00
aI00
aI00
aI00
aI00
aI00
aa(lp695
I234378
aF93.4836
aF656.391
aVp1
p696
aS'utopia'
p697
aS'#000000'
p698
aF10.3669
aI1
aI01
aI00
aI00
aI00
aI00
aI00
aI00
aI00
aa(lp699
I153177
aF138.654
aF656.391
aVp1
p700
aS'utopia'
p701
aS'#000000'
p702
aF10.3669
aI1
aI01
aI00
aI00
aI00
aI00
aI00
aI00
aI00
aa(lp703
I234378
aF199.959
aF656.391
ag700
aS'utopia'
p704
aS'#000000'
p705
aF10.3669
aI1
aI00
aI00
aI00
aI00
aI00
aI00
aI00
aI00
aa(lp706
I148192
aF40.9084
aF676.654
aVp1
p707
aS'utopia'
p708
aS'#656565'
p709
aF10.3669
aI0
aI01
aI00
aI00
aI00
aI00
aI00
aI00
aI00
aa(lp710
I234378
aF90.5217
aF676.654
aVp1
p711
aS'utopia'
p712
aS'#656565'
p713
aF10.3669
aI0
aI01
aI00
aI00
aI00
aI00
aI00
aI00
aI00
aa(lp714
I190806
aF124.584
aF676.654
aVp1
p715
aS'utopia'
p716
aS'#656565'
p717
aF10.3669
aI0
aI00
aI00
aI00
aI00
aI00
aI00
aI00
aI00
aa(lp718
I221779
aF139.394
aF676.654
aVp1
p719
aS'utopia'
p720
aS'#656565'
p721
aF10.3669
aI0
aI01
aI00
aI00
aI00
aI00
aI00
aI00
aI00
aa(lp722
I177216
aF183.084
aF676.654
aVp1
p723
aS'utopia'
p724
aS'#656565'
p725
aF10.3669
aI0
aI01
aI00
aI00
aI00
aI00
aI00
aI00
aI00
aa(lp726
I234378
aF226.773
aF676.654
aVp1
p727
aS'utopia'
p728
aS'#656565'
p729
aF10.3669
aI0
aI00
aI00
aI00
aI00
aI00
aI00
aI00
aI00
aa(lp730
I234378
aF232.55603333333332
aF676.654
ag727
aS'utopia'
p731
aS'#656565'
p732
aF10.3669
aI0
aI01
aI01
aI00
aI00
aI00
aI00
aI00
aI00
aa(lp733
I234378
aF255.68816666666666
aF676.654
ag727
aS'utopia'
p734
aS'#656565'
p735
aF10.3669
aI0
aI00
aI00
aI00
aI00
aI00
aI00
aI00
aI00
aa(lp736
I135639
aF268.241
aF676.654
aVp1
p737
aS'utopia'
p738
aS'#656565'
p739
aF10.3669
aI0
aI00
aI00
aI00
aI00
aI00
aI00
aI00
aI00
aa(lp740
I234378
aF280.089
aF676.654
aVp1
p741
aS'utopia'
p742
aS'#656565'
p743
aF10.3669
aI0
aI00
aI00
aI01
aI01
aI01
aI00
aI00
aI00
aa(lp744
I234378
aF40.9084
aF704.793
aVp1
p745
aS'utopia'
p746
aS'#656565'
p747
aF10.3669
aI0
aI01
aI00
aI00
aI00
aI00
aI00
aI00
aI00
aa(lp748
I234378
aF117.18
aF704.793
aVp1
p749
aS'utopia'
p750
aS'#656565'
p751
aF10.3669
aI0
aI00
aI00
aI00
aI00
aI00
aI00
aI00
aI00
aa(lp752
I60201
aF123.103
aF704.793
aVp1
p753
aS'utopia'
p754
aS'#656565'
p755
aF10.3669
aI0
aI01
aI00
aI00
aI00
aI00
aI00
aI00
aI00
aa(lp756
I230071
aF143.097
aF704.793
aVp1
p757
aS'utopia'
p758
aS'#656565'
p759
aF10.3669
aI0
aI01
aI00
aI00
aI00
aI00
aI00
aI00
aI00
aa(lp760
I234378
aF169.755
aF704.793
aVp1
p761
aS'utopia'
p762
aS'#656565'
p763
aF10.3669
aI0
aI00
aI00
aI00
aI00
aI00
aI00
aI00
aI00
aa(lp764
I234378
aF40.9084
aF720.814
aVp1
p765
aS'utopia'
p766
aS'#000000'
p767
aF10.3669
aI1
aI01
aI01
aI00
aI00
aI00
aI00
aI00
aI00
aa(lp768
I234378
aF64.6043
aF720.814
aVp1
p769
aS'utopia'
p770
aS'#000000'
p771
aF10.3669
aI1
aI00
aI00
aI00
aI00
aI00
aI00
aI00
aI00
aa(lp772
I234378
aF70.19625454545454
aF720.814
ag769
aS'utopia'
p773
aS'#000000'
p774
aF10.3669
aI1
aI01
aI00
aI00
aI00
aI00
aI00
aI00
aI00
aa(lp775
I234378
aF120.52384545454544
aF720.814
ag769
aS'utopia'
p776
aS'#000000'
p777
aF10.3669
aI1
aI00
aI00
aI00
aI00
aI00
aI00
aI00
aI00
aa(lp778
I234378
aF40.9084
aF741.077
aVp1
p779
aS'utopia'
p780
aS'#656565'
p781
aF10.3669
aI0
aI01
aI00
aI00
aI00
aI00
aI00
aI00
aI00
aa(lp782
I234378
aF71.2688
aF741.077
aVp1
p783
aS'utopia'
p784
aS'#656565'
p785
aF10.3669
aI0
aI01
aI00
aI00
aI00
aI00
aI00
aI00
aI00
aa(lp786
I25058
aF108.294
aF741.077
aVp1
p787
aS'utopia'
p788
aS'#656565'
p789
aF10.3669
aI0
aI01
aI00
aI00
aI00
aI00
aI00
aI00
aI00
aa(lp790
I30288
aF151.242
aF741.077
aVp1
p791
aS'utopia'
p792
aS'#656565'
p793
aF10.3669
aI0
aI01
aI00
aI00
aI00
aI00
aI00
aI00
aI00
aa(lp794
I153079
aF180.122
aF741.077
aVp1
p795
aS'utopia'
p796
aS'#656565'
p797
aF10.3669
aI0
aI01
aI00
aI00
aI00
aI00
aI00
aI00
aI00
aa(lp798
I234378
aF230.475
aF741.077
aVp1
p799
aS'utopia'
p800
aS'#656565'
p801
aF10.3669
aI0
aI00
aI00
aI00
aI00
aI00
aI00
aI00
aI00
aa(lp802
I234378
aF236.59551428571427
aF741.077
ag799
aS'utopia'
p803
aS'#656565'
p804
aF10.3669
aI0
aI01
aI01
aI00
aI00
aI00
aI00
aI00
aI00
aa(lp805
I234378
aF267.1980857142857
aF741.077
ag799
aS'utopia'
p806
aS'#656565'
p807
aF10.3669
aI0
aI00
aI00
aI00
aI00
aI00
aI00
aI00
aI00
aa(lp808
I135639
aF280.089
aF741.077
aVp1
p809
aS'utopia'
p810
aS'#656565'
p811
aF10.3669
aI0
aI00
aI00
aI00
aI00
aI00
aI00
aI00
aI00
aa(lp812
I234378
aF291.937
aF741.077
aVp1
p813
aS'utopia'
p814
aS'#656565'
p815
aF10.3669
aI0
aI00
aI00
aI01
aI01
aI01
aI00
aI00
aI00
aa(lp816
I22476
aF40.1679
aF774.995
aVp1
p817
aS'utopia'
p818
aS'#02304b'
p819
aF11.8479
aI1
aI01
aI01
aI00
aI00
aI00
aI00
aI00
aI00
aa(lp820
I234378
aF54.2374
aF774.995
aVp1
p821
aS'utopia'
p822
aS'#02304b'
p823
aF11.8479
aI1
aI01
aI00
aI00
aI00
aI00
aI00
aI00
aI00
aa(lp824
I109610
aF48.3134
aF802.885
aVp1
p825
aS'utopia'
p826
aS'#000000'
p827
aF8.88595
aI1
aI01
aI00
aI00
aI00
aI00
aI00
aI00
aI00
aa(lp828
I158577
aF69.7878
aF802.885
aVp1
p829
aS'utopia'
p830
aS'#000000'
p831
aF8.88595
aI1
aI01
aI00
aI00
aI00
aI00
aI00
aI00
aI00
aa(lp832
I194179
aF188.267
aF802.885
aVp1
p833
aS'utopia'
p834
aS'#000000'
p835
aF8.88595
aI1
aI01
aI00
aI00
aI00
aI00
aI00
aI00
aI00
aa(lp836
I177981
aF305.265
aF802.885
aVp1
p837
aS'utopia'
p838
aS'#000000'
p839
aF8.88595
aI1
aI01
aI00
aI00
aI00
aI00
aI00
aI00
aI00
aa(lp840
I25729
aF324.518
aF802.885
aVp1
p841
aS'utopia'
p842
aS'#000000'
p843
aF8.88595
aI1
aI01
aI00
aI00
aI00
aI00
aI00
aI00
aI00
aa(lp844
I60220
aF412.637
aF802.885
aVp1
p845
aS'utopia'
p846
aS'#000000'
p847
aF8.88595
aI1
aI01
aI00
aI00
aI00
aI00
aI00
aI00
aI00
aa(lp848
I84662
aF48.3134
aF36.7024
aVp2
p849
aS'utopia'
p850
aS'#656565'
p851
aF8.88595
aI0
aI01
aI01
aI00
aI00
aI00
aI00
aI00
aI00
aa(lp852
I21716
aF74.2307
aF36.7024
aVp2
p853
aS'utopia'
p854
aS'#656565'
p855
aF8.88595
aI0
aI01
aI01
aI00
aI00
aI00
aI00
aI00
aI00
aa(lp856
I234378
aF188.267
aF36.7024
aVp2
p857
aS'utopia'
p858
aS'#656565'
p859
aF8.88595
aI0
aI00
aI00
aI01
aI01
aI00
aI00
aI00
aI00
aa(lp860
I234378
aF191.86758
aF36.7024
ag857
aS'utopia'
p861
aS'#656565'
p862
aF8.88595
aI0
aI00
aI00
aI00
aI00
aI00
aI00
aI00
aI00
aa(lp863
I234378
aF195.46816
aF36.7024
ag857
aS'utopia'
p864
aS'#656565'
p865
aF8.88595
aI0
aI00
aI00
aI01
aI01
aI00
aI00
aI00
aI00
aa(lp866
I234378
aF197.06874000000002
aF36.7024
ag857
aS'utopia'
p867
aS'#656565'
p868
aF8.88595
aI0
aI00
aI00
aI00
aI00
aI00
aI00
aI00
aI00
aa(lp869
I234378
aF202.66932000000003
aF36.7024
ag857
aS'utopia'
p870
aS'#656565'
p871
aF8.88595
aI0
aI00
aI00
aI01
aI01
aI00
aI00
aI00
aI00
aa(lp872
I234378
aF317.113
aF36.7024
aVp2
p873
aS'utopia'
p874
aS'#656565'
p875
aF8.88595
aI0
aI00
aI00
aI01
aI01
aI01
aI00
aI00
aI00
aa(lp876
I234378
aF422.264
aF36.7024
aVp2
p877
aS'utopia'
p878
aS'#656565'
p879
aF8.88595
aI0
aI00
aI00
aI01
aI01
aI00
aI00
aI00
aI00
aa(lp880
I234378
aF428.928
aF36.7024
aVp2
p881
aS'utopia'
p882
aS'#656565'
p883
aF8.88595
aI0
aI01
aI00
aI00
aI00
aI00
aI00
aI00
aI00
aa(lp884
I234378
aF48.3134
aF55.2148
aVp2
p885
aS'utopia'
p886
aS'#656565'
p887
aF8.88595
aI0
aI01
aI01
aI01
aI00
aI00
aI00
aI00
aI00
aa(lp888
I234378
aF188.267
aF55.2148
aVp2
p889
aS'utopia'
p890
aS'#656565'
p891
aF8.88595
aI0
aI00
aI00
aI01
aI01
aI00
aI00
aI00
aI00
aa(lp892
I234378
aF192.32196666666667
aF55.2148
ag889
aS'utopia'
p893
aS'#656565'
p894
aF8.88595
aI0
aI00
aI00
aI00
aI00
aI00
aI00
aI00
aI00
aa(lp895
I225568
aF196.37693333333334
aF55.2148
ag889
aS'utopia'
p896
aS'#656565'
p897
aF8.88595
aI0
aI01
aI01
aI00
aI00
aI00
aI00
aI00
aI00
aa(lp898
I234378
aF317.113
aF55.2148
aVp2
p899
aS'utopia'
p900
aS'#656565'
p901
aF8.88595
aI0
aI00
aI00
aI01
aI01
aI01
aI00
aI00
aI00
aa(lp902
I234378
aF422.264
aF55.2148
aVp2
p903
aS'utopia'
p904
aS'#656565'
p905
aF8.88595
aI0
aI00
aI00
aI01
aI01
aI00
aI00
aI00
aI00
aa(lp906
I234378
aF428.928
aF55.2148
aVp2
p907
aS'utopia'
p908
aS'#656565'
p909
aF8.88595
aI0
aI01
aI00
aI00
aI00
aI00
aI00
aI00
aI00
aa(lp910
I148996
aF48.3134
aF73.7272
aVp2
p911
aS'utopia'
p912
aS'#656565'
p913
aF8.88595
aI0
aI01
aI00
aI00
aI00
aI00
aI00
aI00
aI00
aa(lp914
I234378
aF188.267
aF73.7272
aVp2
p915
aS'utopia'
p916
aS'#656565'
p917
aF8.88595
aI0
aI00
aI00
aI01
aI01
aI00
aI00
aI00
aI00
aa(lp918
I234378
aF191.90897142857142
aF73.7272
ag915
aS'utopia'
p919
aS'#656565'
p920
aF8.88595
aI0
aI00
aI00
aI00
aI00
aI00
aI00
aI00
aI00
aa(lp921
I234378
aF195.55094285714284
aF73.7272
ag915
aS'utopia'
p922
aS'#656565'
p923
aF8.88595
aI0
aI00
aI00
aI01
aI01
aI00
aI00
aI00
aI00
aa(lp924
I234378
aF199.19291428571427
aF73.7272
ag915
aS'utopia'
p925
aS'#656565'
p926
aF8.88595
aI0
aI00
aI00
aI00
aI00
aI00
aI00
aI00
aI00
aa(lp927
I234378
aF202.8348857142857
aF73.7272
ag915
aS'utopia'
p928
aS'#656565'
p929
aF8.88595
aI0
aI00
aI00
aI01
aI01
aI00
aI00
aI00
aI00
aa(lp930
I234378
aF202.4768571428571
aF73.7272
ag915
aS'utopia'
p931
aS'#656565'
p932
aF8.88595
aI0
aI00
aI00
aI00
aI00
aI00
aI00
aI00
aI00
aa(lp933
I225568
aF210.11882857142854
aF73.7272
ag915
aS'utopia'
p934
aS'#656565'
p935
aF8.88595
aI0
aI01
aI01
aI00
aI00
aI00
aI00
aI00
aI00
aa(lp936
I234378
aF317.113
aF73.7272
aVp2
p937
aS'utopia'
p938
aS'#656565'
p939
aF8.88595
aI0
aI00
aI00
aI01
aI01
aI01
aI00
aI00
aI00
aa(lp940
I234378
aF422.264
aF73.7272
aVp2
p941
aS'utopia'
p942
aS'#656565'
p943
aF8.88595
aI0
aI00
aI00
aI01
aI01
aI00
aI00
aI00
aI00
aa(lp944
I234378
aF428.928
aF73.7272
aVp2
p945
aS'utopia'
p946
aS'#656565'
p947
aF8.88595
aI0
aI01
aI00
aI00
aI00
aI00
aI00
aI00
aI00
aa(lp948
I176767
aF48.3134
aF92.2396
aVp2
p949
aS'utopia'
p950
aS'#656565'
p951
aF8.88595
aI0
aI01
aI00
aI00
aI00
aI00
aI00
aI00
aI00
aa(lp952
I234378
aF188.267
aF92.2396
aVp2
p953
aS'utopia'
p954
aS'#656565'
p955
aF8.88595
aI0
aI00
aI00
aI01
aI01
aI00
aI00
aI00
aI00
aa(lp956
I234378
aF191.73505714285713
aF92.2396
ag953
aS'utopia'
p957
aS'#656565'
p958
aF8.88595
aI0
aI00
aI00
aI00
aI00
aI00
aI00
aI00
aI00
aa(lp959
I234378
aF195.20311428571426
aF92.2396
ag953
aS'utopia'
p960
aS'#656565'
p961
aF8.88595
aI0
aI00
aI00
aI01
aI01
aI00
aI00
aI00
aI00
aa(lp962
I234378
aF198.6711714285714
aF92.2396
ag953
aS'utopia'
p963
aS'#656565'
p964
aF8.88595
aI0
aI00
aI00
aI00
aI00
aI00
aI00
aI00
aI00
aa(lp965
I234378
aF202.13922857142853
aF92.2396
ag953
aS'utopia'
p966
aS'#656565'
p967
aF8.88595
aI0
aI00
aI00
aI01
aI01
aI00
aI00
aI00
aI00
aa(lp968
I234378
aF201.60728571428567
aF92.2396
ag953
aS'utopia'
p969
aS'#656565'
p970
aF8.88595
aI0
aI00
aI00
aI00
aI00
aI00
aI00
aI00
aI00
aa(lp971
I225568
aF209.0753428571428
aF92.2396
ag953
aS'utopia'
p972
aS'#656565'
p973
aF8.88595
aI0
aI00
aI00
aI00
aI00
aI00
aI00
aI00
aI00
aa(lp974
I234378
aF317.113
aF92.2396
aVp2
p975
aS'utopia'
p976
aS'#656565'
p977
aF8.88595
aI0
aI00
aI00
aI01
aI01
aI01
aI00
aI00
aI00
aa(lp978
I234378
aF422.264
aF92.2396
aVp2
p979
aS'utopia'
p980
aS'#656565'
p981
aF8.88595
aI0
aI00
aI00
aI01
aI01
aI00
aI00
aI00
aI00
aa(lp982
I234378
aF428.928
aF92.2396
aVp2
p983
aS'utopia'
p984
aS'#656565'
p985
aF8.88595
aI0
aI01
aI00
aI00
aI00
aI00
aI00
aI00
aI00
aa(lp986
I234378
aF48.3134
aF110.752
aVp2
p987
aS'utopia'
p988
aS'#656565'
p989
aF8.88595
aI0
aI01
aI01
aI00
aI00
aI00
aI00
aI00
aI00
aa(lp990
I234378
aF188.267
aF110.752
aVp2
p991
aS'utopia'
p992
aS'#656565'
p993
aF8.88595
aI0
aI00
aI00
aI01
aI01
aI00
aI00
aI00
aI00
aa(lp994
I234378
aF192.0465
aF110.752
ag991
aS'utopia'
p995
aS'#656565'
p996
aF8.88595
aI0
aI00
aI00
aI00
aI00
aI00
aI00
aI00
aI00
aa(lp997
I234378
aF195.82600000000002
aF110.752
ag991
aS'utopia'
p998
aS'#656565'
p999
aF8.88595
aI0
aI00
aI00
aI01
aI01
aI00
aI00
aI00
aI00
aa(lp1000
I234378
aF317.113
aF110.752
aVp2
p1001
aS'utopia'
p1002
aS'#656565'
p1003
aF8.88595
aI0
aI00
aI00
aI01
aI01
aI01
aI00
aI00
aI00
aa(lp1004
I234378
aF422.264
aF110.752
aVp2
p1005
aS'utopia'
p1006
aS'#656565'
p1007
aF8.88595
aI0
aI00
aI00
aI01
aI01
aI00
aI00
aI00
aI00
aa(lp1008
I234378
aF428.928
aF110.752
aVp2
p1009
aS'utopia'
p1010
aS'#656565'
p1011
aF8.88595
aI0
aI01
aI00
aI00
aI00
aI00
aI00
aI00
aI00
aa(lp1012
I234378
aF48.3134
aF129.264
aVp2
p1013
aS'utopia'
p1014
aS'#656565'
p1015
aF8.88595
aI0
aI01
aI00
aI00
aI00
aI00
aI00
aI00
aI00
aa(lp1016
I234378
aF188.267
aF129.264
aVp2
p1017
aS'utopia'
p1018
aS'#656565'
p1019
aF8.88595
aI0
aI00
aI00
aI01
aI01
aI00
aI00
aI00
aI00
aa(lp1020
I234378
aF191.73505714285713
aF129.264
ag1017
aS'utopia'
p1021
aS'#656565'
p1022
aF8.88595
aI0
aI00
aI00
aI00
aI00
aI00
aI00
aI00
aI00
aa(lp1023
I234378
aF195.20311428571426
aF129.264
ag1017
aS'utopia'
p1024
aS'#656565'
p1025
aF8.88595
aI0
aI00
aI00
aI01
aI01
aI00
aI00
aI00
aI00
aa(lp1026
I234378
aF198.6711714285714
aF129.264
ag1017
aS'utopia'
p1027
aS'#656565'
p1028
aF8.88595
aI0
aI00
aI00
aI00
aI00
aI00
aI00
aI00
aI00
aa(lp1029
I234378
aF202.13922857142853
aF129.264
ag1017
aS'utopia'
p1030
aS'#656565'
p1031
aF8.88595
aI0
aI00
aI00
aI01
aI01
aI00
aI00
aI00
aI00
aa(lp1032
I234378
aF201.60728571428567
aF129.264
ag1017
aS'utopia'
p1033
aS'#656565'
p1034
aF8.88595
aI0
aI00
aI00
aI00
aI00
aI00
aI00
aI00
aI00
aa(lp1035
I225568
aF209.0753428571428
aF129.264
ag1017
aS'utopia'
p1036
aS'#656565'
p1037
aF8.88595
aI0
aI00
aI00
aI00
aI00
aI00
aI00
aI00
aI00
aa(lp1038
I234378
aF317.113
aF129.264
aVp2
p1039
aS'utopia'
p1040
aS'#656565'
p1041
aF8.88595
aI0
aI00
aI00
aI01
aI01
aI01
aI00
aI00
aI00
aa(lp1042
I234378
aF422.264
aF129.264
aVp2
p1043
aS'utopia'
p1044
aS'#656565'
p1045
aF8.88595
aI0
aI00
aI00
aI01
aI01
aI00
aI00
aI00
aI00
aa(lp1046
I234378
aF428.928
aF129.264
aVp2
p1047
aS'utopia'
p1048
aS'#656565'
p1049
aF8.88595
aI0
aI01
aI00
aI00
aI00
aI00
aI00
aI00
aI00
aa(lp1050
I234378
aF48.3134
aF147.777
aVp2
p1051
aS'utopia'
p1052
aS'#656565'
p1053
aF8.88595
aI0
aI01
aI01
aI00
aI00
aI00
aI00
aI00
aI00
aa(lp1054
I234378
aF188.267
aF147.777
aVp2
p1055
aS'utopia'
p1056
aS'#656565'
p1057
aF8.88595
aI0
aI00
aI00
aI01
aI01
aI01
aI00
aI00
aI00
aa(lp1058
I234378
aF317.113
aF147.777
aVp2
p1059
aS'utopia'
p1060
aS'#656565'
p1061
aF8.88595
aI0
aI00
aI00
aI01
aI01
aI01
aI00
aI00
aI00
aa(lp1062
I234378
aF422.264
aF147.777
aVp2
p1063
aS'utopia'
p1064
aS'#656565'
p1065
aF8.88595
aI0
aI00
aI00
aI01
aI01
aI00
aI00
aI00
aI00
aa(lp1066
I234378
aF428.928
aF147.777
aVp2
p1067
aS'utopia'
p1068
aS'#656565'
p1069
aF8.88595
aI0
aI01
aI00
aI00
aI00
aI00
aI00
aI00
aI00
aa(lp1070
I195166
aF40.1679
aF198.148
aVp2
p1071
aS'utopia'
p1072
aS'#02304b'
p1073
aF11.8479
aI1
aI01
aI00
aI00
aI00
aI00
aI00
aI00
aI00
aa(lp1074
I136346
aF96.4456
aF198.148
aVp2
p1075
aS'utopia'
p1076
aS'#02304b'
p1077
aF11.8479
aI1
aI01
aI00
aI00
aI00
aI00
aI00
aI00
aI00
aa(lp1078
I195166
aF48.3134
aF226.038
aVp2
p1079
aS'utopia'
p1080
aS'#000000'
p1081
aF8.88595
aI1
aI01
aI00
aI00
aI00
aI00
aI00
aI00
aI00
aa(lp1082
I164378
aF177.16
aF226.038
aVp2
p1083
aS'utopia'
p1084
aS'#000000'
p1085
aF8.88595
aI1
aI01
aI00
aI00
aI00
aI00
aI00
aI00
aI00
aa(lp1086
I175077
aF296.379
aF226.038
aVp2
p1087
aS'utopia'
p1088
aS'#000000'
p1089
aF8.88595
aI1
aI01
aI00
aI00
aI00
aI00
aI00
aI00
aI00
aa(lp1090
I224291
aF397.087
aF226.038
aVp2
p1091
aS'utopia'
p1092
aS'#000000'
p1093
aF8.88595
aI1
aI01
aI00
aI00
aI00
aI00
aI00
aI00
aI00
aa(lp1094
I165206
aF497.054
aF226.038
aVp2
p1095
aS'utopia'
p1096
aS'#000000'
p1097
aF8.88595
aI1
aI01
aI00
aI00
aI00
aI00
aI00
aI00
aI00
aa(lp1098
I144532
aF48.3134
aF244.782
aVp2
p1099
aS'utopia'
p1100
aS'#656565'
p1101
aF8.88595
aI0
aI01
aI00
aI00
aI00
aI00
aI00
aI00
aI00
aa(lp1102
I185159
aF177.16
aF244.782
aVp2
p1103
aS'utopia'
p1104
aS'#656565'
p1105
aF8.88595
aI0
aI01
aI00
aI00
aI00
aI00
aI00
aI00
aI00
aa(lp1106
I58002
aF48.3134
aF263.294
aVp2
p1107
aS'utopia'
p1108
aS'#656565'
p1109
aF8.88595
aI0
aI01
aI00
aI00
aI00
aI00
aI00
aI00
aI00
aa(lp1110
I61354
aF177.16
aF263.294
aVp2
p1111
aS'utopia'
p1112
aS'#656565'
p1113
aF8.88595
aI0
aI01
aI00
aI00
aI00
aI00
aI00
aI00
aI00
aa(lp1114
I72377
aF48.3134
aF281.807
aVp2
p1115
aS'utopia'
p1116
aS'#656565'
p1117
aF8.88595
aI0
aI00
aI00
aI00
aI00
aI00
aI00
aI00
aI00
aa(lp1118
I185159
aF177.16
aF281.807
aVp2
p1119
aS'utopia'
p1120
aS'#656565'
p1121
aF8.88595
aI0
aI01
aI00
aI00
aI00
aI00
aI00
aI00
aI00
aa(lp1122
I234378
aF40.1679
aF313.666
aVp2
p1123
aS'utopia'
p1124
aS'#02304b'
p1125
aF11.8479
aI1
aI01
aI00
aI00
aI00
aI00
aI00
aI00
aI00
aa(lp1126
I19068
aF40.9084
aF345.383
aVp2
p1127
aS'utopia'
p1128
aS'#000000'
p1129
aF10.3669
aI1
aI01
aI00
aI00
aI00
aI00
aI00
aI00
aI00
aa(lp1130
I16475
aF74.2307
aF345.383
aVp2
p1131
aS'utopia'
p1132
aS'#000000'
p1133
aF10.3669
aI1
aI01
aI00
aI00
aI00
aI00
aI00
aI00
aI00
aa(lp1134
I153177
aF134.951
aF345.383
aVp2
p1135
aS'utopia'
p1136
aS'#000000'
p1137
aF10.3669
aI1
aI01
aI00
aI00
aI00
aI00
aI00
aI00
aI00
aa(lp1138
I207716
aF200.856
aF345.383
aVp2
p1139
aS'utopia'
p1140
aS'#000000'
p1141
aF10.3669
aI1
aI01
aI00
aI00
aI00
aI00
aI00
aI00
aI00
aa(lp1142
I134833
aF40.9084
aF361.943
aVp2
p1143
aS'utopia'
p1144
aS'#656565'
p1145
aF10.3669
aI0
aI01
aI00
aI00
aI00
aI00
aI00
aI00
aI00
aa(lp1146
I19068
aF80.8952
aF361.943
aVp2
p1147
aS'utopia'
p1148
aS'#656565'
p1149
aF10.3669
aI0
aI01
aI00
aI00
aI00
aI00
aI00
aI00
aI00
aa(lp1150
I234378
aF107.93513333333334
aF361.943
ag1147
aS'utopia'
p1151
aS'#656565'
p1152
aF10.3669
aI0
aI00
aI00
aI00
aI00
aI00
aI00
aI00
aI00
aa(lp1153
I22476
aF112.4417888888889
aF361.943
ag1147
aS'utopia'
p1154
aS'#656565'
p1155
aF10.3669
aI0
aI00
aI00
aI00
aI00
aI00
aI00
aI00
aI00
aa(lp1156
I234378
aF123.844
aF361.943
aVp2
p1157
aS'utopia'
p1158
aS'#656565'
p1159
aF10.3669
aI0
aI00
aI00
aI00
aI00
aI00
aI00
aI00
aI00
aa(lp1160
I63022
aF133.47
aF361.943
aVp2
p1161
aS'utopia'
p1162
aS'#656565'
p1163
aF10.3669
aI0
aI01
aI00
aI00
aI00
aI00
aI00
aI00
aI00
aa(lp1164
I234378
aF168.3664
aF361.943
ag1161
aS'utopia'
p1165
aS'#656565'
p1166
aF10.3669
aI0
aI00
aI00
aI00
aI00
aI00
aI00
aI00
aI00
aa(lp1167
I234378
aF180.122
aF361.943
aVp2
p1168
aS'utopia'
p1169
aS'#656565'
p1170
aF10.3669
aI0
aI01
aI00
aI00
aI00
aI00
aI00
aI00
aI00
aa(lp1171
I60201
aF217.146
aF361.943
aVp2
p1172
aS'utopia'
p1173
aS'#656565'
p1174
aF10.3669
aI0
aI01
aI00
aI00
aI00
aI00
aI00
aI00
aI00
aa(lp1175
I230071
aF237.14
aF361.943
aVp2
p1176
aS'utopia'
p1177
aS'#656565'
p1178
aF10.3669
aI0
aI01
aI00
aI00
aI00
aI00
aI00
aI00
aI00
aa(lp1179
I131049
aF268.241
aF361.943
aVp2
p1180
aS'utopia'
p1181
aS'#656565'
p1182
aF10.3669
aI0
aI00
aI00
aI00
aI00
aI00
aI00
aI00
aI00
aa(lp1183
I234378
aF292.677
aF361.943
aVp2
p1184
aS'utopia'
p1185
aS'#656565'
p1186
aF10.3669
aI0
aI01
aI00
aI00
aI00
aI00
aI00
aI00
aI01
aa(lp1187
I234378
aF312.67
aF361.943
aVp2
p1188
aS'utopia'
p1189
aS'#656565'
p1190
aF10.3669
aI0
aI00
aI00
aI01
aI01
aI01
aI00
aI00
aI00
aa(lp1191
I89480
aF335.626
aF361.943
aVp2
p1192
aS'utopia'
p1193
aS'#656565'
p1194
aF10.3669
aI0
aI00
aI00
aI00
aI00
aI00
aI00
aI00
aI00
aa(lp1195
I102117
aF347.474
aF361.943
aVp2
p1196
aS'utopia'
p1197
aS'#656565'
p1198
aF10.3669
aI0
aI01
aI00
aI00
aI00
aI00
aI00
aI00
aI00
aa(lp1199
I234378
aF40.9084
aF378.234
aVp2
p1200
aS'utopia'
p1201
aS'#656565'
p1202
aF10.3669
aI0
aI01
aI00
aI00
aI00
aI00
aI00
aI00
aI00
aa(lp1203
I234378
aF79.94988571428571
aF378.234
ag1200
aS'utopia'
p1204
aS'#656565'
p1205
aF10.3669
aI0
aI00
aI00
aI00
aI00
aI00
aI00
aI00
aI00
aa(lp1206
I164802
aF84.83007142857143
aF378.234
ag1200
aS'utopia'
p1207
aS'#656565'
p1208
aF10.3669
aI0
aI00
aI00
aI00
aI00
aI00
aI00
aI00
aI00
aa(lp1209
I109610
aF40.9084
aF394.362
aVp2
p1210
aS'utopia'
p1211
aS'#656565'
p1212
aF8.88595
aI0
aI01
aI00
aI00
aI00
aI00
aI00
aI00
aI00
aa(lp1213
I25729
aF58.6803
aF394.362
aVp2
p1214
aS'utopia'
p1215
aS'#656565'
p1216
aF8.88595
aI0
aI01
aI00
aI00
aI00
aI00
aI00
aI00
aI00
aa(lp1217
I234378
aF76.54462000000001
aF394.362
ag1214
aS'utopia'
p1218
aS'#656565'
p1219
aF8.88595
aI0
aI00
aI00
aI00
aI00
aI00
aI00
aI00
aI00
aa(lp1220
I234378
aF85.3382
aF394.362
aVp2
p1221
aS'utopia'
p1222
aS'#656565'
p1223
aF8.88595
aI0
aI01
aI00
aI01
aI00
aI00
aI00
aI00
aI00
aa(lp1224
I234378
aF112.37311
aF394.362
ag1221
aS'utopia'
p1225
aS'#656565'
p1226
aF8.88595
aI0
aI00
aI00
aI00
aI00
aI00
aI00
aI00
aI00
aa(lp1227
I234378
aF116.23523999999999
aF394.362
ag1221
aS'utopia'
p1228
aS'#656565'
p1229
aF8.88595
aI0
aI00
aI00
aI01
aI01
aI00
aI00
aI00
aI00
aa(lp1230
I234378
aF120.09736999999998
aF394.362
ag1221
aS'utopia'
p1231
aS'#656565'
p1232
aF8.88595
aI0
aI00
aI00
aI00
aI00
aI00
aI00
aI00
aI00
aa(lp1233
I234378
aF126.065
aF394.362
aVp2
p1234
aS'utopia'
p1235
aS'#656565'
p1236
aF8.88595
aI0
aI00
aI00
aI01
aI00
aI00
aI00
aI00
aI00
aa(lp1237
I234378
aF165.45707692307693
aF394.362
ag1234
aS'utopia'
p1238
aS'#656565'
p1239
aF8.88595
aI0
aI00
aI00
aI00
aI00
aI00
aI00
aI00
aI00
aa(lp1240
I225568
aF169.39628461538462
aF394.362
ag1234
aS'utopia'
p1241
aS'#656565'
p1242
aF8.88595
aI0
aI00
aI00
aI00
aI00
aI00
aI00
aI00
aI00
aa(lp1243
I234378
aF173.3354923076923
aF394.362
ag1234
aS'utopia'
p1244
aS'#656565'
p1245
aF8.88595
aI0
aI00
aI00
aI00
aI00
aI00
aI00
aI00
aI00
aa(lp1246
I234378
aF179.381
aF394.362
aVp2
p1247
aS'utopia'
p1248
aS'#656565'
p1249
aF8.88595
aI0
aI00
aI00
aI01
aI00
aI00
aI00
aI00
aI00
aa(lp1250
I234378
aF204.34251
aF394.362
ag1247
aS'utopia'
p1251
aS'#656565'
p1252
aF8.88595
aI0
aI00
aI00
aI00
aI00
aI00
aI00
aI00
aI00
aa(lp1253
I225568
aF207.90844
aF394.362
ag1247
aS'utopia'
p1254
aS'#656565'
p1255
aF8.88595
aI0
aI00
aI00
aI00
aI00
aI00
aI00
aI00
aI00
aa(lp1256
I234378
aF211.47437000000002
aF394.362
ag1247
aS'utopia'
p1257
aS'#656565'
p1258
aF8.88595
aI0
aI00
aI00
aI00
aI00
aI00
aI00
aI00
aI00
aa(lp1259
I219882
aF217.146
aF394.362
aVp2
p1260
aS'utopia'
p1261
aS'#656565'
p1262
aF8.88595
aI0
aI01
aI00
aI00
aI00
aI00
aI00
aI00
aI00
aa(lp1263
I234378
aF231.956
aF394.362
aVp2
p1264
aS'utopia'
p1265
aS'#656565'
p1266
aF8.88595
aI0
aI01
aI01
aI01
aI00
aI00
aI00
aI00
aI00
aa(lp1267
I234378
aF248.94765714285714
aF394.362
ag1264
aS'utopia'
p1268
aS'#656565'
p1269
aF8.88595
aI0
aI00
aI00
aI00
aI00
aI00
aI00
aI00
aI00
aa(lp1270
I234378
aF253.1955714285714
aF394.362
ag1264
aS'utopia'
p1271
aS'#656565'
p1272
aF8.88595
aI0
aI00
aI00
aI01
aI01
aI00
aI00
aI00
aI00
aa(lp1273
I234378
aF257.4434857142857
aF394.362
ag1264
aS'utopia'
p1274
aS'#656565'
p1275
aF8.88595
aI0
aI00
aI00
aI00
aI00
aI00
aI00
aI00
aI00
aa(lp1276
I234378
aF263.798
aF394.362
aVp2
p1277
aS'utopia'
p1278
aS'#656565'
p1279
aF8.88595
aI0
aI01
aI00
aI00
aI00
aI00
aI00
aI00
aI00
aa(lp1280
I234378
aF289.2854857142857
aF394.362
ag1277
aS'utopia'
p1281
aS'#656565'
p1282
aF8.88595
aI0
aI00
aI00
aI00
aI00
aI00
aI00
aI00
aI00
aa(lp1283
I17350
aF295.639
aF394.362
aVp2
p1284
aS'utopia'
p1285
aS'#656565'
p1286
aF8.88595
aI0
aI01
aI00
aI00
aI00
aI00
aI00
aI00
aI00
aa(lp1287
I234378
aF315.632
aF394.362
aVp2
p1288
aS'utopia'
p1289
aS'#656565'
p1290
aF8.88595
aI0
aI01
aI00
aI00
aI00
aI00
aI00
aI00
aI00
aa(lp1291
I234378
aF349.695
aF394.362
aVp2
p1292
aS'utopia'
p1293
aS'#656565'
p1294
aF8.88595
aI0
aI00
aI00
aI00
aI00
aI00
aI00
aI00
aI00
aa(lp1295
I100973
aF353.26093
aF394.362
ag1292
aS'utopia'
p1296
aS'#656565'
p1297
aF8.88595
aI0
aI01
aI00
aI00
aI00
aI00
aI00
aI00
aI00
aa(lp1298
I234378
aF378.22243999999995
aF394.362
ag1292
aS'utopia'
p1299
aS'#656565'
p1300
aF8.88595
aI0
aI00
aI00
aI00
aI00
aI00
aI00
aI00
aI00
aa(lp1301
I234378
aF381.78836999999993
aF394.362
ag1292
aS'utopia'
p1302
aS'#656565'
p1303
aF8.88595
aI0
aI00
aI00
aI00
aI00
aI00
aI00
aI00
aI00
aa(lp1304
I234378
aF387.46
aF394.362
aVp2
p1305
aS'utopia'
p1306
aS'#656565'
p1307
aF8.88595
aI0
aI01
aI01
aI00
aI00
aI00
aI00
aI00
aI00
aa(lp1308
I234378
aF408.194
aF394.362
aVp2
p1309
aS'utopia'
p1310
aS'#656565'
p1311
aF8.88595
aI0
aI01
aI01
aI00
aI00
aI00
aI00
aI00
aI00
aa(lp1312
I234378
aF421.60955
aF394.362
ag1309
aS'utopia'
p1313
aS'#656565'
p1314
aF8.88595
aI0
aI00
aI00
aI00
aI00
aI00
aI00
aI00
aI00
aa(lp1315
I234378
aF428.188
aF394.362
aVp2
p1316
aS'utopia'
p1317
aS'#656565'
p1318
aF8.88595
aI0
aI01
aI01
aI00
aI00
aI00
aI00
aI00
aI00
aa(lp1319
I234378
aF448.922
aF394.362
aVp2
p1320
aS'utopia'
p1321
aS'#656565'
p1322
aF8.88595
aI0
aI01
aI01
aI01
aI00
aI00
aI00
aI00
aI00
aa(lp1323
I234378
aF456.40400000000005
aF394.362
ag1320
aS'utopia'
p1324
aS'#656565'
p1325
aF8.88595
aI0
aI00
aI00
aI00
aI00
aI00
aI00
aI00
aI00
aa(lp1326
I234378
aF462.251
aF394.362
aVp2
p1327
aS'utopia'
p1328
aS'#656565'
p1329
aF8.88595
aI0
aI01
aI00
aI00
aI00
aI00
aI00
aI00
aI00
aa(lp1330
I234378
aF484.11353125
aF394.362
ag1327
aS'utopia'
p1331
aS'#656565'
p1332
aF8.88595
aI0
aI01
aI00
aI00
aI00
aI00
aI00
aI00
aI00
aa(lp1333
I234378
aF521.6660875
aF394.362
ag1327
aS'utopia'
p1334
aS'#656565'
p1335
aF8.88595
aI0
aI00
aI00
aI00
aI00
aI00
aI00
aI00
aI00
aa(lp1336
I234378
aF40.9084
aF404.729
aVp2
p1337
aS'utopia'
p1338
aS'#656565'
p1339
aF8.88595
aI0
aI01
aI00
aI00
aI00
aI00
aI00
aI00
aI00
aa(lp1340
I234378
aF71.2688
aF404.729
aVp2
p1341
aS'utopia'
p1342
aS'#656565'
p1343
aF8.88595
aI0
aI01
aI00
aI00
aI00
aI00
aI00
aI00
aI00
aa(lp1344
I234378
aF93.4836
aF404.729
aVp2
p1345
aS'utopia'
p1346
aS'#656565'
p1347
aF8.88595
aI0
aI01
aI01
aI00
aI00
aI00
aI00
aI00
aI00
aa(lp1348
I234378
aF105.7884
aF404.729
ag1345
aS'utopia'
p1349
aS'#656565'
p1350
aF8.88595
aI0
aI00
aI00
aI00
aI00
aI00
aI00
aI00
aI00
aa(lp1351
I193682
aF111.996
aF404.729
aVp2
p1352
aS'utopia'
p1353
aS'#656565'
p1354
aF8.88595
aI0
aI01
aI00
aI00
aI00
aI00
aI00
aI00
aI00
aa(lp1355
I234378
aF141.616
aF404.729
aVp2
p1356
aS'utopia'
p1357
aS'#656565'
p1358
aF8.88595
aI0
aI01
aI00
aI00
aI00
aI00
aI00
aI00
aI00
aa(lp1359
I210461
aF40.9084
aF418.798
aVp2
p1360
aS'utopia'
p1361
aS'#656565'
p1362
aF8.88595
aI0
aI01
aI00
aI00
aI00
aI00
aI00
aI00
aI00
aa(lp1363
I340
aF65.3448
aF418.798
aVp2
p1364
aS'utopia'
p1365
aS'#656565'
p1366
aF8.88595
aI0
aI01
aI00
aI00
aI00
aI00
aI00
aI00
aI00
aa(lp1367
I234378
aF79.65472000000001
aF418.798
ag1364
aS'utopia'
p1368
aS'#656565'
p1369
aF8.88595
aI0
aI00
aI00
aI00
aI00
aI00
aI00
aI00
aI00
aa(lp1370
I234378
aF87.5597
aF418.798
aVp2
p1371
aS'utopia'
p1372
aS'#656565'
p1373
aF8.88595
aI0
aI00
aI00
aI01
aI01
aI01
aI00
aI00
aI00
aa(lp1374
I176435
aF40.9084
aF432.868
aVp2
p1375
aS'utopia'
p1376
aS'#656565'
p1377
aF8.88595
aI0
aI01
aI00
aI00
aI00
aI00
aI00
aI00
aI00
aa(lp1378
I234378
aF60.9018
aF432.868
aVp2
p1379
aS'utopia'
p1380
aS'#656565'
p1381
aF8.88595
aI0
aI00
aI00
aI00
aI00
aI00
aI00
aI00
aI00
aa(lp1382
I43275
aF67.5663
aF432.868
aVp2
p1383
aS'utopia'
p1384
aS'#656565'
p1385
aF8.88595
aI0
aI01
aI00
aI00
aI00
aI00
aI00
aI00
aI00
aa(lp1386
I234229
aF100.148
aF432.868
aVp2
p1387
aS'utopia'
p1388
aS'#656565'
p1389
aF8.88595
aI0
aI01
aI00
aI00
aI00
aI00
aI00
aI00
aI00
aa(lp1390
I176435
aF40.9084
aF446.937
aVp2
p1391
aS'utopia'
p1392
aS'#656565'
p1393
aF8.88595
aI0
aI01
aI00
aI00
aI00
aI00
aI00
aI00
aI00
aa(lp1394
I66756
aF60.9018
aF446.937
aVp2
p1395
aS'utopia'
p1396
aS'#656565'
p1397
aF8.88595
aI0
aI01
aI00
aI00
aI00
aI00
aI00
aI00
aI00
aa(lp1398
I234378
aF105.12885833333334
aF446.937
ag1395
aS'utopia'
p1399
aS'#656565'
p1400
aF8.88595
aI0
aI00
aI00
aI00
aI00
aI00
aI00
aI00
aI00
aa(lp1401
I105322
aF113.477
aF446.937
aVp2
p1402
aS'utopia'
p1403
aS'#656565'
p1404
aF8.88595
aI0
aI01
aI00
aI00
aI00
aI00
aI00
aI00
aI00
aa(lp1405
I135639
aF149.761
aF446.937
aVp2
p1406
aS'utopia'
p1407
aS'#656565'
p1408
aF8.88595
aI0
aI00
aI00
aI00
aI00
aI00
aI00
aI00
aI00
aa(lp1409
I234378
aF159.388
aF446.937
aVp2
p1410
aS'utopia'
p1411
aS'#656565'
p1412
aF8.88595
aI0
aI00
aI00
aI00
aI00
aI00
aI00
aI00
aI00
aa(lp1413
I234378
aF184.24077142857143
aF446.937
ag1410
aS'utopia'
p1414
aS'#656565'
p1415
aF8.88595
aI0
aI00
aI00
aI00
aI00
aI00
aI00
aI00
aI00
aa(lp1416
I154254
aF190.489
aF446.937
aVp2
p1417
aS'utopia'
p1418
aS'#656565'
p1419
aF8.88595
aI0
aI00
aI00
aI00
aI00
aI00
aI00
aI00
aI00
aa(lp1420
I144690
aF240.842
aF446.937
aVp2
p1421
aS'utopia'
p1422
aS'#656565'
p1423
aF8.88595
aI0
aI00
aI00
aI00
aI00
aI00
aI00
aI00
aI00
aa(lp1424
I234378
aF264.4253428571429
aF446.937
ag1421
aS'utopia'
p1425
aS'#656565'
p1426
aF8.88595
aI0
aI00
aI00
aI00
aI00
aI00
aI00
aI00
aI00
aa(lp1427
I142554
aF270.462
aF446.937
aVp2
p1428
aS'utopia'
p1429
aS'#656565'
p1430
aF8.88595
aI0
aI00
aI00
aI00
aI00
aI00
aI00
aI00
aI00
aa(lp1431
I153177
aF320.075
aF446.937
aVp2
p1432
aS'utopia'
p1433
aS'#656565'
p1434
aF8.88595
aI0
aI00
aI00
aI00
aI00
aI00
aI00
aI00
aI00
aa(lp1435
I234378
aF369.322
aF446.937
ag1432
aS'utopia'
p1436
aS'#656565'
p1437
aF8.88595
aI0
aI00
aI00
aI00
aI00
aI00
aI00
aI00
aI00
aa(lp1438
I202216
aF376.353
aF446.937
aVp2
p1439
aS'utopia'
p1440
aS'#656565'
p1441
aF8.88595
aI0
aI00
aI00
aI00
aI00
aI00
aI00
aI00
aI00
aa(lp1442
I96295
aF428.188
aF446.937
aVp2
p1443
aS'utopia'
p1444
aS'#656565'
p1445
aF8.88595
aI0
aI00
aI00
aI00
aI00
aI00
aI00
aI00
aI00
aa(lp1446
I234378
aF463.61361999999997
aF446.937
ag1443
aS'utopia'
p1447
aS'#656565'
p1448
aF8.88595
aI0
aI00
aI00
aI00
aI00
aI00
aI00
aI00
aI00
aa(lp1449
I202216
aF469.656
aF446.937
aVp2
p1450
aS'utopia'
p1451
aS'#656565'
p1452
aF8.88595
aI0
aI00
aI00
aI00
aI00
aI00
aI00
aI00
aI00
aa(lp1453
I166558
aF521.49
aF446.937
aVp2
p1454
aS'utopia'
p1455
aS'#656565'
p1456
aF8.88595
aI0
aI00
aI00
aI00
aI00
aI00
aI00
aI00
aI00
aa(lp1457
I85218
aF40.9084
aF457.304
aVp2
p1458
aS'utopia'
p1459
aS'#656565'
p1460
aF8.88595
aI0
aI00
aI00
aI00
aI00
aI00
aI00
aI00
aI00
aa(lp1461
I234378
aF57.9398
aF457.304
aVp2
p1462
aS'utopia'
p1463
aS'#656565'
p1464
aF8.88595
aI0
aI00
aI00
aI00
aI00
aI00
aI00
aI00
aI00
aa(lp1465
I210461
aF94.9646
aF457.304
aVp2
p1466
aS'utopia'
p1467
aS'#656565'
p1468
aF8.88595
aI0
aI00
aI00
aI00
aI00
aI00
aI00
aI00
aI00
aa(lp1469
I89480
aF117.18
aF457.304
aVp2
p1470
aS'utopia'
p1471
aS'#656565'
p1472
aF8.88595
aI0
aI00
aI00
aI00
aI00
aI00
aI00
aI00
aI00
aa(lp1473
I85235
aF127.546
aF457.304
aVp2
p1474
aS'utopia'
p1475
aS'#656565'
p1476
aF8.88595
aI0
aI00
aI00
aI00
aI00
aI00
aI00
aI00
aI00
aa(lp1477
I98580
aF143.837
aF457.304
aVp2
p1478
aS'utopia'
p1479
aS'#656565'
p1480
aF8.88595
aI0
aI00
aI00
aI00
aI00
aI00
aI00
aI00
aI00
aa(lp1481
I85218
aF186.046
aF457.304
aVp2
p1482
aS'utopia'
p1483
aS'#656565'
p1484
aF8.88595
aI0
aI00
aI00
aI00
aI00
aI00
aI00
aI00
aI00
aa(lp1485
I149270
aF203.077
aF457.304
aVp2
p1486
aS'utopia'
p1487
aS'#656565'
p1488
aF8.88595
aI0
aI00
aI00
aI00
aI00
aI00
aI00
aI00
aI00
aa(lp1489
I234378
aF240.842
aF457.304
aVp2
p1490
aS'utopia'
p1491
aS'#656565'
p1492
aF8.88595
aI0
aI00
aI00
aI00
aI00
aI00
aI00
aI00
aI00
aa(lp1493
I177958
aF40.9084
aF471.373
aVp2
p1494
aS'utopia'
p1495
aS'#656565'
p1496
aF8.88595
aI0
aI01
aI00
aI00
aI00
aI00
aI00
aI00
aI00
aa(lp1497
I234378
aF71.2688
aF471.373
aVp2
p1498
aS'utopia'
p1499
aS'#656565'
p1500
aF8.88595
aI0
aI01
aI00
aI00
aI00
aI00
aI00
aI00
aI00
aa(lp1501
I234378
aF96.6393375
aF471.373
ag1498
aS'utopia'
p1502
aS'#656565'
p1503
aF8.88595
aI0
aI00
aI00
aI00
aI00
aI00
aI00
aI00
aI00
aa(lp1504
I234378
aF104.591
aF471.373
aVp2
p1505
aS'utopia'
p1506
aS'#656565'
p1507
aF8.88595
aI0
aI01
aI00
aI00
aI00
aI00
aI00
aI00
aI00
aa(lp1508
I234378
aF163.831
aF471.373
aVp2
p1509
aS'utopia'
p1510
aS'#656565'
p1511
aF8.88595
aI0
aI00
aI00
aI00
aI00
aI00
aI00
aI00
aI00
aa(lp1512
I234378
aF179.381
aF471.373
aVp2
p1513
aS'utopia'
p1514
aS'#656565'
p1515
aF8.88595
aI0
aI00
aI00
aI00
aI00
aI00
aI00
aI00
aI00
aa(lp1516
I166593
aF222.33
aF471.373
aVp2
p1517
aS'utopia'
p1518
aS'#656565'
p1519
aF8.88595
aI0
aI00
aI00
aI00
aI00
aI00
aI00
aI00
aI00
aa(lp1520
I4526
aF228.994
aF471.373
aVp2
p1521
aS'utopia'
p1522
aS'#656565'
p1523
aF8.88595
aI0
aI00
aI00
aI00
aI00
aI00
aI00
aI00
aI00
aa(lp1524
I190806
aF263.057
aF471.373
aVp2
p1525
aS'utopia'
p1526
aS'#656565'
p1527
aF8.88595
aI0
aI00
aI00
aI00
aI00
aI00
aI00
aI00
aI00
aa(lp1528
I166593
aF277.127
aF471.373
aVp2
p1529
aS'utopia'
p1530
aS'#656565'
p1531
aF8.88595
aI0
aI00
aI00
aI00
aI00
aI00
aI00
aI00
aI00
aa(lp1532
I127135
aF283.791
aF471.373
aVp2
p1533
aS'utopia'
p1534
aS'#656565'
p1535
aF8.88595
aI0
aI00
aI00
aI00
aI00
aI00
aI00
aI00
aI00
aa(lp1536
I35885
aF308.227
aF471.373
aVp2
p1537
aS'utopia'
p1538
aS'#656565'
p1539
aF8.88595
aI0
aI00
aI00
aI00
aI00
aI00
aI00
aI00
aI00
aa(lp1540
I234378
aF333.404
aF471.373
aVp2
p1541
aS'utopia'
p1542
aS'#656565'
p1543
aF8.88595
aI0
aI01
aI00
aI00
aI00
aI00
aI00
aI00
aI00
aa(lp1544
I16331
aF370.429
aF471.373
aVp2
p1545
aS'utopia'
p1546
aS'#656565'
p1547
aF8.88595
aI0
aI00
aI00
aI00
aI00
aI00
aI00
aI00
aI00
aa(lp1548
I166593
aF380.796
aF471.373
aVp2
p1549
aS'utopia'
p1550
aS'#656565'
p1551
aF8.88595
aI0
aI00
aI00
aI00
aI00
aI00
aI00
aI00
aI00
aa(lp1552
I119502
aF387.46
aF471.373
aVp2
p1553
aS'utopia'
p1554
aS'#656565'
p1555
aF8.88595
aI0
aI01
aI00
aI00
aI00
aI00
aI00
aI00
aI00
aa(lp1556
I234378
aF417.821
aF471.373
aVp2
p1557
aS'utopia'
p1558
aS'#656565'
p1559
aF8.88595
aI0
aI00
aI00
aI00
aI00
aI00
aI00
aI00
aI00
aa(lp1560
I234378
aF422.2842166666667
aF471.373
ag1557
aS'utopia'
p1561
aS'#656565'
p1562
aF8.88595
aI0
aI01
aI01
aI00
aI00
aI00
aI00
aI00
aI00
aa(lp1563
I234378
aF440.13708333333335
aF471.373
ag1557
aS'utopia'
p1564
aS'#656565'
p1565
aF8.88595
aI0
aI00
aI00
aI00
aI00
aI00
aI00
aI00
aI00
aa(lp1566
I207716
aF446.7
aF471.373
aVp2
p1567
aS'utopia'
p1568
aS'#656565'
p1569
aF8.88595
aI0
aI00
aI00
aI00
aI00
aI00
aI00
aI00
aI00
aa(lp1570
I218914
aF476.32
aF471.373
aVp2
p1571
aS'utopia'
p1572
aS'#656565'
p1573
aF8.88595
aI0
aI00
aI00
aI00
aI00
aI00
aI00
aI00
aI00
aa(lp1574
I234378
aF502.237
aF471.373
aVp2
p1575
aS'utopia'
p1576
aS'#656565'
p1577
aF8.88595
aI0
aI00
aI00
aI00
aI00
aI00
aI00
aI00
aI00
aa(lp1578
I16475
aF40.9084
aF481.74
aVp2
p1579
aS'utopia'
p1580
aS'#656565'
p1581
aF8.88595
aI0
aI00
aI00
aI00
aI00
aI00
aI00
aI00
aI00
aa(lp1582
I234378
aF89.0407
aF481.74
aVp2
p1583
aS'utopia'
p1584
aS'#656565'
p1585
aF8.88595
aI0
aI00
aI00
aI00
aI00
aI00
aI00
aI00
aI00
aa(lp1586
I123814
aF143.097
aF481.74
aVp2
p1587
aS'utopia'
p1588
aS'#656565'
p1589
aF8.88595
aI0
aI00
aI00
aI00
aI00
aI00
aI00
aI00
aI00
aa(lp1590
I234378
aF171.75797142857144
aF481.74
ag1587
aS'utopia'
p1591
aS'#656565'
p1592
aF8.88595
aI0
aI00
aI00
aI00
aI00
aI00
aI00
aI00
aI00
aa(lp1593
I19985
aF178.641
aF481.74
aVp2
p1594
aS'utopia'
p1595
aS'#656565'
p1596
aF8.88595
aI0
aI00
aI00
aI00
aI00
aI00
aI00
aI00
aI00
aa(lp1597
I234378
aF197.24966666666666
aF481.74
ag1594
aS'utopia'
p1598
aS'#656565'
p1599
aF8.88595
aI0
aI00
aI00
aI00
aI00
aI00
aI00
aI00
aI00
aa(lp1600
I85218
aF203.077
aF481.74
aVp2
p1601
aS'utopia'
p1602
aS'#656565'
p1603
aF8.88595
aI0
aI00
aI00
aI00
aI00
aI00
aI00
aI00
aI00
aa(lp1604
I216903
aF220.108
aF481.74
aVp2
p1605
aS'utopia'
p1606
aS'#656565'
p1607
aF8.88595
aI0
aI00
aI00
aI00
aI00
aI00
aI00
aI00
aI00
aa(lp1608
I104512
aF252.69
aF481.74
aVp2
p1609
aS'utopia'
p1610
aS'#656565'
p1611
aF8.88595
aI0
aI00
aI00
aI00
aI00
aI00
aI00
aI00
aI00
aa(lp1612
I144483
aF263.798
aF481.74
aVp2
p1613
aS'utopia'
p1614
aS'#656565'
p1615
aF8.88595
aI0
aI00
aI00
aI00
aI00
aI00
aI00
aI00
aI00
aa(lp1616
I162417
aF273.7195
aF481.74
ag1613
aS'utopia'
p1617
aS'#656565'
p1618
aF8.88595
aI0
aI00
aI00
aI00
aI00
aI00
aI00
aI00
aI00
aa(lp1619
I16475
aF301.563
aF481.74
aVp2
p1620
aS'utopia'
p1621
aS'#656565'
p1622
aF8.88595
aI0
aI00
aI00
aI00
aI00
aI00
aI00
aI00
aI00
aa(lp1623
I234378
aF349.695
aF481.74
aVp2
p1624
aS'utopia'
p1625
aS'#656565'
p1626
aF8.88595
aI0
aI00
aI00
aI00
aI00
aI00
aI00
aI00
aI00
aa(lp1627
I177271
aF40.1679
aF524.707
aVp2
p1628
aS'utopia'
p1629
aS'#02304b'
p1630
aF11.8479
aI1
aI01
aI00
aI00
aI00
aI00
aI00
aI00
aI00
aa(lp1631
I234378
aF74.2307
aF524.707
aVp2
p1632
aS'utopia'
p1633
aS'#02304b'
p1634
aF11.8479
aI1
aI01
aI00
aI00
aI00
aI00
aI00
aI00
aI00
aa(lp1635
I7520
aF49.0539
aF549.019
aVp2
p1636
aS'utopia'
p1637
aS'#656565'
p1638
aF10.3669
aI1
aI01
aI00
aI00
aI00
aI00
aI00
aI00
aI00
aa(lp1639
I10865
aF93.4836
aF549.019
aVp2
p1640
aS'utopia'
p1641
aS'#656565'
p1642
aF10.3669
aI1
aI01
aI00
aI00
aI00
aI00
aI00
aI00
aI00
aa(lp1643
I132955
aF49.0539
aF564.676
aVp2
p1644
aS'utopia'
p1645
aS'#656565'
p1646
aF8.88595
aI0
aI01
aI00
aI00
aI00
aI00
aI00
aI00
aI00
aa(lp1647
I144489
aF69.7878
aF564.676
aVp2
p1648
aS'utopia'
p1649
aS'#656565'
p1650
aF8.88595
aI0
aI00
aI00
aI00
aI00
aI00
aI00
aI00
aI00
aa(lp1651
I132529
aF80.1547
aF564.676
aVp2
p1652
aS'utopia'
p1653
aS'#656565'
p1654
aF8.88595
aI0
aI01
aI00
aI00
aI00
aI00
aI00
aI00
aI00
aa(lp1655
I234378
aF98.76336666666667
aF564.676
ag1652
aS'utopia'
p1656
aS'#656565'
p1657
aF8.88595
aI0
aI00
aI00
aI00
aI00
aI00
aI00
aI00
aI00
aa(lp1658
I234378
aF104.591
aF564.676
aVp2
p1659
aS'utopia'
p1660
aS'#434343'
p1661
aF8.88595
aI0
aI00
aI00
aI01
aI01
aI01
aI00
aI00
aI00
aa(lp1662
I61519
aF115.699
aF564.676
aVp2
p1663
aS'utopia'
p1664
aS'#434343'
p1665
aF8.88595
aI0
aI01
aI00
aI00
aI00
aI00
aI00
aI00
aI01
aa(lp1666
I234378
aF130.508
aF564.676
aVp2
p1667
aS'utopia'
p1668
aS'#434343'
p1669
aF8.88595
aI0
aI00
aI00
aI01
aI01
aI01
aI00
aI00
aI00
aa(lp1670
I86794
aF293.418
aF552.721
aVp2
p1671
aS'utopia'
p1672
aS'#656565'
p1673
aF10.3669
aI1
aI01
aI00
aI00
aI00
aI00
aI00
aI00
aI00
aa(lp1674
I131455
aF331.923
aF552.721
aVp2
p1675
aS'utopia'
p1676
aS'#656565'
p1677
aF10.3669
aI1
aI01
aI00
aI00
aI00
aI00
aI00
aI00
aI00
aa(lp1678
I234378
aF349.695
aF552.721
aVp2
p1679
aS'utopia'
p1680
aS'#656565'
p1681
aF10.3669
aI1
aI01
aI00
aI00
aI00
aI00
aI00
aI00
aI00
aa(lp1682
I131455
aF293.418
aF568.378
aVp2
p1683
aS'utopia'
p1684
aS'#656565'
p1685
aF8.88595
aI0
aI01
aI00
aI00
aI00
aI00
aI00
aI00
aI00
aa(lp1686
I197416
aF308.968
aF568.378
aVp2
p1687
aS'utopia'
p1688
aS'#656565'
p1689
aF8.88595
aI0
aI01
aI00
aI00
aI00
aI00
aI00
aI00
aI00
aa(lp1690
I234378
aF326.23992000000004
aF568.378
ag1687
aS'utopia'
p1691
aS'#656565'
p1692
aF8.88595
aI0
aI00
aI00
aI00
aI00
aI00
aI00
aI00
aI00
aa(lp1693
I28425
aF332.664
aF568.378
aVp2
p1694
aS'utopia'
p1695
aS'#434343'
p1696
aF8.88595
aI0
aI01
aI00
aI00
aI00
aI00
aI00
aI00
aI00
aa(lp1697
I108944
aF49.0539
aF580.226
aVp2
p1698
aS'utopia'
p1699
aS'#656565'
p1700
aF8.88595
aI0
aI01
aI00
aI00
aI00
aI00
aI00
aI00
aI00
aa(lp1701
I234378
aF76.44544285714287
aF580.226
ag1698
aS'utopia'
p1702
aS'#656565'
p1703
aF8.88595
aI0
aI00
aI00
aI00
aI00
aI00
aI00
aI00
aI00
aa(lp1704
I104428
aF83.1167
aF580.226
aVp2
p1705
aS'utopia'
p1706
aS'#434343'
p1707
aF8.88595
aI0
aI01
aI00
aI00
aI00
aI00
aI00
aI00
aI00
aa(lp1708
I72722
aF293.418
aF583.929
aVp2
p1709
aS'utopia'
p1710
aS'#656565'
p1711
aF8.88595
aI0
aI01
aI00
aI00
aI00
aI00
aI00
aI00
aI00
aa(lp1712
I12510
aF346.733
aF583.929
aVp2
p1713
aS'utopia'
p1714
aS'#656565'
p1715
aF8.88595
aI0
aI01
aI00
aI00
aI00
aI00
aI00
aI00
aI00
aa(lp1716
I234378
aF369.0469142857143
aF583.929
ag1713
aS'utopia'
p1717
aS'#656565'
p1718
aF8.88595
aI0
aI00
aI00
aI00
aI00
aI00
aI00
aI00
aI00
aa(lp1719
I60201
aF374.872
aF583.929
aVp2
p1720
aS'utopia'
p1721
aS'#434343'
p1722
aF8.88595
aI0
aI01
aI00
aI00
aI00
aI00
aI00
aI00
aI00
aa(lp1723
I230071
aF391.903
aF583.929
aVp2
p1724
aS'utopia'
p1725
aS'#434343'
p1726
aF8.88595
aI0
aI01
aI00
aI00
aI00
aI00
aI00
aI00
aI00
aa(lp1727
I212271
aF49.0539
aF595.777
aVp2
p1728
aS'utopia'
p1729
aS'#656565'
p1730
aF8.88595
aI0
aI01
aI00
aI00
aI00
aI00
aI00
aI00
aI00
aa(lp1731
I12510
aF79.4142
aF595.777
aVp2
p1732
aS'utopia'
p1733
aS'#656565'
p1734
aF8.88595
aI0
aI01
aI00
aI00
aI00
aI00
aI00
aI00
aI00
aa(lp1735
I234378
aF101.72811428571428
aF595.777
ag1732
aS'utopia'
p1736
aS'#656565'
p1737
aF8.88595
aI0
aI00
aI00
aI00
aI00
aI00
aI00
aI00
aI00
aa(lp1738
I97834
aF107.553
aF595.777
aVp2
p1739
aS'utopia'
p1740
aS'#434343'
p1741
aF8.88595
aI0
aI01
aI00
aI00
aI00
aI00
aI00
aI00
aI00
aa(lp1742
I118366
aF49.0539
aF615.664
aVp2
p1743
aS'utopia'
p1744
aS'#656565'
p1745
aF10.3669
aI1
aI01
aI00
aI00
aI00
aI00
aI00
aI00
aI00
aa(lp1746
I234378
aF83.97235
aF615.664
ag1743
aS'utopia'
p1747
aS'#656565'
p1748
aF10.3669
aI1
aI00
aI00
aI00
aI00
aI00
aI00
aI00
aI00
aa(lp1749
I51933
aF293.418
aF603.816
aVp2
p1750
aS'utopia'
p1751
aS'#656565'
p1752
aF10.3669
aI1
aI01
aI00
aI00
aI00
aI00
aI00
aI00
aI00
aa(lp1753
I62768
aF321.556
aF603.816
aVp2
p1754
aS'utopia'
p1755
aS'#656565'
p1756
aF10.3669
aI1
aI01
aI00
aI00
aI00
aI00
aI00
aI00
aI00
aa(lp1757
I234378
aF49.0539
aF628.359
aVp2
p1758
aS'utopia'
p1759
aS'#000000'
p1760
aF8.88595
aI0
aI00
aI00
aI01
aI01
aI01
aI00
aI00
aI00
aa(lp1761
I234378
aF56.6899
aF628.359
ag1758
aS'utopia'
p1762
aS'#000000'
p1763
aF8.88595
aI0
aI00
aI00
aI00
aI00
aI00
aI00
aI00
aI00
aa(lp1764
I234378
aF60.5079
aF628.359
ag1758
aS'utopia'
p1765
aS'#000000'
p1766
aF8.88595
aI0
aI00
aI00
aI01
aI00
aI00
aI00
aI00
aI00
aa(lp1767
I169406
aF77.9332
aF628.359
aVp2
p1768
aS'utopia'
p1769
aS'#000000'
p1770
aF8.88595
aI0
aI00
aI00
aI00
aI00
aI00
aI00
aI00
aI00
aa(lp1771
I234378
aF95.74805
aF628.359
ag1768
aS'utopia'
p1772
aS'#000000'
p1773
aF8.88595
aI0
aI00
aI00
aI00
aI00
aI00
aI00
aI00
aI00
aa(lp1774
I234378
aF100.2017625
aF628.359
ag1768
aS'utopia'
p1775
aS'#000000'
p1776
aF8.88595
aI0
aI00
aI00
aI01
aI00
aI00
aI00
aI00
aI00
aa(lp1777
I87333
aF115.699
aF628.359
aVp2
p1778
aS'utopia'
p1779
aS'#000000'
p1780
aF8.88595
aI0
aI00
aI00
aI00
aI00
aI00
aI00
aI00
aI00
aa(lp1781
I234378
aF134.92475
aF628.359
ag1778
aS'utopia'
p1782
aS'#000000'
p1783
aF8.88595
aI0
aI00
aI00
aI00
aI00
aI00
aI00
aI00
aI00
aa(lp1784
I59734
aF140.875
aF628.359
aVp2
p1785
aS'utopia'
p1786
aS'#000000'
p1787
aF8.88595
aI0
aI01
aI01
aI00
aI00
aI00
aI00
aI00
aI00
aa(lp1788
I234378
aF145.2528
aF628.359
ag1785
aS'utopia'
p1789
aS'#000000'
p1790
aF8.88595
aI0
aI00
aI00
aI00
aI00
aI00
aI00
aI00
aI00
aa(lp1791
I131239
aF149.63060000000002
aF628.359
ag1785
aS'utopia'
p1792
aS'#000000'
p1793
aF8.88595
aI0
aI01
aI01
aI00
aI00
aI00
aI00
aI00
aI00
aa(lp1794
I234378
aF156.426
aF628.359
aVp2
p1795
aS'utopia'
p1796
aS'#000000'
p1797
aF8.88595
aI0
aI01
aI00
aI00
aI00
aI00
aI00
aI00
aI00
aa(lp1798
I234378
aF49.0539
aF638.726
aVp2
p1799
aS'utopia'
p1800
aS'#000000'
p1801
aF8.88595
aI0
aI00
aI00
aI01
aI01
aI01
aI00
aI00
aI00
aa(lp1802
I31679
aF293.418
aF619.473
aVp2
p1803
aS'utopia'
p1804
aS'#656565'
p1805
aF8.88595
aI0
aI01
aI01
aI00
aI00
aI00
aI00
aI00
aI00
aa(lp1806
I51933
aF306.746
aF619.473
aVp2
p1807
aS'utopia'
p1808
aS'#656565'
p1809
aF8.88595
aI0
aI01
aI00
aI00
aI00
aI00
aI00
aI00
aI00
aa(lp1810
I12510
aF330.442
aF619.473
aVp2
p1811
aS'utopia'
p1812
aS'#656565'
p1813
aF8.88595
aI0
aI01
aI00
aI00
aI00
aI00
aI00
aI00
aI00
aa(lp1814
I234378
aF352.7559142857143
aF619.473
ag1811
aS'utopia'
p1815
aS'#656565'
p1816
aF8.88595
aI0
aI00
aI00
aI00
aI00
aI00
aI00
aI00
aI00
aa(lp1817
I63091
aF358.581
aF619.473
aVp2
p1818
aS'utopia'
p1819
aS'#434343'
p1820
aF8.88595
aI0
aI01
aI00
aI00
aI00
aI00
aI00
aI00
aI00
aa(lp1821
I234378
aF375.613
aF619.473
aVp2
p1822
aS'utopia'
p1823
aS'#434343'
p1824
aF8.88595
aI0
aI01
aI00
aI00
aI00
aI00
aI00
aI00
aI00
aa(lp1825
I234378
aF293.418
aF635.023
aVp2
p1826
aS'utopia'
p1827
aS'#656565'
p1828
aF8.88595
aI0
aI01
aI00
aI00
aI00
aI00
aI00
aI00
aI00
aa(lp1829
I234378
aF330.17652
aF635.023
ag1826
aS'utopia'
p1830
aS'#656565'
p1831
aF8.88595
aI0
aI00
aI00
aI00
aI00
aI00
aI00
aI00
aI00
aa(lp1832
I182663
aF49.0539
aF652.054
aVp2
p1833
aS'utopia'
p1834
aS'#656565'
p1835
aF8.88595
aI0
aI01
aI00
aI00
aI00
aI00
aI00
aI00
aI00
aa(lp1836
I82279
aF76.4522
aF652.054
aVp2
p1837
aS'utopia'
p1838
aS'#656565'
p1839
aF8.88595
aI0
aI01
aI00
aI00
aI00
aI00
aI00
aI00
aI00
aa(lp1840
I234378
aF96.09372
aF652.054
ag1837
aS'utopia'
p1841
aS'#656565'
p1842
aF8.88595
aI0
aI00
aI00
aI00
aI00
aI00
aI00
aI00
aI00
aa(lp1843
I234378
aF103.11
aF652.054
aVp2
p1844
aS'utopia'
p1845
aS'#000000'
p1846
aF8.88595
aI0
aI01
aI00
aI00
aI00
aI00
aI00
aI00
aI00
aa(lp1847
I166771
aF293.418
aF654.91
aVp2
p1848
aS'utopia'
p1849
aS'#656565'
p1850
aF10.3669
aI1
aI01
aI00
aI00
aI00
aI00
aI00
aI00
aI00
aa(lp1851
I74833
aF349.695
aF654.91
aVp2
p1852
aS'utopia'
p1853
aS'#656565'
p1854
aF10.3669
aI1
aI01
aI00
aI00
aI00
aI00
aI00
aI00
aI00
aa(lp1855
I233758
aF293.418
aF670.567
aVp2
p1856
aS'utopia'
p1857
aS'#656565'
p1858
aF8.88595
aI0
aI01
aI00
aI00
aI00
aI00
aI00
aI00
aI00
aa(lp1859
I234378
aF327.0898222222222
aF670.567
ag1856
aS'utopia'
p1860
aS'#656565'
p1861
aF8.88595
aI0
aI00
aI00
aI00
aI00
aI00
aI00
aI00
aI00
aa(lp1862
I234378
aF333.404
aF670.567
aVp2
p1863
aS'utopia'
p1864
aS'#434343'
p1865
aF8.88595
aI0
aI01
aI01
aI00
aI00
aI00
aI00
aI00
aI00
aa(lp1866
I146188
aF357.841
aF670.567
aVp2
p1867
aS'utopia'
p1868
aS'#434343'
p1869
aF8.88595
aI0
aI01
aI00
aI00
aI00
aI00
aI00
aI00
aI00
aa(lp1870
I227962
aF374.39675
aF670.567
ag1867
aS'utopia'
p1871
aS'#434343'
p1872
aF8.88595
aI0
aI01
aI00
aI00
aI00
aI00
aI00
aI00
aI00
aa(lp1873
I151511
aF293.418
aF686.117
aVp2
p1874
aS'utopia'
p1875
aS'#656565'
p1876
aF8.88595
aI0
aI01
aI00
aI00
aI00
aI00
aI00
aI00
aI00
aa(lp1877
I234378
aF334.145
aF686.117
aVp2
p1878
aS'utopia'
p1879
aS'#656565'
p1880
aF8.88595
aI0
aI01
aI00
aI00
aI00
aI00
aI00
aI00
aI00
aa(lp1881
I234378
aF375.9870909090909
aF686.117
ag1878
aS'utopia'
p1882
aS'#656565'
p1883
aF8.88595
aI0
aI00
aI00
aI00
aI00
aI00
aI00
aI00
aI00
aa(lp1884
I201816
aF382.277
aF686.117
aVp2
p1885
aS'utopia'
p1886
aS'#434343'
p1887
aF8.88595
aI0
aI01
aI00
aI00
aI00
aI00
aI00
aI00
aI00
aa(lp1888
I234378
aF301.563
aF141.853
aVp1
p1889
aS'utopia'
p1890
aS'#000000'
p1891
aF8.88595
aI0
aI00
aI00
aI01
aI01
aI01
aI00
aI00
aI00
aa(lp1892
I16915
aF308.227
aF176.656
aVp1
p1893
aS'utopia'
p1894
aS'#878787'
p1895
aF8.88595
aI0
aI01
aI00
aI00
aI00
aI00
aI00
aI00
aI00
aa(lp1896
I60220
aF330.442
aF176.656
aVp1
p1897
aS'utopia'
p1898
aS'#878787'
p1899
aF8.88595
aI0
aI01
aI00
aI00
aI00
aI00
aI00
aI00
aI00
aa(lp1900
I234378
aF372.28409090909093
aF176.656
ag1897
aS'utopia'
p1901
aS'#878787'
p1902
aF8.88595
aI0
aI00
aI00
aI00
aI00
aI00
aI00
aI00
aI00
aa(lp1903
I234378
aF380.796
aF176.656
aVp1
p1904
aS'utopia'
p1905
aS'#000000'
p1906
aF8.88595
aI0
aI00
aI00
aI01
aI01
aI00
aI00
aI00
aI00
aa(lp1907
I91136
aF387.46
aF176.656
aVp1
p1908
aS'utopia'
p1909
aS'#000000'
p1910
aF8.88595
aI0
aI01
aI00
aI00
aI00
aI00
aI00
aI00
aI00
aa(lp1911
I234378
aF403.18559999999997
aF176.656
ag1908
aS'utopia'
p1912
aS'#000000'
p1913
aF8.88595
aI0
aI00
aI00
aI00
aI00
aI00
aI00
aI00
aI00
aa(lp1914
I59734
aF407.11699999999996
aF176.656
ag1908
aS'utopia'
p1915
aS'#000000'
p1916
aF8.88595
aI0
aI00
aI00
aI00
aI00
aI00
aI00
aI00
aI00
aa(lp1917
I234378
aF411.04839999999996
aF176.656
ag1908
aS'utopia'
p1918
aS'#000000'
p1919
aF8.88595
aI0
aI00
aI00
aI00
aI00
aI00
aI00
aI00
aI00
aa(lp1920
I234378
aF417.08
aF176.656
aVp1
p1921
aS'utopia'
p1922
aS'#000000'
p1923
aF8.88595
aI0
aI00
aI00
aI01
aI01
aI00
aI00
aI00
aI00
aa(lp1924
I63729
aF423.745
aF176.656
aVp1
p1925
aS'utopia'
p1926
aS'#000000'
p1927
aF8.88595
aI0
aI01
aI00
aI00
aI00
aI00
aI00
aI00
aI00
aa(lp1928
I234378
aF446.4985625
aF176.656
ag1925
aS'utopia'
p1929
aS'#000000'
p1930
aF8.88595
aI0
aI00
aI00
aI00
aI00
aI00
aI00
aI00
aI00
aa(lp1931
I59734
aF451.04927499999997
aF176.656
ag1925
aS'utopia'
p1932
aS'#000000'
p1933
aF8.88595
aI0
aI00
aI00
aI00
aI00
aI00
aI00
aI00
aI00
aa(lp1934
I234378
aF455.59998749999994
aF176.656
ag1925
aS'utopia'
p1935
aS'#000000'
p1936
aF8.88595
aI0
aI00
aI00
aI00
aI00
aI00
aI00
aI00
aI00
aa(lp1937
I229300
aF308.227
aF194.428
aVp1
p1938
aS'utopia'
p1939
aS'#878787'
p1940
aF8.88595
aI0
aI01
aI00
aI00
aI00
aI00
aI00
aI00
aI00
aa(lp1941
I78894
aF338.588
aF194.428
aVp1
p1942
aS'utopia'
p1943
aS'#878787'
p1944
aF8.88595
aI0
aI01
aI00
aI00
aI00
aI00
aI00
aI00
aI00
aa(lp1945
I234378
aF360.9019142857143
aF194.428
ag1942
aS'utopia'
p1946
aS'#878787'
p1947
aF8.88595
aI0
aI00
aI00
aI00
aI00
aI00
aI00
aI00
aI00
aa(lp1948
I234378
aF368.948
aF194.428
aVp1
p1949
aS'utopia'
p1950
aS'#000000'
p1951
aF8.88595
aI0
aI01
aI00
aI00
aI00
aI00
aI00
aI00
aI00
aa(lp1952
I234378
aF380.796
aF194.428
aVp1
p1953
aS'utopia'
p1954
aS'#000000'
p1955
aF8.88595
aI0
aI00
aI00
aI01
aI01
aI01
aI00
aI00
aI00
aa(lp1956
I234378
aF388.88576
aF194.428
ag1953
aS'utopia'
p1957
aS'#000000'
p1958
aF8.88595
aI0
aI00
aI00
aI00
aI00
aI00
aI00
aI00
aI00
aa(lp1959
I234378
aF392.93064
aF194.428
ag1953
aS'utopia'
p1960
aS'#000000'
p1961
aF8.88595
aI0
aI00
aI00
aI01
aI01
aI01
aI00
aI00
aI00
aa(lp1962
I234378
aF403.011
aF194.428
aVp1
p1963
aS'utopia'
p1964
aS'#000000'
p1965
aF8.88595
aI0
aI01
aI00
aI00
aI00
aI00
aI00
aI00
aI00
aa(lp1966
I234378
aF308.227
aF212.2
aVp1
p1967
aS'utopia'
p1968
aS'#878787'
p1969
aF8.88595
aI0
aI01
aI00
aI00
aI00
aI00
aI00
aI00
aI00
aa(lp1970
I234378
aF346.733
aF212.2
aVp1
p1971
aS'utopia'
p1972
aS'#878787'
p1973
aF8.88595
aI0
aI01
aI01
aI00
aI00
aI00
aI00
aI00
aI00
aa(lp1974
I234378
aF361.2593
aF212.2
ag1971
aS'utopia'
p1975
aS'#878787'
p1976
aF8.88595
aI0
aI00
aI00
aI00
aI00
aI00
aI00
aI00
aI00
aa(lp1977
I63091
aF370.429
aF212.2
aVp1
p1978
aS'utopia'
p1979
aS'#000000'
p1980
aF8.88595
aI0
aI01
aI00
aI00
aI00
aI00
aI00
aI00
aI00
aa(lp1981
I234378
aF387.46
aF212.2
aVp1
p1982
aS'utopia'
p1983
aS'#000000'
p1984
aF8.88595
aI0
aI01
aI00
aI00
aI00
aI00
aI00
aI00
aI00
aa(lp1985
I7204
aF308.227
aF229.972
aVp1
p1986
aS'utopia'
p1987
aS'#878787'
p1988
aF8.88595
aI0
aI01
aI00
aI00
aI00
aI00
aI00
aI00
aI00
aa(lp1989
I189220
aF340.809
aF229.972
aVp1
p1990
aS'utopia'
p1991
aS'#878787'
p1992
aF8.88595
aI0
aI01
aI00
aI00
aI00
aI00
aI00
aI00
aI00
aa(lp1993
I234378
aF366.93111428571433
aF229.972
ag1990
aS'utopia'
p1994
aS'#878787'
p1995
aF8.88595
aI0
aI00
aI00
aI00
aI00
aI00
aI00
aI00
aI00
aa(lp1996
I234378
aF375.613
aF229.972
aVp1
p1997
aS'utopia'
p1998
aS'#000000'
p1999
aF8.88595
aI0
aI00
aI00
aI00
aI00
aI00
aI00
aI00
aI00
aa(lp2000
I48671
aF308.227
aF247.744
aVp1
p2001
aS'utopia'
p2002
aS'#878787'
p2003
aF8.88595
aI0
aI01
aI00
aI00
aI00
aI00
aI00
aI00
aI00
aa(lp2004
I129688
aF336.366
aF247.744
aVp1
p2005
aS'utopia'
p2006
aS'#878787'
p2007
aF8.88595
aI0
aI00
aI00
aI00
aI00
aI00
aI00
aI00
aI00
aa(lp2008
I234378
aF360.58405714285715
aF247.744
ag2005
aS'utopia'
p2009
aS'#878787'
p2010
aF8.88595
aI0
aI00
aI00
aI00
aI00
aI00
aI00
aI00
aI00
aa(lp2011
I234378
aF368.948
aF247.744
aVp1
p2012
aS'utopia'
p2013
aS'#000000'
p2014
aF8.88595
aI0
aI00
aI00
aI01
aI01
aI00
aI00
aI00
aI00
aa(lp2015
I234378
aF375.613
aF247.744
aVp1
p2016
aS'utopia'
p2017
aS'#000000'
p2018
aF8.88595
aI0
aI01
aI00
aI00
aI00
aI00
aI00
aI00
aI00
aa(lp2019
I1
aI0
aI0
aI0
aI0
aI0
aI0
aI0
aI0
aI0
aI0
aI0
aI0
aI0
aI0
aI0
aI0
aI0
aI0
aI0
aI0
aI0
aI0
aI0
aI0
aI0
aI0
aI0
aI0
aI0
aI0
aI0
aI0
aI0
aI0
aI0
aI0
aI0
aI0
aI0
aI0
aI0
aI0
aI0
aI0
aI0
aI0
aI0
aI0
aI0
aI0
aI0
aI0
aI0
aI0
aI0
aI0
aI0
aI0
aI0
aI0
aI0
aI0
aI0
aI0
aI0
aI0
aI0
aI0
aI0
aI0
aI0
aI0
aI0
aI0
aI0
aI0
aI0
aI0
aI0
aI0
aI0
aI0
aI0
aI0
aI0
aI0
aI0
aI0
aI0
aI0
aI0
aI0
aI0
aI0
aI0
aI0
aI0
aI0
aI0
aI0
aI0
aI1
aI1
aI0
aI0
aI0
aI0
aI0
aI0
aI0
aI0
aI0
aI0
aI0
aI0
aI0
aI0
aI0
aI0
aI0
aI0
aI0
aI0
aI0
aI0
aI0
aI0
aI0
aI0
aI0
aI0
aI0
aI0
aI0
aI0
aI0
aI0
aI0
aI0
aI0
aI0
aI0
aI0
aI0
aI0
aI0
aI0
aI0
aI0
aI0
aI0
aI0
aI0
aI0
aI0
aI0
aI0
aI0
aI0
aI0
aI0
aI0
aI0
aI0
aI0
aI0
aI0
aI0
aI0
aI0
aI0
aI1
aI0
aI0
aI0
aI0
aI0
aI0
aI0
aI0
aI0
aI0
aI0
aI0
aI0
aI0
aI0
aI0
aI0
aI0
aI0
aI0
aI0
aI0
aI0
aI0
aI0
aI0
aI0
aI0
aI0
aI0
aI0
aI0
aI0
aI0
aI0
aI0
aI0
aI0
aI0
aI0
aI0
aI0
aI0
aI1
aI1
aI0
aI0
aI0
aI0
aI0
aI0
aI0
aI0
aI0
aI0
aI0
aI0
aI0
aI0
aI0
aI0
aI0
aI0
aI0
aI0
aI0
aI0
aI0
aI0
aI0
aI0
aI0
aI0
aI0
aI0
aI0
aI0
aI0
aI0
aI0
aI0
aI0
aI0
aI0
aI0
aI0
aI0
aI0
aI0
aI0
aI0
aI0
aI0
aI0
aI0
aI0
aI0
aI0
aI0
aI0
aI0
aI0
aI0
aI0
aI0
aI0
aI0
aI0
aI0
aI0
aI0
aI0
aI0
aI1
aI1
aI0
aI0
aI0
aI0
aI0
aI0
aI0
aI0
aI0
aI0
aI0
aI1
aI0
aI0
aI0
aI0
aI0
aI0
aI0
aI0
aI0
aI0
aI0
aI0
aI0
aI0
aI0
aI0
aI0
aI0
aI0
aI0
aI0
aI0
aI0
aI0
aI0
aI0
aI0
aI0
aI0
aI0
aI0
aI0
aI0
aI0
aI0
aI0
aI0
aI0
aI0
aI0
aI0
aI0
aI0
aI0
aI0
aI0
aI0
aI0
aI0
aI0
aI0
aI0
aI0
aI0
aI0
aI0
aI0
aI0
aI0
aI0
aI0
aI0
aI0
aI0
aI0
aI0
aI0
aI0
aI0
aI0
aI0
aI0
aI0
aI0
aI0
aI0
aI0
aI0
aI0
aI0
aI0
aI0
aI0
aI0
aI0
aI0
aI0
aI0
aI0
aI0
aI0
aI0
aI0
aI0
aI0
aI0
aI0
aI0
aI0
aI0
aI0
aI0
aI0
aI0
aI0
aI0
aI0
aI0
aI0
aI0
aI0
aI0
aI0
aI0
aI0
aI0
aI0
aI0
aI0
aI0
aI0
aI0
aI0
aI0
aI0
aI0
aI0
aI0
aI0
aI0
aI0
aI0
aI0
aI0
aI0
aI1
aI1
aI0
aI0
aI0
aI0
aI0
aI0
aI0
aI0
aI0
aI0
aI0
aI0
aI0
aI0
aI0
aI0
aI0
aI0
aI0
aI0
aI0
aI0
aI0
aI0
aI0
aI0
aI0
aI0
aI0
aI0
aI0
aI0
aI0
aI0
aI0
aI0
aI0
aI0
aI0
aI0
aI0
aI0
aI0
aI0
aI0
aI0
aI0
aI0
aI0
aI0
aI0
aI0
aI0
aI0
aI0
aI0
aI0
aI0
aI0
aI0
aI0
aI0
aI0
aI0
aI0
aI0
aI0
aI0
aI0
aI0
aI0
aI0
aI0
aI0
aI0
aI0
aI0
aI0
aI0
aI0
aI0
aI0
aI0
aI0
aI0
aI0
aI0
aI0
aI0
aI0
aI0
aI0
aI0
aI0
aI0
aI0
aI0
aI0
aI0
aI0
aI0
aI0
aI0
aI0
atp2020
.