((lp0
(lp1
I234378
aF40.9084
aF53.0111
aVp1
p2
aS'utopia'
p3
aS'#02304b'
p4
aF11.8479
aI1
aI01
aI00
aI00
aI00
aI00
aI00
aI00
aI00
aa(lp5
I164220
aF89.7812
aF53.0111
aVp1
p6
aS'utopia'
p7
aS'#02304b'
p8
aF11.8479
aI1
aI01
aI01
aI00
aI00
aI00
aI00
aI00
aI00
aa(lp9
I234378
aF59.4208
aF124.081
aVp1
p10
aS'utopia'
p11
aS'#0d75b4'
p12
aF8.88595
aI0
aI00
aI00
aI00
aI00
aI00
aI01
aI00
aI00
aa(lp13
I234378
aF301.563
aF124.081
aVp1
p14
aS'utopia'
p15
aS'#000000'
p16
aF8.88595
aI0
aI00
aI00
aI01
aI01
aI01
aI00
aI00
aI00
aa(lp17
I15548
aF55.7183
aF158.884
aVp1
p18
aS'utopia'
p19
aS'#878787'
p20
aF8.88595
aI0
aI01
aI00
aI00
aI00
aI00
aI00
aI00
aI00
aa(lp21
I104542
aF89.0407
aF158.884
aVp1
p22
aS'utopia'
p23
aS'#878787'
p24
aF8.88595
aI0
aI01
aI00
aI00
aI00
aI00
aI00
aI00
aI00
aa(lp25
I234378
aF133.94655
aF158.884
ag22
aS'utopia'
p26
aS'#878787'
p27
aF8.88595
aI0
aI00
aI00
aI00
aI00
aI00
aI00
aI00
aI00
aa(lp28
I63091
aF142.356
aF158.884
aVp1
p29
aS'utopia'
p30
aS'#000000'
p31
aF8.88595
aI0
aI01
aI00
aI00
aI00
aI00
aI00
aI00
aI00
aa(lp32
I234378
aF159.388
aF158.884
aVp1
p33
aS'utopia'
p34
aS'#000000'
p35
aF8.88595
aI0
aI01
aI00
aI00
aI00
aI00
aI00
aI00
aI00
aa(lp36
I16915
aF308.227
aF158.884
aVp1
p37
aS'utopia'
p38
aS'#878787'
p39
aF8.88595
aI0
aI01
aI00
aI00
aI00
aI00
aI00
aI00
aI00
aa(lp40
I60220
aF330.442
aF158.884
aVp1
p41
aS'utopia'
p42
aS'#878787'
p43
aF8.88595
aI0
aI01
aI00
aI00
aI00
aI00
aI00
aI00
aI00
aa(lp44
I234378
aF372.28409090909093
aF158.884
ag41
aS'utopia'
p45
aS'#878787'
p46
aF8.88595
aI0
aI00
aI00
aI00
aI00
aI00
aI00
aI00
aI00
aa(lp47
I63091
aF380.796
aF158.884
aVp1
p48
aS'utopia'
p49
aS'#000000'
p50
aF8.88595
aI0
aI01
aI00
aI00
aI00
aI00
aI00
aI00
aI00
aa(lp51
I234378
aF397.827
aF158.884
aVp1
p52
aS'utopia'
p53
aS'#000000'
p54
aF8.88595
aI0
aI01
aI00
aI00
aI00
aI00
aI00
aI00
aI00
aa(lp55
I15548
aF55.7183
aF176.656
aVp1
p56
aS'utopia'
p57
aS'#878787'
p58
aF8.88595
aI0
aI01
aI00
aI00
aI00
aI00
aI00
aI00
aI00
aa(lp59
I2006
aF89.0407
aF176.656
aVp1
p60
aS'utopia'
p61
aS'#878787'
p62
aF8.88595
aI0
aI01
aI00
aI00
aI00
aI00
aI00
aI00
aI00
aa(lp63
I234378
aF124.77815
aF176.656
ag60
aS'utopia'
p64
aS'#878787'
p65
aF8.88595
aI0
aI00
aI00
aI00
aI00
aI00
aI00
aI00
aI00
aa(lp66
I63091
aF134.211
aF176.656
aVp1
p67
aS'utopia'
p68
aS'#000000'
p69
aF8.88595
aI0
aI01
aI00
aI00
aI00
aI00
aI00
aI00
aI00
aa(lp70
I234378
aF151.242
aF176.656
aVp1
p71
aS'utopia'
p72
aS'#000000'
p73
aF8.88595
aI0
aI01
aI00
aI00
aI00
aI00
aI00
aI00
aI00
aa(lp74
I229300
aF308.227
aF176.656
aVp1
p75
aS'utopia'
p76
aS'#878787'
p77
aF8.88595
aI0
aI01
aI00
aI00
aI00
aI00
aI00
aI00
aI00
aa(lp78
I78894
aF338.588
aF176.656
aVp1
p79
aS'utopia'
p80
aS'#878787'
p81
aF8.88595
aI0
aI01
aI00
aI00
aI00
aI00
aI00
aI00
aI00
aa(lp82
I234378
aF360.9019142857143
aF176.656
ag79
aS'utopia'
p83
aS'#878787'
p84
aF8.88595
aI0
aI00
aI00
aI00
aI00
aI00
aI00
aI00
aI00
aa(lp85
I63091
aF368.948
aF176.656
aVp1
p86
aS'utopia'
p87
aS'#000000'
p88
aF8.88595
aI0
aI01
aI00
aI00
aI00
aI00
aI00
aI00
aI00
aa(lp89
I234378
aF385.979
aF176.656
aVp1
p90
aS'utopia'
p91
aS'#000000'
p92
aF8.88595
aI0
aI01
aI00
aI00
aI00
aI00
aI00
aI00
aI00
aa(lp93
I15548
aF55.7183
aF194.428
aVp1
p94
aS'utopia'
p95
aS'#878787'
p96
aF8.88595
aI0
aI01
aI00
aI00
aI00
aI00
aI00
aI00
aI00
aa(lp97
I17057
aF89.0407
aF194.428
aVp1
p98
aS'utopia'
p99
aS'#878787'
p100
aF8.88595
aI0
aI01
aI00
aI00
aI00
aI00
aI00
aI00
aI00
aa(lp101
I234378
aF122.05430000000001
aF194.428
ag98
aS'utopia'
p102
aS'#878787'
p103
aF8.88595
aI0
aI00
aI00
aI00
aI00
aI00
aI00
aI00
aI00
aa(lp104
I63091
aF130.508
aF194.428
aVp1
p105
aS'utopia'
p106
aS'#000000'
p107
aF8.88595
aI0
aI01
aI00
aI00
aI00
aI00
aI00
aI00
aI00
aa(lp108
I234378
aF147.54
aF194.428
aVp1
p109
aS'utopia'
p110
aS'#000000'
p111
aF8.88595
aI0
aI01
aI00
aI00
aI00
aI00
aI00
aI00
aI00
aa(lp112
I234378
aF308.227
aF194.428
aVp1
p113
aS'utopia'
p114
aS'#878787'
p115
aF8.88595
aI0
aI01
aI00
aI00
aI00
aI00
aI00
aI00
aI00
aa(lp116
I234378
aF346.733
aF194.428
aVp1
p117
aS'utopia'
p118
aS'#878787'
p119
aF8.88595
aI0
aI01
aI01
aI00
aI00
aI00
aI00
aI00
aI00
aa(lp120
I234378
aF361.2593
aF194.428
ag117
aS'utopia'
p121
aS'#878787'
p122
aF8.88595
aI0
aI00
aI00
aI00
aI00
aI00
aI00
aI00
aI00
aa(lp123
I234378
aF370.429
aF194.428
aVp1
p124
aS'utopia'
p125
aS'#000000'
p126
aF8.88595
aI0
aI01
aI00
aI00
aI00
aI00
aI00
aI00
aI00
aa(lp127
I223364
aF382.277
aF194.428
aVp1
p128
aS'utopia'
p129
aS'#000000'
p130
aF8.88595
aI0
aI01
aI00
aI00
aI00
aI00
aI00
aI00
aI00
aa(lp131
I234378
aF394.18565
aF194.428
ag128
aS'utopia'
p132
aS'#000000'
p133
aF8.88595
aI0
aI00
aI00
aI00
aI00
aI00
aI00
aI00
aI00
aa(lp134
I59734
aF398.15520000000004
aF194.428
ag128
aS'utopia'
p135
aS'#000000'
p136
aF8.88595
aI0
aI00
aI00
aI00
aI00
aI00
aI00
aI00
aI00
aa(lp137
I234378
aF402.12475000000006
aF194.428
ag128
aS'utopia'
p138
aS'#000000'
p139
aF8.88595
aI0
aI00
aI00
aI00
aI00
aI00
aI00
aI00
aI00
aa(lp140
I234378
aF55.7183
aF212.2
aVp1
p141
aS'utopia'
p142
aS'#878787'
p143
aF8.88595
aI0
aI01
aI00
aI00
aI00
aI00
aI00
aI00
aI00
aa(lp144
I234378
aF70.62062
aF212.2
ag141
aS'utopia'
p145
aS'#878787'
p146
aF8.88595
aI0
aI00
aI00
aI00
aI00
aI00
aI00
aI00
aI00
aa(lp147
I17057
aF76.4522
aF212.2
aVp1
p148
aS'utopia'
p149
aS'#878787'
p150
aF8.88595
aI0
aI01
aI00
aI00
aI00
aI00
aI00
aI00
aI00
aa(lp151
I234378
aF109.4658
aF212.2
ag148
aS'utopia'
p152
aS'#878787'
p153
aF8.88595
aI0
aI00
aI00
aI00
aI00
aI00
aI00
aI00
aI00
aa(lp154
I63091
aF117.92
aF212.2
aVp1
p155
aS'utopia'
p156
aS'#000000'
p157
aF8.88595
aI0
aI01
aI00
aI00
aI00
aI00
aI00
aI00
aI00
aa(lp158
I234378
aF134.951
aF212.2
aVp1
p159
aS'utopia'
p160
aS'#000000'
p161
aF8.88595
aI0
aI01
aI00
aI00
aI00
aI00
aI00
aI00
aI00
aa(lp162
I7204
aF308.227
aF212.2
aVp1
p163
aS'utopia'
p164
aS'#878787'
p165
aF8.88595
aI0
aI01
aI00
aI00
aI00
aI00
aI00
aI00
aI00
aa(lp166
I189220
aF340.809
aF212.2
aVp1
p167
aS'utopia'
p168
aS'#878787'
p169
aF8.88595
aI0
aI01
aI00
aI00
aI00
aI00
aI00
aI00
aI00
aa(lp170
I234378
aF366.93111428571433
aF212.2
ag167
aS'utopia'
p171
aS'#878787'
p172
aF8.88595
aI0
aI00
aI00
aI00
aI00
aI00
aI00
aI00
aI00
aa(lp173
I63091
aF375.613
aF212.2
aVp1
p174
aS'utopia'
p175
aS'#000000'
p176
aF8.88595
aI0
aI01
aI00
aI00
aI00
aI00
aI00
aI00
aI00
aa(lp177
I234378
aF392.644
aF212.2
aVp1
p178
aS'utopia'
p179
aS'#000000'
p180
aF8.88595
aI0
aI01
aI00
aI00
aI00
aI00
aI00
aI00
aI00
aa(lp181
I98580
aF55.7183
aF229.972
aVp1
p182
aS'utopia'
p183
aS'#878787'
p184
aF8.88595
aI0
aI01
aI00
aI00
aI00
aI00
aI00
aI00
aI00
aa(lp185
I166289
aF100.148
aF229.972
aVp1
p186
aS'utopia'
p187
aS'#878787'
p188
aF8.88595
aI0
aI01
aI00
aI00
aI00
aI00
aI00
aI00
aI00
aa(lp189
I234378
aF116.82751999999999
aF229.972
ag186
aS'utopia'
p190
aS'#878787'
p191
aF8.88595
aI0
aI00
aI00
aI00
aI00
aI00
aI00
aI00
aI00
aa(lp192
I22476
aF125.325
aF229.972
aVp1
p193
aS'utopia'
p194
aS'#000000'
p195
aF8.88595
aI0
aI01
aI01
aI00
aI00
aI00
aI00
aI00
aI00
aa(lp196
I234378
aF135.692
aF229.972
aVp1
p197
aS'utopia'
p198
aS'#000000'
p199
aF8.88595
aI0
aI01
aI00
aI00
aI00
aI00
aI00
aI00
aI00
aa(lp200
I123665
aF178.641
aF229.972
aVp1
p201
aS'utopia'
p202
aS'#000000'
p203
aF8.88595
aI0
aI01
aI00
aI00
aI00
aI00
aI00
aI00
aI00
aa(lp204
I234378
aF226.032
aF229.972
aVp1
p205
aS'utopia'
p206
aS'#000000'
p207
aF8.88595
aI0
aI01
aI00
aI00
aI00
aI00
aI00
aI00
aI00
aa(lp208
I234378
aF283.051
aF229.972
aVp1
p209
aS'utopia'
p210
aS'#000000'
p211
aF8.88595
aI0
aI00
aI00
aI00
aI00
aI00
aI00
aI00
aI00
aa(lp212
I20593
aF55.7183
aF240.339
aVp1
p213
aS'utopia'
p214
aS'#000000'
p215
aF8.88595
aI0
aI01
aI00
aI00
aI00
aI00
aI00
aI00
aI00
aa(lp216
I48671
aF308.227
aF229.972
aVp1
p217
aS'utopia'
p218
aS'#878787'
p219
aF8.88595
aI0
aI01
aI00
aI00
aI00
aI00
aI00
aI00
aI00
aa(lp220
I129688
aF336.366
aF229.972
aVp1
p221
aS'utopia'
p222
aS'#878787'
p223
aF8.88595
aI0
aI00
aI00
aI00
aI00
aI00
aI00
aI00
aI00
aa(lp224
I234378
aF360.58405714285715
aF229.972
ag221
aS'utopia'
p225
aS'#878787'
p226
aF8.88595
aI0
aI00
aI00
aI00
aI00
aI00
aI00
aI00
aI00
aa(lp227
I63091
aF368.948
aF229.972
aVp1
p228
aS'utopia'
p229
aS'#000000'
p230
aF8.88595
aI0
aI01
aI00
aI00
aI00
aI00
aI00
aI00
aI00
aa(lp231
I234378
aF385.979
aF229.972
aVp1
p232
aS'utopia'
p233
aS'#000000'
p234
aF8.88595
aI0
aI01
aI00
aI00
aI00
aI00
aI00
aI00
aI00
aa(lp235
I176435
aF55.7183
aF258.111
aVp1
p236
aS'utopia'
p237
aS'#878787'
p238
aF8.88595
aI0
aI01
aI00
aI00
aI00
aI00
aI00
aI00
aI00
aa(lp239
I234378
aF71.80542
aF258.111
ag236
aS'utopia'
p240
aS'#878787'
p241
aF8.88595
aI0
aI00
aI00
aI00
aI00
aI00
aI00
aI00
aI00
aa(lp242
I234378
aF80.1547
aF258.111
aVp1
p243
aS'utopia'
p244
aS'#000000'
p245
aF8.88595
aI0
aI01
aI00
aI00
aI00
aI00
aI00
aI00
aI00
aa(lp246
I100815
aF117.18
aF258.111
aVp1
p247
aS'utopia'
p248
aS'#000000'
p249
aF8.88595
aI0
aI01
aI00
aI00
aI00
aI00
aI00
aI00
aI00
aa(lp250
I74589
aF55.7183
aF275.883
aVp1
p251
aS'utopia'
p252
aS'#878787'
p253
aF8.88595
aI0
aI01
aI00
aI00
aI00
aI00
aI00
aI00
aI00
aa(lp254
I234378
aF87.41545555555555
aF275.883
ag251
aS'utopia'
p255
aS'#878787'
p256
aF8.88595
aI0
aI00
aI00
aI00
aI00
aI00
aI00
aI00
aI00
aa(lp257
I22476
aF95.7051
aF275.883
aVp1
p258
aS'utopia'
p259
aS'#000000'
p260
aF8.88595
aI0
aI01
aI01
aI00
aI00
aI00
aI00
aI00
aI00
aa(lp261
I207986
aF106.14575454545455
aF275.883
ag258
aS'utopia'
p262
aS'#000000'
p263
aF8.88595
aI0
aI01
aI00
aI00
aI00
aI00
aI00
aI00
aI00
aa(lp264
I234378
aF157.907
aF275.883
aVp1
p265
aS'utopia'
p266
aS'#000000'
p267
aF8.88595
aI0
aI01
aI00
aI00
aI00
aI00
aI00
aI00
aI00
aa(lp268
I231013
aF55.7183
aF293.654
aVp1
p269
aS'utopia'
p270
aS'#878787'
p271
aF8.88595
aI0
aI01
aI00
aI00
aI00
aI00
aI00
aI00
aI00
aa(lp272
I234378
aF72.7498
aF293.654
aVp1
p273
aS'utopia'
p274
aS'#878787'
p275
aF8.88595
aI0
aI01
aI00
aI00
aI00
aI00
aI00
aI00
aI00
aa(lp276
I234378
aF91.25542857142857
aF293.654
ag273
aS'utopia'
p277
aS'#878787'
p278
aF8.88595
aI0
aI00
aI00
aI00
aI00
aI00
aI00
aI00
aI00
aa(lp279
I234378
aF98.6671
aF293.654
aVp1
p280
aS'utopia'
p281
aS'#000000'
p282
aF8.88595
aI0
aI00
aI00
aI00
aI00
aI00
aI00
aI00
aI00
aa(lp283
I234378
aF131.0224777777778
aF293.654
ag280
aS'utopia'
p284
aS'#000000'
p285
aF8.88595
aI0
aI00
aI00
aI00
aI00
aI00
aI00
aI00
aI00
aa(lp286
I234378
aF137.173
aF293.654
aVp1
p287
aS'utopia'
p288
aS'#000000'
p289
aF8.88595
aI0
aI00
aI00
aI00
aI00
aI00
aI00
aI00
aI00
aa(lp290
I234378
aF162.02577142857143
aF293.654
ag287
aS'utopia'
p291
aS'#000000'
p292
aF8.88595
aI0
aI00
aI00
aI00
aI00
aI00
aI00
aI00
aI00
aa(lp293
I68032
aF168.274
aF293.654
aVp1
p294
aS'utopia'
p295
aS'#000000'
p296
aF8.88595
aI0
aI00
aI00
aI00
aI00
aI00
aI00
aI00
aI00
aa(lp297
I234378
aF217.93139166666666
aF293.654
ag294
aS'utopia'
p298
aS'#000000'
p299
aF8.88595
aI0
aI00
aI00
aI00
aI00
aI00
aI00
aI00
aI00
aa(lp300
I43052
aF224.551
aF293.654
aVp1
p301
aS'utopia'
p302
aS'#000000'
p303
aF8.88595
aI0
aI00
aI00
aI00
aI00
aI00
aI00
aI00
aI00
aa(lp304
I234378
aF266.3930909090909
aF293.654
ag301
aS'utopia'
p305
aS'#000000'
p306
aF8.88595
aI0
aI00
aI00
aI00
aI00
aI00
aI00
aI00
aI00
aa(lp307
I147316
aF55.7183
aF304.021
aVp1
p308
aS'utopia'
p309
aS'#000000'
p310
aF8.88595
aI0
aI00
aI00
aI00
aI00
aI00
aI00
aI00
aI00
aa(lp311
I234378
aF84.976375
aF304.021
ag308
aS'utopia'
p312
aS'#000000'
p313
aF8.88595
aI0
aI00
aI00
aI00
aI00
aI00
aI00
aI00
aI00
aa(lp314
I234378
aF91.2621
aF304.021
aVp1
p315
aS'utopia'
p316
aS'#000000'
p317
aF8.88595
aI0
aI01
aI00
aI00
aI00
aI00
aI00
aI00
aI00
aa(lp318
I234378
aF143.63465833333333
aF304.021
ag315
aS'utopia'
p319
aS'#000000'
p320
aF8.88595
aI0
aI00
aI00
aI00
aI00
aI00
aI00
aI00
aI00
aa(lp321
I225861
aF150.502
aF304.021
aVp1
p322
aS'utopia'
p323
aS'#000000'
p324
aF8.88595
aI0
aI01
aI01
aI00
aI00
aI00
aI00
aI00
aI00
aa(lp325
I234378
aF163.362175
aF304.021
ag322
aS'utopia'
p326
aS'#000000'
p327
aF8.88595
aI0
aI00
aI00
aI00
aI00
aI00
aI00
aI00
aI00
aa(lp328
I141687
aF169.755
aF304.021
aVp1
p329
aS'utopia'
p330
aS'#000000'
p331
aF8.88595
aI0
aI00
aI00
aI00
aI00
aI00
aI00
aI00
aI00
aa(lp332
I234378
aF211.26698333333331
aF304.021
ag329
aS'utopia'
p333
aS'#000000'
p334
aF8.88595
aI0
aI00
aI00
aI00
aI00
aI00
aI00
aI00
aI00
aa(lp335
I22476
aF217.146
aF304.021
aVp1
p336
aS'utopia'
p337
aS'#000000'
p338
aF8.88595
aI0
aI01
aI01
aI00
aI00
aI00
aI00
aI00
aI00
aa(lp339
I234378
aF224.13433333333333
aF304.021
ag336
aS'utopia'
p340
aS'#000000'
p341
aF8.88595
aI0
aI00
aI00
aI00
aI00
aI00
aI00
aI00
aI00
aa(lp342
I104859
aF229.735
aF304.021
aVp1
p343
aS'utopia'
p344
aS'#000000'
p345
aF8.88595
aI0
aI00
aI00
aI00
aI00
aI00
aI00
aI00
aI00
aa(lp346
I234378
aF245.22972000000001
aF304.021
ag343
aS'utopia'
p347
aS'#000000'
p348
aF8.88595
aI0
aI00
aI00
aI00
aI00
aI00
aI00
aI00
aI00
aa(lp349
I38609
aF251.209
aF304.021
aVp1
p350
aS'utopia'
p351
aS'#000000'
p352
aF8.88595
aI0
aI00
aI00
aI00
aI00
aI00
aI00
aI00
aI00
aa(lp353
I234378
aF266.11132
aF304.021
ag350
aS'utopia'
p354
aS'#000000'
p355
aF8.88595
aI0
aI00
aI00
aI00
aI00
aI00
aI00
aI00
aI00
aa(lp356
I83126
aF55.7183
aF314.388
aVp1
p357
aS'utopia'
p358
aS'#000000'
p359
aF8.88595
aI0
aI00
aI00
aI00
aI00
aI00
aI00
aI00
aI00
aa(lp360
I234378
aF116.64555333333334
aF314.388
ag357
aS'utopia'
p361
aS'#000000'
p362
aF8.88595
aI0
aI00
aI00
aI00
aI00
aI00
aI00
aI00
aI00
aa(lp363
I234378
aF123.103
aF314.388
aVp1
p364
aS'utopia'
p365
aS'#000000'
p366
aF8.88595
aI0
aI00
aI00
aI00
aI00
aI00
aI00
aI00
aI00
aa(lp367
I234378
aF161.86087
aF314.388
ag364
aS'utopia'
p368
aS'#000000'
p369
aF8.88595
aI0
aI00
aI00
aI00
aI00
aI00
aI00
aI00
aI00
aa(lp370
I115769
aF168.274
aF314.388
aVp1
p371
aS'utopia'
p372
aS'#000000'
p373
aF8.88595
aI0
aI00
aI00
aI00
aI00
aI00
aI00
aI00
aI00
aa(lp374
I234378
aF209.69767
aF314.388
ag371
aS'utopia'
p375
aS'#000000'
p376
aF8.88595
aI0
aI00
aI00
aI00
aI00
aI00
aI00
aI00
aI00
aa(lp377
I234378
aF216.406
aF314.388
aVp1
p378
aS'utopia'
p379
aS'#000000'
p380
aF8.88595
aI0
aI00
aI00
aI00
aI00
aI00
aI00
aI00
aI00
aa(lp381
I51933
aF40.1679
aF351.431
aVp1
p382
aS'utopia'
p383
aS'#02304b'
p384
aF11.8479
aI1
aI01
aI00
aI00
aI00
aI00
aI00
aI00
aI00
aa(lp385
I60220
aF72.0093
aF351.431
aVp1
p386
aS'utopia'
p387
aS'#02304b'
p388
aF11.8479
aI1
aI01
aI00
aI00
aI00
aI00
aI00
aI00
aI00
aa(lp389
I201816
aF40.9084
aF383.254
aVp1
p390
aS'utopia'
p391
aS'#000000'
p392
aF8.88595
aI0
aI01
aI00
aI00
aI00
aI00
aI00
aI00
aI00
aa(lp393
I60220
aF54.9779
aF383.254
aVp1
p394
aS'utopia'
p395
aS'#000000'
p396
aF8.88595
aI0
aI01
aI00
aI00
aI00
aI00
aI00
aI00
aI00
aa(lp397
I86196
aF100.889
aF383.254
aVp1
p398
aS'utopia'
p399
aS'#000000'
p400
aF8.88595
aI0
aI01
aI00
aI00
aI00
aI00
aI00
aI00
aI00
aa(lp401
I124531
aF40.1679
aF418.816
aVp1
p402
aS'utopia'
p403
aS'#02304b'
p404
aF11.8479
aI1
aI01
aI00
aI00
aI00
aI00
aI00
aI00
aI00
aa(lp405
I201816
aF40.9084
aF446.937
aVp1
p406
aS'utopia'
p407
aS'#000000'
p408
aF8.88595
aI0
aI01
aI00
aI00
aI00
aI00
aI00
aI00
aI00
aa(lp409
I171311
aF54.9779
aF446.937
aVp1
p410
aS'utopia'
p411
aS'#000000'
p412
aF8.88595
aI0
aI01
aI00
aI00
aI00
aI00
aI00
aI00
aI00
aa(lp413
I86196
aF107.553
aF446.937
aVp1
p414
aS'utopia'
p415
aS'#000000'
p416
aF8.88595
aI0
aI01
aI00
aI00
aI00
aI00
aI00
aI00
aI00
aa(lp417
I22476
aF40.1679
aF478.796
aVp1
p418
aS'utopia'
p419
aS'#02304b'
p420
aF11.8479
aI1
aI01
aI01
aI00
aI00
aI00
aI00
aI00
aI00
aa(lp421
I234378
aF54.2374
aF478.796
aVp1
p422
aS'utopia'
p423
aS'#02304b'
p424
aF11.8479
aI1
aI01
aI00
aI00
aI00
aI00
aI00
aI00
aI00
aa(lp425
I109610
aF48.3134
aF506.686
aVp1
p426
aS'utopia'
p427
aS'#000000'
p428
aF8.88595
aI1
aI01
aI00
aI00
aI00
aI00
aI00
aI00
aI00
aa(lp429
I158577
aF69.7878
aF506.686
aVp1
p430
aS'utopia'
p431
aS'#000000'
p432
aF8.88595
aI1
aI01
aI00
aI00
aI00
aI00
aI00
aI00
aI00
aa(lp433
I194179
aF188.267
aF506.686
aVp1
p434
aS'utopia'
p435
aS'#000000'
p436
aF8.88595
aI1
aI01
aI00
aI00
aI00
aI00
aI00
aI00
aI00
aa(lp437
I177981
aF305.265
aF506.686
aVp1
p438
aS'utopia'
p439
aS'#000000'
p440
aF8.88595
aI1
aI01
aI00
aI00
aI00
aI00
aI00
aI00
aI00
aa(lp441
I25729
aF324.518
aF506.686
aVp1
p442
aS'utopia'
p443
aS'#000000'
p444
aF8.88595
aI1
aI01
aI00
aI00
aI00
aI00
aI00
aI00
aI00
aa(lp445
I60220
aF412.637
aF506.686
aVp1
p446
aS'utopia'
p447
aS'#000000'
p448
aF8.88595
aI1
aI01
aI00
aI00
aI00
aI00
aI00
aI00
aI00
aa(lp449
I234378
aF48.3134
aF525.43
aVp1
p450
aS'utopia'
p451
aS'#656565'
p452
aF8.88595
aI0
aI01
aI00
aI00
aI00
aI00
aI00
aI00
aI00
aa(lp453
I234378
aF188.267
aF525.43
aVp1
p454
aS'utopia'
p455
aS'#656565'
p456
aF8.88595
aI0
aI00
aI00
aI01
aI01
aI00
aI00
aI00
aI00
aa(lp457
I234378
aF192.0465
aF525.43
ag454
aS'utopia'
p458
aS'#656565'
p459
aF8.88595
aI0
aI00
aI00
aI00
aI00
aI00
aI00
aI00
aI00
aa(lp460
I234378
aF195.82600000000002
aF525.43
ag454
aS'utopia'
p461
aS'#656565'
p462
aF8.88595
aI0
aI00
aI00
aI01
aI01
aI00
aI00
aI00
aI00
aa(lp463
I234378
aF317.113
aF525.43
aVp1
p464
aS'utopia'
p465
aS'#656565'
p466
aF8.88595
aI0
aI00
aI00
aI01
aI01
aI01
aI00
aI00
aI00
aa(lp467
I234378
aF420.042
aF525.43
aVp1
p468
aS'utopia'
p469
aS'#656565'
p470
aF8.88595
aI0
aI00
aI00
aI01
aI01
aI01
aI00
aI00
aI00
aa(lp471
I234378
aF431.15
aF525.43
aVp1
p472
aS'utopia'
p473
aS'#656565'
p474
aF8.88595
aI0
aI01
aI00
aI00
aI00
aI00
aI00
aI00
aI00
aa(lp475
I234378
aF48.3134
aF543.942
aVp1
p476
aS'utopia'
p477
aS'#656565'
p478
aF8.88595
aI0
aI01
aI00
aI00
aI00
aI00
aI00
aI00
aI00
aa(lp479
I135639
aF109.775
aF543.942
aVp1
p480
aS'utopia'
p481
aS'#656565'
p482
aF8.88595
aI0
aI00
aI00
aI00
aI00
aI00
aI00
aI00
aI00
aa(lp483
I21716
aF119.401
aF543.942
aVp1
p484
aS'utopia'
p485
aS'#656565'
p486
aF8.88595
aI0
aI00
aI00
aI00
aI00
aI00
aI00
aI00
aI00
aa(lp487
I234378
aF188.267
aF543.942
aVp1
p488
aS'utopia'
p489
aS'#656565'
p490
aF8.88595
aI0
aI00
aI00
aI01
aI01
aI00
aI00
aI00
aI00
aa(lp491
I234378
aF192.0465
aF543.942
ag488
aS'utopia'
p492
aS'#656565'
p493
aF8.88595
aI0
aI00
aI00
aI00
aI00
aI00
aI00
aI00
aI00
aa(lp494
I234378
aF195.82600000000002
aF543.942
ag488
aS'utopia'
p495
aS'#656565'
p496
aF8.88595
aI0
aI00
aI00
aI01
aI01
aI00
aI00
aI00
aI00
aa(lp497
I234378
aF317.113
aF543.942
aVp1
p498
aS'utopia'
p499
aS'#656565'
p500
aF8.88595
aI0
aI00
aI00
aI01
aI01
aI01
aI00
aI00
aI00
aa(lp501
I234378
aF420.042
aF543.942
aVp1
p502
aS'utopia'
p503
aS'#656565'
p504
aF8.88595
aI0
aI00
aI00
aI01
aI01
aI01
aI00
aI00
aI00
aa(lp505
I234378
aF431.15
aF543.942
aVp1
p506
aS'utopia'
p507
aS'#656565'
p508
aF8.88595
aI0
aI01
aI00
aI00
aI00
aI00
aI00
aI00
aI00
aa(lp509
I234378
aF48.3134
aF562.454
aVp1
p510
aS'utopia'
p511
aS'#656565'
p512
aF8.88595
aI0
aI01
aI00
aI00
aI00
aI00
aI00
aI00
aI00
aa(lp513
I135639
aF109.034
aF562.454
aVp1
p514
aS'utopia'
p515
aS'#656565'
p516
aF8.88595
aI0
aI00
aI00
aI00
aI00
aI00
aI00
aI00
aI00
aa(lp517
I21716
aF118.66
aF562.454
aVp1
p518
aS'utopia'
p519
aS'#656565'
p520
aF8.88595
aI0
aI01
aI00
aI00
aI00
aI00
aI00
aI00
aI00
aa(lp521
I234378
aF188.267
aF562.454
aVp1
p522
aS'utopia'
p523
aS'#656565'
p524
aF8.88595
aI0
aI00
aI00
aI01
aI01
aI00
aI00
aI00
aI00
aa(lp525
I234378
aF192.0465
aF562.454
ag522
aS'utopia'
p526
aS'#656565'
p527
aF8.88595
aI0
aI00
aI00
aI00
aI00
aI00
aI00
aI00
aI00
aa(lp528
I234378
aF195.82600000000002
aF562.454
ag522
aS'utopia'
p529
aS'#656565'
p530
aF8.88595
aI0
aI00
aI00
aI01
aI01
aI00
aI00
aI00
aI00
aa(lp531
I234378
aF317.113
aF562.454
aVp1
p532
aS'utopia'
p533
aS'#656565'
p534
aF8.88595
aI0
aI00
aI00
aI01
aI01
aI01
aI00
aI00
aI00
aa(lp535
I234378
aF420.042
aF562.454
aVp1
p536
aS'utopia'
p537
aS'#656565'
p538
aF8.88595
aI0
aI00
aI00
aI01
aI01
aI01
aI00
aI00
aI00
aa(lp539
I234378
aF431.15
aF562.454
aVp1
p540
aS'utopia'
p541
aS'#656565'
p542
aF8.88595
aI0
aI01
aI00
aI00
aI00
aI00
aI00
aI00
aI00
aa(lp543
I195166
aF40.1679
aF612.826
aVp1
p544
aS'utopia'
p545
aS'#02304b'
p546
aF11.8479
aI1
aI01
aI00
aI00
aI00
aI00
aI00
aI00
aI00
aa(lp547
I136346
aF96.4456
aF612.826
aVp1
p548
aS'utopia'
p549
aS'#02304b'
p550
aF11.8479
aI1
aI01
aI00
aI00
aI00
aI00
aI00
aI00
aI00
aa(lp551
I201816
aF40.9084
aF640.947
aVp1
p552
aS'utopia'
p553
aS'#000000'
p554
aF8.88595
aI0
aI01
aI00
aI00
aI00
aI00
aI00
aI00
aI00
aa(lp555
I234378
aF54.9779
aF640.947
aVp1
p556
aS'utopia'
p557
aS'#000000'
p558
aF8.88595
aI0
aI01
aI00
aI00
aI00
aI00
aI00
aI00
aI00
aa(lp559
I47284
aF98.6671
aF640.947
aVp1
p560
aS'utopia'
p561
aS'#000000'
p562
aF8.88595
aI0
aI01
aI00
aI00
aI00
aI00
aI00
aI00
aI00
aa(lp563
I234378
aF40.1679
aF675.768
aVp1
p564
aS'utopia'
p565
aS'#02304b'
p566
aF11.8479
aI1
aI01
aI00
aI00
aI00
aI00
aI00
aI00
aI00
aa(lp567
I201816
aF40.9084
aF707.592
aVp1
p568
aS'utopia'
p569
aS'#000000'
p570
aF8.88595
aI0
aI01
aI00
aI00
aI00
aI00
aI00
aI00
aI00
aa(lp571
I234378
aF54.9779
aF707.592
aVp1
p572
aS'utopia'
p573
aS'#000000'
p574
aF8.88595
aI0
aI01
aI00
aI00
aI00
aI00
aI00
aI00
aI00
aa(lp575
I86196
aF89.0407
aF707.592
aVp1
p576
aS'utopia'
p577
aS'#000000'
p578
aF8.88595
aI0
aI01
aI00
aI00
aI00
aI00
aI00
aI00
aI00
aa(lp579
I177271
aF40.1679
aF34.4987
aVp2
p580
aS'utopia'
p581
aS'#02304b'
p582
aF11.8479
aI1
aI01
aI00
aI00
aI00
aI00
aI00
aI00
aI00
aa(lp583
I234378
aF74.2307
aF34.4987
aVp2
p584
aS'utopia'
p585
aS'#02304b'
p586
aF11.8479
aI1
aI01
aI00
aI00
aI00
aI00
aI00
aI00
aI00
aa(lp587
I7520
aF49.0539
aF63.9941
aVp2
p588
aS'utopia'
p589
aS'#656565'
p590
aF10.3669
aI1
aI01
aI00
aI00
aI00
aI00
aI00
aI00
aI00
aa(lp591
I10865
aF93.4836
aF63.9941
aVp2
p592
aS'utopia'
p593
aS'#656565'
p594
aF10.3669
aI1
aI01
aI00
aI00
aI00
aI00
aI00
aI00
aI00
aa(lp595
I132955
aF49.0539
aF79.6512
aVp2
p596
aS'utopia'
p597
aS'#656565'
p598
aF8.88595
aI0
aI01
aI00
aI00
aI00
aI00
aI00
aI00
aI00
aa(lp599
I144489
aF69.7878
aF79.6512
aVp2
p600
aS'utopia'
p601
aS'#656565'
p602
aF8.88595
aI0
aI00
aI00
aI00
aI00
aI00
aI00
aI00
aI00
aa(lp603
I132529
aF80.1547
aF79.6512
aVp2
p604
aS'utopia'
p605
aS'#656565'
p606
aF8.88595
aI0
aI01
aI00
aI00
aI00
aI00
aI00
aI00
aI00
aa(lp607
I234378
aF98.76336666666667
aF79.6512
ag604
aS'utopia'
p608
aS'#656565'
p609
aF8.88595
aI0
aI00
aI00
aI00
aI00
aI00
aI00
aI00
aI00
aa(lp610
I63091
aF104.591
aF79.6512
aVp2
p611
aS'utopia'
p612
aS'#434343'
p613
aF8.88595
aI0
aI01
aI00
aI00
aI00
aI00
aI00
aI00
aI00
aa(lp614
I234378
aF121.622
aF79.6512
aVp2
p615
aS'utopia'
p616
aS'#434343'
p617
aF8.88595
aI0
aI01
aI00
aI00
aI00
aI00
aI00
aI00
aI00
aa(lp618
I108944
aF49.0539
aF95.2016
aVp2
p619
aS'utopia'
p620
aS'#656565'
p621
aF8.88595
aI0
aI01
aI00
aI00
aI00
aI00
aI00
aI00
aI00
aa(lp622
I234378
aF76.44544285714287
aF95.2016
ag619
aS'utopia'
p623
aS'#656565'
p624
aF8.88595
aI0
aI00
aI00
aI00
aI00
aI00
aI00
aI00
aI00
aa(lp625
I63091
aF83.1167
aF95.2016
aVp2
p626
aS'utopia'
p627
aS'#434343'
p628
aF8.88595
aI0
aI01
aI00
aI00
aI00
aI00
aI00
aI00
aI00
aa(lp629
I234378
aF100.148
aF95.2016
aVp2
p630
aS'utopia'
p631
aS'#434343'
p632
aF8.88595
aI0
aI01
aI00
aI00
aI00
aI00
aI00
aI00
aI00
aa(lp633
I212271
aF49.0539
aF110.752
aVp2
p634
aS'utopia'
p635
aS'#656565'
p636
aF8.88595
aI0
aI01
aI00
aI00
aI00
aI00
aI00
aI00
aI00
aa(lp637
I12510
aF79.4142
aF110.752
aVp2
p638
aS'utopia'
p639
aS'#656565'
p640
aF8.88595
aI0
aI01
aI00
aI00
aI00
aI00
aI00
aI00
aI00
aa(lp641
I234378
aF101.72811428571428
aF110.752
ag638
aS'utopia'
p642
aS'#656565'
p643
aF8.88595
aI0
aI00
aI00
aI00
aI00
aI00
aI00
aI00
aI00
aa(lp644
I63091
aF107.553
aF110.752
aVp2
p645
aS'utopia'
p646
aS'#434343'
p647
aF8.88595
aI0
aI01
aI00
aI00
aI00
aI00
aI00
aI00
aI00
aa(lp648
I234378
aF124.584
aF110.752
aVp2
p649
aS'utopia'
p650
aS'#434343'
p651
aF8.88595
aI0
aI01
aI00
aI00
aI00
aI00
aI00
aI00
aI00
aa(lp652
I118366
aF49.0539
aF130.639
aVp2
p653
aS'utopia'
p654
aS'#656565'
p655
aF10.3669
aI1
aI01
aI00
aI00
aI00
aI00
aI00
aI00
aI00
aa(lp656
I234378
aF83.97235
aF130.639
ag653
aS'utopia'
p657
aS'#656565'
p658
aF10.3669
aI1
aI00
aI00
aI00
aI00
aI00
aI00
aI00
aI00
aa(lp659
I63091
aF49.0539
aF143.334
aVp2
p660
aS'utopia'
p661
aS'#000000'
p662
aF8.88595
aI0
aI01
aI00
aI00
aI00
aI00
aI00
aI00
aI00
aa(lp663
I234378
aF66.0853
aF143.334
aVp2
p664
aS'utopia'
p665
aS'#000000'
p666
aF8.88595
aI0
aI01
aI00
aI00
aI00
aI00
aI00
aI00
aI00
aa(lp667
I182663
aF49.0539
aF156.663
aVp2
p668
aS'utopia'
p669
aS'#656565'
p670
aF8.88595
aI0
aI01
aI00
aI00
aI00
aI00
aI00
aI00
aI00
aa(lp671
I82279
aF76.4522
aF156.663
aVp2
p672
aS'utopia'
p673
aS'#656565'
p674
aF8.88595
aI0
aI01
aI00
aI00
aI00
aI00
aI00
aI00
aI00
aa(lp675
I234378
aF96.09372
aF156.663
ag672
aS'utopia'
p676
aS'#656565'
p677
aF8.88595
aI0
aI00
aI00
aI00
aI00
aI00
aI00
aI00
aI00
aa(lp678
I63091
aF103.11
aF156.663
aVp2
p679
aS'utopia'
p680
aS'#000000'
p681
aF8.88595
aI0
aI01
aI00
aI00
aI00
aI00
aI00
aI00
aI00
aa(lp682
I234378
aF120.141
aF156.663
aVp2
p683
aS'utopia'
p684
aS'#000000'
p685
aF8.88595
aI0
aI01
aI00
aI00
aI00
aI00
aI00
aI00
aI00
aa(lp686
I86794
aF292.677
aF62.5131
aVp2
p687
aS'utopia'
p688
aS'#656565'
p689
aF10.3669
aI1
aI01
aI00
aI00
aI00
aI00
aI00
aI00
aI00
aa(lp690
I131455
aF331.183
aF62.5131
aVp2
p691
aS'utopia'
p692
aS'#656565'
p693
aF10.3669
aI1
aI01
aI00
aI00
aI00
aI00
aI00
aI00
aI00
aa(lp694
I234378
aF348.955
aF62.5131
aVp2
p695
aS'utopia'
p696
aS'#656565'
p697
aF10.3669
aI1
aI01
aI00
aI00
aI00
aI00
aI00
aI00
aI00
aa(lp698
I131455
aF292.677
aF78.1702
aVp2
p699
aS'utopia'
p700
aS'#656565'
p701
aF8.88595
aI0
aI01
aI00
aI00
aI00
aI00
aI00
aI00
aI00
aa(lp702
I197416
aF308.227
aF78.1702
aVp2
p703
aS'utopia'
p704
aS'#656565'
p705
aF8.88595
aI0
aI01
aI00
aI00
aI00
aI00
aI00
aI00
aI00
aa(lp706
I234378
aF325.49892
aF78.1702
ag703
aS'utopia'
p707
aS'#656565'
p708
aF8.88595
aI0
aI00
aI00
aI00
aI00
aI00
aI00
aI00
aI00
aa(lp709
I63091
aF331.923
aF78.1702
aVp2
p710
aS'utopia'
p711
aS'#434343'
p712
aF8.88595
aI0
aI01
aI00
aI00
aI00
aI00
aI00
aI00
aI00
aa(lp713
I234378
aF348.955
aF78.1702
aVp2
p714
aS'utopia'
p715
aS'#434343'
p716
aF8.88595
aI0
aI01
aI00
aI00
aI00
aI00
aI00
aI00
aI00
aa(lp717
I72722
aF292.677
aF93.7206
aVp2
p718
aS'utopia'
p719
aS'#656565'
p720
aF8.88595
aI0
aI01
aI00
aI00
aI00
aI00
aI00
aI00
aI00
aa(lp721
I12510
aF345.993
aF93.7206
aVp2
p722
aS'utopia'
p723
aS'#656565'
p724
aF8.88595
aI0
aI01
aI00
aI00
aI00
aI00
aI00
aI00
aI00
aa(lp725
I234378
aF368.3069142857143
aF93.7206
ag722
aS'utopia'
p726
aS'#656565'
p727
aF8.88595
aI0
aI00
aI00
aI00
aI00
aI00
aI00
aI00
aI00
aa(lp728
I63091
aF374.132
aF93.7206
aVp2
p729
aS'utopia'
p730
aS'#434343'
p731
aF8.88595
aI0
aI01
aI00
aI00
aI00
aI00
aI00
aI00
aI00
aa(lp732
I234378
aF391.163
aF93.7206
aVp2
p733
aS'utopia'
p734
aS'#434343'
p735
aF8.88595
aI0
aI01
aI00
aI00
aI00
aI00
aI00
aI00
aI00
aa(lp736
I51933
aF292.677
aF113.607
aVp2
p737
aS'utopia'
p738
aS'#656565'
p739
aF10.3669
aI1
aI01
aI00
aI00
aI00
aI00
aI00
aI00
aI00
aa(lp740
I62768
aF320.816
aF113.607
aVp2
p741
aS'utopia'
p742
aS'#656565'
p743
aF10.3669
aI1
aI01
aI00
aI00
aI00
aI00
aI00
aI00
aI00
aa(lp744
I31679
aF292.677
aF129.264
aVp2
p745
aS'utopia'
p746
aS'#656565'
p747
aF8.88595
aI0
aI01
aI01
aI00
aI00
aI00
aI00
aI00
aI00
aa(lp748
I51933
aF306.006
aF129.264
aVp2
p749
aS'utopia'
p750
aS'#656565'
p751
aF8.88595
aI0
aI01
aI00
aI00
aI00
aI00
aI00
aI00
aI00
aa(lp752
I12510
aF329.702
aF129.264
aVp2
p753
aS'utopia'
p754
aS'#656565'
p755
aF8.88595
aI0
aI01
aI00
aI00
aI00
aI00
aI00
aI00
aI00
aa(lp756
I234378
aF352.0159142857143
aF129.264
ag753
aS'utopia'
p757
aS'#656565'
p758
aF8.88595
aI0
aI00
aI00
aI00
aI00
aI00
aI00
aI00
aI00
aa(lp759
I63091
aF357.841
aF129.264
aVp2
p760
aS'utopia'
p761
aS'#434343'
p762
aF8.88595
aI0
aI01
aI00
aI00
aI00
aI00
aI00
aI00
aI00
aa(lp763
I234378
aF374.872
aF129.264
aVp2
p764
aS'utopia'
p765
aS'#434343'
p766
aF8.88595
aI0
aI01
aI00
aI00
aI00
aI00
aI00
aI00
aI00
aa(lp767
I234378
aF292.677
aF144.815
aVp2
p768
aS'utopia'
p769
aS'#656565'
p770
aF8.88595
aI0
aI01
aI00
aI00
aI00
aI00
aI00
aI00
aI00
aa(lp771
I234378
aF329.43552
aF144.815
ag768
aS'utopia'
p772
aS'#656565'
p773
aF8.88595
aI0
aI00
aI00
aI00
aI00
aI00
aI00
aI00
aI00
aa(lp774
I63091
aF335.626
aF144.815
aVp2
p775
aS'utopia'
p776
aS'#434343'
p777
aF8.88595
aI0
aI01
aI00
aI00
aI00
aI00
aI00
aI00
aI00
aa(lp778
I234378
aF352.657
aF144.815
aVp2
p779
aS'utopia'
p780
aS'#434343'
p781
aF8.88595
aI0
aI01
aI00
aI00
aI00
aI00
aI00
aI00
aI00
aa(lp782
I166771
aF292.677
aF164.702
aVp2
p783
aS'utopia'
p784
aS'#656565'
p785
aF10.3669
aI1
aI01
aI00
aI00
aI00
aI00
aI00
aI00
aI00
aa(lp786
I74833
aF348.955
aF164.702
aVp2
p787
aS'utopia'
p788
aS'#656565'
p789
aF10.3669
aI1
aI01
aI00
aI00
aI00
aI00
aI00
aI00
aI00
aa(lp790
I233758
aF292.677
aF180.359
aVp2
p791
aS'utopia'
p792
aS'#656565'
p793
aF8.88595
aI0
aI01
aI00
aI00
aI00
aI00
aI00
aI00
aI00
aa(lp794
I234378
aF326.3488222222222
aF180.359
ag791
aS'utopia'
p795
aS'#656565'
p796
aF8.88595
aI0
aI00
aI00
aI00
aI00
aI00
aI00
aI00
aI00
aa(lp797
I63091
aF332.664
aF180.359
aVp2
p798
aS'utopia'
p799
aS'#434343'
p800
aF8.88595
aI0
aI01
aI00
aI00
aI00
aI00
aI00
aI00
aI00
aa(lp801
I234378
aF349.695
aF180.359
aVp2
p802
aS'utopia'
p803
aS'#434343'
p804
aF8.88595
aI0
aI01
aI00
aI00
aI00
aI00
aI00
aI00
aI00
aa(lp805
I151511
aF292.677
aF195.909
aVp2
p806
aS'utopia'
p807
aS'#656565'
p808
aF8.88595
aI0
aI01
aI00
aI00
aI00
aI00
aI00
aI00
aI00
aa(lp809
I234378
aF333.404
aF195.909
aVp2
p810
aS'utopia'
p811
aS'#656565'
p812
aF8.88595
aI0
aI01
aI00
aI00
aI00
aI00
aI00
aI00
aI00
aa(lp813
I234378
aF375.2460909090909
aF195.909
ag810
aS'utopia'
p814
aS'#656565'
p815
aF8.88595
aI0
aI00
aI00
aI00
aI00
aI00
aI00
aI00
aI00
aa(lp816
I201816
aF381.537
aF195.909
aVp2
p817
aS'utopia'
p818
aS'#434343'
p819
aF8.88595
aI0
aI01
aI00
aI00
aI00
aI00
aI00
aI00
aI00
aa(lp820
I1
aI1
aI0
aI0
aI0
aI0
aI0
aI0
aI0
aI0
aI0
aI0
aI0
aI0
aI0
aI0
aI0
aI0
aI0
aI0
aI0
aI0
aI0
aI0
aI0
aI0
aI0
aI0
aI0
aI0
aI0
aI0
aI0
aI0
aI0
aI0
aI0
aI0
aI0
aI0
aI0
aI0
aI0
aI0
aI0
aI0
aI0
aI0
aI0
aI0
aI0
aI0
aI0
aI0
aI0
aI0
aI0
aI0
aI0
aI0
aI0
aI0
aI0
aI0
aI0
aI0
aI0
aI0
aI0
aI0
aI0
aI0
aI0
aI0
aI0
aI0
aI0
aI0
aI0
aI0
aI0
aI0
aI0
aI0
aI0
aI0
aI0
aI0
aI0
aI0
aI0
aI0
aI0
aI0
aI0
aI0
aI0
aI0
aI0
aI0
aI0
aI0
aI0
aI1
aI1
aI0
aI0
aI0
aI1
aI0
aI0
aI0
aI1
aI1
aI0
aI0
aI0
aI0
aI0
aI0
aI0
aI0
aI0
aI0
aI0
aI0
aI0
aI0
aI0
aI0
aI0
aI0
aI0
aI0
aI0
aI0
aI0
aI0
aI0
aI0
aI0
aI0
aI0
aI0
aI0
aI1
aI1
aI0
aI0
aI0
aI1
aI0
aI0
aI0
aI1
aI1
aI0
aI0
aI0
aI0
aI0
aI0
aI0
aI0
aI0
aI0
aI0
aI0
aI0
aI0
aI0
aI0
aI0
aI0
aI0
aI0
aI0
aI0
aI0
aI0
aI0
aI0
aI0
aI0
aI0
aI0
aI0
aI0
aI0
aI0
aI0
aI0
aI0
aI0
aI0
aI0
aI0
aI0
aI0
aI0
aI0
aI0
aI0
aI0
aI0
aI0
aI0
aI0
aI0
aI0
aI0
aI0
aI0
aI0
aI0
aI0
aI0
atp821
.