((lp0
(lp1
I234378
aF40.9084
aF53.0111
aVp1
p2
aS'utopia'
p3
aS'#02304b'
p4
aF11.8479
aI1
aI01
aI00
aI00
aI00
aI00
aI00
aI00
aI00
aa(lp5
I234378
aF94.9646
aF53.0111
aVp1
p6
aS'utopia'
p7
aS'#02304b'
p8
aF11.8479
aI1
aI01
aI00
aI00
aI00
aI00
aI00
aI00
aI00
aa(lp9
I234378
aF135.692
aF53.0111
aVp1
p10
aS'utopia'
p11
aS'#02304b'
p12
aF11.8479
aI1
aI01
aI00
aI00
aI00
aI00
aI00
aI00
aI00
aa(lp13
I87610
aF46.8324
aF74.4677
aVp1
p14
aS'utopia'
p15
aS'#656565'
p16
aF8.88595
aI0
aI01
aI00
aI00
aI00
aI00
aI00
aI00
aI00
aa(lp17
I190806
aF80.8952
aF74.4677
aVp1
p18
aS'utopia'
p19
aS'#656565'
p20
aF8.88595
aI0
aI00
aI00
aI00
aI00
aI00
aI00
aI00
aI00
aa(lp21
I234378
aF94.9646
aF74.4677
aVp1
p22
aS'utopia'
p23
aS'#656565'
p24
aF8.88595
aI0
aI01
aI00
aI00
aI00
aI00
aI00
aI00
aI00
aa(lp25
I212664
aF122.363
aF74.4677
aVp1
p26
aS'utopia'
p27
aS'#656565'
p28
aF8.88595
aI0
aI01
aI00
aI00
aI00
aI00
aI00
aI00
aI00
aa(lp29
I234378
aF169.305225
aF74.4677
ag26
aS'utopia'
p30
aS'#656565'
p31
aF8.88595
aI0
aI00
aI00
aI00
aI00
aI00
aI00
aI00
aI00
aa(lp32
I98566
aF175.679
aF74.4677
aVp1
p33
aS'utopia'
p34
aS'#656565'
p35
aF8.88595
aI0
aI01
aI00
aI00
aI00
aI00
aI00
aI00
aI00
aa(lp36
I234378
aF202.337
aF74.4677
aVp1
p37
aS'utopia'
p38
aS'#656565'
p39
aF8.88595
aI0
aI00
aI00
aI01
aI01
aI00
aI00
aI00
aI00
aa(lp40
I234378
aF209.001
aF74.4677
aVp1
p41
aS'utopia'
p42
aS'#656565'
p43
aF8.88595
aI0
aI00
aI00
aI00
aI00
aI00
aI00
aI00
aI00
aa(lp44
I144489
aF231.956
aF74.4677
aVp1
p45
aS'utopia'
p46
aS'#656565'
p47
aF8.88595
aI0
aI00
aI00
aI00
aI00
aI00
aI00
aI00
aI00
aa(lp48
I60220
aF242.323
aF74.4677
aVp1
p49
aS'utopia'
p50
aS'#656565'
p51
aF8.88595
aI0
aI01
aI00
aI00
aI00
aI00
aI00
aI00
aI00
aa(lp52
I135639
aF288.234
aF74.4677
aVp1
p53
aS'utopia'
p54
aS'#656565'
p55
aF8.88595
aI0
aI00
aI00
aI00
aI00
aI00
aI00
aI00
aI00
aa(lp56
I84662
aF297.86
aF74.4677
aVp1
p57
aS'utopia'
p58
aS'#656565'
p59
aF8.88595
aI0
aI01
aI00
aI00
aI00
aI00
aI00
aI00
aI00
aa(lp60
I21716
aF319.335
aF74.4677
aVp1
p61
aS'utopia'
p62
aS'#656565'
p63
aF8.88595
aI0
aI00
aI00
aI00
aI00
aI00
aI00
aI00
aI00
aa(lp64
I234378
aF335.4801304347826
aF74.4677
ag61
aS'utopia'
p65
aS'#656565'
p66
aF8.88595
aI0
aI00
aI00
aI00
aI00
aI00
aI00
aI00
aI00
aa(lp67
I234378
aF339.5164130434783
aF74.4677
ag61
aS'utopia'
p68
aS'#656565'
p69
aF8.88595
aI0
aI01
aI01
aI01
aI00
aI00
aI00
aI00
aI00
aa(lp70
I234378
aF350.6615434782609
aF74.4677
ag61
aS'utopia'
p71
aS'#656565'
p72
aF8.88595
aI0
aI00
aI00
aI00
aI00
aI00
aI00
aI00
aI00
aa(lp73
I45445
aF359.6978260869566
aF74.4677
ag61
aS'utopia'
p74
aS'#656565'
p75
aF8.88595
aI0
aI01
aI00
aI00
aI00
aI00
aI00
aI00
aI00
aa(lp76
I234378
aF371.9155217391305
aF74.4677
ag61
aS'utopia'
p77
aS'#656565'
p78
aF8.88595
aI0
aI00
aI00
aI00
aI00
aI00
aI00
aI00
aI00
aa(lp79
I144690
aF387.95180434782617
aF74.4677
ag61
aS'utopia'
p80
aS'#656565'
p81
aF8.88595
aI0
aI01
aI00
aI00
aI00
aI00
aI00
aI00
aI00
aa(lp82
I234378
aF414.118
aF74.4677
aVp1
p83
aS'utopia'
p84
aS'#656565'
p85
aF8.88595
aI0
aI01
aI00
aI00
aI00
aI00
aI00
aI00
aI00
aa(lp86
I234378
aF445.1569333333333
aF74.4677
ag83
aS'utopia'
p87
aS'#656565'
p88
aF8.88595
aI0
aI00
aI00
aI00
aI00
aI00
aI00
aI00
aI00
aa(lp89
I148996
aF40.9084
aF84.8346
aVp1
p90
aS'utopia'
p91
aS'#656565'
p92
aF8.88595
aI0
aI01
aI00
aI00
aI00
aI00
aI00
aI00
aI00
aa(lp93
I234378
aF65.5162
aF84.8346
ag90
aS'utopia'
p94
aS'#656565'
p95
aF8.88595
aI0
aI00
aI00
aI00
aI00
aI00
aI00
aI00
aI00
aa(lp96
I176767
aF69.61749999999999
aF84.8346
ag90
aS'utopia'
p97
aS'#656565'
p98
aF8.88595
aI0
aI01
aI00
aI00
aI00
aI00
aI00
aI00
aI00
aa(lp99
I234378
aF96.5292
aF84.8346
ag90
aS'utopia'
p100
aS'#656565'
p101
aF8.88595
aI0
aI00
aI00
aI00
aI00
aI00
aI00
aI00
aI00
aa(lp102
I234378
aF112.737
aF84.8346
aVp1
p103
aS'utopia'
p104
aS'#656565'
p105
aF8.88595
aI0
aI00
aI00
aI00
aI00
aI00
aI00
aI00
aI00
aa(lp106
I234378
aF158.32164166666666
aF84.8346
ag103
aS'utopia'
p107
aS'#656565'
p108
aF8.88595
aI0
aI00
aI00
aI00
aI00
aI00
aI00
aI00
aI00
aa(lp109
I63022
aF164.571
aF84.8346
aVp1
p110
aS'utopia'
p111
aS'#656565'
p112
aF8.88595
aI0
aI01
aI00
aI00
aI00
aI00
aI00
aI00
aI00
aa(lp113
I68032
aF198.634
aF84.8346
aVp1
p114
aS'utopia'
p115
aS'#656565'
p116
aF8.88595
aI0
aI01
aI00
aI00
aI00
aI00
aI00
aI00
aI00
aa(lp117
I234378
aF249.648975
aF84.8346
ag114
aS'utopia'
p118
aS'#656565'
p119
aF8.88595
aI0
aI00
aI00
aI00
aI00
aI00
aI00
aI00
aI00
aa(lp120
I224049
aF256.393
aF84.8346
aVp1
p121
aS'utopia'
p122
aS'#656565'
p123
aF8.88595
aI0
aI01
aI00
aI00
aI00
aI00
aI00
aI00
aI00
aa(lp124
I31679
aF290.456
aF84.8346
aVp1
p125
aS'utopia'
p126
aS'#656565'
p127
aF8.88595
aI0
aI01
aI01
aI00
aI00
aI00
aI00
aI00
aI00
aa(lp128
I222659
aF303.784
aF84.8346
aVp1
p129
aS'utopia'
p130
aS'#656565'
p131
aF8.88595
aI0
aI00
aI00
aI00
aI00
aI00
aI00
aI00
aI00
aa(lp132
I234378
aF319.39515
aF84.8346
ag129
aS'utopia'
p133
aS'#656565'
p134
aF8.88595
aI0
aI00
aI00
aI00
aI00
aI00
aI00
aI00
aI00
aa(lp135
I234378
aF323.2979375
aF84.8346
ag129
aS'utopia'
p136
aS'#656565'
p137
aF8.88595
aI0
aI01
aI01
aI01
aI00
aI00
aI00
aI00
aI00
aa(lp138
I234378
aF331.10351249999997
aF84.8346
ag129
aS'utopia'
p139
aS'#656565'
p140
aF8.88595
aI0
aI00
aI00
aI00
aI00
aI00
aI00
aI00
aI00
aa(lp141
I222659
aF337.107
aF84.8346
aVp1
p142
aS'utopia'
p143
aS'#656565'
p144
aF8.88595
aI0
aI00
aI00
aI00
aI00
aI00
aI00
aI00
aI00
aa(lp145
I40536
aF354.138
aF84.8346
aVp1
p146
aS'utopia'
p147
aS'#656565'
p148
aF8.88595
aI0
aI00
aI00
aI00
aI00
aI00
aI00
aI00
aI00
aa(lp149
I36403
aF374.872
aF84.8346
aVp1
p150
aS'utopia'
p151
aS'#656565'
p152
aF8.88595
aI0
aI00
aI00
aI00
aI00
aI00
aI00
aI00
aI00
aa(lp153
I234378
aF386.72
aF84.8346
aVp1
p154
aS'utopia'
p155
aS'#656565'
p156
aF8.88595
aI0
aI00
aI00
aI01
aI01
aI01
aI00
aI00
aI00
aa(lp157
I234378
aF402.80712000000005
aF84.8346
ag154
aS'utopia'
p158
aS'#656565'
p159
aF8.88595
aI0
aI00
aI00
aI00
aI00
aI00
aI00
aI00
aI00
aa(lp160
I87610
aF408.935
aF84.8346
aVp1
p161
aS'utopia'
p162
aS'#656565'
p163
aF8.88595
aI0
aI01
aI00
aI00
aI00
aI00
aI00
aI00
aI00
aa(lp164
I190806
aF442.998
aF84.8346
aVp1
p165
aS'utopia'
p166
aS'#656565'
p167
aF8.88595
aI0
aI00
aI00
aI00
aI00
aI00
aI00
aI00
aI00
aa(lp168
I31679
aF40.9084
aF95.2016
aVp1
p169
aS'utopia'
p170
aS'#656565'
p171
aF8.88595
aI0
aI01
aI01
aI00
aI00
aI00
aI00
aI00
aI00
aa(lp172
I234378
aF50.30775555555556
aF95.2016
ag169
aS'utopia'
p173
aS'#656565'
p174
aF8.88595
aI0
aI00
aI00
aI00
aI00
aI00
aI00
aI00
aI00
aa(lp175
I234378
aF55.00743333333334
aF95.2016
ag169
aS'utopia'
p176
aS'#656565'
p177
aF8.88595
aI0
aI01
aI00
aI00
aI00
aI00
aI00
aI00
aI00
aa(lp178
I35885
aF85.3382
aF95.2016
aVp1
p179
aS'utopia'
p180
aS'#656565'
p181
aF8.88595
aI0
aI00
aI00
aI00
aI00
aI00
aI00
aI00
aI00
aa(lp182
I234378
aF110.515
aF95.2016
aVp1
p183
aS'utopia'
p184
aS'#656565'
p185
aF8.88595
aI0
aI00
aI00
aI00
aI00
aI00
aI00
aI00
aI00
aa(lp186
I209676
aF131.989
aF95.2016
aVp1
p187
aS'utopia'
p188
aS'#656565'
p189
aF8.88595
aI0
aI00
aI00
aI00
aI00
aI00
aI00
aI00
aI00
aa(lp190
I234378
aF147.48372
aF95.2016
ag187
aS'utopia'
p191
aS'#656565'
p192
aF8.88595
aI0
aI00
aI00
aI00
aI00
aI00
aI00
aI00
aI00
aa(lp193
I234378
aF59.4208
aF122.6
aVp1
p194
aS'utopia'
p195
aS'#0d75b4'
p196
aF8.88595
aI0
aI00
aI00
aI00
aI00
aI00
aI01
aI00
aI00
aa(lp197
I234378
aF59.4208
aF139.631
aVp1
p198
aS'utopia'
p199
aS'#0d75b4'
p200
aF8.88595
aI0
aI00
aI00
aI00
aI00
aI00
aI01
aI00
aI00
aa(lp201
I234378
aF301.563
aF130.745
aVp1
p202
aS'utopia'
p203
aS'#000000'
p204
aF8.88595
aI0
aI00
aI00
aI01
aI01
aI01
aI00
aI00
aI00
aa(lp205
I15548
aF55.7183
aF172.213
aVp1
p206
aS'utopia'
p207
aS'#878787'
p208
aF8.88595
aI0
aI01
aI00
aI00
aI00
aI00
aI00
aI00
aI00
aa(lp209
I104542
aF89.0407
aF172.213
aVp1
p210
aS'utopia'
p211
aS'#878787'
p212
aF8.88595
aI0
aI01
aI00
aI00
aI00
aI00
aI00
aI00
aI00
aa(lp213
I234378
aF133.94655
aF172.213
ag210
aS'utopia'
p214
aS'#878787'
p215
aF8.88595
aI0
aI00
aI00
aI00
aI00
aI00
aI00
aI00
aI00
aa(lp216
I68032
aF142.356
aF172.213
aVp1
p217
aS'utopia'
p218
aS'#000000'
p219
aF8.88595
aI0
aI01
aI00
aI00
aI00
aI00
aI00
aI00
aI00
aa(lp220
I210461
aF197.894
aF172.213
aVp1
p221
aS'utopia'
p222
aS'#000000'
p223
aF8.88595
aI0
aI01
aI00
aI00
aI00
aI00
aI00
aI00
aI00
aa(lp224
I175409
aF222.33
aF172.213
aVp1
p225
aS'utopia'
p226
aS'#000000'
p227
aF8.88595
aI0
aI01
aI00
aI00
aI00
aI00
aI00
aI00
aI00
aa(lp228
I234378
aF239.60192
aF172.213
ag225
aS'utopia'
p229
aS'#000000'
p230
aF8.88595
aI0
aI00
aI00
aI00
aI00
aI00
aI00
aI00
aI00
aa(lp231
I217975
aF246.026
aF172.213
aVp1
p232
aS'utopia'
p233
aS'#000000'
p234
aF8.88595
aI0
aI01
aI00
aI00
aI00
aI00
aI00
aI00
aI00
aa(lp235
I16915
aF308.227
aF172.213
aVp1
p236
aS'utopia'
p237
aS'#878787'
p238
aF8.88595
aI0
aI01
aI00
aI00
aI00
aI00
aI00
aI00
aI00
aa(lp239
I60220
aF330.442
aF172.213
aVp1
p240
aS'utopia'
p241
aS'#878787'
p242
aF8.88595
aI0
aI01
aI00
aI00
aI00
aI00
aI00
aI00
aI00
aa(lp243
I234378
aF372.28409090909093
aF172.213
ag240
aS'utopia'
p244
aS'#878787'
p245
aF8.88595
aI0
aI00
aI00
aI00
aI00
aI00
aI00
aI00
aI00
aa(lp246
I234378
aF380.796
aF172.213
aVp1
p247
aS'utopia'
p248
aS'#000000'
p249
aF8.88595
aI0
aI00
aI00
aI01
aI01
aI00
aI00
aI00
aI00
aa(lp250
I91136
aF387.46
aF172.213
aVp1
p251
aS'utopia'
p252
aS'#000000'
p253
aF8.88595
aI0
aI01
aI00
aI00
aI00
aI00
aI00
aI00
aI00
aa(lp254
I234378
aF403.18559999999997
aF172.213
ag251
aS'utopia'
p255
aS'#000000'
p256
aF8.88595
aI0
aI00
aI00
aI00
aI00
aI00
aI00
aI00
aI00
aa(lp257
I59734
aF407.11699999999996
aF172.213
ag251
aS'utopia'
p258
aS'#000000'
p259
aF8.88595
aI0
aI00
aI00
aI00
aI00
aI00
aI00
aI00
aI00
aa(lp260
I234378
aF411.04839999999996
aF172.213
ag251
aS'utopia'
p261
aS'#000000'
p262
aF8.88595
aI0
aI00
aI00
aI00
aI00
aI00
aI00
aI00
aI00
aa(lp263
I234378
aF417.08
aF172.213
aVp1
p264
aS'utopia'
p265
aS'#000000'
p266
aF8.88595
aI0
aI00
aI00
aI01
aI01
aI00
aI00
aI00
aI00
aa(lp267
I63729
aF423.745
aF172.213
aVp1
p268
aS'utopia'
p269
aS'#000000'
p270
aF8.88595
aI0
aI01
aI00
aI00
aI00
aI00
aI00
aI00
aI00
aa(lp271
I234378
aF446.4985625
aF172.213
ag268
aS'utopia'
p272
aS'#000000'
p273
aF8.88595
aI0
aI00
aI00
aI00
aI00
aI00
aI00
aI00
aI00
aa(lp274
I59734
aF451.04927499999997
aF172.213
ag268
aS'utopia'
p275
aS'#000000'
p276
aF8.88595
aI0
aI00
aI00
aI00
aI00
aI00
aI00
aI00
aI00
aa(lp277
I234378
aF455.59998749999994
aF172.213
ag268
aS'utopia'
p278
aS'#000000'
p279
aF8.88595
aI0
aI00
aI00
aI00
aI00
aI00
aI00
aI00
aI00
aa(lp280
I15548
aF55.7183
aF189.985
aVp1
p281
aS'utopia'
p282
aS'#878787'
p283
aF8.88595
aI0
aI01
aI00
aI00
aI00
aI00
aI00
aI00
aI00
aa(lp284
I2006
aF89.0407
aF189.985
aVp1
p285
aS'utopia'
p286
aS'#878787'
p287
aF8.88595
aI0
aI01
aI00
aI00
aI00
aI00
aI00
aI00
aI00
aa(lp288
I234378
aF124.77815
aF189.985
ag285
aS'utopia'
p289
aS'#878787'
p290
aF8.88595
aI0
aI00
aI00
aI00
aI00
aI00
aI00
aI00
aI00
aa(lp291
I234378
aF134.211
aF189.985
aVp1
p292
aS'utopia'
p293
aS'#000000'
p294
aF8.88595
aI0
aI01
aI00
aI00
aI00
aI00
aI00
aI00
aI00
aa(lp295
I161858
aF177.16
aF189.985
aVp1
p296
aS'utopia'
p297
aS'#000000'
p298
aF8.88595
aI0
aI01
aI00
aI00
aI00
aI00
aI00
aI00
aI00
aa(lp299
I229300
aF308.227
aF189.985
aVp1
p300
aS'utopia'
p301
aS'#878787'
p302
aF8.88595
aI0
aI01
aI00
aI00
aI00
aI00
aI00
aI00
aI00
aa(lp303
I78894
aF338.588
aF189.985
aVp1
p304
aS'utopia'
p305
aS'#878787'
p306
aF8.88595
aI0
aI01
aI00
aI00
aI00
aI00
aI00
aI00
aI00
aa(lp307
I234378
aF360.9019142857143
aF189.985
ag304
aS'utopia'
p308
aS'#878787'
p309
aF8.88595
aI0
aI00
aI00
aI00
aI00
aI00
aI00
aI00
aI00
aa(lp310
I234378
aF368.948
aF189.985
aVp1
p311
aS'utopia'
p312
aS'#000000'
p313
aF8.88595
aI0
aI01
aI00
aI00
aI00
aI00
aI00
aI00
aI00
aa(lp314
I234378
aF380.796
aF189.985
aVp1
p315
aS'utopia'
p316
aS'#000000'
p317
aF8.88595
aI0
aI00
aI00
aI01
aI01
aI01
aI00
aI00
aI00
aa(lp318
I234378
aF388.6867
aF189.985
ag315
aS'utopia'
p319
aS'#000000'
p320
aF8.88595
aI0
aI00
aI00
aI00
aI00
aI00
aI00
aI00
aI00
aa(lp321
I234378
aF392.63205
aF189.985
ag315
aS'utopia'
p322
aS'#000000'
p323
aF8.88595
aI0
aI00
aI00
aI01
aI01
aI00
aI00
aI00
aI00
aa(lp324
I234378
aF398.568
aF189.985
aVp1
p325
aS'utopia'
p326
aS'#000000'
p327
aF8.88595
aI0
aI01
aI00
aI00
aI00
aI00
aI00
aI00
aI00
aa(lp328
I15548
aF55.7183
aF207.757
aVp1
p329
aS'utopia'
p330
aS'#878787'
p331
aF8.88595
aI0
aI01
aI00
aI00
aI00
aI00
aI00
aI00
aI00
aa(lp332
I17057
aF89.0407
aF207.757
aVp1
p333
aS'utopia'
p334
aS'#878787'
p335
aF8.88595
aI0
aI01
aI00
aI00
aI00
aI00
aI00
aI00
aI00
aa(lp336
I234378
aF122.05430000000001
aF207.757
ag333
aS'utopia'
p337
aS'#878787'
p338
aF8.88595
aI0
aI00
aI00
aI00
aI00
aI00
aI00
aI00
aI00
aa(lp339
I234378
aF130.508
aF207.757
aVp1
p340
aS'utopia'
p341
aS'#000000'
p342
aF8.88595
aI0
aI01
aI00
aI00
aI00
aI00
aI00
aI00
aI00
aa(lp343
I234378
aF173.457
aF207.757
aVp1
p344
aS'utopia'
p345
aS'#000000'
p346
aF8.88595
aI0
aI00
aI00
aI00
aI00
aI00
aI00
aI00
aI00
aa(lp347
I234378
aF180.122
aF207.757
aVp1
p348
aS'utopia'
p349
aS'#000000'
p350
aF8.88595
aI0
aI01
aI00
aI00
aI00
aI00
aI00
aI00
aI00
aa(lp351
I234378
aF308.227
aF207.757
aVp1
p352
aS'utopia'
p353
aS'#878787'
p354
aF8.88595
aI0
aI01
aI00
aI00
aI00
aI00
aI00
aI00
aI00
aa(lp355
I234378
aF346.733
aF207.757
aVp1
p356
aS'utopia'
p357
aS'#878787'
p358
aF8.88595
aI0
aI01
aI01
aI00
aI00
aI00
aI00
aI00
aI00
aa(lp359
I234378
aF361.2593
aF207.757
ag356
aS'utopia'
p360
aS'#878787'
p361
aF8.88595
aI0
aI00
aI00
aI00
aI00
aI00
aI00
aI00
aI00
aa(lp362
I63091
aF370.429
aF207.757
aVp1
p363
aS'utopia'
p364
aS'#000000'
p365
aF8.88595
aI0
aI01
aI00
aI00
aI00
aI00
aI00
aI00
aI00
aa(lp366
I234378
aF387.46
aF207.757
aVp1
p367
aS'utopia'
p368
aS'#000000'
p369
aF8.88595
aI0
aI01
aI00
aI00
aI00
aI00
aI00
aI00
aI00
aa(lp370
I234378
aF55.7183
aF225.529
aVp1
p371
aS'utopia'
p372
aS'#878787'
p373
aF8.88595
aI0
aI01
aI00
aI00
aI00
aI00
aI00
aI00
aI00
aa(lp374
I234378
aF70.62062
aF225.529
ag371
aS'utopia'
p375
aS'#878787'
p376
aF8.88595
aI0
aI00
aI00
aI00
aI00
aI00
aI00
aI00
aI00
aa(lp377
I17057
aF76.4522
aF225.529
aVp1
p378
aS'utopia'
p379
aS'#878787'
p380
aF8.88595
aI0
aI01
aI00
aI00
aI00
aI00
aI00
aI00
aI00
aa(lp381
I234378
aF109.4658
aF225.529
ag378
aS'utopia'
p382
aS'#878787'
p383
aF8.88595
aI0
aI00
aI00
aI00
aI00
aI00
aI00
aI00
aI00
aa(lp384
I234378
aF117.92
aF225.529
aVp1
p385
aS'utopia'
p386
aS'#000000'
p387
aF8.88595
aI0
aI01
aI00
aI00
aI00
aI00
aI00
aI00
aI00
aa(lp388
I234378
aF152.36157500000002
aF225.529
ag385
aS'utopia'
p389
aS'#000000'
p390
aF8.88595
aI0
aI00
aI00
aI00
aI00
aI00
aI00
aI00
aI00
aa(lp391
I227337
aF159.388
aF225.529
aVp1
p392
aS'utopia'
p393
aS'#000000'
p394
aF8.88595
aI0
aI01
aI00
aI00
aI00
aI00
aI00
aI00
aI00
aa(lp395
I234378
aF188.267
aF225.529
aVp1
p396
aS'utopia'
p397
aS'#000000'
p398
aF8.88595
aI0
aI01
aI00
aI00
aI00
aI00
aI00
aI00
aI00
aa(lp399
I234378
aF213.444
aF225.529
aVp1
p400
aS'utopia'
p401
aS'#000000'
p402
aF8.88595
aI0
aI00
aI00
aI00
aI00
aI00
aI00
aI00
aI00
aa(lp403
I31679
aF217.31768
aF225.529
ag400
aS'utopia'
p404
aS'#000000'
p405
aF8.88595
aI0
aI01
aI01
aI00
aI00
aI00
aI00
aI00
aI00
aa(lp406
I234378
aF225.06504
aF225.529
ag400
aS'utopia'
p407
aS'#000000'
p408
aF8.88595
aI0
aI00
aI00
aI00
aI00
aI00
aI00
aI00
aI00
aa(lp409
I234378
aF228.93872000000002
aF225.529
ag400
aS'utopia'
p410
aS'#000000'
p411
aF8.88595
aI0
aI00
aI00
aI00
aI00
aI00
aI00
aI00
aI00
aa(lp412
I177271
aF234.918
aF225.529
aVp1
p413
aS'utopia'
p414
aS'#000000'
p415
aF8.88595
aI0
aI01
aI00
aI00
aI00
aI00
aI00
aI00
aI00
aa(lp416
I13642
aF55.7183
aF235.896
aVp1
p417
aS'utopia'
p418
aS'#000000'
p419
aF8.88595
aI0
aI01
aI00
aI00
aI00
aI00
aI00
aI00
aI00
aa(lp420
I17057
aF109.034
aF235.896
aVp1
p421
aS'utopia'
p422
aS'#000000'
p423
aF8.88595
aI0
aI01
aI00
aI00
aI00
aI00
aI00
aI00
aI00
aa(lp424
I7204
aF308.227
aF225.529
aVp1
p425
aS'utopia'
p426
aS'#878787'
p427
aF8.88595
aI0
aI01
aI00
aI00
aI00
aI00
aI00
aI00
aI00
aa(lp428
I189220
aF340.809
aF225.529
aVp1
p429
aS'utopia'
p430
aS'#878787'
p431
aF8.88595
aI0
aI01
aI00
aI00
aI00
aI00
aI00
aI00
aI00
aa(lp432
I234378
aF366.93111428571433
aF225.529
ag429
aS'utopia'
p433
aS'#878787'
p434
aF8.88595
aI0
aI00
aI00
aI00
aI00
aI00
aI00
aI00
aI00
aa(lp435
I27780
aF375.613
aF225.529
aVp1
p436
aS'utopia'
p437
aS'#000000'
p438
aF8.88595
aI0
aI01
aI01
aI00
aI00
aI00
aI00
aI00
aI00
aa(lp439
I234378
aF379.93184545454545
aF225.529
ag436
aS'utopia'
p440
aS'#000000'
p441
aF8.88595
aI0
aI00
aI00
aI00
aI00
aI00
aI00
aI00
aI00
aa(lp442
I2737
aF384.2506909090909
aF225.529
ag436
aS'utopia'
p443
aS'#000000'
p444
aF8.88595
aI0
aI01
aI00
aI00
aI00
aI00
aI00
aI00
aI00
aa(lp445
I234378
aF401.5260727272727
aF225.529
ag436
aS'utopia'
p446
aS'#000000'
p447
aF8.88595
aI0
aI00
aI00
aI00
aI00
aI00
aI00
aI00
aI00
aa(lp448
I27780
aF398.8449181818182
aF225.529
ag436
aS'utopia'
p449
aS'#000000'
p450
aF8.88595
aI0
aI01
aI01
aI00
aI00
aI00
aI00
aI00
aI00
aa(lp451
I234378
aF403.1637636363636
aF225.529
ag436
aS'utopia'
p452
aS'#000000'
p453
aF8.88595
aI0
aI00
aI00
aI00
aI00
aI00
aI00
aI00
aI00
aa(lp454
I64620
aF414.4826090909091
aF225.529
ag436
aS'utopia'
p455
aS'#000000'
p456
aF8.88595
aI0
aI01
aI01
aI00
aI00
aI00
aI00
aI00
aI00
aa(lp457
I234378
aF409.80145454545453
aF225.529
ag436
aS'utopia'
p458
aS'#000000'
p459
aF8.88595
aI0
aI00
aI00
aI00
aI00
aI00
aI00
aI00
aI00
aa(lp460
I48671
aF308.227
aF243.301
aVp1
p461
aS'utopia'
p462
aS'#878787'
p463
aF8.88595
aI0
aI01
aI00
aI00
aI00
aI00
aI00
aI00
aI00
aa(lp464
I129688
aF336.366
aF243.301
aVp1
p465
aS'utopia'
p466
aS'#878787'
p467
aF8.88595
aI0
aI00
aI00
aI00
aI00
aI00
aI00
aI00
aI00
aa(lp468
I234378
aF360.58405714285715
aF243.301
ag465
aS'utopia'
p469
aS'#878787'
p470
aF8.88595
aI0
aI00
aI00
aI00
aI00
aI00
aI00
aI00
aI00
aa(lp471
I234378
aF368.948
aF243.301
aVp1
p472
aS'utopia'
p473
aS'#000000'
p474
aF8.88595
aI0
aI00
aI00
aI01
aI01
aI00
aI00
aI00
aI00
aa(lp475
I234378
aF375.613
aF243.301
aVp1
p476
aS'utopia'
p477
aS'#000000'
p478
aF8.88595
aI0
aI01
aI00
aI00
aI00
aI00
aI00
aI00
aI00
aa(lp479
I98580
aF55.7183
aF253.668
aVp1
p480
aS'utopia'
p481
aS'#878787'
p482
aF8.88595
aI0
aI01
aI00
aI00
aI00
aI00
aI00
aI00
aI00
aa(lp483
I166289
aF100.148
aF253.668
aVp1
p484
aS'utopia'
p485
aS'#878787'
p486
aF8.88595
aI0
aI01
aI00
aI00
aI00
aI00
aI00
aI00
aI00
aa(lp487
I234378
aF116.82751999999999
aF253.668
ag484
aS'utopia'
p488
aS'#878787'
p489
aF8.88595
aI0
aI00
aI00
aI00
aI00
aI00
aI00
aI00
aI00
aa(lp490
I22476
aF125.325
aF253.668
aVp1
p491
aS'utopia'
p492
aS'#000000'
p493
aF8.88595
aI0
aI01
aI01
aI00
aI00
aI00
aI00
aI00
aI00
aa(lp494
I234378
aF135.692
aF253.668
aVp1
p495
aS'utopia'
p496
aS'#000000'
p497
aF8.88595
aI0
aI01
aI00
aI00
aI00
aI00
aI00
aI00
aI00
aa(lp498
I123665
aF178.641
aF253.668
aVp1
p499
aS'utopia'
p500
aS'#000000'
p501
aF8.88595
aI0
aI01
aI00
aI00
aI00
aI00
aI00
aI00
aI00
aa(lp502
I234378
aF226.032
aF253.668
aVp1
p503
aS'utopia'
p504
aS'#000000'
p505
aF8.88595
aI0
aI01
aI00
aI00
aI00
aI00
aI00
aI00
aI00
aa(lp506
I234378
aF283.051
aF253.668
aVp1
p507
aS'utopia'
p508
aS'#000000'
p509
aF8.88595
aI0
aI00
aI00
aI00
aI00
aI00
aI00
aI00
aI00
aa(lp510
I20593
aF55.7183
aF264.035
aVp1
p511
aS'utopia'
p512
aS'#000000'
p513
aF8.88595
aI0
aI01
aI00
aI00
aI00
aI00
aI00
aI00
aI00
aa(lp514
I176435
aF55.7183
aF281.807
aVp1
p515
aS'utopia'
p516
aS'#878787'
p517
aF8.88595
aI0
aI01
aI00
aI00
aI00
aI00
aI00
aI00
aI00
aa(lp518
I234378
aF71.80542
aF281.807
ag515
aS'utopia'
p519
aS'#878787'
p520
aF8.88595
aI0
aI00
aI00
aI00
aI00
aI00
aI00
aI00
aI00
aa(lp521
I234378
aF80.1547
aF281.807
aVp1
p522
aS'utopia'
p523
aS'#000000'
p524
aF8.88595
aI0
aI01
aI00
aI00
aI00
aI00
aI00
aI00
aI00
aa(lp525
I100815
aF117.18
aF281.807
aVp1
p526
aS'utopia'
p527
aS'#000000'
p528
aF8.88595
aI0
aI01
aI00
aI00
aI00
aI00
aI00
aI00
aI00
aa(lp529
I74589
aF55.7183
aF299.578
aVp1
p530
aS'utopia'
p531
aS'#878787'
p532
aF8.88595
aI0
aI01
aI00
aI00
aI00
aI00
aI00
aI00
aI00
aa(lp533
I234378
aF87.41545555555555
aF299.578
ag530
aS'utopia'
p534
aS'#878787'
p535
aF8.88595
aI0
aI00
aI00
aI00
aI00
aI00
aI00
aI00
aI00
aa(lp536
I22476
aF95.7051
aF299.578
aVp1
p537
aS'utopia'
p538
aS'#000000'
p539
aF8.88595
aI0
aI01
aI01
aI00
aI00
aI00
aI00
aI00
aI00
aa(lp540
I234378
aF105.30374
aF299.578
ag537
aS'utopia'
p541
aS'#000000'
p542
aF8.88595
aI0
aI01
aI00
aI00
aI00
aI00
aI00
aI00
aI00
aa(lp543
I234378
aF139.69830000000002
aF299.578
ag537
aS'utopia'
p544
aS'#000000'
p545
aF8.88595
aI0
aI00
aI00
aI00
aI00
aI00
aI00
aI00
aI00
aa(lp546
I234378
aF134.99762
aF299.578
ag537
aS'utopia'
p547
aS'#000000'
p548
aF8.88595
aI0
aI01
aI00
aI00
aI00
aI00
aI00
aI00
aI00
aa(lp549
I234378
aF183.824
aF299.578
aVp1
p550
aS'utopia'
p551
aS'#000000'
p552
aF8.88595
aI0
aI01
aI00
aI00
aI00
aI00
aI00
aI00
aI00
aa(lp553
I231013
aF55.7183
aF317.35
aVp1
p554
aS'utopia'
p555
aS'#878787'
p556
aF8.88595
aI0
aI01
aI00
aI00
aI00
aI00
aI00
aI00
aI00
aa(lp557
I234378
aF72.7498
aF317.35
aVp1
p558
aS'utopia'
p559
aS'#878787'
p560
aF8.88595
aI0
aI01
aI00
aI00
aI00
aI00
aI00
aI00
aI00
aa(lp561
I234378
aF91.25542857142857
aF317.35
ag558
aS'utopia'
p562
aS'#878787'
p563
aF8.88595
aI0
aI00
aI00
aI00
aI00
aI00
aI00
aI00
aI00
aa(lp564
I84662
aF98.6671
aF317.35
aVp1
p565
aS'utopia'
p566
aS'#000000'
p567
aF8.88595
aI0
aI01
aI00
aI00
aI00
aI00
aI00
aI00
aI00
aa(lp568
I21716
aF120.141
aF317.35
aVp1
p569
aS'utopia'
p570
aS'#000000'
p571
aF8.88595
aI0
aI01
aI00
aI00
aI00
aI00
aI00
aI00
aI00
aa(lp572
I234378
aF136.67502352941176
aF317.35
ag569
aS'utopia'
p573
aS'#000000'
p574
aF8.88595
aI0
aI01
aI00
aI00
aI00
aI00
aI00
aI00
aI00
aa(lp575
I234378
aF179.39358823529412
aF317.35
ag569
aS'utopia'
p576
aS'#000000'
p577
aF8.88595
aI0
aI00
aI00
aI00
aI00
aI00
aI00
aI00
aI00
aa(lp578
I234378
aF188.267
aF317.35
aVp1
p579
aS'utopia'
p580
aS'#000000'
p581
aF8.88595
aI0
aI01
aI00
aI00
aI00
aI00
aI00
aI00
aI00
aa(lp582
I234378
aF245.04745333333332
aF317.35
ag579
aS'utopia'
p583
aS'#000000'
p584
aF8.88595
aI0
aI00
aI00
aI00
aI00
aI00
aI00
aI00
aI00
aa(lp585
I234378
aF251.209
aF317.35
aVp1
p586
aS'utopia'
p587
aS'#000000'
p588
aF8.88595
aI0
aI01
aI01
aI01
aI00
aI00
aI00
aI00
aI00
aa(lp589
I234378
aF268.3866888888889
aF317.35
ag586
aS'utopia'
p590
aS'#000000'
p591
aF8.88595
aI0
aI01
aI01
aI00
aI00
aI00
aI00
aI00
aI00
aa(lp592
I234378
aF280.51995555555555
aF317.35
ag586
aS'utopia'
p593
aS'#000000'
p594
aF8.88595
aI0
aI00
aI00
aI00
aI00
aI00
aI00
aI00
aI00
aa(lp595
I234378
aF55.7183
aF327.717
aVp1
p596
aS'utopia'
p597
aS'#000000'
p598
aF8.88595
aI0
aI01
aI00
aI00
aI00
aI00
aI00
aI00
aI00
aa(lp599
I234378
aF84.78256666666667
aF327.717
ag596
aS'utopia'
p600
aS'#000000'
p601
aF8.88595
aI0
aI00
aI00
aI00
aI00
aI00
aI00
aI00
aI00
aa(lp602
I45445
aF90.5217
aF327.717
aVp1
p603
aS'utopia'
p604
aS'#000000'
p605
aF8.88595
aI0
aI01
aI00
aI00
aI00
aI00
aI00
aI00
aI00
aa(lp606
I234378
aF115.41522727272726
aF327.717
ag603
aS'utopia'
p607
aS'#000000'
p608
aF8.88595
aI0
aI01
aI00
aI00
aI00
aI00
aI00
aI00
aI00
aa(lp609
I234378
aF127.3619909090909
aF327.717
ag603
aS'utopia'
p610
aS'#000000'
p611
aF8.88595
aI0
aI00
aI00
aI00
aI00
aI00
aI00
aI00
aI00
aa(lp612
I234378
aF136.432
aF327.717
aVp1
p613
aS'utopia'
p614
aS'#000000'
p615
aF8.88595
aI0
aI01
aI01
aI00
aI00
aI00
aI00
aI00
aI00
aa(lp616
I234378
aF155.48111999999998
aF327.717
ag613
aS'utopia'
p617
aS'#000000'
p618
aF8.88595
aI0
aI00
aI00
aI00
aI00
aI00
aI00
aI00
aI00
aa(lp619
I132957
aF162.35
aF327.717
aVp1
p620
aS'utopia'
p621
aS'#000000'
p622
aF8.88595
aI0
aI01
aI00
aI00
aI00
aI00
aI00
aI00
aI00
aa(lp623
I234378
aF183.084
aF327.717
aVp1
p624
aS'utopia'
p625
aS'#000000'
p626
aF8.88595
aI0
aI01
aI00
aI00
aI00
aI00
aI00
aI00
aI00
aa(lp627
I234378
aF222.23336363636363
aF327.717
ag624
aS'utopia'
p628
aS'#000000'
p629
aF8.88595
aI0
aI00
aI00
aI00
aI00
aI00
aI00
aI00
aI00
aa(lp630
I234378
aF228.254
aF327.717
aVp1
p631
aS'utopia'
p632
aS'#000000'
p633
aF8.88595
aI0
aI01
aI00
aI00
aI00
aI00
aI00
aI00
aI00
aa(lp634
I51933
aF40.1679
aF364.76
aVp1
p635
aS'utopia'
p636
aS'#02304b'
p637
aF11.8479
aI1
aI01
aI00
aI00
aI00
aI00
aI00
aI00
aI00
aa(lp638
I60220
aF72.0093
aF364.76
aVp1
p639
aS'utopia'
p640
aS'#02304b'
p641
aF11.8479
aI1
aI01
aI00
aI00
aI00
aI00
aI00
aI00
aI00
aa(lp642
I234378
aF40.9084
aF396.477
aVp1
p643
aS'utopia'
p644
aS'#000000'
p645
aF10.3669
aI1
aI01
aI00
aI00
aI00
aI00
aI00
aI00
aI00
aa(lp646
I161858
aF92.0026
aF396.477
aVp1
p647
aS'utopia'
p648
aS'#000000'
p649
aF10.3669
aI1
aI01
aI00
aI00
aI00
aI00
aI00
aI00
aI00
aa(lp650
I234378
aF146.799
aF396.746
aVp1
p651
aS'utopia'
p652
aS'#656565'
p653
aF10.3669
aI0
aI00
aI00
aI00
aI00
aI00
aI00
aI00
aI00
aa(lp654
I15548
aF151.77642500000002
aF396.746
ag651
aS'utopia'
p655
aS'#656565'
p656
aF10.3669
aI0
aI01
aI00
aI00
aI00
aI00
aI00
aI00
aI00
aa(lp657
I70289
aF189.008
aF396.746
aVp1
p658
aS'utopia'
p659
aS'#656565'
p660
aF10.3669
aI0
aI01
aI00
aI00
aI00
aI00
aI00
aI00
aI00
aa(lp661
I234378
aF232.3569777777778
aF396.746
ag658
aS'utopia'
p662
aS'#656565'
p663
aF10.3669
aI0
aI00
aI00
aI00
aI00
aI00
aI00
aI00
aI00
aa(lp664
I68032
aF40.9084
aF413.037
aVp1
p665
aS'utopia'
p666
aS'#656565'
p667
aF10.3669
aI0
aI01
aI00
aI00
aI00
aI00
aI00
aI00
aI00
aa(lp668
I210461
aF107.553
aF413.037
aVp1
p669
aS'utopia'
p670
aS'#656565'
p671
aF10.3669
aI0
aI01
aI00
aI00
aI00
aI00
aI00
aI00
aI00
aa(lp672
I175409
aF136.432
aF413.037
aVp1
p673
aS'utopia'
p674
aS'#656565'
p675
aF10.3669
aI0
aI01
aI00
aI00
aI00
aI00
aI00
aI00
aI00
aa(lp676
I234378
aF156.38512
aF413.037
ag673
aS'utopia'
p677
aS'#656565'
p678
aF10.3669
aI0
aI00
aI00
aI00
aI00
aI00
aI00
aI00
aI00
aa(lp679
I217975
aF163.831
aF413.037
aVp1
p680
aS'utopia'
p681
aS'#656565'
p682
aF10.3669
aI0
aI01
aI00
aI00
aI00
aI00
aI00
aI00
aI00
aa(lp683
I234378
aF213.444
aF413.037
aVp1
p684
aS'utopia'
p685
aS'#656565'
p686
aF10.3669
aI0
aI01
aI00
aI00
aI00
aI00
aI00
aI00
aI01
aa(lp687
I234378
aF232.697
aF413.037
aVp1
p688
aS'utopia'
p689
aS'#656565'
p690
aF10.3669
aI0
aI00
aI00
aI01
aI01
aI01
aI00
aI00
aI00
aa(lp691
I48671
aF40.9084
aF432.868
aVp1
p692
aS'utopia'
p693
aS'#656565'
p694
aF8.88595
aI0
aI01
aI00
aI00
aI00
aI00
aI00
aI00
aI00
aa(lp695
I129688
aF69.0473
aF432.868
aVp1
p696
aS'utopia'
p697
aS'#656565'
p698
aF8.88595
aI0
aI01
aI00
aI00
aI00
aI00
aI00
aI00
aI00
aa(lp699
I234378
aF97.1861
aF432.868
aVp1
p700
aS'utopia'
p701
aS'#656565'
p702
aF8.88595
aI0
aI00
aI00
aI00
aI00
aI00
aI00
aI00
aI00
aa(lp703
I234378
aF101.629
aF432.868
aVp1
p704
aS'utopia'
p705
aS'#656565'
p706
aF8.88595
aI0
aI00
aI00
aI01
aI01
aI00
aI00
aI00
aI00
aa(lp707
I234378
aF108.294
aF432.868
aVp1
p708
aS'utopia'
p709
aS'#656565'
p710
aF8.88595
aI0
aI01
aI00
aI00
aI00
aI00
aI00
aI00
aI00
aa(lp711
I234378
aF40.9084
aF466.083
aVp1
p712
aS'utopia'
p713
aS'#000000'
p714
aF10.3669
aI1
aI01
aI00
aI00
aI00
aI00
aI00
aI00
aI00
aa(lp715
I161858
aF92.0026
aF466.083
aVp1
p716
aS'utopia'
p717
aS'#000000'
p718
aF10.3669
aI1
aI01
aI00
aI00
aI00
aI00
aI00
aI00
aI00
aa(lp719
I68032
aF40.9084
aF482.644
aVp1
p720
aS'utopia'
p721
aS'#656565'
p722
aF10.3669
aI0
aI01
aI00
aI00
aI00
aI00
aI00
aI00
aI00
aa(lp723
I210461
aF107.553
aF482.644
aVp1
p724
aS'utopia'
p725
aS'#656565'
p726
aF10.3669
aI0
aI01
aI00
aI00
aI00
aI00
aI00
aI00
aI00
aa(lp727
I175409
aF136.432
aF482.644
aVp1
p728
aS'utopia'
p729
aS'#656565'
p730
aF10.3669
aI0
aI01
aI00
aI00
aI00
aI00
aI00
aI00
aI00
aa(lp731
I234378
aF156.38512
aF482.644
ag728
aS'utopia'
p732
aS'#656565'
p733
aF10.3669
aI0
aI00
aI00
aI00
aI00
aI00
aI00
aI00
aI00
aa(lp734
I217975
aF163.831
aF482.644
aVp1
p735
aS'utopia'
p736
aS'#656565'
p737
aF10.3669
aI0
aI01
aI00
aI00
aI00
aI00
aI00
aI00
aI00
aa(lp738
I234378
aF213.444
aF482.644
aVp1
p739
aS'utopia'
p740
aS'#656565'
p741
aF10.3669
aI0
aI01
aI00
aI00
aI00
aI00
aI00
aI00
aI01
aa(lp742
I234378
aF232.697
aF482.644
aVp1
p743
aS'utopia'
p744
aS'#656565'
p745
aF10.3669
aI0
aI00
aI00
aI01
aI01
aI01
aI00
aI00
aI00
aa(lp746
I89480
aF255.652
aF482.644
aVp1
p747
aS'utopia'
p748
aS'#656565'
p749
aF10.3669
aI0
aI01
aI00
aI00
aI00
aI00
aI00
aI00
aI00
aa(lp750
I234378
aF270.462
aF482.644
aVp1
p751
aS'utopia'
p752
aS'#656565'
p753
aF10.3669
aI0
aI01
aI00
aI00
aI00
aI00
aI00
aI00
aI01
aa(lp754
I234378
aF289.715
aF482.644
aVp1
p755
aS'utopia'
p756
aS'#656565'
p757
aF10.3669
aI0
aI00
aI00
aI01
aI01
aI01
aI00
aI00
aI00
aa(lp758
I25784
aF40.9084
aF502.474
aVp1
p759
aS'utopia'
p760
aS'#656565'
p761
aF8.88595
aI0
aI01
aI00
aI00
aI00
aI00
aI00
aI00
aI00
aa(lp762
I194354
aF74.2307
aF502.474
aVp1
p763
aS'utopia'
p764
aS'#656565'
p765
aF8.88595
aI0
aI00
aI00
aI00
aI00
aI00
aI00
aI00
aI00
aa(lp766
I68032
aF89.0407
aF502.474
aVp1
p767
aS'utopia'
p768
aS'#656565'
p769
aF8.88595
aI0
aI01
aI00
aI00
aI00
aI00
aI00
aI00
aI00
aa(lp770
I210461
aF144.578
aF502.474
aVp1
p771
aS'utopia'
p772
aS'#656565'
p773
aF8.88595
aI0
aI01
aI00
aI00
aI00
aI00
aI00
aI00
aI00
aa(lp774
I234378
aF169.014
aF502.474
aVp1
p775
aS'utopia'
p776
aS'#656565'
p777
aF8.88595
aI0
aI00
aI00
aI00
aI00
aI00
aI00
aI00
aI00
aa(lp778
I149270
aF173.457
aF502.474
aVp1
p779
aS'utopia'
p780
aS'#656565'
p781
aF8.88595
aI0
aI01
aI00
aI00
aI00
aI00
aI00
aI00
aI00
aa(lp782
I154254
aF213.444
aF502.474
aVp1
p783
aS'utopia'
p784
aS'#656565'
p785
aF8.88595
aI0
aI01
aI00
aI00
aI00
aI00
aI00
aI00
aI00
aa(lp786
I234378
aF261.3980307692308
aF502.474
ag783
aS'utopia'
p787
aS'#656565'
p788
aF8.88595
aI0
aI00
aI00
aI00
aI00
aI00
aI00
aI00
aI00
aa(lp789
I166245
aF267.5
aF502.474
aVp1
p790
aS'utopia'
p791
aS'#656565'
p792
aF8.88595
aI0
aI01
aI00
aI00
aI00
aI00
aI00
aI00
aI00
aa(lp793
I166558
aF303.784
aF502.474
aVp1
p794
aS'utopia'
p795
aS'#656565'
p796
aF8.88595
aI0
aI01
aI00
aI00
aI00
aI00
aI00
aI00
aI00
aa(lp797
I144489
aF337.847
aF502.474
aVp1
p798
aS'utopia'
p799
aS'#656565'
p800
aF8.88595
aI0
aI00
aI00
aI00
aI00
aI00
aI00
aI00
aI00
aa(lp801
I234378
aF348.214
aF502.474
aVp1
p802
aS'utopia'
p803
aS'#656565'
p804
aF8.88595
aI0
aI00
aI00
aI00
aI00
aI00
aI00
aI00
aI00
aa(lp805
I123665
aF380.056
aF502.474
aVp1
p806
aS'utopia'
p807
aS'#656565'
p808
aF8.88595
aI0
aI00
aI00
aI00
aI00
aI00
aI00
aI00
aI00
aa(lp809
I45445
aF40.9084
aF535.69
aVp1
p810
aS'utopia'
p811
aS'#000000'
p812
aF10.3669
aI1
aI01
aI00
aI00
aI00
aI00
aI00
aI00
aI00
aa(lp813
I164802
aF74.9712
aF535.69
aVp1
p814
aS'utopia'
p815
aS'#000000'
p816
aF10.3669
aI1
aI01
aI00
aI00
aI00
aI00
aI00
aI00
aI00
aa(lp817
I83140
aF102.37
aF535.69
aVp1
p818
aS'utopia'
p819
aS'#000000'
p820
aF10.3669
aI1
aI01
aI00
aI00
aI00
aI00
aI00
aI00
aI00
aa(lp821
I40036
aF138.654
aF535.69
aVp1
p822
aS'utopia'
p823
aS'#000000'
p824
aF10.3669
aI1
aI01
aI00
aI00
aI00
aI00
aI00
aI00
aI00
aa(lp825
I55966
aF40.9084
aF552.25
aVp1
p826
aS'utopia'
p827
aS'#656565'
p828
aF10.3669
aI0
aI01
aI00
aI00
aI00
aI00
aI00
aI00
aI00
aa(lp829
I146209
aF73.4902
aF552.25
aVp1
p830
aS'utopia'
p831
aS'#656565'
p832
aF10.3669
aI0
aI01
aI00
aI00
aI00
aI00
aI00
aI00
aI00
aa(lp833
I144489
aF114.958
aF552.25
aVp1
p834
aS'utopia'
p835
aS'#656565'
p836
aF10.3669
aI0
aI00
aI00
aI00
aI00
aI00
aI00
aI00
aI00
aa(lp837
I149270
aF126.065
aF552.25
aVp1
p838
aS'utopia'
p839
aS'#656565'
p840
aF10.3669
aI0
aI01
aI00
aI00
aI00
aI00
aI00
aI00
aI00
aa(lp841
I215197
aF174.938
aF552.25
aVp1
p842
aS'utopia'
p843
aS'#656565'
p844
aF10.3669
aI0
aI01
aI00
aI00
aI00
aI00
aI00
aI00
aI00
aa(lp845
I27216
aF202.337
aF552.25
aVp1
p846
aS'utopia'
p847
aS'#656565'
p848
aF10.3669
aI0
aI01
aI00
aI00
aI00
aI00
aI00
aI00
aI01
aa(lp849
I234378
aF220.849
aF552.25
aVp1
p850
aS'utopia'
p851
aS'#656565'
p852
aF10.3669
aI0
aI00
aI00
aI01
aI01
aI01
aI00
aI00
aI00
aa(lp853
I89480
aF243.804
aF552.25
aVp1
p854
aS'utopia'
p855
aS'#656565'
p856
aF10.3669
aI0
aI01
aI00
aI00
aI00
aI00
aI00
aI00
aI00
aa(lp857
I234378
aF258.614
aF552.25
aVp1
p858
aS'utopia'
p859
aS'#656565'
p860
aF10.3669
aI0
aI01
aI00
aI00
aI00
aI00
aI00
aI00
aI01
aa(lp861
I234378
aF279.348
aF552.25
aVp1
p862
aS'utopia'
p863
aS'#656565'
p864
aF10.3669
aI0
aI00
aI00
aI01
aI01
aI01
aI00
aI00
aI00
aa(lp865
I234378
aF40.9084
aF572.081
aVp1
p866
aS'utopia'
p867
aS'#656565'
p868
aF8.88595
aI0
aI01
aI00
aI00
aI00
aI00
aI00
aI00
aI00
aa(lp869
I100815
aF77.9332
aF572.081
aVp1
p870
aS'utopia'
p871
aS'#656565'
p872
aF8.88595
aI0
aI01
aI00
aI00
aI00
aI00
aI00
aI00
aI00
aa(lp873
I135639
aF120.882
aF572.081
aVp1
p874
aS'utopia'
p875
aS'#656565'
p876
aF8.88595
aI0
aI00
aI00
aI00
aI00
aI00
aI00
aI00
aI00
aa(lp877
I45445
aF130.508
aF572.081
aVp1
p878
aS'utopia'
p879
aS'#656565'
p880
aF8.88595
aI0
aI01
aI00
aI00
aI00
aI00
aI00
aI00
aI00
aa(lp881
I234378
aF158.647
aF572.081
aVp1
p882
aS'utopia'
p883
aS'#656565'
p884
aF8.88595
aI0
aI01
aI01
aI00
aI00
aI00
aI00
aI00
aI00
aa(lp885
I210461
aF182.343
aF572.081
aVp1
p886
aS'utopia'
p887
aS'#656565'
p888
aF8.88595
aI0
aI00
aI00
aI00
aI00
aI00
aI00
aI00
aI00
aa(lp889
I234378
aF200.20731999999998
aF572.081
ag886
aS'utopia'
p890
aS'#656565'
p891
aF8.88595
aI0
aI00
aI00
aI00
aI00
aI00
aI00
aI00
aI00
aa(lp892
I123583
aF206.779
aF572.081
aVp1
p893
aS'utopia'
p894
aS'#656565'
p895
aF8.88595
aI0
aI01
aI00
aI00
aI00
aI00
aI00
aI00
aI00
aa(lp896
I144483
aF242.323
aF572.081
aVp1
p897
aS'utopia'
p898
aS'#656565'
p899
aF8.88595
aI0
aI00
aI00
aI00
aI00
aI00
aI00
aI00
aI00
aa(lp900
I80364
aF254.912
aF572.081
aVp1
p901
aS'utopia'
p902
aS'#656565'
p903
aF8.88595
aI0
aI00
aI00
aI00
aI00
aI00
aI00
aI00
aI00
aa(lp904
I234378
aF273.424
aF572.081
aVp1
p905
aS'utopia'
p906
aS'#656565'
p907
aF8.88595
aI0
aI01
aI00
aI00
aI00
aI00
aI00
aI00
aI00
aa(lp908
I80364
aF303.044
aF572.081
aVp1
p909
aS'utopia'
p910
aS'#656565'
p911
aF8.88595
aI0
aI00
aI00
aI00
aI00
aI00
aI00
aI00
aI00
aa(lp912
I177991
aF321.556
aF572.081
aVp1
p913
aS'utopia'
p914
aS'#656565'
p915
aF8.88595
aI0
aI00
aI00
aI00
aI00
aI00
aI00
aI00
aI00
aa(lp916
I234378
aF368.208
aF572.081
aVp1
p917
aS'utopia'
p918
aS'#656565'
p919
aF8.88595
aI0
aI00
aI00
aI00
aI00
aI00
aI00
aI00
aI00
aa(lp920
I17663
aF400.049
aF572.081
aVp1
p921
aS'utopia'
p922
aS'#656565'
p923
aF8.88595
aI0
aI00
aI00
aI00
aI00
aI00
aI00
aI00
aI00
aa(lp924
I234378
aF448.181
aF572.081
aVp1
p925
aS'utopia'
p926
aS'#656565'
p927
aF8.88595
aI0
aI00
aI00
aI00
aI00
aI00
aI00
aI00
aI00
aa(lp928
I182782
aF473.358
aF572.081
aVp1
p929
aS'utopia'
p930
aS'#656565'
p931
aF8.88595
aI0
aI01
aI00
aI00
aI00
aI00
aI00
aI00
aI00
aa(lp932
I177991
aF40.9084
aF582.448
aVp1
p933
aS'utopia'
p934
aS'#656565'
p935
aF8.88595
aI0
aI01
aI00
aI00
aI00
aI00
aI00
aI00
aI00
aa(lp936
I122758
aF89.0407
aF582.448
aVp1
p937
aS'utopia'
p938
aS'#656565'
p939
aF8.88595
aI0
aI01
aI00
aI00
aI00
aI00
aI00
aI00
aI00
aa(lp940
I124531
aF40.1679
aF618.009
aVp1
p941
aS'utopia'
p942
aS'#02304b'
p943
aF11.8479
aI1
aI01
aI00
aI00
aI00
aI00
aI00
aI00
aI00
aa(lp944
I234378
aF40.9084
aF646.293
aVp1
p945
aS'utopia'
p946
aS'#656565'
p947
aF10.3669
aI0
aI01
aI00
aI00
aI00
aI00
aI00
aI00
aI00
aa(lp948
I234378
aF117.18
aF646.293
aVp1
p949
aS'utopia'
p950
aS'#656565'
p951
aF10.3669
aI0
aI00
aI00
aI00
aI00
aI00
aI00
aI00
aI00
aa(lp952
I60201
aF123.103
aF646.293
aVp1
p953
aS'utopia'
p954
aS'#656565'
p955
aF10.3669
aI0
aI01
aI00
aI00
aI00
aI00
aI00
aI00
aI00
aa(lp956
I230071
aF143.097
aF646.293
aVp1
p957
aS'utopia'
p958
aS'#656565'
p959
aF10.3669
aI0
aI01
aI00
aI00
aI00
aI00
aI00
aI00
aI00
aa(lp960
I234378
aF169.755
aF646.293
aVp1
p961
aS'utopia'
p962
aS'#656565'
p963
aF10.3669
aI0
aI00
aI00
aI00
aI00
aI00
aI00
aI00
aI00
aa(lp964
I27780
aF40.9084
aF662.315
aVp1
p965
aS'utopia'
p966
aS'#000000'
p967
aF10.3669
aI1
aI01
aI01
aI00
aI00
aI00
aI00
aI00
aI00
aa(lp968
I234378
aF46.15191818181818
aF662.315
ag965
aS'utopia'
p969
aS'#000000'
p970
aF10.3669
aI1
aI00
aI00
aI00
aI00
aI00
aI00
aI00
aI00
aa(lp971
I2737
aF51.395436363636364
aF662.315
ag965
aS'utopia'
p972
aS'#000000'
p973
aF10.3669
aI1
aI01
aI00
aI00
aI00
aI00
aI00
aI00
aI00
aa(lp974
I234378
aF72.36950909090909
aF662.315
ag965
aS'utopia'
p975
aS'#000000'
p976
aF10.3669
aI1
aI00
aI00
aI00
aI00
aI00
aI00
aI00
aI00
aa(lp977
I27780
aF70.61302727272727
aF662.315
ag965
aS'utopia'
p978
aS'#000000'
p979
aF10.3669
aI1
aI01
aI01
aI00
aI00
aI00
aI00
aI00
aI00
aa(lp980
I234378
aF75.85654545454545
aF662.315
ag965
aS'utopia'
p981
aS'#000000'
p982
aF10.3669
aI1
aI00
aI00
aI00
aI00
aI00
aI00
aI00
aI00
aa(lp983
I64620
aF88.10006363636364
aF662.315
ag965
aS'utopia'
p984
aS'#000000'
p985
aF10.3669
aI1
aI01
aI01
aI00
aI00
aI00
aI00
aI00
aI00
aa(lp986
I234378
aF84.34358181818183
aF662.315
ag965
aS'utopia'
p987
aS'#000000'
p988
aF10.3669
aI1
aI00
aI00
aI00
aI00
aI00
aI00
aI00
aI00
aa(lp989
I234378
aF100.889
aF662.315
aVp1
p990
aS'utopia'
p991
aS'#000000'
p992
aF10.3669
aI1
aI00
aI00
aI00
aI00
aI00
aI00
aI00
aI00
aa(lp993
I24862
aF106.09796774193548
aF662.315
ag990
aS'utopia'
p994
aS'#000000'
p995
aF10.3669
aI1
aI01
aI00
aI00
aI00
aI00
aI00
aI00
aI00
aa(lp996
I234378
aF163.3966129032258
aF662.315
ag990
aS'utopia'
p997
aS'#000000'
p998
aF10.3669
aI1
aI00
aI00
aI00
aI00
aI00
aI00
aI00
aI00
aa(lp999
I183170
aF168.60558064516127
aF662.315
ag990
aS'utopia'
p1000
aS'#000000'
p1001
aF10.3669
aI1
aI01
aI00
aI00
aI00
aI00
aI00
aI00
aI00
aa(lp1002
I234378
aF257.1580322580645
aF662.315
ag990
aS'utopia'
p1003
aS'#000000'
p1004
aF10.3669
aI1
aI00
aI00
aI00
aI00
aI00
aI00
aI00
aI00
aa(lp1005
I118838
aF40.9084
aF682.578
aVp1
p1006
aS'utopia'
p1007
aS'#656565'
p1008
aF10.3669
aI0
aI01
aI00
aI00
aI00
aI00
aI00
aI00
aI00
aa(lp1009
I163492
aF66.0853
aF682.578
aVp1
p1010
aS'utopia'
p1011
aS'#656565'
p1012
aF10.3669
aI0
aI01
aI00
aI00
aI00
aI00
aI00
aI00
aI00
aa(lp1013
I153079
aF100.148
aF682.578
aVp1
p1014
aS'utopia'
p1015
aS'#656565'
p1016
aF10.3669
aI0
aI01
aI00
aI00
aI00
aI00
aI00
aI00
aI00
aa(lp1017
I144489
aF150.502
aF682.578
aVp1
p1018
aS'utopia'
p1019
aS'#656565'
p1020
aF10.3669
aI0
aI00
aI00
aI00
aI00
aI00
aI00
aI00
aI00
aa(lp1021
I43052
aF161.609
aF682.578
aVp1
p1022
aS'utopia'
p1023
aS'#656565'
p1024
aF10.3669
aI0
aI01
aI00
aI00
aI00
aI00
aI00
aI00
aI00
aa(lp1025
I234378
aF219.368
aF682.578
aVp1
p1026
aS'utopia'
p1027
aS'#656565'
p1028
aF10.3669
aI0
aI00
aI00
aI00
aI00
aI00
aI00
aI00
aI00
aa(lp1029
I234378
aF225.7681
aF682.578
ag1026
aS'utopia'
p1030
aS'#656565'
p1031
aF10.3669
aI0
aI01
aI01
aI00
aI00
aI00
aI00
aI00
aI00
aa(lp1032
I234378
aF251.3685
aF682.578
ag1026
aS'utopia'
p1033
aS'#656565'
p1034
aF10.3669
aI0
aI00
aI00
aI00
aI00
aI00
aI00
aI00
aI00
aa(lp1035
I135639
aF264.538
aF682.578
aVp1
p1036
aS'utopia'
p1037
aS'#656565'
p1038
aF10.3669
aI0
aI00
aI00
aI00
aI00
aI00
aI00
aI00
aI00
aa(lp1039
I234378
aF276.386
aF682.578
aVp1
p1040
aS'utopia'
p1041
aS'#656565'
p1042
aF10.3669
aI0
aI00
aI00
aI01
aI01
aI01
aI00
aI00
aI00
aa(lp1043
I22476
aF40.1679
aF716.495
aVp1
p1044
aS'utopia'
p1045
aS'#02304b'
p1046
aF11.8479
aI1
aI01
aI01
aI00
aI00
aI00
aI00
aI00
aI00
aa(lp1047
I234378
aF54.2374
aF716.495
aVp1
p1048
aS'utopia'
p1049
aS'#02304b'
p1050
aF11.8479
aI1
aI01
aI00
aI00
aI00
aI00
aI00
aI00
aI00
aa(lp1051
I109610
aF48.3134
aF744.385
aVp1
p1052
aS'utopia'
p1053
aS'#000000'
p1054
aF8.88595
aI1
aI01
aI00
aI00
aI00
aI00
aI00
aI00
aI00
aa(lp1055
I158577
aF69.7878
aF744.385
aVp1
p1056
aS'utopia'
p1057
aS'#000000'
p1058
aF8.88595
aI1
aI01
aI00
aI00
aI00
aI00
aI00
aI00
aI00
aa(lp1059
I194179
aF188.267
aF744.385
aVp1
p1060
aS'utopia'
p1061
aS'#000000'
p1062
aF8.88595
aI1
aI01
aI00
aI00
aI00
aI00
aI00
aI00
aI00
aa(lp1063
I177981
aF305.265
aF744.385
aVp1
p1064
aS'utopia'
p1065
aS'#000000'
p1066
aF8.88595
aI1
aI01
aI00
aI00
aI00
aI00
aI00
aI00
aI00
aa(lp1067
I25729
aF324.518
aF744.385
aVp1
p1068
aS'utopia'
p1069
aS'#000000'
p1070
aF8.88595
aI1
aI01
aI00
aI00
aI00
aI00
aI00
aI00
aI00
aa(lp1071
I60220
aF412.637
aF744.385
aVp1
p1072
aS'utopia'
p1073
aS'#000000'
p1074
aF8.88595
aI1
aI01
aI00
aI00
aI00
aI00
aI00
aI00
aI00
aa(lp1075
I234378
aF48.3134
aF763.129
aVp1
p1076
aS'utopia'
p1077
aS'#656565'
p1078
aF8.88595
aI0
aI01
aI00
aI00
aI00
aI00
aI00
aI00
aI00
aa(lp1079
I234378
aF188.267
aF763.129
aVp1
p1080
aS'utopia'
p1081
aS'#656565'
p1082
aF8.88595
aI0
aI00
aI00
aI01
aI01
aI00
aI00
aI00
aI00
aa(lp1083
I234378
aF192.0465
aF763.129
ag1080
aS'utopia'
p1084
aS'#656565'
p1085
aF8.88595
aI0
aI00
aI00
aI00
aI00
aI00
aI00
aI00
aI00
aa(lp1086
I234378
aF195.82600000000002
aF763.129
ag1080
aS'utopia'
p1087
aS'#656565'
p1088
aF8.88595
aI0
aI00
aI00
aI01
aI01
aI00
aI00
aI00
aI00
aa(lp1089
I234378
aF317.113
aF763.129
aVp1
p1090
aS'utopia'
p1091
aS'#656565'
p1092
aF8.88595
aI0
aI00
aI00
aI01
aI01
aI01
aI00
aI00
aI00
aa(lp1093
I234378
aF400.789
aF763.129
aVp1
p1094
aS'utopia'
p1095
aS'#656565'
p1096
aF8.88595
aI0
aI00
aI00
aI01
aI01
aI00
aI00
aI00
aI00
aa(lp1097
I234378
aF407.454
aF763.129
aVp1
p1098
aS'utopia'
p1099
aS'#656565'
p1100
aF8.88595
aI0
aI01
aI00
aI00
aI00
aI00
aI00
aI00
aI00
aa(lp1101
I234378
aF431.15
aF763.129
aVp1
p1102
aS'utopia'
p1103
aS'#656565'
p1104
aF8.88595
aI0
aI00
aI00
aI01
aI01
aI01
aI00
aI00
aI00
aa(lp1105
I234378
aF442.257
aF763.129
aVp1
p1106
aS'utopia'
p1107
aS'#656565'
p1108
aF8.88595
aI0
aI01
aI00
aI00
aI00
aI00
aI00
aI00
aI00
aa(lp1109
I234378
aF48.3134
aF781.641
aVp1
p1110
aS'utopia'
p1111
aS'#656565'
p1112
aF8.88595
aI0
aI01
aI01
aI01
aI00
aI00
aI00
aI00
aI00
aa(lp1113
I234378
aF317.113
aF781.641
aVp1
p1114
aS'utopia'
p1115
aS'#656565'
p1116
aF8.88595
aI0
aI00
aI00
aI01
aI01
aI01
aI00
aI00
aI00
aa(lp1117
I234378
aF400.789
aF781.641
aVp1
p1118
aS'utopia'
p1119
aS'#656565'
p1120
aF8.88595
aI0
aI00
aI00
aI01
aI01
aI00
aI00
aI00
aI00
aa(lp1121
I234378
aF407.454
aF781.641
aVp1
p1122
aS'utopia'
p1123
aS'#656565'
p1124
aF8.88595
aI0
aI01
aI00
aI00
aI00
aI00
aI00
aI00
aI00
aa(lp1125
I234378
aF431.15
aF781.641
aVp1
p1126
aS'utopia'
p1127
aS'#656565'
p1128
aF8.88595
aI0
aI00
aI00
aI01
aI01
aI01
aI00
aI00
aI00
aa(lp1129
I234378
aF442.257
aF781.641
aVp1
p1130
aS'utopia'
p1131
aS'#656565'
p1132
aF8.88595
aI0
aI01
aI00
aI00
aI00
aI00
aI00
aI00
aI00
aa(lp1133
I45445
aF48.3134
aF800.154
aVp1
p1134
aS'utopia'
p1135
aS'#656565'
p1136
aF8.88595
aI0
aI01
aI00
aI00
aI00
aI00
aI00
aI00
aI00
aa(lp1137
I234378
aF188.267
aF800.154
aVp1
p1138
aS'utopia'
p1139
aS'#656565'
p1140
aF8.88595
aI0
aI00
aI00
aI01
aI00
aI00
aI00
aI00
aI00
aa(lp1141
I234378
aF317.113
aF800.154
aVp1
p1142
aS'utopia'
p1143
aS'#656565'
p1144
aF8.88595
aI0
aI00
aI00
aI01
aI01
aI01
aI00
aI00
aI00
aa(lp1145
I234378
aF400.789
aF800.154
aVp1
p1146
aS'utopia'
p1147
aS'#656565'
p1148
aF8.88595
aI0
aI00
aI00
aI01
aI01
aI00
aI00
aI00
aI00
aa(lp1149
I234378
aF407.454
aF800.154
aVp1
p1150
aS'utopia'
p1151
aS'#656565'
p1152
aF8.88595
aI0
aI01
aI00
aI00
aI00
aI00
aI00
aI00
aI00
aa(lp1153
I234378
aF431.15
aF800.154
aVp1
p1154
aS'utopia'
p1155
aS'#656565'
p1156
aF8.88595
aI0
aI00
aI00
aI01
aI01
aI01
aI00
aI00
aI00
aa(lp1157
I234378
aF442.257
aF800.154
aVp1
p1158
aS'utopia'
p1159
aS'#656565'
p1160
aF8.88595
aI0
aI01
aI00
aI00
aI00
aI00
aI00
aI00
aI00
aa(lp1161
I234378
aF48.3134
aF33.7404
aVp2
p1162
aS'utopia'
p1163
aS'#656565'
p1164
aF8.88595
aI0
aI01
aI00
aI00
aI00
aI00
aI00
aI00
aI00
aa(lp1165
I234378
aF317.113
aF33.7404
aVp2
p1166
aS'utopia'
p1167
aS'#656565'
p1168
aF8.88595
aI0
aI00
aI00
aI01
aI01
aI01
aI00
aI00
aI00
aa(lp1169
I234378
aF400.789
aF33.7404
aVp2
p1170
aS'utopia'
p1171
aS'#656565'
p1172
aF8.88595
aI0
aI00
aI00
aI01
aI01
aI00
aI00
aI00
aI00
aa(lp1173
I234378
aF407.454
aF33.7404
aVp2
p1174
aS'utopia'
p1175
aS'#656565'
p1176
aF8.88595
aI0
aI01
aI00
aI00
aI00
aI00
aI00
aI00
aI00
aa(lp1177
I234378
aF431.15
aF33.7404
aVp2
p1178
aS'utopia'
p1179
aS'#656565'
p1180
aF8.88595
aI0
aI00
aI00
aI01
aI01
aI01
aI00
aI00
aI00
aa(lp1181
I234378
aF442.257
aF33.7404
aVp2
p1182
aS'utopia'
p1183
aS'#656565'
p1184
aF8.88595
aI0
aI01
aI00
aI00
aI00
aI00
aI00
aI00
aI00
aa(lp1185
I144690
aF48.3134
aF52.2528
aVp2
p1186
aS'utopia'
p1187
aS'#656565'
p1188
aF8.88595
aI0
aI01
aI00
aI00
aI00
aI00
aI00
aI00
aI00
aa(lp1189
I234378
aF77.1927
aF52.2528
aVp2
p1190
aS'utopia'
p1191
aS'#656565'
p1192
aF8.88595
aI0
aI01
aI00
aI00
aI00
aI00
aI00
aI00
aI00
aa(lp1193
I234378
aF317.113
aF52.2528
aVp2
p1194
aS'utopia'
p1195
aS'#656565'
p1196
aF8.88595
aI0
aI00
aI00
aI01
aI01
aI01
aI00
aI00
aI00
aa(lp1197
I234378
aF400.789
aF52.2528
aVp2
p1198
aS'utopia'
p1199
aS'#656565'
p1200
aF8.88595
aI0
aI00
aI00
aI01
aI01
aI00
aI00
aI00
aI00
aa(lp1201
I234378
aF407.454
aF52.2528
aVp2
p1202
aS'utopia'
p1203
aS'#656565'
p1204
aF8.88595
aI0
aI01
aI00
aI00
aI00
aI00
aI00
aI00
aI00
aa(lp1205
I234378
aF431.15
aF52.2528
aVp2
p1206
aS'utopia'
p1207
aS'#656565'
p1208
aF8.88595
aI0
aI00
aI00
aI01
aI01
aI01
aI00
aI00
aI00
aa(lp1209
I234378
aF442.257
aF52.2528
aVp2
p1210
aS'utopia'
p1211
aS'#656565'
p1212
aF8.88595
aI0
aI01
aI00
aI00
aI00
aI00
aI00
aI00
aI00
aa(lp1213
I234378
aF48.3134
aF70.7652
aVp2
p1214
aS'utopia'
p1215
aS'#656565'
p1216
aF8.88595
aI0
aI01
aI01
aI00
aI00
aI00
aI00
aI00
aI00
aa(lp1217
I234378
aF317.113
aF70.7652
aVp2
p1218
aS'utopia'
p1219
aS'#656565'
p1220
aF8.88595
aI0
aI00
aI00
aI01
aI01
aI01
aI00
aI00
aI00
aa(lp1221
I234378
aF422.264
aF70.7652
aVp2
p1222
aS'utopia'
p1223
aS'#656565'
p1224
aF8.88595
aI0
aI00
aI00
aI01
aI01
aI00
aI00
aI00
aI00
aa(lp1225
I234378
aF428.928
aF70.7652
aVp2
p1226
aS'utopia'
p1227
aS'#656565'
p1228
aF8.88595
aI0
aI01
aI00
aI00
aI00
aI00
aI00
aI00
aI00
aa(lp1229
I234378
aF48.3134
aF89.2776
aVp2
p1230
aS'utopia'
p1231
aS'#656565'
p1232
aF8.88595
aI0
aI01
aI01
aI00
aI00
aI00
aI00
aI00
aI00
aa(lp1233
I234378
aF317.113
aF89.2776
aVp2
p1234
aS'utopia'
p1235
aS'#656565'
p1236
aF8.88595
aI0
aI00
aI00
aI01
aI01
aI01
aI00
aI00
aI00
aa(lp1237
I234378
aF403.011
aF89.2776
aVp2
p1238
aS'utopia'
p1239
aS'#656565'
p1240
aF8.88595
aI0
aI00
aI00
aI01
aI01
aI00
aI00
aI00
aI00
aa(lp1241
I234378
aF409.675
aF89.2776
aVp2
p1242
aS'utopia'
p1243
aS'#656565'
p1244
aF8.88595
aI0
aI01
aI00
aI00
aI00
aI00
aI00
aI00
aI00
aa(lp1245
I234378
aF433.371
aF89.2776
aVp2
p1246
aS'utopia'
p1247
aS'#656565'
p1248
aF8.88595
aI0
aI00
aI00
aI01
aI01
aI00
aI00
aI00
aI00
aa(lp1249
I234378
aF440.036
aF89.2776
aVp2
p1250
aS'utopia'
p1251
aS'#656565'
p1252
aF8.88595
aI0
aI01
aI00
aI00
aI00
aI00
aI00
aI00
aI00
aa(lp1253
I195166
aF40.1679
aF139.649
aVp2
p1254
aS'utopia'
p1255
aS'#02304b'
p1256
aF11.8479
aI1
aI01
aI00
aI00
aI00
aI00
aI00
aI00
aI00
aa(lp1257
I136346
aF96.4456
aF139.649
aVp2
p1258
aS'utopia'
p1259
aS'#02304b'
p1260
aF11.8479
aI1
aI01
aI00
aI00
aI00
aI00
aI00
aI00
aI00
aa(lp1261
I195166
aF48.3134
aF167.539
aVp2
p1262
aS'utopia'
p1263
aS'#000000'
p1264
aF8.88595
aI1
aI01
aI00
aI00
aI00
aI00
aI00
aI00
aI00
aa(lp1265
I164378
aF177.16
aF167.539
aVp2
p1266
aS'utopia'
p1267
aS'#000000'
p1268
aF8.88595
aI1
aI01
aI00
aI00
aI00
aI00
aI00
aI00
aI00
aa(lp1269
I175077
aF296.379
aF167.539
aVp2
p1270
aS'utopia'
p1271
aS'#000000'
p1272
aF8.88595
aI1
aI01
aI00
aI00
aI00
aI00
aI00
aI00
aI00
aa(lp1273
I224291
aF397.087
aF167.539
aVp2
p1274
aS'utopia'
p1275
aS'#000000'
p1276
aF8.88595
aI1
aI01
aI00
aI00
aI00
aI00
aI00
aI00
aI00
aa(lp1277
I165206
aF497.054
aF167.539
aVp2
p1278
aS'utopia'
p1279
aS'#000000'
p1280
aF8.88595
aI1
aI01
aI00
aI00
aI00
aI00
aI00
aI00
aI00
aa(lp1281
I58002
aF48.3134
aF186.283
aVp2
p1282
aS'utopia'
p1283
aS'#656565'
p1284
aF8.88595
aI0
aI01
aI00
aI00
aI00
aI00
aI00
aI00
aI00
aa(lp1285
I185159
aF177.16
aF186.283
aVp2
p1286
aS'utopia'
p1287
aS'#656565'
p1288
aF8.88595
aI0
aI01
aI00
aI00
aI00
aI00
aI00
aI00
aI00
aa(lp1289
I144532
aF48.3134
aF204.795
aVp2
p1290
aS'utopia'
p1291
aS'#656565'
p1292
aF8.88595
aI0
aI01
aI00
aI00
aI00
aI00
aI00
aI00
aI00
aa(lp1293
I61354
aF177.16
aF204.795
aVp2
p1294
aS'utopia'
p1295
aS'#656565'
p1296
aF8.88595
aI0
aI01
aI00
aI00
aI00
aI00
aI00
aI00
aI00
aa(lp1297
I125387
aF48.3134
aF223.307
aVp2
p1298
aS'utopia'
p1299
aS'#656565'
p1300
aF8.88595
aI0
aI01
aI00
aI00
aI00
aI00
aI00
aI00
aI00
aa(lp1301
I17534
aF177.16
aF223.307
aVp2
p1302
aS'utopia'
p1303
aS'#656565'
p1304
aF8.88595
aI0
aI01
aI00
aI00
aI00
aI00
aI00
aI00
aI00
aa(lp1305
I234378
aF40.1679
aF255.166
aVp2
p1306
aS'utopia'
p1307
aS'#02304b'
p1308
aF11.8479
aI1
aI01
aI00
aI00
aI00
aI00
aI00
aI00
aI00
aa(lp1309
I201816
aF40.9084
aF286.99
aVp2
p1310
aS'utopia'
p1311
aS'#000000'
p1312
aF8.88595
aI0
aI01
aI00
aI00
aI00
aI00
aI00
aI00
aI00
aa(lp1313
I234378
aF54.9779
aF286.99
aVp2
p1314
aS'utopia'
p1315
aS'#000000'
p1316
aF8.88595
aI0
aI01
aI00
aI00
aI00
aI00
aI00
aI00
aI00
aa(lp1317
I86196
aF89.0407
aF286.99
aVp2
p1318
aS'utopia'
p1319
aS'#000000'
p1320
aF8.88595
aI0
aI01
aI00
aI00
aI00
aI00
aI00
aI00
aI00
aa(lp1321
I177271
aF40.1679
aF326.254
aVp2
p1322
aS'utopia'
p1323
aS'#02304b'
p1324
aF11.8479
aI1
aI01
aI00
aI00
aI00
aI00
aI00
aI00
aI00
aa(lp1325
I234378
aF74.2307
aF326.254
aVp2
p1326
aS'utopia'
p1327
aS'#02304b'
p1328
aF11.8479
aI1
aI01
aI00
aI00
aI00
aI00
aI00
aI00
aI00
aa(lp1329
I7520
aF49.0539
aF350.566
aVp2
p1330
aS'utopia'
p1331
aS'#656565'
p1332
aF10.3669
aI1
aI01
aI00
aI00
aI00
aI00
aI00
aI00
aI00
aa(lp1333
I10865
aF93.4836
aF350.566
aVp2
p1334
aS'utopia'
p1335
aS'#656565'
p1336
aF10.3669
aI1
aI01
aI00
aI00
aI00
aI00
aI00
aI00
aI00
aa(lp1337
I132955
aF49.0539
aF366.223
aVp2
p1338
aS'utopia'
p1339
aS'#656565'
p1340
aF8.88595
aI0
aI01
aI00
aI00
aI00
aI00
aI00
aI00
aI00
aa(lp1341
I144489
aF69.7878
aF366.223
aVp2
p1342
aS'utopia'
p1343
aS'#656565'
p1344
aF8.88595
aI0
aI00
aI00
aI00
aI00
aI00
aI00
aI00
aI00
aa(lp1345
I132529
aF80.1547
aF366.223
aVp2
p1346
aS'utopia'
p1347
aS'#656565'
p1348
aF8.88595
aI0
aI01
aI00
aI00
aI00
aI00
aI00
aI00
aI00
aa(lp1349
I234378
aF98.76336666666667
aF366.223
ag1346
aS'utopia'
p1350
aS'#656565'
p1351
aF8.88595
aI0
aI00
aI00
aI00
aI00
aI00
aI00
aI00
aI00
aa(lp1352
I234378
aF104.591
aF366.223
aVp2
p1353
aS'utopia'
p1354
aS'#434343'
p1355
aF8.88595
aI0
aI00
aI00
aI01
aI01
aI01
aI00
aI00
aI00
aa(lp1356
I234378
aF115.699
aF366.223
aVp2
p1357
aS'utopia'
p1358
aS'#434343'
p1359
aF8.88595
aI0
aI01
aI00
aI00
aI00
aI00
aI00
aI00
aI01
aa(lp1360
I234378
aF131.989
aF366.223
aVp2
p1361
aS'utopia'
p1362
aS'#434343'
p1363
aF8.88595
aI0
aI00
aI00
aI01
aI01
aI01
aI00
aI00
aI00
aa(lp1364
I86794
aF293.418
aF354.268
aVp2
p1365
aS'utopia'
p1366
aS'#656565'
p1367
aF10.3669
aI1
aI01
aI00
aI00
aI00
aI00
aI00
aI00
aI00
aa(lp1368
I131455
aF331.923
aF354.268
aVp2
p1369
aS'utopia'
p1370
aS'#656565'
p1371
aF10.3669
aI1
aI01
aI00
aI00
aI00
aI00
aI00
aI00
aI00
aa(lp1372
I234378
aF349.695
aF354.268
aVp2
p1373
aS'utopia'
p1374
aS'#656565'
p1375
aF10.3669
aI1
aI01
aI00
aI00
aI00
aI00
aI00
aI00
aI00
aa(lp1376
I131455
aF293.418
aF369.926
aVp2
p1377
aS'utopia'
p1378
aS'#656565'
p1379
aF8.88595
aI0
aI01
aI00
aI00
aI00
aI00
aI00
aI00
aI00
aa(lp1380
I197416
aF308.968
aF369.926
aVp2
p1381
aS'utopia'
p1382
aS'#656565'
p1383
aF8.88595
aI0
aI01
aI00
aI00
aI00
aI00
aI00
aI00
aI00
aa(lp1384
I234378
aF326.23992000000004
aF369.926
ag1381
aS'utopia'
p1385
aS'#656565'
p1386
aF8.88595
aI0
aI00
aI00
aI00
aI00
aI00
aI00
aI00
aI00
aa(lp1387
I28425
aF332.664
aF369.926
aVp2
p1388
aS'utopia'
p1389
aS'#434343'
p1390
aF8.88595
aI0
aI01
aI00
aI00
aI00
aI00
aI00
aI00
aI00
aa(lp1391
I108944
aF49.0539
aF381.773
aVp2
p1392
aS'utopia'
p1393
aS'#656565'
p1394
aF8.88595
aI0
aI01
aI00
aI00
aI00
aI00
aI00
aI00
aI00
aa(lp1395
I234378
aF76.44544285714287
aF381.773
ag1392
aS'utopia'
p1396
aS'#656565'
p1397
aF8.88595
aI0
aI00
aI00
aI00
aI00
aI00
aI00
aI00
aI00
aa(lp1398
I104428
aF83.1167
aF381.773
aVp2
p1399
aS'utopia'
p1400
aS'#434343'
p1401
aF8.88595
aI0
aI01
aI00
aI00
aI00
aI00
aI00
aI00
aI00
aa(lp1402
I72722
aF293.418
aF385.476
aVp2
p1403
aS'utopia'
p1404
aS'#656565'
p1405
aF8.88595
aI0
aI01
aI00
aI00
aI00
aI00
aI00
aI00
aI00
aa(lp1406
I12510
aF346.733
aF385.476
aVp2
p1407
aS'utopia'
p1408
aS'#656565'
p1409
aF8.88595
aI0
aI01
aI00
aI00
aI00
aI00
aI00
aI00
aI00
aa(lp1410
I234378
aF369.0469142857143
aF385.476
ag1407
aS'utopia'
p1411
aS'#656565'
p1412
aF8.88595
aI0
aI00
aI00
aI00
aI00
aI00
aI00
aI00
aI00
aa(lp1413
I60201
aF374.872
aF385.476
aVp2
p1414
aS'utopia'
p1415
aS'#434343'
p1416
aF8.88595
aI0
aI01
aI00
aI00
aI00
aI00
aI00
aI00
aI00
aa(lp1417
I230071
aF391.903
aF385.476
aVp2
p1418
aS'utopia'
p1419
aS'#434343'
p1420
aF8.88595
aI0
aI01
aI00
aI00
aI00
aI00
aI00
aI00
aI00
aa(lp1421
I212271
aF49.0539
aF397.324
aVp2
p1422
aS'utopia'
p1423
aS'#656565'
p1424
aF8.88595
aI0
aI01
aI00
aI00
aI00
aI00
aI00
aI00
aI00
aa(lp1425
I12510
aF79.4142
aF397.324
aVp2
p1426
aS'utopia'
p1427
aS'#656565'
p1428
aF8.88595
aI0
aI01
aI00
aI00
aI00
aI00
aI00
aI00
aI00
aa(lp1429
I234378
aF101.72811428571428
aF397.324
ag1426
aS'utopia'
p1430
aS'#656565'
p1431
aF8.88595
aI0
aI00
aI00
aI00
aI00
aI00
aI00
aI00
aI00
aa(lp1432
I97834
aF107.553
aF397.324
aVp2
p1433
aS'utopia'
p1434
aS'#434343'
p1435
aF8.88595
aI0
aI01
aI00
aI00
aI00
aI00
aI00
aI00
aI00
aa(lp1436
I118366
aF49.0539
aF417.211
aVp2
p1437
aS'utopia'
p1438
aS'#656565'
p1439
aF10.3669
aI1
aI01
aI00
aI00
aI00
aI00
aI00
aI00
aI00
aa(lp1440
I234378
aF83.97235
aF417.211
ag1437
aS'utopia'
p1441
aS'#656565'
p1442
aF10.3669
aI1
aI00
aI00
aI00
aI00
aI00
aI00
aI00
aI00
aa(lp1443
I51933
aF293.418
aF405.363
aVp2
p1444
aS'utopia'
p1445
aS'#656565'
p1446
aF10.3669
aI1
aI01
aI00
aI00
aI00
aI00
aI00
aI00
aI00
aa(lp1447
I62768
aF321.556
aF405.363
aVp2
p1448
aS'utopia'
p1449
aS'#656565'
p1450
aF10.3669
aI1
aI01
aI00
aI00
aI00
aI00
aI00
aI00
aI00
aa(lp1451
I234378
aF49.0539
aF429.906
aVp2
p1452
aS'utopia'
p1453
aS'#000000'
p1454
aF8.88595
aI0
aI01
aI01
aI00
aI00
aI00
aI00
aI00
aI00
aa(lp1455
I226126
aF70.5283
aF429.906
aVp2
p1456
aS'utopia'
p1457
aS'#000000'
p1458
aF8.88595
aI0
aI00
aI00
aI00
aI00
aI00
aI00
aI00
aI00
aa(lp1459
I234378
aF92.02697647058824
aF429.906
ag1456
aS'utopia'
p1460
aS'#000000'
p1461
aF8.88595
aI0
aI00
aI00
aI01
aI01
aI00
aI00
aI00
aI00
aa(lp1462
I234378
aF96.12671176470589
aF429.906
ag1456
aS'utopia'
p1463
aS'#000000'
p1464
aF8.88595
aI0
aI00
aI00
aI00
aI00
aI00
aI00
aI00
aI00
aa(lp1465
I234378
aF100.22644705882354
aF429.906
ag1456
aS'utopia'
p1466
aS'#000000'
p1467
aF8.88595
aI0
aI00
aI00
aI00
aI00
aI00
aI00
aI00
aI00
aa(lp1468
I234378
aF49.0539
aF440.273
aVp2
p1469
aS'utopia'
p1470
aS'#000000'
p1471
aF8.88595
aI0
aI00
aI00
aI01
aI01
aI01
aI00
aI00
aI00
aa(lp1472
I31679
aF293.418
aF421.02
aVp2
p1473
aS'utopia'
p1474
aS'#656565'
p1475
aF8.88595
aI0
aI01
aI01
aI00
aI00
aI00
aI00
aI00
aI00
aa(lp1476
I51933
aF306.746
aF421.02
aVp2
p1477
aS'utopia'
p1478
aS'#656565'
p1479
aF8.88595
aI0
aI01
aI00
aI00
aI00
aI00
aI00
aI00
aI00
aa(lp1480
I12510
aF330.442
aF421.02
aVp2
p1481
aS'utopia'
p1482
aS'#656565'
p1483
aF8.88595
aI0
aI01
aI00
aI00
aI00
aI00
aI00
aI00
aI00
aa(lp1484
I234378
aF352.7559142857143
aF421.02
ag1481
aS'utopia'
p1485
aS'#656565'
p1486
aF8.88595
aI0
aI00
aI00
aI00
aI00
aI00
aI00
aI00
aI00
aa(lp1487
I109318
aF358.581
aF421.02
aVp2
p1488
aS'utopia'
p1489
aS'#434343'
p1490
aF8.88595
aI0
aI01
aI00
aI00
aI00
aI00
aI00
aI00
aI00
aa(lp1491
I234378
aF381.537
aF421.02
aVp2
p1492
aS'utopia'
p1493
aS'#434343'
p1494
aF8.88595
aI0
aI01
aI01
aI01
aI00
aI00
aI00
aI00
aI00
aa(lp1495
I222659
aF395.606
aF421.02
aVp2
p1496
aS'utopia'
p1497
aS'#434343'
p1498
aF8.88595
aI0
aI01
aI00
aI00
aI00
aI00
aI00
aI00
aI00
aa(lp1499
I234378
aF293.418
aF436.57
aVp2
p1500
aS'utopia'
p1501
aS'#656565'
p1502
aF8.88595
aI0
aI01
aI00
aI00
aI00
aI00
aI00
aI00
aI00
aa(lp1503
I234378
aF330.17652
aF436.57
ag1500
aS'utopia'
p1504
aS'#656565'
p1505
aF8.88595
aI0
aI00
aI00
aI00
aI00
aI00
aI00
aI00
aI00
aa(lp1506
I164802
aF336.366
aF436.57
aVp2
p1507
aS'utopia'
p1508
aS'#434343'
p1509
aF8.88595
aI0
aI01
aI00
aI00
aI00
aI00
aI00
aI00
aI00
aa(lp1510
I182663
aF49.0539
aF453.602
aVp2
p1511
aS'utopia'
p1512
aS'#656565'
p1513
aF8.88595
aI0
aI01
aI00
aI00
aI00
aI00
aI00
aI00
aI00
aa(lp1514
I82279
aF76.4522
aF453.602
aVp2
p1515
aS'utopia'
p1516
aS'#656565'
p1517
aF8.88595
aI0
aI01
aI00
aI00
aI00
aI00
aI00
aI00
aI00
aa(lp1518
I234378
aF96.09372
aF453.602
ag1515
aS'utopia'
p1519
aS'#656565'
p1520
aF8.88595
aI0
aI00
aI00
aI00
aI00
aI00
aI00
aI00
aI00
aa(lp1521
I234378
aF103.11
aF453.602
aVp2
p1522
aS'utopia'
p1523
aS'#000000'
p1524
aF8.88595
aI0
aI01
aI00
aI00
aI00
aI00
aI00
aI00
aI00
aa(lp1525
I166771
aF293.418
aF456.457
aVp2
p1526
aS'utopia'
p1527
aS'#656565'
p1528
aF10.3669
aI1
aI01
aI00
aI00
aI00
aI00
aI00
aI00
aI00
aa(lp1529
I74833
aF349.695
aF456.457
aVp2
p1530
aS'utopia'
p1531
aS'#656565'
p1532
aF10.3669
aI1
aI01
aI00
aI00
aI00
aI00
aI00
aI00
aI00
aa(lp1533
I233758
aF293.418
aF472.114
aVp2
p1534
aS'utopia'
p1535
aS'#656565'
p1536
aF8.88595
aI0
aI01
aI00
aI00
aI00
aI00
aI00
aI00
aI00
aa(lp1537
I234378
aF327.0898222222222
aF472.114
ag1534
aS'utopia'
p1538
aS'#656565'
p1539
aF8.88595
aI0
aI00
aI00
aI00
aI00
aI00
aI00
aI00
aI00
aa(lp1540
I230332
aF333.404
aF472.114
aVp2
p1541
aS'utopia'
p1542
aS'#434343'
p1543
aF8.88595
aI0
aI01
aI00
aI00
aI00
aI00
aI00
aI00
aI00
aa(lp1544
I151511
aF293.418
aF487.664
aVp2
p1545
aS'utopia'
p1546
aS'#656565'
p1547
aF8.88595
aI0
aI01
aI00
aI00
aI00
aI00
aI00
aI00
aI00
aa(lp1548
I234378
aF334.145
aF487.664
aVp2
p1549
aS'utopia'
p1550
aS'#656565'
p1551
aF8.88595
aI0
aI01
aI00
aI00
aI00
aI00
aI00
aI00
aI00
aa(lp1552
I234378
aF375.9870909090909
aF487.664
ag1549
aS'utopia'
p1553
aS'#656565'
p1554
aF8.88595
aI0
aI00
aI00
aI00
aI00
aI00
aI00
aI00
aI00
aa(lp1555
I201816
aF382.277
aF487.664
aVp2
p1556
aS'utopia'
p1557
aS'#434343'
p1558
aF8.88595
aI0
aI01
aI00
aI00
aI00
aI00
aI00
aI00
aI00
aa(lp1559
I1
aI1
aI1
aI0
aI0
aI0
aI0
aI0
aI0
aI0
aI0
aI0
aI0
aI0
aI0
aI0
aI0
aI0
aI0
aI0
aI0
aI0
aI0
aI0
aI0
aI0
aI0
aI0
aI0
aI0
aI0
aI0
aI0
aI0
aI0
aI0
aI0
aI0
aI0
aI0
aI0
aI0
aI0
aI0
aI0
aI0
aI0
aI0
aI0
aI0
aI0
aI0
aI0
aI0
aI0
aI0
aI0
aI0
aI0
aI0
aI0
aI0
aI0
aI0
aI0
aI0
aI0
aI0
aI0
aI0
aI0
aI0
aI0
aI0
aI0
aI0
aI0
aI0
aI0
aI0
aI0
aI0
aI0
aI0
aI0
aI0
aI0
aI0
aI0
aI0
aI0
aI0
aI0
aI0
aI0
aI0
aI0
aI0
aI0
aI0
aI0
aI0
aI0
aI0
aI0
aI0
aI0
aI0
aI0
aI0
aI0
aI0
aI0
aI0
aI0
aI0
aI0
aI0
aI0
aI0
aI0
aI0
aI0
aI0
aI0
aI0
aI0
aI0
aI0
aI0
aI0
aI0
aI0
aI0
aI0
aI0
aI0
aI0
aI0
aI0
aI0
aI0
aI0
aI0
aI0
aI0
aI0
aI0
aI0
aI0
aI0
aI0
aI0
aI0
aI0
aI0
aI0
aI0
aI0
aI0
aI0
aI0
aI0
aI0
aI0
aI0
aI0
aI0
aI0
aI0
aI0
aI0
aI0
aI0
aI0
aI1
aI1
aI0
aI0
aI0
aI0
aI0
aI0
aI0
aI0
aI0
aI0
aI0
aI0
aI0
aI0
aI0
aI0
aI0
aI0
aI0
aI0
aI0
aI0
aI0
aI0
aI0
aI0
aI0
aI0
aI0
aI0
aI0
aI0
aI0
aI0
aI0
aI0
aI0
aI0
aI0
aI0
aI0
aI0
aI0
aI0
aI0
aI0
aI0
aI0
aI0
aI0
aI0
aI0
aI0
aI0
aI0
aI0
aI0
aI0
aI0
aI0
aI0
aI0
aI0
aI0
aI0
aI0
aI0
aI0
aI0
aI0
aI0
aI0
aI0
aI0
aI0
aI0
aI1
aI0
aI0
aI0
aI0
aI0
aI0
aI0
aI0
aI0
aI0
aI0
aI0
aI0
aI0
aI0
aI0
aI0
aI0
aI0
aI0
aI0
aI0
aI0
aI0
aI0
aI0
aI0
aI0
aI1
aI1
aI0
aI0
aI0
aI0
aI0
aI0
aI0
aI0
aI0
aI0
aI0
aI0
aI0
aI0
aI0
aI0
aI0
aI0
aI0
aI0
aI0
aI0
aI0
aI0
aI0
aI0
aI0
aI0
aI0
aI0
aI0
aI0
aI0
aI0
aI0
aI0
aI0
aI0
aI0
aI0
aI0
aI0
aI0
aI0
aI0
aI0
aI0
aI0
aI0
aI0
aI0
aI1
aI1
aI0
aI0
aI0
aI0
aI0
aI0
aI0
aI0
aI0
aI0
aI0
aI1
aI0
aI0
aI0
aI1
aI1
aI0
aI0
aI0
aI0
aI0
aI0
aI0
aI0
aI0
aI0
aI0
aI0
aI0
aI0
aI0
aI0
aI0
aI0
aI0
aI0
aI0
aI0
aI0
aI0
aI0
aI0
aI0
aI0
aI0
aI0
aI0
aI0
aI0
aI0
aI0
aI0
aI0
aI0
aI0
aI0
aI0
aI0
aI0
aI0
aI0
aI0
aI0
aI0
aI0
aI0
aI0
aI0
aI0
aI0
aI0
aI0
aI0
aI0
aI0
aI0
aI0
atp1560
.