((lp0
(lp1
I234378
aF40.9084
aF53.0111
aVp1
p2
aS'utopia'
p3
aS'#02304b'
p4
aF11.8479
aI1
aI00
aI00
aI00
aI00
aI00
aI00
aI00
aI00
aa(lp5
I234378
aF103.17423333333333
aF53.0111
ag2
aS'utopia'
p6
aS'#02304b'
p7
aF11.8479
aI1
aI00
aI00
aI00
aI00
aI00
aI00
aI00
aI00
aa(lp8
I220729
aF109.40081666666667
aF53.0111
ag2
aS'utopia'
p9
aS'#02304b'
p10
aF11.8479
aI1
aI01
aI01
aI00
aI00
aI00
aI00
aI00
aI00
aa(lp11
I60201
aF46.8324
aF74.4677
aVp1
p12
aS'utopia'
p13
aS'#656565'
p14
aF8.88595
aI0
aI01
aI00
aI00
aI00
aI00
aI00
aI00
aI00
aa(lp15
I46145
aF63.8638
aF74.4677
aVp1
p16
aS'utopia'
p17
aS'#656565'
p18
aF8.88595
aI0
aI00
aI00
aI00
aI00
aI00
aI00
aI00
aI00
aa(lp19
I100815
aF86.0787
aF74.4677
aVp1
p20
aS'utopia'
p21
aS'#656565'
p22
aF8.88595
aI0
aI00
aI00
aI00
aI00
aI00
aI00
aI00
aI00
aa(lp23
I234378
aF59.4208
aF122.6
aVp1
p24
aS'utopia'
p25
aS'#0d75b4'
p26
aF8.88595
aI0
aI00
aI00
aI00
aI00
aI00
aI01
aI00
aI00
aa(lp27
I234378
aF59.4208
aF139.631
aVp1
p28
aS'utopia'
p29
aS'#0d75b4'
p30
aF8.88595
aI0
aI00
aI00
aI00
aI00
aI00
aI01
aI00
aI00
aa(lp31
I234378
aF301.563
aF130.745
aVp1
p32
aS'utopia'
p33
aS'#000000'
p34
aF8.88595
aI0
aI00
aI00
aI01
aI01
aI01
aI00
aI00
aI00
aa(lp35
I15548
aF55.7183
aF172.213
aVp1
p36
aS'utopia'
p37
aS'#878787'
p38
aF8.88595
aI0
aI01
aI00
aI00
aI00
aI00
aI00
aI00
aI00
aa(lp39
I104542
aF89.0407
aF172.213
aVp1
p40
aS'utopia'
p41
aS'#878787'
p42
aF8.88595
aI0
aI01
aI00
aI00
aI00
aI00
aI00
aI00
aI00
aa(lp43
I234378
aF133.94655
aF172.213
ag40
aS'utopia'
p44
aS'#878787'
p45
aF8.88595
aI0
aI00
aI00
aI00
aI00
aI00
aI00
aI00
aI00
aa(lp46
I210461
aF142.356
aF172.213
aVp1
p47
aS'utopia'
p48
aS'#000000'
p49
aF8.88595
aI0
aI01
aI00
aI00
aI00
aI00
aI00
aI00
aI00
aa(lp50
I234229
aF166.793
aF172.213
aVp1
p51
aS'utopia'
p52
aS'#000000'
p53
aF8.88595
aI0
aI01
aI00
aI00
aI00
aI00
aI00
aI00
aI00
aa(lp54
I15548
aF55.7183
aF189.985
aVp1
p55
aS'utopia'
p56
aS'#878787'
p57
aF8.88595
aI0
aI01
aI00
aI00
aI00
aI00
aI00
aI00
aI00
aa(lp58
I2006
aF89.0407
aF189.985
aVp1
p59
aS'utopia'
p60
aS'#878787'
p61
aF8.88595
aI0
aI01
aI00
aI00
aI00
aI00
aI00
aI00
aI00
aa(lp62
I234378
aF124.77815
aF189.985
ag59
aS'utopia'
p63
aS'#878787'
p64
aF8.88595
aI0
aI00
aI00
aI00
aI00
aI00
aI00
aI00
aI00
aa(lp65
I234378
aF134.211
aF189.985
aVp1
p66
aS'utopia'
p67
aS'#000000'
p68
aF8.88595
aI0
aI01
aI00
aI00
aI00
aI00
aI00
aI00
aI00
aa(lp69
I164802
aF177.16
aF189.985
aVp1
p70
aS'utopia'
p71
aS'#000000'
p72
aF8.88595
aI0
aI01
aI00
aI00
aI00
aI00
aI00
aI00
aI00
aa(lp73
I234378
aF199.375
aF189.985
aVp1
p74
aS'utopia'
p75
aS'#000000'
p76
aF8.88595
aI0
aI01
aI00
aI00
aI00
aI00
aI00
aI00
aI00
aa(lp77
I234378
aF214.184
aF189.985
aVp1
p78
aS'utopia'
p79
aS'#000000'
p80
aF8.88595
aI0
aI01
aI00
aI00
aI00
aI00
aI00
aI00
aI00
aa(lp81
I15548
aF55.7183
aF207.757
aVp1
p82
aS'utopia'
p83
aS'#878787'
p84
aF8.88595
aI0
aI01
aI00
aI00
aI00
aI00
aI00
aI00
aI00
aa(lp85
I17057
aF89.0407
aF207.757
aVp1
p86
aS'utopia'
p87
aS'#878787'
p88
aF8.88595
aI0
aI01
aI00
aI00
aI00
aI00
aI00
aI00
aI00
aa(lp89
I234378
aF122.05430000000001
aF207.757
ag86
aS'utopia'
p90
aS'#878787'
p91
aF8.88595
aI0
aI00
aI00
aI00
aI00
aI00
aI00
aI00
aI00
aa(lp92
I234378
aF130.508
aF207.757
aVp1
p93
aS'utopia'
p94
aS'#000000'
p95
aF8.88595
aI0
aI01
aI00
aI00
aI00
aI00
aI00
aI00
aI00
aa(lp96
I234378
aF173.457
aF207.757
aVp1
p97
aS'utopia'
p98
aS'#000000'
p99
aF8.88595
aI0
aI00
aI00
aI00
aI00
aI00
aI00
aI00
aI00
aa(lp100
I234378
aF180.122
aF207.757
aVp1
p101
aS'utopia'
p102
aS'#000000'
p103
aF8.88595
aI0
aI01
aI00
aI00
aI00
aI00
aI00
aI00
aI00
aa(lp104
I234378
aF55.7183
aF225.529
aVp1
p105
aS'utopia'
p106
aS'#878787'
p107
aF8.88595
aI0
aI01
aI00
aI00
aI00
aI00
aI00
aI00
aI00
aa(lp108
I234378
aF70.62062
aF225.529
ag105
aS'utopia'
p109
aS'#878787'
p110
aF8.88595
aI0
aI00
aI00
aI00
aI00
aI00
aI00
aI00
aI00
aa(lp111
I17057
aF76.4522
aF225.529
aVp1
p112
aS'utopia'
p113
aS'#878787'
p114
aF8.88595
aI0
aI01
aI00
aI00
aI00
aI00
aI00
aI00
aI00
aa(lp115
I234378
aF109.4658
aF225.529
ag112
aS'utopia'
p116
aS'#878787'
p117
aF8.88595
aI0
aI00
aI00
aI00
aI00
aI00
aI00
aI00
aI00
aa(lp118
I234378
aF117.92
aF225.529
aVp1
p119
aS'utopia'
p120
aS'#000000'
p121
aF8.88595
aI0
aI01
aI00
aI00
aI00
aI00
aI00
aI00
aI00
aa(lp122
I234378
aF160.869
aF225.529
aVp1
p123
aS'utopia'
p124
aS'#000000'
p125
aF8.88595
aI0
aI00
aI00
aI00
aI00
aI00
aI00
aI00
aI00
aa(lp126
I234378
aF167.533
aF225.529
aVp1
p127
aS'utopia'
p128
aS'#000000'
p129
aF8.88595
aI0
aI01
aI00
aI00
aI00
aI00
aI00
aI00
aI00
aa(lp130
I234378
aF205.62442
aF225.529
ag127
aS'utopia'
p131
aS'#000000'
p132
aF8.88595
aI0
aI00
aI00
aI00
aI00
aI00
aI00
aI00
aI00
aa(lp133
I234378
aF211.963
aF225.529
aVp1
p134
aS'utopia'
p135
aS'#000000'
p136
aF8.88595
aI0
aI01
aI00
aI00
aI00
aI00
aI00
aI00
aI00
aa(lp137
I234378
aF242.51694999999998
aF225.529
ag134
aS'utopia'
p138
aS'#000000'
p139
aF8.88595
aI0
aI00
aI00
aI00
aI00
aI00
aI00
aI00
aI00
aa(lp140
I234378
aF248.988
aF225.529
aVp1
p141
aS'utopia'
p142
aS'#000000'
p143
aF8.88595
aI0
aI01
aI00
aI00
aI00
aI00
aI00
aI00
aI00
aa(lp144
I98580
aF55.7183
aF243.301
aVp1
p145
aS'utopia'
p146
aS'#878787'
p147
aF8.88595
aI0
aI01
aI00
aI00
aI00
aI00
aI00
aI00
aI00
aa(lp148
I166289
aF100.148
aF243.301
aVp1
p149
aS'utopia'
p150
aS'#878787'
p151
aF8.88595
aI0
aI01
aI00
aI00
aI00
aI00
aI00
aI00
aI00
aa(lp152
I234378
aF116.82751999999999
aF243.301
ag149
aS'utopia'
p153
aS'#878787'
p154
aF8.88595
aI0
aI00
aI00
aI00
aI00
aI00
aI00
aI00
aI00
aa(lp155
I22476
aF125.325
aF243.301
aVp1
p156
aS'utopia'
p157
aS'#000000'
p158
aF8.88595
aI0
aI01
aI01
aI00
aI00
aI00
aI00
aI00
aI00
aa(lp159
I234378
aF135.692
aF243.301
aVp1
p160
aS'utopia'
p161
aS'#000000'
p162
aF8.88595
aI0
aI01
aI00
aI00
aI00
aI00
aI00
aI00
aI00
aa(lp163
I123665
aF178.641
aF243.301
aVp1
p164
aS'utopia'
p165
aS'#000000'
p166
aF8.88595
aI0
aI01
aI00
aI00
aI00
aI00
aI00
aI00
aI00
aa(lp167
I234378
aF226.032
aF243.301
aVp1
p168
aS'utopia'
p169
aS'#000000'
p170
aF8.88595
aI0
aI01
aI00
aI00
aI00
aI00
aI00
aI00
aI00
aa(lp171
I234378
aF283.051
aF243.301
aVp1
p172
aS'utopia'
p173
aS'#000000'
p174
aF8.88595
aI0
aI00
aI00
aI00
aI00
aI00
aI00
aI00
aI00
aa(lp175
I20593
aF55.7183
aF253.668
aVp1
p176
aS'utopia'
p177
aS'#000000'
p178
aF8.88595
aI0
aI01
aI00
aI00
aI00
aI00
aI00
aI00
aI00
aa(lp179
I176435
aF55.7183
aF271.44
aVp1
p180
aS'utopia'
p181
aS'#878787'
p182
aF8.88595
aI0
aI01
aI00
aI00
aI00
aI00
aI00
aI00
aI00
aa(lp183
I234378
aF71.80542
aF271.44
ag180
aS'utopia'
p184
aS'#878787'
p185
aF8.88595
aI0
aI00
aI00
aI00
aI00
aI00
aI00
aI00
aI00
aa(lp186
I210461
aF80.1547
aF271.44
aVp1
p187
aS'utopia'
p188
aS'#000000'
p189
aF8.88595
aI0
aI01
aI00
aI00
aI00
aI00
aI00
aI00
aI00
aa(lp190
I175409
aF104.591
aF271.44
aVp1
p191
aS'utopia'
p192
aS'#000000'
p193
aF8.88595
aI0
aI01
aI00
aI00
aI00
aI00
aI00
aI00
aI00
aa(lp194
I234378
aF123.75304444444444
aF271.44
ag191
aS'utopia'
p195
aS'#000000'
p196
aF8.88595
aI0
aI00
aI00
aI00
aI00
aI00
aI00
aI00
aI00
aa(lp197
I2737
aF128.54355555555554
aF271.44
ag191
aS'utopia'
p198
aS'#000000'
p199
aF8.88595
aI0
aI01
aI00
aI00
aI00
aI00
aI00
aI00
aI00
aa(lp200
I175409
aF149.761
aF271.44
aVp1
p201
aS'utopia'
p202
aS'#000000'
p203
aF8.88595
aI0
aI01
aI00
aI00
aI00
aI00
aI00
aI00
aI00
aa(lp204
I74589
aF55.7183
aF289.211
aVp1
p205
aS'utopia'
p206
aS'#878787'
p207
aF8.88595
aI0
aI01
aI00
aI00
aI00
aI00
aI00
aI00
aI00
aa(lp208
I234378
aF87.41545555555555
aF289.211
ag205
aS'utopia'
p209
aS'#878787'
p210
aF8.88595
aI0
aI00
aI00
aI00
aI00
aI00
aI00
aI00
aI00
aa(lp211
I22476
aF95.7051
aF289.211
aVp1
p212
aS'utopia'
p213
aS'#000000'
p214
aF8.88595
aI0
aI01
aI01
aI00
aI00
aI00
aI00
aI00
aI00
aa(lp215
I234378
aF105.30374
aF289.211
ag212
aS'utopia'
p216
aS'#000000'
p217
aF8.88595
aI0
aI01
aI00
aI00
aI00
aI00
aI00
aI00
aI00
aa(lp218
I234378
aF139.69830000000002
aF289.211
ag212
aS'utopia'
p219
aS'#000000'
p220
aF8.88595
aI0
aI00
aI00
aI00
aI00
aI00
aI00
aI00
aI00
aa(lp221
I234378
aF134.99762
aF289.211
ag212
aS'utopia'
p222
aS'#000000'
p223
aF8.88595
aI0
aI01
aI00
aI00
aI00
aI00
aI00
aI00
aI00
aa(lp224
I234378
aF183.824
aF289.211
aVp1
p225
aS'utopia'
p226
aS'#000000'
p227
aF8.88595
aI0
aI01
aI00
aI00
aI00
aI00
aI00
aI00
aI00
aa(lp228
I231013
aF55.7183
aF306.983
aVp1
p229
aS'utopia'
p230
aS'#878787'
p231
aF8.88595
aI0
aI01
aI00
aI00
aI00
aI00
aI00
aI00
aI00
aa(lp232
I234378
aF72.7498
aF306.983
aVp1
p233
aS'utopia'
p234
aS'#878787'
p235
aF8.88595
aI0
aI01
aI00
aI00
aI00
aI00
aI00
aI00
aI00
aa(lp236
I234378
aF91.25542857142857
aF306.983
ag233
aS'utopia'
p237
aS'#878787'
p238
aF8.88595
aI0
aI00
aI00
aI00
aI00
aI00
aI00
aI00
aI00
aa(lp239
I234378
aF98.6671
aF306.983
aVp1
p240
aS'utopia'
p241
aS'#000000'
p242
aF8.88595
aI0
aI01
aI01
aI00
aI00
aI00
aI00
aI00
aI00
aa(lp243
I234378
aF112.638025
aF306.983
ag240
aS'utopia'
p244
aS'#000000'
p245
aF8.88595
aI0
aI00
aI00
aI00
aI00
aI00
aI00
aI00
aI00
aa(lp246
I234378
aF119.401
aF306.983
aVp1
p247
aS'utopia'
p248
aS'#000000'
p249
aF8.88595
aI0
aI01
aI00
aI00
aI00
aI00
aI00
aI00
aI00
aa(lp250
I234378
aF145.52311428571429
aF306.983
ag247
aS'utopia'
p251
aS'#000000'
p252
aF8.88595
aI0
aI00
aI00
aI00
aI00
aI00
aI00
aI00
aI00
aa(lp253
I234378
aF151.983
aF306.983
aVp1
p254
aS'utopia'
p255
aS'#000000'
p256
aF8.88595
aI0
aI01
aI00
aI00
aI00
aI00
aI00
aI00
aI00
aa(lp257
I234378
aF179.9452
aF306.983
ag254
aS'utopia'
p258
aS'#000000'
p259
aF8.88595
aI0
aI00
aI00
aI00
aI00
aI00
aI00
aI00
aI00
aa(lp260
I208006
aF186.046
aF306.983
aVp1
p261
aS'utopia'
p262
aS'#000000'
p263
aF8.88595
aI0
aI01
aI00
aI00
aI00
aI00
aI00
aI00
aI00
aa(lp264
I234378
aF220.849
aF306.983
aVp1
p265
aS'utopia'
p266
aS'#000000'
p267
aF8.88595
aI0
aI01
aI01
aI00
aI00
aI00
aI00
aI00
aI00
aa(lp268
I234378
aF235.37529999999998
aF306.983
ag265
aS'utopia'
p269
aS'#000000'
p270
aF8.88595
aI0
aI00
aI00
aI00
aI00
aI00
aI00
aI00
aI00
aa(lp271
I176767
aF242.323
aF306.983
aVp1
p272
aS'utopia'
p273
aS'#000000'
p274
aF8.88595
aI0
aI01
aI00
aI00
aI00
aI00
aI00
aI00
aI00
aa(lp275
I234378
aF280.41442
aF306.983
ag272
aS'utopia'
p276
aS'#000000'
p277
aF8.88595
aI0
aI00
aI00
aI00
aI00
aI00
aI00
aI00
aI00
aa(lp278
I165851
aF55.7183
aF317.35
aVp1
p279
aS'utopia'
p280
aS'#000000'
p281
aF8.88595
aI0
aI01
aI00
aI00
aI00
aI00
aI00
aI00
aI00
aa(lp282
I234378
aF89.0407
aF317.35
aVp1
p283
aS'utopia'
p284
aS'#000000'
p285
aF8.88595
aI0
aI01
aI01
aI00
aI00
aI00
aI00
aI00
aI00
aa(lp286
I234378
aF95.53534
aF317.35
ag283
aS'utopia'
p287
aS'#000000'
p288
aF8.88595
aI0
aI00
aI00
aI00
aI00
aI00
aI00
aI00
aI00
aa(lp289
I144690
aF100.889
aF317.35
aVp1
p290
aS'utopia'
p291
aS'#000000'
p292
aF8.88595
aI0
aI01
aI00
aI00
aI00
aI00
aI00
aI00
aI00
aa(lp293
I234378
aF129.768
aF317.35
aVp1
p294
aS'utopia'
p295
aS'#000000'
p296
aF8.88595
aI0
aI00
aI00
aI00
aI00
aI00
aI00
aI00
aI00
aa(lp297
I234378
aF160.80693333333335
aF317.35
ag294
aS'utopia'
p298
aS'#000000'
p299
aF8.88595
aI0
aI00
aI00
aI00
aI00
aI00
aI00
aI00
aI00
aa(lp300
I89217
aF166.793
aF317.35
aVp1
p301
aS'utopia'
p302
aS'#000000'
p303
aF8.88595
aI0
aI01
aI01
aI00
aI00
aI00
aI00
aI00
aI00
aa(lp304
I234378
aF189.748
aF317.35
aVp1
p305
aS'utopia'
p306
aS'#000000'
p307
aF8.88595
aI0
aI01
aI00
aI00
aI00
aI00
aI00
aI00
aI00
aa(lp308
I234378
aF233.06936842105262
aF317.35
ag305
aS'utopia'
p309
aS'#000000'
p310
aF8.88595
aI0
aI00
aI00
aI00
aI00
aI00
aI00
aI00
aI00
aa(lp311
I234378
aF237.40150526315787
aF317.35
ag305
aS'utopia'
p312
aS'#000000'
p313
aF8.88595
aI0
aI01
aI01
aI00
aI00
aI00
aI00
aI00
aI00
aa(lp314
I234378
aF251.39791578947367
aF317.35
ag305
aS'utopia'
p315
aS'#000000'
p316
aF8.88595
aI0
aI01
aI01
aI00
aI00
aI00
aI00
aI00
aI00
aa(lp317
I234378
aF260.0621894736842
aF317.35
ag305
aS'utopia'
p318
aS'#000000'
p319
aF8.88595
aI0
aI00
aI00
aI00
aI00
aI00
aI00
aI00
aI00
aa(lp320
I234378
aF264.3943263157895
aF317.35
ag305
aS'utopia'
p321
aS'#000000'
p322
aF8.88595
aI0
aI00
aI00
aI00
aI00
aI00
aI00
aI00
aI00
aa(lp323
I87333
aF274.165
aF317.35
aVp1
p324
aS'utopia'
p325
aS'#000000'
p326
aF8.88595
aI0
aI01
aI00
aI00
aI00
aI00
aI00
aI00
aI00
aa(lp327
I129342
aF55.7183
aF327.717
aVp1
p328
aS'utopia'
p329
aS'#000000'
p330
aF8.88595
aI0
aI00
aI00
aI00
aI00
aI00
aI00
aI00
aI00
aa(lp331
I108443
aF92.7431
aF327.717
aVp1
p332
aS'utopia'
p333
aS'#000000'
p334
aF8.88595
aI0
aI00
aI00
aI00
aI00
aI00
aI00
aI00
aI00
aa(lp335
I234378
aF122.363
aF327.717
aVp1
p336
aS'utopia'
p337
aS'#000000'
p338
aF8.88595
aI0
aI01
aI00
aI00
aI00
aI00
aI00
aI00
aI00
aa(lp339
I68032
aF140.875
aF327.717
aVp1
p340
aS'utopia'
p341
aS'#000000'
p342
aF8.88595
aI0
aI00
aI00
aI00
aI00
aI00
aI00
aI00
aI00
aa(lp343
I234378
aF190.53239166666665
aF327.717
ag340
aS'utopia'
p344
aS'#000000'
p345
aF8.88595
aI0
aI00
aI00
aI00
aI00
aI00
aI00
aI00
aI00
aa(lp346
I84662
aF197.153
aF327.717
aVp1
p347
aS'utopia'
p348
aS'#000000'
p349
aF8.88595
aI0
aI01
aI00
aI00
aI00
aI00
aI00
aI00
aI00
aa(lp350
I21716
aF218.627
aF327.717
aVp1
p351
aS'utopia'
p352
aS'#000000'
p353
aF8.88595
aI0
aI01
aI00
aI00
aI00
aI00
aI00
aI00
aI00
aa(lp354
I234378
aF233.52932
aF327.717
ag351
aS'utopia'
p355
aS'#000000'
p356
aF8.88595
aI0
aI00
aI00
aI00
aI00
aI00
aI00
aI00
aI00
aa(lp357
I234378
aF239.361
aF327.717
aVp1
p358
aS'utopia'
p359
aS'#000000'
p360
aF8.88595
aI0
aI01
aI01
aI01
aI00
aI00
aI00
aI00
aI00
aa(lp361
I234378
aF266.60875
aF327.717
ag358
aS'utopia'
p362
aS'#000000'
p363
aF8.88595
aI0
aI00
aI00
aI00
aI00
aI00
aI00
aI00
aI00
aa(lp364
I234378
aF55.7183
aF338.084
aVp1
p365
aS'utopia'
p366
aS'#000000'
p367
aF8.88595
aI0
aI01
aI01
aI00
aI00
aI00
aI00
aI00
aI00
aa(lp368
I234378
aF74.90326
aF338.084
ag365
aS'utopia'
p369
aS'#000000'
p370
aF8.88595
aI0
aI00
aI00
aI00
aI00
aI00
aI00
aI00
aI00
aa(lp371
I234378
aF79.6995
aF338.084
ag365
aS'utopia'
p372
aS'#000000'
p373
aF8.88595
aI0
aI01
aI01
aI00
aI00
aI00
aI00
aI00
aI00
aa(lp374
I234378
aF94.08822
aF338.084
ag365
aS'utopia'
p375
aS'#000000'
p376
aF8.88595
aI0
aI00
aI00
aI00
aI00
aI00
aI00
aI00
aI00
aa(lp377
I234378
aF98.88446
aF338.084
ag365
aS'utopia'
p378
aS'#000000'
p379
aF8.88595
aI0
aI01
aI01
aI00
aI00
aI00
aI00
aI00
aI00
aa(lp380
I234378
aF118.06942000000001
aF338.084
ag365
aS'utopia'
p381
aS'#000000'
p382
aF8.88595
aI0
aI00
aI00
aI00
aI00
aI00
aI00
aI00
aI00
aa(lp383
I234378
aF122.86566
aF338.084
ag365
aS'utopia'
p384
aS'#000000'
p385
aF8.88595
aI0
aI00
aI00
aI00
aI00
aI00
aI00
aI00
aI00
aa(lp386
I234378
aF129.768
aF338.084
aVp1
p387
aS'utopia'
p388
aS'#000000'
p389
aF8.88595
aI0
aI01
aI00
aI00
aI00
aI00
aI00
aI00
aI00
aa(lp390
I234378
aF169.5756705882353
aF338.084
ag387
aS'utopia'
p391
aS'#000000'
p392
aF8.88595
aI0
aI00
aI00
aI00
aI00
aI00
aI00
aI00
aI00
aa(lp393
I234378
aF174.55162941176474
aF338.084
ag387
aS'utopia'
p394
aS'#000000'
p395
aF8.88595
aI0
aI01
aI00
aI00
aI00
aI00
aI00
aI00
aI00
aa(lp396
I234378
aF216.406
aF338.084
aVp1
p397
aS'utopia'
p398
aS'#000000'
p399
aF8.88595
aI0
aI00
aI00
aI00
aI00
aI00
aI00
aI00
aI00
aa(lp400
I234378
aF239.35462857142858
aF338.084
ag397
aS'utopia'
p401
aS'#000000'
p402
aF8.88595
aI0
aI00
aI00
aI00
aI00
aI00
aI00
aI00
aI00
aa(lp403
I234378
aF245.285
aF338.084
aVp1
p404
aS'utopia'
p405
aS'#000000'
p406
aF8.88595
aI0
aI01
aI01
aI01
aI00
aI00
aI00
aI00
aI00
aa(lp407
I234378
aF262.55692
aF338.084
ag404
aS'utopia'
p408
aS'#000000'
p409
aF8.88595
aI0
aI00
aI00
aI00
aI00
aI00
aI00
aI00
aI00
aa(lp410
I234378
aF55.7183
aF348.451
aVp1
p411
aS'utopia'
p412
aS'#000000'
p413
aF8.88595
aI0
aI01
aI00
aI00
aI00
aI00
aI00
aI00
aI00
aa(lp414
I234378
aF92.84811818181818
aF348.451
ag411
aS'utopia'
p415
aS'#000000'
p416
aF8.88595
aI0
aI00
aI00
aI00
aI00
aI00
aI00
aI00
aI00
aa(lp417
I234378
aF98.6671
aF348.451
aVp1
p418
aS'utopia'
p419
aS'#000000'
p420
aF8.88595
aI0
aI01
aI00
aI00
aI00
aI00
aI00
aI00
aI00
aa(lp421
I15316
aF129.027
aF348.451
aVp1
p422
aS'utopia'
p423
aS'#000000'
p424
aF8.88595
aI0
aI01
aI00
aI00
aI00
aI00
aI00
aI00
aI00
aa(lp425
I234378
aF156.426
aF348.451
aVp1
p426
aS'utopia'
p427
aS'#000000'
p428
aF8.88595
aI0
aI00
aI00
aI01
aI01
aI00
aI00
aI00
aI00
aa(lp429
I234378
aF160.2055
aF348.451
ag426
aS'utopia'
p430
aS'#000000'
p431
aF8.88595
aI0
aI00
aI00
aI00
aI00
aI00
aI00
aI00
aI00
aa(lp432
I234378
aF163.985
aF348.451
ag426
aS'utopia'
p433
aS'#000000'
p434
aF8.88595
aI0
aI00
aI00
aI01
aI01
aI00
aI00
aI00
aI00
aa(lp435
I51933
aF40.1679
aF34.4987
aVp2
p436
aS'utopia'
p437
aS'#02304b'
p438
aF11.8479
aI1
aI01
aI00
aI00
aI00
aI00
aI00
aI00
aI00
aa(lp439
I60220
aF72.0093
aF34.4987
aVp2
p440
aS'utopia'
p441
aS'#02304b'
p442
aF11.8479
aI1
aI01
aI00
aI00
aI00
aI00
aI00
aI00
aI00
aa(lp443
I234378
aF40.9084
aF66.2156
aVp2
p444
aS'utopia'
p445
aS'#000000'
p446
aF10.3669
aI1
aI01
aI00
aI00
aI00
aI00
aI00
aI00
aI00
aa(lp447
I164802
aF92.0026
aF66.2156
aVp2
p448
aS'utopia'
p449
aS'#000000'
p450
aF10.3669
aI1
aI01
aI00
aI00
aI00
aI00
aI00
aI00
aI00
aa(lp451
I234378
aF119.401
aF66.2156
aVp2
p452
aS'utopia'
p453
aS'#000000'
p454
aF10.3669
aI1
aI01
aI00
aI00
aI00
aI00
aI00
aI00
aI00
aa(lp455
I234378
aF137.173
aF66.2156
aVp2
p456
aS'utopia'
p457
aS'#000000'
p458
aF10.3669
aI1
aI01
aI00
aI00
aI00
aI00
aI00
aI00
aI00
aa(lp459
I234378
aF154.945
aF66.4852
aVp2
p460
aS'utopia'
p461
aS'#656565'
p462
aF10.3669
aI0
aI00
aI00
aI00
aI00
aI00
aI00
aI00
aI00
aa(lp463
I15548
aF159.922425
aF66.4852
ag460
aS'utopia'
p464
aS'#656565'
p465
aF10.3669
aI0
aI01
aI00
aI00
aI00
aI00
aI00
aI00
aI00
aa(lp466
I70289
aF197.153
aF66.4852
aVp2
p467
aS'utopia'
p468
aS'#656565'
p469
aF10.3669
aI0
aI01
aI00
aI00
aI00
aI00
aI00
aI00
aI00
aa(lp470
I234378
aF240.50197777777777
aF66.4852
ag467
aS'utopia'
p471
aS'#656565'
p472
aF10.3669
aI0
aI00
aI00
aI00
aI00
aI00
aI00
aI00
aI00
aa(lp473
I210461
aF40.9084
aF82.7761
aVp2
p474
aS'utopia'
p475
aS'#656565'
p476
aF10.3669
aI0
aI01
aI00
aI00
aI00
aI00
aI00
aI00
aI00
aa(lp477
I234229
aF69.7878
aF82.7761
aVp2
p478
aS'utopia'
p479
aS'#656565'
p480
aF10.3669
aI0
aI01
aI00
aI00
aI00
aI00
aI00
aI00
aI00
aa(lp481
I37515
aF107.553
aF82.7761
aVp2
p482
aS'utopia'
p483
aS'#656565'
p484
aF10.3669
aI0
aI01
aI00
aI00
aI00
aI00
aI00
aI00
aI01
aa(lp485
I234378
aF129.768
aF82.7761
aVp2
p486
aS'utopia'
p487
aS'#656565'
p488
aF10.3669
aI0
aI00
aI00
aI01
aI01
aI01
aI00
aI00
aI00
aa(lp489
I177958
aF40.9084
aF102.607
aVp2
p490
aS'utopia'
p491
aS'#656565'
p492
aF8.88595
aI0
aI01
aI00
aI00
aI00
aI00
aI00
aI00
aI00
aa(lp493
I234378
aF67.574725
aF102.607
ag490
aS'utopia'
p494
aS'#656565'
p495
aF8.88595
aI0
aI00
aI00
aI00
aI00
aI00
aI00
aI00
aI00
aa(lp496
I234378
aF73.4902
aF102.607
aVp2
p497
aS'utopia'
p498
aS'#656565'
p499
aF8.88595
aI0
aI01
aI00
aI00
aI00
aI00
aI00
aI00
aI00
aa(lp500
I234378
aF103.851
aF102.607
aVp2
p501
aS'utopia'
p502
aS'#656565'
p503
aF8.88595
aI0
aI01
aI01
aI00
aI00
aI00
aI00
aI00
aI00
aa(lp504
I234378
aF123.844
aF102.607
aVp2
p505
aS'utopia'
p506
aS'#656565'
p507
aF8.88595
aI0
aI01
aI00
aI00
aI00
aI00
aI00
aI00
aI00
aa(lp508
I85218
aF142.356
aF102.607
aVp2
p509
aS'utopia'
p510
aS'#656565'
p511
aF8.88595
aI0
aI00
aI00
aI00
aI00
aI00
aI00
aI00
aI00
aa(lp512
I125694
aF159.388
aF102.607
aVp2
p513
aS'utopia'
p514
aS'#656565'
p515
aF8.88595
aI0
aI01
aI00
aI00
aI00
aI00
aI00
aI00
aI00
aa(lp516
I234378
aF185.305
aF102.607
aVp2
p517
aS'utopia'
p518
aS'#656565'
p519
aF8.88595
aI0
aI01
aI00
aI00
aI00
aI00
aI00
aI00
aI00
aa(lp520
I234378
aF203.818
aF102.607
aVp2
p521
aS'utopia'
p522
aS'#656565'
p523
aF8.88595
aI0
aI00
aI00
aI00
aI00
aI00
aI00
aI00
aI00
aa(lp524
I234378
aF207.93861111111113
aF102.607
ag521
aS'utopia'
p525
aS'#656565'
p526
aF8.88595
aI0
aI00
aI00
aI01
aI01
aI01
aI00
aI00
aI00
aa(lp527
I234378
aF216.17983333333336
aF102.607
ag521
aS'utopia'
p528
aS'#656565'
p529
aF8.88595
aI0
aI00
aI00
aI00
aI00
aI00
aI00
aI00
aI00
aa(lp530
I37515
aF220.30044444444448
aF102.607
ag521
aS'utopia'
p531
aS'#656565'
p532
aF8.88595
aI0
aI01
aI00
aI00
aI00
aI00
aI00
aI00
aI01
aa(lp533
I234378
aF228.6622777777778
aF102.607
ag521
aS'utopia'
p534
aS'#656565'
p535
aF8.88595
aI0
aI00
aI00
aI00
aI00
aI00
aI00
aI00
aI00
aa(lp536
I234378
aF236.78288888888892
aF102.607
ag521
aS'utopia'
p537
aS'#656565'
p538
aF8.88595
aI0
aI00
aI00
aI01
aI01
aI01
aI00
aI00
aI00
aa(lp539
I36403
aF254.26533333333336
aF102.607
ag521
aS'utopia'
p540
aS'#656565'
p541
aF8.88595
aI0
aI01
aI00
aI00
aI00
aI00
aI00
aI00
aI00
aa(lp542
I234378
aF270.7477777777778
aF102.607
ag521
aS'utopia'
p543
aS'#656565'
p544
aF8.88595
aI0
aI00
aI00
aI00
aI00
aI00
aI00
aI00
aI00
aa(lp545
I214011
aF280.089
aF102.607
aVp2
p546
aS'utopia'
p547
aS'#656565'
p548
aF8.88595
aI0
aI01
aI00
aI00
aI00
aI00
aI00
aI00
aI00
aa(lp549
I234378
aF333.4137866666667
aF102.607
ag546
aS'utopia'
p550
aS'#656565'
p551
aF8.88595
aI0
aI00
aI00
aI00
aI00
aI00
aI00
aI00
aI00
aa(lp552
I234378
aF339.328
aF102.607
aVp2
p553
aS'utopia'
p554
aS'#656565'
p555
aF8.88595
aI0
aI01
aI00
aI00
aI00
aI00
aI00
aI00
aI00
aa(lp556
I177958
aF362.284
aF102.607
aVp2
p557
aS'utopia'
p558
aS'#656565'
p559
aF8.88595
aI0
aI00
aI00
aI00
aI00
aI00
aI00
aI00
aI00
aa(lp560
I51933
aF392.644
aF102.607
aVp2
p561
aS'utopia'
p562
aS'#656565'
p563
aF8.88595
aI0
aI00
aI00
aI00
aI00
aI00
aI00
aI00
aI00
aa(lp564
I12878
aF414.859
aF102.607
aVp2
p565
aS'utopia'
p566
aS'#656565'
p567
aF8.88595
aI0
aI00
aI00
aI00
aI00
aI00
aI00
aI00
aI00
aa(lp568
I147316
aF468.175
aF102.607
aVp2
p569
aS'utopia'
p570
aS'#656565'
p571
aF8.88595
aI0
aI00
aI00
aI00
aI00
aI00
aI00
aI00
aI00
aa(lp572
I48815
aF501.497
aF102.607
aVp2
p573
aS'utopia'
p574
aS'#656565'
p575
aF8.88595
aI0
aI00
aI00
aI00
aI00
aI00
aI00
aI00
aI00
aa(lp576
I2002
aF518.528
aF102.607
aVp2
p577
aS'utopia'
p578
aS'#656565'
p579
aF8.88595
aI0
aI00
aI00
aI00
aI00
aI00
aI00
aI00
aI00
aa(lp580
I177958
aF40.9084
aF112.973
aVp2
p581
aS'utopia'
p582
aS'#656565'
p583
aF8.88595
aI0
aI00
aI00
aI00
aI00
aI00
aI00
aI00
aI00
aa(lp584
I234378
aF71.2688
aF112.973
aVp2
p585
aS'utopia'
p586
aS'#656565'
p587
aF8.88595
aI0
aI01
aI00
aI00
aI00
aI00
aI00
aI00
aI00
aa(lp588
I108443
aF101.629
aF112.973
aVp2
p589
aS'utopia'
p590
aS'#656565'
p591
aF8.88595
aI0
aI01
aI00
aI00
aI00
aI00
aI00
aI00
aI00
aa(lp592
I234378
aF131.249
aF112.973
aVp2
p593
aS'utopia'
p594
aS'#656565'
p595
aF8.88595
aI0
aI01
aI00
aI00
aI00
aI00
aI00
aI00
aI00
aa(lp596
I22474
aF149.761
aF112.973
aVp2
p597
aS'utopia'
p598
aS'#656565'
p599
aF8.88595
aI0
aI00
aI00
aI00
aI00
aI00
aI00
aI00
aI00
aa(lp600
I194354
aF157.907
aF112.973
aVp2
p601
aS'utopia'
p602
aS'#656565'
p603
aF8.88595
aI0
aI00
aI00
aI00
aI00
aI00
aI00
aI00
aI00
aa(lp604
I3865
aF172.717
aF112.973
aVp2
p605
aS'utopia'
p606
aS'#656565'
p607
aF8.88595
aI0
aI00
aI00
aI00
aI00
aI00
aI00
aI00
aI00
aa(lp608
I177828
aF215.665
aF112.973
aVp2
p609
aS'utopia'
p610
aS'#656565'
p611
aF8.88595
aI0
aI00
aI00
aI00
aI00
aI00
aI00
aI00
aI00
aa(lp612
I33871
aF231.8435333333333
aF112.973
ag609
aS'utopia'
p613
aS'#656565'
p614
aF8.88595
aI0
aI00
aI00
aI00
aI00
aI00
aI00
aI00
aI00
aa(lp615
I14859
aF251.95
aF112.973
aVp2
p616
aS'utopia'
p617
aS'#656565'
p618
aF8.88595
aI0
aI00
aI00
aI00
aI00
aI00
aI00
aI00
aI00
aa(lp619
I190806
aF286.013
aF112.973
aVp2
p620
aS'utopia'
p621
aS'#656565'
p622
aF8.88595
aI0
aI00
aI00
aI00
aI00
aI00
aI00
aI00
aI00
aa(lp623
I234378
aF300.082
aF112.973
aVp2
p624
aS'utopia'
p625
aS'#656565'
p626
aF8.88595
aI0
aI01
aI00
aI00
aI00
aI00
aI00
aI00
aI00
aa(lp627
I234378
aF330.442
aF112.973
aVp2
p628
aS'utopia'
p629
aS'#656565'
p630
aF8.88595
aI0
aI00
aI00
aI00
aI00
aI00
aI00
aI00
aI00
aa(lp631
I200058
aF374.132
aF112.973
aVp2
p632
aS'utopia'
p633
aS'#656565'
p634
aF8.88595
aI0
aI00
aI00
aI00
aI00
aI00
aI00
aI00
aI00
aa(lp635
I52238
aF399.308
aF112.973
aVp2
p636
aS'utopia'
p637
aS'#656565'
p638
aF8.88595
aI0
aI00
aI00
aI00
aI00
aI00
aI00
aI00
aI00
aa(lp639
I85218
aF415.599
aF112.973
aVp2
p640
aS'utopia'
p641
aS'#656565'
p642
aF8.88595
aI0
aI00
aI00
aI00
aI00
aI00
aI00
aI00
aI00
aa(lp643
I44367
aF432.631
aF112.973
aVp2
p644
aS'utopia'
p645
aS'#656565'
p646
aF8.88595
aI0
aI00
aI00
aI00
aI00
aI00
aI00
aI00
aI00
aa(lp647
I68365
aF451.884
aF112.973
aVp2
p648
aS'utopia'
p649
aS'#656565'
p650
aF8.88595
aI0
aI00
aI00
aI00
aI00
aI00
aI00
aI00
aI00
aa(lp651
I89480
aF479.282
aF112.973
aVp2
p652
aS'utopia'
p653
aS'#656565'
p654
aF8.88595
aI0
aI00
aI00
aI00
aI00
aI00
aI00
aI00
aI00
aa(lp655
I157671
aF489.649
aF112.973
aVp2
p656
aS'utopia'
p657
aS'#656565'
p658
aF8.88595
aI0
aI00
aI00
aI00
aI00
aI00
aI00
aI00
aI00
aa(lp659
I234378
aF519.269
aF112.973
aVp2
p660
aS'utopia'
p661
aS'#656565'
p662
aF8.88595
aI0
aI00
aI00
aI00
aI00
aI00
aI00
aI00
aI00
aa(lp663
I85218
aF40.9084
aF123.34
aVp2
p664
aS'utopia'
p665
aS'#656565'
p666
aF8.88595
aI0
aI00
aI00
aI00
aI00
aI00
aI00
aI00
aI00
aa(lp667
I234378
aF57.9398
aF123.34
aVp2
p668
aS'utopia'
p669
aS'#656565'
p670
aF8.88595
aI0
aI00
aI00
aI00
aI00
aI00
aI00
aI00
aI00
aa(lp671
I234378
aF88.3205111111111
aF123.34
ag668
aS'utopia'
p672
aS'#656565'
p673
aF8.88595
aI0
aI00
aI00
aI00
aI00
aI00
aI00
aI00
aI00
aa(lp674
I169745
aF94.2241
aF123.34
aVp2
p675
aS'utopia'
p676
aS'#656565'
p677
aF8.88595
aI0
aI01
aI00
aI00
aI00
aI00
aI00
aI00
aI00
aa(lp678
I16329
aF114.958
aF123.34
aVp2
p679
aS'utopia'
p680
aS'#656565'
p681
aF8.88595
aI0
aI00
aI00
aI00
aI00
aI00
aI00
aI00
aI00
aa(lp682
I44367
aF126.806
aF123.34
aVp2
p683
aS'utopia'
p684
aS'#656565'
p685
aF8.88595
aI0
aI00
aI00
aI00
aI00
aI00
aI00
aI00
aI00
aa(lp686
I231681
aF146.059
aF123.34
aVp2
p687
aS'utopia'
p688
aS'#656565'
p689
aF8.88595
aI0
aI00
aI00
aI00
aI00
aI00
aI00
aI00
aI00
aa(lp690
I60220
aF189.008
aF123.34
aVp2
p691
aS'utopia'
p692
aS'#656565'
p693
aF8.88595
aI0
aI00
aI00
aI00
aI00
aI00
aI00
aI00
aI00
aa(lp694
I120218
aF234.178
aF123.34
aVp2
p695
aS'utopia'
p696
aS'#656565'
p697
aF8.88595
aI0
aI00
aI00
aI00
aI00
aI00
aI00
aI00
aI00
aa(lp698
I33705
aF274.165
aF123.34
aVp2
p699
aS'utopia'
p700
aS'#656565'
p701
aF8.88595
aI0
aI00
aI00
aI00
aI00
aI00
aI00
aI00
aI00
aa(lp702
I57571
aF290.456
aF123.34
aVp2
p703
aS'utopia'
p704
aS'#656565'
p705
aF8.88595
aI0
aI00
aI00
aI00
aI00
aI00
aI00
aI00
aI00
aa(lp706
I80364
aF320.816
aF123.34
aVp2
p707
aS'utopia'
p708
aS'#656565'
p709
aF8.88595
aI0
aI00
aI00
aI00
aI00
aI00
aI00
aI00
aI00
aa(lp710
I234378
aF339.328
aF123.34
aVp2
p711
aS'utopia'
p712
aS'#656565'
p713
aF8.88595
aI0
aI00
aI00
aI00
aI00
aI00
aI00
aI00
aI00
aa(lp714
I234378
aF369.0504888888889
aF123.34
ag711
aS'utopia'
p715
aS'#656565'
p716
aF8.88595
aI0
aI00
aI00
aI00
aI00
aI00
aI00
aI00
aI00
aa(lp717
I201877
aF374.872
aF123.34
aVp2
p718
aS'utopia'
p719
aS'#656565'
p720
aF8.88595
aI0
aI00
aI00
aI00
aI00
aI00
aI00
aI00
aI00
aa(lp721
I85218
aF411.897
aF123.34
aVp2
p722
aS'utopia'
p723
aS'#656565'
p724
aF8.88595
aI0
aI00
aI00
aI00
aI00
aI00
aI00
aI00
aI00
aa(lp725
I111461
aF428.928
aF123.34
aVp2
p726
aS'utopia'
p727
aS'#656565'
p728
aF8.88595
aI0
aI00
aI00
aI00
aI00
aI00
aI00
aI00
aI00
aa(lp729
I234378
aF445.219
aF123.34
aVp2
p730
aS'utopia'
p731
aS'#656565'
p732
aF8.88595
aI0
aI00
aI00
aI00
aI00
aI00
aI00
aI00
aI00
aa(lp733
I234378
aF460.12516666666664
aF123.34
ag730
aS'utopia'
p734
aS'#656565'
p735
aF8.88595
aI0
aI00
aI00
aI00
aI00
aI00
aI00
aI00
aI00
aa(lp736
I122886
aF465.213
aF123.34
aVp2
p737
aS'utopia'
p738
aS'#656565'
p739
aF8.88595
aI0
aI00
aI00
aI00
aI00
aI00
aI00
aI00
aI00
aa(lp740
I190806
aF480.022
aF123.34
aVp2
p741
aS'utopia'
p742
aS'#656565'
p743
aF8.88595
aI0
aI00
aI00
aI00
aI00
aI00
aI00
aI00
aI00
aa(lp744
I147316
aF494.092
aF123.34
aVp2
p745
aS'utopia'
p746
aS'#656565'
p747
aF8.88595
aI0
aI00
aI00
aI00
aI00
aI00
aI00
aI00
aI00
aa(lp748
I234378
aF523.350075
aF123.34
ag745
aS'utopia'
p749
aS'#656565'
p750
aF8.88595
aI0
aI00
aI00
aI00
aI00
aI00
aI00
aI00
aI00
aa(lp751
I170506
aF529.636
aF123.34
aVp2
p752
aS'utopia'
p753
aS'#656565'
p754
aF8.88595
aI0
aI00
aI00
aI00
aI00
aI00
aI00
aI00
aI00
aa(lp755
I119502
aF40.9084
aF133.707
aVp2
p756
aS'utopia'
p757
aS'#656565'
p758
aF8.88595
aI0
aI00
aI00
aI00
aI00
aI00
aI00
aI00
aI00
aa(lp759
I234378
aF70.5283
aF133.707
aVp2
p760
aS'utopia'
p761
aS'#656565'
p762
aF8.88595
aI0
aI00
aI00
aI00
aI00
aI00
aI00
aI00
aI00
aa(lp763
I85218
aF101.629
aF133.707
aVp2
p764
aS'utopia'
p765
aS'#656565'
p766
aF8.88595
aI0
aI00
aI00
aI00
aI00
aI00
aI00
aI00
aI00
aa(lp767
I234378
aF118.66
aF133.707
aVp2
p768
aS'utopia'
p769
aS'#656565'
p770
aF8.88595
aI0
aI00
aI00
aI00
aI00
aI00
aI00
aI00
aI00
aa(lp771
I30648
aF154.945
aF133.707
aVp2
p772
aS'utopia'
p773
aS'#656565'
p774
aF8.88595
aI0
aI00
aI00
aI00
aI00
aI00
aI00
aI00
aI00
aa(lp775
I49042
aF186.046
aF133.707
aVp2
p776
aS'utopia'
p777
aS'#656565'
p778
aF8.88595
aI0
aI00
aI00
aI00
aI00
aI00
aI00
aI00
aI00
aa(lp779
I85218
aF203.077
aF133.707
aVp2
p780
aS'utopia'
p781
aS'#656565'
p782
aF8.88595
aI0
aI00
aI00
aI00
aI00
aI00
aI00
aI00
aI00
aa(lp783
I166593
aF220.108
aF133.707
aVp2
p784
aS'utopia'
p785
aS'#656565'
p786
aF8.88595
aI0
aI00
aI00
aI00
aI00
aI00
aI00
aI00
aI00
aa(lp787
I92983
aF226.773
aF133.707
aVp2
p788
aS'utopia'
p789
aS'#656565'
p790
aF8.88595
aI0
aI00
aI00
aI00
aI00
aI00
aI00
aI00
aI00
aa(lp791
I2002
aF239.361
aF133.707
aVp2
p792
aS'utopia'
p793
aS'#656565'
p794
aF8.88595
aI0
aI00
aI00
aI00
aI00
aI00
aI00
aI00
aI00
aa(lp795
I234378
aF258.41012
aF133.707
ag792
aS'utopia'
p796
aS'#656565'
p797
aF8.88595
aI0
aI00
aI00
aI00
aI00
aI00
aI00
aI00
aI00
aa(lp798
I234378
aF265.279
aF133.707
aVp2
p799
aS'utopia'
p800
aS'#656565'
p801
aF8.88595
aI0
aI00
aI00
aI00
aI00
aI00
aI00
aI00
aI00
aa(lp802
I234378
aF269.28606666666667
aF133.707
ag799
aS'utopia'
p803
aS'#656565'
p804
aF8.88595
aI0
aI01
aI00
aI00
aI00
aI00
aI00
aI00
aI00
aa(lp805
I195166
aF291.196
aF133.707
aVp2
p806
aS'utopia'
p807
aS'#656565'
p808
aF8.88595
aI0
aI01
aI00
aI00
aI00
aI00
aI00
aI00
aI00
aa(lp809
I234378
aF331.183
aF133.707
aVp2
p810
aS'utopia'
p811
aS'#656565'
p812
aF8.88595
aI0
aI01
aI01
aI00
aI00
aI00
aI00
aI00
aI00
aa(lp813
I85218
aF349.695
aF133.707
aVp2
p814
aS'utopia'
p815
aS'#656565'
p816
aF8.88595
aI0
aI00
aI00
aI00
aI00
aI00
aI00
aI00
aI00
aa(lp817
I234378
aF366.727
aF133.707
aVp2
p818
aS'utopia'
p819
aS'#656565'
p820
aF8.88595
aI0
aI01
aI01
aI00
aI00
aI00
aI00
aI00
aI00
aa(lp821
I147316
aF385.239
aF133.707
aVp2
p822
aS'utopia'
p823
aS'#656565'
p824
aF8.88595
aI0
aI00
aI00
aI00
aI00
aI00
aI00
aI00
aI00
aa(lp825
I234378
aF415.1502625
aF133.707
ag822
aS'utopia'
p826
aS'#656565'
p827
aF8.88595
aI0
aI00
aI00
aI00
aI00
aI00
aI00
aI00
aI00
aa(lp828
I43748
aF421.523
aF133.707
aVp2
p829
aS'utopia'
p830
aS'#656565'
p831
aF8.88595
aI0
aI01
aI00
aI00
aI00
aI00
aI00
aI00
aI00
aa(lp832
I219882
aF443.738
aF133.707
aVp2
p833
aS'utopia'
p834
aS'#656565'
p835
aF8.88595
aI0
aI00
aI00
aI00
aI00
aI00
aI00
aI00
aI00
aa(lp836
I214011
aF458.548
aF133.707
aVp2
p837
aS'utopia'
p838
aS'#656565'
p839
aF8.88595
aI0
aI00
aI00
aI00
aI00
aI00
aI00
aI00
aI00
aa(lp840
I84932
aF513.345
aF133.707
aVp2
p841
aS'utopia'
p842
aS'#656565'
p843
aF8.88595
aI0
aI00
aI00
aI00
aI00
aI00
aI00
aI00
aI00
aa(lp844
I144690
aF40.9084
aF144.074
aVp2
p845
aS'utopia'
p846
aS'#656565'
p847
aF8.88595
aI0
aI00
aI00
aI00
aI00
aI00
aI00
aI00
aI00
aa(lp848
I234378
aF64.49174285714285
aF144.074
ag845
aS'utopia'
p849
aS'#656565'
p850
aF8.88595
aI0
aI00
aI00
aI00
aI00
aI00
aI00
aI00
aI00
aa(lp851
I221291
aF70.5283
aF144.074
aVp2
p852
aS'utopia'
p853
aS'#656565'
p854
aF8.88595
aI0
aI00
aI00
aI00
aI00
aI00
aI00
aI00
aI00
aa(lp855
I68032
aF92.0026
aF144.074
aVp2
p856
aS'utopia'
p857
aS'#656565'
p858
aF8.88595
aI0
aI00
aI00
aI00
aI00
aI00
aI00
aI00
aI00
aa(lp859
I234378
aF141.65999166666666
aF144.074
ag856
aS'utopia'
p860
aS'#656565'
p861
aF8.88595
aI0
aI00
aI00
aI00
aI00
aI00
aI00
aI00
aI00
aa(lp862
I85218
aF148.28
aF144.074
aVp2
p863
aS'utopia'
p864
aS'#656565'
p865
aF8.88595
aI0
aI00
aI00
aI00
aI00
aI00
aI00
aI00
aI00
aa(lp866
I38316
aF165.312
aF144.074
aVp2
p867
aS'utopia'
p868
aS'#656565'
p869
aF8.88595
aI0
aI00
aI00
aI00
aI00
aI00
aI00
aI00
aI00
aa(lp870
I121847
aF213.444
aF144.074
aVp2
p871
aS'utopia'
p872
aS'#656565'
p873
aF8.88595
aI0
aI00
aI00
aI00
aI00
aI00
aI00
aI00
aI00
aa(lp874
I2555
aF229.735
aF144.074
aVp2
p875
aS'utopia'
p876
aS'#656565'
p877
aF8.88595
aI0
aI00
aI00
aI00
aI00
aI00
aI00
aI00
aI00
aa(lp878
I234378
aF266.49352
aF144.074
ag875
aS'utopia'
p879
aS'#656565'
p880
aF8.88595
aI0
aI00
aI00
aI00
aI00
aI00
aI00
aI00
aI00
aa(lp881
I234378
aF272.684
aF144.074
aVp2
p882
aS'utopia'
p883
aS'#656565'
p884
aF8.88595
aI0
aI01
aI00
aI00
aI00
aI00
aI00
aI00
aI00
aa(lp885
I194354
aF308.227
aF144.074
aVp2
p886
aS'utopia'
p887
aS'#656565'
p888
aF8.88595
aI0
aI00
aI00
aI00
aI00
aI00
aI00
aI00
aI00
aa(lp889
I100815
aF323.037
aF144.074
aVp2
p890
aS'utopia'
p891
aS'#656565'
p892
aF8.88595
aI0
aI00
aI00
aI00
aI00
aI00
aI00
aI00
aI00
aa(lp893
I89480
aF364.505
aF144.074
aVp2
p894
aS'utopia'
p895
aS'#656565'
p896
aF8.88595
aI0
aI00
aI00
aI00
aI00
aI00
aI00
aI00
aI00
aa(lp897
I143306
aF374.872
aF144.074
aVp2
p898
aS'utopia'
p899
aS'#656565'
p900
aF8.88595
aI0
aI00
aI00
aI00
aI00
aI00
aI00
aI00
aI00
aa(lp901
I218852
aF410.416
aF144.074
aVp2
p902
aS'utopia'
p903
aS'#656565'
p904
aF8.88595
aI0
aI00
aI00
aI00
aI00
aI00
aI00
aI00
aI00
aa(lp905
I234378
aF431.15
aF144.074
aVp2
p906
aS'utopia'
p907
aS'#656565'
p908
aF8.88595
aI0
aI00
aI00
aI00
aI00
aI00
aI00
aI00
aI00
aa(lp909
I234378
aF460.029
aF144.074
aVp2
p910
aS'utopia'
p911
aS'#656565'
p912
aF8.88595
aI0
aI00
aI00
aI00
aI00
aI00
aI00
aI00
aI00
aa(lp913
I234378
aF477.89991428571426
aF144.074
ag910
aS'utopia'
p914
aS'#656565'
p915
aF8.88595
aI0
aI00
aI00
aI00
aI00
aI00
aI00
aI00
aI00
aa(lp916
I234378
aF482.984
aF144.074
aVp2
p917
aS'utopia'
p918
aS'#656565'
p919
aF8.88595
aI0
aI00
aI00
aI00
aI00
aI00
aI00
aI00
aI00
aa(lp920
I127763
aF40.9084
aF154.441
aVp2
p921
aS'utopia'
p922
aS'#656565'
p923
aF8.88595
aI0
aI00
aI00
aI00
aI00
aI00
aI00
aI00
aI00
aa(lp924
I85218
aF85.3382
aF154.441
aVp2
p925
aS'utopia'
p926
aS'#656565'
p927
aF8.88595
aI0
aI00
aI00
aI00
aI00
aI00
aI00
aI00
aI00
aa(lp928
I70370
aF102.37
aF154.441
aVp2
p929
aS'utopia'
p930
aS'#656565'
p931
aF8.88595
aI0
aI00
aI00
aI00
aI00
aI00
aI00
aI00
aI00
aa(lp932
I111798
aF131.249
aF154.441
aVp2
p933
aS'utopia'
p934
aS'#656565'
p935
aF8.88595
aI0
aI00
aI00
aI00
aI00
aI00
aI00
aI00
aI00
aa(lp936
I144489
aF190.489
aF154.441
aVp2
p937
aS'utopia'
p938
aS'#656565'
p939
aF8.88595
aI0
aI00
aI00
aI00
aI00
aI00
aI00
aI00
aI00
aa(lp940
I194354
aF200.856
aF154.441
aVp2
p941
aS'utopia'
p942
aS'#656565'
p943
aF8.88595
aI0
aI00
aI00
aI00
aI00
aI00
aI00
aI00
aI00
aa(lp944
I234378
aF215.665
aF154.441
aVp2
p945
aS'utopia'
p946
aS'#656565'
p947
aF8.88595
aI0
aI00
aI00
aI00
aI00
aI00
aI00
aI00
aI00
aa(lp948
I144690
aF251.95
aF154.441
aVp2
p949
aS'utopia'
p950
aS'#656565'
p951
aF8.88595
aI0
aI00
aI00
aI00
aI00
aI00
aI00
aI00
aI00
aa(lp952
I234378
aF275.5333428571428
aF154.441
ag949
aS'utopia'
p953
aS'#656565'
p954
aF8.88595
aI0
aI00
aI00
aI00
aI00
aI00
aI00
aI00
aI00
aa(lp955
I234378
aF281.57
aF154.441
aVp2
p956
aS'utopia'
p957
aS'#656565'
p958
aF8.88595
aI0
aI01
aI00
aI00
aI00
aI00
aI00
aI00
aI00
aa(lp959
I63022
aF328.961
aF154.441
aVp2
p960
aS'utopia'
p961
aS'#656565'
p962
aF8.88595
aI0
aI00
aI00
aI00
aI00
aI00
aI00
aI00
aI00
aa(lp963
I221291
aF363.024
aF154.441
aVp2
p964
aS'utopia'
p965
aS'#656565'
p966
aF8.88595
aI0
aI00
aI00
aI00
aI00
aI00
aI00
aI00
aI00
aa(lp967
I234378
aF384.499
aF154.441
aVp2
p968
aS'utopia'
p969
aS'#656565'
p970
aF8.88595
aI0
aI00
aI00
aI00
aI00
aI00
aI00
aI00
aI00
aa(lp971
I85218
aF416.34
aF154.441
aVp2
p972
aS'utopia'
p973
aS'#656565'
p974
aF8.88595
aI0
aI00
aI00
aI00
aI00
aI00
aI00
aI00
aI00
aa(lp975
I11472
aF433.371
aF154.441
aVp2
p976
aS'utopia'
p977
aS'#656565'
p978
aF8.88595
aI0
aI00
aI00
aI00
aI00
aI00
aI00
aI00
aI00
aa(lp979
I169899
aF473.358
aF154.441
aVp2
p980
aS'utopia'
p981
aS'#656565'
p982
aF8.88595
aI0
aI00
aI00
aI00
aI00
aI00
aI00
aI00
aI00
aa(lp983
I234378
aF502.237
aF154.441
aVp2
p984
aS'utopia'
p985
aS'#656565'
p986
aF8.88595
aI0
aI00
aI00
aI00
aI00
aI00
aI00
aI00
aI00
aa(lp987
I190806
aF40.9084
aF164.808
aVp2
p988
aS'utopia'
p989
aS'#656565'
p990
aF8.88595
aI0
aI00
aI00
aI00
aI00
aI00
aI00
aI00
aI00
aa(lp991
I234378
aF54.9779
aF164.808
aVp2
p992
aS'utopia'
p993
aS'#656565'
p994
aF8.88595
aI0
aI00
aI00
aI00
aI00
aI00
aI00
aI00
aI00
aa(lp995
I85218
aF74.9712
aF164.808
aVp2
p996
aS'utopia'
p997
aS'#656565'
p998
aF8.88595
aI0
aI00
aI00
aI00
aI00
aI00
aI00
aI00
aI00
aa(lp999
I234378
aF92.0026
aF164.808
aVp2
p1000
aS'utopia'
p1001
aS'#656565'
p1002
aF8.88595
aI0
aI00
aI00
aI00
aI00
aI00
aI00
aI00
aI00
aa(lp1003
I234378
aF147.47555384615384
aF164.808
ag1000
aS'utopia'
p1004
aS'#656565'
p1005
aF8.88595
aI0
aI00
aI00
aI00
aI00
aI00
aI00
aI00
aI00
aa(lp1006
I12878
aF154.204
aF164.808
aVp2
p1007
aS'utopia'
p1008
aS'#656565'
p1009
aF8.88595
aI0
aI01
aI00
aI00
aI00
aI00
aI00
aI00
aI00
aa(lp1010
I234378
aF203.86139166666666
aF164.808
ag1007
aS'utopia'
p1011
aS'#656565'
p1012
aF8.88595
aI0
aI00
aI00
aI00
aI00
aI00
aI00
aI00
aI00
aa(lp1013
I234378
aF210.482
aF164.808
aVp2
p1014
aS'utopia'
p1015
aS'#656565'
p1016
aF8.88595
aI0
aI01
aI00
aI00
aI00
aI00
aI00
aI00
aI00
aa(lp1017
I15316
aF240.842
aF164.808
aVp2
p1018
aS'utopia'
p1019
aS'#656565'
p1020
aF8.88595
aI0
aI01
aI00
aI00
aI00
aI00
aI00
aI00
aI00
aa(lp1021
I234378
aF263.77025000000003
aF164.808
ag1018
aS'utopia'
p1022
aS'#656565'
p1023
aF8.88595
aI0
aI00
aI00
aI00
aI00
aI00
aI00
aI00
aI00
aa(lp1024
I234378
aF270.462
aF164.808
aVp2
p1025
aS'utopia'
p1026
aS'#656565'
p1027
aF8.88595
aI0
aI01
aI00
aI00
aI00
aI00
aI00
aI00
aI00
aa(lp1028
I234378
aF298.4242
aF164.808
ag1025
aS'utopia'
p1029
aS'#656565'
p1030
aF8.88595
aI0
aI00
aI00
aI00
aI00
aI00
aI00
aI00
aI00
aa(lp1031
I234378
aF304.525
aF164.808
aVp2
p1032
aS'utopia'
p1033
aS'#656565'
p1034
aF8.88595
aI0
aI01
aI00
aI00
aI00
aI00
aI00
aI00
aI00
aa(lp1035
I234378
aF331.28182857142855
aF164.808
ag1032
aS'utopia'
p1036
aS'#656565'
p1037
aF8.88595
aI0
aI00
aI00
aI00
aI00
aI00
aI00
aI00
aI00
aa(lp1038
I234378
aF337.847
aF164.808
aVp2
p1039
aS'utopia'
p1040
aS'#656565'
p1041
aF8.88595
aI0
aI01
aI00
aI00
aI00
aI00
aI00
aI00
aI00
aa(lp1042
I234378
aF369.696825
aF164.808
ag1039
aS'utopia'
p1043
aS'#656565'
p1044
aF8.88595
aI0
aI00
aI00
aI00
aI00
aI00
aI00
aI00
aI00
aa(lp1045
I234378
aF376.353
aF164.808
aVp2
p1046
aS'utopia'
p1047
aS'#656565'
p1048
aF8.88595
aI0
aI01
aI01
aI01
aI00
aI00
aI00
aI00
aI00
aa(lp1049
I234378
aF403.60075
aF164.808
ag1046
aS'utopia'
p1050
aS'#656565'
p1051
aF8.88595
aI0
aI00
aI00
aI00
aI00
aI00
aI00
aI00
aI00
aa(lp1052
I234378
aF411.156
aF164.808
aVp2
p1053
aS'utopia'
p1054
aS'#656565'
p1055
aF8.88595
aI0
aI01
aI01
aI01
aI00
aI00
aI00
aI00
aI00
aa(lp1056
I234378
aF428.42792000000003
aF164.808
ag1053
aS'utopia'
p1057
aS'#656565'
p1058
aF8.88595
aI0
aI00
aI00
aI00
aI00
aI00
aI00
aI00
aI00
aa(lp1059
I234378
aF434.852
aF164.808
aVp2
p1060
aS'utopia'
p1061
aS'#656565'
p1062
aF8.88595
aI0
aI01
aI01
aI00
aI00
aI00
aI00
aI00
aI00
aa(lp1063
I234378
aF452.71632
aF164.808
ag1060
aS'utopia'
p1064
aS'#656565'
p1065
aF8.88595
aI0
aI00
aI00
aI00
aI00
aI00
aI00
aI00
aI00
aa(lp1066
I147298
aF459.289
aF164.808
aVp2
p1067
aS'utopia'
p1068
aS'#656565'
p1069
aF8.88595
aI0
aI01
aI00
aI00
aI00
aI00
aI00
aI00
aI00
aa(lp1070
I234378
aF484.0685
aF164.808
ag1067
aS'utopia'
p1071
aS'#656565'
p1072
aF8.88595
aI0
aI00
aI00
aI00
aI00
aI00
aI00
aI00
aI00
aa(lp1073
I131892
aF491.13
aF164.808
aVp2
p1074
aS'utopia'
p1075
aS'#656565'
p1076
aF8.88595
aI0
aI01
aI00
aI00
aI00
aI00
aI00
aI00
aI00
aa(lp1077
I234378
aF40.9084
aF175.175
aVp2
p1078
aS'utopia'
p1079
aS'#656565'
p1080
aF8.88595
aI0
aI01
aI00
aI01
aI00
aI00
aI00
aI00
aI00
aa(lp1081
I234378
aF78.07472727272727
aF175.175
ag1078
aS'utopia'
p1082
aS'#656565'
p1083
aF8.88595
aI0
aI00
aI00
aI01
aI01
aI00
aI00
aI00
aI00
aa(lp1084
I234378
aF82.59551818181818
aF175.175
ag1078
aS'utopia'
p1085
aS'#656565'
p1086
aF8.88595
aI0
aI00
aI00
aI00
aI00
aI00
aI00
aI00
aI00
aa(lp1087
I234378
aF92.7431
aF175.175
aVp2
p1088
aS'utopia'
p1089
aS'#656565'
p1090
aF8.88595
aI0
aI01
aI01
aI01
aI00
aI00
aI00
aI00
aI00
aa(lp1091
I234378
aF107.824775
aF175.175
ag1088
aS'utopia'
p1092
aS'#656565'
p1093
aF8.88595
aI0
aI00
aI00
aI00
aI00
aI00
aI00
aI00
aI00
aa(lp1094
I234378
aF114.958
aF175.175
aVp2
p1095
aS'utopia'
p1096
aS'#656565'
p1097
aF8.88595
aI0
aI01
aI01
aI00
aI00
aI00
aI00
aI00
aI00
aa(lp1098
I234378
aF127.2628
aF175.175
ag1095
aS'utopia'
p1099
aS'#656565'
p1100
aF8.88595
aI0
aI00
aI00
aI00
aI00
aI00
aI00
aI00
aI00
aa(lp1101
I234378
aF133.47
aF175.175
aVp2
p1102
aS'utopia'
p1103
aS'#656565'
p1104
aF8.88595
aI0
aI01
aI01
aI01
aI00
aI00
aI00
aI00
aI00
aa(lp1105
I48671
aF40.9084
aF185.542
aVp2
p1106
aS'utopia'
p1107
aS'#656565'
p1108
aF8.88595
aI0
aI01
aI00
aI00
aI00
aI00
aI00
aI00
aI00
aa(lp1109
I129688
aF69.0473
aF185.542
aVp2
p1110
aS'utopia'
p1111
aS'#656565'
p1112
aF8.88595
aI0
aI01
aI00
aI00
aI00
aI00
aI00
aI00
aI00
aa(lp1113
I234378
aF97.1861
aF185.542
aVp2
p1114
aS'utopia'
p1115
aS'#656565'
p1116
aF8.88595
aI0
aI00
aI00
aI00
aI00
aI00
aI00
aI00
aI00
aa(lp1117
I234378
aF101.629
aF185.542
aVp2
p1118
aS'utopia'
p1119
aS'#656565'
p1120
aF8.88595
aI0
aI00
aI00
aI01
aI01
aI00
aI00
aI00
aI00
aa(lp1121
I234378
aF108.294
aF185.542
aVp2
p1122
aS'utopia'
p1123
aS'#656565'
p1124
aF8.88595
aI0
aI01
aI00
aI00
aI00
aI00
aI00
aI00
aI00
aa(lp1125
I186966
aF40.9084
aF218.758
aVp2
p1126
aS'utopia'
p1127
aS'#000000'
p1128
aF10.3669
aI1
aI01
aI00
aI00
aI00
aI00
aI00
aI00
aI00
aa(lp1129
I19068
aF67.5663
aF218.758
aVp2
p1130
aS'utopia'
p1131
aS'#000000'
p1132
aF10.3669
aI1
aI01
aI00
aI00
aI00
aI00
aI00
aI00
aI00
aa(lp1133
I43052
aF100.889
aF218.758
aVp2
p1134
aS'utopia'
p1135
aS'#000000'
p1136
aF10.3669
aI1
aI01
aI00
aI00
aI00
aI00
aI00
aI00
aI00
aa(lp1137
I207716
aF40.9084
aF235.318
aVp2
p1138
aS'utopia'
p1139
aS'#656565'
p1140
aF10.3669
aI0
aI01
aI00
aI00
aI00
aI00
aI00
aI00
aI00
aa(lp1141
I48604
aF77.1927
aF235.318
aVp2
p1142
aS'utopia'
p1143
aS'#656565'
p1144
aF10.3669
aI0
aI01
aI00
aI00
aI00
aI00
aI00
aI00
aI00
aa(lp1145
I234378
aF118.66
aF235.318
aVp2
p1146
aS'utopia'
p1147
aS'#656565'
p1148
aF10.3669
aI0
aI01
aI00
aI00
aI00
aI00
aI00
aI00
aI01
aa(lp1149
I234378
aF137.913
aF235.318
aVp2
p1150
aS'utopia'
p1151
aS'#656565'
p1152
aF10.3669
aI0
aI00
aI00
aI01
aI01
aI01
aI00
aI00
aI00
aa(lp1153
I89480
aF160.869
aF235.318
aVp2
p1154
aS'utopia'
p1155
aS'#656565'
p1156
aF10.3669
aI0
aI01
aI00
aI00
aI00
aI00
aI00
aI00
aI00
aa(lp1157
I37515
aF175.679
aF235.318
aVp2
p1158
aS'utopia'
p1159
aS'#656565'
p1160
aF10.3669
aI0
aI01
aI00
aI00
aI00
aI00
aI00
aI00
aI01
aa(lp1161
I234378
aF197.894
aF235.318
aVp2
p1162
aS'utopia'
p1163
aS'#656565'
p1164
aF10.3669
aI0
aI00
aI00
aI01
aI01
aI01
aI00
aI00
aI00
aa(lp1165
I85222
aF40.9084
aF255.149
aVp2
p1166
aS'utopia'
p1167
aS'#656565'
p1168
aF8.88595
aI0
aI01
aI00
aI00
aI00
aI00
aI00
aI00
aI00
aa(lp1169
I85697
aF59.4208
aF255.149
aVp2
p1170
aS'utopia'
p1171
aS'#656565'
p1172
aF8.88595
aI0
aI01
aI00
aI00
aI00
aI00
aI00
aI00
aI00
aa(lp1173
I176040
aF86.8192
aF255.149
aVp2
p1174
aS'utopia'
p1175
aS'#656565'
p1176
aF8.88595
aI0
aI00
aI00
aI00
aI00
aI00
aI00
aI00
aI00
aa(lp1177
I108443
aF104.591
aF255.149
aVp2
p1178
aS'utopia'
p1179
aS'#656565'
p1180
aF8.88595
aI0
aI00
aI00
aI00
aI00
aI00
aI00
aI00
aI00
aa(lp1181
I234378
aF134.211
aF255.149
aVp2
p1182
aS'utopia'
p1183
aS'#656565'
p1184
aF8.88595
aI0
aI01
aI00
aI00
aI00
aI00
aI00
aI00
aI00
aa(lp1185
I215246
aF152.723
aF255.149
aVp2
p1186
aS'utopia'
p1187
aS'#656565'
p1188
aF8.88595
aI0
aI00
aI00
aI00
aI00
aI00
aI00
aI00
aI00
aa(lp1189
I89480
aF193.451
aF255.149
aVp2
p1190
aS'utopia'
p1191
aS'#656565'
p1192
aF8.88595
aI0
aI00
aI00
aI00
aI00
aI00
aI00
aI00
aI00
aa(lp1193
I147316
aF203.818
aF255.149
aVp2
p1194
aS'utopia'
p1195
aS'#656565'
p1196
aF8.88595
aI0
aI00
aI00
aI00
aI00
aI00
aI00
aI00
aI00
aa(lp1197
I204917
aF237.14
aF255.149
aVp2
p1198
aS'utopia'
p1199
aS'#656565'
p1200
aF8.88595
aI0
aI00
aI00
aI00
aI00
aI00
aI00
aI00
aI00
aa(lp1201
I54779
aF262.317
aF255.149
aVp2
p1202
aS'utopia'
p1203
aS'#656565'
p1204
aF8.88595
aI0
aI00
aI00
aI00
aI00
aI00
aI00
aI00
aI00
aa(lp1205
I234378
aF285.24525
aF255.149
ag1202
aS'utopia'
p1206
aS'#656565'
p1207
aF8.88595
aI0
aI00
aI00
aI00
aI00
aI00
aI00
aI00
aI00
aa(lp1208
I56864
aF291.937
aF255.149
aVp2
p1209
aS'utopia'
p1210
aS'#656565'
p1211
aF8.88595
aI0
aI00
aI00
aI00
aI00
aI00
aI00
aI00
aI00
aa(lp1212
I85218
aF316.373
aF255.149
aVp2
p1213
aS'utopia'
p1214
aS'#656565'
p1215
aF8.88595
aI0
aI00
aI00
aI00
aI00
aI00
aI00
aI00
aI00
aa(lp1216
I234378
aF333.404
aF255.149
aVp2
p1217
aS'utopia'
p1218
aS'#656565'
p1219
aF8.88595
aI0
aI00
aI00
aI00
aI00
aI00
aI00
aI00
aI00
aa(lp1220
I234378
aF362.662075
aF255.149
ag1217
aS'utopia'
p1221
aS'#656565'
p1222
aF8.88595
aI0
aI00
aI00
aI00
aI00
aI00
aI00
aI00
aI00
aa(lp1223
I85222
aF368.948
aF255.149
aVp2
p1224
aS'utopia'
p1225
aS'#656565'
p1226
aF8.88595
aI0
aI01
aI00
aI00
aI00
aI00
aI00
aI00
aI00
aa(lp1227
I85697
aF387.46
aF255.149
aVp2
p1228
aS'utopia'
p1229
aS'#656565'
p1230
aF8.88595
aI0
aI01
aI00
aI00
aI00
aI00
aI00
aI00
aI00
aa(lp1231
I22474
aF414.859
aF255.149
aVp2
p1232
aS'utopia'
p1233
aS'#656565'
p1234
aF8.88595
aI0
aI00
aI00
aI00
aI00
aI00
aI00
aI00
aI00
aa(lp1235
I83353
aF423.004
aF255.149
aVp2
p1236
aS'utopia'
p1237
aS'#656565'
p1238
aF8.88595
aI0
aI00
aI00
aI00
aI00
aI00
aI00
aI00
aI00
aa(lp1239
I74050
aF445.219
aF255.149
aVp2
p1240
aS'utopia'
p1241
aS'#656565'
p1242
aF8.88595
aI0
aI00
aI00
aI00
aI00
aI00
aI00
aI00
aI00
aa(lp1243
I234378
aF465.213
aF255.149
aVp2
p1244
aS'utopia'
p1245
aS'#656565'
p1246
aF8.88595
aI0
aI00
aI00
aI00
aI00
aI00
aI00
aI00
aI00
aa(lp1247
I200115
aF489.649
aF255.149
aVp2
p1248
aS'utopia'
p1249
aS'#656565'
p1250
aF8.88595
aI0
aI00
aI00
aI00
aI00
aI00
aI00
aI00
aI00
aa(lp1251
I85218
aF40.9084
aF265.516
aVp2
p1252
aS'utopia'
p1253
aS'#656565'
p1254
aF8.88595
aI0
aI00
aI00
aI00
aI00
aI00
aI00
aI00
aI00
aa(lp1255
I83353
aF57.9398
aF265.516
aVp2
p1256
aS'utopia'
p1257
aS'#656565'
p1258
aF8.88595
aI0
aI00
aI00
aI00
aI00
aI00
aI00
aI00
aI00
aa(lp1259
I160012
aF80.1547
aF265.516
aVp2
p1260
aS'utopia'
p1261
aS'#656565'
p1262
aF8.88595
aI0
aI00
aI00
aI00
aI00
aI00
aI00
aI00
aI00
aa(lp1263
I234378
aF103.11
aF265.516
aVp2
p1264
aS'utopia'
p1265
aS'#656565'
p1266
aF8.88595
aI0
aI00
aI00
aI00
aI00
aI00
aI00
aI00
aI00
aa(lp1267
I38918
aF107.471525
aF265.516
ag1264
aS'utopia'
p1268
aS'#656565'
p1269
aF8.88595
aI0
aI01
aI00
aI00
aI00
aI00
aI00
aI00
aI00
aa(lp1270
I144489
aF140.135
aF265.516
aVp2
p1271
aS'utopia'
p1272
aS'#656565'
p1273
aF8.88595
aI0
aI00
aI00
aI00
aI00
aI00
aI00
aI00
aI00
aa(lp1274
I123665
aF150.502
aF265.516
aVp2
p1275
aS'utopia'
p1276
aS'#656565'
p1277
aF8.88595
aI0
aI00
aI00
aI00
aI00
aI00
aI00
aI00
aI00
aa(lp1278
I234378
aF196.413
aF265.516
aVp2
p1279
aS'utopia'
p1280
aS'#656565'
p1281
aF8.88595
aI0
aI00
aI00
aI00
aI00
aI00
aI00
aI00
aI00
aa(lp1282
I61195
aF235.659
aF265.516
aVp2
p1283
aS'utopia'
p1284
aS'#656565'
p1285
aF8.88595
aI0
aI00
aI00
aI00
aI00
aI00
aI00
aI00
aI00
aa(lp1286
I10716
aF268.241
aF265.516
aVp2
p1287
aS'utopia'
p1288
aS'#656565'
p1289
aF8.88595
aI0
aI00
aI00
aI00
aI00
aI00
aI00
aI00
aI00
aa(lp1290
I218732
aF283.791
aF265.516
aVp2
p1291
aS'utopia'
p1292
aS'#656565'
p1293
aF8.88595
aI0
aI00
aI00
aI00
aI00
aI00
aI00
aI00
aI00
aa(lp1294
I78023
aF318.594
aF265.516
aVp2
p1295
aS'utopia'
p1296
aS'#656565'
p1297
aF8.88595
aI0
aI00
aI00
aI00
aI00
aI00
aI00
aI00
aI00
aa(lp1298
I234378
aF361.76335384615385
aF265.516
ag1295
aS'utopia'
p1299
aS'#656565'
p1300
aF8.88595
aI0
aI00
aI00
aI00
aI00
aI00
aI00
aI00
aI00
aa(lp1301
I234378
aF367.467
aF265.516
aVp2
p1302
aS'utopia'
p1303
aS'#656565'
p1304
aF8.88595
aI0
aI00
aI00
aI00
aI00
aI00
aI00
aI00
aI00
aa(lp1305
I234378
aF397.8477111111111
aF265.516
ag1302
aS'utopia'
p1306
aS'#656565'
p1307
aF8.88595
aI0
aI00
aI00
aI00
aI00
aI00
aI00
aI00
aI00
aa(lp1308
I42193
aF403.751
aF265.516
aVp2
p1309
aS'utopia'
p1310
aS'#656565'
p1311
aF8.88595
aI0
aI00
aI00
aI00
aI00
aI00
aI00
aI00
aI00
aa(lp1312
I144489
aF442.998
aF265.516
aVp2
p1313
aS'utopia'
p1314
aS'#656565'
p1315
aF8.88595
aI0
aI00
aI00
aI00
aI00
aI00
aI00
aI00
aI00
aa(lp1316
I194354
aF453.365
aF265.516
aVp2
p1317
aS'utopia'
p1318
aS'#656565'
p1319
aF8.88595
aI0
aI00
aI00
aI00
aI00
aI00
aI00
aI00
aI00
aa(lp1320
I63022
aF468.175
aF265.516
aVp2
p1321
aS'utopia'
p1322
aS'#656565'
p1323
aF8.88595
aI0
aI00
aI00
aI00
aI00
aI00
aI00
aI00
aI00
aa(lp1324
I234378
aF40.9084
aF275.883
aVp2
p1325
aS'utopia'
p1326
aS'#656565'
p1327
aF8.88595
aI0
aI00
aI00
aI00
aI00
aI00
aI00
aI00
aI00
aa(lp1328
I8691
aF99.4076
aF275.883
aVp2
p1329
aS'utopia'
p1330
aS'#656565'
p1331
aF8.88595
aI0
aI00
aI00
aI00
aI00
aI00
aI00
aI00
aI00
aa(lp1332
I194354
aF126.806
aF275.883
aVp2
p1333
aS'utopia'
p1334
aS'#656565'
p1335
aF8.88595
aI0
aI00
aI00
aI00
aI00
aI00
aI00
aI00
aI00
aa(lp1336
I19068
aF141.616
aF275.883
aVp2
p1337
aS'utopia'
p1338
aS'#656565'
p1339
aF8.88595
aI0
aI00
aI00
aI00
aI00
aI00
aI00
aI00
aI00
aa(lp1340
I45177
aF167.533
aF275.883
aVp2
p1341
aS'utopia'
p1342
aS'#656565'
p1343
aF8.88595
aI0
aI00
aI00
aI00
aI00
aI00
aI00
aI00
aI00
aa(lp1344
I234378
aF191.11634285714285
aF275.883
ag1341
aS'utopia'
p1345
aS'#656565'
p1346
aF8.88595
aI0
aI00
aI00
aI00
aI00
aI00
aI00
aI00
aI00
aa(lp1347
I189446
aF197.153
aF275.883
aVp2
p1348
aS'utopia'
p1349
aS'#656565'
p1350
aF8.88595
aI0
aI01
aI00
aI00
aI00
aI00
aI00
aI00
aI00
aa(lp1351
I63022
aF214.925
aF275.883
aVp2
p1352
aS'utopia'
p1353
aS'#656565'
p1354
aF8.88595
aI0
aI00
aI00
aI00
aI00
aI00
aI00
aI00
aI00
aa(lp1355
I215246
aF248.988
aF275.883
aVp2
p1356
aS'utopia'
p1357
aS'#656565'
p1358
aF8.88595
aI0
aI00
aI00
aI00
aI00
aI00
aI00
aI00
aI00
aa(lp1359
I89480
aF289.715
aF275.883
aVp2
p1360
aS'utopia'
p1361
aS'#656565'
p1362
aF8.88595
aI0
aI00
aI00
aI00
aI00
aI00
aI00
aI00
aI00
aa(lp1363
I147316
aF300.082
aF275.883
aVp2
p1364
aS'utopia'
p1365
aS'#656565'
p1366
aF8.88595
aI0
aI00
aI00
aI00
aI00
aI00
aI00
aI00
aI00
aa(lp1367
I194354
aF333.404
aF275.883
aVp2
p1368
aS'utopia'
p1369
aS'#656565'
p1370
aF8.88595
aI0
aI00
aI00
aI00
aI00
aI00
aI00
aI00
aI00
aa(lp1371
I181443
aF348.214
aF275.883
aVp2
p1372
aS'utopia'
p1373
aS'#656565'
p1374
aF8.88595
aI0
aI00
aI00
aI00
aI00
aI00
aI00
aI00
aI00
aa(lp1375
I85218
aF397.087
aF275.883
aVp2
p1376
aS'utopia'
p1377
aS'#656565'
p1378
aF8.88595
aI0
aI00
aI00
aI00
aI00
aI00
aI00
aI00
aI00
aa(lp1379
I234378
aF414.118
aF275.883
aVp2
p1380
aS'utopia'
p1381
aS'#656565'
p1382
aF8.88595
aI0
aI00
aI00
aI00
aI00
aI00
aI00
aI00
aI00
aa(lp1383
I123665
aF441.517
aF275.883
aVp2
p1384
aS'utopia'
p1385
aS'#656565'
p1386
aF8.88595
aI0
aI00
aI00
aI00
aI00
aI00
aI00
aI00
aI00
aa(lp1387
I20593
aF487.427
aF275.883
aVp2
p1388
aS'utopia'
p1389
aS'#656565'
p1390
aF8.88595
aI0
aI00
aI00
aI00
aI00
aI00
aI00
aI00
aI00
aa(lp1391
I234378
aF536.4056
aF275.883
ag1388
aS'utopia'
p1392
aS'#656565'
p1393
aF8.88595
aI0
aI00
aI00
aI00
aI00
aI00
aI00
aI00
aI00
aa(lp1394
I43748
aF40.9084
aF286.25
aVp2
p1395
aS'utopia'
p1396
aS'#656565'
p1397
aF8.88595
aI0
aI01
aI00
aI00
aI00
aI00
aI00
aI00
aI00
aa(lp1398
I219882
aF63.1233
aF286.25
aVp2
p1399
aS'utopia'
p1400
aS'#656565'
p1401
aF8.88595
aI0
aI00
aI00
aI00
aI00
aI00
aI00
aI00
aI00
aa(lp1402
I214011
aF77.9332
aF286.25
aVp2
p1403
aS'utopia'
p1404
aS'#656565'
p1405
aF8.88595
aI0
aI00
aI00
aI00
aI00
aI00
aI00
aI00
aI00
aa(lp1406
I84932
aF132.73
aF286.25
aVp2
p1407
aS'utopia'
p1408
aS'#656565'
p1409
aF8.88595
aI0
aI00
aI00
aI00
aI00
aI00
aI00
aI00
aI00
aa(lp1410
I24205
aF147.54
aF286.25
aVp2
p1411
aS'utopia'
p1412
aS'#656565'
p1413
aF8.88595
aI0
aI00
aI00
aI00
aI00
aI00
aI00
aI00
aI00
aa(lp1414
I25790
aF174.198
aF286.25
aVp2
p1415
aS'utopia'
p1416
aS'#656565'
p1417
aF8.88595
aI0
aI00
aI00
aI00
aI00
aI00
aI00
aI00
aI00
aa(lp1418
I234378
aF205.299
aF286.25
aVp2
p1419
aS'utopia'
p1420
aS'#656565'
p1421
aF8.88595
aI0
aI00
aI00
aI00
aI00
aI00
aI00
aI00
aI00
aa(lp1422
I45899
aF209.75932857142857
aF286.25
ag1419
aS'utopia'
p1423
aS'#656565'
p1424
aF8.88595
aI0
aI00
aI00
aI00
aI00
aI00
aI00
aI00
aI00
aa(lp1425
I234378
aF232.06097142857143
aF286.25
ag1419
aS'utopia'
p1426
aS'#656565'
p1427
aF8.88595
aI0
aI00
aI00
aI00
aI00
aI00
aI00
aI00
aI00
aa(lp1428
I38609
aF238.621
aF286.25
aVp2
p1429
aS'utopia'
p1430
aS'#656565'
p1431
aF8.88595
aI0
aI00
aI00
aI00
aI00
aI00
aI00
aI00
aI00
aa(lp1432
I144489
aF257.133
aF286.25
aVp2
p1433
aS'utopia'
p1434
aS'#656565'
p1435
aF8.88595
aI0
aI00
aI00
aI00
aI00
aI00
aI00
aI00
aI00
aa(lp1436
I194354
aF267.5
aF286.25
aVp2
p1437
aS'utopia'
p1438
aS'#656565'
p1439
aF8.88595
aI0
aI00
aI00
aI00
aI00
aI00
aI00
aI00
aI00
aa(lp1440
I123665
aF282.31
aF286.25
aVp2
p1441
aS'utopia'
p1442
aS'#656565'
p1443
aF8.88595
aI0
aI00
aI00
aI00
aI00
aI00
aI00
aI00
aI00
aa(lp1444
I234378
aF324.500775
aF286.25
ag1441
aS'utopia'
p1445
aS'#656565'
p1446
aF8.88595
aI0
aI00
aI00
aI00
aI00
aI00
aI00
aI00
aI00
aa(lp1447
I105322
aF330.442
aF286.25
aVp2
p1448
aS'utopia'
p1449
aS'#656565'
p1450
aF8.88595
aI0
aI00
aI00
aI00
aI00
aI00
aI00
aI00
aI00
aa(lp1451
I135639
aF365.986
aF286.25
aVp2
p1452
aS'utopia'
p1453
aS'#656565'
p1454
aF8.88595
aI0
aI00
aI00
aI00
aI00
aI00
aI00
aI00
aI00
aa(lp1455
I17350
aF375.613
aF286.25
aVp2
p1456
aS'utopia'
p1457
aS'#656565'
p1458
aF8.88595
aI0
aI00
aI00
aI00
aI00
aI00
aI00
aI00
aI00
aa(lp1459
I119502
aF394.125
aF286.25
aVp2
p1460
aS'utopia'
p1461
aS'#656565'
p1462
aF8.88595
aI0
aI00
aI00
aI00
aI00
aI00
aI00
aI00
aI00
aa(lp1463
I8059
aF423.745
aF286.25
aVp2
p1464
aS'utopia'
p1465
aS'#656565'
p1466
aF8.88595
aI0
aI00
aI00
aI00
aI00
aI00
aI00
aI00
aI00
aa(lp1467
I85218
aF458.548
aF286.25
aVp2
p1468
aS'utopia'
p1469
aS'#656565'
p1470
aF8.88595
aI0
aI00
aI00
aI00
aI00
aI00
aI00
aI00
aI00
aa(lp1471
I234378
aF475.579
aF286.25
aVp2
p1472
aS'utopia'
p1473
aS'#656565'
p1474
aF8.88595
aI0
aI00
aI00
aI00
aI00
aI00
aI00
aI00
aI00
aa(lp1475
I234378
aF505.199
aF286.25
aVp2
p1476
aS'utopia'
p1477
aS'#656565'
p1478
aF8.88595
aI0
aI01
aI01
aI00
aI00
aI00
aI00
aI00
aI00
aa(lp1479
I144690
aF517.047
aF286.25
aVp2
p1480
aS'utopia'
p1481
aS'#656565'
p1482
aF8.88595
aI0
aI00
aI00
aI00
aI00
aI00
aI00
aI00
aI00
aa(lp1483
I190806
aF40.9084
aF296.616
aVp2
p1484
aS'utopia'
p1485
aS'#656565'
p1486
aF8.88595
aI0
aI00
aI00
aI00
aI00
aI00
aI00
aI00
aI00
aa(lp1487
I17350
aF54.9779
aF296.616
aVp2
p1488
aS'utopia'
p1489
aS'#656565'
p1490
aF8.88595
aI0
aI00
aI00
aI00
aI00
aI00
aI00
aI00
aI00
aa(lp1491
I85218
aF73.4902
aF296.616
aVp2
p1492
aS'utopia'
p1493
aS'#656565'
p1494
aF8.88595
aI0
aI00
aI00
aI00
aI00
aI00
aI00
aI00
aI00
aa(lp1495
I60534
aF90.5217
aF296.616
aVp2
p1496
aS'utopia'
p1497
aS'#656565'
p1498
aF8.88595
aI0
aI00
aI00
aI00
aI00
aI00
aI00
aI00
aI00
aa(lp1499
I171150
aF108.294
aF296.616
aVp2
p1500
aS'utopia'
p1501
aS'#656565'
p1502
aF8.88595
aI0
aI00
aI00
aI00
aI00
aI00
aI00
aI00
aI00
aa(lp1503
I234378
aF134.211
aF296.616
aVp2
p1504
aS'utopia'
p1505
aS'#656565'
p1506
aF8.88595
aI0
aI00
aI00
aI00
aI00
aI00
aI00
aI00
aI00
aa(lp1507
I234378
aF147.071175
aF296.616
ag1504
aS'utopia'
p1508
aS'#656565'
p1509
aF8.88595
aI0
aI00
aI00
aI00
aI00
aI00
aI00
aI00
aI00
aa(lp1510
I197030
aF153.464
aF296.616
aVp2
p1511
aS'utopia'
p1512
aS'#656565'
p1513
aF8.88595
aI0
aI01
aI01
aI00
aI00
aI00
aI00
aI00
aI00
aa(lp1514
I62551
aF158.647
aF296.616
aVp2
p1515
aS'utopia'
p1516
aS'#656565'
p1517
aF8.88595
aI0
aI00
aI00
aI00
aI00
aI00
aI00
aI00
aI00
aa(lp1518
I234378
aF179.381
aF296.616
aVp2
p1519
aS'utopia'
p1520
aS'#656565'
p1521
aF8.88595
aI0
aI00
aI00
aI00
aI00
aI00
aI00
aI00
aI00
aa(lp1522
I135639
aF228.994
aF296.616
aVp2
p1523
aS'utopia'
p1524
aS'#656565'
p1525
aF8.88595
aI0
aI00
aI00
aI00
aI00
aI00
aI00
aI00
aI00
aa(lp1526
I41890
aF238.621
aF296.616
aVp2
p1527
aS'utopia'
p1528
aS'#656565'
p1529
aF8.88595
aI0
aI00
aI00
aI00
aI00
aI00
aI00
aI00
aI00
aa(lp1530
I194354
aF249.728
aF296.616
aVp2
p1531
aS'utopia'
p1532
aS'#656565'
p1533
aF8.88595
aI0
aI00
aI00
aI00
aI00
aI00
aI00
aI00
aI00
aa(lp1534
I165056
aF264.538
aF296.616
aVp2
p1535
aS'utopia'
p1536
aS'#656565'
p1537
aF8.88595
aI0
aI00
aI00
aI00
aI00
aI00
aI00
aI00
aI00
aa(lp1538
I144489
aF289.715
aF296.616
aVp2
p1539
aS'utopia'
p1540
aS'#656565'
p1541
aF8.88595
aI0
aI00
aI00
aI00
aI00
aI00
aI00
aI00
aI00
aa(lp1542
I202216
aF300.082
aF296.616
aVp2
p1543
aS'utopia'
p1544
aS'#656565'
p1545
aF8.88595
aI0
aI00
aI00
aI00
aI00
aI00
aI00
aI00
aI00
aa(lp1546
I166558
aF351.917
aF296.616
aVp2
p1547
aS'utopia'
p1548
aS'#656565'
p1549
aF8.88595
aI0
aI00
aI00
aI00
aI00
aI00
aI00
aI00
aI00
aa(lp1550
I234378
aF380.9812666666666
aF296.616
ag1547
aS'utopia'
p1551
aS'#656565'
p1552
aF8.88595
aI0
aI00
aI00
aI00
aI00
aI00
aI00
aI00
aI00
aa(lp1553
I192341
aF386.72
aF296.616
aVp2
p1554
aS'utopia'
p1555
aS'#656565'
p1556
aF8.88595
aI0
aI00
aI00
aI00
aI00
aI00
aI00
aI00
aI00
aa(lp1557
I166558
aF416.34
aF296.616
aVp2
p1558
aS'utopia'
p1559
aS'#656565'
p1560
aF8.88595
aI0
aI00
aI00
aI00
aI00
aI00
aI00
aI00
aI00
aa(lp1561
I85218
aF448.922
aF296.616
aVp2
p1562
aS'utopia'
p1563
aS'#656565'
p1564
aF8.88595
aI0
aI00
aI00
aI00
aI00
aI00
aI00
aI00
aI00
aa(lp1565
I234378
aF465.953
aF296.616
aVp2
p1566
aS'utopia'
p1567
aS'#656565'
p1568
aF8.88595
aI0
aI01
aI01
aI00
aI00
aI00
aI00
aI00
aI00
aa(lp1569
I78161
aF483.725
aF296.616
aVp2
p1570
aS'utopia'
p1571
aS'#656565'
p1572
aF8.88595
aI0
aI00
aI00
aI00
aI00
aI00
aI00
aI00
aI00
aa(lp1573
I104819
aF40.9084
aF306.983
aVp2
p1574
aS'utopia'
p1575
aS'#656565'
p1576
aF8.88595
aI0
aI00
aI00
aI00
aI00
aI00
aI00
aI00
aI00
aa(lp1577
I234378
aF85.81425
aF306.983
ag1574
aS'utopia'
p1578
aS'#656565'
p1579
aF8.88595
aI0
aI00
aI00
aI00
aI00
aI00
aI00
aI00
aI00
aa(lp1580
I12878
aF92.0026
aF306.983
aVp2
p1581
aS'utopia'
p1582
aS'#656565'
p1583
aF8.88595
aI0
aI01
aI00
aI00
aI00
aI00
aI00
aI00
aI00
aa(lp1584
I234378
aF141.65999166666666
aF306.983
ag1581
aS'utopia'
p1585
aS'#656565'
p1586
aF8.88595
aI0
aI00
aI00
aI00
aI00
aI00
aI00
aI00
aI00
aa(lp1587
I21716
aF148.28
aF306.983
aVp2
p1588
aS'utopia'
p1589
aS'#656565'
p1590
aF8.88595
aI0
aI01
aI00
aI00
aI00
aI00
aI00
aI00
aI00
aa(lp1591
I234378
aF166.793
aF306.983
aVp2
p1592
aS'utopia'
p1593
aS'#656565'
p1594
aF8.88595
aI0
aI00
aI00
aI01
aI01
aI00
aI00
aI00
aI00
aa(lp1595
I234378
aF170.9986
aF306.983
ag1592
aS'utopia'
p1596
aS'#656565'
p1597
aF8.88595
aI0
aI00
aI00
aI00
aI00
aI00
aI00
aI00
aI00
aa(lp1598
I234378
aF175.20420000000001
aF306.983
ag1592
aS'utopia'
p1599
aS'#656565'
p1600
aF8.88595
aI0
aI00
aI00
aI01
aI01
aI00
aI00
aI00
aI00
aa(lp1601
I234378
aF179.40980000000002
aF306.983
ag1592
aS'utopia'
p1602
aS'#656565'
p1603
aF8.88595
aI0
aI00
aI00
aI00
aI00
aI00
aI00
aI00
aI00
aa(lp1604
I234378
aF183.61540000000002
aF306.983
ag1592
aS'utopia'
p1605
aS'#656565'
p1606
aF8.88595
aI0
aI01
aI01
aI00
aI00
aI00
aI00
aI00
aI00
aa(lp1607
I96642
aF198.634
aF306.983
aVp2
p1608
aS'utopia'
p1609
aS'#656565'
p1610
aF8.88595
aI0
aI01
aI01
aI00
aI00
aI00
aI00
aI00
aI00
aa(lp1611
I234378
aF233.437
aF306.983
aVp2
p1612
aS'utopia'
p1613
aS'#656565'
p1614
aF8.88595
aI0
aI00
aI00
aI01
aI01
aI01
aI00
aI00
aI00
aa(lp1615
I234378
aF250.54836666666668
aF306.983
ag1612
aS'utopia'
p1616
aS'#656565'
p1617
aF8.88595
aI0
aI00
aI00
aI00
aI00
aI00
aI00
aI00
aI00
aa(lp1618
I100973
aF254.82620833333334
aF306.983
ag1612
aS'utopia'
p1619
aS'#656565'
p1620
aF8.88595
aI0
aI01
aI00
aI00
aI00
aI00
aI00
aI00
aI00
aa(lp1621
I234378
aF286.753
aF306.983
aVp2
p1622
aS'utopia'
p1623
aS'#656565'
p1624
aF8.88595
aI0
aI01
aI01
aI00
aI00
aI00
aI00
aI00
aI00
aa(lp1625
I234378
aF298.9942
aF306.983
ag1622
aS'utopia'
p1626
aS'#656565'
p1627
aF8.88595
aI0
aI00
aI00
aI00
aI00
aI00
aI00
aI00
aI00
aa(lp1628
I234378
aF303.0746
aF306.983
ag1622
aS'utopia'
p1629
aS'#656565'
p1630
aF8.88595
aI0
aI01
aI00
aI01
aI00
aI00
aI00
aI00
aI00
aa(lp1631
I234378
aF331.63739999999996
aF306.983
ag1622
aS'utopia'
p1632
aS'#656565'
p1633
aF8.88595
aI0
aI00
aI00
aI00
aI00
aI00
aI00
aI00
aI00
aa(lp1634
I234378
aF335.71779999999995
aF306.983
ag1622
aS'utopia'
p1635
aS'#656565'
p1636
aF8.88595
aI0
aI00
aI00
aI01
aI01
aI01
aI00
aI00
aI00
aa(lp1637
I234378
aF343.87859999999995
aF306.983
ag1622
aS'utopia'
p1638
aS'#656565'
p1639
aF8.88595
aI0
aI00
aI00
aI00
aI00
aI00
aI00
aI00
aI00
aa(lp1640
I234378
aF347.95899999999995
aF306.983
ag1622
aS'utopia'
p1641
aS'#656565'
p1642
aF8.88595
aI0
aI00
aI00
aI00
aI00
aI00
aI00
aI00
aI00
aa(lp1643
I234378
aF352.03939999999994
aF306.983
ag1622
aS'utopia'
p1644
aS'#656565'
p1645
aF8.88595
aI0
aI01
aI00
aI00
aI00
aI00
aI00
aI00
aI00
aa(lp1646
I15316
aF378.575
aF306.983
aVp2
p1647
aS'utopia'
p1648
aS'#656565'
p1649
aF8.88595
aI0
aI01
aI00
aI00
aI00
aI00
aI00
aI00
aI00
aa(lp1650
I234378
aF405.973
aF306.983
aVp2
p1651
aS'utopia'
p1652
aS'#656565'
p1653
aF8.88595
aI0
aI00
aI00
aI01
aI01
aI00
aI00
aI00
aI00
aa(lp1654
I234378
aF410.85303333333337
aF306.983
ag1651
aS'utopia'
p1655
aS'#656565'
p1656
aF8.88595
aI0
aI00
aI00
aI00
aI00
aI00
aI00
aI00
aI00
aa(lp1657
I234378
aF415.73306666666673
aF306.983
ag1651
aS'utopia'
p1658
aS'#656565'
p1659
aF8.88595
aI0
aI00
aI00
aI01
aI01
aI00
aI00
aI00
aI00
aa(lp1660
I234378
aF420.6131000000001
aF306.983
ag1651
aS'utopia'
p1661
aS'#656565'
p1662
aF8.88595
aI0
aI00
aI00
aI00
aI00
aI00
aI00
aI00
aI00
aa(lp1663
I234378
aF425.49313333333345
aF306.983
ag1651
aS'utopia'
p1664
aS'#656565'
p1665
aF8.88595
aI0
aI01
aI01
aI01
aI00
aI00
aI00
aI00
aI00
aa(lp1666
I29852
aF40.9084
aF340.199
aVp2
p1667
aS'utopia'
p1668
aS'#000000'
p1669
aF10.3669
aI1
aI01
aI00
aI00
aI00
aI00
aI00
aI00
aI00
aa(lp1670
I234378
aF76.4522
aF340.199
aVp2
p1671
aS'utopia'
p1672
aS'#000000'
p1673
aF10.3669
aI1
aI01
aI00
aI00
aI00
aI00
aI00
aI00
aI00
aa(lp1674
I223363
aF121.622
aF340.199
aVp2
p1675
aS'utopia'
p1676
aS'#000000'
p1677
aF10.3669
aI1
aI01
aI00
aI00
aI00
aI00
aI00
aI00
aI00
aa(lp1678
I40036
aF141.616
aF340.199
aVp2
p1679
aS'utopia'
p1680
aS'#000000'
p1681
aF10.3669
aI1
aI01
aI00
aI00
aI00
aI00
aI00
aI00
aI00
aa(lp1682
I149270
aF40.9084
aF356.76
aVp2
p1683
aS'utopia'
p1684
aS'#656565'
p1685
aF10.3669
aI0
aI01
aI00
aI00
aI00
aI00
aI00
aI00
aI00
aa(lp1686
I89147
aF89.7812
aF356.76
aVp2
p1687
aS'utopia'
p1688
aS'#656565'
p1689
aF10.3669
aI0
aI01
aI00
aI00
aI00
aI00
aI00
aI00
aI00
aa(lp1690
I61519
aF149.021
aF356.76
aVp2
p1691
aS'utopia'
p1692
aS'#656565'
p1693
aF10.3669
aI0
aI01
aI00
aI00
aI00
aI00
aI00
aI00
aI01
aa(lp1694
I234378
aF166.793
aF356.76
aVp2
p1695
aS'utopia'
p1696
aS'#656565'
p1697
aF10.3669
aI0
aI00
aI00
aI01
aI01
aI01
aI00
aI00
aI00
aa(lp1698
I89480
aF189.748
aF356.76
aVp2
p1699
aS'utopia'
p1700
aS'#656565'
p1701
aF10.3669
aI0
aI01
aI00
aI00
aI00
aI00
aI00
aI00
aI00
aa(lp1702
I234378
aF204.558
aF356.76
aVp2
p1703
aS'utopia'
p1704
aS'#656565'
p1705
aF10.3669
aI0
aI01
aI00
aI00
aI00
aI00
aI00
aI00
aI01
aa(lp1706
I234378
aF223.811
aF356.76
aVp2
p1707
aS'utopia'
p1708
aS'#656565'
p1709
aF10.3669
aI0
aI00
aI00
aI01
aI01
aI01
aI00
aI00
aI00
aa(lp1710
I234378
aF40.9084
aF376.59
aVp2
p1711
aS'utopia'
p1712
aS'#656565'
p1713
aF8.88595
aI0
aI01
aI00
aI00
aI00
aI00
aI00
aI00
aI00
aa(lp1714
I22474
aF79.4142
aF376.59
aVp2
p1715
aS'utopia'
p1716
aS'#656565'
p1717
aF8.88595
aI0
aI00
aI00
aI00
aI00
aI00
aI00
aI00
aI00
aa(lp1718
I166593
aF87.5597
aF376.59
aVp2
p1719
aS'utopia'
p1720
aS'#656565'
p1721
aF8.88595
aI0
aI00
aI00
aI00
aI00
aI00
aI00
aI00
aI00
aa(lp1722
I17350
aF94.2241
aF376.59
aVp2
p1723
aS'utopia'
p1724
aS'#656565'
p1725
aF8.88595
aI0
aI00
aI00
aI00
aI00
aI00
aI00
aI00
aI00
aa(lp1726
I35885
aF112.737
aF376.59
aVp2
p1727
aS'utopia'
p1728
aS'#656565'
p1729
aF8.88595
aI0
aI00
aI00
aI00
aI00
aI00
aI00
aI00
aI00
aa(lp1730
I123665
aF137.913
aF376.59
aVp2
p1731
aS'utopia'
p1732
aS'#656565'
p1733
aF8.88595
aI0
aI00
aI00
aI00
aI00
aI00
aI00
aI00
aI00
aa(lp1734
I53211
aF183.824
aF376.59
aVp2
p1735
aS'utopia'
p1736
aS'#656565'
p1737
aF8.88595
aI0
aI00
aI00
aI00
aI00
aI00
aI00
aI00
aI00
aa(lp1738
I144483
aF206.039
aF376.59
aVp2
p1739
aS'utopia'
p1740
aS'#656565'
p1741
aF8.88595
aI0
aI00
aI00
aI00
aI00
aI00
aI00
aI00
aI00
aa(lp1742
I166593
aF218.627
aF376.59
aVp2
p1743
aS'utopia'
p1744
aS'#656565'
p1745
aF8.88595
aI0
aI00
aI00
aI00
aI00
aI00
aI00
aI00
aI00
aa(lp1746
I137307
aF225.292
aF376.59
aVp2
p1747
aS'utopia'
p1748
aS'#656565'
p1749
aF8.88595
aI0
aI00
aI00
aI00
aI00
aI00
aI00
aI00
aI00
aa(lp1750
I176040
aF244.545
aF376.59
aVp2
p1751
aS'utopia'
p1752
aS'#656565'
p1753
aF8.88595
aI0
aI00
aI00
aI00
aI00
aI00
aI00
aI00
aI00
aa(lp1754
I21716
aF262.317
aF376.59
aVp2
p1755
aS'utopia'
p1756
aS'#656565'
p1757
aF8.88595
aI0
aI01
aI00
aI00
aI00
aI00
aI00
aI00
aI00
aa(lp1758
I158645
aF280.829
aF376.59
aVp2
p1759
aS'utopia'
p1760
aS'#656565'
p1761
aF8.88595
aI0
aI01
aI00
aI00
aI00
aI00
aI00
aI00
aI00
aa(lp1762
I234378
aF306.006
aF376.59
aVp2
p1763
aS'utopia'
p1764
aS'#656565'
p1765
aF8.88595
aI0
aI01
aI01
aI00
aI00
aI00
aI00
aI00
aI00
aa(lp1766
I85218
aF317.854
aF376.59
aVp2
p1767
aS'utopia'
p1768
aS'#656565'
p1769
aF8.88595
aI0
aI00
aI00
aI00
aI00
aI00
aI00
aI00
aI00
aa(lp1770
I234378
aF334.885
aF376.59
aVp2
p1771
aS'utopia'
p1772
aS'#656565'
p1773
aF8.88595
aI0
aI00
aI00
aI00
aI00
aI00
aI00
aI00
aI00
aa(lp1774
I89480
aF360.803
aF376.59
aVp2
p1775
aS'utopia'
p1776
aS'#656565'
p1777
aF8.88595
aI0
aI00
aI00
aI00
aI00
aI00
aI00
aI00
aI00
aa(lp1778
I194354
aF371.17
aF376.59
aVp2
p1779
aS'utopia'
p1780
aS'#656565'
p1781
aF8.88595
aI0
aI00
aI00
aI00
aI00
aI00
aI00
aI00
aI00
aa(lp1782
I55730
aF385.979
aF376.59
aVp2
p1783
aS'utopia'
p1784
aS'#656565'
p1785
aF8.88595
aI0
aI00
aI00
aI00
aI00
aI00
aI00
aI00
aI00
aa(lp1786
I144489
aF411.156
aF376.59
aVp2
p1787
aS'utopia'
p1788
aS'#656565'
p1789
aF8.88595
aI0
aI00
aI00
aI00
aI00
aI00
aI00
aI00
aI00
aa(lp1790
I709
aF421.523
aF376.59
aVp2
p1791
aS'utopia'
p1792
aS'#656565'
p1793
aF8.88595
aI0
aI00
aI00
aI00
aI00
aI00
aI00
aI00
aI00
aa(lp1794
I234378
aF462.991
aF376.59
aVp2
p1795
aS'utopia'
p1796
aS'#656565'
p1797
aF8.88595
aI0
aI00
aI00
aI00
aI00
aI00
aI00
aI00
aI00
aa(lp1798
I144489
aF506.68
aF376.59
aVp2
p1799
aS'utopia'
p1800
aS'#656565'
p1801
aF8.88595
aI0
aI00
aI00
aI00
aI00
aI00
aI00
aI00
aI00
aa(lp1802
I234378
aF517.047
aF376.59
aVp2
p1803
aS'utopia'
p1804
aS'#656565'
p1805
aF8.88595
aI0
aI01
aI00
aI00
aI00
aI00
aI00
aI00
aI00
aa(lp1806
I234378
aF548.0859333333334
aF376.59
ag1803
aS'utopia'
p1807
aS'#656565'
p1808
aF8.88595
aI0
aI00
aI00
aI00
aI00
aI00
aI00
aI00
aI00
aa(lp1809
I22476
aF40.9084
aF386.957
aVp2
p1810
aS'utopia'
p1811
aS'#656565'
p1812
aF8.88595
aI0
aI01
aI00
aI00
aI00
aI00
aI00
aI00
aI00
aa(lp1813
I59734
aF47.90495
aF386.957
ag1810
aS'utopia'
p1814
aS'#656565'
p1815
aF8.88595
aI0
aI00
aI00
aI00
aI00
aI00
aI00
aI00
aI00
aa(lp1816
I176802
aF54.9779
aF386.957
aVp2
p1817
aS'utopia'
p1818
aS'#656565'
p1819
aF8.88595
aI0
aI00
aI00
aI00
aI00
aI00
aI00
aI00
aI00
aa(lp1820
I144489
aF72.0093
aF386.957
aVp2
p1821
aS'utopia'
p1822
aS'#656565'
p1823
aF8.88595
aI0
aI00
aI00
aI00
aI00
aI00
aI00
aI00
aI00
aa(lp1824
I194354
aF82.3762
aF386.957
aVp2
p1825
aS'utopia'
p1826
aS'#656565'
p1827
aF8.88595
aI0
aI00
aI00
aI00
aI00
aI00
aI00
aI00
aI00
aa(lp1828
I15102
aF97.1861
aF386.957
aVp2
p1829
aS'utopia'
p1830
aS'#656565'
p1831
aF8.88595
aI0
aI00
aI00
aI00
aI00
aI00
aI00
aI00
aI00
aa(lp1832
I234378
aF115.699
aF386.957
aVp2
p1833
aS'utopia'
p1834
aS'#656565'
p1835
aF8.88595
aI0
aI00
aI00
aI00
aI00
aI00
aI00
aI00
aI00
aa(lp1836
I89958
aF149.021
aF386.957
aVp2
p1837
aS'utopia'
p1838
aS'#656565'
p1839
aF8.88595
aI0
aI00
aI00
aI00
aI00
aI00
aI00
aI00
aI00
aa(lp1840
I234378
aF182.343
aF386.957
aVp2
p1841
aS'utopia'
p1842
aS'#656565'
p1843
aF8.88595
aI0
aI00
aI00
aI00
aI00
aI00
aI00
aI00
aI00
aa(lp1844
I206996
aF220.108
aF386.957
aVp2
p1845
aS'utopia'
p1846
aS'#656565'
p1847
aF8.88595
aI0
aI00
aI00
aI00
aI00
aI00
aI00
aI00
aI00
aa(lp1848
I135639
aF256.393
aF386.957
aVp2
p1849
aS'utopia'
p1850
aS'#656565'
p1851
aF8.88595
aI0
aI00
aI00
aI00
aI00
aI00
aI00
aI00
aI00
aa(lp1852
I194354
aF266.019
aF386.957
aVp2
p1853
aS'utopia'
p1854
aS'#656565'
p1855
aF8.88595
aI0
aI00
aI00
aI00
aI00
aI00
aI00
aI00
aI00
aa(lp1856
I224210
aF280.829
aF386.957
aVp2
p1857
aS'utopia'
p1858
aS'#656565'
p1859
aF8.88595
aI0
aI00
aI00
aI00
aI00
aI00
aI00
aI00
aI00
aa(lp1860
I85218
aF313.411
aF386.957
aVp2
p1861
aS'utopia'
p1862
aS'#656565'
p1863
aF8.88595
aI0
aI00
aI00
aI00
aI00
aI00
aI00
aI00
aI00
aa(lp1864
I22474
aF330.442
aF386.957
aVp2
p1865
aS'utopia'
p1866
aS'#656565'
p1867
aF8.88595
aI0
aI00
aI00
aI00
aI00
aI00
aI00
aI00
aI00
aa(lp1868
I36088
aF338.588
aF386.957
aVp2
p1869
aS'utopia'
p1870
aS'#656565'
p1871
aF8.88595
aI0
aI00
aI00
aI00
aI00
aI00
aI00
aI00
aI00
aa(lp1872
I172125
aF356.36
aF386.957
aVp2
p1873
aS'utopia'
p1874
aS'#656565'
p1875
aF8.88595
aI0
aI00
aI00
aI00
aI00
aI00
aI00
aI00
aI00
aa(lp1876
I192651
aF414.859
aF386.957
aVp2
p1877
aS'utopia'
p1878
aS'#656565'
p1879
aF8.88595
aI0
aI00
aI00
aI00
aI00
aI00
aI00
aI00
aI00
aa(lp1880
I37764
aF426.707
aF386.957
aVp2
p1881
aS'utopia'
p1882
aS'#656565'
p1883
aF8.88595
aI0
aI00
aI00
aI00
aI00
aI00
aI00
aI00
aI00
aa(lp1884
I234378
aF451.884
aF386.957
aVp2
p1885
aS'utopia'
p1886
aS'#656565'
p1887
aF8.88595
aI0
aI00
aI00
aI00
aI00
aI00
aI00
aI00
aI00
aa(lp1888
I190806
aF487.427
aF386.957
aVp2
p1889
aS'utopia'
p1890
aS'#656565'
p1891
aF8.88595
aI0
aI00
aI00
aI00
aI00
aI00
aI00
aI00
aI00
aa(lp1892
I89347
aF501.497
aF386.957
aVp2
p1893
aS'utopia'
p1894
aS'#656565'
p1895
aF8.88595
aI0
aI00
aI00
aI00
aI00
aI00
aI00
aI00
aI00
aa(lp1896
I234378
aF40.9084
aF397.324
aVp2
p1897
aS'utopia'
p1898
aS'#656565'
p1899
aF8.88595
aI0
aI00
aI00
aI00
aI00
aI00
aI00
aI00
aI00
aa(lp1900
I234378
aF74.58022222222223
aF397.324
ag1897
aS'utopia'
p1901
aS'#656565'
p1902
aF8.88595
aI0
aI00
aI00
aI00
aI00
aI00
aI00
aI00
aI00
aa(lp1903
I104512
aF80.8952
aF397.324
aVp2
p1904
aS'utopia'
p1905
aS'#656565'
p1906
aF8.88595
aI0
aI01
aI00
aI00
aI00
aI00
aI00
aI00
aI00
aa(lp1907
I174396
aF92.7431
aF397.324
aVp2
p1908
aS'utopia'
p1909
aS'#656565'
p1910
aF8.88595
aI0
aI00
aI00
aI00
aI00
aI00
aI00
aI00
aI00
aa(lp1911
I25729
aF120.141
aF397.324
aVp2
p1912
aS'utopia'
p1913
aS'#656565'
p1914
aF8.88595
aI0
aI00
aI00
aI00
aI00
aI00
aI00
aI00
aI00
aa(lp1915
I8691
aF140.875
aF397.324
aVp2
p1916
aS'utopia'
p1917
aS'#656565'
p1918
aF8.88595
aI0
aI00
aI00
aI00
aI00
aI00
aI00
aI00
aI00
aa(lp1919
I194354
aF168.274
aF397.324
aVp2
p1920
aS'utopia'
p1921
aS'#656565'
p1922
aF8.88595
aI0
aI00
aI00
aI00
aI00
aI00
aI00
aI00
aI00
aa(lp1923
I50298
aF183.084
aF397.324
aVp2
p1924
aS'utopia'
p1925
aS'#656565'
p1926
aF8.88595
aI0
aI00
aI00
aI00
aI00
aI00
aI00
aI00
aI00
aa(lp1927
I85218
aF206.779
aF397.324
aVp2
p1928
aS'utopia'
p1929
aS'#656565'
p1930
aF8.88595
aI0
aI00
aI00
aI00
aI00
aI00
aI00
aI00
aI00
aa(lp1931
I234378
aF223.811
aF397.324
aVp2
p1932
aS'utopia'
p1933
aS'#656565'
p1934
aF8.88595
aI0
aI00
aI00
aI00
aI00
aI00
aI00
aI00
aI00
aa(lp1935
I72460
aF260.836
aF397.324
aVp2
p1936
aS'utopia'
p1937
aS'#656565'
p1938
aF8.88595
aI0
aI00
aI00
aI00
aI00
aI00
aI00
aI00
aI00
aa(lp1939
I234378
aF281.57
aF397.324
aVp2
p1940
aS'utopia'
p1941
aS'#656565'
p1942
aF8.88595
aI0
aI00
aI00
aI00
aI00
aI00
aI00
aI00
aI00
aa(lp1943
I183915
aF322.297
aF397.324
aVp2
p1944
aS'utopia'
p1945
aS'#656565'
p1946
aF8.88595
aI0
aI00
aI00
aI00
aI00
aI00
aI00
aI00
aI00
aa(lp1947
I22476
aF353.398
aF397.324
aVp2
p1948
aS'utopia'
p1949
aS'#656565'
p1950
aF8.88595
aI0
aI00
aI00
aI00
aI00
aI00
aI00
aI00
aI00
aa(lp1951
I166593
aF360.803
aF397.324
aVp2
p1952
aS'utopia'
p1953
aS'#656565'
p1954
aF8.88595
aI0
aI00
aI00
aI00
aI00
aI00
aI00
aI00
aI00
aa(lp1955
I137307
aF367.467
aF397.324
aVp2
p1956
aS'utopia'
p1957
aS'#656565'
p1958
aF8.88595
aI0
aI00
aI00
aI00
aI00
aI00
aI00
aI00
aI00
aa(lp1959
I145344
aF386.72
aF397.324
aVp2
p1960
aS'utopia'
p1961
aS'#656565'
p1962
aF8.88595
aI0
aI00
aI00
aI00
aI00
aI00
aI00
aI00
aI00
aa(lp1963
I63022
aF435.593
aF397.324
aVp2
p1964
aS'utopia'
p1965
aS'#656565'
p1966
aF8.88595
aI0
aI00
aI00
aI00
aI00
aI00
aI00
aI00
aI00
aa(lp1967
I135639
aF469.656
aF397.324
aVp2
p1968
aS'utopia'
p1969
aS'#656565'
p1970
aF8.88595
aI0
aI00
aI00
aI00
aI00
aI00
aI00
aI00
aI00
aa(lp1971
I194354
aF479.282
aF397.324
aVp2
p1972
aS'utopia'
p1973
aS'#656565'
p1974
aF8.88595
aI0
aI00
aI00
aI00
aI00
aI00
aI00
aI00
aI00
aa(lp1975
I13642
aF494.092
aF397.324
aVp2
p1976
aS'utopia'
p1977
aS'#656565'
p1978
aF8.88595
aI0
aI00
aI00
aI00
aI00
aI00
aI00
aI00
aI00
aa(lp1979
I224218
aF40.9084
aF407.691
aVp2
p1980
aS'utopia'
p1981
aS'#656565'
p1982
aF8.88595
aI0
aI00
aI00
aI00
aI00
aI00
aI00
aI00
aI00
aa(lp1983
I234378
aF67.03051428571429
aF407.691
ag1980
aS'utopia'
p1984
aS'#656565'
p1985
aF8.88595
aI0
aI00
aI00
aI00
aI00
aI00
aI00
aI00
aI00
aa(lp1986
I219882
aF73.4902
aF407.691
aVp2
p1987
aS'utopia'
p1988
aS'#656565'
p1989
aF8.88595
aI0
aI01
aI00
aI00
aI00
aI00
aI00
aI00
aI00
aa(lp1990
I176435
aF88.3002
aF407.691
aVp2
p1991
aS'utopia'
p1992
aS'#656565'
p1993
aF8.88595
aI0
aI00
aI00
aI00
aI00
aI00
aI00
aI00
aI00
aa(lp1994
I209115
aF106.072
aF407.691
aVp2
p1995
aS'utopia'
p1996
aS'#656565'
p1997
aF8.88595
aI0
aI00
aI00
aI00
aI00
aI00
aI00
aI00
aI00
aa(lp1998
I192678
aF123.103
aF407.691
aVp2
p1999
aS'utopia'
p2000
aS'#656565'
p2001
aF8.88595
aI0
aI00
aI00
aI00
aI00
aI00
aI00
aI00
aI00
aa(lp2002
I89480
aF161.609
aF407.691
aVp2
p2003
aS'utopia'
p2004
aS'#656565'
p2005
aF8.88595
aI0
aI00
aI00
aI00
aI00
aI00
aI00
aI00
aI00
aa(lp2006
I124634
aF171.976
aF407.691
aVp2
p2007
aS'utopia'
p2008
aS'#656565'
p2009
aF8.88595
aI0
aI00
aI00
aI00
aI00
aI00
aI00
aI00
aI00
aa(lp2010
I194354
aF207.52
aF407.691
aVp2
p2011
aS'utopia'
p2012
aS'#656565'
p2013
aF8.88595
aI0
aI00
aI00
aI00
aI00
aI00
aI00
aI00
aI00
aa(lp2014
I234378
aF222.33
aF407.691
aVp2
p2015
aS'utopia'
p2016
aS'#656565'
p2017
aF8.88595
aI0
aI00
aI00
aI00
aI00
aI00
aI00
aI00
aI00
aa(lp2018
I123665
aF254.171
aF407.691
aVp2
p2019
aS'utopia'
p2020
aS'#656565'
p2021
aF8.88595
aI0
aI00
aI00
aI00
aI00
aI00
aI00
aI00
aI00
aa(lp2022
I85218
aF300.082
aF407.691
aVp2
p2023
aS'utopia'
p2024
aS'#656565'
p2025
aF8.88595
aI0
aI00
aI00
aI00
aI00
aI00
aI00
aI00
aI00
aa(lp2026
I234378
aF317.113
aF407.691
aVp2
p2027
aS'utopia'
p2028
aS'#656565'
p2029
aF8.88595
aI0
aI00
aI00
aI00
aI00
aI00
aI00
aI00
aI00
aa(lp2030
I194354
aF367.467
aF407.691
aVp2
p2031
aS'utopia'
p2032
aS'#656565'
p2033
aF8.88595
aI0
aI00
aI00
aI00
aI00
aI00
aI00
aI00
aI00
aa(lp2034
I123665
aF382.277
aF407.691
aVp2
p2035
aS'utopia'
p2036
aS'#656565'
p2037
aF8.88595
aI0
aI00
aI00
aI00
aI00
aI00
aI00
aI00
aI00
aa(lp2038
I35885
aF428.188
aF407.691
aVp2
p2039
aS'utopia'
p2040
aS'#656565'
p2041
aF8.88595
aI0
aI00
aI00
aI00
aI00
aI00
aI00
aI00
aI00
aa(lp2042
I144483
aF453.365
aF407.691
aVp2
p2043
aS'utopia'
p2044
aS'#656565'
p2045
aF8.88595
aI0
aI00
aI00
aI00
aI00
aI00
aI00
aI00
aI00
aa(lp2046
I120218
aF465.953
aF407.691
aVp2
p2047
aS'utopia'
p2048
aS'#656565'
p2049
aF8.88595
aI0
aI00
aI00
aI00
aI00
aI00
aI00
aI00
aI00
aa(lp2050
I109318
aF505.94
aF407.691
aVp2
p2051
aS'utopia'
p2052
aS'#656565'
p2053
aF8.88595
aI0
aI00
aI00
aI00
aI00
aI00
aI00
aI00
aI00
aa(lp2054
I85218
aF527.414
aF407.691
aVp2
p2055
aS'utopia'
p2056
aS'#656565'
p2057
aF8.88595
aI0
aI00
aI00
aI00
aI00
aI00
aI00
aI00
aI00
aa(lp2058
I153278
aF40.9084
aF418.058
aVp2
p2059
aS'utopia'
p2060
aS'#656565'
p2061
aF8.88595
aI0
aI00
aI00
aI00
aI00
aI00
aI00
aI00
aI00
aa(lp2062
I1507
aF57.9398
aF418.058
aVp2
p2063
aS'utopia'
p2064
aS'#656565'
p2065
aF8.88595
aI0
aI00
aI00
aI00
aI00
aI00
aI00
aI00
aI00
aa(lp2066
I234378
aF71.70576363636363
aF418.058
ag2063
aS'utopia'
p2067
aS'#656565'
p2068
aF8.88595
aI0
aI00
aI00
aI00
aI00
aI00
aI00
aI00
aI00
aa(lp2069
I234378
aF76.29441818181817
aF418.058
ag2063
aS'utopia'
p2070
aS'#656565'
p2071
aF8.88595
aI0
aI01
aI01
aI00
aI00
aI00
aI00
aI00
aI00
aa(lp2072
I234378
aF85.47172727272726
aF418.058
ag2063
aS'utopia'
p2073
aS'#656565'
p2074
aF8.88595
aI0
aI00
aI00
aI00
aI00
aI00
aI00
aI00
aI00
aa(lp2075
I234378
aF90.06038181818181
aF418.058
ag2063
aS'utopia'
p2076
aS'#656565'
p2077
aF8.88595
aI0
aI01
aI01
aI00
aI00
aI00
aI00
aI00
aI00
aa(lp2078
I234378
aF103.82634545454545
aF418.058
ag2063
aS'utopia'
p2079
aS'#656565'
p2080
aF8.88595
aI0
aI00
aI00
aI00
aI00
aI00
aI00
aI00
aI00
aa(lp2081
I85218
aF110.515
aF418.058
aVp2
p2082
aS'utopia'
p2083
aS'#656565'
p2084
aF8.88595
aI0
aI00
aI00
aI00
aI00
aI00
aI00
aI00
aI00
aa(lp2085
I147316
aF127.546
aF418.058
aVp2
p2086
aS'utopia'
p2087
aS'#656565'
p2088
aF8.88595
aI0
aI00
aI00
aI00
aI00
aI00
aI00
aI00
aI00
aa(lp2089
I234378
aF156.804075
aF418.058
ag2086
aS'utopia'
p2090
aS'#656565'
p2091
aF8.88595
aI0
aI00
aI00
aI00
aI00
aI00
aI00
aI00
aI00
aa(lp2092
I16331
aF163.09
aF418.058
aVp2
p2093
aS'utopia'
p2094
aS'#656565'
p2095
aF8.88595
aI0
aI01
aI00
aI00
aI00
aI00
aI00
aI00
aI00
aa(lp2096
I166593
aF174.938
aF418.058
aVp2
p2097
aS'utopia'
p2098
aS'#656565'
p2099
aF8.88595
aI0
aI00
aI00
aI00
aI00
aI00
aI00
aI00
aI00
aa(lp2100
I38609
aF181.603
aF418.058
aVp2
p2101
aS'utopia'
p2102
aS'#656565'
p2103
aF8.88595
aI0
aI00
aI00
aI00
aI00
aI00
aI00
aI00
aI00
aa(lp2104
I144489
aF200.115
aF418.058
aVp2
p2105
aS'utopia'
p2106
aS'#656565'
p2107
aF8.88595
aI0
aI00
aI00
aI00
aI00
aI00
aI00
aI00
aI00
aa(lp2108
I46544
aF210.482
aF418.058
aVp2
p2109
aS'utopia'
p2110
aS'#656565'
p2111
aF8.88595
aI0
aI00
aI00
aI00
aI00
aI00
aI00
aI00
aI00
aa(lp2112
I177958
aF226.773
aF418.058
aVp2
p2113
aS'utopia'
p2114
aS'#656565'
p2115
aF8.88595
aI0
aI00
aI00
aI00
aI00
aI00
aI00
aI00
aI00
aa(lp2116
I234378
aF253.439325
aF418.058
ag2113
aS'utopia'
p2117
aS'#656565'
p2118
aF8.88595
aI0
aI00
aI00
aI00
aI00
aI00
aI00
aI00
aI00
aa(lp2119
I197030
aF259.355
aF418.058
aVp2
p2120
aS'utopia'
p2121
aS'#656565'
p2122
aF8.88595
aI0
aI01
aI01
aI00
aI00
aI00
aI00
aI00
aI00
aa(lp2123
I62551
aF264.538
aF418.058
aVp2
p2124
aS'utopia'
p2125
aS'#656565'
p2126
aF8.88595
aI0
aI00
aI00
aI00
aI00
aI00
aI00
aI00
aI00
aa(lp2127
I125458
aF285.272
aF418.058
aVp2
p2128
aS'utopia'
p2129
aS'#656565'
p2130
aF8.88595
aI0
aI00
aI00
aI00
aI00
aI00
aI00
aI00
aI00
aa(lp2131
I194939
aF317.113
aF418.058
aVp2
p2132
aS'utopia'
p2133
aS'#656565'
p2134
aF8.88595
aI0
aI00
aI00
aI00
aI00
aI00
aI00
aI00
aI00
aa(lp2135
I144483
aF345.993
aF418.058
aVp2
p2136
aS'utopia'
p2137
aS'#656565'
p2138
aF8.88595
aI0
aI00
aI00
aI00
aI00
aI00
aI00
aI00
aI00
aa(lp2139
I104512
aF358.581
aF418.058
aVp2
p2140
aS'utopia'
p2141
aS'#656565'
p2142
aF8.88595
aI0
aI00
aI00
aI00
aI00
aI00
aI00
aI00
aI00
aa(lp2143
I69391
aF369.689
aF418.058
aVp2
p2144
aS'utopia'
p2145
aS'#656565'
p2146
aF8.88595
aI0
aI01
aI01
aI00
aI00
aI00
aI00
aI00
aI00
aa(lp2147
I43275
aF380.056
aF418.058
aVp2
p2148
aS'utopia'
p2149
aS'#656565'
p2150
aF8.88595
aI0
aI00
aI00
aI00
aI00
aI00
aI00
aI00
aI00
aa(lp2151
I85218
aF412.637
aF418.058
aVp2
p2152
aS'utopia'
p2153
aS'#656565'
p2154
aF8.88595
aI0
aI00
aI00
aI00
aI00
aI00
aI00
aI00
aI00
aa(lp2155
I16326
aF429.669
aF418.058
aVp2
p2156
aS'utopia'
p2157
aS'#656565'
p2158
aF8.88595
aI0
aI00
aI00
aI00
aI00
aI00
aI00
aI00
aI00
aa(lp2159
I222718
aF444.479
aF418.058
aVp2
p2160
aS'utopia'
p2161
aS'#656565'
p2162
aF8.88595
aI0
aI00
aI00
aI00
aI00
aI00
aI00
aI00
aI00
aa(lp2163
I169745
aF477.06
aF418.058
aVp2
p2164
aS'utopia'
p2165
aS'#656565'
p2166
aF8.88595
aI0
aI00
aI00
aI00
aI00
aI00
aI00
aI00
aI00
aa(lp2167
I194354
aF496.313
aF418.058
aVp2
p2168
aS'utopia'
p2169
aS'#656565'
p2170
aF8.88595
aI0
aI00
aI00
aI00
aI00
aI00
aI00
aI00
aI00
aa(lp2171
I149270
aF511.123
aF418.058
aVp2
p2172
aS'utopia'
p2173
aS'#656565'
p2174
aF8.88595
aI0
aI00
aI00
aI00
aI00
aI00
aI00
aI00
aI00
aa(lp2175
I234378
aF40.9084
aF428.425
aVp2
p2176
aS'utopia'
p2177
aS'#656565'
p2178
aF8.88595
aI0
aI00
aI00
aI00
aI00
aI00
aI00
aI00
aI00
aa(lp2179
I234378
aF92.7431
aF428.425
aVp2
p2180
aS'utopia'
p2181
aS'#656565'
p2182
aF8.88595
aI0
aI00
aI00
aI00
aI00
aI00
aI00
aI00
aI00
aa(lp2183
I218914
aF97.21371666666667
aF428.425
ag2180
aS'utopia'
p2184
aS'#656565'
p2185
aF8.88595
aI0
aI00
aI00
aI00
aI00
aI00
aI00
aI00
aI00
aa(lp2186
I22474
aF121.622
aF428.425
aVp2
p2187
aS'utopia'
p2188
aS'#656565'
p2189
aF8.88595
aI0
aI00
aI00
aI00
aI00
aI00
aI00
aI00
aI00
aa(lp2190
I144483
aF129.768
aF428.425
aVp2
p2191
aS'utopia'
p2192
aS'#656565'
p2193
aF8.88595
aI0
aI00
aI00
aI00
aI00
aI00
aI00
aI00
aI00
aa(lp2194
I216024
aF142.356
aF428.425
aVp2
p2195
aS'utopia'
p2196
aS'#656565'
p2197
aF8.88595
aI0
aI00
aI00
aI00
aI00
aI00
aI00
aI00
aI00
aa(lp2198
I144489
aF157.907
aF428.425
aVp2
p2199
aS'utopia'
p2200
aS'#656565'
p2201
aF8.88595
aI0
aI00
aI00
aI00
aI00
aI00
aI00
aI00
aI00
aa(lp2202
I194354
aF168.274
aF428.425
aVp2
p2203
aS'utopia'
p2204
aS'#656565'
p2205
aF8.88595
aI0
aI00
aI00
aI00
aI00
aI00
aI00
aI00
aI00
aa(lp2206
I234378
aF183.084
aF428.425
aVp2
p2207
aS'utopia'
p2208
aS'#656565'
p2209
aF8.88595
aI0
aI01
aI01
aI00
aI00
aI00
aI00
aI00
aI00
aa(lp2210
I115769
aF207.52
aF428.425
aVp2
p2211
aS'utopia'
p2212
aS'#656565'
p2213
aF8.88595
aI0
aI00
aI00
aI00
aI00
aI00
aI00
aI00
aI00
aa(lp2214
I234378
aF249.61543
aF428.425
ag2211
aS'utopia'
p2215
aS'#656565'
p2216
aF8.88595
aI0
aI00
aI00
aI00
aI00
aI00
aI00
aI00
aI00
aa(lp2217
I10716
aF256.393
aF428.425
aVp2
p2218
aS'utopia'
p2219
aS'#656565'
p2220
aF8.88595
aI0
aI00
aI00
aI00
aI00
aI00
aI00
aI00
aI00
aa(lp2221
I80286
aF271.943
aF428.425
aVp2
p2222
aS'utopia'
p2223
aS'#656565'
p2224
aF8.88595
aI0
aI00
aI00
aI00
aI00
aI00
aI00
aI00
aI00
aa(lp2225
I99285
aF308.227
aF428.425
aVp2
p2226
aS'utopia'
p2227
aS'#656565'
p2228
aF8.88595
aI0
aI00
aI00
aI00
aI00
aI00
aI00
aI00
aI00
aa(lp2229
I234378
aF328.0698333333333
aF428.425
ag2226
aS'utopia'
p2230
aS'#656565'
p2231
aF8.88595
aI0
aI00
aI00
aI00
aI00
aI00
aI00
aI00
aI00
aa(lp2232
I82083
aF334.145
aF428.425
aVp2
p2233
aS'utopia'
p2234
aS'#656565'
p2235
aF8.88595
aI0
aI00
aI00
aI00
aI00
aI00
aI00
aI00
aI00
aa(lp2236
I234378
aF360.811325
aF428.425
ag2233
aS'utopia'
p2237
aS'#656565'
p2238
aF8.88595
aI0
aI00
aI00
aI00
aI00
aI00
aI00
aI00
aI00
aa(lp2239
I234378
aF366.727
aF428.425
aVp2
p2240
aS'utopia'
p2241
aS'#656565'
p2242
aF8.88595
aI0
aI00
aI00
aI00
aI00
aI00
aI00
aI00
aI00
aa(lp2243
I101954
aF383.758
aF428.425
aVp2
p2244
aS'utopia'
p2245
aS'#656565'
p2246
aF8.88595
aI0
aI00
aI00
aI00
aI00
aI00
aI00
aI00
aI00
aa(lp2247
I234378
aF401.1325
aF428.425
ag2244
aS'utopia'
p2248
aS'#656565'
p2249
aF8.88595
aI0
aI00
aI00
aI00
aI00
aI00
aI00
aI00
aI00
aa(lp2250
I86147
aF406.713
aF428.425
aVp2
p2251
aS'utopia'
p2252
aS'#656565'
p2253
aF8.88595
aI0
aI00
aI00
aI00
aI00
aI00
aI00
aI00
aI00
aa(lp2254
I234378
aF448.22498333333334
aF428.425
ag2251
aS'utopia'
p2255
aS'#656565'
p2256
aF8.88595
aI0
aI00
aI00
aI00
aI00
aI00
aI00
aI00
aI00
aa(lp2257
I234378
aF454.105
aF428.425
aVp2
p2258
aS'utopia'
p2259
aS'#656565'
p2260
aF8.88595
aI0
aI00
aI00
aI00
aI00
aI00
aI00
aI00
aI00
aa(lp2261
I85218
aF475.579
aF428.425
aVp2
p2262
aS'utopia'
p2263
aS'#656565'
p2264
aF8.88595
aI0
aI00
aI00
aI00
aI00
aI00
aI00
aI00
aI00
aa(lp2265
I211167
aF492.611
aF428.425
aVp2
p2266
aS'utopia'
p2267
aS'#656565'
p2268
aF8.88595
aI0
aI00
aI00
aI00
aI00
aI00
aI00
aI00
aI00
aa(lp2269
I151364
aF511.864
aF428.425
aVp2
p2270
aS'utopia'
p2271
aS'#656565'
p2272
aF8.88595
aI0
aI00
aI00
aI00
aI00
aI00
aI00
aI00
aI00
aa(lp2273
I172318
aF40.9084
aF438.792
aVp2
p2274
aS'utopia'
p2275
aS'#656565'
p2276
aF8.88595
aI0
aI00
aI00
aI00
aI00
aI00
aI00
aI00
aI00
aa(lp2277
I234378
aF66.2789375
aF438.792
ag2274
aS'utopia'
p2278
aS'#656565'
p2279
aF8.88595
aI0
aI00
aI00
aI00
aI00
aI00
aI00
aI00
aI00
aa(lp2280
I197030
aF72.0093
aF438.792
aVp2
p2281
aS'utopia'
p2282
aS'#656565'
p2283
aF8.88595
aI0
aI01
aI01
aI00
aI00
aI00
aI00
aI00
aI00
aa(lp2284
I62551
aF77.1927
aF438.792
aVp2
p2285
aS'utopia'
p2286
aS'#656565'
p2287
aF8.88595
aI0
aI00
aI00
aI00
aI00
aI00
aI00
aI00
aI00
aa(lp2288
I234378
aF97.9266
aF438.792
aVp2
p2289
aS'utopia'
p2290
aS'#656565'
p2291
aF8.88595
aI0
aI00
aI00
aI00
aI00
aI00
aI00
aI00
aI00
aa(lp2292
I135639
aF147.54
aF438.792
aVp2
p2293
aS'utopia'
p2294
aS'#656565'
p2295
aF8.88595
aI0
aI00
aI00
aI00
aI00
aI00
aI00
aI00
aI00
aa(lp2296
I98413
aF157.166
aF438.792
aVp2
p2297
aS'utopia'
p2298
aS'#656565'
p2299
aF8.88595
aI0
aI00
aI00
aI00
aI00
aI00
aI00
aI00
aI00
aa(lp2300
I41890
aF186.046
aF438.792
aVp2
p2301
aS'utopia'
p2302
aS'#656565'
p2303
aF8.88595
aI0
aI00
aI00
aI00
aI00
aI00
aI00
aI00
aI00
aa(lp2304
I113201
aF197.153
aF438.792
aVp2
p2305
aS'utopia'
p2306
aS'#656565'
p2307
aF8.88595
aI0
aI00
aI00
aI00
aI00
aI00
aI00
aI00
aI00
aa(lp2308
I10716
aF226.032
aF438.792
aVp2
p2309
aS'utopia'
p2310
aS'#656565'
p2311
aF8.88595
aI0
aI00
aI00
aI00
aI00
aI00
aI00
aI00
aI00
aa(lp2312
I202216
aF241.583
aF438.792
aVp2
p2313
aS'utopia'
p2314
aS'#656565'
p2315
aF8.88595
aI0
aI00
aI00
aI00
aI00
aI00
aI00
aI00
aI00
aa(lp2316
I166558
aF293.418
aF438.792
aVp2
p2317
aS'utopia'
p2318
aS'#656565'
p2319
aF8.88595
aI0
aI00
aI00
aI00
aI00
aI00
aI00
aI00
aI00
aa(lp2320
I234378
aF322.48226666666665
aF438.792
ag2317
aS'utopia'
p2321
aS'#656565'
p2322
aF8.88595
aI0
aI00
aI00
aI00
aI00
aI00
aI00
aI00
aI00
aa(lp2323
I144690
aF328.221
aF438.792
aVp2
p2324
aS'utopia'
p2325
aS'#656565'
p2326
aF8.88595
aI0
aI00
aI00
aI00
aI00
aI00
aI00
aI00
aI00
aa(lp2327
I234378
aF351.80434285714284
aF438.792
ag2324
aS'utopia'
p2328
aS'#656565'
p2329
aF8.88595
aI0
aI00
aI00
aI00
aI00
aI00
aI00
aI00
aI00
aa(lp2330
I68032
aF357.841
aF438.792
aVp2
p2331
aS'utopia'
p2332
aS'#656565'
p2333
aF8.88595
aI0
aI00
aI00
aI00
aI00
aI00
aI00
aI00
aI00
aa(lp2334
I234378
aF407.4983916666667
aF438.792
ag2331
aS'utopia'
p2335
aS'#656565'
p2336
aF8.88595
aI0
aI00
aI00
aI00
aI00
aI00
aI00
aI00
aI00
aa(lp2337
I112275
aF414.118
aF438.792
aVp2
p2338
aS'utopia'
p2339
aS'#656565'
p2340
aF8.88595
aI0
aI00
aI00
aI00
aI00
aI00
aI00
aI00
aI00
aa(lp2341
I85218
aF431.89
aF438.792
aVp2
p2342
aS'utopia'
p2343
aS'#656565'
p2344
aF8.88595
aI0
aI00
aI00
aI00
aI00
aI00
aI00
aI00
aI00
aa(lp2345
I141687
aF448.922
aF438.792
aVp2
p2346
aS'utopia'
p2347
aS'#656565'
p2348
aF8.88595
aI0
aI00
aI00
aI00
aI00
aI00
aI00
aI00
aI00
aa(lp2349
I125078
aF494.092
aF438.792
aVp2
p2350
aS'utopia'
p2351
aS'#656565'
p2352
aF8.88595
aI0
aI00
aI00
aI00
aI00
aI00
aI00
aI00
aI00
aa(lp2353
I234378
aF518.8145999999999
aF438.792
ag2350
aS'utopia'
p2354
aS'#656565'
p2355
aF8.88595
aI0
aI00
aI00
aI00
aI00
aI00
aI00
aI00
aI00
aa(lp2356
I234378
aF40.9084
aF449.159
aVp2
p2357
aS'utopia'
p2358
aS'#656565'
p2359
aF8.88595
aI0
aI00
aI00
aI00
aI00
aI00
aI00
aI00
aI00
aa(lp2360
I234378
aF49.51356
aF449.159
ag2357
aS'utopia'
p2361
aS'#656565'
p2362
aF8.88595
aI0
aI00
aI00
aI00
aI00
aI00
aI00
aI00
aI00
aa(lp2363
I234378
aF53.81614
aF449.159
ag2357
aS'utopia'
p2364
aS'#656565'
p2365
aF8.88595
aI0
aI00
aI00
aI00
aI00
aI00
aI00
aI00
aI00
aa(lp2366
I234378
aF62.723879999999994
aF449.159
ag2357
aS'utopia'
p2367
aS'#656565'
p2368
aF8.88595
aI0
aI00
aI00
aI00
aI00
aI00
aI00
aI00
aI00
aa(lp2369
I147316
aF71.02646
aF449.159
ag2357
aS'utopia'
p2370
aS'#656565'
p2371
aF8.88595
aI0
aI00
aI00
aI00
aI00
aI00
aI00
aI00
aI00
aa(lp2372
I234378
aF101.14452
aF449.159
ag2357
aS'utopia'
p2373
aS'#656565'
p2374
aF8.88595
aI0
aI00
aI00
aI00
aI00
aI00
aI00
aI00
aI00
aa(lp2375
I153278
aF107.553
aF449.159
aVp2
p2376
aS'utopia'
p2377
aS'#656565'
p2378
aF8.88595
aI0
aI00
aI00
aI00
aI00
aI00
aI00
aI00
aI00
aa(lp2379
I234378
aF124.584
aF449.159
aVp2
p2380
aS'utopia'
p2381
aS'#656565'
p2382
aF8.88595
aI0
aI00
aI00
aI00
aI00
aI00
aI00
aI00
aI00
aa(lp2383
I85218
aF144.578
aF449.159
aVp2
p2384
aS'utopia'
p2385
aS'#656565'
p2386
aF8.88595
aI0
aI00
aI00
aI00
aI00
aI00
aI00
aI00
aI00
aa(lp2387
I62551
aF161.609
aF449.159
aVp2
p2388
aS'utopia'
p2389
aS'#656565'
p2390
aF8.88595
aI0
aI00
aI00
aI00
aI00
aI00
aI00
aI00
aI00
aa(lp2391
I234378
aF182.343
aF449.159
aVp2
p2392
aS'utopia'
p2393
aS'#656565'
p2394
aF8.88595
aI0
aI00
aI00
aI00
aI00
aI00
aI00
aI00
aI00
aa(lp2395
I135639
aF231.956
aF449.159
aVp2
p2396
aS'utopia'
p2397
aS'#656565'
p2398
aF8.88595
aI0
aI00
aI00
aI00
aI00
aI00
aI00
aI00
aI00
aa(lp2399
I194354
aF241.583
aF449.159
aVp2
p2400
aS'utopia'
p2401
aS'#656565'
p2402
aF8.88595
aI0
aI00
aI00
aI00
aI00
aI00
aI00
aI00
aI00
aa(lp2403
I3878
aF256.393
aF449.159
aVp2
p2404
aS'utopia'
p2405
aS'#656565'
p2406
aF8.88595
aI0
aI00
aI00
aI00
aI00
aI00
aI00
aI00
aI00
aa(lp2407
I44160
aF303.044
aF449.159
aVp2
p2408
aS'utopia'
p2409
aS'#656565'
p2410
aF8.88595
aI0
aI00
aI00
aI00
aI00
aI00
aI00
aI00
aI00
aa(lp2411
I85218
aF332.664
aF449.159
aVp2
p2412
aS'utopia'
p2413
aS'#656565'
p2414
aF8.88595
aI0
aI00
aI00
aI00
aI00
aI00
aI00
aI00
aI00
aa(lp2415
I147316
aF349.695
aF449.159
aVp2
p2416
aS'utopia'
p2417
aS'#656565'
p2418
aF8.88595
aI0
aI00
aI00
aI00
aI00
aI00
aI00
aI00
aI00
aa(lp2419
I218768
aF383.018
aF449.159
aVp2
p2420
aS'utopia'
p2421
aS'#656565'
p2422
aF8.88595
aI0
aI00
aI00
aI00
aI00
aI00
aI00
aI00
aI00
aa(lp2423
I234378
aF412.637
aF449.159
aVp2
p2424
aS'utopia'
p2425
aS'#656565'
p2426
aF8.88595
aI0
aI00
aI00
aI00
aI00
aI00
aI00
aI00
aI00
aa(lp2427
I16331
aF448.922
aF449.159
aVp2
p2428
aS'utopia'
p2429
aS'#656565'
p2430
aF8.88595
aI0
aI00
aI00
aI00
aI00
aI00
aI00
aI00
aI00
aa(lp2431
I36088
aF459.289
aF449.159
aVp2
p2432
aS'utopia'
p2433
aS'#656565'
p2434
aF8.88595
aI0
aI00
aI00
aI00
aI00
aI00
aI00
aI00
aI00
aa(lp2435
I234378
aF473.59891999999996
aF449.159
ag2432
aS'utopia'
p2436
aS'#656565'
p2437
aF8.88595
aI0
aI00
aI00
aI00
aI00
aI00
aI00
aI00
aI00
aa(lp2438
I12878
aF479.282
aF449.159
aVp2
p2439
aS'utopia'
p2440
aS'#656565'
p2441
aF8.88595
aI0
aI01
aI00
aI00
aI00
aI00
aI00
aI00
aI00
aa(lp2442
I234378
aF528.9393916666667
aF449.159
ag2439
aS'utopia'
p2443
aS'#656565'
p2444
aF8.88595
aI0
aI00
aI00
aI00
aI00
aI00
aI00
aI00
aI00
aa(lp2445
I21716
aF535.56
aF449.159
aVp2
p2446
aS'utopia'
p2447
aS'#656565'
p2448
aF8.88595
aI0
aI01
aI00
aI00
aI00
aI00
aI00
aI00
aI00
aa(lp2449
I234378
aF40.9084
aF459.526
aVp2
p2450
aS'utopia'
p2451
aS'#656565'
p2452
aF8.88595
aI0
aI00
aI00
aI01
aI01
aI00
aI00
aI00
aI00
aa(lp2453
I234378
aF44.2695
aF459.526
ag2450
aS'utopia'
p2454
aS'#656565'
p2455
aF8.88595
aI0
aI00
aI00
aI00
aI00
aI00
aI00
aI00
aI00
aa(lp2456
I234378
aF47.6306
aF459.526
ag2450
aS'utopia'
p2457
aS'#656565'
p2458
aF8.88595
aI0
aI00
aI00
aI01
aI01
aI00
aI00
aI00
aI00
aa(lp2459
I234378
aF50.9917
aF459.526
ag2450
aS'utopia'
p2460
aS'#656565'
p2461
aF8.88595
aI0
aI00
aI00
aI00
aI00
aI00
aI00
aI00
aI00
aa(lp2462
I158645
aF56.4588
aF459.526
aVp2
p2463
aS'utopia'
p2464
aS'#656565'
p2465
aF8.88595
aI0
aI01
aI00
aI00
aI00
aI00
aI00
aI00
aI00
aa(lp2466
I234378
aF77.5358
aF459.526
ag2463
aS'utopia'
p2467
aS'#656565'
p2468
aF8.88595
aI0
aI00
aI00
aI00
aI00
aI00
aI00
aI00
aI00
aa(lp2469
I234378
aF83.8572
aF459.526
aVp2
p2470
aS'utopia'
p2471
aS'#656565'
p2472
aF8.88595
aI0
aI01
aI00
aI00
aI00
aI00
aI00
aI00
aI00
aa(lp2473
I234378
aF111.996
aF459.526
aVp2
p2474
aS'utopia'
p2475
aS'#656565'
p2476
aF8.88595
aI0
aI00
aI00
aI00
aI00
aI00
aI00
aI00
aI00
aa(lp2477
I41758
aF116.20646666666666
aF459.526
ag2474
aS'utopia'
p2478
aS'#656565'
p2479
aF8.88595
aI0
aI01
aI00
aI00
aI00
aI00
aI00
aI00
aI00
aa(lp2480
I162067
aF139.394
aF459.526
aVp2
p2481
aS'utopia'
p2482
aS'#656565'
p2483
aF8.88595
aI0
aI01
aI00
aI00
aI00
aI00
aI00
aI00
aI00
aa(lp2484
I234378
aF159.5757142857143
aF459.526
ag2481
aS'utopia'
p2485
aS'#656565'
p2486
aF8.88595
aI0
aI00
aI00
aI00
aI00
aI00
aI00
aI00
aI00
aa(lp2487
I234378
aF163.61205714285717
aF459.526
ag2481
aS'utopia'
p2488
aS'#656565'
p2489
aF8.88595
aI0
aI00
aI00
aI00
aI00
aI00
aI00
aI00
aI00
aa(lp2490
I45445
aF169.755
aF459.526
aVp2
p2491
aS'utopia'
p2492
aS'#656565'
p2493
aF8.88595
aI0
aI01
aI00
aI00
aI00
aI00
aI00
aI00
aI00
aa(lp2494
I234378
aF197.894
aF459.526
aVp2
p2495
aS'utopia'
p2496
aS'#656565'
p2497
aF8.88595
aI0
aI00
aI00
aI01
aI00
aI00
aI00
aI00
aI00
aa(lp2498
I143643
aF40.9084
aF492.741
aVp2
p2499
aS'utopia'
p2500
aS'#000000'
p2501
aF10.3669
aI1
aI01
aI00
aI00
aI00
aI00
aI00
aI00
aI00
aa(lp2502
I164802
aF86.8192
aF492.741
aVp2
p2503
aS'utopia'
p2504
aS'#000000'
p2505
aF10.3669
aI1
aI01
aI00
aI00
aI00
aI00
aI00
aI00
aI00
aa(lp2506
I83140
aF114.218
aF492.741
aVp2
p2507
aS'utopia'
p2508
aS'#000000'
p2509
aF10.3669
aI1
aI01
aI00
aI00
aI00
aI00
aI00
aI00
aI00
aa(lp2510
I40036
aF150.502
aF492.741
aVp2
p2511
aS'utopia'
p2512
aS'#000000'
p2513
aF10.3669
aI1
aI01
aI00
aI00
aI00
aI00
aI00
aI00
aI00
aa(lp2514
I149270
aF40.9084
aF509.302
aVp2
p2515
aS'utopia'
p2516
aS'#656565'
p2517
aF10.3669
aI0
aI01
aI00
aI00
aI00
aI00
aI00
aI00
aI00
aa(lp2518
I89147
aF89.7812
aF509.302
aVp2
p2519
aS'utopia'
p2520
aS'#656565'
p2521
aF10.3669
aI0
aI00
aI00
aI00
aI00
aI00
aI00
aI00
aI00
aa(lp2522
I234378
aF146.799
aF509.302
aVp2
p2523
aS'utopia'
p2524
aS'#656565'
p2525
aF10.3669
aI0
aI01
aI00
aI00
aI00
aI00
aI00
aI00
aI01
aa(lp2526
I234378
aF166.793
aF509.302
aVp2
p2527
aS'utopia'
p2528
aS'#656565'
p2529
aF10.3669
aI0
aI00
aI00
aI01
aI01
aI01
aI00
aI00
aI00
aa(lp2530
I89480
aF189.748
aF509.302
aVp2
p2531
aS'utopia'
p2532
aS'#656565'
p2533
aF10.3669
aI0
aI01
aI00
aI00
aI00
aI00
aI00
aI00
aI00
aa(lp2534
I234378
aF204.558
aF509.302
aVp2
p2535
aS'utopia'
p2536
aS'#656565'
p2537
aF10.3669
aI0
aI01
aI00
aI00
aI00
aI00
aI00
aI00
aI01
aa(lp2538
I234378
aF225.292
aF509.302
aVp2
p2539
aS'utopia'
p2540
aS'#656565'
p2541
aF10.3669
aI0
aI00
aI00
aI01
aI01
aI01
aI00
aI00
aI00
aa(lp2542
I25931
aF40.9084
aF529.132
aVp2
p2543
aS'utopia'
p2544
aS'#656565'
p2545
aF8.88595
aI0
aI01
aI00
aI00
aI00
aI00
aI00
aI00
aI00
aa(lp2546
I234378
aF62.5876
aF529.132
ag2543
aS'utopia'
p2547
aS'#656565'
p2548
aF8.88595
aI0
aI00
aI00
aI00
aI00
aI00
aI00
aI00
aI00
aa(lp2549
I234378
aF68.3068
aF529.132
aVp2
p2550
aS'utopia'
p2551
aS'#656565'
p2552
aF8.88595
aI0
aI01
aI01
aI00
aI00
aI00
aI00
aI00
aI00
aa(lp2553
I45177
aF99.4076
aF529.132
aVp2
p2554
aS'utopia'
p2555
aS'#656565'
p2556
aF8.88595
aI0
aI01
aI01
aI00
aI00
aI00
aI00
aI00
aI00
aa(lp2557
I234378
aF135.692
aF529.132
aVp2
p2558
aS'utopia'
p2559
aS'#656565'
p2560
aF8.88595
aI0
aI00
aI00
aI00
aI00
aI00
aI00
aI00
aI00
aa(lp2561
I234378
aF139.978725
aF529.132
ag2558
aS'utopia'
p2562
aS'#656565'
p2563
aF8.88595
aI0
aI00
aI00
aI01
aI01
aI01
aI00
aI00
aI00
aa(lp2564
I234378
aF148.552175
aF529.132
ag2558
aS'utopia'
p2565
aS'#656565'
p2566
aF8.88595
aI0
aI00
aI00
aI00
aI00
aI00
aI00
aI00
aI00
aa(lp2567
I234378
aF152.8389
aF529.132
ag2558
aS'utopia'
p2568
aS'#656565'
p2569
aF8.88595
aI0
aI00
aI00
aI01
aI01
aI01
aI00
aI00
aI00
aa(lp2570
I234378
aF178.641
aF529.132
aVp2
p2571
aS'utopia'
p2572
aS'#656565'
p2573
aF8.88595
aI0
aI00
aI00
aI01
aI01
aI01
aI00
aI00
aI00
aa(lp2574
I234378
aF187.27976363636364
aF529.132
ag2571
aS'utopia'
p2575
aS'#656565'
p2576
aF8.88595
aI0
aI00
aI00
aI00
aI00
aI00
aI00
aI00
aI00
aa(lp2577
I234378
aF191.59914545454546
aF529.132
ag2571
aS'utopia'
p2578
aS'#656565'
p2579
aF8.88595
aI0
aI00
aI00
aI01
aI01
aI01
aI00
aI00
aI00
aa(lp2580
I234378
aF197.2379090909091
aF529.132
ag2571
aS'utopia'
p2581
aS'#656565'
p2582
aF8.88595
aI0
aI00
aI00
aI00
aI00
aI00
aI00
aI00
aI00
aa(lp2583
I234378
aF204.55729090909094
aF529.132
ag2571
aS'utopia'
p2584
aS'#656565'
p2585
aF8.88595
aI0
aI00
aI00
aI01
aI01
aI01
aI00
aI00
aI00
aa(lp2586
I234378
aF221.8348181818182
aF529.132
ag2571
aS'utopia'
p2587
aS'#656565'
p2588
aF8.88595
aI0
aI00
aI00
aI00
aI00
aI00
aI00
aI00
aI00
aa(lp2589
I123669
aF228.254
aF529.132
aVp2
p2590
aS'utopia'
p2591
aS'#656565'
p2592
aF8.88595
aI0
aI01
aI00
aI00
aI00
aI00
aI00
aI00
aI00
aa(lp2593
I234378
aF274.1350909090909
aF529.132
ag2590
aS'utopia'
p2594
aS'#656565'
p2595
aF8.88595
aI0
aI00
aI00
aI00
aI00
aI00
aI00
aI00
aI00
aa(lp2596
I234378
aF280.829
aF529.132
aVp2
p2597
aS'utopia'
p2598
aS'#656565'
p2599
aF8.88595
aI0
aI01
aI01
aI00
aI00
aI00
aI00
aI00
aI00
aa(lp2600
I234378
aF312.67
aF529.132
aVp2
p2601
aS'utopia'
p2602
aS'#656565'
p2603
aF8.88595
aI0
aI00
aI00
aI00
aI00
aI00
aI00
aI00
aI00
aa(lp2604
I146209
aF317.92032857142857
aF529.132
ag2601
aS'utopia'
p2605
aS'#656565'
p2606
aF8.88595
aI0
aI01
aI00
aI00
aI00
aI00
aI00
aI00
aI00
aa(lp2607
I10952
aF351.917
aF529.132
aVp2
p2608
aS'utopia'
p2609
aS'#656565'
p2610
aF8.88595
aI0
aI01
aI00
aI00
aI00
aI00
aI00
aI00
aI00
aa(lp2611
I221858
aF378.575
aF529.132
aVp2
p2612
aS'utopia'
p2613
aS'#656565'
p2614
aF8.88595
aI0
aI01
aI00
aI00
aI00
aI00
aI00
aI00
aI00
aa(lp2615
I234378
aF413.33948
aF529.132
ag2612
aS'utopia'
p2616
aS'#656565'
p2617
aF8.88595
aI0
aI00
aI00
aI00
aI00
aI00
aI00
aI00
aI00
aa(lp2618
I214011
aF419.302
aF529.132
aVp2
p2619
aS'utopia'
p2620
aS'#656565'
p2621
aF8.88595
aI0
aI01
aI00
aI00
aI00
aI00
aI00
aI00
aI00
aa(lp2622
I234378
aF472.6267866666667
aF529.132
ag2619
aS'utopia'
p2623
aS'#656565'
p2624
aF8.88595
aI0
aI00
aI00
aI00
aI00
aI00
aI00
aI00
aI00
aa(lp2625
I166268
aF478.541
aF529.132
aVp2
p2626
aS'utopia'
p2627
aS'#656565'
p2628
aF8.88595
aI0
aI01
aI00
aI00
aI00
aI00
aI00
aI00
aI00
aa(lp2629
I144489
aF535.56
aF529.132
aVp2
p2630
aS'utopia'
p2631
aS'#656565'
p2632
aF8.88595
aI0
aI00
aI00
aI00
aI00
aI00
aI00
aI00
aI00
aa(lp2633
I234378
aF40.9084
aF539.499
aVp2
p2634
aS'utopia'
p2635
aS'#656565'
p2636
aF8.88595
aI0
aI00
aI00
aI00
aI00
aI00
aI00
aI00
aI00
aa(lp2637
I177958
aF72.7498
aF539.499
aVp2
p2638
aS'utopia'
p2639
aS'#656565'
p2640
aF8.88595
aI0
aI00
aI00
aI00
aI00
aI00
aI00
aI00
aI00
aa(lp2641
I234378
aF99.416125
aF539.499
ag2638
aS'utopia'
p2642
aS'#656565'
p2643
aF8.88595
aI0
aI00
aI00
aI00
aI00
aI00
aI00
aI00
aI00
aa(lp2644
I153278
aF105.332
aF539.499
aVp2
p2645
aS'utopia'
p2646
aS'#656565'
p2647
aF8.88595
aI0
aI00
aI00
aI00
aI00
aI00
aI00
aI00
aI00
aa(lp2648
I31703
aF122.363
aF539.499
aVp2
p2649
aS'utopia'
p2650
aS'#656565'
p2651
aF8.88595
aI0
aI00
aI00
aI00
aI00
aI00
aI00
aI00
aI00
aa(lp2652
I234378
aF142.77277142857142
aF539.499
ag2649
aS'utopia'
p2653
aS'#656565'
p2654
aF8.88595
aI0
aI00
aI00
aI00
aI00
aI00
aI00
aI00
aI00
aa(lp2655
I15429
aF148.28
aF539.499
aVp2
p2656
aS'utopia'
p2657
aS'#656565'
p2658
aF8.88595
aI0
aI00
aI00
aI00
aI00
aI00
aI00
aI00
aI00
aa(lp2659
I58572
aF157.96453333333332
aF539.499
ag2656
aS'utopia'
p2660
aS'#656565'
p2661
aF8.88595
aI0
aI00
aI00
aI00
aI00
aI00
aI00
aI00
aI00
aa(lp2662
I85218
aF202.337
aF539.499
aVp2
p2663
aS'utopia'
p2664
aS'#656565'
p2665
aF8.88595
aI0
aI00
aI00
aI00
aI00
aI00
aI00
aI00
aI00
aa(lp2666
I144690
aF219.368
aF539.499
aVp2
p2667
aS'utopia'
p2668
aS'#656565'
p2669
aF8.88595
aI0
aI01
aI00
aI00
aI00
aI00
aI00
aI00
aI00
aa(lp2670
I68032
aF256.393
aF539.499
aVp2
p2671
aS'utopia'
p2672
aS'#656565'
p2673
aF8.88595
aI0
aI00
aI00
aI00
aI00
aI00
aI00
aI00
aI00
aa(lp2674
I234378
aF306.05039166666666
aF539.499
ag2671
aS'utopia'
p2675
aS'#656565'
p2676
aF8.88595
aI0
aI00
aI00
aI00
aI00
aI00
aI00
aI00
aI00
aa(lp2677
I194354
aF312.67
aF539.499
aVp2
p2678
aS'utopia'
p2679
aS'#656565'
p2680
aF8.88595
aI0
aI01
aI00
aI00
aI00
aI00
aI00
aI00
aI00
aa(lp2681
I146209
aF329.702
aF539.499
aVp2
p2682
aS'utopia'
p2683
aS'#656565'
p2684
aF8.88595
aI0
aI01
aI00
aI00
aI00
aI00
aI00
aI00
aI00
aa(lp2685
I10952
aF365.986
aF539.499
aVp2
p2686
aS'utopia'
p2687
aS'#656565'
p2688
aF8.88595
aI0
aI01
aI00
aI00
aI00
aI00
aI00
aI00
aI00
aa(lp2689
I22474
aF392.644
aF539.499
aVp2
p2690
aS'utopia'
p2691
aS'#656565'
p2692
aF8.88595
aI0
aI00
aI00
aI00
aI00
aI00
aI00
aI00
aI00
aa(lp2693
I17350
aF400.789
aF539.499
aVp2
p2694
aS'utopia'
p2695
aS'#656565'
p2696
aF8.88595
aI0
aI00
aI00
aI00
aI00
aI00
aI00
aI00
aI00
aa(lp2697
I35885
aF416.1339
aF539.499
ag2694
aS'utopia'
p2698
aS'#656565'
p2699
aF8.88595
aI0
aI00
aI00
aI00
aI00
aI00
aI00
aI00
aI00
aa(lp2700
I123665
aF445.96
aF539.499
aVp2
p2701
aS'utopia'
p2702
aS'#656565'
p2703
aF8.88595
aI0
aI00
aI00
aI00
aI00
aI00
aI00
aI00
aI00
aa(lp2704
I179418
aF491.87
aF539.499
aVp2
p2705
aS'utopia'
p2706
aS'#656565'
p2707
aF8.88595
aI0
aI00
aI00
aI00
aI00
aI00
aI00
aI00
aI00
aa(lp2708
I147293
aF524.452
aF539.499
aVp2
p2709
aS'utopia'
p2710
aS'#656565'
p2711
aF8.88595
aI0
aI00
aI00
aI00
aI00
aI00
aI00
aI00
aI00
aa(lp2712
I89480
aF40.9084
aF549.866
aVp2
p2713
aS'utopia'
p2714
aS'#656565'
p2715
aF8.88595
aI0
aI00
aI00
aI00
aI00
aI00
aI00
aI00
aI00
aa(lp2716
I194354
aF51.2754
aF549.866
aVp2
p2717
aS'utopia'
p2718
aS'#656565'
p2719
aF8.88595
aI0
aI00
aI00
aI00
aI00
aI00
aI00
aI00
aI00
aa(lp2720
I91539
aF66.0853
aF549.866
aVp2
p2721
aS'utopia'
p2722
aS'#656565'
p2723
aF8.88595
aI0
aI00
aI00
aI00
aI00
aI00
aI00
aI00
aI00
aa(lp2724
I120218
aF87.5597
aF549.866
aVp2
p2725
aS'utopia'
p2726
aS'#656565'
p2727
aF8.88595
aI0
aI00
aI00
aI00
aI00
aI00
aI00
aI00
aI00
aa(lp2728
I89480
aF127.546
aF549.866
aVp2
p2729
aS'utopia'
p2730
aS'#656565'
p2731
aF8.88595
aI0
aI00
aI00
aI00
aI00
aI00
aI00
aI00
aI00
aa(lp2732
I68365
aF137.913
aF549.866
aVp2
p2733
aS'utopia'
p2734
aS'#656565'
p2735
aF8.88595
aI0
aI00
aI00
aI00
aI00
aI00
aI00
aI00
aI00
aa(lp2736
I39311
aF165.312
aF549.866
aVp2
p2737
aS'utopia'
p2738
aS'#656565'
p2739
aF8.88595
aI0
aI00
aI00
aI00
aI00
aI00
aI00
aI00
aI00
aa(lp2740
I85218
aF199.375
aF549.866
aVp2
p2741
aS'utopia'
p2742
aS'#656565'
p2743
aF8.88595
aI0
aI00
aI00
aI00
aI00
aI00
aI00
aI00
aI00
aa(lp2744
I104866
aF216.406
aF549.866
aVp2
p2745
aS'utopia'
p2746
aS'#656565'
p2747
aF8.88595
aI0
aI00
aI00
aI00
aI00
aI00
aI00
aI00
aI00
aa(lp2748
I218768
aF235.659
aF549.866
aVp2
p2749
aS'utopia'
p2750
aS'#656565'
p2751
aF8.88595
aI0
aI00
aI00
aI00
aI00
aI00
aI00
aI00
aI00
aa(lp2752
I74911
aF265.279
aF549.866
aVp2
p2753
aS'utopia'
p2754
aS'#656565'
p2755
aF8.88595
aI0
aI00
aI00
aI00
aI00
aI00
aI00
aI00
aI00
aa(lp2756
I234378
aF310.8636416666667
aF549.866
ag2753
aS'utopia'
p2757
aS'#656565'
p2758
aF8.88595
aI0
aI00
aI00
aI00
aI00
aI00
aI00
aI00
aI00
aa(lp2759
I37080
aF317.113
aF549.866
aVp2
p2760
aS'utopia'
p2761
aS'#656565'
p2762
aF8.88595
aI0
aI01
aI00
aI00
aI00
aI00
aI00
aI00
aI00
aa(lp2763
I175989
aF338.588
aF549.866
aVp2
p2764
aS'utopia'
p2765
aS'#656565'
p2766
aF8.88595
aI0
aI00
aI00
aI00
aI00
aI00
aI00
aI00
aI00
aa(lp2767
I194354
aF356.36
aF549.866
aVp2
p2768
aS'utopia'
p2769
aS'#656565'
p2770
aF8.88595
aI0
aI00
aI00
aI00
aI00
aI00
aI00
aI00
aI00
aa(lp2771
I17350
aF371.17
aF549.866
aVp2
p2772
aS'utopia'
p2773
aS'#656565'
p2774
aF8.88595
aI0
aI00
aI00
aI00
aI00
aI00
aI00
aI00
aI00
aa(lp2775
I96642
aF389.682
aF549.866
aVp2
p2776
aS'utopia'
p2777
aS'#656565'
p2778
aF8.88595
aI0
aI00
aI00
aI00
aI00
aI00
aI00
aI00
aI00
aa(lp2779
I164488
aF416.34
aF549.866
aVp2
p2780
aS'utopia'
p2781
aS'#656565'
p2782
aF8.88595
aI0
aI00
aI00
aI00
aI00
aI00
aI00
aI00
aI00
aa(lp2783
I63091
aF437.074
aF549.866
aVp2
p2784
aS'utopia'
p2785
aS'#656565'
p2786
aF8.88595
aI0
aI00
aI00
aI00
aI00
aI00
aI00
aI00
aI00
aa(lp2787
I91899
aF452.624
aF549.866
aVp2
p2788
aS'utopia'
p2789
aS'#656565'
p2790
aF8.88595
aI0
aI00
aI00
aI00
aI00
aI00
aI00
aI00
aI00
aa(lp2791
I85235
aF488.168
aF549.866
aVp2
p2792
aS'utopia'
p2793
aS'#656565'
p2794
aF8.88595
aI0
aI00
aI00
aI00
aI00
aI00
aI00
aI00
aI00
aa(lp2795
I89958
aF504.459
aF549.866
aVp2
p2796
aS'utopia'
p2797
aS'#656565'
p2798
aF8.88595
aI0
aI00
aI00
aI00
aI00
aI00
aI00
aI00
aI00
aa(lp2799
I60419
aF40.9084
aF560.233
aVp2
p2800
aS'utopia'
p2801
aS'#656565'
p2802
aF8.88595
aI0
aI00
aI00
aI00
aI00
aI00
aI00
aI00
aI00
aa(lp2803
I192651
aF81.6357
aF560.233
aVp2
p2804
aS'utopia'
p2805
aS'#656565'
p2806
aF8.88595
aI0
aI00
aI00
aI00
aI00
aI00
aI00
aI00
aI00
aa(lp2807
I216346
aF93.4836
aF560.233
aVp2
p2808
aS'utopia'
p2809
aS'#656565'
p2810
aF8.88595
aI0
aI00
aI00
aI00
aI00
aI00
aI00
aI00
aI00
aa(lp2811
I234378
aF111.35451428571429
aF560.233
ag2808
aS'utopia'
p2812
aS'#656565'
p2813
aF8.88595
aI0
aI00
aI00
aI00
aI00
aI00
aI00
aI00
aI00
aa(lp2814
I188434
aF116.439
aF560.233
aVp2
p2815
aS'utopia'
p2816
aS'#656565'
p2817
aF8.88595
aI0
aI01
aI00
aI00
aI00
aI00
aI00
aI00
aI00
aa(lp2818
I234378
aF141.29177142857142
aF560.233
ag2815
aS'utopia'
p2819
aS'#656565'
p2820
aF8.88595
aI0
aI00
aI00
aI00
aI00
aI00
aI00
aI00
aI00
aa(lp2821
I22476
aF147.54
aF560.233
aVp2
p2822
aS'utopia'
p2823
aS'#656565'
p2824
aF8.88595
aI0
aI00
aI00
aI00
aI00
aI00
aI00
aI00
aI00
aa(lp2825
I234378
aF154.945
aF560.233
aVp2
p2826
aS'utopia'
p2827
aS'#656565'
p2828
aF8.88595
aI0
aI00
aI00
aI00
aI00
aI00
aI00
aI00
aI00
aa(lp2829
I234378
aF179.381
aF560.233
aVp2
p2830
aS'utopia'
p2831
aS'#656565'
p2832
aF8.88595
aI0
aI00
aI00
aI00
aI00
aI00
aI00
aI00
aI00
aa(lp2833
I89480
aF214.925
aF560.233
aVp2
p2834
aS'utopia'
p2835
aS'#656565'
p2836
aF8.88595
aI0
aI00
aI00
aI00
aI00
aI00
aI00
aI00
aI00
aa(lp2837
I211167
aF225.292
aF560.233
aVp2
p2838
aS'utopia'
p2839
aS'#656565'
p2840
aF8.88595
aI0
aI00
aI00
aI00
aI00
aI00
aI00
aI00
aI00
aa(lp2841
I89958
aF244.545
aF560.233
aVp2
p2842
aS'utopia'
p2843
aS'#656565'
p2844
aF8.88595
aI0
aI00
aI00
aI00
aI00
aI00
aI00
aI00
aI00
aa(lp2845
I234378
aF277.867
aF560.233
aVp2
p2846
aS'utopia'
p2847
aS'#656565'
p2848
aF8.88595
aI0
aI00
aI00
aI00
aI00
aI00
aI00
aI00
aI00
aa(lp2849
I234378
aF307.12507500000004
aF560.233
ag2846
aS'utopia'
p2850
aS'#656565'
p2851
aF8.88595
aI0
aI00
aI00
aI00
aI00
aI00
aI00
aI00
aI00
aa(lp2852
I198478
aF313.411
aF560.233
aVp2
p2853
aS'utopia'
p2854
aS'#656565'
p2855
aF8.88595
aI0
aI01
aI00
aI00
aI00
aI00
aI00
aI00
aI00
aa(lp2856
I234378
aF335.626
aF560.233
aVp2
p2857
aS'utopia'
p2858
aS'#656565'
p2859
aF8.88595
aI0
aI00
aI00
aI00
aI00
aI00
aI00
aI00
aI00
aa(lp2860
I60419
aF382.277
aF560.233
aVp2
p2861
aS'utopia'
p2862
aS'#656565'
p2863
aF8.88595
aI0
aI00
aI00
aI00
aI00
aI00
aI00
aI00
aI00
aa(lp2864
I194354
aF423.004
aF560.233
aVp2
p2865
aS'utopia'
p2866
aS'#656565'
p2867
aF8.88595
aI0
aI00
aI00
aI00
aI00
aI00
aI00
aI00
aI00
aa(lp2868
I211167
aF437.814
aF560.233
aVp2
p2869
aS'utopia'
p2870
aS'#656565'
p2871
aF8.88595
aI0
aI00
aI00
aI00
aI00
aI00
aI00
aI00
aI00
aa(lp2872
I207716
aF457.067
aF560.233
aVp2
p2873
aS'utopia'
p2874
aS'#656565'
p2875
aF8.88595
aI0
aI00
aI00
aI00
aI00
aI00
aI00
aI00
aI00
aa(lp2876
I62807
aF486.687
aF560.233
aVp2
p2877
aS'utopia'
p2878
aS'#656565'
p2879
aF8.88595
aI0
aI00
aI00
aI00
aI00
aI00
aI00
aI00
aI00
aa(lp2880
I194354
aF516.307
aF560.233
aVp2
p2881
aS'utopia'
p2882
aS'#656565'
p2883
aF8.88595
aI0
aI00
aI00
aI00
aI00
aI00
aI00
aI00
aI00
aa(lp2884
I12510
aF40.9084
aF570.6
aVp2
p2885
aS'utopia'
p2886
aS'#656565'
p2887
aF8.88595
aI0
aI00
aI00
aI00
aI00
aI00
aI00
aI00
aI00
aa(lp2888
I89480
aF66.0853
aF570.6
aVp2
p2889
aS'utopia'
p2890
aS'#656565'
p2891
aF8.88595
aI0
aI00
aI00
aI00
aI00
aI00
aI00
aI00
aI00
aa(lp2892
I17350
aF76.4522
aF570.6
aVp2
p2893
aS'utopia'
p2894
aS'#656565'
p2895
aF8.88595
aI0
aI00
aI00
aI00
aI00
aI00
aI00
aI00
aI00
aa(lp2896
I96642
aF94.9646
aF570.6
aVp2
p2897
aS'utopia'
p2898
aS'#656565'
p2899
aF8.88595
aI0
aI00
aI00
aI00
aI00
aI00
aI00
aI00
aI00
aa(lp2900
I234378
aF117.91322857142858
aF570.6
ag2897
aS'utopia'
p2901
aS'#656565'
p2902
aF8.88595
aI0
aI00
aI00
aI00
aI00
aI00
aI00
aI00
aI00
aa(lp2903
I214011
aF123.844
aF570.6
aVp2
p2904
aS'utopia'
p2905
aS'#656565'
p2906
aF8.88595
aI0
aI01
aI00
aI00
aI00
aI00
aI00
aI00
aI00
aa(lp2907
I22474
aF180.862
aF570.6
aVp2
p2908
aS'utopia'
p2909
aS'#656565'
p2910
aF8.88595
aI0
aI00
aI00
aI00
aI00
aI00
aI00
aI00
aI00
aa(lp2911
I89480
aF189.008
aF570.6
aVp2
p2912
aS'utopia'
p2913
aS'#656565'
p2914
aF8.88595
aI0
aI00
aI00
aI00
aI00
aI00
aI00
aI00
aI00
aa(lp2915
I144690
aF199.375
aF570.6
aVp2
p2916
aS'utopia'
p2917
aS'#656565'
p2918
aF8.88595
aI0
aI00
aI00
aI00
aI00
aI00
aI00
aI00
aI00
aa(lp2919
I194354
aF226.773
aF570.6
aVp2
p2920
aS'utopia'
p2921
aS'#656565'
p2922
aF8.88595
aI0
aI00
aI00
aI00
aI00
aI00
aI00
aI00
aI00
aa(lp2923
I221858
aF241.583
aF570.6
aVp2
p2924
aS'utopia'
p2925
aS'#656565'
p2926
aF8.88595
aI0
aI00
aI00
aI00
aI00
aI00
aI00
aI00
aI00
aa(lp2927
I89480
aF278.608
aF570.6
aVp2
p2928
aS'utopia'
p2929
aS'#656565'
p2930
aF8.88595
aI0
aI00
aI00
aI00
aI00
aI00
aI00
aI00
aI00
aa(lp2931
I115864
aF288.975
aF570.6
aVp2
p2932
aS'utopia'
p2933
aS'#656565'
p2934
aF8.88595
aI0
aI00
aI00
aI00
aI00
aI00
aI00
aI00
aI00
aa(lp2935
I194354
aF321.556
aF570.6
aVp2
p2936
aS'utopia'
p2937
aS'#656565'
p2938
aF8.88595
aI0
aI00
aI00
aI00
aI00
aI00
aI00
aI00
aI00
aa(lp2939
I234378
aF336.366
aF570.6
aVp2
p2940
aS'utopia'
p2941
aS'#656565'
p2942
aF8.88595
aI0
aI01
aI01
aI01
aI00
aI00
aI00
aI00
aI00
aa(lp2943
I91539
aF352.657
aF570.6
aVp2
p2944
aS'utopia'
p2945
aS'#656565'
p2946
aF8.88595
aI0
aI01
aI00
aI00
aI00
aI00
aI00
aI00
aI00
aa(lp2947
I96642
aF374.872
aF570.6
aVp2
p2948
aS'utopia'
p2949
aS'#656565'
p2950
aF8.88595
aI0
aI00
aI00
aI00
aI00
aI00
aI00
aI00
aI00
aa(lp2951
I85218
aF401.53
aF570.6
aVp2
p2952
aS'utopia'
p2953
aS'#656565'
p2954
aF8.88595
aI0
aI00
aI00
aI00
aI00
aI00
aI00
aI00
aI00
aa(lp2955
I146209
aF418.561
aF570.6
aVp2
p2956
aS'utopia'
p2957
aS'#656565'
p2958
aF8.88595
aI0
aI01
aI00
aI00
aI00
aI00
aI00
aI00
aI00
aa(lp2959
I10952
aF454.846
aF570.6
aVp2
p2960
aS'utopia'
p2961
aS'#656565'
p2962
aF8.88595
aI0
aI01
aI00
aI00
aI00
aI00
aI00
aI00
aI00
aa(lp2963
I234378
aF481.503
aF570.6
aVp2
p2964
aS'utopia'
p2965
aS'#656565'
p2966
aF8.88595
aI0
aI01
aI00
aI00
aI00
aI00
aI00
aI00
aI00
aa(lp2967
I234378
aF526.0377272727272
aF570.6
ag2964
aS'utopia'
p2968
aS'#656565'
p2969
aF8.88595
aI0
aI00
aI00
aI00
aI00
aI00
aI00
aI00
aI00
aa(lp2970
I194354
aF532.598
aF570.6
aVp2
p2971
aS'utopia'
p2972
aS'#656565'
p2973
aF8.88595
aI0
aI01
aI00
aI00
aI00
aI00
aI00
aI00
aI00
aa(lp2974
I234378
aF40.9084
aF580.967
aVp2
p2975
aS'utopia'
p2976
aS'#656565'
p2977
aF8.88595
aI0
aI00
aI00
aI00
aI00
aI00
aI00
aI00
aI00
aa(lp2978
I234378
aF89.7812
aF580.967
aVp2
p2979
aS'utopia'
p2980
aS'#656565'
p2981
aF8.88595
aI0
aI00
aI00
aI00
aI00
aI00
aI00
aI00
aI00
aa(lp2982
I104380
aF154.204
aF580.967
aVp2
p2983
aS'utopia'
p2984
aS'#656565'
p2985
aF8.88595
aI0
aI00
aI00
aI00
aI00
aI00
aI00
aI00
aI00
aa(lp2986
I85218
aF174.938
aF580.967
aVp2
p2987
aS'utopia'
p2988
aS'#656565'
p2989
aF8.88595
aI0
aI00
aI00
aI00
aI00
aI00
aI00
aI00
aI00
aa(lp2990
I163825
aF191.97
aF580.967
aVp2
p2991
aS'utopia'
p2992
aS'#656565'
p2993
aF8.88595
aI0
aI00
aI00
aI00
aI00
aI00
aI00
aI00
aI00
aa(lp2994
I194354
aF222.33
aF580.967
aVp2
p2995
aS'utopia'
p2996
aS'#656565'
p2997
aF8.88595
aI0
aI00
aI00
aI00
aI00
aI00
aI00
aI00
aI00
aa(lp2998
I133864
aF237.14
aF580.967
aVp2
p2999
aS'utopia'
p3000
aS'#656565'
p3001
aF8.88595
aI0
aI01
aI01
aI00
aI00
aI00
aI00
aI00
aI00
aa(lp3002
I151364
aF253.431
aF580.967
aVp2
p3003
aS'utopia'
p3004
aS'#656565'
p3005
aF8.88595
aI0
aI00
aI00
aI00
aI00
aI00
aI00
aI00
aI00
aa(lp3006
I192651
aF288.975
aF580.967
aVp2
p3007
aS'utopia'
p3008
aS'#656565'
p3009
aF8.88595
aI0
aI00
aI00
aI00
aI00
aI00
aI00
aI00
aI00
aa(lp3010
I6514
aF300.822
aF580.967
aVp2
p3011
aS'utopia'
p3012
aS'#656565'
p3013
aF8.88595
aI0
aI00
aI00
aI00
aI00
aI00
aI00
aI00
aI00
aa(lp3014
I234378
aF328.221
aF580.967
aVp2
p3015
aS'utopia'
p3016
aS'#656565'
p3017
aF8.88595
aI0
aI00
aI00
aI00
aI00
aI00
aI00
aI00
aI00
aa(lp3018
I234378
aF380.59355833333336
aF580.967
ag3015
aS'utopia'
p3019
aS'#656565'
p3020
aF8.88595
aI0
aI00
aI00
aI00
aI00
aI00
aI00
aI00
aI00
aa(lp3021
I12878
aF387.46
aF580.967
aVp2
p3022
aS'utopia'
p3023
aS'#656565'
p3024
aF8.88595
aI0
aI01
aI00
aI00
aI00
aI00
aI00
aI00
aI00
aa(lp3025
I234378
aF441.517
aF580.967
aVp2
p3026
aS'utopia'
p3027
aS'#656565'
p3028
aF8.88595
aI0
aI00
aI00
aI00
aI00
aI00
aI00
aI00
aI00
aa(lp3029
I21716
aF445.96
aF580.967
aVp2
p3030
aS'utopia'
p3031
aS'#656565'
p3032
aF8.88595
aI0
aI01
aI00
aI00
aI00
aI00
aI00
aI00
aI00
aa(lp3033
I234378
aF462.4103272727273
aF580.967
ag3030
aS'utopia'
p3034
aS'#656565'
p3035
aF8.88595
aI0
aI00
aI00
aI00
aI00
aI00
aI00
aI00
aI00
aa(lp3036
I6514
aF466.5229090909091
aF580.967
ag3030
aS'utopia'
p3037
aS'#656565'
p3038
aF8.88595
aI0
aI01
aI00
aI00
aI00
aI00
aI00
aI00
aI00
aa(lp3039
I234378
aF493.351
aF580.967
aVp2
p3040
aS'utopia'
p3041
aS'#656565'
p3042
aF8.88595
aI0
aI00
aI00
aI00
aI00
aI00
aI00
aI00
aI00
aa(lp3043
I234378
aF40.9084
aF591.334
aVp2
p3044
aS'utopia'
p3045
aS'#656565'
p3046
aF8.88595
aI0
aI00
aI00
aI00
aI00
aI00
aI00
aI00
aI00
aa(lp3047
I234378
aF44.96592
aF591.334
ag3044
aS'utopia'
p3048
aS'#656565'
p3049
aF8.88595
aI0
aI01
aI00
aI00
aI00
aI00
aI00
aI00
aI00
aa(lp3050
I234378
aF103.851
aF591.334
aVp2
p3051
aS'utopia'
p3052
aS'#656565'
p3053
aF8.88595
aI0
aI00
aI00
aI00
aI00
aI00
aI00
aI00
aI00
aa(lp3054
I171173
aF107.57825454545454
aF591.334
ag3051
aS'utopia'
p3055
aS'#656565'
p3056
aF8.88595
aI0
aI00
aI00
aI00
aI00
aI00
aI00
aI00
aI00
aa(lp3057
I115769
aF146.799
aF591.334
aVp2
p3058
aS'utopia'
p3059
aS'#656565'
p3060
aF8.88595
aI0
aI00
aI00
aI00
aI00
aI00
aI00
aI00
aI00
aa(lp3061
I234378
aF183.88150000000002
aF591.334
ag3058
aS'utopia'
p3062
aS'#656565'
p3063
aF8.88595
aI0
aI00
aI00
aI00
aI00
aI00
aI00
aI00
aI00
aa(lp3064
I234378
aF188.0017777777778
aF591.334
ag3058
aS'utopia'
p3065
aS'#656565'
p3066
aF8.88595
aI0
aI00
aI00
aI00
aI00
aI00
aI00
aI00
aI00
aa(lp3067
I234378
aF192.12205555555556
aF591.334
ag3058
aS'utopia'
p3068
aS'#656565'
p3069
aF8.88595
aI0
aI01
aI01
aI00
aI00
aI00
aI00
aI00
aI00
aa(lp3070
I234378
aF200.4828888888889
aF591.334
ag3058
aS'utopia'
p3071
aS'#656565'
p3072
aF8.88595
aI0
aI00
aI00
aI00
aI00
aI00
aI00
aI00
aI00
aa(lp3073
I234378
aF208.60316666666668
aF591.334
ag3058
aS'utopia'
p3074
aS'#656565'
p3075
aF8.88595
aI0
aI01
aI00
aI00
aI00
aI00
aI00
aI00
aI00
aa(lp3076
I234378
aF225.44511111111112
aF591.334
ag3058
aS'utopia'
p3077
aS'#656565'
p3078
aF8.88595
aI0
aI00
aI00
aI00
aI00
aI00
aI00
aI00
aI00
aa(lp3079
I234378
aF241.5653888888889
aF591.334
ag3058
aS'utopia'
p3080
aS'#656565'
p3081
aF8.88595
aI0
aI01
aI00
aI00
aI00
aI00
aI00
aI00
aI00
aa(lp3082
I234378
aF244.16677777777778
aF591.334
ag3058
aS'utopia'
p3083
aS'#656565'
p3084
aF8.88595
aI0
aI00
aI00
aI00
aI00
aI00
aI00
aI00
aI00
aa(lp3085
I234378
aF266.2870555555555
aF591.334
ag3058
aS'utopia'
p3086
aS'#656565'
p3087
aF8.88595
aI0
aI01
aI01
aI01
aI00
aI00
aI00
aI00
aI00
aa(lp3088
I234378
aF278.6478888888889
aF591.334
ag3058
aS'utopia'
p3089
aS'#656565'
p3090
aF8.88595
aI0
aI00
aI00
aI00
aI00
aI00
aI00
aI00
aI00
aa(lp3091
I234378
aF282.7681666666667
aF591.334
ag3058
aS'utopia'
p3092
aS'#656565'
p3093
aF8.88595
aI0
aI01
aI01
aI01
aI00
aI00
aI00
aI00
aI00
aa(lp3094
I234378
aF305.265
aF591.334
aVp2
p3095
aS'utopia'
p3096
aS'#656565'
p3097
aF8.88595
aI0
aI01
aI01
aI01
aI00
aI00
aI00
aI00
aI00
aa(lp3098
I234378
aF316.66656
aF591.334
ag3095
aS'utopia'
p3099
aS'#656565'
p3100
aF8.88595
aI0
aI00
aI00
aI00
aI00
aI00
aI00
aI00
aI00
aa(lp3101
I234378
aF320.46708
aF591.334
ag3095
aS'utopia'
p3102
aS'#656565'
p3103
aF8.88595
aI0
aI00
aI00
aI00
aI00
aI00
aI00
aI00
aI00
aa(lp3104
I218862
aF324.2676
aF591.334
ag3095
aS'utopia'
p3105
aS'#656565'
p3106
aF8.88595
aI0
aI00
aI00
aI00
aI00
aI00
aI00
aI00
aI00
aa(lp3107
I234378
aF345.252
aF591.334
aVp2
p3108
aS'utopia'
p3109
aS'#656565'
p3110
aF8.88595
aI0
aI00
aI00
aI00
aI00
aI00
aI00
aI00
aI00
aa(lp3111
I85218
aF402.27
aF591.334
aVp2
p3112
aS'utopia'
p3113
aS'#656565'
p3114
aF8.88595
aI0
aI00
aI00
aI00
aI00
aI00
aI00
aI00
aI00
aa(lp3115
I144502
aF419.302
aF591.334
aVp2
p3116
aS'utopia'
p3117
aS'#656565'
p3118
aF8.88595
aI0
aI01
aI01
aI00
aI00
aI00
aI00
aI00
aI00
aa(lp3119
I234378
aF429.5479142857143
aF591.334
ag3116
aS'utopia'
p3120
aS'#656565'
p3121
aF8.88595
aI0
aI00
aI00
aI00
aI00
aI00
aI00
aI00
aI00
aa(lp3122
I234378
aF434.67087142857144
aF591.334
ag3116
aS'utopia'
p3123
aS'#656565'
p3124
aF8.88595
aI0
aI01
aI01
aI00
aI00
aI00
aI00
aI00
aI00
aa(lp3125
I234378
aF465.213
aF591.334
aVp2
p3126
aS'utopia'
p3127
aS'#656565'
p3128
aF8.88595
aI0
aI01
aI01
aI00
aI00
aI00
aI00
aI00
aI00
aa(lp3129
I234378
aF503.31493333333333
aF591.334
ag3126
aS'utopia'
p3130
aS'#656565'
p3131
aF8.88595
aI0
aI00
aI00
aI00
aI00
aI00
aI00
aI00
aI00
aa(lp3132
I234378
aF508.75806666666665
aF591.334
ag3126
aS'utopia'
p3133
aS'#656565'
p3134
aF8.88595
aI0
aI00
aI00
aI00
aI00
aI00
aI00
aI00
aI00
aa(lp3135
I234378
aF40.9084
aF624.549
aVp2
p3136
aS'utopia'
p3137
aS'#000000'
p3138
aF10.3669
aI1
aI01
aI01
aI00
aI00
aI00
aI00
aI00
aI00
aa(lp3139
I234378
aF86.0787
aF624.549
aVp2
p3140
aS'utopia'
p3141
aS'#000000'
p3142
aF10.3669
aI1
aI01
aI01
aI00
aI00
aI00
aI00
aI00
aI00
aa(lp3143
I234378
aF40.9084
aF641.11
aVp2
p3144
aS'utopia'
p3145
aS'#656565'
p3146
aF10.3669
aI0
aI01
aI00
aI00
aI00
aI00
aI00
aI00
aI00
aa(lp3147
I150037
aF83.8572
aF641.11
aVp2
p3148
aS'utopia'
p3149
aS'#656565'
p3150
aF10.3669
aI0
aI01
aI00
aI00
aI00
aI00
aI00
aI00
aI00
aa(lp3151
I27216
aF148.28
aF641.11
aVp2
p3152
aS'utopia'
p3153
aS'#656565'
p3154
aF10.3669
aI0
aI01
aI00
aI00
aI00
aI00
aI00
aI00
aI01
aa(lp3155
I234378
aF166.793
aF641.11
aVp2
p3156
aS'utopia'
p3157
aS'#656565'
p3158
aF10.3669
aI0
aI00
aI00
aI01
aI01
aI01
aI00
aI00
aI00
aa(lp3159
I89480
aF189.748
aF641.11
aVp2
p3160
aS'utopia'
p3161
aS'#656565'
p3162
aF10.3669
aI0
aI01
aI00
aI00
aI00
aI00
aI00
aI00
aI00
aa(lp3163
I234378
aF204.558
aF641.11
aVp2
p3164
aS'utopia'
p3165
aS'#656565'
p3166
aF10.3669
aI0
aI01
aI00
aI00
aI00
aI00
aI00
aI00
aI01
aa(lp3167
I234378
aF219.368
aF641.11
aVp2
p3168
aS'utopia'
p3169
aS'#656565'
p3170
aF10.3669
aI0
aI00
aI00
aI01
aI01
aI01
aI00
aI00
aI00
aa(lp3171
I177958
aF40.9084
aF660.94
aVp2
p3172
aS'utopia'
p3173
aS'#656565'
p3174
aF8.88595
aI0
aI01
aI00
aI00
aI00
aI00
aI00
aI00
aI00
aa(lp3175
I234378
aF67.574725
aF660.94
ag3172
aS'utopia'
p3176
aS'#656565'
p3177
aF8.88595
aI0
aI00
aI00
aI00
aI00
aI00
aI00
aI00
aI00
aa(lp3178
I234378
aF73.4902
aF660.94
aVp2
p3179
aS'utopia'
p3180
aS'#656565'
p3181
aF8.88595
aI0
aI01
aI00
aI00
aI00
aI00
aI00
aI00
aI00
aa(lp3182
I234378
aF87.2959625
aF660.94
ag3179
aS'utopia'
p3183
aS'#656565'
p3184
aF8.88595
aI0
aI01
aI00
aI00
aI00
aI00
aI00
aI00
aI00
aa(lp3185
I64856
aF109.775
aF660.94
aVp2
p3186
aS'utopia'
p3187
aS'#656565'
p3188
aF8.88595
aI0
aI01
aI00
aI00
aI00
aI00
aI00
aI00
aI00
aa(lp3189
I163896
aF135.692
aF660.94
aVp2
p3190
aS'utopia'
p3191
aS'#656565'
p3192
aF8.88595
aI0
aI01
aI00
aI00
aI00
aI00
aI00
aI00
aI00
aa(lp3193
I234378
aF166.24595
aF660.94
ag3190
aS'utopia'
p3194
aS'#656565'
p3195
aF8.88595
aI0
aI00
aI00
aI00
aI00
aI00
aI00
aI00
aI00
aa(lp3196
I214011
aF172.717
aF660.94
aVp2
p3197
aS'utopia'
p3198
aS'#656565'
p3199
aF8.88595
aI0
aI01
aI00
aI00
aI00
aI00
aI00
aI00
aI00
aa(lp3200
I234378
aF226.04178666666667
aF660.94
ag3197
aS'utopia'
p3201
aS'#656565'
p3202
aF8.88595
aI0
aI00
aI00
aI00
aI00
aI00
aI00
aI00
aI00
aa(lp3203
I144690
aF231.956
aF660.94
aVp2
p3204
aS'utopia'
p3205
aS'#656565'
p3206
aF8.88595
aI0
aI01
aI00
aI00
aI00
aI00
aI00
aI00
aI00
aa(lp3207
I68032
aF268.981
aF660.94
aVp2
p3208
aS'utopia'
p3209
aS'#656565'
p3210
aF8.88595
aI0
aI01
aI00
aI00
aI00
aI00
aI00
aI00
aI00
aa(lp3211
I234378
aF319.995975
aF660.94
ag3208
aS'utopia'
p3212
aS'#656565'
p3213
aF8.88595
aI0
aI00
aI00
aI00
aI00
aI00
aI00
aI00
aI00
aa(lp3214
I214011
aF326.74
aF660.94
aVp2
p3215
aS'utopia'
p3216
aS'#656565'
p3217
aF8.88595
aI0
aI01
aI00
aI00
aI00
aI00
aI00
aI00
aI00
aa(lp3218
I89480
aF383.758
aF660.94
aVp2
p3219
aS'utopia'
p3220
aS'#656565'
p3221
aF8.88595
aI0
aI00
aI00
aI00
aI00
aI00
aI00
aI00
aI00
aa(lp3222
I120366
aF394.125
aF660.94
aVp2
p3223
aS'utopia'
p3224
aS'#656565'
p3225
aF8.88595
aI0
aI00
aI00
aI00
aI00
aI00
aI00
aI00
aI00
aa(lp3226
I194354
aF427.447
aF660.94
aVp2
p3227
aS'utopia'
p3228
aS'#656565'
p3229
aF8.88595
aI0
aI00
aI00
aI00
aI00
aI00
aI00
aI00
aI00
aa(lp3230
I221291
aF442.257
aF660.94
aVp2
p3231
aS'utopia'
p3232
aS'#656565'
p3233
aF8.88595
aI0
aI00
aI00
aI00
aI00
aI00
aI00
aI00
aI00
aa(lp3234
I16331
aF463.732
aF660.94
aVp2
p3235
aS'utopia'
p3236
aS'#656565'
p3237
aF8.88595
aI0
aI00
aI00
aI00
aI00
aI00
aI00
aI00
aI00
aa(lp3238
I24385
aF474.099
aF660.94
aVp2
p3239
aS'utopia'
p3240
aS'#656565'
p3241
aF8.88595
aI0
aI00
aI00
aI00
aI00
aI00
aI00
aI00
aI00
aa(lp3242
I149270
aF489.649
aF660.94
aVp2
p3243
aS'utopia'
p3244
aS'#656565'
p3245
aF8.88595
aI0
aI00
aI00
aI00
aI00
aI00
aI00
aI00
aI00
aa(lp3246
I154204
aF40.9084
aF671.307
aVp2
p3247
aS'utopia'
p3248
aS'#656565'
p3249
aF8.88595
aI0
aI00
aI00
aI00
aI00
aI00
aI00
aI00
aI00
aa(lp3250
I234378
aF89.14787142857143
aF671.307
ag3247
aS'utopia'
p3251
aS'#656565'
p3252
aF8.88595
aI0
aI00
aI00
aI00
aI00
aI00
aI00
aI00
aI00
aa(lp3253
I210167
aF94.9646
aF671.307
aVp2
p3254
aS'utopia'
p3255
aS'#656565'
p3256
aF8.88595
aI0
aI01
aI00
aI00
aI00
aI00
aI00
aI00
aI00
aa(lp3257
I31703
aF117.18
aF671.307
aVp2
p3258
aS'utopia'
p3259
aS'#656565'
p3260
aF8.88595
aI0
aI00
aI00
aI00
aI00
aI00
aI00
aI00
aI00
aa(lp3261
I234378
aF137.58977142857142
aF671.307
ag3258
aS'utopia'
p3262
aS'#656565'
p3263
aF8.88595
aI0
aI00
aI00
aI00
aI00
aI00
aI00
aI00
aI00
aa(lp3264
I121847
aF143.097
aF671.307
aVp2
p3265
aS'utopia'
p3266
aS'#656565'
p3267
aF8.88595
aI0
aI01
aI00
aI00
aI00
aI00
aI00
aI00
aI00
aa(lp3268
I147316
aF161.609
aF671.307
aVp2
p3269
aS'utopia'
p3270
aS'#656565'
p3271
aF8.88595
aI0
aI00
aI00
aI00
aI00
aI00
aI00
aI00
aI00
aa(lp3272
I85218
aF194.932
aF671.307
aVp2
p3273
aS'utopia'
p3274
aS'#656565'
p3275
aF8.88595
aI0
aI00
aI00
aI00
aI00
aI00
aI00
aI00
aI00
aa(lp3276
I144690
aF211.963
aF671.307
aVp2
p3277
aS'utopia'
p3278
aS'#656565'
p3279
aF8.88595
aI0
aI00
aI00
aI00
aI00
aI00
aI00
aI00
aI00
aa(lp3280
I137949
aF239.361
aF671.307
aVp2
p3281
aS'utopia'
p3282
aS'#656565'
p3283
aF8.88595
aI0
aI00
aI00
aI00
aI00
aI00
aI00
aI00
aI00
aa(lp3284
I221858
aF258.614
aF671.307
aVp2
p3285
aS'utopia'
p3286
aS'#656565'
p3287
aF8.88595
aI0
aI00
aI00
aI00
aI00
aI00
aI00
aI00
aI00
aa(lp3288
I38316
aF295.639
aF671.307
aVp2
p3289
aS'utopia'
p3290
aS'#656565'
p3291
aF8.88595
aI0
aI00
aI00
aI00
aI00
aI00
aI00
aI00
aI00
aa(lp3292
I234378
aF339.06193
aF671.307
ag3289
aS'utopia'
p3293
aS'#656565'
p3294
aF8.88595
aI0
aI00
aI00
aI00
aI00
aI00
aI00
aI00
aI00
aa(lp3295
I43275
aF345.993
aF671.307
aVp2
p3296
aS'utopia'
p3297
aS'#656565'
p3298
aF8.88595
aI0
aI01
aI00
aI00
aI00
aI00
aI00
aI00
aI00
aa(lp3299
I197030
aF378.575
aF671.307
aVp2
p3300
aS'utopia'
p3301
aS'#656565'
p3302
aF8.88595
aI0
aI01
aI01
aI00
aI00
aI00
aI00
aI00
aI00
aa(lp3303
I62551
aF383.758
aF671.307
aVp2
p3304
aS'utopia'
p3305
aS'#656565'
p3306
aF8.88595
aI0
aI00
aI00
aI00
aI00
aI00
aI00
aI00
aI00
aa(lp3307
I234378
aF404.492
aF671.307
aVp2
p3308
aS'utopia'
p3309
aS'#656565'
p3310
aF8.88595
aI0
aI00
aI00
aI00
aI00
aI00
aI00
aI00
aI00
aa(lp3311
I230375
aF459.289
aF671.307
aVp2
p3312
aS'utopia'
p3313
aS'#656565'
p3314
aF8.88595
aI0
aI01
aI01
aI00
aI00
aI00
aI00
aI00
aI00
aa(lp3315
I40515
aF480.022
aF671.307
aVp2
p3316
aS'utopia'
p3317
aS'#656565'
p3318
aF8.88595
aI0
aI00
aI00
aI00
aI00
aI00
aI00
aI00
aI00
aa(lp3319
I224923
aF507.421
aF671.307
aVp2
p3320
aS'utopia'
p3321
aS'#656565'
p3322
aF8.88595
aI0
aI00
aI00
aI00
aI00
aI00
aI00
aI00
aI00
aa(lp3323
I85218
aF40.9084
aF681.674
aVp2
p3324
aS'utopia'
p3325
aS'#656565'
p3326
aF8.88595
aI0
aI00
aI00
aI00
aI00
aI00
aI00
aI00
aI00
aa(lp3327
I158472
aF57.9398
aF681.674
aVp2
p3328
aS'utopia'
p3329
aS'#656565'
p3330
aF8.88595
aI0
aI00
aI00
aI00
aI00
aI00
aI00
aI00
aI00
aa(lp3331
I194354
aF89.7812
aF681.674
aVp2
p3332
aS'utopia'
p3333
aS'#656565'
p3334
aF8.88595
aI0
aI00
aI00
aI00
aI00
aI00
aI00
aI00
aI00
aa(lp3335
I166245
aF104.591
aF681.674
aVp2
p3336
aS'utopia'
p3337
aS'#656565'
p3338
aF8.88595
aI0
aI00
aI00
aI00
aI00
aI00
aI00
aI00
aI00
aa(lp3339
I132957
aF140.135
aF681.674
aVp2
p3340
aS'utopia'
p3341
aS'#656565'
p3342
aF8.88595
aI0
aI00
aI00
aI00
aI00
aI00
aI00
aI00
aI00
aa(lp3343
I85218
aF159.388
aF681.674
aVp2
p3344
aS'utopia'
p3345
aS'#656565'
p3346
aF8.88595
aI0
aI00
aI00
aI00
aI00
aI00
aI00
aI00
aI00
aa(lp3347
I53211
aF176.419
aF681.674
aVp2
p3348
aS'utopia'
p3349
aS'#656565'
p3350
aF8.88595
aI0
aI00
aI00
aI00
aI00
aI00
aI00
aI00
aI00
aa(lp3351
I194354
aF198.634
aF681.674
aVp2
p3352
aS'utopia'
p3353
aS'#656565'
p3354
aF8.88595
aI0
aI00
aI00
aI00
aI00
aI00
aI00
aI00
aI00
aa(lp3355
I137949
aF213.444
aF681.674
aVp2
p3356
aS'utopia'
p3357
aS'#656565'
p3358
aF8.88595
aI0
aI00
aI00
aI00
aI00
aI00
aI00
aI00
aI00
aa(lp3359
I221858
aF232.697
aF681.674
aVp2
p3360
aS'utopia'
p3361
aS'#656565'
p3362
aF8.88595
aI0
aI00
aI00
aI00
aI00
aI00
aI00
aI00
aI00
aa(lp3363
I190806
aF269.722
aF681.674
aVp2
p3364
aS'utopia'
p3365
aS'#656565'
p3366
aF8.88595
aI0
aI00
aI00
aI00
aI00
aI00
aI00
aI00
aI00
aa(lp3367
I127730
aF283.791
aF681.674
aVp2
p3368
aS'utopia'
p3369
aS'#656565'
p3370
aF8.88595
aI0
aI00
aI00
aI00
aI00
aI00
aI00
aI00
aI00
aa(lp3371
I234378
aF316.2887625
aF681.674
ag3368
aS'utopia'
p3372
aS'#656565'
p3373
aF8.88595
aI0
aI00
aI00
aI00
aI00
aI00
aI00
aI00
aI00
aa(lp3374
I141000
aF323.037
aF681.674
aVp2
p3375
aS'utopia'
p3376
aS'#656565'
p3377
aF8.88595
aI0
aI00
aI00
aI00
aI00
aI00
aI00
aI00
aI00
aa(lp3378
I127730
aF351.176
aF681.674
aVp2
p3379
aS'utopia'
p3380
aS'#656565'
p3381
aF8.88595
aI0
aI00
aI00
aI00
aI00
aI00
aI00
aI00
aI00
aa(lp3382
I85218
aF388.201
aF681.674
aVp2
p3383
aS'utopia'
p3384
aS'#656565'
p3385
aF8.88595
aI0
aI00
aI00
aI00
aI00
aI00
aI00
aI00
aI00
aa(lp3386
I141547
aF405.232
aF681.674
aVp2
p3387
aS'utopia'
p3388
aS'#656565'
p3389
aF8.88595
aI0
aI01
aI00
aI00
aI00
aI00
aI00
aI00
aI00
aa(lp3390
I224923
aF420.042
aF681.674
aVp2
p3391
aS'utopia'
p3392
aS'#656565'
p3393
aF8.88595
aI0
aI00
aI00
aI00
aI00
aI00
aI00
aI00
aI00
aa(lp3394
I234378
aF460.53772727272724
aF681.674
ag3391
aS'utopia'
p3395
aS'#656565'
p3396
aF8.88595
aI0
aI00
aI00
aI00
aI00
aI00
aI00
aI00
aI00
aa(lp3397
I12878
aF466.694
aF681.674
aVp2
p3398
aS'utopia'
p3399
aS'#656565'
p3400
aF8.88595
aI0
aI01
aI00
aI00
aI00
aI00
aI00
aI00
aI00
aa(lp3401
I234378
aF516.3513916666667
aF681.674
ag3398
aS'utopia'
p3402
aS'#656565'
p3403
aF8.88595
aI0
aI00
aI00
aI00
aI00
aI00
aI00
aI00
aI00
aa(lp3404
I73953
aF522.971
aF681.674
aVp2
p3405
aS'utopia'
p3406
aS'#656565'
p3407
aF8.88595
aI0
aI01
aI00
aI00
aI00
aI00
aI00
aI00
aI00
aa(lp3408
I183441
aF40.9084
aF692.041
aVp2
p3409
aS'utopia'
p3410
aS'#656565'
p3411
aF8.88595
aI0
aI01
aI00
aI00
aI00
aI00
aI00
aI00
aI00
aa(lp3412
I234378
aF60.134150000000005
aF692.041
ag3409
aS'utopia'
p3413
aS'#656565'
p3414
aF8.88595
aI0
aI00
aI00
aI00
aI00
aI00
aI00
aI00
aI00
aa(lp3415
I233063
aF66.0853
aF692.041
aVp2
p3416
aS'utopia'
p3417
aS'#656565'
p3418
aF8.88595
aI0
aI01
aI01
aI00
aI00
aI00
aI00
aI00
aI00
aa(lp3419
I234378
aF70.21578500000001
aF692.041
ag3416
aS'utopia'
p3420
aS'#656565'
p3421
aF8.88595
aI0
aI00
aI00
aI00
aI00
aI00
aI00
aI00
aI00
aa(lp3422
I234378
aF76.4522
aF692.041
aVp2
p3423
aS'utopia'
p3424
aS'#656565'
p3425
aF8.88595
aI0
aI01
aI00
aI00
aI00
aI00
aI00
aI00
aI00
aa(lp3426
I234378
aF114.958
aF692.041
aVp2
p3427
aS'utopia'
p3428
aS'#656565'
p3429
aF8.88595
aI0
aI00
aI00
aI00
aI00
aI00
aI00
aI00
aI00
aa(lp3430
I234378
aF119.94724285714285
aF692.041
ag3427
aS'utopia'
p3431
aS'#656565'
p3432
aF8.88595
aI0
aI01
aI00
aI00
aI00
aI00
aI00
aI00
aI00
aa(lp3433
I234378
aF144.89345714285713
aF692.041
ag3427
aS'utopia'
p3434
aS'#656565'
p3435
aF8.88595
aI0
aI00
aI00
aI00
aI00
aI00
aI00
aI00
aI00
aa(lp3436
I85218
aF151.983
aF692.041
aVp2
p3437
aS'utopia'
p3438
aS'#656565'
p3439
aF8.88595
aI0
aI00
aI00
aI00
aI00
aI00
aI00
aI00
aI00
aa(lp3440
I234378
aF169.014
aF692.041
aVp2
p3441
aS'utopia'
p3442
aS'#656565'
p3443
aF8.88595
aI0
aI01
aI00
aI00
aI00
aI00
aI00
aI00
aI00
aa(lp3444
I144502
aF207.52
aF692.041
aVp2
p3445
aS'utopia'
p3446
aS'#656565'
p3447
aF8.88595
aI0
aI01
aI01
aI00
aI00
aI00
aI00
aI00
aI00
aa(lp3448
I234378
aF216.48293333333334
aF692.041
ag3445
aS'utopia'
p3449
aS'#656565'
p3450
aF8.88595
aI0
aI00
aI00
aI00
aI00
aI00
aI00
aI00
aI00
aa(lp3451
I124531
aF40.1679
aF727.603
aVp2
p3452
aS'utopia'
p3453
aS'#02304b'
p3454
aF11.8479
aI1
aI01
aI00
aI00
aI00
aI00
aI00
aI00
aI00
aa(lp3455
I234378
aF40.9084
aF755.887
aVp2
p3456
aS'utopia'
p3457
aS'#656565'
p3458
aF10.3669
aI0
aI01
aI00
aI00
aI00
aI00
aI00
aI00
aI00
aa(lp3459
I234378
aF117.18
aF755.887
aVp2
p3460
aS'utopia'
p3461
aS'#656565'
p3462
aF10.3669
aI0
aI00
aI00
aI00
aI00
aI00
aI00
aI00
aI00
aa(lp3463
I60201
aF123.103
aF755.887
aVp2
p3464
aS'utopia'
p3465
aS'#656565'
p3466
aF10.3669
aI0
aI01
aI00
aI00
aI00
aI00
aI00
aI00
aI00
aa(lp3467
I230071
aF143.097
aF755.887
aVp2
p3468
aS'utopia'
p3469
aS'#656565'
p3470
aF10.3669
aI0
aI01
aI00
aI00
aI00
aI00
aI00
aI00
aI00
aa(lp3471
I234378
aF169.755
aF755.887
aVp2
p3472
aS'utopia'
p3473
aS'#656565'
p3474
aF10.3669
aI0
aI00
aI00
aI00
aI00
aI00
aI00
aI00
aI00
aa(lp3475
I27780
aF40.9084
aF771.908
aVp2
p3476
aS'utopia'
p3477
aS'#000000'
p3478
aF10.3669
aI1
aI01
aI01
aI00
aI00
aI00
aI00
aI00
aI00
aa(lp3479
I234378
aF46.15191818181818
aF771.908
ag3476
aS'utopia'
p3480
aS'#000000'
p3481
aF10.3669
aI1
aI00
aI00
aI00
aI00
aI00
aI00
aI00
aI00
aa(lp3482
I2737
aF51.395436363636364
aF771.908
ag3476
aS'utopia'
p3483
aS'#000000'
p3484
aF10.3669
aI1
aI01
aI00
aI00
aI00
aI00
aI00
aI00
aI00
aa(lp3485
I234378
aF72.36950909090909
aF771.908
ag3476
aS'utopia'
p3486
aS'#000000'
p3487
aF10.3669
aI1
aI00
aI00
aI00
aI00
aI00
aI00
aI00
aI00
aa(lp3488
I27780
aF70.61302727272727
aF771.908
ag3476
aS'utopia'
p3489
aS'#000000'
p3490
aF10.3669
aI1
aI01
aI01
aI00
aI00
aI00
aI00
aI00
aI00
aa(lp3491
I234378
aF75.85654545454545
aF771.908
ag3476
aS'utopia'
p3492
aS'#000000'
p3493
aF10.3669
aI1
aI00
aI00
aI00
aI00
aI00
aI00
aI00
aI00
aa(lp3494
I64620
aF88.10006363636364
aF771.908
ag3476
aS'utopia'
p3495
aS'#000000'
p3496
aF10.3669
aI1
aI01
aI01
aI00
aI00
aI00
aI00
aI00
aI00
aa(lp3497
I234378
aF84.34358181818183
aF771.908
ag3476
aS'utopia'
p3498
aS'#000000'
p3499
aF10.3669
aI1
aI00
aI00
aI00
aI00
aI00
aI00
aI00
aI00
aa(lp3500
I234378
aF100.889
aF771.908
aVp2
p3501
aS'utopia'
p3502
aS'#000000'
p3503
aF10.3669
aI1
aI00
aI00
aI00
aI00
aI00
aI00
aI00
aI00
aa(lp3504
I234378
aF106.48095454545454
aF771.908
ag3501
aS'utopia'
p3505
aS'#000000'
p3506
aF10.3669
aI1
aI01
aI00
aI00
aI00
aI00
aI00
aI00
aI00
aa(lp3507
I234378
aF156.80854545454542
aF771.908
ag3501
aS'utopia'
p3508
aS'#000000'
p3509
aF10.3669
aI1
aI00
aI00
aI00
aI00
aI00
aI00
aI00
aI00
aa(lp3510
I234378
aF40.9084
aF792.171
aVp2
p3511
aS'utopia'
p3512
aS'#656565'
p3513
aF10.3669
aI0
aI00
aI00
aI00
aI00
aI00
aI00
aI00
aI00
aa(lp3514
I41479
aF94.2241
aF792.171
aVp2
p3515
aS'utopia'
p3516
aS'#656565'
p3517
aF10.3669
aI0
aI00
aI00
aI00
aI00
aI00
aI00
aI00
aI00
aa(lp3518
I144489
aF129.027
aF792.171
aVp2
p3519
aS'utopia'
p3520
aS'#656565'
p3521
aF10.3669
aI0
aI00
aI00
aI00
aI00
aI00
aI00
aI00
aI00
aa(lp3522
I199937
aF140.135
aF792.171
aVp2
p3523
aS'utopia'
p3524
aS'#656565'
p3525
aF10.3669
aI0
aI00
aI00
aI00
aI00
aI00
aI00
aI00
aI00
aa(lp3526
I135639
aF202.337
aF792.171
aVp2
p3527
aS'utopia'
p3528
aS'#656565'
p3529
aF10.3669
aI0
aI00
aI00
aI00
aI00
aI00
aI00
aI00
aI00
aa(lp3530
I234378
aF214.184
aF792.171
aVp2
p3531
aS'utopia'
p3532
aS'#656565'
p3533
aF10.3669
aI0
aI00
aI00
aI01
aI01
aI01
aI00
aI00
aI00
aa(lp3534
I234378
aF40.1679
aF41.1632
aVp3
p3535
aS'utopia'
p3536
aS'#02304b'
p3537
aF11.8479
aI1
aI01
aI00
aI00
aI00
aI00
aI00
aI00
aI00
aa(lp3538
I22476
aF40.1679
aF113.732
aVp3
p3539
aS'utopia'
p3540
aS'#02304b'
p3541
aF11.8479
aI1
aI01
aI01
aI00
aI00
aI00
aI00
aI00
aI00
aa(lp3542
I234378
aF54.2374
aF113.732
aVp3
p3543
aS'utopia'
p3544
aS'#02304b'
p3545
aF11.8479
aI1
aI01
aI00
aI00
aI00
aI00
aI00
aI00
aI00
aa(lp3546
I109610
aF48.3134
aF141.622
aVp3
p3547
aS'utopia'
p3548
aS'#000000'
p3549
aF8.88595
aI1
aI01
aI00
aI00
aI00
aI00
aI00
aI00
aI00
aa(lp3550
I158577
aF69.7878
aF141.622
aVp3
p3551
aS'utopia'
p3552
aS'#000000'
p3553
aF8.88595
aI1
aI01
aI00
aI00
aI00
aI00
aI00
aI00
aI00
aa(lp3554
I194179
aF188.267
aF141.622
aVp3
p3555
aS'utopia'
p3556
aS'#000000'
p3557
aF8.88595
aI1
aI01
aI00
aI00
aI00
aI00
aI00
aI00
aI00
aa(lp3558
I177981
aF305.265
aF141.622
aVp3
p3559
aS'utopia'
p3560
aS'#000000'
p3561
aF8.88595
aI1
aI01
aI00
aI00
aI00
aI00
aI00
aI00
aI00
aa(lp3562
I25729
aF324.518
aF141.622
aVp3
p3563
aS'utopia'
p3564
aS'#000000'
p3565
aF8.88595
aI1
aI01
aI00
aI00
aI00
aI00
aI00
aI00
aI00
aa(lp3566
I60220
aF412.637
aF141.622
aVp3
p3567
aS'utopia'
p3568
aS'#000000'
p3569
aF8.88595
aI1
aI01
aI00
aI00
aI00
aI00
aI00
aI00
aI00
aa(lp3570
I208006
aF48.3134
aF160.365
aVp3
p3571
aS'utopia'
p3572
aS'#656565'
p3573
aF8.88595
aI0
aI01
aI00
aI00
aI00
aI00
aI00
aI00
aI00
aa(lp3574
I234378
aF83.1167
aF160.365
aVp3
p3575
aS'utopia'
p3576
aS'#656565'
p3577
aF8.88595
aI0
aI01
aI01
aI00
aI00
aI00
aI00
aI00
aI00
aa(lp3578
I234378
aF188.267
aF160.365
aVp3
p3579
aS'utopia'
p3580
aS'#656565'
p3581
aF8.88595
aI0
aI00
aI00
aI01
aI01
aI00
aI00
aI00
aI00
aa(lp3582
I234378
aF192.0465
aF160.365
ag3579
aS'utopia'
p3583
aS'#656565'
p3584
aF8.88595
aI0
aI00
aI00
aI00
aI00
aI00
aI00
aI00
aI00
aa(lp3585
I234378
aF193.82600000000002
aF160.365
ag3579
aS'utopia'
p3586
aS'#656565'
p3587
aF8.88595
aI0
aI00
aI00
aI01
aI01
aI00
aI00
aI00
aI00
aa(lp3588
I234378
aF317.113
aF160.365
aVp3
p3589
aS'utopia'
p3590
aS'#656565'
p3591
aF8.88595
aI0
aI00
aI00
aI01
aI01
aI01
aI00
aI00
aI00
aa(lp3592
I234378
aF404.492
aF160.365
aVp3
p3593
aS'utopia'
p3594
aS'#656565'
p3595
aF8.88595
aI0
aI00
aI00
aI01
aI01
aI00
aI00
aI00
aI00
aa(lp3596
I234378
aF411.156
aF160.365
aVp3
p3597
aS'utopia'
p3598
aS'#656565'
p3599
aF8.88595
aI0
aI01
aI00
aI00
aI00
aI00
aI00
aI00
aI00
aa(lp3600
I234378
aF434.852
aF160.365
aVp3
p3601
aS'utopia'
p3602
aS'#656565'
p3603
aF8.88595
aI0
aI00
aI00
aI01
aI01
aI00
aI00
aI00
aI00
aa(lp3604
I63729
aF441.517
aF160.365
aVp3
p3605
aS'utopia'
p3606
aS'#656565'
p3607
aF8.88595
aI0
aI01
aI00
aI00
aI00
aI00
aI00
aI00
aI00
aa(lp3608
I234378
aF48.3134
aF178.878
aVp3
p3609
aS'utopia'
p3610
aS'#656565'
p3611
aF8.88595
aI0
aI01
aI00
aI00
aI00
aI00
aI00
aI00
aI00
aa(lp3612
I15316
aF78.6737
aF178.878
aVp3
p3613
aS'utopia'
p3614
aS'#656565'
p3615
aF8.88595
aI0
aI01
aI00
aI00
aI00
aI00
aI00
aI00
aI00
aa(lp3616
I234378
aF188.267
aF178.878
aVp3
p3617
aS'utopia'
p3618
aS'#656565'
p3619
aF8.88595
aI0
aI00
aI00
aI01
aI01
aI00
aI00
aI00
aI00
aa(lp3620
I234378
aF192.0465
aF178.878
ag3617
aS'utopia'
p3621
aS'#656565'
p3622
aF8.88595
aI0
aI00
aI00
aI00
aI00
aI00
aI00
aI00
aI00
aa(lp3623
I234378
aF195.82600000000002
aF178.878
ag3617
aS'utopia'
p3624
aS'#656565'
p3625
aF8.88595
aI0
aI00
aI00
aI01
aI01
aI00
aI00
aI00
aI00
aa(lp3626
I234378
aF317.113
aF178.878
aVp3
p3627
aS'utopia'
p3628
aS'#656565'
p3629
aF8.88595
aI0
aI00
aI00
aI01
aI01
aI01
aI00
aI00
aI00
aa(lp3630
I234378
aF403.011
aF178.878
aVp3
p3631
aS'utopia'
p3632
aS'#656565'
p3633
aF8.88595
aI0
aI00
aI00
aI01
aI01
aI00
aI00
aI00
aI00
aa(lp3634
I234378
aF409.675
aF178.878
aVp3
p3635
aS'utopia'
p3636
aS'#656565'
p3637
aF8.88595
aI0
aI01
aI00
aI00
aI00
aI00
aI00
aI00
aI00
aa(lp3638
I234378
aF433.371
aF178.878
aVp3
p3639
aS'utopia'
p3640
aS'#656565'
p3641
aF8.88595
aI0
aI00
aI00
aI01
aI01
aI00
aI00
aI00
aI00
aa(lp3642
I234378
aF440.036
aF178.878
aVp3
p3643
aS'utopia'
p3644
aS'#656565'
p3645
aF8.88595
aI0
aI01
aI00
aI00
aI00
aI00
aI00
aI00
aI00
aa(lp3646
I234378
aF48.3134
aF197.39
aVp3
p3647
aS'utopia'
p3648
aS'#656565'
p3649
aF8.88595
aI0
aI01
aI00
aI00
aI00
aI00
aI00
aI00
aI00
aa(lp3650
I234378
aF317.113
aF197.39
aVp3
p3651
aS'utopia'
p3652
aS'#656565'
p3653
aF8.88595
aI0
aI00
aI00
aI01
aI01
aI01
aI00
aI00
aI00
aa(lp3654
I234378
aF417.821
aF197.39
aVp3
p3655
aS'utopia'
p3656
aS'#656565'
p3657
aF8.88595
aI0
aI00
aI00
aI01
aI01
aI00
aI00
aI00
aI00
aa(lp3658
I234378
aF424.485
aF197.39
aVp3
p3659
aS'utopia'
p3660
aS'#656565'
p3661
aF8.88595
aI0
aI01
aI00
aI00
aI00
aI00
aI00
aI00
aI00
aa(lp3662
I234378
aF48.3134
aF215.902
aVp3
p3663
aS'utopia'
p3664
aS'#656565'
p3665
aF8.88595
aI0
aI00
aI00
aI00
aI00
aI00
aI00
aI00
aI00
aa(lp3666
I234378
aF317.113
aF215.902
aVp3
p3667
aS'utopia'
p3668
aS'#656565'
p3669
aF8.88595
aI0
aI00
aI00
aI01
aI01
aI01
aI00
aI00
aI00
aa(lp3670
I234378
aF403.011
aF215.902
aVp3
p3671
aS'utopia'
p3672
aS'#656565'
p3673
aF8.88595
aI0
aI00
aI00
aI01
aI01
aI00
aI00
aI00
aI00
aa(lp3674
I234378
aF409.675
aF215.902
aVp3
p3675
aS'utopia'
p3676
aS'#656565'
p3677
aF8.88595
aI0
aI01
aI00
aI00
aI00
aI00
aI00
aI00
aI00
aa(lp3678
I234378
aF433.371
aF215.902
aVp3
p3679
aS'utopia'
p3680
aS'#656565'
p3681
aF8.88595
aI0
aI00
aI00
aI01
aI01
aI00
aI00
aI00
aI00
aa(lp3682
I234378
aF440.036
aF215.902
aVp3
p3683
aS'utopia'
p3684
aS'#656565'
p3685
aF8.88595
aI0
aI01
aI00
aI00
aI00
aI00
aI00
aI00
aI00
aa(lp3686
I6514
aF48.3134
aF234.415
aVp3
p3687
aS'utopia'
p3688
aS'#656565'
p3689
aF8.88595
aI0
aI01
aI00
aI00
aI00
aI00
aI00
aI00
aI00
aa(lp3690
I234378
aF76.4522
aF234.415
aVp3
p3691
aS'utopia'
p3692
aS'#656565'
p3693
aF8.88595
aI0
aI01
aI00
aI00
aI00
aI00
aI00
aI00
aI00
aa(lp3694
I234378
aF317.113
aF234.415
aVp3
p3695
aS'utopia'
p3696
aS'#656565'
p3697
aF8.88595
aI0
aI00
aI00
aI01
aI01
aI01
aI00
aI00
aI00
aa(lp3698
I234378
aF403.011
aF234.415
aVp3
p3699
aS'utopia'
p3700
aS'#656565'
p3701
aF8.88595
aI0
aI00
aI00
aI01
aI01
aI00
aI00
aI00
aI00
aa(lp3702
I234378
aF409.675
aF234.415
aVp3
p3703
aS'utopia'
p3704
aS'#656565'
p3705
aF8.88595
aI0
aI01
aI00
aI00
aI00
aI00
aI00
aI00
aI00
aa(lp3706
I234378
aF433.371
aF234.415
aVp3
p3707
aS'utopia'
p3708
aS'#656565'
p3709
aF8.88595
aI0
aI00
aI00
aI01
aI01
aI00
aI00
aI00
aI00
aa(lp3710
I234378
aF440.036
aF234.415
aVp3
p3711
aS'utopia'
p3712
aS'#656565'
p3713
aF8.88595
aI0
aI01
aI00
aI00
aI00
aI00
aI00
aI00
aI00
aa(lp3714
I234378
aF48.3134
aF252.927
aVp3
p3715
aS'utopia'
p3716
aS'#656565'
p3717
aF8.88595
aI0
aI01
aI00
aI00
aI00
aI00
aI00
aI00
aI00
aa(lp3718
I234378
aF317.113
aF252.927
aVp3
p3719
aS'utopia'
p3720
aS'#656565'
p3721
aF8.88595
aI0
aI00
aI00
aI01
aI01
aI01
aI00
aI00
aI00
aa(lp3722
I234378
aF403.011
aF252.927
aVp3
p3723
aS'utopia'
p3724
aS'#656565'
p3725
aF8.88595
aI0
aI00
aI00
aI01
aI01
aI00
aI00
aI00
aI00
aa(lp3726
I234378
aF409.675
aF252.927
aVp3
p3727
aS'utopia'
p3728
aS'#656565'
p3729
aF8.88595
aI0
aI01
aI00
aI00
aI00
aI00
aI00
aI00
aI00
aa(lp3730
I234378
aF433.371
aF252.927
aVp3
p3731
aS'utopia'
p3732
aS'#656565'
p3733
aF8.88595
aI0
aI00
aI00
aI01
aI01
aI00
aI00
aI00
aI00
aa(lp3734
I234378
aF440.036
aF252.927
aVp3
p3735
aS'utopia'
p3736
aS'#656565'
p3737
aF8.88595
aI0
aI01
aI00
aI00
aI00
aI00
aI00
aI00
aI00
aa(lp3738
I234378
aF48.3134
aF271.44
aVp3
p3739
aS'utopia'
p3740
aS'#656565'
p3741
aF8.88595
aI0
aI01
aI01
aI00
aI00
aI00
aI00
aI00
aI00
aa(lp3742
I234378
aF317.113
aF271.44
aVp3
p3743
aS'utopia'
p3744
aS'#656565'
p3745
aF8.88595
aI0
aI00
aI00
aI01
aI01
aI01
aI00
aI00
aI00
aa(lp3746
I234378
aF403.011
aF271.44
aVp3
p3747
aS'utopia'
p3748
aS'#656565'
p3749
aF8.88595
aI0
aI00
aI00
aI01
aI01
aI00
aI00
aI00
aI00
aa(lp3750
I234378
aF409.675
aF271.44
aVp3
p3751
aS'utopia'
p3752
aS'#656565'
p3753
aF8.88595
aI0
aI01
aI00
aI00
aI00
aI00
aI00
aI00
aI00
aa(lp3754
I234378
aF433.371
aF271.44
aVp3
p3755
aS'utopia'
p3756
aS'#656565'
p3757
aF8.88595
aI0
aI00
aI00
aI01
aI01
aI00
aI00
aI00
aI00
aa(lp3758
I234378
aF440.036
aF271.44
aVp3
p3759
aS'utopia'
p3760
aS'#656565'
p3761
aF8.88595
aI0
aI01
aI00
aI00
aI00
aI00
aI00
aI00
aI00
aa(lp3762
I208006
aF48.3134
aF289.952
aVp3
p3763
aS'utopia'
p3764
aS'#656565'
p3765
aF8.88595
aI0
aI01
aI01
aI00
aI00
aI00
aI00
aI00
aI00
aa(lp3766
I234378
aF188.267
aF289.952
aVp3
p3767
aS'utopia'
p3768
aS'#656565'
p3769
aF8.88595
aI0
aI00
aI00
aI01
aI01
aI00
aI00
aI00
aI00
aa(lp3770
I234378
aF192.0465
aF289.952
ag3767
aS'utopia'
p3771
aS'#656565'
p3772
aF8.88595
aI0
aI00
aI00
aI00
aI00
aI00
aI00
aI00
aI00
aa(lp3773
I234378
aF195.82600000000002
aF289.952
ag3767
aS'utopia'
p3774
aS'#656565'
p3775
aF8.88595
aI0
aI00
aI00
aI01
aI01
aI00
aI00
aI00
aI00
aa(lp3776
I234378
aF317.113
aF289.952
aVp3
p3777
aS'utopia'
p3778
aS'#656565'
p3779
aF8.88595
aI0
aI00
aI00
aI01
aI01
aI01
aI00
aI00
aI00
aa(lp3780
I234378
aF403.011
aF289.952
aVp3
p3781
aS'utopia'
p3782
aS'#656565'
p3783
aF8.88595
aI0
aI00
aI00
aI01
aI01
aI00
aI00
aI00
aI00
aa(lp3784
I234378
aF409.675
aF289.952
aVp3
p3785
aS'utopia'
p3786
aS'#656565'
p3787
aF8.88595
aI0
aI01
aI00
aI00
aI00
aI00
aI00
aI00
aI00
aa(lp3788
I234378
aF433.371
aF289.952
aVp3
p3789
aS'utopia'
p3790
aS'#656565'
p3791
aF8.88595
aI0
aI00
aI00
aI01
aI01
aI00
aI00
aI00
aI00
aa(lp3792
I234378
aF440.036
aF289.952
aVp3
p3793
aS'utopia'
p3794
aS'#656565'
p3795
aF8.88595
aI0
aI01
aI00
aI00
aI00
aI00
aI00
aI00
aI00
aa(lp3796
I132957
aF48.3134
aF308.464
aVp3
p3797
aS'utopia'
p3798
aS'#656565'
p3799
aF8.88595
aI0
aI01
aI00
aI00
aI00
aI00
aI00
aI00
aI00
aa(lp3800
I234378
aF69.0473
aF308.464
aVp3
p3801
aS'utopia'
p3802
aS'#656565'
p3803
aF8.88595
aI0
aI01
aI00
aI00
aI00
aI00
aI00
aI00
aI00
aa(lp3804
I234378
aF317.113
aF308.464
aVp3
p3805
aS'utopia'
p3806
aS'#656565'
p3807
aF8.88595
aI0
aI00
aI00
aI01
aI01
aI01
aI00
aI00
aI00
aa(lp3808
I234378
aF403.011
aF308.464
aVp3
p3809
aS'utopia'
p3810
aS'#656565'
p3811
aF8.88595
aI0
aI00
aI00
aI01
aI01
aI00
aI00
aI00
aI00
aa(lp3812
I234378
aF409.675
aF308.464
aVp3
p3813
aS'utopia'
p3814
aS'#656565'
p3815
aF8.88595
aI0
aI01
aI00
aI00
aI00
aI00
aI00
aI00
aI00
aa(lp3816
I234378
aF433.371
aF308.464
aVp3
p3817
aS'utopia'
p3818
aS'#656565'
p3819
aF8.88595
aI0
aI00
aI00
aI01
aI01
aI00
aI00
aI00
aI00
aa(lp3820
I234378
aF440.036
aF308.464
aVp3
p3821
aS'utopia'
p3822
aS'#656565'
p3823
aF8.88595
aI0
aI01
aI00
aI00
aI00
aI00
aI00
aI00
aI00
aa(lp3824
I234378
aF48.3134
aF326.977
aVp3
p3825
aS'utopia'
p3826
aS'#656565'
p3827
aF8.88595
aI0
aI01
aI00
aI00
aI00
aI00
aI00
aI00
aI00
aa(lp3828
I234378
aF317.113
aF326.977
aVp3
p3829
aS'utopia'
p3830
aS'#656565'
p3831
aF8.88595
aI0
aI00
aI00
aI01
aI01
aI01
aI00
aI00
aI00
aa(lp3832
I234378
aF403.011
aF326.977
aVp3
p3833
aS'utopia'
p3834
aS'#656565'
p3835
aF8.88595
aI0
aI00
aI00
aI01
aI01
aI00
aI00
aI00
aI00
aa(lp3836
I234378
aF409.675
aF326.977
aVp3
p3837
aS'utopia'
p3838
aS'#656565'
p3839
aF8.88595
aI0
aI01
aI00
aI00
aI00
aI00
aI00
aI00
aI00
aa(lp3840
I234378
aF433.371
aF326.977
aVp3
p3841
aS'utopia'
p3842
aS'#656565'
p3843
aF8.88595
aI0
aI00
aI00
aI01
aI01
aI00
aI00
aI00
aI00
aa(lp3844
I234378
aF440.036
aF326.977
aVp3
p3845
aS'utopia'
p3846
aS'#656565'
p3847
aF8.88595
aI0
aI01
aI00
aI00
aI00
aI00
aI00
aI00
aI00
aa(lp3848
I89217
aF48.3134
aF345.489
aVp3
p3849
aS'utopia'
p3850
aS'#656565'
p3851
aF8.88595
aI0
aI01
aI01
aI00
aI00
aI00
aI00
aI00
aI00
aa(lp3852
I17350
aF71.2688
aF345.489
aVp3
p3853
aS'utopia'
p3854
aS'#656565'
p3855
aF8.88595
aI0
aI01
aI00
aI00
aI00
aI00
aI00
aI00
aI00
aa(lp3856
I119502
aF91.2621
aF345.489
aVp3
p3857
aS'utopia'
p3858
aS'#656565'
p3859
aF8.88595
aI0
aI01
aI00
aI00
aI00
aI00
aI00
aI00
aI00
aa(lp3860
I234378
aF317.113
aF345.489
aVp3
p3861
aS'utopia'
p3862
aS'#656565'
p3863
aF8.88595
aI0
aI00
aI00
aI01
aI01
aI01
aI00
aI00
aI00
aa(lp3864
I234378
aF404.492
aF345.489
aVp3
p3865
aS'utopia'
p3866
aS'#656565'
p3867
aF8.88595
aI0
aI00
aI00
aI01
aI01
aI00
aI00
aI00
aI00
aa(lp3868
I91136
aF411.156
aF345.489
aVp3
p3869
aS'utopia'
p3870
aS'#656565'
p3871
aF8.88595
aI0
aI01
aI00
aI00
aI00
aI00
aI00
aI00
aI00
aa(lp3872
I234378
aF431.15
aF345.489
aVp3
p3873
aS'utopia'
p3874
aS'#656565'
p3875
aF8.88595
aI0
aI00
aI00
aI01
aI01
aI00
aI00
aI00
aI00
aa(lp3876
I234378
aF437.814
aF345.489
aVp3
p3877
aS'utopia'
p3878
aS'#656565'
p3879
aF8.88595
aI0
aI01
aI00
aI00
aI00
aI00
aI00
aI00
aI00
aa(lp3880
I165851
aF48.3134
aF364.002
aVp3
p3881
aS'utopia'
p3882
aS'#656565'
p3883
aF8.88595
aI0
aI01
aI00
aI00
aI00
aI00
aI00
aI00
aI00
aa(lp3884
I234378
aF81.6357
aF364.002
aVp3
p3885
aS'utopia'
p3886
aS'#656565'
p3887
aF8.88595
aI0
aI00
aI00
aI00
aI00
aI00
aI00
aI00
aI00
aa(lp3888
I234378
aF188.267
aF364.002
aVp3
p3889
aS'utopia'
p3890
aS'#656565'
p3891
aF8.88595
aI0
aI00
aI00
aI01
aI01
aI00
aI00
aI00
aI00
aa(lp3892
I234378
aF192.0465
aF364.002
ag3889
aS'utopia'
p3893
aS'#656565'
p3894
aF8.88595
aI0
aI00
aI00
aI00
aI00
aI00
aI00
aI00
aI00
aa(lp3895
I234378
aF195.82600000000002
aF364.002
ag3889
aS'utopia'
p3896
aS'#656565'
p3897
aF8.88595
aI0
aI00
aI00
aI01
aI01
aI00
aI00
aI00
aI00
aa(lp3898
I234378
aF317.113
aF364.002
aVp3
p3899
aS'utopia'
p3900
aS'#656565'
p3901
aF8.88595
aI0
aI00
aI00
aI01
aI01
aI01
aI00
aI00
aI00
aa(lp3902
I234378
aF424.485
aF364.002
aVp3
p3903
aS'utopia'
p3904
aS'#656565'
p3905
aF8.88595
aI0
aI00
aI00
aI01
aI01
aI00
aI00
aI00
aI00
aa(lp3906
I91136
aF431.15
aF364.002
aVp3
p3907
aS'utopia'
p3908
aS'#656565'
p3909
aF8.88595
aI0
aI01
aI00
aI00
aI00
aI00
aI00
aI00
aI00
aa(lp3910
I50998
aF48.3134
aF382.514
aVp3
p3911
aS'utopia'
p3912
aS'#656565'
p3913
aF8.88595
aI0
aI01
aI01
aI00
aI00
aI00
aI00
aI00
aI00
aa(lp3914
I234378
aF80.8952
aF382.514
aVp3
p3915
aS'utopia'
p3916
aS'#656565'
p3917
aF8.88595
aI0
aI00
aI00
aI00
aI00
aI00
aI00
aI00
aI00
aa(lp3918
I234378
aF317.113
aF382.514
aVp3
p3919
aS'utopia'
p3920
aS'#656565'
p3921
aF8.88595
aI0
aI00
aI00
aI01
aI01
aI01
aI00
aI00
aI00
aa(lp3922
I234378
aF403.011
aF382.514
aVp3
p3923
aS'utopia'
p3924
aS'#656565'
p3925
aF8.88595
aI0
aI00
aI00
aI01
aI01
aI00
aI00
aI00
aI00
aa(lp3926
I234378
aF409.675
aF382.514
aVp3
p3927
aS'utopia'
p3928
aS'#656565'
p3929
aF8.88595
aI0
aI01
aI00
aI00
aI00
aI00
aI00
aI00
aI00
aa(lp3930
I234378
aF433.371
aF382.514
aVp3
p3931
aS'utopia'
p3932
aS'#656565'
p3933
aF8.88595
aI0
aI00
aI00
aI01
aI01
aI00
aI00
aI00
aI00
aa(lp3934
I234378
aF440.036
aF382.514
aVp3
p3935
aS'utopia'
p3936
aS'#656565'
p3937
aF8.88595
aI0
aI01
aI00
aI00
aI00
aI00
aI00
aI00
aI00
aa(lp3938
I234378
aF48.3134
aF401.026
aVp3
p3939
aS'utopia'
p3940
aS'#656565'
p3941
aF8.88595
aI0
aI01
aI01
aI00
aI00
aI00
aI00
aI00
aI00
aa(lp3942
I234378
aF317.113
aF401.026
aVp3
p3943
aS'utopia'
p3944
aS'#656565'
p3945
aF8.88595
aI0
aI00
aI00
aI01
aI01
aI01
aI00
aI00
aI00
aa(lp3946
I234378
aF422.264
aF401.026
aVp3
p3947
aS'utopia'
p3948
aS'#656565'
p3949
aF8.88595
aI0
aI00
aI00
aI01
aI01
aI00
aI00
aI00
aI00
aa(lp3950
I234378
aF428.928
aF401.026
aVp3
p3951
aS'utopia'
p3952
aS'#656565'
p3953
aF8.88595
aI0
aI01
aI00
aI00
aI00
aI00
aI00
aI00
aI00
aa(lp3954
I21716
aF48.3134
aF419.539
aVp3
p3955
aS'utopia'
p3956
aS'#656565'
p3957
aF8.88595
aI0
aI01
aI00
aI00
aI00
aI00
aI00
aI00
aI00
aa(lp3958
I115862
aF48.3134
aF429.906
aVp3
p3959
aS'utopia'
p3960
aS'#656565'
p3961
aF8.88595
aI0
aI00
aI00
aI00
aI00
aI00
aI00
aI00
aI00
aa(lp3962
I234378
aF75.38609230769231
aF429.906
ag3959
aS'utopia'
p3963
aS'#656565'
p3964
aF8.88595
aI0
aI00
aI00
aI00
aI00
aI00
aI00
aI00
aI00
aa(lp3965
I234378
aF79.8982076923077
aF429.906
ag3959
aS'utopia'
p3966
aS'#656565'
p3967
aF8.88595
aI0
aI01
aI01
aI00
aI00
aI00
aI00
aI00
aI00
aa(lp3968
I234378
aF92.94666923076923
aF429.906
ag3959
aS'utopia'
p3969
aS'#656565'
p3970
aF8.88595
aI0
aI00
aI00
aI00
aI00
aI00
aI00
aI00
aI00
aa(lp3971
I234378
aF102.45878461538462
aF429.906
ag3959
aS'utopia'
p3972
aS'#656565'
p3973
aF8.88595
aI0
aI01
aI01
aI01
aI00
aI00
aI00
aI00
aI00
aa(lp3974
I234378
aF110.50724615384615
aF429.906
ag3959
aS'utopia'
p3975
aS'#656565'
p3976
aF8.88595
aI0
aI00
aI00
aI00
aI00
aI00
aI00
aI00
aI00
aa(lp3977
I234378
aF125.01936153846154
aF429.906
ag3959
aS'utopia'
p3978
aS'#656565'
p3979
aF8.88595
aI0
aI01
aI01
aI00
aI00
aI00
aI00
aI00
aI00
aa(lp3980
I234378
aF128.06782307692308
aF429.906
ag3959
aS'utopia'
p3981
aS'#656565'
p3982
aF8.88595
aI0
aI00
aI00
aI00
aI00
aI00
aI00
aI00
aI00
aa(lp3983
I234378
aF147.57993846153846
aF429.906
ag3959
aS'utopia'
p3984
aS'#656565'
p3985
aF8.88595
aI0
aI01
aI01
aI00
aI00
aI00
aI00
aI00
aI00
aa(lp3986
I234378
aF317.113
aF424.722
aVp3
p3987
aS'utopia'
p3988
aS'#656565'
p3989
aF8.88595
aI0
aI00
aI00
aI01
aI01
aI01
aI00
aI00
aI00
aa(lp3990
I234378
aF422.264
aF424.722
aVp3
p3991
aS'utopia'
p3992
aS'#656565'
p3993
aF8.88595
aI0
aI00
aI00
aI01
aI01
aI00
aI00
aI00
aI00
aa(lp3994
I234378
aF428.928
aF424.722
aVp3
p3995
aS'utopia'
p3996
aS'#656565'
p3997
aF8.88595
aI0
aI01
aI00
aI00
aI00
aI00
aI00
aI00
aI00
aa(lp3998
I195166
aF40.1679
aF480.277
aVp3
p3999
aS'utopia'
p4000
aS'#02304b'
p4001
aF11.8479
aI1
aI01
aI00
aI00
aI00
aI00
aI00
aI00
aI00
aa(lp4002
I136346
aF96.4456
aF480.277
aVp3
p4003
aS'utopia'
p4004
aS'#02304b'
p4005
aF11.8479
aI1
aI01
aI00
aI00
aI00
aI00
aI00
aI00
aI00
aa(lp4006
I195166
aF48.3134
aF508.167
aVp3
p4007
aS'utopia'
p4008
aS'#000000'
p4009
aF8.88595
aI1
aI01
aI00
aI00
aI00
aI00
aI00
aI00
aI00
aa(lp4010
I164378
aF177.16
aF508.167
aVp3
p4011
aS'utopia'
p4012
aS'#000000'
p4013
aF8.88595
aI1
aI01
aI00
aI00
aI00
aI00
aI00
aI00
aI00
aa(lp4014
I175077
aF296.379
aF508.167
aVp3
p4015
aS'utopia'
p4016
aS'#000000'
p4017
aF8.88595
aI1
aI01
aI00
aI00
aI00
aI00
aI00
aI00
aI00
aa(lp4018
I224291
aF397.087
aF508.167
aVp3
p4019
aS'utopia'
p4020
aS'#000000'
p4021
aF8.88595
aI1
aI01
aI00
aI00
aI00
aI00
aI00
aI00
aI00
aa(lp4022
I165206
aF497.054
aF508.167
aVp3
p4023
aS'utopia'
p4024
aS'#000000'
p4025
aF8.88595
aI1
aI01
aI00
aI00
aI00
aI00
aI00
aI00
aI00
aa(lp4026
I144314
aF48.3134
aF526.911
aVp3
p4027
aS'utopia'
p4028
aS'#656565'
p4029
aF8.88595
aI0
aI01
aI00
aI00
aI00
aI00
aI00
aI00
aI00
aa(lp4030
I61354
aF177.16
aF526.911
aVp3
p4031
aS'utopia'
p4032
aS'#656565'
p4033
aF8.88595
aI0
aI01
aI00
aI00
aI00
aI00
aI00
aI00
aI00
aa(lp4034
I58002
aF48.3134
aF545.423
aVp3
p4035
aS'utopia'
p4036
aS'#656565'
p4037
aF8.88595
aI0
aI01
aI00
aI00
aI00
aI00
aI00
aI00
aI00
aa(lp4038
I61354
aF177.16
aF545.423
aVp3
p4039
aS'utopia'
p4040
aS'#656565'
p4041
aF8.88595
aI0
aI01
aI00
aI00
aI00
aI00
aI00
aI00
aI00
aa(lp4042
I234378
aF40.1679
aF577.282
aVp3
p4043
aS'utopia'
p4044
aS'#02304b'
p4045
aF11.8479
aI1
aI01
aI00
aI00
aI00
aI00
aI00
aI00
aI00
aa(lp4046
I201816
aF40.9084
aF609.106
aVp3
p4047
aS'utopia'
p4048
aS'#000000'
p4049
aF8.88595
aI0
aI01
aI00
aI00
aI00
aI00
aI00
aI00
aI00
aa(lp4050
I234378
aF54.9779
aF609.106
aVp3
p4051
aS'utopia'
p4052
aS'#000000'
p4053
aF8.88595
aI0
aI01
aI00
aI00
aI00
aI00
aI00
aI00
aI00
aa(lp4054
I86196
aF89.0407
aF609.106
aVp3
p4055
aS'utopia'
p4056
aS'#000000'
p4057
aF8.88595
aI0
aI01
aI00
aI00
aI00
aI00
aI00
aI00
aI00
aa(lp4058
I177271
aF40.1679
aF34.4987
aVp4
p4059
aS'utopia'
p4060
aS'#02304b'
p4061
aF11.8479
aI1
aI01
aI00
aI00
aI00
aI00
aI00
aI00
aI00
aa(lp4062
I234378
aF74.2307
aF34.4987
aVp4
p4063
aS'utopia'
p4064
aS'#02304b'
p4065
aF11.8479
aI1
aI01
aI00
aI00
aI00
aI00
aI00
aI00
aI00
aa(lp4066
I7520
aF49.0539
aF58.8107
aVp4
p4067
aS'utopia'
p4068
aS'#656565'
p4069
aF10.3669
aI1
aI01
aI00
aI00
aI00
aI00
aI00
aI00
aI00
aa(lp4070
I10865
aF93.4836
aF58.8107
aVp4
p4071
aS'utopia'
p4072
aS'#656565'
p4073
aF10.3669
aI1
aI01
aI00
aI00
aI00
aI00
aI00
aI00
aI00
aa(lp4074
I132955
aF49.0539
aF74.4677
aVp4
p4075
aS'utopia'
p4076
aS'#656565'
p4077
aF8.88595
aI0
aI01
aI00
aI00
aI00
aI00
aI00
aI00
aI00
aa(lp4078
I144489
aF69.7878
aF74.4677
aVp4
p4079
aS'utopia'
p4080
aS'#656565'
p4081
aF8.88595
aI0
aI00
aI00
aI00
aI00
aI00
aI00
aI00
aI00
aa(lp4082
I132529
aF80.1547
aF74.4677
aVp4
p4083
aS'utopia'
p4084
aS'#656565'
p4085
aF8.88595
aI0
aI01
aI00
aI00
aI00
aI00
aI00
aI00
aI00
aa(lp4086
I234378
aF98.76336666666667
aF74.4677
ag4083
aS'utopia'
p4087
aS'#656565'
p4088
aF8.88595
aI0
aI00
aI00
aI00
aI00
aI00
aI00
aI00
aI00
aa(lp4089
I234378
aF104.591
aF74.4677
aVp4
p4090
aS'utopia'
p4091
aS'#434343'
p4092
aF8.88595
aI0
aI00
aI00
aI01
aI01
aI01
aI00
aI00
aI00
aa(lp4093
I37515
aF115.699
aF74.4677
aVp4
p4094
aS'utopia'
p4095
aS'#434343'
p4096
aF8.88595
aI0
aI01
aI00
aI00
aI00
aI00
aI00
aI00
aI01
aa(lp4097
I234378
aF134.951
aF74.4677
aVp4
p4098
aS'utopia'
p4099
aS'#434343'
p4100
aF8.88595
aI0
aI00
aI00
aI01
aI01
aI01
aI00
aI00
aI00
aa(lp4101
I108944
aF49.0539
aF90.0181
aVp4
p4102
aS'utopia'
p4103
aS'#656565'
p4104
aF8.88595
aI0
aI01
aI00
aI00
aI00
aI00
aI00
aI00
aI00
aa(lp4105
I234378
aF76.44544285714287
aF90.0181
ag4102
aS'utopia'
p4106
aS'#656565'
p4107
aF8.88595
aI0
aI00
aI00
aI00
aI00
aI00
aI00
aI00
aI00
aa(lp4108
I104428
aF83.1167
aF90.0181
aVp4
p4109
aS'utopia'
p4110
aS'#434343'
p4111
aF8.88595
aI0
aI01
aI00
aI00
aI00
aI00
aI00
aI00
aI00
aa(lp4112
I212271
aF49.0539
aF105.569
aVp4
p4113
aS'utopia'
p4114
aS'#656565'
p4115
aF8.88595
aI0
aI01
aI00
aI00
aI00
aI00
aI00
aI00
aI00
aa(lp4116
I12510
aF79.4142
aF105.569
aVp4
p4117
aS'utopia'
p4118
aS'#656565'
p4119
aF8.88595
aI0
aI01
aI00
aI00
aI00
aI00
aI00
aI00
aI00
aa(lp4120
I234378
aF101.72811428571428
aF105.569
ag4117
aS'utopia'
p4121
aS'#656565'
p4122
aF8.88595
aI0
aI00
aI00
aI00
aI00
aI00
aI00
aI00
aI00
aa(lp4123
I97834
aF107.553
aF105.569
aVp4
p4124
aS'utopia'
p4125
aS'#434343'
p4126
aF8.88595
aI0
aI01
aI00
aI00
aI00
aI00
aI00
aI00
aI00
aa(lp4127
I118366
aF49.0539
aF125.455
aVp4
p4128
aS'utopia'
p4129
aS'#656565'
p4130
aF10.3669
aI1
aI01
aI00
aI00
aI00
aI00
aI00
aI00
aI00
aa(lp4131
I234378
aF83.97235
aF125.455
ag4128
aS'utopia'
p4132
aS'#656565'
p4133
aF10.3669
aI1
aI00
aI00
aI00
aI00
aI00
aI00
aI00
aI00
aa(lp4134
I201816
aF49.0539
aF138.15
aVp4
p4135
aS'utopia'
p4136
aS'#000000'
p4137
aF8.88595
aI0
aI00
aI00
aI00
aI00
aI00
aI00
aI00
aI00
aa(lp4138
I234378
aF57.459022222222224
aF138.15
ag4135
aS'utopia'
p4139
aS'#000000'
p4140
aF8.88595
aI0
aI00
aI00
aI00
aI00
aI00
aI00
aI00
aI00
aa(lp4141
I234378
aF61.66158333333333
aF138.15
ag4135
aS'utopia'
p4142
aS'#000000'
p4143
aF8.88595
aI0
aI00
aI00
aI01
aI01
aI01
aI00
aI00
aI00
aa(lp4144
I234378
aF70.06670555555556
aF138.15
ag4135
aS'utopia'
p4145
aS'#000000'
p4146
aF8.88595
aI0
aI00
aI00
aI00
aI00
aI00
aI00
aI00
aI00
aa(lp4147
I234378
aF74.26926666666667
aF138.15
ag4135
aS'utopia'
p4148
aS'#000000'
p4149
aF8.88595
aI0
aI00
aI00
aI00
aI00
aI00
aI00
aI00
aI00
aa(lp4150
I234378
aF108.4974388888889
aF138.15
ag4135
aS'utopia'
p4151
aS'#000000'
p4152
aF8.88595
aI0
aI00
aI00
aI00
aI00
aI00
aI00
aI00
aI00
aa(lp4153
I234378
aF126.806
aF138.15
aVp4
p4154
aS'utopia'
p4155
aS'#000000'
p4156
aF8.88595
aI0
aI01
aI00
aI00
aI00
aI00
aI00
aI00
aI00
aa(lp4157
I234378
aF49.0539
aF148.517
aVp4
p4158
aS'utopia'
p4159
aS'#000000'
p4160
aF8.88595
aI0
aI00
aI00
aI01
aI01
aI01
aI00
aI00
aI00
aa(lp4161
I182663
aF49.0539
aF161.846
aVp4
p4162
aS'utopia'
p4163
aS'#656565'
p4164
aF8.88595
aI0
aI01
aI00
aI00
aI00
aI00
aI00
aI00
aI00
aa(lp4165
I82279
aF76.4522
aF161.846
aVp4
p4166
aS'utopia'
p4167
aS'#656565'
p4168
aF8.88595
aI0
aI01
aI00
aI00
aI00
aI00
aI00
aI00
aI00
aa(lp4169
I234378
aF96.09372
aF161.846
ag4166
aS'utopia'
p4170
aS'#656565'
p4171
aF8.88595
aI0
aI00
aI00
aI00
aI00
aI00
aI00
aI00
aI00
aa(lp4172
I234378
aF103.11
aF161.846
aVp4
p4173
aS'utopia'
p4174
aS'#000000'
p4175
aF8.88595
aI0
aI01
aI01
aI00
aI00
aI00
aI00
aI00
aI00
aa(lp4176
I16915
aF308.227
aF172.213
aVp1
p4177
aS'utopia'
p4178
aS'#878787'
p4179
aF8.88595
aI0
aI01
aI00
aI00
aI00
aI00
aI00
aI00
aI00
aa(lp4180
I60220
aF330.442
aF172.213
aVp1
p4181
aS'utopia'
p4182
aS'#878787'
p4183
aF8.88595
aI0
aI01
aI00
aI00
aI00
aI00
aI00
aI00
aI00
aa(lp4184
I234378
aF372.28409090909093
aF172.213
ag4181
aS'utopia'
p4185
aS'#878787'
p4186
aF8.88595
aI0
aI00
aI00
aI00
aI00
aI00
aI00
aI00
aI00
aa(lp4187
I234378
aF380.796
aF172.213
aVp1
p4188
aS'utopia'
p4189
aS'#000000'
p4190
aF8.88595
aI0
aI00
aI00
aI01
aI01
aI00
aI00
aI00
aI00
aa(lp4191
I91136
aF387.46
aF172.213
aVp1
p4192
aS'utopia'
p4193
aS'#000000'
p4194
aF8.88595
aI0
aI01
aI00
aI00
aI00
aI00
aI00
aI00
aI00
aa(lp4195
I234378
aF403.18559999999997
aF172.213
ag4192
aS'utopia'
p4196
aS'#000000'
p4197
aF8.88595
aI0
aI00
aI00
aI00
aI00
aI00
aI00
aI00
aI00
aa(lp4198
I59734
aF407.11699999999996
aF172.213
ag4192
aS'utopia'
p4199
aS'#000000'
p4200
aF8.88595
aI0
aI00
aI00
aI00
aI00
aI00
aI00
aI00
aI00
aa(lp4201
I234378
aF411.04839999999996
aF172.213
ag4192
aS'utopia'
p4202
aS'#000000'
p4203
aF8.88595
aI0
aI00
aI00
aI00
aI00
aI00
aI00
aI00
aI00
aa(lp4204
I234378
aF417.08
aF172.213
aVp1
p4205
aS'utopia'
p4206
aS'#000000'
p4207
aF8.88595
aI0
aI00
aI00
aI01
aI01
aI00
aI00
aI00
aI00
aa(lp4208
I63729
aF423.745
aF172.213
aVp1
p4209
aS'utopia'
p4210
aS'#000000'
p4211
aF8.88595
aI0
aI01
aI00
aI00
aI00
aI00
aI00
aI00
aI00
aa(lp4212
I234378
aF446.4985625
aF172.213
ag4209
aS'utopia'
p4213
aS'#000000'
p4214
aF8.88595
aI0
aI00
aI00
aI00
aI00
aI00
aI00
aI00
aI00
aa(lp4215
I59734
aF451.04927499999997
aF172.213
ag4209
aS'utopia'
p4216
aS'#000000'
p4217
aF8.88595
aI0
aI00
aI00
aI00
aI00
aI00
aI00
aI00
aI00
aa(lp4218
I234378
aF455.59998749999994
aF172.213
ag4209
aS'utopia'
p4219
aS'#000000'
p4220
aF8.88595
aI0
aI00
aI00
aI00
aI00
aI00
aI00
aI00
aI00
aa(lp4221
I229300
aF308.227
aF189.985
aVp1
p4222
aS'utopia'
p4223
aS'#878787'
p4224
aF8.88595
aI0
aI01
aI00
aI00
aI00
aI00
aI00
aI00
aI00
aa(lp4225
I78894
aF338.588
aF189.985
aVp1
p4226
aS'utopia'
p4227
aS'#878787'
p4228
aF8.88595
aI0
aI01
aI00
aI00
aI00
aI00
aI00
aI00
aI00
aa(lp4229
I234378
aF360.9019142857143
aF189.985
ag4226
aS'utopia'
p4230
aS'#878787'
p4231
aF8.88595
aI0
aI00
aI00
aI00
aI00
aI00
aI00
aI00
aI00
aa(lp4232
I234378
aF368.948
aF189.985
aVp1
p4233
aS'utopia'
p4234
aS'#000000'
p4235
aF8.88595
aI0
aI01
aI00
aI00
aI00
aI00
aI00
aI00
aI00
aa(lp4236
I234378
aF380.796
aF189.985
aVp1
p4237
aS'utopia'
p4238
aS'#000000'
p4239
aF8.88595
aI0
aI00
aI00
aI01
aI01
aI01
aI00
aI00
aI00
aa(lp4240
I234378
aF388.6867
aF189.985
ag4237
aS'utopia'
p4241
aS'#000000'
p4242
aF8.88595
aI0
aI00
aI00
aI00
aI00
aI00
aI00
aI00
aI00
aa(lp4243
I234378
aF392.63205
aF189.985
ag4237
aS'utopia'
p4244
aS'#000000'
p4245
aF8.88595
aI0
aI00
aI00
aI01
aI01
aI00
aI00
aI00
aI00
aa(lp4246
I234378
aF398.568
aF189.985
aVp1
p4247
aS'utopia'
p4248
aS'#000000'
p4249
aF8.88595
aI0
aI01
aI00
aI00
aI00
aI00
aI00
aI00
aI00
aa(lp4250
I234378
aF308.227
aF207.757
aVp1
p4251
aS'utopia'
p4252
aS'#878787'
p4253
aF8.88595
aI0
aI01
aI00
aI00
aI00
aI00
aI00
aI00
aI00
aa(lp4254
I234378
aF346.733
aF207.757
aVp1
p4255
aS'utopia'
p4256
aS'#878787'
p4257
aF8.88595
aI0
aI01
aI01
aI00
aI00
aI00
aI00
aI00
aI00
aa(lp4258
I234378
aF361.2593
aF207.757
ag4255
aS'utopia'
p4259
aS'#878787'
p4260
aF8.88595
aI0
aI00
aI00
aI00
aI00
aI00
aI00
aI00
aI00
aa(lp4261
I63091
aF370.429
aF207.757
aVp1
p4262
aS'utopia'
p4263
aS'#000000'
p4264
aF8.88595
aI0
aI01
aI00
aI00
aI00
aI00
aI00
aI00
aI00
aa(lp4265
I234378
aF387.46
aF207.757
aVp1
p4266
aS'utopia'
p4267
aS'#000000'
p4268
aF8.88595
aI0
aI01
aI00
aI00
aI00
aI00
aI00
aI00
aI00
aa(lp4269
I7204
aF308.227
aF225.529
aVp1
p4270
aS'utopia'
p4271
aS'#878787'
p4272
aF8.88595
aI0
aI01
aI00
aI00
aI00
aI00
aI00
aI00
aI00
aa(lp4273
I189220
aF340.809
aF225.529
aVp1
p4274
aS'utopia'
p4275
aS'#878787'
p4276
aF8.88595
aI0
aI01
aI00
aI00
aI00
aI00
aI00
aI00
aI00
aa(lp4277
I234378
aF366.93111428571433
aF225.529
ag4274
aS'utopia'
p4278
aS'#878787'
p4279
aF8.88595
aI0
aI00
aI00
aI00
aI00
aI00
aI00
aI00
aI00
aa(lp4280
I27780
aF375.613
aF225.529
aVp1
p4281
aS'utopia'
p4282
aS'#000000'
p4283
aF8.88595
aI0
aI01
aI01
aI00
aI00
aI00
aI00
aI00
aI00
aa(lp4284
I234378
aF379.93184545454545
aF225.529
ag4281
aS'utopia'
p4285
aS'#000000'
p4286
aF8.88595
aI0
aI00
aI00
aI00
aI00
aI00
aI00
aI00
aI00
aa(lp4287
I2737
aF384.2506909090909
aF225.529
ag4281
aS'utopia'
p4288
aS'#000000'
p4289
aF8.88595
aI0
aI01
aI00
aI00
aI00
aI00
aI00
aI00
aI00
aa(lp4290
I234378
aF401.5260727272727
aF225.529
ag4281
aS'utopia'
p4291
aS'#000000'
p4292
aF8.88595
aI0
aI00
aI00
aI00
aI00
aI00
aI00
aI00
aI00
aa(lp4293
I27780
aF398.8449181818182
aF225.529
ag4281
aS'utopia'
p4294
aS'#000000'
p4295
aF8.88595
aI0
aI01
aI01
aI00
aI00
aI00
aI00
aI00
aI00
aa(lp4296
I234378
aF403.1637636363636
aF225.529
ag4281
aS'utopia'
p4297
aS'#000000'
p4298
aF8.88595
aI0
aI00
aI00
aI00
aI00
aI00
aI00
aI00
aI00
aa(lp4299
I64620
aF414.4826090909091
aF225.529
ag4281
aS'utopia'
p4300
aS'#000000'
p4301
aF8.88595
aI0
aI01
aI01
aI00
aI00
aI00
aI00
aI00
aI00
aa(lp4302
I234378
aF409.80145454545453
aF225.529
ag4281
aS'utopia'
p4303
aS'#000000'
p4304
aF8.88595
aI0
aI00
aI00
aI00
aI00
aI00
aI00
aI00
aI00
aa(lp4305
I48671
aF308.227
aF243.301
aVp1
p4306
aS'utopia'
p4307
aS'#878787'
p4308
aF8.88595
aI0
aI01
aI00
aI00
aI00
aI00
aI00
aI00
aI00
aa(lp4309
I129688
aF336.366
aF243.301
aVp1
p4310
aS'utopia'
p4311
aS'#878787'
p4312
aF8.88595
aI0
aI00
aI00
aI00
aI00
aI00
aI00
aI00
aI00
aa(lp4313
I234378
aF360.58405714285715
aF243.301
ag4310
aS'utopia'
p4314
aS'#878787'
p4315
aF8.88595
aI0
aI00
aI00
aI00
aI00
aI00
aI00
aI00
aI00
aa(lp4316
I234378
aF368.948
aF243.301
aVp1
p4317
aS'utopia'
p4318
aS'#000000'
p4319
aF8.88595
aI0
aI00
aI00
aI01
aI01
aI00
aI00
aI00
aI00
aa(lp4320
I234378
aF375.613
aF243.301
aVp1
p4321
aS'utopia'
p4322
aS'#000000'
p4323
aF8.88595
aI0
aI01
aI00
aI00
aI00
aI00
aI00
aI00
aI00
aa(lp4324
I86794
aF293.418
aF62.5131
aVp4
p4325
aS'utopia'
p4326
aS'#656565'
p4327
aF10.3669
aI1
aI01
aI00
aI00
aI00
aI00
aI00
aI00
aI00
aa(lp4328
I131455
aF331.923
aF62.5131
aVp4
p4329
aS'utopia'
p4330
aS'#656565'
p4331
aF10.3669
aI1
aI01
aI00
aI00
aI00
aI00
aI00
aI00
aI00
aa(lp4332
I234378
aF349.695
aF62.5131
aVp4
p4333
aS'utopia'
p4334
aS'#656565'
p4335
aF10.3669
aI1
aI01
aI00
aI00
aI00
aI00
aI00
aI00
aI00
aa(lp4336
I131455
aF293.418
aF78.1702
aVp4
p4337
aS'utopia'
p4338
aS'#656565'
p4339
aF8.88595
aI0
aI01
aI00
aI00
aI00
aI00
aI00
aI00
aI00
aa(lp4340
I197416
aF308.968
aF78.1702
aVp4
p4341
aS'utopia'
p4342
aS'#656565'
p4343
aF8.88595
aI0
aI01
aI00
aI00
aI00
aI00
aI00
aI00
aI00
aa(lp4344
I234378
aF326.23992000000004
aF78.1702
ag4341
aS'utopia'
p4345
aS'#656565'
p4346
aF8.88595
aI0
aI00
aI00
aI00
aI00
aI00
aI00
aI00
aI00
aa(lp4347
I28425
aF332.664
aF78.1702
aVp4
p4348
aS'utopia'
p4349
aS'#434343'
p4350
aF8.88595
aI0
aI01
aI00
aI00
aI00
aI00
aI00
aI00
aI00
aa(lp4351
I234378
aF378.575
aF78.1702
aVp4
p4352
aS'utopia'
p4353
aS'#434343'
p4354
aF8.88595
aI0
aI00
aI00
aI00
aI00
aI00
aI00
aI00
aI00
aa(lp4355
I137944
aF383.1298636363636
aF78.1702
ag4352
aS'utopia'
p4356
aS'#434343'
p4357
aF8.88595
aI0
aI01
aI00
aI00
aI00
aI00
aI00
aI00
aI00
aa(lp4358
I234378
aF414.1236363636363
aF78.1702
ag4352
aS'utopia'
p4359
aS'#434343'
p4360
aF8.88595
aI0
aI00
aI00
aI00
aI00
aI00
aI00
aI00
aI00
aa(lp4361
I42298
aF428.67849999999993
aF78.1702
ag4352
aS'utopia'
p4362
aS'#434343'
p4363
aF8.88595
aI0
aI01
aI00
aI00
aI00
aI00
aI00
aI00
aI00
aa(lp4364
I72722
aF293.418
aF93.7206
aVp4
p4365
aS'utopia'
p4366
aS'#656565'
p4367
aF8.88595
aI0
aI01
aI00
aI00
aI00
aI00
aI00
aI00
aI00
aa(lp4368
I12510
aF346.733
aF93.7206
aVp4
p4369
aS'utopia'
p4370
aS'#656565'
p4371
aF8.88595
aI0
aI01
aI00
aI00
aI00
aI00
aI00
aI00
aI00
aa(lp4372
I234378
aF369.0469142857143
aF93.7206
ag4369
aS'utopia'
p4373
aS'#656565'
p4374
aF8.88595
aI0
aI00
aI00
aI00
aI00
aI00
aI00
aI00
aI00
aa(lp4375
I60201
aF374.872
aF93.7206
aVp4
p4376
aS'utopia'
p4377
aS'#434343'
p4378
aF8.88595
aI0
aI01
aI00
aI00
aI00
aI00
aI00
aI00
aI00
aa(lp4379
I230071
aF391.903
aF93.7206
aVp4
p4380
aS'utopia'
p4381
aS'#434343'
p4382
aF8.88595
aI0
aI01
aI00
aI00
aI00
aI00
aI00
aI00
aI00
aa(lp4383
I51933
aF293.418
aF113.607
aVp4
p4384
aS'utopia'
p4385
aS'#656565'
p4386
aF10.3669
aI1
aI01
aI00
aI00
aI00
aI00
aI00
aI00
aI00
aa(lp4387
I62768
aF321.556
aF113.607
aVp4
p4388
aS'utopia'
p4389
aS'#656565'
p4390
aF10.3669
aI1
aI01
aI00
aI00
aI00
aI00
aI00
aI00
aI00
aa(lp4391
I31679
aF293.418
aF129.264
aVp4
p4392
aS'utopia'
p4393
aS'#656565'
p4394
aF8.88595
aI0
aI01
aI01
aI00
aI00
aI00
aI00
aI00
aI00
aa(lp4395
I51933
aF306.746
aF129.264
aVp4
p4396
aS'utopia'
p4397
aS'#656565'
p4398
aF8.88595
aI0
aI01
aI00
aI00
aI00
aI00
aI00
aI00
aI00
aa(lp4399
I12510
aF330.442
aF129.264
aVp4
p4400
aS'utopia'
p4401
aS'#656565'
p4402
aF8.88595
aI0
aI01
aI00
aI00
aI00
aI00
aI00
aI00
aI00
aa(lp4403
I234378
aF352.7559142857143
aF129.264
ag4400
aS'utopia'
p4404
aS'#656565'
p4405
aF8.88595
aI0
aI00
aI00
aI00
aI00
aI00
aI00
aI00
aI00
aa(lp4406
I147321
aF358.581
aF129.264
aVp4
p4407
aS'utopia'
p4408
aS'#434343'
p4409
aF8.88595
aI0
aI01
aI00
aI00
aI00
aI00
aI00
aI00
aI00
aa(lp4410
I89480
aF405.232
aF129.264
aVp4
p4411
aS'utopia'
p4412
aS'#434343'
p4413
aF8.88595
aI0
aI00
aI00
aI00
aI00
aI00
aI00
aI00
aI00
aa(lp4414
I51933
aF415.599
aF129.264
aVp4
p4415
aS'utopia'
p4416
aS'#434343'
p4417
aF8.88595
aI0
aI00
aI00
aI00
aI00
aI00
aI00
aI00
aI00
aa(lp4418
I135639
aF437.814
aF129.264
aVp4
p4419
aS'utopia'
p4420
aS'#434343'
p4421
aF8.88595
aI0
aI00
aI00
aI00
aI00
aI00
aI00
aI00
aI00
aa(lp4422
I31679
aF447.441
aF129.264
aVp4
p4423
aS'utopia'
p4424
aS'#434343'
p4425
aF8.88595
aI0
aI01
aI01
aI00
aI00
aI00
aI00
aI00
aI00
aa(lp4426
I234378
aF293.418
aF144.815
aVp4
p4427
aS'utopia'
p4428
aS'#656565'
p4429
aF8.88595
aI0
aI01
aI00
aI00
aI00
aI00
aI00
aI00
aI00
aa(lp4430
I234378
aF330.17652
aF144.815
ag4427
aS'utopia'
p4431
aS'#656565'
p4432
aF8.88595
aI0
aI00
aI00
aI00
aI00
aI00
aI00
aI00
aI00
aa(lp4433
I164802
aF336.366
aF144.815
aVp4
p4434
aS'utopia'
p4435
aS'#434343'
p4436
aF8.88595
aI0
aI01
aI00
aI00
aI00
aI00
aI00
aI00
aI00
aa(lp4437
I166771
aF293.418
aF164.702
aVp4
p4438
aS'utopia'
p4439
aS'#656565'
p4440
aF10.3669
aI1
aI01
aI00
aI00
aI00
aI00
aI00
aI00
aI00
aa(lp4441
I74833
aF349.695
aF164.702
aVp4
p4442
aS'utopia'
p4443
aS'#656565'
p4444
aF10.3669
aI1
aI01
aI00
aI00
aI00
aI00
aI00
aI00
aI00
aa(lp4445
I233758
aF293.418
aF180.359
aVp4
p4446
aS'utopia'
p4447
aS'#656565'
p4448
aF8.88595
aI0
aI01
aI00
aI00
aI00
aI00
aI00
aI00
aI00
aa(lp4449
I234378
aF327.0898222222222
aF180.359
ag4446
aS'utopia'
p4450
aS'#656565'
p4451
aF8.88595
aI0
aI00
aI00
aI00
aI00
aI00
aI00
aI00
aI00
aa(lp4452
I234378
aF333.404
aF180.359
aVp4
p4453
aS'utopia'
p4454
aS'#434343'
p4455
aF8.88595
aI0
aI01
aI01
aI00
aI00
aI00
aI00
aI00
aI00
aa(lp4456
I227962
aF357.841
aF180.359
aVp4
p4457
aS'utopia'
p4458
aS'#434343'
p4459
aF8.88595
aI0
aI01
aI00
aI00
aI00
aI00
aI00
aI00
aI00
aa(lp4460
I151511
aF293.418
aF195.909
aVp4
p4461
aS'utopia'
p4462
aS'#656565'
p4463
aF8.88595
aI0
aI01
aI00
aI00
aI00
aI00
aI00
aI00
aI00
aa(lp4464
I234378
aF334.145
aF195.909
aVp4
p4465
aS'utopia'
p4466
aS'#656565'
p4467
aF8.88595
aI0
aI01
aI00
aI00
aI00
aI00
aI00
aI00
aI00
aa(lp4468
I234378
aF375.9870909090909
aF195.909
ag4465
aS'utopia'
p4469
aS'#656565'
p4470
aF8.88595
aI0
aI00
aI00
aI00
aI00
aI00
aI00
aI00
aI00
aa(lp4471
I201816
aF382.277
aF195.909
aVp4
p4472
aS'utopia'
p4473
aS'#434343'
p4474
aF8.88595
aI0
aI01
aI00
aI00
aI00
aI00
aI00
aI00
aI00
aa(lp4475
I1
aI1
aI1
aI0
aI0
aI0
aI0
aI0
aI0
aI0
aI0
aI0
aI0
aI0
aI0
aI0
aI0
aI0
aI0
aI0
aI0
aI0
aI0
aI0
aI0
aI0
aI0
aI0
aI0
aI0
aI0
aI0
aI0
aI0
aI0
aI0
aI0
aI0
aI0
aI0
aI0
aI0
aI0
aI0
aI0
aI0
aI0
aI0
aI0
aI0
aI0
aI0
aI0
aI0
aI0
aI0
aI0
aI0
aI0
aI0
aI0
aI0
aI0
aI0
aI0
aI0
aI0
aI0
aI0
aI0
aI0
aI0
aI0
aI0
aI0
aI0
aI0
aI0
aI0
aI0
aI0
aI0
aI0
aI0
aI0
aI0
aI0
aI0
aI0
aI0
aI0
aI0
aI0
aI0
aI0
aI0
aI0
aI0
aI0
aI0
aI0
aI0
aI0
aI0
aI0
aI0
aI0
aI0
aI0
aI0
aI0
aI0
aI0
aI0
aI0
aI0
aI0
aI0
aI0
aI0
aI1
aI1
aI0
aI0
aI0
aI0
aI0
aI0
aI0
aI0
aI0
aI0
aI0
aI0
aI0
aI0
aI0
aI0
aI0
aI0
aI0
aI0
aI0
aI0
aI0
aI0
aI0
aI0
aI0
aI0
aI0
aI0
aI0
aI0
aI0
aI0
aI0
aI0
aI0
aI0
aI0
aI0
aI0
aI0
aI0
aI0
aI0
aI0
aI0
aI0
aI0
aI0
aI0
aI0
aI0
aI0
aI0
aI0
aI0
aI0
aI0
aI0
aI0
aI0
aI0
aI0
aI0
aI0
aI0
aI0
aI0
aI0
aI0
aI0
aI0
aI0
aI0
aI0
aI0
aI0
aI0
aI0
aI0
aI0
aI0
aI0
aI0
aI0
aI0
aI0
aI0
aI0
aI0
aI0
aI0
aI0
aI0
aI0
aI0
aI0
aI0
aI0
aI0
aI0
aI0
aI0
aI0
aI0
aI0
aI0
aI0
aI0
aI0
aI0
aI0
aI0
aI0
aI0
aI0
aI0
aI0
aI0
aI0
aI0
aI0
aI0
aI0
aI0
aI0
aI0
aI0
aI0
aI0
aI0
aI0
aI0
aI0
aI0
aI0
aI0
aI0
aI0
aI0
aI0
aI0
aI0
aI0
aI0
aI0
aI0
aI0
aI0
aI0
aI0
aI0
aI0
aI0
aI0
aI0
aI0
aI0
aI0
aI0
aI0
aI0
aI0
aI0
aI0
aI0
aI0
aI0
aI0
aI0
aI0
aI0
aI0
aI0
aI0
aI0
aI0
aI0
aI0
aI0
aI0
aI0
aI0
aI0
aI0
aI0
aI0
aI0
aI0
aI0
aI0
aI0
aI0
aI0
aI0
aI0
aI0
aI0
aI0
aI0
aI0
aI0
aI0
aI0
aI0
aI0
aI0
aI0
aI0
aI0
aI0
aI0
aI0
aI0
aI0
aI0
aI0
aI0
aI0
aI0
aI0
aI0
aI0
aI0
aI0
aI0
aI0
aI0
aI0
aI0
aI0
aI0
aI0
aI0
aI0
aI0
aI0
aI0
aI0
aI0
aI0
aI0
aI0
aI0
aI0
aI0
aI0
aI0
aI0
aI0
aI0
aI0
aI0
aI0
aI0
aI0
aI0
aI0
aI0
aI0
aI0
aI0
aI0
aI0
aI0
aI0
aI0
aI0
aI0
aI0
aI0
aI0
aI0
aI0
aI0
aI0
aI0
aI0
aI0
aI0
aI0
aI0
aI0
aI0
aI0
aI0
aI0
aI0
aI0
aI0
aI0
aI0
aI0
aI0
aI0
aI0
aI0
aI0
aI0
aI0
aI0
aI0
aI0
aI0
aI0
aI0
aI0
aI0
aI0
aI0
aI0
aI0
aI0
aI0
aI0
aI0
aI0
aI0
aI0
aI0
aI0
aI0
aI0
aI0
aI0
aI0
aI0
aI0
aI0
aI0
aI0
aI0
aI0
aI0
aI0
aI0
aI0
aI0
aI0
aI0
aI0
aI0
aI0
aI0
aI0
aI0
aI0
aI0
aI0
aI0
aI0
aI0
aI0
aI0
aI0
aI0
aI0
aI0
aI0
aI0
aI0
aI0
aI0
aI0
aI0
aI0
aI0
aI0
aI0
aI0
aI0
aI0
aI0
aI0
aI0
aI0
aI0
aI0
aI0
aI0
aI0
aI0
aI0
aI0
aI0
aI0
aI0
aI0
aI0
aI0
aI0
aI0
aI0
aI0
aI0
aI0
aI0
aI0
aI0
aI0
aI0
aI0
aI0
aI0
aI0
aI0
aI0
aI0
aI0
aI0
aI0
aI0
aI0
aI0
aI0
aI0
aI0
aI0
aI0
aI0
aI0
aI0
aI0
aI0
aI0
aI0
aI0
aI0
aI0
aI0
aI0
aI0
aI0
aI0
aI0
aI0
aI0
aI0
aI0
aI0
aI0
aI0
aI0
aI0
aI0
aI0
aI0
aI0
aI0
aI0
aI0
aI0
aI0
aI0
aI0
aI0
aI0
aI0
aI0
aI0
aI0
aI0
aI0
aI0
aI0
aI0
aI0
aI0
aI0
aI0
aI0
aI0
aI0
aI0
aI0
aI0
aI0
aI0
aI0
aI0
aI0
aI0
aI0
aI0
aI0
aI0
aI0
aI0
aI0
aI0
aI0
aI0
aI0
aI0
aI0
aI0
aI0
aI0
aI0
aI0
aI0
aI0
aI0
aI0
aI0
aI0
aI0
aI0
aI0
aI0
aI0
aI0
aI0
aI0
aI0
aI0
aI0
aI0
aI0
aI0
aI0
aI0
aI0
aI0
aI0
aI0
aI0
aI0
aI0
aI0
aI0
aI0
aI0
aI0
aI0
aI0
aI0
aI0
aI0
aI0
aI0
aI0
aI0
aI0
aI0
aI0
aI0
aI0
aI0
aI0
aI0
aI0
aI0
aI0
aI0
aI0
aI0
aI0
aI0
aI0
aI0
aI0
aI0
aI0
aI0
aI0
aI0
aI0
aI0
aI0
aI0
aI0
aI0
aI0
aI0
aI0
aI0
aI0
aI0
aI0
aI0
aI0
aI0
aI0
aI0
aI0
aI0
aI0
aI0
aI0
aI0
aI0
aI0
aI0
aI0
aI0
aI0
aI0
aI0
aI0
aI0
aI0
aI0
aI0
aI0
aI0
aI0
aI0
aI0
aI0
aI0
aI0
aI0
aI0
aI0
aI0
aI0
aI0
aI0
aI0
aI0
aI0
aI0
aI0
aI0
aI0
aI0
aI0
aI0
aI0
aI0
aI0
aI0
aI0
aI0
aI0
aI0
aI0
aI0
aI0
aI0
aI0
aI0
aI0
aI0
aI0
aI0
aI0
aI0
aI0
aI0
aI0
aI0
aI0
aI0
aI0
aI0
aI0
aI0
aI0
aI0
aI0
aI0
aI0
aI0
aI0
aI0
aI0
aI0
aI0
aI0
aI0
aI0
aI0
aI0
aI0
aI0
aI0
aI0
aI0
aI0
aI0
aI0
aI0
aI0
aI0
aI0
aI0
aI0
aI0
aI0
aI0
aI0
aI0
aI0
aI0
aI0
aI0
aI0
aI0
aI0
aI0
aI0
aI0
aI0
aI0
aI0
aI0
aI0
aI0
aI0
aI0
aI0
aI0
aI0
aI0
aI0
aI0
aI0
aI0
aI0
aI0
aI0
aI0
aI0
aI0
aI0
aI0
aI0
aI0
aI0
aI0
aI0
aI0
aI0
aI0
aI0
aI0
aI0
aI0
aI0
aI0
aI0
aI0
aI0
aI0
aI0
aI0
aI0
aI0
aI0
aI0
aI0
aI0
aI0
aI0
aI0
aI0
aI0
aI0
aI0
aI0
aI0
aI0
aI0
aI0
aI0
aI0
aI0
aI0
aI0
aI0
aI0
aI0
aI0
aI0
aI0
aI0
aI0
aI0
aI0
aI0
aI0
aI0
aI0
aI0
aI0
aI0
aI0
aI0
aI0
aI0
aI0
aI1
aI0
aI0
aI0
aI0
aI0
aI0
aI0
aI0
aI0
aI0
aI0
aI0
aI0
aI0
aI0
aI0
aI0
aI0
aI0
aI0
aI0
aI0
aI1
aI1
aI1
aI0
aI0
aI0
aI0
aI0
aI0
aI0
aI0
aI0
aI0
aI0
aI0
aI0
aI0
aI0
aI0
aI0
aI0
aI0
aI0
aI0
aI0
aI0
aI0
aI0
aI0
aI0
aI0
aI0
aI0
aI0
aI0
aI0
aI0
aI0
aI0
aI0
aI0
aI0
aI0
aI0
aI0
aI0
aI0
aI0
aI0
aI0
aI0
aI0
aI0
aI0
aI0
aI0
aI0
aI0
aI0
aI0
aI0
aI0
aI0
aI0
aI0
aI0
aI0
aI0
aI0
aI0
aI0
aI0
aI0
aI0
aI0
aI0
aI0
aI0
aI0
aI0
aI0
aI0
aI0
aI0
aI0
aI0
aI0
aI0
aI0
aI0
aI0
aI0
aI0
aI0
aI0
aI0
aI0
aI0
aI0
aI0
aI0
aI0
aI0
aI0
aI0
aI0
aI0
aI0
aI0
aI0
aI0
aI0
aI0
aI0
aI0
aI0
aI0
aI0
aI0
aI0
aI1
aI1
aI0
aI0
aI0
aI0
aI0
aI0
aI0
aI0
aI0
aI1
aI0
aI0
aI0
aI1
aI1
aI0
aI0
aI0
aI0
aI0
aI0
aI0
aI0
aI0
aI0
aI0
aI0
aI0
aI0
aI0
aI0
aI0
aI0
aI0
aI0
aI0
aI0
aI0
aI0
aI0
aI0
aI0
aI0
aI0
aI0
aI0
aI0
aI0
aI0
aI0
aI0
aI0
aI0
aI0
aI0
aI0
aI0
aI0
aI0
aI0
aI0
aI0
aI0
aI0
aI0
aI0
aI0
aI0
aI0
aI0
aI0
aI0
aI0
aI0
aI0
aI0
aI0
aI0
aI0
aI0
aI0
aI0
aI0
aI0
aI0
aI0
aI0
aI0
aI0
aI0
aI0
aI0
aI0
aI0
aI0
aI0
aI0
aI0
aI0
aI0
aI0
aI0
aI0
aI0
aI0
aI0
aI0
aI0
aI0
aI0
aI0
aI0
aI0
aI0
aI0
aI0
aI0
aI0
aI0
aI0
aI0
aI0
aI0
aI0
aI0
aI0
aI0
atp4476
.