((lp0
(lp1
I234378
aF40.9084
aF53.0111
aVp1
p2
aS'utopia'
p3
aS'#02304b'
p4
aF11.8479
aI1
aI01
aI00
aI00
aI00
aI00
aI00
aI00
aI00
aa(lp5
I166593
aF121.622
aF53.0111
aVp1
p6
aS'utopia'
p7
aS'#02304b'
p8
aF11.8479
aI1
aI01
aI01
aI00
aI00
aI00
aI00
aI00
aI00
aa(lp9
I234378
aF46.8324
aF74.4677
aVp1
p10
aS'utopia'
p11
aS'#656565'
p12
aF8.88595
aI0
aI00
aI00
aI01
aI01
aI00
aI00
aI00
aI00
aa(lp13
I234378
aF53.4969
aF74.4677
aVp1
p14
aS'utopia'
p15
aS'#656565'
p16
aF8.88595
aI0
aI00
aI00
aI00
aI00
aI00
aI00
aI00
aI00
aa(lp17
I144489
aF76.4522
aF74.4677
aVp1
p18
aS'utopia'
p19
aS'#656565'
p20
aF8.88595
aI0
aI00
aI00
aI00
aI00
aI00
aI00
aI00
aI00
aa(lp21
I60220
aF86.8192
aF74.4677
aVp1
p22
aS'utopia'
p23
aS'#656565'
p24
aF8.88595
aI0
aI00
aI00
aI00
aI00
aI00
aI00
aI00
aI00
aa(lp25
I135639
aF131.989
aF74.4677
aVp1
p26
aS'utopia'
p27
aS'#656565'
p28
aF8.88595
aI0
aI00
aI00
aI00
aI00
aI00
aI00
aI00
aI00
aa(lp29
I60201
aF141.616
aF74.4677
aVp1
p30
aS'utopia'
p31
aS'#656565'
p32
aF8.88595
aI0
aI00
aI00
aI00
aI00
aI00
aI00
aI00
aI00
aa(lp33
I46145
aF156.426
aF74.4677
aVp1
p34
aS'utopia'
p35
aS'#656565'
p36
aF8.88595
aI0
aI00
aI00
aI00
aI00
aI00
aI00
aI00
aI00
aa(lp37
I68032
aF178.641
aF74.4677
aVp1
p38
aS'utopia'
p39
aS'#656565'
p40
aF8.88595
aI0
aI00
aI00
aI00
aI00
aI00
aI00
aI00
aI00
aa(lp41
I169745
aF232.697
aF74.4677
aVp1
p42
aS'utopia'
p43
aS'#656565'
p44
aF8.88595
aI0
aI00
aI00
aI00
aI00
aI00
aI00
aI00
aI00
aa(lp45
I234378
aF251.95
aF74.4677
aVp1
p46
aS'utopia'
p47
aS'#656565'
p48
aF8.88595
aI0
aI01
aI00
aI00
aI00
aI00
aI00
aI00
aI00
aa(lp49
I234378
aF294.43466666666666
aF74.4677
ag46
aS'utopia'
p50
aS'#656565'
p51
aF8.88595
aI0
aI00
aI00
aI00
aI00
aI00
aI00
aI00
aI00
aa(lp52
I234378
aF298.68313333333333
aF74.4677
ag46
aS'utopia'
p53
aS'#656565'
p54
aF8.88595
aI0
aI01
aI00
aI00
aI00
aI00
aI00
aI00
aI00
aa(lp55
I234378
aF311.42853333333335
aF74.4677
ag46
aS'utopia'
p56
aS'#656565'
p57
aF8.88595
aI0
aI00
aI00
aI00
aI00
aI00
aI00
aI00
aI00
aa(lp58
I234378
aF315.677
aF74.4677
ag46
aS'utopia'
p59
aS'#656565'
p60
aF8.88595
aI0
aI01
aI01
aI00
aI00
aI00
aI00
aI00
aI00
aa(lp61
I234378
aF317.17393333333337
aF74.4677
ag46
aS'utopia'
p62
aS'#656565'
p63
aF8.88595
aI0
aI00
aI00
aI00
aI00
aI00
aI00
aI00
aI00
aa(lp64
I165851
aF328.42240000000004
aF74.4677
ag46
aS'utopia'
p65
aS'#656565'
p66
aF8.88595
aI0
aI01
aI00
aI00
aI00
aI00
aI00
aI00
aI00
aa(lp67
I234378
aF343.1616666666667
aF74.4677
ag46
aS'utopia'
p68
aS'#656565'
p69
aF8.88595
aI0
aI00
aI00
aI00
aI00
aI00
aI00
aI00
aI00
aa(lp70
I158280
aF362.41013333333336
aF74.4677
ag46
aS'utopia'
p71
aS'#656565'
p72
aF8.88595
aI0
aI01
aI00
aI00
aI00
aI00
aI00
aI00
aI00
aa(lp73
I85218
aF381.537
aF74.4677
aVp1
p74
aS'utopia'
p75
aS'#656565'
p76
aF8.88595
aI0
aI00
aI00
aI00
aI00
aI00
aI00
aI00
aI00
aa(lp77
I21716
aF398.568
aF74.4677
aVp1
p78
aS'utopia'
p79
aS'#656565'
p80
aF8.88595
aI0
aI01
aI00
aI00
aI00
aI00
aI00
aI00
aI00
aa(lp81
I234378
aF415.75146666666666
aF74.4677
ag78
aS'utopia'
p82
aS'#656565'
p83
aF8.88595
aI0
aI00
aI00
aI00
aI00
aI00
aI00
aI00
aI00
aa(lp84
I234378
aF420.0473333333333
aF74.4677
ag78
aS'utopia'
p85
aS'#656565'
p86
aF8.88595
aI0
aI01
aI01
aI01
aI00
aI00
aI00
aI00
aI00
aa(lp87
I234378
aF59.4208
aF122.6
aVp1
p88
aS'utopia'
p89
aS'#0d75b4'
p90
aF8.88595
aI0
aI00
aI00
aI00
aI00
aI00
aI01
aI00
aI00
aa(lp91
I234378
aF59.4208
aF139.631
aVp1
p92
aS'utopia'
p93
aS'#0d75b4'
p94
aF8.88595
aI0
aI00
aI00
aI00
aI00
aI00
aI01
aI00
aI00
aa(lp95
I234378
aF301.563
aF130.745
aVp1
p96
aS'utopia'
p97
aS'#000000'
p98
aF8.88595
aI0
aI00
aI00
aI01
aI01
aI01
aI00
aI00
aI00
aa(lp99
I15548
aF55.7183
aF172.213
aVp1
p100
aS'utopia'
p101
aS'#878787'
p102
aF8.88595
aI0
aI01
aI00
aI00
aI00
aI00
aI00
aI00
aI00
aa(lp103
I104542
aF89.0407
aF172.213
aVp1
p104
aS'utopia'
p105
aS'#878787'
p106
aF8.88595
aI0
aI01
aI00
aI00
aI00
aI00
aI00
aI00
aI00
aa(lp107
I234378
aF133.94655
aF172.213
ag104
aS'utopia'
p108
aS'#878787'
p109
aF8.88595
aI0
aI00
aI00
aI00
aI00
aI00
aI00
aI00
aI00
aa(lp110
I55966
aF142.356
aF172.213
aVp1
p111
aS'utopia'
p112
aS'#000000'
p113
aF8.88595
aI0
aI01
aI00
aI00
aI00
aI00
aI00
aI00
aI00
aa(lp114
I234378
aF169.755
aF172.213
aVp1
p115
aS'utopia'
p116
aS'#000000'
p117
aF8.88595
aI0
aI01
aI00
aI00
aI00
aI00
aI00
aI00
aI00
aa(lp118
I132100
aF206.779
aF172.213
aVp1
p119
aS'utopia'
p120
aS'#000000'
p121
aF8.88595
aI0
aI01
aI00
aI00
aI00
aI00
aI00
aI00
aI00
aa(lp122
I16915
aF308.227
aF172.213
aVp1
p123
aS'utopia'
p124
aS'#878787'
p125
aF8.88595
aI0
aI01
aI00
aI00
aI00
aI00
aI00
aI00
aI00
aa(lp126
I60220
aF330.442
aF172.213
aVp1
p127
aS'utopia'
p128
aS'#878787'
p129
aF8.88595
aI0
aI01
aI00
aI00
aI00
aI00
aI00
aI00
aI00
aa(lp130
I234378
aF372.28409090909093
aF172.213
ag127
aS'utopia'
p131
aS'#878787'
p132
aF8.88595
aI0
aI00
aI00
aI00
aI00
aI00
aI00
aI00
aI00
aa(lp133
I234378
aF380.796
aF172.213
aVp1
p134
aS'utopia'
p135
aS'#000000'
p136
aF8.88595
aI0
aI00
aI00
aI01
aI01
aI00
aI00
aI00
aI00
aa(lp137
I91136
aF387.46
aF172.213
aVp1
p138
aS'utopia'
p139
aS'#000000'
p140
aF8.88595
aI0
aI01
aI00
aI00
aI00
aI00
aI00
aI00
aI00
aa(lp141
I234378
aF403.18559999999997
aF172.213
ag138
aS'utopia'
p142
aS'#000000'
p143
aF8.88595
aI0
aI00
aI00
aI00
aI00
aI00
aI00
aI00
aI00
aa(lp144
I59734
aF407.11699999999996
aF172.213
ag138
aS'utopia'
p145
aS'#000000'
p146
aF8.88595
aI0
aI00
aI00
aI00
aI00
aI00
aI00
aI00
aI00
aa(lp147
I234378
aF411.04839999999996
aF172.213
ag138
aS'utopia'
p148
aS'#000000'
p149
aF8.88595
aI0
aI00
aI00
aI00
aI00
aI00
aI00
aI00
aI00
aa(lp150
I234378
aF417.08
aF172.213
aVp1
p151
aS'utopia'
p152
aS'#000000'
p153
aF8.88595
aI0
aI00
aI00
aI01
aI01
aI00
aI00
aI00
aI00
aa(lp154
I63729
aF423.745
aF172.213
aVp1
p155
aS'utopia'
p156
aS'#000000'
p157
aF8.88595
aI0
aI01
aI00
aI00
aI00
aI00
aI00
aI00
aI00
aa(lp158
I234378
aF446.4985625
aF172.213
ag155
aS'utopia'
p159
aS'#000000'
p160
aF8.88595
aI0
aI00
aI00
aI00
aI00
aI00
aI00
aI00
aI00
aa(lp161
I59734
aF451.04927499999997
aF172.213
ag155
aS'utopia'
p162
aS'#000000'
p163
aF8.88595
aI0
aI00
aI00
aI00
aI00
aI00
aI00
aI00
aI00
aa(lp164
I234378
aF455.59998749999994
aF172.213
ag155
aS'utopia'
p165
aS'#000000'
p166
aF8.88595
aI0
aI00
aI00
aI00
aI00
aI00
aI00
aI00
aI00
aa(lp167
I15548
aF55.7183
aF189.985
aVp1
p168
aS'utopia'
p169
aS'#878787'
p170
aF8.88595
aI0
aI01
aI00
aI00
aI00
aI00
aI00
aI00
aI00
aa(lp171
I2006
aF89.0407
aF189.985
aVp1
p172
aS'utopia'
p173
aS'#878787'
p174
aF8.88595
aI0
aI01
aI00
aI00
aI00
aI00
aI00
aI00
aI00
aa(lp175
I234378
aF124.77815
aF189.985
ag172
aS'utopia'
p176
aS'#878787'
p177
aF8.88595
aI0
aI00
aI00
aI00
aI00
aI00
aI00
aI00
aI00
aa(lp178
I234378
aF134.211
aF189.985
aVp1
p179
aS'utopia'
p180
aS'#000000'
p181
aF8.88595
aI0
aI01
aI00
aI00
aI00
aI00
aI00
aI00
aI00
aa(lp182
I164802
aF168.274
aF189.985
aVp1
p183
aS'utopia'
p184
aS'#000000'
p185
aF8.88595
aI0
aI01
aI00
aI00
aI00
aI00
aI00
aI00
aI00
aa(lp186
I234378
aF190.489
aF189.985
aVp1
p187
aS'utopia'
p188
aS'#000000'
p189
aF8.88595
aI0
aI00
aI00
aI00
aI00
aI00
aI00
aI00
aI00
aa(lp190
I234378
aF205.299
aF189.985
aVp1
p191
aS'utopia'
p192
aS'#000000'
p193
aF8.88595
aI0
aI00
aI00
aI00
aI00
aI00
aI00
aI00
aI00
aa(lp194
I234378
aF214.82692500000002
aF189.985
ag191
aS'utopia'
p195
aS'#000000'
p196
aF8.88595
aI0
aI00
aI00
aI00
aI00
aI00
aI00
aI00
aI00
aa(lp197
I229300
aF308.227
aF189.985
aVp1
p198
aS'utopia'
p199
aS'#878787'
p200
aF8.88595
aI0
aI01
aI00
aI00
aI00
aI00
aI00
aI00
aI00
aa(lp201
I78894
aF338.588
aF189.985
aVp1
p202
aS'utopia'
p203
aS'#878787'
p204
aF8.88595
aI0
aI01
aI00
aI00
aI00
aI00
aI00
aI00
aI00
aa(lp205
I234378
aF360.9019142857143
aF189.985
ag202
aS'utopia'
p206
aS'#878787'
p207
aF8.88595
aI0
aI00
aI00
aI00
aI00
aI00
aI00
aI00
aI00
aa(lp208
I234378
aF368.948
aF189.985
aVp1
p209
aS'utopia'
p210
aS'#000000'
p211
aF8.88595
aI0
aI01
aI00
aI00
aI00
aI00
aI00
aI00
aI00
aa(lp212
I234378
aF380.796
aF189.985
aVp1
p213
aS'utopia'
p214
aS'#000000'
p215
aF8.88595
aI0
aI00
aI00
aI01
aI01
aI01
aI00
aI00
aI00
aa(lp216
I234378
aF388.88576
aF189.985
ag213
aS'utopia'
p217
aS'#000000'
p218
aF8.88595
aI0
aI00
aI00
aI00
aI00
aI00
aI00
aI00
aI00
aa(lp219
I234378
aF392.93064
aF189.985
ag213
aS'utopia'
p220
aS'#000000'
p221
aF8.88595
aI0
aI00
aI00
aI01
aI01
aI01
aI00
aI00
aI00
aa(lp222
I234378
aF403.011
aF189.985
aVp1
p223
aS'utopia'
p224
aS'#000000'
p225
aF8.88595
aI0
aI01
aI00
aI00
aI00
aI00
aI00
aI00
aI00
aa(lp226
I15548
aF55.7183
aF207.757
aVp1
p227
aS'utopia'
p228
aS'#878787'
p229
aF8.88595
aI0
aI01
aI00
aI00
aI00
aI00
aI00
aI00
aI00
aa(lp230
I17057
aF89.0407
aF207.757
aVp1
p231
aS'utopia'
p232
aS'#878787'
p233
aF8.88595
aI0
aI01
aI00
aI00
aI00
aI00
aI00
aI00
aI00
aa(lp234
I234378
aF122.05430000000001
aF207.757
ag231
aS'utopia'
p235
aS'#878787'
p236
aF8.88595
aI0
aI00
aI00
aI00
aI00
aI00
aI00
aI00
aI00
aa(lp237
I234378
aF130.508
aF207.757
aVp1
p238
aS'utopia'
p239
aS'#000000'
p240
aF8.88595
aI0
aI01
aI00
aI00
aI00
aI00
aI00
aI00
aI00
aa(lp241
I234378
aF173.457
aF207.757
aVp1
p242
aS'utopia'
p243
aS'#000000'
p244
aF8.88595
aI0
aI00
aI00
aI00
aI00
aI00
aI00
aI00
aI00
aa(lp245
I234378
aF180.122
aF207.757
aVp1
p246
aS'utopia'
p247
aS'#000000'
p248
aF8.88595
aI0
aI01
aI00
aI00
aI00
aI00
aI00
aI00
aI00
aa(lp249
I234378
aF308.227
aF207.757
aVp1
p250
aS'utopia'
p251
aS'#878787'
p252
aF8.88595
aI0
aI01
aI00
aI00
aI00
aI00
aI00
aI00
aI00
aa(lp253
I234378
aF346.733
aF207.757
aVp1
p254
aS'utopia'
p255
aS'#878787'
p256
aF8.88595
aI0
aI01
aI01
aI00
aI00
aI00
aI00
aI00
aI00
aa(lp257
I234378
aF361.2593
aF207.757
ag254
aS'utopia'
p258
aS'#878787'
p259
aF8.88595
aI0
aI00
aI00
aI00
aI00
aI00
aI00
aI00
aI00
aa(lp260
I63091
aF370.429
aF207.757
aVp1
p261
aS'utopia'
p262
aS'#000000'
p263
aF8.88595
aI0
aI01
aI00
aI00
aI00
aI00
aI00
aI00
aI00
aa(lp264
I234378
aF387.46
aF207.757
aVp1
p265
aS'utopia'
p266
aS'#000000'
p267
aF8.88595
aI0
aI01
aI00
aI00
aI00
aI00
aI00
aI00
aI00
aa(lp268
I234378
aF55.7183
aF225.529
aVp1
p269
aS'utopia'
p270
aS'#878787'
p271
aF8.88595
aI0
aI01
aI00
aI00
aI00
aI00
aI00
aI00
aI00
aa(lp272
I234378
aF70.62062
aF225.529
ag269
aS'utopia'
p273
aS'#878787'
p274
aF8.88595
aI0
aI00
aI00
aI00
aI00
aI00
aI00
aI00
aI00
aa(lp275
I17057
aF76.4522
aF225.529
aVp1
p276
aS'utopia'
p277
aS'#878787'
p278
aF8.88595
aI0
aI01
aI00
aI00
aI00
aI00
aI00
aI00
aI00
aa(lp279
I234378
aF109.4658
aF225.529
ag276
aS'utopia'
p280
aS'#878787'
p281
aF8.88595
aI0
aI00
aI00
aI00
aI00
aI00
aI00
aI00
aI00
aa(lp282
I234378
aF117.92
aF225.529
aVp1
p283
aS'utopia'
p284
aS'#000000'
p285
aF8.88595
aI0
aI01
aI00
aI00
aI00
aI00
aI00
aI00
aI00
aa(lp286
I234378
aF160.869
aF225.529
aVp1
p287
aS'utopia'
p288
aS'#000000'
p289
aF8.88595
aI0
aI00
aI00
aI00
aI00
aI00
aI00
aI00
aI00
aa(lp290
I234378
aF167.533
aF225.529
aVp1
p291
aS'utopia'
p292
aS'#000000'
p293
aF8.88595
aI0
aI01
aI00
aI00
aI00
aI00
aI00
aI00
aI00
aa(lp294
I7204
aF308.227
aF225.529
aVp1
p295
aS'utopia'
p296
aS'#878787'
p297
aF8.88595
aI0
aI01
aI00
aI00
aI00
aI00
aI00
aI00
aI00
aa(lp298
I189220
aF340.809
aF225.529
aVp1
p299
aS'utopia'
p300
aS'#878787'
p301
aF8.88595
aI0
aI01
aI00
aI00
aI00
aI00
aI00
aI00
aI00
aa(lp302
I234378
aF366.93111428571433
aF225.529
ag299
aS'utopia'
p303
aS'#878787'
p304
aF8.88595
aI0
aI00
aI00
aI00
aI00
aI00
aI00
aI00
aI00
aa(lp305
I27780
aF375.613
aF225.529
aVp1
p306
aS'utopia'
p307
aS'#000000'
p308
aF8.88595
aI0
aI01
aI01
aI00
aI00
aI00
aI00
aI00
aI00
aa(lp309
I234378
aF379.93184545454545
aF225.529
ag306
aS'utopia'
p310
aS'#000000'
p311
aF8.88595
aI0
aI00
aI00
aI00
aI00
aI00
aI00
aI00
aI00
aa(lp312
I2737
aF384.2506909090909
aF225.529
ag306
aS'utopia'
p313
aS'#000000'
p314
aF8.88595
aI0
aI01
aI00
aI00
aI00
aI00
aI00
aI00
aI00
aa(lp315
I234378
aF401.5260727272727
aF225.529
ag306
aS'utopia'
p316
aS'#000000'
p317
aF8.88595
aI0
aI00
aI00
aI00
aI00
aI00
aI00
aI00
aI00
aa(lp318
I27780
aF398.8449181818182
aF225.529
ag306
aS'utopia'
p319
aS'#000000'
p320
aF8.88595
aI0
aI01
aI01
aI00
aI00
aI00
aI00
aI00
aI00
aa(lp321
I234378
aF403.1637636363636
aF225.529
ag306
aS'utopia'
p322
aS'#000000'
p323
aF8.88595
aI0
aI00
aI00
aI00
aI00
aI00
aI00
aI00
aI00
aa(lp324
I64620
aF414.4826090909091
aF225.529
ag306
aS'utopia'
p325
aS'#000000'
p326
aF8.88595
aI0
aI01
aI01
aI00
aI00
aI00
aI00
aI00
aI00
aa(lp327
I234378
aF409.80145454545453
aF225.529
ag306
aS'utopia'
p328
aS'#000000'
p329
aF8.88595
aI0
aI00
aI00
aI00
aI00
aI00
aI00
aI00
aI00
aa(lp330
I98580
aF55.7183
aF243.301
aVp1
p331
aS'utopia'
p332
aS'#878787'
p333
aF8.88595
aI0
aI01
aI00
aI00
aI00
aI00
aI00
aI00
aI00
aa(lp334
I166289
aF100.148
aF243.301
aVp1
p335
aS'utopia'
p336
aS'#878787'
p337
aF8.88595
aI0
aI01
aI00
aI00
aI00
aI00
aI00
aI00
aI00
aa(lp338
I234378
aF116.82751999999999
aF243.301
ag335
aS'utopia'
p339
aS'#878787'
p340
aF8.88595
aI0
aI00
aI00
aI00
aI00
aI00
aI00
aI00
aI00
aa(lp341
I22476
aF125.325
aF243.301
aVp1
p342
aS'utopia'
p343
aS'#000000'
p344
aF8.88595
aI0
aI01
aI01
aI00
aI00
aI00
aI00
aI00
aI00
aa(lp345
I234378
aF135.692
aF243.301
aVp1
p346
aS'utopia'
p347
aS'#000000'
p348
aF8.88595
aI0
aI01
aI00
aI00
aI00
aI00
aI00
aI00
aI00
aa(lp349
I177271
aF178.641
aF243.301
aVp1
p350
aS'utopia'
p351
aS'#000000'
p352
aF8.88595
aI0
aI01
aI00
aI00
aI00
aI00
aI00
aI00
aI00
aa(lp353
I48671
aF308.227
aF243.301
aVp1
p354
aS'utopia'
p355
aS'#878787'
p356
aF8.88595
aI0
aI01
aI00
aI00
aI00
aI00
aI00
aI00
aI00
aa(lp357
I129688
aF336.366
aF243.301
aVp1
p358
aS'utopia'
p359
aS'#878787'
p360
aF8.88595
aI0
aI00
aI00
aI00
aI00
aI00
aI00
aI00
aI00
aa(lp361
I234378
aF360.58405714285715
aF243.301
ag358
aS'utopia'
p362
aS'#878787'
p363
aF8.88595
aI0
aI00
aI00
aI00
aI00
aI00
aI00
aI00
aI00
aa(lp364
I234378
aF368.948
aF243.301
aVp1
p365
aS'utopia'
p366
aS'#000000'
p367
aF8.88595
aI0
aI00
aI00
aI01
aI01
aI00
aI00
aI00
aI00
aa(lp368
I234378
aF375.613
aF243.301
aVp1
p369
aS'utopia'
p370
aS'#000000'
p371
aF8.88595
aI0
aI01
aI00
aI00
aI00
aI00
aI00
aI00
aI00
aa(lp372
I176435
aF55.7183
aF261.073
aVp1
p373
aS'utopia'
p374
aS'#878787'
p375
aF8.88595
aI0
aI01
aI00
aI00
aI00
aI00
aI00
aI00
aI00
aa(lp376
I234378
aF71.80542
aF261.073
ag373
aS'utopia'
p377
aS'#878787'
p378
aF8.88595
aI0
aI00
aI00
aI00
aI00
aI00
aI00
aI00
aI00
aa(lp379
I234378
aF80.1547
aF261.073
aVp1
p380
aS'utopia'
p381
aS'#000000'
p382
aF8.88595
aI0
aI01
aI00
aI00
aI00
aI00
aI00
aI00
aI00
aa(lp383
I100815
aF117.18
aF261.073
aVp1
p384
aS'utopia'
p385
aS'#000000'
p386
aF8.88595
aI0
aI01
aI00
aI00
aI00
aI00
aI00
aI00
aI00
aa(lp387
I74589
aF55.7183
aF278.845
aVp1
p388
aS'utopia'
p389
aS'#878787'
p390
aF8.88595
aI0
aI01
aI00
aI00
aI00
aI00
aI00
aI00
aI00
aa(lp391
I234378
aF87.41545555555555
aF278.845
ag388
aS'utopia'
p392
aS'#878787'
p393
aF8.88595
aI0
aI00
aI00
aI00
aI00
aI00
aI00
aI00
aI00
aa(lp394
I22476
aF95.7051
aF278.845
aVp1
p395
aS'utopia'
p396
aS'#000000'
p397
aF8.88595
aI0
aI01
aI01
aI00
aI00
aI00
aI00
aI00
aI00
aa(lp398
I234378
aF105.30374
aF278.845
ag395
aS'utopia'
p399
aS'#000000'
p400
aF8.88595
aI0
aI01
aI00
aI00
aI00
aI00
aI00
aI00
aI00
aa(lp401
I234378
aF139.69830000000002
aF278.845
ag395
aS'utopia'
p402
aS'#000000'
p403
aF8.88595
aI0
aI00
aI00
aI00
aI00
aI00
aI00
aI00
aI00
aa(lp404
I234378
aF134.99762
aF278.845
ag395
aS'utopia'
p405
aS'#000000'
p406
aF8.88595
aI0
aI01
aI00
aI00
aI00
aI00
aI00
aI00
aI00
aa(lp407
I234378
aF183.824
aF278.845
aVp1
p408
aS'utopia'
p409
aS'#000000'
p410
aF8.88595
aI0
aI01
aI00
aI00
aI00
aI00
aI00
aI00
aI00
aa(lp411
I231013
aF55.7183
aF296.616
aVp1
p412
aS'utopia'
p413
aS'#878787'
p414
aF8.88595
aI0
aI01
aI00
aI00
aI00
aI00
aI00
aI00
aI00
aa(lp415
I234378
aF72.7498
aF296.616
aVp1
p416
aS'utopia'
p417
aS'#878787'
p418
aF8.88595
aI0
aI01
aI00
aI00
aI00
aI00
aI00
aI00
aI00
aa(lp419
I234378
aF91.25542857142857
aF296.616
ag416
aS'utopia'
p420
aS'#878787'
p421
aF8.88595
aI0
aI00
aI00
aI00
aI00
aI00
aI00
aI00
aI00
aa(lp422
I165851
aF98.6671
aF296.616
aVp1
p423
aS'utopia'
p424
aS'#000000'
p425
aF8.88595
aI0
aI01
aI00
aI00
aI00
aI00
aI00
aI00
aI00
aa(lp426
I234378
aF127.92517500000001
aF296.616
ag423
aS'utopia'
p427
aS'#000000'
p428
aF8.88595
aI0
aI00
aI00
aI00
aI00
aI00
aI00
aI00
aI00
aa(lp429
I234378
aF134.211
aF296.616
aVp1
p430
aS'utopia'
p431
aS'#000000'
p432
aF8.88595
aI0
aI01
aI00
aI00
aI00
aI00
aI00
aI00
aI00
aa(lp433
I234378
aF144.73324285714287
aF296.616
ag430
aS'utopia'
p434
aS'#000000'
p435
aF8.88595
aI0
aI00
aI00
aI00
aI00
aI00
aI00
aI00
aI00
aa(lp436
I234378
aF148.24065714285715
aF296.616
ag430
aS'utopia'
p437
aS'#000000'
p438
aF8.88595
aI0
aI01
aI01
aI00
aI00
aI00
aI00
aI00
aI00
aa(lp439
I234378
aF155.25548571428573
aF296.616
ag430
aS'utopia'
p440
aS'#000000'
p441
aF8.88595
aI0
aI00
aI00
aI00
aI00
aI00
aI00
aI00
aI00
aa(lp442
I234378
aF160.869
aF296.616
aVp1
p443
aS'utopia'
p444
aS'#000000'
p445
aF8.88595
aI0
aI01
aI00
aI00
aI00
aI00
aI00
aI00
aI00
aa(lp446
I234378
aF186.99111428571427
aF296.616
ag443
aS'utopia'
p447
aS'#000000'
p448
aF8.88595
aI0
aI00
aI00
aI00
aI00
aI00
aI00
aI00
aI00
aa(lp449
I234378
aF193.451
aF296.616
aVp1
p450
aS'utopia'
p451
aS'#000000'
p452
aF8.88595
aI0
aI00
aI00
aI00
aI00
aI00
aI00
aI00
aI00
aa(lp453
I234378
aF218.30377142857142
aF296.616
ag450
aS'utopia'
p454
aS'#000000'
p455
aF8.88595
aI0
aI00
aI00
aI00
aI00
aI00
aI00
aI00
aI00
aa(lp456
I108443
aF224.551
aF296.616
aVp1
p457
aS'utopia'
p458
aS'#000000'
p459
aF8.88595
aI0
aI01
aI00
aI00
aI00
aI00
aI00
aI00
aI00
aa(lp460
I68032
aF55.7183
aF306.983
aVp1
p461
aS'utopia'
p462
aS'#000000'
p463
aF8.88595
aI0
aI00
aI00
aI00
aI00
aI00
aI00
aI00
aI00
aa(lp464
I234378
aF105.37569166666665
aF306.983
ag461
aS'utopia'
p465
aS'#000000'
p466
aF8.88595
aI0
aI00
aI00
aI00
aI00
aI00
aI00
aI00
aI00
aa(lp467
I158280
aF111.996
aF306.983
aVp1
p468
aS'utopia'
p469
aS'#000000'
p470
aF8.88595
aI0
aI01
aI00
aI00
aI00
aI00
aI00
aI00
aI00
aa(lp471
I234378
aF128.7149
aF306.983
ag468
aS'utopia'
p472
aS'#000000'
p473
aF8.88595
aI0
aI00
aI00
aI00
aI00
aI00
aI00
aI00
aI00
aa(lp474
I234378
aF132.894625
aF306.983
ag468
aS'utopia'
p475
aS'#000000'
p476
aF8.88595
aI0
aI01
aI01
aI00
aI00
aI00
aI00
aI00
aI00
aa(lp477
I234378
aF141.254075
aF306.983
ag468
aS'utopia'
p478
aS'#000000'
p479
aF8.88595
aI0
aI00
aI00
aI00
aI00
aI00
aI00
aI00
aI00
aa(lp480
I21716
aF147.54
aF306.983
aVp1
p481
aS'utopia'
p482
aS'#000000'
p483
aF8.88595
aI0
aI01
aI00
aI00
aI00
aI00
aI00
aI00
aI00
aa(lp484
I234378
aF164.72346666666667
aF306.983
ag481
aS'utopia'
p485
aS'#000000'
p486
aF8.88595
aI0
aI00
aI00
aI00
aI00
aI00
aI00
aI00
aI00
aa(lp487
I234378
aF169.01933333333332
aF306.983
ag481
aS'utopia'
p488
aS'#000000'
p489
aF8.88595
aI0
aI01
aI01
aI01
aI00
aI00
aI00
aI00
aI00
aa(lp490
I85218
aF188.267
aF306.983
aVp1
p491
aS'utopia'
p492
aS'#000000'
p493
aF8.88595
aI0
aI00
aI00
aI00
aI00
aI00
aI00
aI00
aI00
aa(lp494
I83693
aF205.299
aF306.983
aVp1
p495
aS'utopia'
p496
aS'#000000'
p497
aF8.88595
aI0
aI00
aI00
aI00
aI00
aI00
aI00
aI00
aI00
aa(lp498
I234378
aF228.254
aF306.983
aVp1
p499
aS'utopia'
p500
aS'#000000'
p501
aF8.88595
aI0
aI01
aI00
aI00
aI00
aI00
aI00
aI00
aI00
aa(lp502
I234378
aF269.722
aF306.983
aVp1
p503
aS'utopia'
p504
aS'#000000'
p505
aF8.88595
aI0
aI01
aI01
aI00
aI00
aI00
aI00
aI00
aI00
aa(lp506
I234378
aF55.7183
aF317.35
aVp1
p507
aS'utopia'
p508
aS'#000000'
p509
aF8.88595
aI0
aI00
aI00
aI00
aI00
aI00
aI00
aI00
aI00
aa(lp510
I234378
aF100.92620909090908
aF317.35
ag507
aS'utopia'
p511
aS'#000000'
p512
aF8.88595
aI0
aI00
aI00
aI00
aI00
aI00
aI00
aI00
aI00
aa(lp513
I51933
aF40.1679
aF354.393
aVp1
p514
aS'utopia'
p515
aS'#02304b'
p516
aF11.8479
aI1
aI01
aI00
aI00
aI00
aI00
aI00
aI00
aI00
aa(lp517
I60220
aF72.0093
aF354.393
aVp1
p518
aS'utopia'
p519
aS'#02304b'
p520
aF11.8479
aI1
aI01
aI00
aI00
aI00
aI00
aI00
aI00
aI00
aa(lp521
I234378
aF40.9084
aF386.11
aVp1
p522
aS'utopia'
p523
aS'#000000'
p524
aF10.3669
aI1
aI01
aI00
aI00
aI00
aI00
aI00
aI00
aI00
aa(lp525
I164802
aF81.6357
aF386.11
aVp1
p526
aS'utopia'
p527
aS'#000000'
p528
aF10.3669
aI1
aI01
aI00
aI00
aI00
aI00
aI00
aI00
aI00
aa(lp529
I234378
aF109.034
aF386.11
aVp1
p530
aS'utopia'
p531
aS'#000000'
p532
aF10.3669
aI1
aI00
aI00
aI00
aI00
aI00
aI00
aI00
aI00
aa(lp533
I234378
aF126.806
aF386.11
aVp1
p534
aS'utopia'
p535
aS'#000000'
p536
aF10.3669
aI1
aI00
aI00
aI00
aI00
aI00
aI00
aI00
aI00
aa(lp537
I234378
aF138.40879999999999
aF386.11
ag534
aS'utopia'
p538
aS'#000000'
p539
aF10.3669
aI1
aI00
aI00
aI00
aI00
aI00
aI00
aI00
aI00
aa(lp540
I234378
aF144.578
aF386.379
aVp1
p541
aS'utopia'
p542
aS'#656565'
p543
aF10.3669
aI0
aI00
aI00
aI00
aI00
aI00
aI00
aI00
aI00
aa(lp544
I15548
aF149.555425
aF386.379
ag541
aS'utopia'
p545
aS'#656565'
p546
aF10.3669
aI0
aI01
aI00
aI00
aI00
aI00
aI00
aI00
aI00
aa(lp547
I70289
aF186.786
aF386.379
aVp1
p548
aS'utopia'
p549
aS'#656565'
p550
aF10.3669
aI0
aI01
aI00
aI00
aI00
aI00
aI00
aI00
aI00
aa(lp551
I234378
aF230.13497777777778
aF386.379
ag548
aS'utopia'
p552
aS'#656565'
p553
aF10.3669
aI0
aI00
aI00
aI00
aI00
aI00
aI00
aI00
aI00
aa(lp554
I55966
aF40.9084
aF402.67
aVp1
p555
aS'utopia'
p556
aS'#656565'
p557
aF10.3669
aI0
aI01
aI00
aI00
aI00
aI00
aI00
aI00
aI00
aa(lp558
I234378
aF73.4902
aF402.67
aVp1
p559
aS'utopia'
p560
aS'#656565'
p561
aF10.3669
aI0
aI01
aI00
aI00
aI00
aI00
aI00
aI00
aI00
aa(lp562
I132100
aF116.439
aF402.67
aVp1
p563
aS'utopia'
p564
aS'#656565'
p565
aF10.3669
aI0
aI01
aI00
aI00
aI00
aI00
aI00
aI00
aI00
aa(lp566
I37510
aF164.571
aF402.67
aVp1
p567
aS'utopia'
p568
aS'#656565'
p569
aF10.3669
aI0
aI01
aI00
aI00
aI00
aI00
aI00
aI00
aI01
aa(lp570
I234378
aF185.305
aF402.67
aVp1
p571
aS'utopia'
p572
aS'#656565'
p573
aF10.3669
aI0
aI00
aI00
aI01
aI01
aI01
aI00
aI00
aI00
aa(lp574
I123583
aF40.9084
aF422.501
aVp1
p575
aS'utopia'
p576
aS'#656565'
p577
aF8.88595
aI0
aI01
aI00
aI00
aI00
aI00
aI00
aI00
aI00
aa(lp578
I135639
aF76.4522
aF422.501
aVp1
p579
aS'utopia'
p580
aS'#656565'
p581
aF8.88595
aI0
aI00
aI00
aI00
aI00
aI00
aI00
aI00
aI00
aa(lp582
I165851
aF86.0787
aF422.501
aVp1
p583
aS'utopia'
p584
aS'#656565'
p585
aF8.88595
aI0
aI01
aI00
aI00
aI00
aI00
aI00
aI00
aI00
aa(lp586
I234378
aF112.66564705882352
aF422.501
ag583
aS'utopia'
p587
aS'#656565'
p588
aF8.88595
aI0
aI00
aI00
aI00
aI00
aI00
aI00
aI00
aI00
aa(lp589
I234378
aF116.46378235294117
aF422.501
ag583
aS'utopia'
p590
aS'#656565'
p591
aF8.88595
aI0
aI00
aI00
aI00
aI00
aI00
aI00
aI00
aI00
aa(lp592
I234378
aF124.06005294117647
aF422.501
ag583
aS'utopia'
p593
aS'#656565'
p594
aF8.88595
aI0
aI00
aI00
aI00
aI00
aI00
aI00
aI00
aI00
aa(lp595
I234378
aF127.85818823529411
aF422.501
ag583
aS'utopia'
p596
aS'#656565'
p597
aF8.88595
aI0
aI01
aI00
aI00
aI00
aI00
aI00
aI00
aI00
aa(lp598
I234378
aF132.25259411764705
aF422.501
ag583
aS'utopia'
p599
aS'#656565'
p600
aF8.88595
aI0
aI00
aI00
aI00
aI00
aI00
aI00
aI00
aI00
aa(lp601
I234378
aF136.0507294117647
aF422.501
ag583
aS'utopia'
p602
aS'#656565'
p603
aF8.88595
aI0
aI00
aI00
aI00
aI00
aI00
aI00
aI00
aI00
aa(lp604
I85218
aF152.723
aF422.501
aVp1
p605
aS'utopia'
p606
aS'#656565'
p607
aF8.88595
aI0
aI00
aI00
aI00
aI00
aI00
aI00
aI00
aI00
aa(lp608
I17350
aF169.755
aF422.501
aVp1
p609
aS'utopia'
p610
aS'#656565'
p611
aF8.88595
aI0
aI00
aI00
aI00
aI00
aI00
aI00
aI00
aI00
aa(lp612
I234378
aF188.267
aF422.501
aVp1
p613
aS'utopia'
p614
aS'#656565'
p615
aF8.88595
aI0
aI01
aI01
aI00
aI00
aI00
aI00
aI00
aI00
aa(lp616
I68032
aF200.115
aF422.501
aVp1
p617
aS'utopia'
p618
aS'#656565'
p619
aF8.88595
aI0
aI00
aI00
aI00
aI00
aI00
aI00
aI00
aI00
aa(lp620
I234378
aF249.77239166666666
aF422.501
ag617
aS'utopia'
p621
aS'#656565'
p622
aF8.88595
aI0
aI00
aI00
aI00
aI00
aI00
aI00
aI00
aI00
aa(lp623
I48671
aF40.9084
aF432.868
aVp1
p624
aS'utopia'
p625
aS'#656565'
p626
aF8.88595
aI0
aI01
aI00
aI00
aI00
aI00
aI00
aI00
aI00
aa(lp627
I129688
aF69.0473
aF432.868
aVp1
p628
aS'utopia'
p629
aS'#656565'
p630
aF8.88595
aI0
aI01
aI00
aI00
aI00
aI00
aI00
aI00
aI00
aa(lp631
I234378
aF97.1861
aF432.868
aVp1
p632
aS'utopia'
p633
aS'#656565'
p634
aF8.88595
aI0
aI00
aI00
aI00
aI00
aI00
aI00
aI00
aI00
aa(lp635
I234378
aF101.629
aF432.868
aVp1
p636
aS'utopia'
p637
aS'#656565'
p638
aF8.88595
aI0
aI00
aI00
aI01
aI01
aI00
aI00
aI00
aI00
aa(lp639
I234378
aF108.294
aF432.868
aVp1
p640
aS'utopia'
p641
aS'#656565'
p642
aF8.88595
aI0
aI01
aI00
aI00
aI00
aI00
aI00
aI00
aI00
aa(lp643
I234378
aF40.9084
aF466.083
aVp1
p644
aS'utopia'
p645
aS'#000000'
p646
aF10.3669
aI1
aI01
aI01
aI00
aI00
aI00
aI00
aI00
aI00
aa(lp647
I43052
aF77.9332
aF466.083
aVp1
p648
aS'utopia'
p649
aS'#000000'
p650
aF10.3669
aI1
aI01
aI00
aI00
aI00
aI00
aI00
aI00
aI00
aa(lp651
I234378
aF135.692
aF466.083
aVp1
p652
aS'utopia'
p653
aS'#000000'
p654
aF10.3669
aI1
aI01
aI00
aI00
aI00
aI00
aI00
aI00
aI00
aa(lp655
I234378
aF153.464
aF466.083
aVp1
p656
aS'utopia'
p657
aS'#000000'
p658
aF10.3669
aI1
aI01
aI00
aI00
aI00
aI00
aI00
aI00
aI00
aa(lp659
I234378
aF40.9084
aF482.644
aVp1
p660
aS'utopia'
p661
aS'#656565'
p662
aF10.3669
aI0
aI01
aI00
aI00
aI00
aI00
aI00
aI00
aI00
aa(lp663
I100815
aF83.8572
aF482.644
aVp1
p664
aS'utopia'
p665
aS'#656565'
p666
aF10.3669
aI0
aI01
aI00
aI00
aI00
aI00
aI00
aI00
aI00
aa(lp667
I27216
aF138.654
aF482.644
aVp1
p668
aS'utopia'
p669
aS'#656565'
p670
aF10.3669
aI0
aI01
aI00
aI00
aI00
aI00
aI00
aI00
aI01
aa(lp671
I234378
aF157.166
aF482.644
aVp1
p672
aS'utopia'
p673
aS'#656565'
p674
aF10.3669
aI0
aI00
aI00
aI01
aI01
aI01
aI00
aI00
aI00
aa(lp675
I89480
aF180.122
aF482.644
aVp1
p676
aS'utopia'
p677
aS'#656565'
p678
aF10.3669
aI0
aI01
aI00
aI00
aI00
aI00
aI00
aI00
aI00
aa(lp679
I37510
aF194.932
aF482.644
aVp1
p680
aS'utopia'
p681
aS'#656565'
p682
aF10.3669
aI0
aI01
aI00
aI00
aI00
aI00
aI00
aI00
aI01
aa(lp683
I234378
aF215.665
aF482.644
aVp1
p684
aS'utopia'
p685
aS'#656565'
p686
aF10.3669
aI0
aI00
aI00
aI01
aI01
aI01
aI00
aI00
aI00
aa(lp687
I234378
aF40.9084
aF502.474
aVp1
p688
aS'utopia'
p689
aS'#656565'
p690
aF8.88595
aI0
aI01
aI00
aI00
aI00
aI00
aI00
aI00
aI00
aa(lp691
I234378
aF81.5232
aF502.474
ag688
aS'utopia'
p692
aS'#656565'
p693
aF8.88595
aI0
aI00
aI00
aI00
aI00
aI00
aI00
aI00
aI00
aa(lp694
I21716
aF74.58468
aF502.474
ag688
aS'utopia'
p695
aS'#656565'
p696
aF8.88595
aI0
aI01
aI00
aI00
aI00
aI00
aI00
aI00
aI00
aa(lp697
I234378
aF96.8306
aF502.474
ag688
aS'utopia'
p698
aS'#656565'
p699
aF8.88595
aI0
aI00
aI00
aI00
aI00
aI00
aI00
aI00
aI00
aa(lp700
I77936
aF105.89208
aF502.474
ag688
aS'utopia'
p701
aS'#656565'
p702
aF8.88595
aI0
aI01
aI00
aI00
aI00
aI00
aI00
aI00
aI00
aa(lp703
I233063
aF144.578
aF502.474
aVp1
p704
aS'utopia'
p705
aS'#656565'
p706
aF8.88595
aI0
aI01
aI01
aI00
aI00
aI00
aI00
aI00
aI00
aa(lp707
I85218
aF152.723
aF502.474
aVp1
p708
aS'utopia'
p709
aS'#656565'
p710
aF8.88595
aI0
aI00
aI00
aI00
aI00
aI00
aI00
aI00
aI00
aa(lp711
I108443
aF169.755
aF502.474
aVp1
p712
aS'utopia'
p713
aS'#656565'
p714
aF8.88595
aI0
aI01
aI00
aI00
aI00
aI00
aI00
aI00
aI00
aa(lp715
I68032
aF199.375
aF502.474
aVp1
p716
aS'utopia'
p717
aS'#656565'
p718
aF8.88595
aI0
aI00
aI00
aI00
aI00
aI00
aI00
aI00
aI00
aa(lp719
I234378
aF40.9084
aF535.69
aVp1
p720
aS'utopia'
p721
aS'#000000'
p722
aF10.3669
aI1
aI01
aI00
aI00
aI00
aI00
aI00
aI00
aI00
aa(lp723
I234378
aF80.1547
aF535.69
aVp1
p724
aS'utopia'
p725
aS'#000000'
p726
aF10.3669
aI1
aI00
aI00
aI00
aI00
aI00
aI00
aI00
aI00
aa(lp727
I234378
aF119.401
aF535.69
aVp1
p728
aS'utopia'
p729
aS'#000000'
p730
aF10.3669
aI1
aI00
aI00
aI00
aI00
aI00
aI00
aI00
aI00
aa(lp731
I234378
aF137.173
aF535.69
aVp1
p732
aS'utopia'
p733
aS'#000000'
p734
aF10.3669
aI1
aI00
aI00
aI00
aI00
aI00
aI00
aI00
aI00
aa(lp735
I234378
aF148.7758
aF535.69
ag732
aS'utopia'
p736
aS'#000000'
p737
aF10.3669
aI1
aI00
aI00
aI00
aI00
aI00
aI00
aI00
aI00
aa(lp738
I234378
aF40.9084
aF552.25
aVp1
p739
aS'utopia'
p740
aS'#656565'
p741
aF10.3669
aI0
aI01
aI00
aI00
aI00
aI00
aI00
aI00
aI00
aa(lp742
I132100
aF83.8572
aF552.25
aVp1
p743
aS'utopia'
p744
aS'#656565'
p745
aF10.3669
aI0
aI01
aI00
aI00
aI00
aI00
aI00
aI00
aI00
aa(lp746
I37510
aF131.989
aF552.25
aVp1
p747
aS'utopia'
p748
aS'#656565'
p749
aF10.3669
aI0
aI01
aI00
aI00
aI00
aI00
aI00
aI00
aI01
aa(lp750
I234378
aF152.723
aF552.25
aVp1
p751
aS'utopia'
p752
aS'#656565'
p753
aF10.3669
aI0
aI00
aI00
aI01
aI01
aI01
aI00
aI00
aI00
aa(lp754
I89480
aF175.679
aF552.25
aVp1
p755
aS'utopia'
p756
aS'#656565'
p757
aF10.3669
aI0
aI01
aI00
aI00
aI00
aI00
aI00
aI00
aI00
aa(lp758
I27216
aF190.489
aF552.25
aVp1
p759
aS'utopia'
p760
aS'#656565'
p761
aF10.3669
aI0
aI01
aI00
aI00
aI00
aI00
aI00
aI00
aI01
aa(lp762
I234378
aF209.001
aF552.25
aVp1
p763
aS'utopia'
p764
aS'#656565'
p765
aF10.3669
aI0
aI00
aI00
aI01
aI01
aI01
aI00
aI00
aI00
aa(lp766
I108443
aF40.9084
aF572.081
aVp1
p767
aS'utopia'
p768
aS'#656565'
p769
aF8.88595
aI0
aI01
aI00
aI00
aI00
aI00
aI00
aI00
aI00
aa(lp770
I85218
aF70.5283
aF572.081
aVp1
p771
aS'utopia'
p772
aS'#656565'
p773
aF8.88595
aI0
aI00
aI00
aI00
aI00
aI00
aI00
aI00
aI00
aa(lp774
I17350
aF87.5597
aF572.081
aVp1
p775
aS'utopia'
p776
aS'#656565'
p777
aF8.88595
aI0
aI01
aI00
aI00
aI00
aI00
aI00
aI00
aI00
aa(lp778
I100815
aF107.553
aF572.081
aVp1
p779
aS'utopia'
p780
aS'#656565'
p781
aF8.88595
aI0
aI00
aI00
aI00
aI00
aI00
aI00
aI00
aI00
aa(lp782
I234378
aF149.021
aF572.081
aVp1
p783
aS'utopia'
p784
aS'#656565'
p785
aF8.88595
aI0
aI00
aI00
aI00
aI00
aI00
aI00
aI00
aI00
aa(lp786
I24461
aF171.976
aF572.081
aVp1
p787
aS'utopia'
p788
aS'#656565'
p789
aF8.88595
aI0
aI01
aI00
aI00
aI00
aI00
aI00
aI00
aI00
aa(lp790
I144483
aF203.818
aF572.081
aVp1
p791
aS'utopia'
p792
aS'#656565'
p793
aF8.88595
aI0
aI00
aI00
aI00
aI00
aI00
aI00
aI00
aI00
aa(lp794
I234378
aF216.406
aF572.081
aVp1
p795
aS'utopia'
p796
aS'#656565'
p797
aF8.88595
aI0
aI01
aI00
aI00
aI00
aI00
aI00
aI00
aI00
aa(lp798
I234378
aF238.08520000000001
aF572.081
ag795
aS'utopia'
p799
aS'#656565'
p800
aF8.88595
aI0
aI00
aI00
aI00
aI00
aI00
aI00
aI00
aI00
aa(lp801
I234378
aF243.804
aF572.081
aVp1
p802
aS'utopia'
p803
aS'#656565'
p804
aF8.88595
aI0
aI01
aI00
aI00
aI00
aI00
aI00
aI00
aI00
aa(lp805
I108443
aF273.424
aF572.081
aVp1
p806
aS'utopia'
p807
aS'#656565'
p808
aF8.88595
aI0
aI01
aI00
aI00
aI00
aI00
aI00
aI00
aI00
aa(lp809
I234378
aF298.9114857142857
aF572.081
ag806
aS'utopia'
p810
aS'#656565'
p811
aF8.88595
aI0
aI00
aI00
aI00
aI00
aI00
aI00
aI00
aI00
aa(lp812
I234378
aF305.265
aF572.081
aVp1
p813
aS'utopia'
p814
aS'#656565'
p815
aF8.88595
aI0
aI01
aI00
aI00
aI00
aI00
aI00
aI00
aI00
aa(lp816
I85218
aF348.955
aF572.081
aVp1
p817
aS'utopia'
p818
aS'#656565'
p819
aF8.88595
aI0
aI00
aI00
aI00
aI00
aI00
aI00
aI00
aI00
aa(lp820
I21716
aF365.986
aF572.081
aVp1
p821
aS'utopia'
p822
aS'#656565'
p823
aF8.88595
aI0
aI01
aI00
aI00
aI00
aI00
aI00
aI00
aI00
aa(lp824
I234378
aF380.88831999999996
aF572.081
ag821
aS'utopia'
p825
aS'#656565'
p826
aF8.88595
aI0
aI00
aI00
aI00
aI00
aI00
aI00
aI00
aI00
aa(lp827
I124531
aF40.1679
aF607.642
aVp1
p828
aS'utopia'
p829
aS'#02304b'
p830
aF11.8479
aI1
aI01
aI00
aI00
aI00
aI00
aI00
aI00
aI00
aa(lp831
I234378
aF40.9084
aF635.926
aVp1
p832
aS'utopia'
p833
aS'#656565'
p834
aF10.3669
aI0
aI01
aI00
aI00
aI00
aI00
aI00
aI00
aI00
aa(lp835
I234378
aF117.18
aF635.926
aVp1
p836
aS'utopia'
p837
aS'#656565'
p838
aF10.3669
aI0
aI00
aI00
aI00
aI00
aI00
aI00
aI00
aI00
aa(lp839
I60201
aF123.103
aF635.926
aVp1
p840
aS'utopia'
p841
aS'#656565'
p842
aF10.3669
aI0
aI01
aI00
aI00
aI00
aI00
aI00
aI00
aI00
aa(lp843
I230071
aF143.097
aF635.926
aVp1
p844
aS'utopia'
p845
aS'#656565'
p846
aF10.3669
aI0
aI01
aI00
aI00
aI00
aI00
aI00
aI00
aI00
aa(lp847
I234378
aF169.755
aF635.926
aVp1
p848
aS'utopia'
p849
aS'#656565'
p850
aF10.3669
aI0
aI00
aI00
aI00
aI00
aI00
aI00
aI00
aI00
aa(lp851
I27780
aF40.9084
aF651.948
aVp1
p852
aS'utopia'
p853
aS'#000000'
p854
aF10.3669
aI1
aI01
aI01
aI00
aI00
aI00
aI00
aI00
aI00
aa(lp855
I234378
aF46.15191818181818
aF651.948
ag852
aS'utopia'
p856
aS'#000000'
p857
aF10.3669
aI1
aI00
aI00
aI00
aI00
aI00
aI00
aI00
aI00
aa(lp858
I2737
aF51.395436363636364
aF651.948
ag852
aS'utopia'
p859
aS'#000000'
p860
aF10.3669
aI1
aI01
aI00
aI00
aI00
aI00
aI00
aI00
aI00
aa(lp861
I234378
aF72.36950909090909
aF651.948
ag852
aS'utopia'
p862
aS'#000000'
p863
aF10.3669
aI1
aI00
aI00
aI00
aI00
aI00
aI00
aI00
aI00
aa(lp864
I27780
aF70.61302727272727
aF651.948
ag852
aS'utopia'
p865
aS'#000000'
p866
aF10.3669
aI1
aI01
aI01
aI00
aI00
aI00
aI00
aI00
aI00
aa(lp867
I234378
aF75.85654545454545
aF651.948
ag852
aS'utopia'
p868
aS'#000000'
p869
aF10.3669
aI1
aI00
aI00
aI00
aI00
aI00
aI00
aI00
aI00
aa(lp870
I64620
aF88.10006363636364
aF651.948
ag852
aS'utopia'
p871
aS'#000000'
p872
aF10.3669
aI1
aI01
aI01
aI00
aI00
aI00
aI00
aI00
aI00
aa(lp873
I234378
aF84.34358181818183
aF651.948
ag852
aS'utopia'
p874
aS'#000000'
p875
aF10.3669
aI1
aI00
aI00
aI00
aI00
aI00
aI00
aI00
aI00
aa(lp876
I234378
aF100.889
aF651.948
aVp1
p877
aS'utopia'
p878
aS'#000000'
p879
aF10.3669
aI1
aI00
aI00
aI00
aI00
aI00
aI00
aI00
aI00
aa(lp880
I234378
aF106.48095454545454
aF651.948
ag877
aS'utopia'
p881
aS'#000000'
p882
aF10.3669
aI1
aI01
aI00
aI00
aI00
aI00
aI00
aI00
aI00
aa(lp883
I234378
aF156.80854545454542
aF651.948
ag877
aS'utopia'
p884
aS'#000000'
p885
aF10.3669
aI1
aI00
aI00
aI00
aI00
aI00
aI00
aI00
aI00
aa(lp886
I116303
aF40.9084
aF672.211
aVp1
p887
aS'utopia'
p888
aS'#656565'
p889
aF10.3669
aI0
aI01
aI00
aI00
aI00
aI00
aI00
aI00
aI00
aa(lp890
I153079
aF68.3068
aF672.211
aVp1
p891
aS'utopia'
p892
aS'#656565'
p893
aF10.3669
aI0
aI01
aI00
aI00
aI00
aI00
aI00
aI00
aI00
aa(lp894
I135639
aF123.103
aF672.211
aVp1
p895
aS'utopia'
p896
aS'#656565'
p897
aF10.3669
aI0
aI00
aI00
aI00
aI00
aI00
aI00
aI00
aI00
aa(lp898
I234378
aF134.951
aF672.211
aVp1
p899
aS'utopia'
p900
aS'#656565'
p901
aF10.3669
aI0
aI00
aI00
aI01
aI01
aI01
aI00
aI00
aI00
aa(lp902
I22476
aF40.1679
aF706.128
aVp1
p903
aS'utopia'
p904
aS'#02304b'
p905
aF11.8479
aI1
aI01
aI01
aI00
aI00
aI00
aI00
aI00
aI00
aa(lp906
I234378
aF54.2374
aF706.128
aVp1
p907
aS'utopia'
p908
aS'#02304b'
p909
aF11.8479
aI1
aI01
aI00
aI00
aI00
aI00
aI00
aI00
aI00
aa(lp910
I109610
aF48.3134
aF734.018
aVp1
p911
aS'utopia'
p912
aS'#000000'
p913
aF8.88595
aI1
aI01
aI00
aI00
aI00
aI00
aI00
aI00
aI00
aa(lp914
I158577
aF69.7878
aF734.018
aVp1
p915
aS'utopia'
p916
aS'#000000'
p917
aF8.88595
aI1
aI01
aI00
aI00
aI00
aI00
aI00
aI00
aI00
aa(lp918
I194179
aF188.267
aF734.018
aVp1
p919
aS'utopia'
p920
aS'#000000'
p921
aF8.88595
aI1
aI01
aI00
aI00
aI00
aI00
aI00
aI00
aI00
aa(lp922
I177981
aF305.265
aF734.018
aVp1
p923
aS'utopia'
p924
aS'#000000'
p925
aF8.88595
aI1
aI01
aI00
aI00
aI00
aI00
aI00
aI00
aI00
aa(lp926
I25729
aF324.518
aF734.018
aVp1
p927
aS'utopia'
p928
aS'#000000'
p929
aF8.88595
aI1
aI01
aI00
aI00
aI00
aI00
aI00
aI00
aI00
aa(lp930
I60220
aF412.637
aF734.018
aVp1
p931
aS'utopia'
p932
aS'#000000'
p933
aF8.88595
aI1
aI01
aI00
aI00
aI00
aI00
aI00
aI00
aI00
aa(lp934
I24461
aF48.3134
aF752.762
aVp1
p935
aS'utopia'
p936
aS'#656565'
p937
aF8.88595
aI0
aI01
aI00
aI00
aI00
aI00
aI00
aI00
aI00
aa(lp938
I144483
aF80.1547
aF752.762
aVp1
p939
aS'utopia'
p940
aS'#656565'
p941
aF8.88595
aI0
aI01
aI00
aI00
aI00
aI00
aI00
aI00
aI00
aa(lp942
I234378
aF94.2241
aF752.762
aVp1
p943
aS'utopia'
p944
aS'#656565'
p945
aF8.88595
aI0
aI01
aI00
aI00
aI00
aI00
aI00
aI00
aI00
aa(lp946
I234378
aF188.267
aF752.762
aVp1
p947
aS'utopia'
p948
aS'#656565'
p949
aF8.88595
aI0
aI00
aI00
aI01
aI01
aI00
aI00
aI00
aI00
aa(lp950
I234378
aF192.0465
aF752.762
ag947
aS'utopia'
p951
aS'#656565'
p952
aF8.88595
aI0
aI00
aI00
aI00
aI00
aI00
aI00
aI00
aI00
aa(lp953
I234378
aF195.82600000000002
aF752.762
ag947
aS'utopia'
p954
aS'#656565'
p955
aF8.88595
aI0
aI00
aI00
aI01
aI01
aI00
aI00
aI00
aI00
aa(lp956
I234378
aF317.113
aF752.762
aVp1
p957
aS'utopia'
p958
aS'#656565'
p959
aF8.88595
aI0
aI00
aI00
aI01
aI01
aI01
aI00
aI00
aI00
aa(lp960
I234378
aF404.492
aF752.762
aVp1
p961
aS'utopia'
p962
aS'#656565'
p963
aF8.88595
aI0
aI00
aI00
aI01
aI01
aI00
aI00
aI00
aI00
aa(lp964
I91136
aF411.156
aF752.762
aVp1
p965
aS'utopia'
p966
aS'#656565'
p967
aF8.88595
aI0
aI01
aI00
aI00
aI00
aI00
aI00
aI00
aI00
aa(lp968
I234378
aF431.15
aF752.762
aVp1
p969
aS'utopia'
p970
aS'#656565'
p971
aF8.88595
aI0
aI00
aI00
aI01
aI01
aI00
aI00
aI00
aI00
aa(lp972
I234378
aF437.814
aF752.762
aVp1
p973
aS'utopia'
p974
aS'#656565'
p975
aF8.88595
aI0
aI01
aI00
aI00
aI00
aI00
aI00
aI00
aI00
aa(lp976
I234378
aF48.3134
aF771.274
aVp1
p977
aS'utopia'
p978
aS'#656565'
p979
aF8.88595
aI0
aI01
aI00
aI00
aI00
aI00
aI00
aI00
aI00
aa(lp980
I234378
aF188.267
aF771.274
aVp1
p981
aS'utopia'
p982
aS'#656565'
p983
aF8.88595
aI0
aI00
aI00
aI01
aI01
aI00
aI00
aI00
aI00
aa(lp984
I234378
aF192.0465
aF771.274
ag981
aS'utopia'
p985
aS'#656565'
p986
aF8.88595
aI0
aI00
aI00
aI00
aI00
aI00
aI00
aI00
aI00
aa(lp987
I234378
aF195.82600000000002
aF771.274
ag981
aS'utopia'
p988
aS'#656565'
p989
aF8.88595
aI0
aI00
aI00
aI01
aI01
aI00
aI00
aI00
aI00
aa(lp990
I234378
aF317.113
aF771.274
aVp1
p991
aS'utopia'
p992
aS'#656565'
p993
aF8.88595
aI0
aI00
aI00
aI01
aI01
aI01
aI00
aI00
aI00
aa(lp994
I234378
aF403.011
aF771.274
aVp1
p995
aS'utopia'
p996
aS'#656565'
p997
aF8.88595
aI0
aI00
aI00
aI01
aI01
aI00
aI00
aI00
aI00
aa(lp998
I234378
aF409.675
aF771.274
aVp1
p999
aS'utopia'
p1000
aS'#656565'
p1001
aF8.88595
aI0
aI01
aI00
aI00
aI00
aI00
aI00
aI00
aI00
aa(lp1002
I234378
aF433.371
aF771.274
aVp1
p1003
aS'utopia'
p1004
aS'#656565'
p1005
aF8.88595
aI0
aI00
aI00
aI01
aI01
aI00
aI00
aI00
aI00
aa(lp1006
I234378
aF440.036
aF771.274
aVp1
p1007
aS'utopia'
p1008
aS'#656565'
p1009
aF8.88595
aI0
aI01
aI00
aI00
aI00
aI00
aI00
aI00
aI00
aa(lp1010
I234378
aF48.3134
aF789.787
aVp1
p1011
aS'utopia'
p1012
aS'#656565'
p1013
aF8.88595
aI0
aI01
aI00
aI00
aI00
aI00
aI00
aI00
aI00
aa(lp1014
I234378
aF188.267
aF789.787
aVp1
p1015
aS'utopia'
p1016
aS'#656565'
p1017
aF8.88595
aI0
aI00
aI00
aI01
aI01
aI00
aI00
aI00
aI00
aa(lp1018
I234378
aF317.113
aF789.787
aVp1
p1019
aS'utopia'
p1020
aS'#656565'
p1021
aF8.88595
aI0
aI00
aI00
aI01
aI01
aI01
aI00
aI00
aI00
aa(lp1022
I234378
aF403.011
aF789.787
aVp1
p1023
aS'utopia'
p1024
aS'#656565'
p1025
aF8.88595
aI0
aI00
aI00
aI01
aI01
aI00
aI00
aI00
aI00
aa(lp1026
I234378
aF409.675
aF789.787
aVp1
p1027
aS'utopia'
p1028
aS'#656565'
p1029
aF8.88595
aI0
aI01
aI00
aI00
aI00
aI00
aI00
aI00
aI00
aa(lp1030
I234378
aF433.371
aF789.787
aVp1
p1031
aS'utopia'
p1032
aS'#656565'
p1033
aF8.88595
aI0
aI00
aI00
aI01
aI01
aI00
aI00
aI00
aI00
aa(lp1034
I234378
aF440.036
aF789.787
aVp1
p1035
aS'utopia'
p1036
aS'#656565'
p1037
aF8.88595
aI0
aI01
aI00
aI00
aI00
aI00
aI00
aI00
aI00
aa(lp1038
I234378
aF48.3134
aF28.557
aVp2
p1039
aS'utopia'
p1040
aS'#656565'
p1041
aF8.88595
aI0
aI01
aI01
aI00
aI00
aI00
aI00
aI00
aI00
aa(lp1042
I234378
aF188.267
aF28.557
aVp2
p1043
aS'utopia'
p1044
aS'#656565'
p1045
aF8.88595
aI0
aI00
aI00
aI01
aI01
aI00
aI00
aI00
aI00
aa(lp1046
I234378
aF191.86758
aF28.557
ag1043
aS'utopia'
p1047
aS'#656565'
p1048
aF8.88595
aI0
aI00
aI00
aI00
aI00
aI00
aI00
aI00
aI00
aa(lp1049
I234378
aF195.46816
aF28.557
ag1043
aS'utopia'
p1050
aS'#656565'
p1051
aF8.88595
aI0
aI00
aI00
aI01
aI01
aI00
aI00
aI00
aI00
aa(lp1052
I234378
aF197.06874000000002
aF28.557
ag1043
aS'utopia'
p1053
aS'#656565'
p1054
aF8.88595
aI0
aI00
aI00
aI00
aI00
aI00
aI00
aI00
aI00
aa(lp1055
I234378
aF198.66932000000003
aF28.557
ag1043
aS'utopia'
p1056
aS'#656565'
p1057
aF8.88595
aI0
aI00
aI00
aI01
aI01
aI00
aI00
aI00
aI00
aa(lp1058
I234378
aF317.113
aF28.557
aVp2
p1059
aS'utopia'
p1060
aS'#656565'
p1061
aF8.88595
aI0
aI00
aI00
aI01
aI01
aI01
aI00
aI00
aI00
aa(lp1062
I234378
aF422.264
aF28.557
aVp2
p1063
aS'utopia'
p1064
aS'#656565'
p1065
aF8.88595
aI0
aI00
aI00
aI01
aI01
aI00
aI00
aI00
aI00
aa(lp1066
I234378
aF428.928
aF28.557
aVp2
p1067
aS'utopia'
p1068
aS'#656565'
p1069
aF8.88595
aI0
aI01
aI00
aI00
aI00
aI00
aI00
aI00
aI00
aa(lp1070
I234378
aF48.3134
aF47.0694
aVp2
p1071
aS'utopia'
p1072
aS'#656565'
p1073
aF8.88595
aI0
aI01
aI01
aI00
aI00
aI00
aI00
aI00
aI00
aa(lp1074
I234378
aF63.1233
aF47.0694
aVp2
p1075
aS'utopia'
p1076
aS'#656565'
p1077
aF8.88595
aI0
aI01
aI01
aI00
aI00
aI00
aI00
aI00
aI00
aa(lp1078
I234378
aF188.267
aF47.0694
aVp2
p1079
aS'utopia'
p1080
aS'#656565'
p1081
aF8.88595
aI0
aI00
aI00
aI01
aI01
aI01
aI00
aI00
aI00
aa(lp1082
I234378
aF317.113
aF47.0694
aVp2
p1083
aS'utopia'
p1084
aS'#656565'
p1085
aF8.88595
aI0
aI00
aI00
aI01
aI01
aI01
aI00
aI00
aI00
aa(lp1086
I234378
aF404.492
aF47.0694
aVp2
p1087
aS'utopia'
p1088
aS'#656565'
p1089
aF8.88595
aI0
aI00
aI00
aI01
aI01
aI00
aI00
aI00
aI00
aa(lp1090
I91136
aF411.156
aF47.0694
aVp2
p1091
aS'utopia'
p1092
aS'#656565'
p1093
aF8.88595
aI0
aI01
aI00
aI00
aI00
aI00
aI00
aI00
aI00
aa(lp1094
I234378
aF431.15
aF47.0694
aVp2
p1095
aS'utopia'
p1096
aS'#656565'
p1097
aF8.88595
aI0
aI00
aI00
aI01
aI01
aI00
aI00
aI00
aI00
aa(lp1098
I234378
aF437.814
aF47.0694
aVp2
p1099
aS'utopia'
p1100
aS'#656565'
p1101
aF8.88595
aI0
aI01
aI00
aI00
aI00
aI00
aI00
aI00
aI00
aa(lp1102
I234378
aF48.3134
aF65.5818
aVp2
p1103
aS'utopia'
p1104
aS'#656565'
p1105
aF8.88595
aI0
aI00
aI00
aI00
aI00
aI00
aI00
aI00
aI00
aa(lp1106
I108443
aF77.1927
aF65.5818
aVp2
p1107
aS'utopia'
p1108
aS'#656565'
p1109
aF8.88595
aI0
aI01
aI00
aI00
aI00
aI00
aI00
aI00
aI00
aa(lp1110
I234378
aF188.267
aF65.5818
aVp2
p1111
aS'utopia'
p1112
aS'#656565'
p1113
aF8.88595
aI0
aI00
aI00
aI01
aI01
aI00
aI00
aI00
aI00
aa(lp1114
I234378
aF191.91616666666667
aF65.5818
ag1111
aS'utopia'
p1115
aS'#656565'
p1116
aF8.88595
aI0
aI00
aI00
aI00
aI00
aI00
aI00
aI00
aI00
aa(lp1117
I225568
aF195.56533333333334
aF65.5818
ag1111
aS'utopia'
p1118
aS'#656565'
p1119
aF8.88595
aI0
aI00
aI00
aI00
aI00
aI00
aI00
aI00
aI00
aa(lp1120
I234378
aF317.113
aF65.5818
aVp2
p1121
aS'utopia'
p1122
aS'#656565'
p1123
aF8.88595
aI0
aI00
aI00
aI01
aI01
aI01
aI00
aI00
aI00
aa(lp1124
I234378
aF404.492
aF65.5818
aVp2
p1125
aS'utopia'
p1126
aS'#656565'
p1127
aF8.88595
aI0
aI00
aI00
aI01
aI01
aI00
aI00
aI00
aI00
aa(lp1128
I91136
aF411.156
aF65.5818
aVp2
p1129
aS'utopia'
p1130
aS'#656565'
p1131
aF8.88595
aI0
aI01
aI00
aI00
aI00
aI00
aI00
aI00
aI00
aa(lp1132
I234378
aF431.15
aF65.5818
aVp2
p1133
aS'utopia'
p1134
aS'#656565'
p1135
aF8.88595
aI0
aI00
aI00
aI01
aI01
aI00
aI00
aI00
aI00
aa(lp1136
I234378
aF437.814
aF65.5818
aVp2
p1137
aS'utopia'
p1138
aS'#656565'
p1139
aF8.88595
aI0
aI01
aI00
aI00
aI00
aI00
aI00
aI00
aI00
aa(lp1140
I234378
aF48.3134
aF84.0941
aVp2
p1141
aS'utopia'
p1142
aS'#656565'
p1143
aF8.88595
aI0
aI01
aI00
aI00
aI00
aI00
aI00
aI00
aI00
aa(lp1144
I234378
aF188.267
aF84.0941
aVp2
p1145
aS'utopia'
p1146
aS'#656565'
p1147
aF8.88595
aI0
aI00
aI00
aI01
aI01
aI00
aI00
aI00
aI00
aa(lp1148
I234378
aF191.86758
aF84.0941
ag1145
aS'utopia'
p1149
aS'#656565'
p1150
aF8.88595
aI0
aI00
aI00
aI00
aI00
aI00
aI00
aI00
aI00
aa(lp1151
I234378
aF195.46816
aF84.0941
ag1145
aS'utopia'
p1152
aS'#656565'
p1153
aF8.88595
aI0
aI00
aI00
aI01
aI01
aI00
aI00
aI00
aI00
aa(lp1154
I234378
aF197.06874000000002
aF84.0941
ag1145
aS'utopia'
p1155
aS'#656565'
p1156
aF8.88595
aI0
aI00
aI00
aI00
aI00
aI00
aI00
aI00
aI00
aa(lp1157
I234378
aF198.66932000000003
aF84.0941
ag1145
aS'utopia'
p1158
aS'#656565'
p1159
aF8.88595
aI0
aI00
aI00
aI01
aI01
aI00
aI00
aI00
aI00
aa(lp1160
I234378
aF317.113
aF84.0941
aVp2
p1161
aS'utopia'
p1162
aS'#656565'
p1163
aF8.88595
aI0
aI00
aI00
aI01
aI01
aI01
aI00
aI00
aI00
aa(lp1164
I234378
aF404.492
aF84.0941
aVp2
p1165
aS'utopia'
p1166
aS'#656565'
p1167
aF8.88595
aI0
aI00
aI00
aI01
aI01
aI00
aI00
aI00
aI00
aa(lp1168
I91136
aF411.156
aF84.0941
aVp2
p1169
aS'utopia'
p1170
aS'#656565'
p1171
aF8.88595
aI0
aI01
aI00
aI00
aI00
aI00
aI00
aI00
aI00
aa(lp1172
I234378
aF431.15
aF84.0941
aVp2
p1173
aS'utopia'
p1174
aS'#656565'
p1175
aF8.88595
aI0
aI00
aI00
aI01
aI01
aI00
aI00
aI00
aI00
aa(lp1176
I234378
aF437.814
aF84.0941
aVp2
p1177
aS'utopia'
p1178
aS'#656565'
p1179
aF8.88595
aI0
aI01
aI00
aI00
aI00
aI00
aI00
aI00
aI00
aa(lp1180
I234378
aF48.3134
aF102.607
aVp2
p1181
aS'utopia'
p1182
aS'#656565'
p1183
aF8.88595
aI0
aI01
aI00
aI00
aI00
aI00
aI00
aI00
aI00
aa(lp1184
I234378
aF188.267
aF102.607
aVp2
p1185
aS'utopia'
p1186
aS'#656565'
p1187
aF8.88595
aI0
aI00
aI00
aI01
aI01
aI00
aI00
aI00
aI00
aa(lp1188
I234378
aF191.91616666666667
aF102.607
ag1185
aS'utopia'
p1189
aS'#656565'
p1190
aF8.88595
aI0
aI00
aI00
aI00
aI00
aI00
aI00
aI00
aI00
aa(lp1191
I225568
aF195.56533333333334
aF102.607
ag1185
aS'utopia'
p1192
aS'#656565'
p1193
aF8.88595
aI0
aI00
aI00
aI00
aI00
aI00
aI00
aI00
aI00
aa(lp1194
I234378
aF317.113
aF102.607
aVp2
p1195
aS'utopia'
p1196
aS'#656565'
p1197
aF8.88595
aI0
aI00
aI00
aI01
aI01
aI01
aI00
aI00
aI00
aa(lp1198
I234378
aF424.485
aF102.607
aVp2
p1199
aS'utopia'
p1200
aS'#656565'
p1201
aF8.88595
aI0
aI00
aI00
aI01
aI01
aI00
aI00
aI00
aI00
aa(lp1202
I91136
aF431.15
aF102.607
aVp2
p1203
aS'utopia'
p1204
aS'#656565'
p1205
aF8.88595
aI0
aI01
aI00
aI00
aI00
aI00
aI00
aI00
aI00
aa(lp1206
I234378
aF48.3134
aF121.119
aVp2
p1207
aS'utopia'
p1208
aS'#656565'
p1209
aF8.88595
aI0
aI01
aI00
aI00
aI00
aI00
aI00
aI00
aI00
aa(lp1210
I15316
aF78.6737
aF121.119
aVp2
p1211
aS'utopia'
p1212
aS'#656565'
p1213
aF8.88595
aI0
aI01
aI00
aI00
aI00
aI00
aI00
aI00
aI00
aa(lp1214
I234378
aF188.267
aF121.119
aVp2
p1215
aS'utopia'
p1216
aS'#656565'
p1217
aF8.88595
aI0
aI00
aI00
aI01
aI01
aI00
aI00
aI00
aI00
aa(lp1218
I234378
aF317.113
aF121.119
aVp2
p1219
aS'utopia'
p1220
aS'#656565'
p1221
aF8.88595
aI0
aI00
aI00
aI01
aI01
aI01
aI00
aI00
aI00
aa(lp1222
I234378
aF417.821
aF121.119
aVp2
p1223
aS'utopia'
p1224
aS'#656565'
p1225
aF8.88595
aI0
aI00
aI00
aI01
aI01
aI00
aI00
aI00
aI00
aa(lp1226
I234378
aF424.485
aF121.119
aVp2
p1227
aS'utopia'
p1228
aS'#656565'
p1229
aF8.88595
aI0
aI01
aI00
aI00
aI00
aI00
aI00
aI00
aI00
aa(lp1230
I165851
aF48.3134
aF139.631
aVp2
p1231
aS'utopia'
p1232
aS'#656565'
p1233
aF8.88595
aI0
aI01
aI00
aI00
aI00
aI00
aI00
aI00
aI00
aa(lp1234
I234378
aF188.267
aF139.631
aVp2
p1235
aS'utopia'
p1236
aS'#656565'
p1237
aF8.88595
aI0
aI00
aI00
aI01
aI01
aI00
aI00
aI00
aI00
aa(lp1238
I234378
aF191.91616666666667
aF139.631
ag1235
aS'utopia'
p1239
aS'#656565'
p1240
aF8.88595
aI0
aI00
aI00
aI00
aI00
aI00
aI00
aI00
aI00
aa(lp1241
I225568
aF195.56533333333334
aF139.631
ag1235
aS'utopia'
p1242
aS'#656565'
p1243
aF8.88595
aI0
aI00
aI00
aI00
aI00
aI00
aI00
aI00
aI00
aa(lp1244
I234378
aF317.113
aF139.631
aVp2
p1245
aS'utopia'
p1246
aS'#656565'
p1247
aF8.88595
aI0
aI00
aI00
aI01
aI01
aI01
aI00
aI00
aI00
aa(lp1248
I234378
aF422.264
aF139.631
aVp2
p1249
aS'utopia'
p1250
aS'#656565'
p1251
aF8.88595
aI0
aI00
aI00
aI01
aI01
aI00
aI00
aI00
aI00
aa(lp1252
I234378
aF428.928
aF139.631
aVp2
p1253
aS'utopia'
p1254
aS'#656565'
p1255
aF8.88595
aI0
aI01
aI00
aI00
aI00
aI00
aI00
aI00
aI00
aa(lp1256
I234378
aF48.3134
aF158.144
aVp2
p1257
aS'utopia'
p1258
aS'#656565'
p1259
aF8.88595
aI0
aI01
aI00
aI00
aI00
aI00
aI00
aI00
aI00
aa(lp1260
I234378
aF59.58525
aF158.144
ag1257
aS'utopia'
p1261
aS'#656565'
p1262
aF8.88595
aI0
aI00
aI00
aI00
aI00
aI00
aI00
aI00
aI00
aa(lp1263
I234378
aF63.342533333333336
aF158.144
ag1257
aS'utopia'
p1264
aS'#656565'
p1265
aF8.88595
aI0
aI01
aI01
aI00
aI00
aI00
aI00
aI00
aI00
aa(lp1266
I234378
aF188.267
aF158.144
aVp2
p1267
aS'utopia'
p1268
aS'#656565'
p1269
aF8.88595
aI0
aI00
aI00
aI01
aI01
aI00
aI00
aI00
aI00
aa(lp1270
I234378
aF191.91616666666667
aF158.144
ag1267
aS'utopia'
p1271
aS'#656565'
p1272
aF8.88595
aI0
aI00
aI00
aI00
aI00
aI00
aI00
aI00
aI00
aa(lp1273
I225568
aF195.56533333333334
aF158.144
ag1267
aS'utopia'
p1274
aS'#656565'
p1275
aF8.88595
aI0
aI00
aI00
aI00
aI00
aI00
aI00
aI00
aI00
aa(lp1276
I234378
aF317.113
aF158.144
aVp2
p1277
aS'utopia'
p1278
aS'#656565'
p1279
aF8.88595
aI0
aI00
aI00
aI01
aI01
aI01
aI00
aI00
aI00
aa(lp1280
I234378
aF422.264
aF158.144
aVp2
p1281
aS'utopia'
p1282
aS'#656565'
p1283
aF8.88595
aI0
aI00
aI00
aI01
aI01
aI00
aI00
aI00
aI00
aa(lp1284
I234378
aF428.928
aF158.144
aVp2
p1285
aS'utopia'
p1286
aS'#656565'
p1287
aF8.88595
aI0
aI01
aI00
aI00
aI00
aI00
aI00
aI00
aI00
aa(lp1288
I195166
aF40.1679
aF208.515
aVp2
p1289
aS'utopia'
p1290
aS'#02304b'
p1291
aF11.8479
aI1
aI01
aI00
aI00
aI00
aI00
aI00
aI00
aI00
aa(lp1292
I136346
aF96.4456
aF208.515
aVp2
p1293
aS'utopia'
p1294
aS'#02304b'
p1295
aF11.8479
aI1
aI01
aI00
aI00
aI00
aI00
aI00
aI00
aI00
aa(lp1296
I201816
aF40.9084
aF236.636
aVp2
p1297
aS'utopia'
p1298
aS'#000000'
p1299
aF8.88595
aI0
aI01
aI00
aI00
aI00
aI00
aI00
aI00
aI00
aa(lp1300
I234378
aF54.9779
aF236.636
aVp2
p1301
aS'utopia'
p1302
aS'#000000'
p1303
aF8.88595
aI0
aI01
aI00
aI00
aI00
aI00
aI00
aI00
aI00
aa(lp1304
I47284
aF98.6671
aF236.636
aVp2
p1305
aS'utopia'
p1306
aS'#000000'
p1307
aF8.88595
aI0
aI01
aI00
aI00
aI00
aI00
aI00
aI00
aI00
aa(lp1308
I234378
aF40.1679
aF271.457
aVp2
p1309
aS'utopia'
p1310
aS'#02304b'
p1311
aF11.8479
aI1
aI01
aI00
aI00
aI00
aI00
aI00
aI00
aI00
aa(lp1312
I201816
aF40.9084
aF303.281
aVp2
p1313
aS'utopia'
p1314
aS'#000000'
p1315
aF8.88595
aI0
aI01
aI00
aI00
aI00
aI00
aI00
aI00
aI00
aa(lp1316
I234378
aF54.9779
aF303.281
aVp2
p1317
aS'utopia'
p1318
aS'#000000'
p1319
aF8.88595
aI0
aI01
aI00
aI00
aI00
aI00
aI00
aI00
aI00
aa(lp1320
I86196
aF89.0407
aF303.281
aVp2
p1321
aS'utopia'
p1322
aS'#000000'
p1323
aF8.88595
aI0
aI01
aI00
aI00
aI00
aI00
aI00
aI00
aI00
aa(lp1324
I177271
aF40.1679
aF342.545
aVp2
p1325
aS'utopia'
p1326
aS'#02304b'
p1327
aF11.8479
aI1
aI01
aI00
aI00
aI00
aI00
aI00
aI00
aI00
aa(lp1328
I234378
aF74.2307
aF342.545
aVp2
p1329
aS'utopia'
p1330
aS'#02304b'
p1331
aF11.8479
aI1
aI01
aI00
aI00
aI00
aI00
aI00
aI00
aI00
aa(lp1332
I7520
aF49.0539
aF366.857
aVp2
p1333
aS'utopia'
p1334
aS'#656565'
p1335
aF10.3669
aI1
aI01
aI00
aI00
aI00
aI00
aI00
aI00
aI00
aa(lp1336
I10865
aF93.4836
aF366.857
aVp2
p1337
aS'utopia'
p1338
aS'#656565'
p1339
aF10.3669
aI1
aI01
aI00
aI00
aI00
aI00
aI00
aI00
aI00
aa(lp1340
I132955
aF49.0539
aF382.514
aVp2
p1341
aS'utopia'
p1342
aS'#656565'
p1343
aF8.88595
aI0
aI01
aI00
aI00
aI00
aI00
aI00
aI00
aI00
aa(lp1344
I144489
aF69.7878
aF382.514
aVp2
p1345
aS'utopia'
p1346
aS'#656565'
p1347
aF8.88595
aI0
aI00
aI00
aI00
aI00
aI00
aI00
aI00
aI00
aa(lp1348
I132529
aF80.1547
aF382.514
aVp2
p1349
aS'utopia'
p1350
aS'#656565'
p1351
aF8.88595
aI0
aI01
aI00
aI00
aI00
aI00
aI00
aI00
aI00
aa(lp1352
I234378
aF98.76336666666667
aF382.514
ag1349
aS'utopia'
p1353
aS'#656565'
p1354
aF8.88595
aI0
aI00
aI00
aI00
aI00
aI00
aI00
aI00
aI00
aa(lp1355
I234378
aF104.591
aF382.514
aVp2
p1356
aS'utopia'
p1357
aS'#434343'
p1358
aF8.88595
aI0
aI00
aI00
aI01
aI01
aI01
aI00
aI00
aI00
aa(lp1359
I234378
aF115.699
aF382.514
aVp2
p1360
aS'utopia'
p1361
aS'#434343'
p1362
aF8.88595
aI0
aI01
aI00
aI00
aI00
aI00
aI00
aI00
aI01
aa(lp1363
I234378
aF128.287
aF382.514
aVp2
p1364
aS'utopia'
p1365
aS'#434343'
p1366
aF8.88595
aI0
aI00
aI00
aI01
aI01
aI01
aI00
aI00
aI00
aa(lp1367
I86794
aF292.677
aF370.559
aVp2
p1368
aS'utopia'
p1369
aS'#656565'
p1370
aF10.3669
aI1
aI01
aI00
aI00
aI00
aI00
aI00
aI00
aI00
aa(lp1371
I131455
aF331.183
aF370.559
aVp2
p1372
aS'utopia'
p1373
aS'#656565'
p1374
aF10.3669
aI1
aI01
aI00
aI00
aI00
aI00
aI00
aI00
aI00
aa(lp1375
I234378
aF348.955
aF370.559
aVp2
p1376
aS'utopia'
p1377
aS'#656565'
p1378
aF10.3669
aI1
aI01
aI00
aI00
aI00
aI00
aI00
aI00
aI00
aa(lp1379
I131455
aF292.677
aF386.216
aVp2
p1380
aS'utopia'
p1381
aS'#656565'
p1382
aF8.88595
aI0
aI01
aI00
aI00
aI00
aI00
aI00
aI00
aI00
aa(lp1383
I197416
aF308.227
aF386.216
aVp2
p1384
aS'utopia'
p1385
aS'#656565'
p1386
aF8.88595
aI0
aI01
aI00
aI00
aI00
aI00
aI00
aI00
aI00
aa(lp1387
I234378
aF325.49892
aF386.216
ag1384
aS'utopia'
p1388
aS'#656565'
p1389
aF8.88595
aI0
aI00
aI00
aI00
aI00
aI00
aI00
aI00
aI00
aa(lp1390
I28425
aF331.923
aF386.216
aVp2
p1391
aS'utopia'
p1392
aS'#434343'
p1393
aF8.88595
aI0
aI01
aI00
aI00
aI00
aI00
aI00
aI00
aI00
aa(lp1394
I234378
aF377.834
aF386.216
aVp2
p1395
aS'utopia'
p1396
aS'#434343'
p1397
aF8.88595
aI0
aI00
aI00
aI00
aI00
aI00
aI00
aI00
aI00
aa(lp1398
I137944
aF382.3888636363636
aF386.216
ag1395
aS'utopia'
p1399
aS'#434343'
p1400
aF8.88595
aI0
aI01
aI00
aI00
aI00
aI00
aI00
aI00
aI00
aa(lp1401
I234378
aF413.3826363636363
aF386.216
ag1395
aS'utopia'
p1402
aS'#434343'
p1403
aF8.88595
aI0
aI00
aI00
aI00
aI00
aI00
aI00
aI00
aI00
aa(lp1404
I42298
aF427.93749999999994
aF386.216
ag1395
aS'utopia'
p1405
aS'#434343'
p1406
aF8.88595
aI0
aI01
aI00
aI00
aI00
aI00
aI00
aI00
aI00
aa(lp1407
I108944
aF49.0539
aF398.064
aVp2
p1408
aS'utopia'
p1409
aS'#656565'
p1410
aF8.88595
aI0
aI01
aI00
aI00
aI00
aI00
aI00
aI00
aI00
aa(lp1411
I234378
aF76.44544285714287
aF398.064
ag1408
aS'utopia'
p1412
aS'#656565'
p1413
aF8.88595
aI0
aI00
aI00
aI00
aI00
aI00
aI00
aI00
aI00
aa(lp1414
I104428
aF83.1167
aF398.064
aVp2
p1415
aS'utopia'
p1416
aS'#434343'
p1417
aF8.88595
aI0
aI01
aI00
aI00
aI00
aI00
aI00
aI00
aI00
aa(lp1418
I72722
aF292.677
aF401.767
aVp2
p1419
aS'utopia'
p1420
aS'#656565'
p1421
aF8.88595
aI0
aI01
aI00
aI00
aI00
aI00
aI00
aI00
aI00
aa(lp1422
I12510
aF345.993
aF401.767
aVp2
p1423
aS'utopia'
p1424
aS'#656565'
p1425
aF8.88595
aI0
aI01
aI00
aI00
aI00
aI00
aI00
aI00
aI00
aa(lp1426
I234378
aF368.3069142857143
aF401.767
ag1423
aS'utopia'
p1427
aS'#656565'
p1428
aF8.88595
aI0
aI00
aI00
aI00
aI00
aI00
aI00
aI00
aI00
aa(lp1429
I60201
aF374.132
aF401.767
aVp2
p1430
aS'utopia'
p1431
aS'#434343'
p1432
aF8.88595
aI0
aI01
aI00
aI00
aI00
aI00
aI00
aI00
aI00
aa(lp1433
I230071
aF391.163
aF401.767
aVp2
p1434
aS'utopia'
p1435
aS'#434343'
p1436
aF8.88595
aI0
aI01
aI00
aI00
aI00
aI00
aI00
aI00
aI00
aa(lp1437
I234378
aF413.378
aF401.767
aVp2
p1438
aS'utopia'
p1439
aS'#434343'
p1440
aF8.88595
aI0
aI00
aI00
aI00
aI00
aI00
aI00
aI00
aI00
aa(lp1441
I38609
aF420.042
aF401.767
aVp2
p1442
aS'utopia'
p1443
aS'#434343'
p1444
aF8.88595
aI0
aI01
aI00
aI00
aI00
aI00
aI00
aI00
aI00
aa(lp1445
I230071
aF438.555
aF401.767
aVp2
p1446
aS'utopia'
p1447
aS'#434343'
p1448
aF8.88595
aI0
aI01
aI00
aI00
aI00
aI00
aI00
aI00
aI00
aa(lp1449
I212271
aF49.0539
aF413.615
aVp2
p1450
aS'utopia'
p1451
aS'#656565'
p1452
aF8.88595
aI0
aI01
aI00
aI00
aI00
aI00
aI00
aI00
aI00
aa(lp1453
I12510
aF79.4142
aF413.615
aVp2
p1454
aS'utopia'
p1455
aS'#656565'
p1456
aF8.88595
aI0
aI01
aI00
aI00
aI00
aI00
aI00
aI00
aI00
aa(lp1457
I234378
aF101.72811428571428
aF413.615
ag1454
aS'utopia'
p1458
aS'#656565'
p1459
aF8.88595
aI0
aI00
aI00
aI00
aI00
aI00
aI00
aI00
aI00
aa(lp1460
I118865
aF107.553
aF413.615
aVp2
p1461
aS'utopia'
p1462
aS'#434343'
p1463
aF8.88595
aI0
aI01
aI00
aI00
aI00
aI00
aI00
aI00
aI00
aa(lp1464
I234378
aF133.68768749999998
aF413.615
ag1461
aS'utopia'
p1465
aS'#434343'
p1466
aF8.88595
aI0
aI00
aI00
aI00
aI00
aI00
aI00
aI00
aI00
aa(lp1467
I136874
aF138.04346875
aF413.615
ag1461
aS'utopia'
p1468
aS'#434343'
p1469
aF8.88595
aI0
aI00
aI00
aI00
aI00
aI00
aI00
aI00
aI00
aa(lp1470
I118366
aF49.0539
aF433.502
aVp2
p1471
aS'utopia'
p1472
aS'#656565'
p1473
aF10.3669
aI1
aI01
aI00
aI00
aI00
aI00
aI00
aI00
aI00
aa(lp1474
I234378
aF83.97235
aF433.502
ag1471
aS'utopia'
p1475
aS'#656565'
p1476
aF10.3669
aI1
aI00
aI00
aI00
aI00
aI00
aI00
aI00
aI00
aa(lp1477
I51933
aF292.677
aF421.654
aVp2
p1478
aS'utopia'
p1479
aS'#656565'
p1480
aF10.3669
aI1
aI01
aI00
aI00
aI00
aI00
aI00
aI00
aI00
aa(lp1481
I62768
aF320.816
aF421.654
aVp2
p1482
aS'utopia'
p1483
aS'#656565'
p1484
aF10.3669
aI1
aI01
aI00
aI00
aI00
aI00
aI00
aI00
aI00
aa(lp1485
I234378
aF49.0539
aF446.197
aVp2
p1486
aS'utopia'
p1487
aS'#000000'
p1488
aF8.88595
aI0
aI01
aI00
aI00
aI00
aI00
aI00
aI00
aI00
aa(lp1489
I234378
aF71.83268749999999
aF446.197
ag1486
aS'utopia'
p1490
aS'#000000'
p1491
aF8.88595
aI0
aI00
aI00
aI00
aI00
aI00
aI00
aI00
aI00
aa(lp1492
I234378
aF77.1927
aF446.197
aVp2
p1493
aS'utopia'
p1494
aS'#000000'
p1495
aF8.88595
aI0
aI01
aI00
aI00
aI00
aI00
aI00
aI00
aI00
aa(lp1496
I234378
aF49.0539
aF456.564
aVp2
p1497
aS'utopia'
p1498
aS'#000000'
p1499
aF8.88595
aI0
aI00
aI00
aI01
aI01
aI01
aI00
aI00
aI00
aa(lp1500
I31679
aF292.677
aF437.311
aVp2
p1501
aS'utopia'
p1502
aS'#656565'
p1503
aF8.88595
aI0
aI01
aI01
aI00
aI00
aI00
aI00
aI00
aI00
aa(lp1504
I51933
aF306.006
aF437.311
aVp2
p1505
aS'utopia'
p1506
aS'#656565'
p1507
aF8.88595
aI0
aI01
aI00
aI00
aI00
aI00
aI00
aI00
aI00
aa(lp1508
I12510
aF329.702
aF437.311
aVp2
p1509
aS'utopia'
p1510
aS'#656565'
p1511
aF8.88595
aI0
aI01
aI00
aI00
aI00
aI00
aI00
aI00
aI00
aa(lp1512
I234378
aF352.0159142857143
aF437.311
ag1509
aS'utopia'
p1513
aS'#656565'
p1514
aF8.88595
aI0
aI00
aI00
aI00
aI00
aI00
aI00
aI00
aI00
aa(lp1515
I63091
aF357.841
aF437.311
aVp2
p1516
aS'utopia'
p1517
aS'#434343'
p1518
aF8.88595
aI0
aI01
aI00
aI00
aI00
aI00
aI00
aI00
aI00
aa(lp1519
I234378
aF374.872
aF437.311
aVp2
p1520
aS'utopia'
p1521
aS'#434343'
p1522
aF8.88595
aI0
aI01
aI00
aI00
aI00
aI00
aI00
aI00
aI00
aa(lp1523
I234378
aF292.677
aF452.861
aVp2
p1524
aS'utopia'
p1525
aS'#656565'
p1526
aF8.88595
aI0
aI01
aI00
aI00
aI00
aI00
aI00
aI00
aI00
aa(lp1527
I234378
aF329.43552
aF452.861
ag1524
aS'utopia'
p1528
aS'#656565'
p1529
aF8.88595
aI0
aI00
aI00
aI00
aI00
aI00
aI00
aI00
aI00
aa(lp1530
I164802
aF335.626
aF452.861
aVp2
p1531
aS'utopia'
p1532
aS'#434343'
p1533
aF8.88595
aI0
aI01
aI00
aI00
aI00
aI00
aI00
aI00
aI00
aa(lp1534
I234378
aF356.1426666666666
aF452.861
ag1531
aS'utopia'
p1535
aS'#434343'
p1536
aF8.88595
aI0
aI00
aI00
aI00
aI00
aI00
aI00
aI00
aI00
aa(lp1537
I234378
aF360.246
aF452.861
ag1531
aS'utopia'
p1538
aS'#434343'
p1539
aF8.88595
aI0
aI01
aI00
aI00
aI00
aI00
aI00
aI00
aI00
aa(lp1540
I182663
aF49.0539
aF469.892
aVp2
p1541
aS'utopia'
p1542
aS'#656565'
p1543
aF8.88595
aI0
aI01
aI00
aI00
aI00
aI00
aI00
aI00
aI00
aa(lp1544
I82279
aF76.4522
aF469.892
aVp2
p1545
aS'utopia'
p1546
aS'#656565'
p1547
aF8.88595
aI0
aI01
aI00
aI00
aI00
aI00
aI00
aI00
aI00
aa(lp1548
I234378
aF96.09372
aF469.892
ag1545
aS'utopia'
p1549
aS'#656565'
p1550
aF8.88595
aI0
aI00
aI00
aI00
aI00
aI00
aI00
aI00
aI00
aa(lp1551
I234378
aF103.11
aF469.892
aVp2
p1552
aS'utopia'
p1553
aS'#000000'
p1554
aF8.88595
aI0
aI01
aI00
aI00
aI00
aI00
aI00
aI00
aI00
aa(lp1555
I166771
aF292.677
aF472.748
aVp2
p1556
aS'utopia'
p1557
aS'#656565'
p1558
aF10.3669
aI1
aI01
aI00
aI00
aI00
aI00
aI00
aI00
aI00
aa(lp1559
I74833
aF348.955
aF472.748
aVp2
p1560
aS'utopia'
p1561
aS'#656565'
p1562
aF10.3669
aI1
aI01
aI00
aI00
aI00
aI00
aI00
aI00
aI00
aa(lp1563
I233758
aF292.677
aF488.405
aVp2
p1564
aS'utopia'
p1565
aS'#656565'
p1566
aF8.88595
aI0
aI01
aI00
aI00
aI00
aI00
aI00
aI00
aI00
aa(lp1567
I234378
aF326.3488222222222
aF488.405
ag1564
aS'utopia'
p1568
aS'#656565'
p1569
aF8.88595
aI0
aI00
aI00
aI00
aI00
aI00
aI00
aI00
aI00
aa(lp1570
I230332
aF332.664
aF488.405
aVp2
p1571
aS'utopia'
p1572
aS'#434343'
p1573
aF8.88595
aI0
aI01
aI00
aI00
aI00
aI00
aI00
aI00
aI00
aa(lp1574
I151511
aF292.677
aF503.955
aVp2
p1575
aS'utopia'
p1576
aS'#656565'
p1577
aF8.88595
aI0
aI01
aI00
aI00
aI00
aI00
aI00
aI00
aI00
aa(lp1578
I234378
aF333.404
aF503.955
aVp2
p1579
aS'utopia'
p1580
aS'#656565'
p1581
aF8.88595
aI0
aI01
aI00
aI00
aI00
aI00
aI00
aI00
aI00
aa(lp1582
I234378
aF375.2460909090909
aF503.955
ag1579
aS'utopia'
p1583
aS'#656565'
p1584
aF8.88595
aI0
aI00
aI00
aI00
aI00
aI00
aI00
aI00
aI00
aa(lp1585
I201816
aF381.537
aF503.955
aVp2
p1586
aS'utopia'
p1587
aS'#434343'
p1588
aF8.88595
aI0
aI01
aI00
aI00
aI00
aI00
aI00
aI00
aI00
aa(lp1589
I1
aI1
aI0
aI0
aI0
aI0
aI0
aI0
aI0
aI0
aI0
aI0
aI0
aI0
aI0
aI0
aI0
aI0
aI0
aI0
aI0
aI0
aI0
aI0
aI0
aI0
aI0
aI0
aI0
aI0
aI0
aI0
aI0
aI0
aI0
aI0
aI0
aI0
aI0
aI0
aI0
aI0
aI0
aI0
aI0
aI0
aI0
aI0
aI0
aI0
aI0
aI0
aI0
aI0
aI0
aI0
aI0
aI0
aI0
aI0
aI0
aI0
aI0
aI0
aI0
aI0
aI0
aI0
aI0
aI0
aI0
aI0
aI0
aI0
aI0
aI0
aI0
aI0
aI0
aI0
aI0
aI0
aI0
aI0
aI0
aI0
aI0
aI0
aI0
aI0
aI0
aI0
aI0
aI0
aI0
aI0
aI0
aI0
aI0
aI0
aI0
aI0
aI0
aI0
aI0
aI0
aI0
aI0
aI0
aI0
aI0
aI0
aI0
aI0
aI0
aI0
aI0
aI0
aI0
aI0
aI0
aI0
aI0
aI0
aI0
aI0
aI0
aI0
aI0
aI0
aI0
aI0
aI0
aI0
aI0
aI0
aI0
aI0
aI0
aI0
aI0
aI0
aI1
aI1
aI0
aI0
aI0
aI0
aI0
aI0
aI0
aI0
aI0
aI0
aI0
aI0
aI0
aI0
aI0
aI0
aI0
aI0
aI0
aI0
aI0
aI0
aI0
aI0
aI0
aI0
aI0
aI0
aI0
aI0
aI0
aI0
aI0
aI0
aI0
aI0
aI0
aI0
aI0
aI0
aI0
aI0
aI0
aI0
aI0
aI0
aI0
aI0
aI0
aI0
aI0
aI0
aI0
aI0
aI0
aI0
aI0
aI0
aI0
aI0
aI0
aI0
aI0
aI0
aI0
aI0
aI0
aI0
aI0
aI0
aI0
aI0
aI0
aI0
aI0
aI0
aI0
aI0
aI0
aI0
aI0
aI1
aI0
aI0
aI0
aI0
aI0
aI0
aI0
aI0
aI0
aI0
aI0
aI0
aI0
aI0
aI0
aI0
aI0
aI0
aI0
aI0
aI1
aI1
aI0
aI0
aI0
aI0
aI0
aI0
aI0
aI0
aI0
aI0
aI0
aI0
aI0
aI0
aI0
aI0
aI0
aI0
aI0
aI0
aI0
aI0
aI0
aI0
aI0
aI0
aI0
aI0
aI0
aI0
aI0
aI0
aI0
aI0
aI0
aI0
aI0
aI0
aI0
aI0
aI0
aI0
aI0
aI0
aI0
aI0
aI0
aI0
aI0
aI0
aI0
aI0
aI0
aI0
aI0
aI0
aI0
aI0
aI0
aI0
aI0
aI0
aI0
aI0
aI0
aI0
aI0
aI0
aI0
aI0
aI0
aI0
aI0
aI0
aI0
aI0
aI0
aI0
aI0
aI0
aI0
aI0
aI0
aI0
aI0
aI0
aI0
aI0
aI0
aI0
aI0
aI0
aI0
aI0
aI0
aI0
aI0
aI0
aI0
aI0
aI1
aI1
aI0
aI0
aI0
aI1
aI0
aI0
aI0
aI1
aI1
aI0
aI0
aI0
aI0
aI0
aI0
aI0
aI0
aI0
aI0
aI0
aI0
aI0
aI0
aI0
aI0
aI0
aI0
aI0
aI0
aI0
aI0
aI0
aI0
aI0
aI0
aI0
aI0
aI0
aI0
aI0
aI0
aI0
aI0
aI0
aI0
aI0
aI0
aI0
aI0
aI0
aI0
aI0
aI0
aI0
aI0
aI0
aI0
aI0
aI0
aI0
aI0
aI0
aI0
aI0
aI0
aI0
aI0
aI0
aI0
aI0
aI0
aI0
aI0
aI0
aI0
aI0
aI0
aI0
atp1590
.