((lp0
(lp1
I234378
aF40.9084
aF53.0111
aVp1
p2
aS'utopia'
p3
aS'#02304b'
p4
aF11.8479
aI1
aI01
aI01
aI00
aI00
aI00
aI00
aI00
aI00
aa(lp5
I234378
aF46.8324
aF74.4677
aVp1
p6
aS'utopia'
p7
aS'#656565'
p8
aF8.88595
aI0
aI01
aI00
aI00
aI00
aI00
aI00
aI00
aI00
aa(lp9
I234378
aF76.4522
aF74.4677
aVp1
p10
aS'utopia'
p11
aS'#656565'
p12
aF8.88595
aI0
aI00
aI00
aI01
aI00
aI00
aI00
aI00
aI00
aa(lp13
I234378
aF104.591
aF74.4677
aVp1
p14
aS'utopia'
p15
aS'#656565'
p16
aF8.88595
aI0
aI00
aI00
aI00
aI00
aI00
aI00
aI00
aI00
aa(lp17
I144489
aF127.546
aF74.4677
aVp1
p18
aS'utopia'
p19
aS'#656565'
p20
aF8.88595
aI0
aI00
aI00
aI00
aI00
aI00
aI00
aI00
aI00
aa(lp21
I60220
aF137.913
aF74.4677
aVp1
p22
aS'utopia'
p23
aS'#656565'
p24
aF8.88595
aI0
aI00
aI00
aI00
aI00
aI00
aI00
aI00
aI00
aa(lp25
I135639
aF183.084
aF74.4677
aVp1
p26
aS'utopia'
p27
aS'#656565'
p28
aF8.88595
aI0
aI00
aI00
aI00
aI00
aI00
aI00
aI00
aI00
aa(lp29
I21716
aF192.71
aF74.4677
aVp1
p30
aS'utopia'
p31
aS'#656565'
p32
aF8.88595
aI0
aI01
aI00
aI00
aI00
aI00
aI00
aI00
aI00
aa(lp33
I85218
aF211.222
aF74.4677
aVp1
p34
aS'utopia'
p35
aS'#656565'
p36
aF8.88595
aI0
aI00
aI00
aI00
aI00
aI00
aI00
aI00
aI00
aa(lp37
I234378
aF228.254
aF74.4677
aVp1
p38
aS'utopia'
p39
aS'#656565'
p40
aF8.88595
aI0
aI01
aI01
aI01
aI00
aI00
aI00
aI00
aI00
aa(lp41
I234378
aF244.34112
aF74.4677
ag38
aS'utopia'
p42
aS'#656565'
p43
aF8.88595
aI0
aI00
aI00
aI00
aI00
aI00
aI00
aI00
aI00
aa(lp44
I163337
aF250.469
aF74.4677
aVp1
p45
aS'utopia'
p46
aS'#656565'
p47
aF8.88595
aI0
aI00
aI00
aI00
aI00
aI00
aI00
aI00
aI00
aa(lp48
I123583
aF288.975
aF74.4677
aVp1
p49
aS'utopia'
p50
aS'#656565'
p51
aF8.88595
aI0
aI00
aI00
aI00
aI00
aI00
aI00
aI00
aI00
aa(lp52
I16331
aF323.037
aF74.4677
aVp1
p53
aS'utopia'
p54
aS'#656565'
p55
aF8.88595
aI0
aI00
aI00
aI00
aI00
aI00
aI00
aI00
aI00
aa(lp56
I68032
aF333.404
aF74.4677
aVp1
p57
aS'utopia'
p58
aS'#656565'
p59
aF8.88595
aI0
aI00
aI00
aI00
aI00
aI00
aI00
aI00
aI00
aa(lp60
I17209
aF387.46
aF74.4677
aVp1
p61
aS'utopia'
p62
aS'#656565'
p63
aF8.88595
aI0
aI00
aI00
aI00
aI00
aI00
aI00
aI00
aI00
aa(lp64
I135639
aF431.15
aF74.4677
aVp1
p65
aS'utopia'
p66
aS'#656565'
p67
aF8.88595
aI0
aI00
aI00
aI00
aI00
aI00
aI00
aI00
aI00
aa(lp68
I161300
aF40.9084
aF84.8346
aVp1
p69
aS'utopia'
p70
aS'#656565'
p71
aF8.88595
aI0
aI01
aI00
aI00
aI00
aI00
aI00
aI00
aI00
aa(lp72
I74911
aF72.0093
aF84.8346
aVp1
p73
aS'utopia'
p74
aS'#656565'
p75
aF8.88595
aI0
aI01
aI00
aI00
aI00
aI00
aI00
aI00
aI00
aa(lp76
I234378
aF122.363
aF84.8346
aVp1
p77
aS'utopia'
p78
aS'#656565'
p79
aF8.88595
aI0
aI01
aI00
aI00
aI00
aI00
aI00
aI00
aI00
aa(lp80
I234378
aF156.426
aF84.8346
aVp1
p81
aS'utopia'
p82
aS'#656565'
p83
aF8.88595
aI0
aI00
aI00
aI00
aI00
aI00
aI00
aI00
aI00
aa(lp84
I234378
aF160.15276
aF84.8346
ag81
aS'utopia'
p85
aS'#656565'
p86
aF8.88595
aI0
aI01
aI01
aI00
aI00
aI00
aI00
aI00
aI00
aa(lp87
I234378
aF171.33304
aF84.8346
ag81
aS'utopia'
p88
aS'#656565'
p89
aF8.88595
aI0
aI00
aI00
aI00
aI00
aI00
aI00
aI00
aI00
aa(lp90
I234378
aF59.4208
aF122.6
aVp1
p91
aS'utopia'
p92
aS'#0d75b4'
p93
aF8.88595
aI0
aI00
aI00
aI00
aI00
aI00
aI01
aI00
aI00
aa(lp94
I234378
aF59.4208
aF139.631
aVp1
p95
aS'utopia'
p96
aS'#0d75b4'
p97
aF8.88595
aI0
aI00
aI00
aI00
aI00
aI00
aI01
aI00
aI00
aa(lp98
I234378
aF301.563
aF130.745
aVp1
p99
aS'utopia'
p100
aS'#000000'
p101
aF8.88595
aI0
aI00
aI00
aI01
aI01
aI01
aI00
aI00
aI00
aa(lp102
I15548
aF55.7183
aF172.213
aVp1
p103
aS'utopia'
p104
aS'#878787'
p105
aF8.88595
aI0
aI01
aI00
aI00
aI00
aI00
aI00
aI00
aI00
aa(lp106
I104542
aF89.0407
aF172.213
aVp1
p107
aS'utopia'
p108
aS'#878787'
p109
aF8.88595
aI0
aI01
aI00
aI00
aI00
aI00
aI00
aI00
aI00
aa(lp110
I234378
aF133.94655
aF172.213
ag107
aS'utopia'
p111
aS'#878787'
p112
aF8.88595
aI0
aI00
aI00
aI00
aI00
aI00
aI00
aI00
aI00
aa(lp113
I68032
aF142.356
aF172.213
aVp1
p114
aS'utopia'
p115
aS'#000000'
p116
aF8.88595
aI0
aI01
aI00
aI00
aI00
aI00
aI00
aI00
aI00
aa(lp117
I17209
aF197.894
aF172.213
aVp1
p118
aS'utopia'
p119
aS'#000000'
p120
aF8.88595
aI0
aI01
aI00
aI00
aI00
aI00
aI00
aI00
aI00
aa(lp121
I16915
aF308.227
aF172.213
aVp1
p122
aS'utopia'
p123
aS'#878787'
p124
aF8.88595
aI0
aI01
aI00
aI00
aI00
aI00
aI00
aI00
aI00
aa(lp125
I60220
aF330.442
aF172.213
aVp1
p126
aS'utopia'
p127
aS'#878787'
p128
aF8.88595
aI0
aI01
aI00
aI00
aI00
aI00
aI00
aI00
aI00
aa(lp129
I234378
aF372.28409090909093
aF172.213
ag126
aS'utopia'
p130
aS'#878787'
p131
aF8.88595
aI0
aI00
aI00
aI00
aI00
aI00
aI00
aI00
aI00
aa(lp132
I234378
aF380.796
aF172.213
aVp1
p133
aS'utopia'
p134
aS'#000000'
p135
aF8.88595
aI0
aI00
aI00
aI01
aI01
aI01
aI00
aI00
aI00
aa(lp136
I91136
aF391.903
aF172.213
aVp1
p137
aS'utopia'
p138
aS'#000000'
p139
aF8.88595
aI0
aI01
aI00
aI00
aI00
aI00
aI00
aI00
aI00
aa(lp140
I234378
aF407.6286
aF172.213
ag137
aS'utopia'
p141
aS'#000000'
p142
aF8.88595
aI0
aI00
aI00
aI00
aI00
aI00
aI00
aI00
aI00
aa(lp143
I59734
aF411.56
aF172.213
ag137
aS'utopia'
p144
aS'#000000'
p145
aF8.88595
aI0
aI00
aI00
aI00
aI00
aI00
aI00
aI00
aI00
aa(lp146
I234378
aF415.4914
aF172.213
ag137
aS'utopia'
p147
aS'#000000'
p148
aF8.88595
aI0
aI00
aI00
aI00
aI00
aI00
aI00
aI00
aI00
aa(lp149
I234378
aF421.523
aF172.213
aVp1
p150
aS'utopia'
p151
aS'#000000'
p152
aF8.88595
aI0
aI00
aI00
aI01
aI01
aI00
aI00
aI00
aI00
aa(lp153
I63729
aF428.188
aF172.213
aVp1
p154
aS'utopia'
p155
aS'#000000'
p156
aF8.88595
aI0
aI01
aI00
aI00
aI00
aI00
aI00
aI00
aI00
aa(lp157
I234378
aF450.9415625
aF172.213
ag154
aS'utopia'
p158
aS'#000000'
p159
aF8.88595
aI0
aI00
aI00
aI00
aI00
aI00
aI00
aI00
aI00
aa(lp160
I59734
aF455.49227499999995
aF172.213
ag154
aS'utopia'
p161
aS'#000000'
p162
aF8.88595
aI0
aI00
aI00
aI00
aI00
aI00
aI00
aI00
aI00
aa(lp163
I234378
aF460.0429874999999
aF172.213
ag154
aS'utopia'
p164
aS'#000000'
p165
aF8.88595
aI0
aI00
aI00
aI00
aI00
aI00
aI00
aI00
aI00
aa(lp166
I15548
aF55.7183
aF189.985
aVp1
p167
aS'utopia'
p168
aS'#878787'
p169
aF8.88595
aI0
aI01
aI00
aI00
aI00
aI00
aI00
aI00
aI00
aa(lp170
I2006
aF89.0407
aF189.985
aVp1
p171
aS'utopia'
p172
aS'#878787'
p173
aF8.88595
aI0
aI01
aI00
aI00
aI00
aI00
aI00
aI00
aI00
aa(lp174
I234378
aF124.77815
aF189.985
ag171
aS'utopia'
p175
aS'#878787'
p176
aF8.88595
aI0
aI00
aI00
aI00
aI00
aI00
aI00
aI00
aI00
aa(lp177
I161300
aF134.211
aF189.985
aVp1
p178
aS'utopia'
p179
aS'#000000'
p180
aF8.88595
aI0
aI01
aI00
aI00
aI00
aI00
aI00
aI00
aI00
aa(lp181
I74911
aF165.312
aF189.985
aVp1
p182
aS'utopia'
p183
aS'#000000'
p184
aF8.88595
aI0
aI01
aI00
aI00
aI00
aI00
aI00
aI00
aI00
aa(lp185
I234378
aF215.665
aF189.985
aVp1
p186
aS'utopia'
p187
aS'#000000'
p188
aF8.88595
aI0
aI01
aI00
aI00
aI00
aI00
aI00
aI00
aI00
aa(lp189
I229300
aF308.227
aF189.985
aVp1
p190
aS'utopia'
p191
aS'#878787'
p192
aF8.88595
aI0
aI01
aI00
aI00
aI00
aI00
aI00
aI00
aI00
aa(lp193
I78894
aF338.588
aF189.985
aVp1
p194
aS'utopia'
p195
aS'#878787'
p196
aF8.88595
aI0
aI01
aI00
aI00
aI00
aI00
aI00
aI00
aI00
aa(lp197
I234378
aF360.9019142857143
aF189.985
ag194
aS'utopia'
p198
aS'#878787'
p199
aF8.88595
aI0
aI00
aI00
aI00
aI00
aI00
aI00
aI00
aI00
aa(lp200
I234378
aF368.948
aF189.985
aVp1
p201
aS'utopia'
p202
aS'#000000'
p203
aF8.88595
aI0
aI01
aI00
aI00
aI00
aI00
aI00
aI00
aI00
aa(lp204
I234378
aF380.796
aF189.985
aVp1
p205
aS'utopia'
p206
aS'#000000'
p207
aF8.88595
aI0
aI00
aI00
aI01
aI01
aI01
aI00
aI00
aI00
aa(lp208
I234378
aF388.6867
aF189.985
ag205
aS'utopia'
p209
aS'#000000'
p210
aF8.88595
aI0
aI00
aI00
aI00
aI00
aI00
aI00
aI00
aI00
aa(lp211
I234378
aF392.63205
aF189.985
ag205
aS'utopia'
p212
aS'#000000'
p213
aF8.88595
aI0
aI00
aI00
aI01
aI01
aI00
aI00
aI00
aI00
aa(lp214
I234378
aF398.568
aF189.985
aVp1
p215
aS'utopia'
p216
aS'#000000'
p217
aF8.88595
aI0
aI01
aI00
aI00
aI00
aI00
aI00
aI00
aI00
aa(lp218
I15548
aF55.7183
aF207.757
aVp1
p219
aS'utopia'
p220
aS'#878787'
p221
aF8.88595
aI0
aI01
aI00
aI00
aI00
aI00
aI00
aI00
aI00
aa(lp222
I17057
aF89.0407
aF207.757
aVp1
p223
aS'utopia'
p224
aS'#878787'
p225
aF8.88595
aI0
aI01
aI00
aI00
aI00
aI00
aI00
aI00
aI00
aa(lp226
I234378
aF122.05430000000001
aF207.757
ag223
aS'utopia'
p227
aS'#878787'
p228
aF8.88595
aI0
aI00
aI00
aI00
aI00
aI00
aI00
aI00
aI00
aa(lp229
I234378
aF130.508
aF207.757
aVp1
p230
aS'utopia'
p231
aS'#000000'
p232
aF8.88595
aI0
aI01
aI00
aI00
aI00
aI00
aI00
aI00
aI00
aa(lp233
I234378
aF173.457
aF207.757
aVp1
p234
aS'utopia'
p235
aS'#000000'
p236
aF8.88595
aI0
aI00
aI00
aI00
aI00
aI00
aI00
aI00
aI00
aa(lp237
I234378
aF180.122
aF207.757
aVp1
p238
aS'utopia'
p239
aS'#000000'
p240
aF8.88595
aI0
aI01
aI00
aI00
aI00
aI00
aI00
aI00
aI00
aa(lp241
I234378
aF308.227
aF207.757
aVp1
p242
aS'utopia'
p243
aS'#878787'
p244
aF8.88595
aI0
aI01
aI00
aI00
aI00
aI00
aI00
aI00
aI00
aa(lp245
I234378
aF346.733
aF207.757
aVp1
p246
aS'utopia'
p247
aS'#878787'
p248
aF8.88595
aI0
aI01
aI01
aI00
aI00
aI00
aI00
aI00
aI00
aa(lp249
I234378
aF361.2593
aF207.757
ag246
aS'utopia'
p250
aS'#878787'
p251
aF8.88595
aI0
aI00
aI00
aI00
aI00
aI00
aI00
aI00
aI00
aa(lp252
I63091
aF370.429
aF207.757
aVp1
p253
aS'utopia'
p254
aS'#000000'
p255
aF8.88595
aI0
aI01
aI00
aI00
aI00
aI00
aI00
aI00
aI00
aa(lp256
I234378
aF387.46
aF207.757
aVp1
p257
aS'utopia'
p258
aS'#000000'
p259
aF8.88595
aI0
aI01
aI00
aI00
aI00
aI00
aI00
aI00
aI00
aa(lp260
I234378
aF55.7183
aF225.529
aVp1
p261
aS'utopia'
p262
aS'#878787'
p263
aF8.88595
aI0
aI01
aI00
aI00
aI00
aI00
aI00
aI00
aI00
aa(lp264
I234378
aF70.62062
aF225.529
ag261
aS'utopia'
p265
aS'#878787'
p266
aF8.88595
aI0
aI00
aI00
aI00
aI00
aI00
aI00
aI00
aI00
aa(lp267
I17057
aF76.4522
aF225.529
aVp1
p268
aS'utopia'
p269
aS'#878787'
p270
aF8.88595
aI0
aI01
aI00
aI00
aI00
aI00
aI00
aI00
aI00
aa(lp271
I234378
aF109.4658
aF225.529
ag268
aS'utopia'
p272
aS'#878787'
p273
aF8.88595
aI0
aI00
aI00
aI00
aI00
aI00
aI00
aI00
aI00
aa(lp274
I234378
aF117.92
aF225.529
aVp1
p275
aS'utopia'
p276
aS'#000000'
p277
aF8.88595
aI0
aI01
aI00
aI00
aI00
aI00
aI00
aI00
aI00
aa(lp278
I234378
aF160.869
aF225.529
aVp1
p279
aS'utopia'
p280
aS'#000000'
p281
aF8.88595
aI0
aI00
aI00
aI00
aI00
aI00
aI00
aI00
aI00
aa(lp282
I234378
aF167.533
aF225.529
aVp1
p283
aS'utopia'
p284
aS'#000000'
p285
aF8.88595
aI0
aI01
aI00
aI00
aI00
aI00
aI00
aI00
aI00
aa(lp286
I7204
aF308.227
aF225.529
aVp1
p287
aS'utopia'
p288
aS'#878787'
p289
aF8.88595
aI0
aI01
aI00
aI00
aI00
aI00
aI00
aI00
aI00
aa(lp290
I189220
aF340.809
aF225.529
aVp1
p291
aS'utopia'
p292
aS'#878787'
p293
aF8.88595
aI0
aI01
aI00
aI00
aI00
aI00
aI00
aI00
aI00
aa(lp294
I234378
aF366.93111428571433
aF225.529
ag291
aS'utopia'
p295
aS'#878787'
p296
aF8.88595
aI0
aI00
aI00
aI00
aI00
aI00
aI00
aI00
aI00
aa(lp297
I95395
aF375.613
aF225.529
aVp1
p298
aS'utopia'
p299
aS'#000000'
p300
aF8.88595
aI0
aI01
aI01
aI00
aI00
aI00
aI00
aI00
aI00
aa(lp301
I234378
aF380.57728333333336
aF225.529
ag298
aS'utopia'
p302
aS'#000000'
p303
aF8.88595
aI0
aI00
aI00
aI00
aI00
aI00
aI00
aI00
aI00
aa(lp304
I2737
aF385.5415666666667
aF225.529
ag298
aS'utopia'
p305
aS'#000000'
p306
aF8.88595
aI0
aI01
aI00
aI00
aI00
aI00
aI00
aI00
aI00
aa(lp307
I98580
aF55.7183
aF243.301
aVp1
p308
aS'utopia'
p309
aS'#878787'
p310
aF8.88595
aI0
aI01
aI00
aI00
aI00
aI00
aI00
aI00
aI00
aa(lp311
I166289
aF100.148
aF243.301
aVp1
p312
aS'utopia'
p313
aS'#878787'
p314
aF8.88595
aI0
aI01
aI00
aI00
aI00
aI00
aI00
aI00
aI00
aa(lp315
I234378
aF116.82751999999999
aF243.301
ag312
aS'utopia'
p316
aS'#878787'
p317
aF8.88595
aI0
aI00
aI00
aI00
aI00
aI00
aI00
aI00
aI00
aa(lp318
I22476
aF125.325
aF243.301
aVp1
p319
aS'utopia'
p320
aS'#000000'
p321
aF8.88595
aI0
aI01
aI01
aI00
aI00
aI00
aI00
aI00
aI00
aa(lp322
I234378
aF135.692
aF243.301
aVp1
p323
aS'utopia'
p324
aS'#000000'
p325
aF8.88595
aI0
aI01
aI00
aI00
aI00
aI00
aI00
aI00
aI00
aa(lp326
I177271
aF178.641
aF243.301
aVp1
p327
aS'utopia'
p328
aS'#000000'
p329
aF8.88595
aI0
aI01
aI00
aI00
aI00
aI00
aI00
aI00
aI00
aa(lp330
I48671
aF308.227
aF243.301
aVp1
p331
aS'utopia'
p332
aS'#878787'
p333
aF8.88595
aI0
aI01
aI00
aI00
aI00
aI00
aI00
aI00
aI00
aa(lp334
I129688
aF336.366
aF243.301
aVp1
p335
aS'utopia'
p336
aS'#878787'
p337
aF8.88595
aI0
aI00
aI00
aI00
aI00
aI00
aI00
aI00
aI00
aa(lp338
I234378
aF360.58405714285715
aF243.301
ag335
aS'utopia'
p339
aS'#878787'
p340
aF8.88595
aI0
aI00
aI00
aI00
aI00
aI00
aI00
aI00
aI00
aa(lp341
I230771
aF368.948
aF243.301
aVp1
p342
aS'utopia'
p343
aS'#000000'
p344
aF8.88595
aI0
aI01
aI00
aI00
aI00
aI00
aI00
aI00
aI00
aa(lp345
I48671
aF400.049
aF243.301
aVp1
p346
aS'utopia'
p347
aS'#000000'
p348
aF8.88595
aI0
aI01
aI00
aI00
aI00
aI00
aI00
aI00
aI00
aa(lp349
I129688
aF428.188
aF243.301
aVp1
p350
aS'utopia'
p351
aS'#000000'
p352
aF8.88595
aI0
aI01
aI00
aI00
aI00
aI00
aI00
aI00
aI00
aa(lp353
I176435
aF55.7183
aF261.073
aVp1
p354
aS'utopia'
p355
aS'#878787'
p356
aF8.88595
aI0
aI01
aI00
aI00
aI00
aI00
aI00
aI00
aI00
aa(lp357
I234378
aF71.80542
aF261.073
ag354
aS'utopia'
p358
aS'#878787'
p359
aF8.88595
aI0
aI00
aI00
aI00
aI00
aI00
aI00
aI00
aI00
aa(lp360
I210461
aF80.1547
aF261.073
aVp1
p361
aS'utopia'
p362
aS'#000000'
p363
aF8.88595
aI0
aI01
aI00
aI00
aI00
aI00
aI00
aI00
aI00
aa(lp364
I175409
aF104.591
aF261.073
aVp1
p365
aS'utopia'
p366
aS'#000000'
p367
aF8.88595
aI0
aI01
aI00
aI00
aI00
aI00
aI00
aI00
aI00
aa(lp368
I234378
aF123.75304444444444
aF261.073
ag365
aS'utopia'
p369
aS'#000000'
p370
aF8.88595
aI0
aI00
aI00
aI00
aI00
aI00
aI00
aI00
aI00
aa(lp371
I2737
aF128.54355555555554
aF261.073
ag365
aS'utopia'
p372
aS'#000000'
p373
aF8.88595
aI0
aI01
aI00
aI00
aI00
aI00
aI00
aI00
aI00
aa(lp374
I175409
aF149.761
aF261.073
aVp1
p375
aS'utopia'
p376
aS'#000000'
p377
aF8.88595
aI0
aI01
aI00
aI00
aI00
aI00
aI00
aI00
aI00
aa(lp378
I74589
aF55.7183
aF278.845
aVp1
p379
aS'utopia'
p380
aS'#878787'
p381
aF8.88595
aI0
aI01
aI00
aI00
aI00
aI00
aI00
aI00
aI00
aa(lp382
I234378
aF87.41545555555555
aF278.845
ag379
aS'utopia'
p383
aS'#878787'
p384
aF8.88595
aI0
aI00
aI00
aI00
aI00
aI00
aI00
aI00
aI00
aa(lp385
I22476
aF95.7051
aF278.845
aVp1
p386
aS'utopia'
p387
aS'#000000'
p388
aF8.88595
aI0
aI01
aI01
aI00
aI00
aI00
aI00
aI00
aI00
aa(lp389
I234378
aF105.30374
aF278.845
ag386
aS'utopia'
p390
aS'#000000'
p391
aF8.88595
aI0
aI01
aI00
aI00
aI00
aI00
aI00
aI00
aI00
aa(lp392
I234378
aF139.69830000000002
aF278.845
ag386
aS'utopia'
p393
aS'#000000'
p394
aF8.88595
aI0
aI00
aI00
aI00
aI00
aI00
aI00
aI00
aI00
aa(lp395
I234378
aF134.99762
aF278.845
ag386
aS'utopia'
p396
aS'#000000'
p397
aF8.88595
aI0
aI01
aI00
aI00
aI00
aI00
aI00
aI00
aI00
aa(lp398
I234378
aF183.824
aF278.845
aVp1
p399
aS'utopia'
p400
aS'#000000'
p401
aF8.88595
aI0
aI01
aI00
aI00
aI00
aI00
aI00
aI00
aI00
aa(lp402
I231013
aF55.7183
aF296.616
aVp1
p403
aS'utopia'
p404
aS'#878787'
p405
aF8.88595
aI0
aI01
aI00
aI00
aI00
aI00
aI00
aI00
aI00
aa(lp406
I234378
aF72.7498
aF296.616
aVp1
p407
aS'utopia'
p408
aS'#878787'
p409
aF8.88595
aI0
aI01
aI00
aI00
aI00
aI00
aI00
aI00
aI00
aa(lp410
I234378
aF91.25542857142857
aF296.616
ag407
aS'utopia'
p411
aS'#878787'
p412
aF8.88595
aI0
aI00
aI00
aI00
aI00
aI00
aI00
aI00
aI00
aa(lp413
I84662
aF98.6671
aF296.616
aVp1
p414
aS'utopia'
p415
aS'#000000'
p416
aF8.88595
aI0
aI01
aI00
aI00
aI00
aI00
aI00
aI00
aI00
aa(lp417
I21716
aF120.141
aF296.616
aVp1
p418
aS'utopia'
p419
aS'#000000'
p420
aF8.88595
aI0
aI01
aI00
aI00
aI00
aI00
aI00
aI00
aI00
aa(lp421
I234378
aF135.04332
aF296.616
ag418
aS'utopia'
p422
aS'#000000'
p423
aF8.88595
aI0
aI00
aI00
aI00
aI00
aI00
aI00
aI00
aI00
aa(lp424
I234378
aF140.875
aF296.616
aVp1
p425
aS'utopia'
p426
aS'#000000'
p427
aF8.88595
aI0
aI01
aI01
aI01
aI00
aI00
aI00
aI00
aI00
aa(lp428
I234378
aF156.96212
aF296.616
ag425
aS'utopia'
p429
aS'#000000'
p430
aF8.88595
aI0
aI00
aI00
aI00
aI00
aI00
aI00
aI00
aI00
aa(lp431
I148996
aF163.09
aF296.616
aVp1
p432
aS'utopia'
p433
aS'#000000'
p434
aF8.88595
aI0
aI01
aI00
aI00
aI00
aI00
aI00
aI00
aI00
aa(lp435
I234378
aF186.67334285714287
aF296.616
ag432
aS'utopia'
p436
aS'#000000'
p437
aF8.88595
aI0
aI00
aI00
aI00
aI00
aI00
aI00
aI00
aI00
aa(lp438
I176767
aF192.71
aF296.616
aVp1
p439
aS'utopia'
p440
aS'#000000'
p441
aF8.88595
aI0
aI01
aI00
aI00
aI00
aI00
aI00
aI00
aI00
aa(lp442
I234378
aF230.80142
aF296.616
ag439
aS'utopia'
p443
aS'#000000'
p444
aF8.88595
aI0
aI00
aI00
aI00
aI00
aI00
aI00
aI00
aI00
aa(lp445
I17350
aF237.14
aF296.616
aVp1
p446
aS'utopia'
p447
aS'#000000'
p448
aF8.88595
aI0
aI01
aI00
aI00
aI00
aI00
aI00
aI00
aI00
aa(lp449
I234378
aF257.133
aF296.616
aVp1
p450
aS'utopia'
p451
aS'#000000'
p452
aF8.88595
aI0
aI01
aI00
aI00
aI00
aI00
aI00
aI00
aI00
aa(lp453
I234378
aF287.5137111111111
aF296.616
ag450
aS'utopia'
p454
aS'#000000'
p455
aF8.88595
aI0
aI00
aI00
aI00
aI00
aI00
aI00
aI00
aI00
aa(lp456
I106895
aF55.7183
aF306.983
aVp1
p457
aS'utopia'
p458
aS'#000000'
p459
aF8.88595
aI0
aI01
aI01
aI00
aI00
aI00
aI00
aI00
aI00
aa(lp460
I234378
aF75.35982
aF306.983
ag457
aS'utopia'
p461
aS'#000000'
p462
aF8.88595
aI0
aI00
aI00
aI00
aI00
aI00
aI00
aI00
aI00
aa(lp463
I89217
aF82.3762
aF306.983
aVp1
p464
aS'utopia'
p465
aS'#000000'
p466
aF8.88595
aI0
aI01
aI00
aI00
aI00
aI00
aI00
aI00
aI00
aa(lp467
I234378
aF97.87092
aF306.983
ag464
aS'utopia'
p468
aS'#000000'
p469
aF8.88595
aI0
aI00
aI00
aI00
aI00
aI00
aI00
aI00
aI00
aa(lp470
I144690
aF103.851
aF306.983
aVp1
p471
aS'utopia'
p472
aS'#000000'
p473
aF8.88595
aI0
aI01
aI00
aI00
aI00
aI00
aI00
aI00
aI00
aa(lp474
I234378
aF132.73
aF306.983
aVp1
p475
aS'utopia'
p476
aS'#000000'
p477
aF8.88595
aI0
aI01
aI00
aI00
aI00
aI00
aI00
aI00
aI00
aa(lp478
I234378
aF163.76893333333334
aF306.983
ag475
aS'utopia'
p479
aS'#000000'
p480
aF8.88595
aI0
aI00
aI00
aI00
aI00
aI00
aI00
aI00
aI00
aa(lp481
I234378
aF169.755
aF306.983
aVp1
p482
aS'utopia'
p483
aS'#000000'
p484
aF8.88595
aI0
aI01
aI00
aI00
aI00
aI00
aI00
aI00
aI00
aa(lp485
I51933
aF40.1679
aF344.026
aVp1
p486
aS'utopia'
p487
aS'#02304b'
p488
aF11.8479
aI1
aI01
aI00
aI00
aI00
aI00
aI00
aI00
aI00
aa(lp489
I60220
aF72.0093
aF344.026
aVp1
p490
aS'utopia'
p491
aS'#02304b'
p492
aF11.8479
aI1
aI01
aI00
aI00
aI00
aI00
aI00
aI00
aI00
aa(lp493
I161300
aF40.9084
aF375.743
aVp1
p494
aS'utopia'
p495
aS'#000000'
p496
aF10.3669
aI1
aI01
aI00
aI00
aI00
aI00
aI00
aI00
aI00
aa(lp497
I74911
aF77.9332
aF375.743
aVp1
p498
aS'utopia'
p499
aS'#000000'
p500
aF10.3669
aI1
aI01
aI00
aI00
aI00
aI00
aI00
aI00
aI00
aa(lp501
I234378
aF139.394
aF375.743
aVp1
p502
aS'utopia'
p503
aS'#000000'
p504
aF10.3669
aI1
aI01
aI00
aI00
aI00
aI00
aI00
aI00
aI00
aa(lp505
I234378
aF180.122
aF376.012
aVp1
p506
aS'utopia'
p507
aS'#656565'
p508
aF10.3669
aI0
aI00
aI00
aI00
aI00
aI00
aI00
aI00
aI00
aa(lp509
I15548
aF185.09942500000002
aF376.012
ag506
aS'utopia'
p510
aS'#656565'
p511
aF10.3669
aI0
aI01
aI00
aI00
aI00
aI00
aI00
aI00
aI00
aa(lp512
I70289
aF222.33
aF376.012
aVp1
p513
aS'utopia'
p514
aS'#656565'
p515
aF10.3669
aI0
aI01
aI00
aI00
aI00
aI00
aI00
aI00
aI00
aa(lp516
I234378
aF265.6789777777778
aF376.012
ag513
aS'utopia'
p517
aS'#656565'
p518
aF10.3669
aI0
aI00
aI00
aI00
aI00
aI00
aI00
aI00
aI00
aa(lp519
I68032
aF40.9084
aF392.303
aVp1
p520
aS'utopia'
p521
aS'#656565'
p522
aF10.3669
aI0
aI01
aI00
aI00
aI00
aI00
aI00
aI00
aI00
aa(lp523
I17209
aF107.553
aF392.303
aVp1
p524
aS'utopia'
p525
aS'#656565'
p526
aF10.3669
aI0
aI01
aI00
aI00
aI00
aI00
aI00
aI00
aI00
aa(lp527
I234378
aF163.831
aF392.303
aVp1
p528
aS'utopia'
p529
aS'#656565'
p530
aF10.3669
aI0
aI01
aI00
aI00
aI00
aI00
aI00
aI00
aI01
aa(lp531
I234378
aF184.565
aF392.303
aVp1
p532
aS'utopia'
p533
aS'#656565'
p534
aF10.3669
aI0
aI00
aI00
aI01
aI01
aI01
aI00
aI00
aI00
aa(lp535
I234378
aF40.9084
aF412.134
aVp1
p536
aS'utopia'
p537
aS'#656565'
p538
aF8.88595
aI0
aI00
aI00
aI00
aI00
aI00
aI00
aI00
aI00
aa(lp539
I11472
aF55.7183
aF412.134
aVp1
p540
aS'utopia'
p541
aS'#656565'
p542
aF8.88595
aI0
aI01
aI00
aI00
aI00
aI00
aI00
aI00
aI00
aa(lp543
I149270
aF95.7051
aF412.134
aVp1
p544
aS'utopia'
p545
aS'#656565'
p546
aF8.88595
aI0
aI00
aI00
aI00
aI00
aI00
aI00
aI00
aI00
aa(lp547
I209804
aF133.47
aF412.134
aVp1
p548
aS'utopia'
p549
aS'#656565'
p550
aF8.88595
aI0
aI00
aI00
aI00
aI00
aI00
aI00
aI00
aI00
aa(lp551
I89480
aF176.419
aF412.134
aVp1
p552
aS'utopia'
p553
aS'#656565'
p554
aF8.88595
aI0
aI00
aI00
aI00
aI00
aI00
aI00
aI00
aI00
aa(lp555
I234378
aF186.786
aF412.134
aVp1
p556
aS'utopia'
p557
aS'#656565'
p558
aF8.88595
aI0
aI00
aI00
aI00
aI00
aI00
aI00
aI00
aI00
aa(lp559
I184870
aF231.956
aF412.134
aVp1
p560
aS'utopia'
p561
aS'#656565'
p562
aF8.88595
aI0
aI00
aI00
aI00
aI00
aI00
aI00
aI00
aI00
aa(lp563
I222122
aF266.019
aF412.134
aVp1
p564
aS'utopia'
p565
aS'#656565'
p566
aF8.88595
aI0
aI00
aI00
aI00
aI00
aI00
aI00
aI00
aI00
aa(lp567
I84132
aF314.892
aF412.134
aVp1
p568
aS'utopia'
p569
aS'#656565'
p570
aF8.88595
aI0
aI00
aI00
aI00
aI00
aI00
aI00
aI00
aI00
aa(lp571
I234378
aF348.5638222222222
aF412.134
ag568
aS'utopia'
p572
aS'#656565'
p573
aF8.88595
aI0
aI00
aI00
aI00
aI00
aI00
aI00
aI00
aI00
aa(lp574
I234378
aF354.879
aF412.134
aVp1
p575
aS'utopia'
p576
aS'#656565'
p577
aF8.88595
aI0
aI00
aI00
aI00
aI00
aI00
aI00
aI00
aI00
aa(lp578
I85218
aF398.568
aF412.134
aVp1
p579
aS'utopia'
p580
aS'#656565'
p581
aF8.88595
aI0
aI00
aI00
aI00
aI00
aI00
aI00
aI00
aI00
aa(lp582
I12448
aF415.599
aF412.134
aVp1
p583
aS'utopia'
p584
aS'#656565'
p585
aF8.88595
aI0
aI00
aI00
aI00
aI00
aI00
aI00
aI00
aI00
aa(lp586
I85218
aF453.365
aF412.134
aVp1
p587
aS'utopia'
p588
aS'#656565'
p589
aF8.88595
aI0
aI00
aI00
aI00
aI00
aI00
aI00
aI00
aI00
aa(lp590
I133174
aF470.396
aF412.134
aVp1
p591
aS'utopia'
p592
aS'#656565'
p593
aF8.88595
aI0
aI00
aI00
aI00
aI00
aI00
aI00
aI00
aI00
aa(lp594
I60201
aF488.908
aF412.134
aVp1
p595
aS'utopia'
p596
aS'#656565'
p597
aF8.88595
aI0
aI00
aI00
aI00
aI00
aI00
aI00
aI00
aI00
aa(lp598
I214011
aF40.9084
aF422.501
aVp1
p599
aS'utopia'
p600
aS'#656565'
p601
aF8.88595
aI0
aI00
aI00
aI00
aI00
aI00
aI00
aI00
aI00
aa(lp602
I190806
aF95.7051
aF422.501
aVp1
p603
aS'utopia'
p604
aS'#656565'
p605
aF8.88595
aI0
aI00
aI00
aI00
aI00
aI00
aI00
aI00
aI00
aa(lp606
I194354
aF109.775
aF422.501
aVp1
p607
aS'utopia'
p608
aS'#656565'
p609
aF8.88595
aI0
aI00
aI00
aI00
aI00
aI00
aI00
aI00
aI00
aa(lp610
I43052
aF124.584
aF422.501
aVp1
p611
aS'utopia'
p612
aS'#656565'
p613
aF8.88595
aI0
aI00
aI00
aI00
aI00
aI00
aI00
aI00
aI00
aa(lp614
I234378
aF170.495
aF422.501
aVp1
p615
aS'utopia'
p616
aS'#656565'
p617
aF8.88595
aI0
aI00
aI00
aI00
aI00
aI00
aI00
aI00
aI00
aa(lp618
I85218
aF209.001
aF422.501
aVp1
p619
aS'utopia'
p620
aS'#656565'
p621
aF8.88595
aI0
aI00
aI00
aI00
aI00
aI00
aI00
aI00
aI00
aa(lp622
I234378
aF226.032
aF422.501
aVp1
p623
aS'utopia'
p624
aS'#656565'
p625
aF8.88595
aI0
aI00
aI00
aI00
aI00
aI00
aI00
aI00
aI00
aa(lp626
I234378
aF264.78987
aF422.501
ag623
aS'utopia'
p627
aS'#656565'
p628
aF8.88595
aI0
aI00
aI00
aI00
aI00
aI00
aI00
aI00
aI00
aa(lp629
I234378
aF271.203
aF422.501
aVp1
p630
aS'utopia'
p631
aS'#656565'
p632
aF8.88595
aI0
aI00
aI00
aI00
aI00
aI00
aI00
aI00
aI00
aa(lp633
I234378
aF286.013
aF422.501
aVp1
p634
aS'utopia'
p635
aS'#656565'
p636
aF8.88595
aI0
aI01
aI00
aI00
aI00
aI00
aI00
aI00
aI00
aa(lp637
I121752
aF326.74
aF422.501
aVp1
p638
aS'utopia'
p639
aS'#656565'
p640
aF8.88595
aI0
aI00
aI00
aI00
aI00
aI00
aI00
aI00
aI00
aa(lp641
I119499
aF379.315
aF422.501
aVp1
p642
aS'utopia'
p643
aS'#656565'
p644
aF8.88595
aI0
aI00
aI00
aI00
aI00
aI00
aI00
aI00
aI00
aa(lp645
I190806
aF419.302
aF422.501
aVp1
p646
aS'utopia'
p647
aS'#656565'
p648
aF8.88595
aI0
aI00
aI00
aI00
aI00
aI00
aI00
aI00
aI00
aa(lp649
I234378
aF433.371
aF422.501
aVp1
p650
aS'utopia'
p651
aS'#656565'
p652
aF8.88595
aI0
aI00
aI00
aI00
aI00
aI00
aI00
aI00
aI00
aa(lp653
I192651
aF467.434
aF422.501
aVp1
p654
aS'utopia'
p655
aS'#656565'
p656
aF8.88595
aI0
aI00
aI00
aI00
aI00
aI00
aI00
aI00
aI00
aa(lp657
I123583
aF479.282
aF422.501
aVp1
p658
aS'utopia'
p659
aS'#656565'
p660
aF8.88595
aI0
aI00
aI00
aI00
aI00
aI00
aI00
aI00
aI00
aa(lp661
I144483
aF513.345
aF422.501
aVp1
p662
aS'utopia'
p663
aS'#656565'
p664
aF8.88595
aI0
aI00
aI00
aI00
aI00
aI00
aI00
aI00
aI00
aa(lp665
I234378
aF525.933
aF422.501
aVp1
p666
aS'utopia'
p667
aS'#656565'
p668
aF8.88595
aI0
aI01
aI00
aI00
aI00
aI00
aI00
aI00
aI00
aa(lp669
I60222
aF40.9084
aF432.868
aVp1
p670
aS'utopia'
p671
aS'#656565'
p672
aF8.88595
aI0
aI00
aI00
aI00
aI00
aI00
aI00
aI00
aI00
aa(lp673
I89480
aF63.1233
aF432.868
aVp1
p674
aS'utopia'
p675
aS'#656565'
p676
aF8.88595
aI0
aI00
aI00
aI00
aI00
aI00
aI00
aI00
aI00
aa(lp677
I22476
aF73.4902
aF432.868
aVp1
p678
aS'utopia'
p679
aS'#656565'
p680
aF8.88595
aI0
aI00
aI00
aI00
aI00
aI00
aI00
aI00
aI00
aa(lp681
I234378
aF78.50385333333334
aF432.868
ag678
aS'utopia'
p682
aS'#656565'
p683
aF8.88595
aI0
aI00
aI00
aI00
aI00
aI00
aI00
aI00
aI00
aa(lp684
I234378
aF83.1167
aF432.868
aVp1
p685
aS'utopia'
p686
aS'#656565'
p687
aF8.88595
aI0
aI00
aI00
aI00
aI00
aI00
aI00
aI00
aI00
aa(lp688
I200058
aF97.9266
aF432.868
aVp1
p689
aS'utopia'
p690
aS'#656565'
p691
aF8.88595
aI0
aI01
aI00
aI00
aI00
aI00
aI00
aI00
aI00
aa(lp692
I149270
aF125.325
aF432.868
aVp1
p693
aS'utopia'
p694
aS'#656565'
p695
aF8.88595
aI0
aI00
aI00
aI00
aI00
aI00
aI00
aI00
aI00
aa(lp696
I12448
aF163.09
aF432.868
aVp1
p697
aS'utopia'
p698
aS'#656565'
p699
aF8.88595
aI0
aI00
aI00
aI00
aI00
aI00
aI00
aI00
aI00
aa(lp700
I89480
aF200.856
aF432.868
aVp1
p701
aS'utopia'
p702
aS'#656565'
p703
aF8.88595
aI0
aI00
aI00
aI00
aI00
aI00
aI00
aI00
aI00
aa(lp704
I194354
aF211.222
aF432.868
aVp1
p705
aS'utopia'
p706
aS'#656565'
p707
aF8.88595
aI0
aI00
aI00
aI00
aI00
aI00
aI00
aI00
aI00
aa(lp708
I177958
aF226.032
aF432.868
aVp1
p709
aS'utopia'
p710
aS'#656565'
p711
aF8.88595
aI0
aI00
aI00
aI00
aI00
aI00
aI00
aI00
aI00
aa(lp712
I234378
aF256.393
aF432.868
aVp1
p713
aS'utopia'
p714
aS'#656565'
p715
aF8.88595
aI0
aI00
aI00
aI00
aI00
aI00
aI00
aI00
aI00
aa(lp716
I10716
aF308.227
aF432.868
aVp1
p717
aS'utopia'
p718
aS'#656565'
p719
aF8.88595
aI0
aI00
aI00
aI00
aI00
aI00
aI00
aI00
aI00
aa(lp720
I177958
aF323.778
aF432.868
aVp1
p721
aS'utopia'
p722
aS'#656565'
p723
aF8.88595
aI0
aI01
aI00
aI00
aI00
aI00
aI00
aI00
aI00
aa(lp724
I95887
aF354.138
aF432.868
aVp1
p725
aS'utopia'
p726
aS'#656565'
p727
aF8.88595
aI0
aI01
aI00
aI00
aI00
aI00
aI00
aI00
aI00
aa(lp728
I234378
aF386.6357625
aF432.868
ag725
aS'utopia'
p729
aS'#656565'
p730
aF8.88595
aI0
aI00
aI00
aI00
aI00
aI00
aI00
aI00
aI00
aa(lp731
I166245
aF393.384
aF432.868
aVp1
p732
aS'utopia'
p733
aS'#656565'
p734
aF8.88595
aI0
aI01
aI00
aI00
aI00
aI00
aI00
aI00
aI00
aa(lp735
I234378
aF429.669
aF432.868
aVp1
p736
aS'utopia'
p737
aS'#656565'
p738
aF8.88595
aI0
aI01
aI00
aI00
aI00
aI00
aI00
aI00
aI00
aa(lp739
I85218
aF464.472
aF432.868
aVp1
p740
aS'utopia'
p741
aS'#656565'
p742
aF8.88595
aI0
aI00
aI00
aI00
aI00
aI00
aI00
aI00
aI00
aa(lp743
I234378
aF481.503
aF432.868
aVp1
p744
aS'utopia'
p745
aS'#656565'
p746
aF8.88595
aI0
aI01
aI00
aI00
aI00
aI00
aI00
aI00
aI00
aa(lp747
I234378
aF528.155
aF432.868
aVp1
p748
aS'utopia'
p749
aS'#656565'
p750
aF8.88595
aI0
aI00
aI00
aI00
aI00
aI00
aI00
aI00
aI00
aa(lp751
I68196
aF40.9084
aF443.235
aVp1
p752
aS'utopia'
p753
aS'#656565'
p754
aF8.88595
aI0
aI01
aI00
aI00
aI00
aI00
aI00
aI00
aI00
aa(lp755
I166245
aF79.4142
aF443.235
aVp1
p756
aS'utopia'
p757
aS'#656565'
p758
aF8.88595
aI0
aI00
aI00
aI00
aI00
aI00
aI00
aI00
aI00
aa(lp759
I234378
aF114.958
aF443.235
aVp1
p760
aS'utopia'
p761
aS'#656565'
p762
aF8.88595
aI0
aI00
aI00
aI00
aI00
aI00
aI00
aI00
aI00
aa(lp763
I15726
aF170.495
aF443.235
aVp1
p764
aS'utopia'
p765
aS'#656565'
p766
aF8.88595
aI0
aI00
aI00
aI00
aI00
aI00
aI00
aI00
aI00
aa(lp767
I149270
aF188.267
aF443.235
aVp1
p768
aS'utopia'
p769
aS'#656565'
p770
aF8.88595
aI0
aI00
aI00
aI00
aI00
aI00
aI00
aI00
aI00
aa(lp771
I234378
aF226.032
aF443.235
aVp1
p772
aS'utopia'
p773
aS'#656565'
p774
aF8.88595
aI0
aI00
aI00
aI00
aI00
aI00
aI00
aI00
aI00
aa(lp775
I192651
aF257.133
aF443.235
aVp1
p776
aS'utopia'
p777
aS'#656565'
p778
aF8.88595
aI0
aI00
aI00
aI00
aI00
aI00
aI00
aI00
aI00
aa(lp779
I234378
aF268.981
aF443.235
aVp1
p780
aS'utopia'
p781
aS'#656565'
p782
aF8.88595
aI0
aI00
aI00
aI00
aI00
aI00
aI00
aI00
aI00
aa(lp783
I134763
aF309.708
aF443.235
aVp1
p784
aS'utopia'
p785
aS'#656565'
p786
aF8.88595
aI0
aI00
aI00
aI00
aI00
aI00
aI00
aI00
aI00
aa(lp787
I70210
aF328.961
aF443.235
aVp1
p788
aS'utopia'
p789
aS'#656565'
p790
aF8.88595
aI0
aI00
aI00
aI00
aI00
aI00
aI00
aI00
aI00
aa(lp791
I144690
aF348.955
aF443.235
aVp1
p792
aS'utopia'
p793
aS'#656565'
p794
aF8.88595
aI0
aI00
aI00
aI00
aI00
aI00
aI00
aI00
aI00
aa(lp795
I234378
aF376.353
aF443.235
aVp1
p796
aS'utopia'
p797
aS'#656565'
p798
aF8.88595
aI0
aI00
aI00
aI00
aI00
aI00
aI00
aI00
aI00
aa(lp799
I234378
aF381.41266
aF443.235
ag796
aS'utopia'
p800
aS'#656565'
p801
aF8.88595
aI0
aI01
aI01
aI00
aI00
aI00
aI00
aI00
aI00
aa(lp802
I234378
aF396.59164000000004
aF443.235
ag796
aS'utopia'
p803
aS'#656565'
p804
aF8.88595
aI0
aI00
aI00
aI00
aI00
aI00
aI00
aI00
aI00
aa(lp805
I85218
aF403.751
aF443.235
aVp1
p806
aS'utopia'
p807
aS'#656565'
p808
aF8.88595
aI0
aI00
aI00
aI00
aI00
aI00
aI00
aI00
aI00
aa(lp809
I92982
aF420.783
aF443.235
aVp1
p810
aS'utopia'
p811
aS'#656565'
p812
aF8.88595
aI0
aI00
aI00
aI00
aI00
aI00
aI00
aI00
aI00
aa(lp813
I70210
aF437.074
aF443.235
aVp1
p814
aS'utopia'
p815
aS'#656565'
p816
aF8.88595
aI0
aI00
aI00
aI00
aI00
aI00
aI00
aI00
aI00
aa(lp817
I144690
aF457.067
aF443.235
aVp1
p818
aS'utopia'
p819
aS'#656565'
p820
aF8.88595
aI0
aI00
aI00
aI00
aI00
aI00
aI00
aI00
aI00
aa(lp821
I234378
aF484.465
aF443.235
aVp1
p822
aS'utopia'
p823
aS'#656565'
p824
aF8.88595
aI0
aI00
aI00
aI00
aI00
aI00
aI00
aI00
aI00
aa(lp825
I234378
aF488.68039999999996
aF443.235
ag822
aS'utopia'
p826
aS'#656565'
p827
aF8.88595
aI0
aI01
aI01
aI00
aI00
aI00
aI00
aI00
aI00
aa(lp828
I234378
aF501.3266
aF443.235
ag822
aS'utopia'
p829
aS'#656565'
p830
aF8.88595
aI0
aI00
aI00
aI00
aI00
aI00
aI00
aI00
aI00
aa(lp831
I234378
aF505.542
aF443.235
ag822
aS'utopia'
p832
aS'#656565'
p833
aF8.88595
aI0
aI00
aI00
aI00
aI00
aI00
aI00
aI00
aI00
aa(lp834
I234378
aF511.864
aF443.235
aVp1
p835
aS'utopia'
p836
aS'#656565'
p837
aF8.88595
aI0
aI00
aI00
aI00
aI00
aI00
aI00
aI00
aI00
aa(lp838
I78161
aF40.9084
aF453.602
aVp1
p839
aS'utopia'
p840
aS'#656565'
p841
aF8.88595
aI0
aI01
aI00
aI00
aI00
aI00
aI00
aI00
aI00
aa(lp842
I41890
aF85.3382
aF453.602
aVp1
p843
aS'utopia'
p844
aS'#656565'
p845
aF8.88595
aI0
aI00
aI00
aI00
aI00
aI00
aI00
aI00
aI00
aa(lp846
I149270
aF96.4456
aF453.602
aVp1
p847
aS'utopia'
p848
aS'#656565'
p849
aF8.88595
aI0
aI00
aI00
aI00
aI00
aI00
aI00
aI00
aI00
aa(lp850
I234378
aF134.211
aF453.602
aVp1
p851
aS'utopia'
p852
aS'#656565'
p853
aF8.88595
aI0
aI00
aI00
aI00
aI00
aI00
aI00
aI00
aI00
aa(lp854
I85218
aF189.748
aF453.602
aVp1
p855
aS'utopia'
p856
aS'#656565'
p857
aF8.88595
aI0
aI00
aI00
aI00
aI00
aI00
aI00
aI00
aI00
aa(lp858
I144690
aF206.779
aF453.602
aVp1
p859
aS'utopia'
p860
aS'#656565'
p861
aF8.88595
aI0
aI00
aI00
aI00
aI00
aI00
aI00
aI00
aI00
aa(lp862
I149270
aF234.178
aF453.602
aVp1
p863
aS'utopia'
p864
aS'#656565'
p865
aF8.88595
aI0
aI00
aI00
aI00
aI00
aI00
aI00
aI00
aI00
aa(lp866
I234378
aF271.943
aF453.602
aVp1
p867
aS'utopia'
p868
aS'#656565'
p869
aF8.88595
aI0
aI00
aI00
aI00
aI00
aI00
aI00
aI00
aI00
aa(lp870
I234378
aF309.708
aF453.602
aVp1
p871
aS'utopia'
p872
aS'#656565'
p873
aF8.88595
aI0
aI00
aI00
aI00
aI00
aI00
aI00
aI00
aI00
aa(lp874
I234378
aF348.214
aF453.602
aVp1
p875
aS'utopia'
p876
aS'#656565'
p877
aF8.88595
aI0
aI00
aI00
aI00
aI00
aI00
aI00
aI00
aI00
aa(lp878
I41890
aF403.011
aF453.602
aVp1
p879
aS'utopia'
p880
aS'#656565'
p881
aF8.88595
aI0
aI00
aI00
aI00
aI00
aI00
aI00
aI00
aI00
aa(lp882
I14859
aF414.118
aF453.602
aVp1
p883
aS'utopia'
p884
aS'#656565'
p885
aF8.88595
aI0
aI00
aI00
aI00
aI00
aI00
aI00
aI00
aI00
aa(lp886
I234378
aF448.181
aF453.602
aVp1
p887
aS'utopia'
p888
aS'#656565'
p889
aF8.88595
aI0
aI00
aI00
aI00
aI00
aI00
aI00
aI00
aI00
aa(lp890
I85218
aF500.016
aF453.602
aVp1
p891
aS'utopia'
p892
aS'#656565'
p893
aF8.88595
aI0
aI00
aI00
aI00
aI00
aI00
aI00
aI00
aI00
aa(lp894
I234378
aF40.9084
aF463.969
aVp1
p895
aS'utopia'
p896
aS'#656565'
p897
aF8.88595
aI0
aI00
aI00
aI00
aI00
aI00
aI00
aI00
aI00
aa(lp898
I234378
aF96.30658666666668
aF463.969
ag895
aS'utopia'
p899
aS'#656565'
p900
aF8.88595
aI0
aI00
aI00
aI00
aI00
aI00
aI00
aI00
aI00
aa(lp901
I234378
aF102.37
aF463.969
aVp1
p902
aS'utopia'
p903
aS'#656565'
p904
aF8.88595
aI0
aI00
aI00
aI00
aI00
aI00
aI00
aI00
aI00
aa(lp905
I24205
aF117.18
aF463.969
aVp1
p906
aS'utopia'
p907
aS'#656565'
p908
aF8.88595
aI0
aI01
aI00
aI00
aI00
aI00
aI00
aI00
aI00
aa(lp909
I234378
aF145.318
aF463.969
aVp1
p910
aS'utopia'
p911
aS'#656565'
p912
aF8.88595
aI0
aI00
aI00
aI00
aI00
aI00
aI00
aI00
aI00
aa(lp913
I234378
aF180.862
aF463.969
aVp1
p914
aS'utopia'
p915
aS'#656565'
p916
aF8.88595
aI0
aI00
aI00
aI00
aI00
aI00
aI00
aI00
aI00
aa(lp917
I234378
aF226.773
aF463.969
aVp1
p918
aS'utopia'
p919
aS'#656565'
p920
aF8.88595
aI0
aI00
aI00
aI00
aI00
aI00
aI00
aI00
aI00
aa(lp921
I218914
aF257.133
aF463.969
aVp1
p922
aS'utopia'
p923
aS'#656565'
p924
aF8.88595
aI0
aI00
aI00
aI00
aI00
aI00
aI00
aI00
aI00
aa(lp925
I33705
aF283.051
aF463.969
aVp1
p926
aS'utopia'
p927
aS'#656565'
p928
aF8.88595
aI0
aI00
aI00
aI00
aI00
aI00
aI00
aI00
aI00
aa(lp929
I192638
aF299.341
aF463.969
aVp1
p930
aS'utopia'
p931
aS'#656565'
p932
aF8.88595
aI0
aI00
aI00
aI00
aI00
aI00
aI00
aI00
aI00
aa(lp933
I234378
aF311.189
aF463.969
aVp1
p934
aS'utopia'
p935
aS'#656565'
p936
aF8.88595
aI0
aI00
aI00
aI00
aI00
aI00
aI00
aI00
aI00
aa(lp937
I8691
aF340.069
aF463.969
aVp1
p938
aS'utopia'
p939
aS'#656565'
p940
aF8.88595
aI0
aI00
aI00
aI00
aI00
aI00
aI00
aI00
aI00
aa(lp941
I41890
aF367.467
aF463.969
aVp1
p942
aS'utopia'
p943
aS'#656565'
p944
aF8.88595
aI0
aI00
aI00
aI00
aI00
aI00
aI00
aI00
aI00
aa(lp945
I234378
aF378.575
aF463.969
aVp1
p946
aS'utopia'
p947
aS'#656565'
p948
aF8.88595
aI0
aI00
aI00
aI00
aI00
aI00
aI00
aI00
aI00
aa(lp949
I234378
aF425.8024545454545
aF463.969
ag946
aS'utopia'
p950
aS'#656565'
p951
aF8.88595
aI0
aI00
aI00
aI00
aI00
aI00
aI00
aI00
aI00
aa(lp952
I234378
aF432.631
aF463.969
aVp1
p953
aS'utopia'
p954
aS'#656565'
p955
aF8.88595
aI0
aI00
aI00
aI00
aI00
aI00
aI00
aI00
aI00
aa(lp956
I234378
aF447.441
aF463.969
aVp1
p957
aS'utopia'
p958
aS'#656565'
p959
aF8.88595
aI0
aI01
aI00
aI00
aI00
aI00
aI00
aI00
aI00
aa(lp960
I85218
aF477.801
aF463.969
aVp1
p961
aS'utopia'
p962
aS'#656565'
p963
aF8.88595
aI0
aI00
aI00
aI00
aI00
aI00
aI00
aI00
aI00
aa(lp964
I112275
aF494.832
aF463.969
aVp1
p965
aS'utopia'
p966
aS'#656565'
p967
aF8.88595
aI0
aI01
aI00
aI00
aI00
aI00
aI00
aI00
aI00
aa(lp968
I125078
aF514.085
aF463.969
aVp1
p969
aS'utopia'
p970
aS'#656565'
p971
aF8.88595
aI0
aI00
aI00
aI00
aI00
aI00
aI00
aI00
aI00
aa(lp972
I234378
aF538.8076000000001
aF463.969
ag969
aS'utopia'
p973
aS'#656565'
p974
aF8.88595
aI0
aI00
aI00
aI00
aI00
aI00
aI00
aI00
aI00
aa(lp975
I234378
aF40.9084
aF474.335
aVp1
p976
aS'utopia'
p977
aS'#656565'
p978
aF8.88595
aI0
aI00
aI00
aI00
aI00
aI00
aI00
aI00
aI00
aa(lp979
I11472
aF55.7183
aF474.335
aVp1
p980
aS'utopia'
p981
aS'#656565'
p982
aF8.88595
aI0
aI01
aI00
aI00
aI00
aI00
aI00
aI00
aI00
aa(lp983
I147316
aF95.7051
aF474.335
aVp1
p984
aS'utopia'
p985
aS'#656565'
p986
aF8.88595
aI0
aI00
aI00
aI00
aI00
aI00
aI00
aI00
aI00
aa(lp987
I89480
aF129.027
aF474.335
aVp1
p988
aS'utopia'
p989
aS'#656565'
p990
aF8.88595
aI0
aI00
aI00
aI00
aI00
aI00
aI00
aI00
aI00
aa(lp991
I234378
aF139.394
aF474.335
aVp1
p992
aS'utopia'
p993
aS'#656565'
p994
aF8.88595
aI0
aI01
aI01
aI00
aI00
aI00
aI00
aI00
aI00
aa(lp995
I210461
aF154.204
aF474.335
aVp1
p996
aS'utopia'
p997
aS'#656565'
p998
aF8.88595
aI0
aI00
aI00
aI00
aI00
aI00
aI00
aI00
aI00
aa(lp999
I36403
aF176.419
aF474.335
aVp1
p1000
aS'utopia'
p1001
aS'#656565'
p1002
aF8.88595
aI0
aI00
aI00
aI00
aI00
aI00
aI00
aI00
aI00
aa(lp1003
I177958
aF188.267
aF474.335
aVp1
p1004
aS'utopia'
p1005
aS'#656565'
p1006
aF8.88595
aI0
aI00
aI00
aI00
aI00
aI00
aI00
aI00
aI00
aa(lp1007
I221291
aF218.627
aF474.335
aVp1
p1008
aS'utopia'
p1009
aS'#656565'
p1010
aF8.88595
aI0
aI00
aI00
aI00
aI00
aI00
aI00
aI00
aI00
aa(lp1011
I22474
aF240.102
aF474.335
aVp1
p1012
aS'utopia'
p1013
aS'#656565'
p1014
aF8.88595
aI0
aI00
aI00
aI00
aI00
aI00
aI00
aI00
aI00
aa(lp1015
I234378
aF248.247
aF474.335
aVp1
p1016
aS'utopia'
p1017
aS'#656565'
p1018
aF8.88595
aI0
aI00
aI00
aI00
aI00
aI00
aI00
aI00
aI00
aa(lp1019
I135639
aF283.051
aF474.335
aVp1
p1020
aS'utopia'
p1021
aS'#656565'
p1022
aF8.88595
aI0
aI00
aI00
aI00
aI00
aI00
aI00
aI00
aI00
aa(lp1023
I3878
aF292.677
aF474.335
aVp1
p1024
aS'utopia'
p1025
aS'#656565'
p1026
aF8.88595
aI0
aI00
aI00
aI00
aI00
aI00
aI00
aI00
aI00
aa(lp1027
I234378
aF335.1922727272728
aF474.335
ag1024
aS'utopia'
p1028
aS'#656565'
p1029
aF8.88595
aI0
aI00
aI00
aI00
aI00
aI00
aI00
aI00
aI00
aa(lp1030
I234378
aF341.55
aF474.335
aVp1
p1031
aS'utopia'
p1032
aS'#656565'
p1033
aF8.88595
aI0
aI00
aI00
aI00
aI00
aI00
aI00
aI00
aI00
aa(lp1034
I234378
aF356.36
aF474.335
aVp1
p1035
aS'utopia'
p1036
aS'#656565'
p1037
aF8.88595
aI0
aI01
aI00
aI00
aI00
aI00
aI00
aI00
aI00
aa(lp1038
I3878
aF423.745
aF474.335
aVp1
p1039
aS'utopia'
p1040
aS'#656565'
p1041
aF8.88595
aI0
aI00
aI00
aI00
aI00
aI00
aI00
aI00
aI00
aa(lp1042
I234378
aF470.396
aF474.335
aVp1
p1043
aS'utopia'
p1044
aS'#656565'
p1045
aF8.88595
aI0
aI00
aI00
aI00
aI00
aI00
aI00
aI00
aI00
aa(lp1046
I234378
aF492.0752
aF474.335
ag1043
aS'utopia'
p1047
aS'#656565'
p1048
aF8.88595
aI0
aI00
aI00
aI00
aI00
aI00
aI00
aI00
aI00
aa(lp1049
I234378
aF497.794
aF474.335
aVp1
p1050
aS'utopia'
p1051
aS'#656565'
p1052
aF8.88595
aI0
aI00
aI00
aI00
aI00
aI00
aI00
aI00
aI00
aa(lp1053
I234378
aF512.604
aF474.335
aVp1
p1054
aS'utopia'
p1055
aS'#656565'
p1056
aF8.88595
aI0
aI01
aI00
aI00
aI00
aI00
aI00
aI00
aI00
aa(lp1057
I149270
aF40.9084
aF484.702
aVp1
p1058
aS'utopia'
p1059
aS'#656565'
p1060
aF8.88595
aI0
aI00
aI00
aI00
aI00
aI00
aI00
aI00
aI00
aa(lp1061
I144690
aF78.6737
aF484.702
aVp1
p1062
aS'utopia'
p1063
aS'#656565'
p1064
aF8.88595
aI0
aI00
aI00
aI00
aI00
aI00
aI00
aI00
aI00
aa(lp1065
I85218
aF106.072
aF484.702
aVp1
p1066
aS'utopia'
p1067
aS'#656565'
p1068
aF8.88595
aI0
aI00
aI00
aI00
aI00
aI00
aI00
aI00
aI00
aa(lp1069
I221291
aF123.103
aF484.702
aVp1
p1070
aS'utopia'
p1071
aS'#656565'
p1072
aF8.88595
aI0
aI00
aI00
aI00
aI00
aI00
aI00
aI00
aI00
aa(lp1073
I234378
aF140.37492
aF484.702
ag1070
aS'utopia'
p1074
aS'#656565'
p1075
aF8.88595
aI0
aI00
aI00
aI00
aI00
aI00
aI00
aI00
aI00
aa(lp1076
I234378
aF146.799
aF484.702
aVp1
p1077
aS'utopia'
p1078
aS'#656565'
p1079
aF8.88595
aI0
aI00
aI00
aI00
aI00
aI00
aI00
aI00
aI00
aa(lp1080
I51933
aF161.609
aF484.702
aVp1
p1081
aS'utopia'
p1082
aS'#656565'
p1083
aF8.88595
aI0
aI01
aI00
aI00
aI00
aI00
aI00
aI00
aI00
aa(lp1084
I169745
aF185.305
aF484.702
aVp1
p1085
aS'utopia'
p1086
aS'#656565'
p1087
aF8.88595
aI0
aI00
aI00
aI00
aI00
aI00
aI00
aI00
aI00
aa(lp1088
I166245
aF204.558
aF484.702
aVp1
p1089
aS'utopia'
p1090
aS'#656565'
p1091
aF8.88595
aI0
aI00
aI00
aI00
aI00
aI00
aI00
aI00
aI00
aa(lp1092
I234378
aF240.102
aF484.702
aVp1
p1093
aS'utopia'
p1094
aS'#656565'
p1095
aF8.88595
aI0
aI00
aI00
aI00
aI00
aI00
aI00
aI00
aI00
aa(lp1096
I234378
aF269.8244888888889
aF484.702
ag1093
aS'utopia'
p1097
aS'#656565'
p1098
aF8.88595
aI0
aI00
aI00
aI00
aI00
aI00
aI00
aI00
aI00
aa(lp1099
I234378
aF275.646
aF484.702
aVp1
p1100
aS'utopia'
p1101
aS'#656565'
p1102
aF8.88595
aI0
aI00
aI00
aI00
aI00
aI00
aI00
aI00
aI00
aa(lp1103
I85218
aF320.816
aF484.702
aVp1
p1104
aS'utopia'
p1105
aS'#656565'
p1106
aF8.88595
aI0
aI00
aI00
aI00
aI00
aI00
aI00
aI00
aI00
aa(lp1107
I68032
aF337.847
aF484.702
aVp1
p1108
aS'utopia'
p1109
aS'#656565'
p1110
aF8.88595
aI0
aI00
aI00
aI00
aI00
aI00
aI00
aI00
aI00
aa(lp1111
I234378
aF391.903
aF484.702
aVp1
p1112
aS'utopia'
p1113
aS'#656565'
p1114
aF8.88595
aI0
aI00
aI00
aI00
aI00
aI00
aI00
aI00
aI00
aa(lp1115
I89480
aF432.631
aF484.702
aVp1
p1116
aS'utopia'
p1117
aS'#656565'
p1118
aF8.88595
aI0
aI00
aI00
aI00
aI00
aI00
aI00
aI00
aI00
aa(lp1119
I187196
aF442.998
aF484.702
aVp1
p1120
aS'utopia'
p1121
aS'#656565'
p1122
aF8.88595
aI0
aI00
aI00
aI00
aI00
aI00
aI00
aI00
aI00
aa(lp1123
I175989
aF471.877
aF484.702
aVp1
p1124
aS'utopia'
p1125
aS'#656565'
p1126
aF8.88595
aI0
aI00
aI00
aI00
aI00
aI00
aI00
aI00
aI00
aa(lp1127
I41890
aF489.649
aF484.702
aVp1
p1128
aS'utopia'
p1129
aS'#656565'
p1130
aF8.88595
aI0
aI00
aI00
aI00
aI00
aI00
aI00
aI00
aI00
aa(lp1131
I234378
aF500.756
aF484.702
aVp1
p1132
aS'utopia'
p1133
aS'#656565'
p1134
aF8.88595
aI0
aI00
aI00
aI00
aI00
aI00
aI00
aI00
aI00
aa(lp1135
I84932
aF538.522
aF484.702
aVp1
p1136
aS'utopia'
p1137
aS'#656565'
p1138
aF8.88595
aI0
aI00
aI00
aI00
aI00
aI00
aI00
aI00
aI00
aa(lp1139
I234378
aF40.9084
aF495.069
aVp1
p1140
aS'utopia'
p1141
aS'#656565'
p1142
aF8.88595
aI0
aI00
aI00
aI00
aI00
aI00
aI00
aI00
aI00
aa(lp1143
I210945
aF79.4142
aF495.069
aVp1
p1144
aS'utopia'
p1145
aS'#656565'
p1146
aF8.88595
aI0
aI00
aI00
aI00
aI00
aI00
aI00
aI00
aI00
aa(lp1147
I189611
aF106.072
aF495.069
aVp1
p1148
aS'utopia'
p1149
aS'#656565'
p1150
aF8.88595
aI0
aI00
aI00
aI00
aI00
aI00
aI00
aI00
aI00
aa(lp1151
I234378
aF134.951
aF495.069
aVp1
p1152
aS'utopia'
p1153
aS'#656565'
p1154
aF8.88595
aI0
aI00
aI00
aI00
aI00
aI00
aI00
aI00
aI00
aa(lp1155
I85218
aF172.717
aF495.069
aVp1
p1156
aS'utopia'
p1157
aS'#656565'
p1158
aF8.88595
aI0
aI00
aI00
aI00
aI00
aI00
aI00
aI00
aI00
aa(lp1159
I234378
aF189.748
aF495.069
aVp1
p1160
aS'utopia'
p1161
aS'#656565'
p1162
aF8.88595
aI0
aI00
aI00
aI00
aI00
aI00
aI00
aI00
aI00
aa(lp1163
I198478
aF232.697
aF495.069
aVp1
p1164
aS'utopia'
p1165
aS'#656565'
p1166
aF8.88595
aI0
aI00
aI00
aI00
aI00
aI00
aI00
aI00
aI00
aa(lp1167
I18050
aF253.431
aF495.069
aVp1
p1168
aS'utopia'
p1169
aS'#656565'
p1170
aF8.88595
aI0
aI00
aI00
aI00
aI00
aI00
aI00
aI00
aI00
aa(lp1171
I234378
aF286.753
aF495.069
aVp1
p1172
aS'utopia'
p1173
aS'#656565'
p1174
aF8.88595
aI0
aI00
aI00
aI00
aI00
aI00
aI00
aI00
aI00
aa(lp1175
I234378
aF301.563
aF495.069
aVp1
p1176
aS'utopia'
p1177
aS'#656565'
p1178
aF8.88595
aI0
aI01
aI00
aI00
aI00
aI00
aI00
aI00
aI00
aa(lp1179
I21071
aF342.29
aF495.069
aVp1
p1180
aS'utopia'
p1181
aS'#656565'
p1182
aF8.88595
aI0
aI00
aI00
aI00
aI00
aI00
aI00
aI00
aI00
aa(lp1183
I85218
aF365.986
aF495.069
aVp1
p1184
aS'utopia'
p1185
aS'#656565'
p1186
aF8.88595
aI0
aI00
aI00
aI00
aI00
aI00
aI00
aI00
aI00
aa(lp1187
I125359
aF383.018
aF495.069
aVp1
p1188
aS'utopia'
p1189
aS'#656565'
p1190
aF8.88595
aI0
aI00
aI00
aI00
aI00
aI00
aI00
aI00
aI00
aa(lp1191
I234378
aF413.378
aF495.069
aVp1
p1192
aS'utopia'
p1193
aS'#656565'
p1194
aF8.88595
aI0
aI00
aI00
aI00
aI00
aI00
aI00
aI00
aI00
aa(lp1195
I234378
aF452.624
aF495.069
aVp1
p1196
aS'utopia'
p1197
aS'#656565'
p1198
aF8.88595
aI0
aI00
aI00
aI00
aI00
aI00
aI00
aI00
aI00
aa(lp1199
I135639
aF475.579
aF495.069
aVp1
p1200
aS'utopia'
p1201
aS'#656565'
p1202
aF8.88595
aI0
aI00
aI00
aI00
aI00
aI00
aI00
aI00
aI00
aa(lp1203
I85663
aF485.30205
aF495.069
ag1200
aS'utopia'
p1204
aS'#656565'
p1205
aF8.88595
aI0
aI00
aI00
aI00
aI00
aI00
aI00
aI00
aI00
aa(lp1206
I234378
aF512.604
aF495.069
aVp1
p1207
aS'utopia'
p1208
aS'#656565'
p1209
aF8.88595
aI0
aI00
aI00
aI00
aI00
aI00
aI00
aI00
aI00
aa(lp1210
I234378
aF530.5955833333334
aF495.069
ag1207
aS'utopia'
p1211
aS'#656565'
p1212
aF8.88595
aI0
aI00
aI00
aI00
aI00
aI00
aI00
aI00
aI00
aa(lp1213
I234378
aF536.3
aF495.069
aVp1
p1214
aS'utopia'
p1215
aS'#656565'
p1216
aF8.88595
aI0
aI00
aI00
aI00
aI00
aI00
aI00
aI00
aI00
aa(lp1217
I40140
aF40.9084
aF505.436
aVp1
p1218
aS'utopia'
p1219
aS'#656565'
p1220
aF8.88595
aI0
aI01
aI00
aI00
aI00
aI00
aI00
aI00
aI00
aa(lp1221
I101433
aF72.7498
aF505.436
aVp1
p1222
aS'utopia'
p1223
aS'#656565'
p1224
aF8.88595
aI0
aI00
aI00
aI00
aI00
aI00
aI00
aI00
aI00
aa(lp1225
I234378
aF98.6671
aF505.436
aVp1
p1226
aS'utopia'
p1227
aS'#656565'
p1228
aF8.88595
aI0
aI00
aI00
aI00
aI00
aI00
aI00
aI00
aI00
aa(lp1229
I234378
aF139.8360090909091
aF505.436
ag1226
aS'utopia'
p1230
aS'#656565'
p1231
aF8.88595
aI0
aI00
aI00
aI00
aI00
aI00
aI00
aI00
aI00
aa(lp1232
I234378
aF146.059
aF505.436
aVp1
p1233
aS'utopia'
p1234
aS'#656565'
p1235
aF8.88595
aI0
aI00
aI00
aI00
aI00
aI00
aI00
aI00
aI00
aa(lp1236
I234378
aF160.869
aF505.436
aVp1
p1237
aS'utopia'
p1238
aS'#656565'
p1239
aF8.88595
aI0
aI01
aI00
aI00
aI00
aI00
aI00
aI00
aI00
aa(lp1240
I234378
aF201.596
aF505.436
aVp1
p1241
aS'utopia'
p1242
aS'#656565'
p1243
aF8.88595
aI0
aI00
aI00
aI01
aI01
aI00
aI00
aI00
aI00
aa(lp1244
I234378
aF208.26
aF505.436
aVp1
p1245
aS'utopia'
p1246
aS'#656565'
p1247
aF8.88595
aI0
aI00
aI00
aI00
aI00
aI00
aI00
aI00
aI00
aa(lp1248
I192651
aF248.988
aF505.436
aVp1
p1249
aS'utopia'
p1250
aS'#656565'
p1251
aF8.88595
aI0
aI00
aI00
aI00
aI00
aI00
aI00
aI00
aI00
aa(lp1252
I234378
aF260.836
aF505.436
aVp1
p1253
aS'utopia'
p1254
aS'#656565'
p1255
aF8.88595
aI0
aI00
aI00
aI00
aI00
aI00
aI00
aI00
aI00
aa(lp1256
I234378
aF300.822
aF505.436
aVp1
p1257
aS'utopia'
p1258
aS'#656565'
p1259
aF8.88595
aI0
aI00
aI00
aI00
aI00
aI00
aI00
aI00
aI00
aa(lp1260
I89480
aF334.885
aF505.436
aVp1
p1261
aS'utopia'
p1262
aS'#656565'
p1263
aF8.88595
aI0
aI00
aI00
aI00
aI00
aI00
aI00
aI00
aI00
aa(lp1264
I228446
aF345.252
aF505.436
aVp1
p1265
aS'utopia'
p1266
aS'#656565'
p1267
aF8.88595
aI0
aI00
aI00
aI00
aI00
aI00
aI00
aI00
aI00
aa(lp1268
I234378
aF363.70872
aF505.436
ag1265
aS'utopia'
p1269
aS'#656565'
p1270
aF8.88595
aI0
aI00
aI00
aI00
aI00
aI00
aI00
aI00
aI00
aa(lp1271
I234378
aF370.429
aF505.436
aVp1
p1272
aS'utopia'
p1273
aS'#656565'
p1274
aF8.88595
aI0
aI00
aI00
aI00
aI00
aI00
aI00
aI00
aI00
aa(lp1275
I218852
aF411.156
aF505.436
aVp1
p1276
aS'utopia'
p1277
aS'#656565'
p1278
aF8.88595
aI0
aI00
aI00
aI00
aI00
aI00
aI00
aI00
aI00
aa(lp1279
I229300
aF431.89
aF505.436
aVp1
p1280
aS'utopia'
p1281
aS'#656565'
p1282
aF8.88595
aI0
aI00
aI00
aI00
aI00
aI00
aI00
aI00
aI00
aa(lp1283
I234378
aF460.77
aF505.436
aVp1
p1284
aS'utopia'
p1285
aS'#656565'
p1286
aF8.88595
aI0
aI00
aI00
aI00
aI00
aI00
aI00
aI00
aI00
aa(lp1287
I234378
aF498.573
aF505.436
ag1284
aS'utopia'
p1288
aS'#656565'
p1289
aF8.88595
aI0
aI00
aI00
aI00
aI00
aI00
aI00
aI00
aI00
aa(lp1290
I234378
aF504.459
aF505.436
aVp1
p1291
aS'utopia'
p1292
aS'#656565'
p1293
aF8.88595
aI0
aI00
aI00
aI00
aI00
aI00
aI00
aI00
aI00
aa(lp1294
I51933
aF40.9084
aF515.803
aVp1
p1295
aS'utopia'
p1296
aS'#656565'
p1297
aF8.88595
aI0
aI00
aI00
aI00
aI00
aI00
aI00
aI00
aI00
aa(lp1298
I218768
aF63.1233
aF515.803
aVp1
p1299
aS'utopia'
p1300
aS'#656565'
p1301
aF8.88595
aI0
aI00
aI00
aI00
aI00
aI00
aI00
aI00
aI00
aa(lp1302
I234378
aF92.7431
aF515.803
aVp1
p1303
aS'utopia'
p1304
aS'#656565'
p1305
aF8.88595
aI0
aI00
aI00
aI00
aI00
aI00
aI00
aI00
aI00
aa(lp1306
I192651
aF128.287
aF515.803
aVp1
p1307
aS'utopia'
p1308
aS'#656565'
p1309
aF8.88595
aI0
aI00
aI00
aI00
aI00
aI00
aI00
aI00
aI00
aa(lp1310
I123012
aF140.135
aF515.803
aVp1
p1311
aS'utopia'
p1312
aS'#656565'
p1313
aF8.88595
aI0
aI00
aI00
aI00
aI00
aI00
aI00
aI00
aI00
aa(lp1314
I169745
aF168.274
aF515.803
aVp1
p1315
aS'utopia'
p1316
aS'#656565'
p1317
aF8.88595
aI0
aI00
aI00
aI00
aI00
aI00
aI00
aI00
aI00
aa(lp1318
I218852
aF187.527
aF515.803
aVp1
p1319
aS'utopia'
p1320
aS'#656565'
p1321
aF8.88595
aI0
aI00
aI00
aI00
aI00
aI00
aI00
aI00
aI00
aa(lp1322
I234378
aF208.26
aF515.803
aVp1
p1323
aS'utopia'
p1324
aS'#656565'
p1325
aF8.88595
aI0
aI01
aI00
aI00
aI00
aI00
aI00
aI00
aI00
aa(lp1326
I234378
aF222.78629999999998
aF515.803
ag1323
aS'utopia'
p1327
aS'#656565'
p1328
aF8.88595
aI0
aI00
aI00
aI00
aI00
aI00
aI00
aI00
aI00
aa(lp1329
I48671
aF40.9084
aF526.17
aVp1
p1330
aS'utopia'
p1331
aS'#656565'
p1332
aF8.88595
aI0
aI01
aI00
aI00
aI00
aI00
aI00
aI00
aI00
aa(lp1333
I129688
aF69.0473
aF526.17
aVp1
p1334
aS'utopia'
p1335
aS'#656565'
p1336
aF8.88595
aI0
aI01
aI00
aI00
aI00
aI00
aI00
aI00
aI00
aa(lp1337
I234378
aF97.1861
aF526.17
aVp1
p1338
aS'utopia'
p1339
aS'#656565'
p1340
aF8.88595
aI0
aI00
aI00
aI00
aI00
aI00
aI00
aI00
aI00
aa(lp1341
I230771
aF101.629
aF526.17
aVp1
p1342
aS'utopia'
p1343
aS'#656565'
p1344
aF8.88595
aI0
aI01
aI00
aI00
aI00
aI00
aI00
aI00
aI00
aa(lp1345
I48671
aF132.73
aF526.17
aVp1
p1346
aS'utopia'
p1347
aS'#656565'
p1348
aF8.88595
aI0
aI01
aI00
aI00
aI00
aI00
aI00
aI00
aI00
aa(lp1349
I129688
aF160.869
aF526.17
aVp1
p1350
aS'utopia'
p1351
aS'#656565'
p1352
aF8.88595
aI0
aI01
aI00
aI00
aI00
aI00
aI00
aI00
aI00
aa(lp1353
I234378
aF40.9084
aF559.386
aVp1
p1354
aS'utopia'
p1355
aS'#000000'
p1356
aF10.3669
aI1
aI01
aI01
aI00
aI00
aI00
aI00
aI00
aI00
aa(lp1357
I74911
aF61.6423
aF559.386
aVp1
p1358
aS'utopia'
p1359
aS'#000000'
p1360
aF10.3669
aI1
aI01
aI00
aI00
aI00
aI00
aI00
aI00
aI00
aa(lp1361
I234378
aF123.103
aF559.386
aVp1
p1362
aS'utopia'
p1363
aS'#000000'
p1364
aF10.3669
aI1
aI01
aI00
aI00
aI00
aI00
aI00
aI00
aI00
aa(lp1365
I85218
aF163.831
aF559.386
aVp1
p1366
aS'utopia'
p1367
aS'#000000'
p1368
aF10.3669
aI1
aI00
aI00
aI00
aI00
aI00
aI00
aI00
aI00
aa(lp1369
I153177
aF184.565
aF559.386
aVp1
p1370
aS'utopia'
p1371
aS'#000000'
p1372
aF10.3669
aI1
aI01
aI00
aI00
aI00
aI00
aI00
aI00
aI00
aa(lp1373
I234378
aF250.469
aF559.386
aVp1
p1374
aS'utopia'
p1375
aS'#000000'
p1376
aF10.3669
aI1
aI01
aI00
aI00
aI00
aI00
aI00
aI00
aI00
aa(lp1377
I234378
aF311.189
aF559.386
aVp1
p1378
aS'utopia'
p1379
aS'#000000'
p1380
aF10.3669
aI1
aI01
aI00
aI00
aI00
aI00
aI00
aI00
aI00
aa(lp1381
I234378
aF328.961
aF559.386
aVp1
p1382
aS'utopia'
p1383
aS'#000000'
p1384
aF10.3669
aI1
aI01
aI00
aI00
aI00
aI00
aI00
aI00
aI00
aa(lp1385
I175409
aF40.9084
aF575.946
aVp1
p1386
aS'utopia'
p1387
aS'#656565'
p1388
aF10.3669
aI0
aI01
aI00
aI00
aI00
aI00
aI00
aI00
aI00
aa(lp1389
I48604
aF65.3448
aF575.946
aVp1
p1390
aS'utopia'
p1391
aS'#656565'
p1392
aF10.3669
aI0
aI01
aI00
aI00
aI00
aI00
aI00
aI00
aI00
aa(lp1393
I234378
aF106.813
aF575.946
aVp1
p1394
aS'utopia'
p1395
aS'#656565'
p1396
aF10.3669
aI0
aI01
aI00
aI00
aI00
aI00
aI00
aI00
aI01
aa(lp1397
I234378
aF124.584
aF575.946
aVp1
p1398
aS'utopia'
p1399
aS'#656565'
p1400
aF10.3669
aI0
aI00
aI00
aI01
aI01
aI01
aI00
aI00
aI00
aa(lp1401
I89480
aF147.54
aF575.946
aVp1
p1402
aS'utopia'
p1403
aS'#656565'
p1404
aF10.3669
aI0
aI01
aI00
aI00
aI00
aI00
aI00
aI00
aI00
aa(lp1405
I234378
aF162.35
aF575.946
aVp1
p1406
aS'utopia'
p1407
aS'#656565'
p1408
aF10.3669
aI0
aI01
aI00
aI00
aI00
aI00
aI00
aI00
aI01
aa(lp1409
I234378
aF183.084
aF575.946
aVp1
p1410
aS'utopia'
p1411
aS'#656565'
p1412
aF10.3669
aI0
aI00
aI00
aI01
aI01
aI01
aI00
aI00
aI00
aa(lp1413
I85582
aF46.8324
aF595.777
aVp1
p1414
aS'utopia'
p1415
aS'#656565'
p1416
aF8.88595
aI0
aI01
aI00
aI00
aI00
aI00
aI00
aI00
aI00
aa(lp1417
I149270
aF84.5977
aF595.777
aVp1
p1418
aS'utopia'
p1419
aS'#656565'
p1420
aF8.88595
aI0
aI00
aI00
aI00
aI00
aI00
aI00
aI00
aI00
aa(lp1421
I209804
aF122.363
aF595.777
aVp1
p1422
aS'utopia'
p1423
aS'#656565'
p1424
aF8.88595
aI0
aI00
aI00
aI00
aI00
aI00
aI00
aI00
aI00
aa(lp1425
I89480
aF165.312
aF595.777
aVp1
p1426
aS'utopia'
p1427
aS'#656565'
p1428
aF8.88595
aI0
aI00
aI00
aI00
aI00
aI00
aI00
aI00
aI00
aa(lp1429
I234378
aF175.679
aF595.777
aVp1
p1430
aS'utopia'
p1431
aS'#656565'
p1432
aF8.88595
aI0
aI00
aI00
aI00
aI00
aI00
aI00
aI00
aI00
aa(lp1433
I184870
aF220.849
aF595.777
aVp1
p1434
aS'utopia'
p1435
aS'#656565'
p1436
aF8.88595
aI0
aI00
aI00
aI00
aI00
aI00
aI00
aI00
aI00
aa(lp1437
I222122
aF254.912
aF595.777
aVp1
p1438
aS'utopia'
p1439
aS'#656565'
p1440
aF8.88595
aI0
aI00
aI00
aI00
aI00
aI00
aI00
aI00
aI00
aa(lp1441
I84132
aF303.784
aF595.777
aVp1
p1442
aS'utopia'
p1443
aS'#656565'
p1444
aF8.88595
aI0
aI00
aI00
aI00
aI00
aI00
aI00
aI00
aI00
aa(lp1445
I234378
aF337.4558222222222
aF595.777
ag1442
aS'utopia'
p1446
aS'#656565'
p1447
aF8.88595
aI0
aI00
aI00
aI00
aI00
aI00
aI00
aI00
aI00
aa(lp1448
I234378
aF343.771
aF595.777
aVp1
p1449
aS'utopia'
p1450
aS'#656565'
p1451
aF8.88595
aI0
aI00
aI00
aI00
aI00
aI00
aI00
aI00
aI00
aa(lp1452
I85218
aF387.46
aF595.777
aVp1
p1453
aS'utopia'
p1454
aS'#656565'
p1455
aF8.88595
aI0
aI00
aI00
aI00
aI00
aI00
aI00
aI00
aI00
aa(lp1456
I12448
aF404.492
aF595.777
aVp1
p1457
aS'utopia'
p1458
aS'#656565'
p1459
aF8.88595
aI0
aI00
aI00
aI00
aI00
aI00
aI00
aI00
aI00
aa(lp1460
I85218
aF442.257
aF595.777
aVp1
p1461
aS'utopia'
p1462
aS'#656565'
p1463
aF8.88595
aI0
aI00
aI00
aI00
aI00
aI00
aI00
aI00
aI00
aa(lp1464
I133174
aF459.289
aF595.777
aVp1
p1465
aS'utopia'
p1466
aS'#656565'
p1467
aF8.88595
aI0
aI00
aI00
aI00
aI00
aI00
aI00
aI00
aI00
aa(lp1468
I60201
aF477.801
aF595.777
aVp1
p1469
aS'utopia'
p1470
aS'#656565'
p1471
aF8.88595
aI0
aI00
aI00
aI00
aI00
aI00
aI00
aI00
aI00
aa(lp1472
I214011
aF492.611
aF595.777
aVp1
p1473
aS'utopia'
p1474
aS'#656565'
p1475
aF8.88595
aI0
aI00
aI00
aI00
aI00
aI00
aI00
aI00
aI00
aa(lp1476
I190806
aF40.9084
aF606.144
aVp1
p1477
aS'utopia'
p1478
aS'#656565'
p1479
aF8.88595
aI0
aI00
aI00
aI00
aI00
aI00
aI00
aI00
aI00
aa(lp1480
I194354
aF54.9779
aF606.144
aVp1
p1481
aS'utopia'
p1482
aS'#656565'
p1483
aF8.88595
aI0
aI00
aI00
aI00
aI00
aI00
aI00
aI00
aI00
aa(lp1484
I43052
aF69.7878
aF606.144
aVp1
p1485
aS'utopia'
p1486
aS'#656565'
p1487
aF8.88595
aI0
aI00
aI00
aI00
aI00
aI00
aI00
aI00
aI00
aa(lp1488
I234378
aF115.699
aF606.144
aVp1
p1489
aS'utopia'
p1490
aS'#656565'
p1491
aF8.88595
aI0
aI00
aI00
aI00
aI00
aI00
aI00
aI00
aI00
aa(lp1492
I85218
aF154.204
aF606.144
aVp1
p1493
aS'utopia'
p1494
aS'#656565'
p1495
aF8.88595
aI0
aI00
aI00
aI00
aI00
aI00
aI00
aI00
aI00
aa(lp1496
I234378
aF171.236
aF606.144
aVp1
p1497
aS'utopia'
p1498
aS'#656565'
p1499
aF8.88595
aI0
aI00
aI00
aI00
aI00
aI00
aI00
aI00
aI00
aa(lp1500
I234378
aF209.99387
aF606.144
ag1497
aS'utopia'
p1501
aS'#656565'
p1502
aF8.88595
aI0
aI00
aI00
aI00
aI00
aI00
aI00
aI00
aI00
aa(lp1503
I234378
aF222.33
aF606.144
aVp1
p1504
aS'utopia'
p1505
aS'#656565'
p1506
aF8.88595
aI0
aI01
aI00
aI00
aI00
aI00
aI00
aI00
aI00
aa(lp1507
I166245
aF263.057
aF606.144
aVp1
p1508
aS'utopia'
p1509
aS'#656565'
p1510
aF8.88595
aI0
aI00
aI00
aI00
aI00
aI00
aI00
aI00
aI00
aa(lp1511
I234378
aF298.601
aF606.144
aVp1
p1512
aS'utopia'
p1513
aS'#656565'
p1514
aF8.88595
aI0
aI00
aI00
aI00
aI00
aI00
aI00
aI00
aI00
aa(lp1515
I89480
aF354.138
aF606.144
aVp1
p1516
aS'utopia'
p1517
aS'#656565'
p1518
aF8.88595
aI0
aI00
aI00
aI00
aI00
aI00
aI00
aI00
aI00
aa(lp1519
I232373
aF364.505
aF606.144
aVp1
p1520
aS'utopia'
p1521
aS'#656565'
p1522
aF8.88595
aI0
aI00
aI00
aI00
aI00
aI00
aI00
aI00
aI00
aa(lp1523
I194354
aF407.454
aF606.144
aVp1
p1524
aS'utopia'
p1525
aS'#656565'
p1526
aF8.88595
aI0
aI00
aI00
aI00
aI00
aI00
aI00
aI00
aI00
aa(lp1527
I214224
aF422.264
aF606.144
aVp1
p1528
aS'utopia'
p1529
aS'#656565'
p1530
aF8.88595
aI0
aI00
aI00
aI00
aI00
aI00
aI00
aI00
aI00
aa(lp1531
I222122
aF444.479
aF606.144
aVp1
p1532
aS'utopia'
p1533
aS'#656565'
p1534
aF8.88595
aI0
aI00
aI00
aI00
aI00
aI00
aI00
aI00
aI00
aa(lp1535
I149270
aF493.351
aF606.144
aVp1
p1536
aS'utopia'
p1537
aS'#656565'
p1538
aF8.88595
aI0
aI00
aI00
aI00
aI00
aI00
aI00
aI00
aI00
aa(lp1539
I154254
aF40.9084
aF616.511
aVp1
p1540
aS'utopia'
p1541
aS'#656565'
p1542
aF8.88595
aI0
aI00
aI00
aI00
aI00
aI00
aI00
aI00
aI00
aa(lp1543
I85218
aF91.2621
aF616.511
aVp1
p1544
aS'utopia'
p1545
aS'#656565'
p1546
aF8.88595
aI0
aI00
aI00
aI00
aI00
aI00
aI00
aI00
aI00
aa(lp1547
I144690
aF108.294
aF616.511
aVp1
p1548
aS'utopia'
p1549
aS'#656565'
p1550
aF8.88595
aI0
aI00
aI00
aI00
aI00
aI00
aI00
aI00
aI00
aa(lp1551
I234378
aF135.692
aF616.511
aVp1
p1552
aS'utopia'
p1553
aS'#656565'
p1554
aF8.88595
aI0
aI00
aI00
aI00
aI00
aI00
aI00
aI00
aI00
aa(lp1555
I234378
aF166.73093333333333
aF616.511
ag1552
aS'utopia'
p1556
aS'#656565'
p1557
aF8.88595
aI0
aI00
aI00
aI00
aI00
aI00
aI00
aI00
aI00
aa(lp1558
I234378
aF178.641
aF616.511
aVp1
p1559
aS'utopia'
p1560
aS'#656565'
p1561
aF8.88595
aI0
aI01
aI00
aI00
aI00
aI00
aI00
aI00
aI00
aa(lp1562
I203832
aF218.627
aF616.511
aVp1
p1563
aS'utopia'
p1564
aS'#656565'
p1565
aF8.88595
aI0
aI00
aI00
aI00
aI00
aI00
aI00
aI00
aI00
aa(lp1566
I234378
aF234.178
aF616.511
aVp1
p1567
aS'utopia'
p1568
aS'#656565'
p1569
aF8.88595
aI0
aI00
aI00
aI00
aI00
aI00
aI00
aI00
aI00
aa(lp1570
I234378
aF253.40375
aF616.511
ag1567
aS'utopia'
p1571
aS'#656565'
p1572
aF8.88595
aI0
aI00
aI00
aI00
aI00
aI00
aI00
aI00
aI00
aa(lp1573
I154254
aF259.355
aF616.511
aVp1
p1574
aS'utopia'
p1575
aS'#656565'
p1576
aF8.88595
aI0
aI00
aI00
aI00
aI00
aI00
aI00
aI00
aI00
aa(lp1577
I85218
aF309.708
aF616.511
aVp1
p1578
aS'utopia'
p1579
aS'#656565'
p1580
aF8.88595
aI0
aI00
aI00
aI00
aI00
aI00
aI00
aI00
aI00
aa(lp1581
I125458
aF326.74
aF616.511
aVp1
p1582
aS'utopia'
p1583
aS'#656565'
p1584
aF8.88595
aI0
aI00
aI00
aI00
aI00
aI00
aI00
aI00
aI00
aa(lp1585
I144483
aF358.581
aF616.511
aVp1
p1586
aS'utopia'
p1587
aS'#656565'
p1588
aF8.88595
aI0
aI00
aI00
aI00
aI00
aI00
aI00
aI00
aI00
aa(lp1589
I134763
aF371.17
aF616.511
aVp1
p1590
aS'utopia'
p1591
aS'#656565'
p1592
aF8.88595
aI0
aI00
aI00
aI00
aI00
aI00
aI00
aI00
aI00
aa(lp1593
I70210
aF387.66828000000004
aF616.511
ag1590
aS'utopia'
p1594
aS'#656565'
p1595
aF8.88595
aI0
aI00
aI00
aI00
aI00
aI00
aI00
aI00
aI00
aa(lp1596
I144690
aF411.897
aF616.511
aVp1
p1597
aS'utopia'
p1598
aS'#656565'
p1599
aF8.88595
aI0
aI00
aI00
aI00
aI00
aI00
aI00
aI00
aI00
aa(lp1600
I234378
aF439.295
aF616.511
aVp1
p1601
aS'utopia'
p1602
aS'#656565'
p1603
aF8.88595
aI0
aI00
aI00
aI00
aI00
aI00
aI00
aI00
aI00
aa(lp1604
I234378
aF444.35466
aF616.511
ag1601
aS'utopia'
p1605
aS'#656565'
p1606
aF8.88595
aI0
aI01
aI01
aI00
aI00
aI00
aI00
aI00
aI00
aa(lp1607
I234378
aF459.53364000000005
aF616.511
ag1601
aS'utopia'
p1608
aS'#656565'
p1609
aF8.88595
aI0
aI00
aI00
aI00
aI00
aI00
aI00
aI00
aI00
aa(lp1610
I85218
aF466.694
aF616.511
aVp1
p1611
aS'utopia'
p1612
aS'#656565'
p1613
aF8.88595
aI0
aI00
aI00
aI00
aI00
aI00
aI00
aI00
aI00
aa(lp1614
I92982
aF483.725
aF616.511
aVp1
p1615
aS'utopia'
p1616
aS'#656565'
p1617
aF8.88595
aI0
aI00
aI00
aI00
aI00
aI00
aI00
aI00
aI00
aa(lp1618
I70210
aF500.016
aF616.511
aVp1
p1619
aS'utopia'
p1620
aS'#656565'
p1621
aF8.88595
aI0
aI00
aI00
aI00
aI00
aI00
aI00
aI00
aI00
aa(lp1622
I144690
aF40.9084
aF626.878
aVp1
p1623
aS'utopia'
p1624
aS'#656565'
p1625
aF8.88595
aI0
aI00
aI00
aI00
aI00
aI00
aI00
aI00
aI00
aa(lp1626
I234378
aF66.143
aF626.878
ag1623
aS'utopia'
p1627
aS'#656565'
p1628
aF8.88595
aI0
aI00
aI00
aI00
aI00
aI00
aI00
aI00
aI00
aa(lp1629
I234378
aF70.34876666666666
aF626.878
ag1623
aS'utopia'
p1630
aS'#656565'
p1631
aF8.88595
aI0
aI01
aI01
aI00
aI00
aI00
aI00
aI00
aI00
aa(lp1632
I234378
aF82.96606666666666
aF626.878
ag1623
aS'utopia'
p1633
aS'#656565'
p1634
aF8.88595
aI0
aI00
aI00
aI00
aI00
aI00
aI00
aI00
aI00
aa(lp1635
I234378
aF87.17183333333332
aF626.878
ag1623
aS'utopia'
p1636
aS'#656565'
p1637
aF8.88595
aI0
aI00
aI00
aI00
aI00
aI00
aI00
aI00
aI00
aa(lp1638
I111798
aF93.4836
aF626.878
aVp1
p1639
aS'utopia'
p1640
aS'#656565'
p1641
aF8.88595
aI0
aI01
aI00
aI00
aI00
aI00
aI00
aI00
aI00
aa(lp1642
I166245
aF154.204
aF626.878
aVp1
p1643
aS'utopia'
p1644
aS'#656565'
p1645
aF8.88595
aI0
aI00
aI00
aI00
aI00
aI00
aI00
aI00
aI00
aa(lp1646
I101151
aF189.748
aF626.878
aVp1
p1647
aS'utopia'
p1648
aS'#656565'
p1649
aF8.88595
aI0
aI00
aI00
aI00
aI00
aI00
aI00
aI00
aI00
aa(lp1650
I85218
aF221.589
aF626.878
aVp1
p1651
aS'utopia'
p1652
aS'#656565'
p1653
aF8.88595
aI0
aI00
aI00
aI00
aI00
aI00
aI00
aI00
aI00
aa(lp1654
I234378
aF238.621
aF626.878
aVp1
p1655
aS'utopia'
p1656
aS'#656565'
p1657
aF8.88595
aI0
aI00
aI00
aI00
aI00
aI00
aI00
aI00
aI00
aa(lp1658
I10865
aF276.386
aF626.878
aVp1
p1659
aS'utopia'
p1660
aS'#656565'
p1661
aF8.88595
aI0
aI00
aI00
aI00
aI00
aI00
aI00
aI00
aI00
aa(lp1662
I144690
aF300.082
aF626.878
aVp1
p1663
aS'utopia'
p1664
aS'#656565'
p1665
aF8.88595
aI0
aI00
aI00
aI00
aI00
aI00
aI00
aI00
aI00
aa(lp1666
I234378
aF323.66534285714283
aF626.878
ag1663
aS'utopia'
p1667
aS'#656565'
p1668
aF8.88595
aI0
aI00
aI00
aI00
aI00
aI00
aI00
aI00
aI00
aa(lp1669
I234378
aF335.626
aF626.878
aVp1
p1670
aS'utopia'
p1671
aS'#656565'
p1672
aF8.88595
aI0
aI01
aI00
aI00
aI00
aI00
aI00
aI00
aI00
aa(lp1673
I85218
aF365.986
aF626.878
aVp1
p1674
aS'utopia'
p1675
aS'#656565'
p1676
aF8.88595
aI0
aI00
aI00
aI00
aI00
aI00
aI00
aI00
aI00
aa(lp1677
I112275
aF383.018
aF626.878
aVp1
p1678
aS'utopia'
p1679
aS'#656565'
p1680
aF8.88595
aI0
aI01
aI00
aI00
aI00
aI00
aI00
aI00
aI00
aa(lp1681
I125078
aF402.27
aF626.878
aVp1
p1682
aS'utopia'
p1683
aS'#656565'
p1684
aF8.88595
aI0
aI00
aI00
aI00
aI00
aI00
aI00
aI00
aI00
aa(lp1685
I234378
aF426.9926
aF626.878
ag1682
aS'utopia'
p1686
aS'#656565'
p1687
aF8.88595
aI0
aI00
aI00
aI00
aI00
aI00
aI00
aI00
aI00
aa(lp1688
I85582
aF438.555
aF626.878
aVp1
p1689
aS'utopia'
p1690
aS'#656565'
p1691
aF8.88595
aI0
aI01
aI00
aI00
aI00
aI00
aI00
aI00
aI00
aa(lp1692
I147316
aF476.32
aF626.878
aVp1
p1693
aS'utopia'
p1694
aS'#656565'
p1695
aF8.88595
aI0
aI00
aI00
aI00
aI00
aI00
aI00
aI00
aI00
aa(lp1696
I89480
aF509.642
aF626.878
aVp1
p1697
aS'utopia'
p1698
aS'#656565'
p1699
aF8.88595
aI0
aI00
aI00
aI00
aI00
aI00
aI00
aI00
aI00
aa(lp1700
I234378
aF520.009
aF626.878
aVp1
p1701
aS'utopia'
p1702
aS'#656565'
p1703
aF8.88595
aI0
aI01
aI01
aI00
aI00
aI00
aI00
aI00
aI00
aa(lp1704
I210461
aF40.9084
aF637.245
aVp1
p1705
aS'utopia'
p1706
aS'#656565'
p1707
aF8.88595
aI0
aI00
aI00
aI00
aI00
aI00
aI00
aI00
aI00
aa(lp1708
I36403
aF63.1233
aF637.245
aVp1
p1709
aS'utopia'
p1710
aS'#656565'
p1711
aF8.88595
aI0
aI00
aI00
aI00
aI00
aI00
aI00
aI00
aI00
aa(lp1712
I177958
aF74.9712
aF637.245
aVp1
p1713
aS'utopia'
p1714
aS'#656565'
p1715
aF8.88595
aI0
aI00
aI00
aI00
aI00
aI00
aI00
aI00
aI00
aa(lp1716
I221291
aF105.332
aF637.245
aVp1
p1717
aS'utopia'
p1718
aS'#656565'
p1719
aF8.88595
aI0
aI00
aI00
aI00
aI00
aI00
aI00
aI00
aI00
aa(lp1720
I22474
aF126.806
aF637.245
aVp1
p1721
aS'utopia'
p1722
aS'#656565'
p1723
aF8.88595
aI0
aI00
aI00
aI00
aI00
aI00
aI00
aI00
aI00
aa(lp1724
I234378
aF134.951
aF637.245
aVp1
p1725
aS'utopia'
p1726
aS'#656565'
p1727
aF8.88595
aI0
aI00
aI00
aI00
aI00
aI00
aI00
aI00
aI00
aa(lp1728
I135639
aF169.755
aF637.245
aVp1
p1729
aS'utopia'
p1730
aS'#656565'
p1731
aF8.88595
aI0
aI00
aI00
aI00
aI00
aI00
aI00
aI00
aI00
aa(lp1732
I3878
aF179.381
aF637.245
aVp1
p1733
aS'utopia'
p1734
aS'#656565'
p1735
aF8.88595
aI0
aI00
aI00
aI00
aI00
aI00
aI00
aI00
aI00
aa(lp1736
I234378
aF221.89627272727273
aF637.245
ag1733
aS'utopia'
p1737
aS'#656565'
p1738
aF8.88595
aI0
aI00
aI00
aI00
aI00
aI00
aI00
aI00
aI00
aa(lp1739
I234378
aF234.178
aF637.245
aVp1
p1740
aS'utopia'
p1741
aS'#656565'
p1742
aF8.88595
aI0
aI01
aI00
aI00
aI00
aI00
aI00
aI00
aI00
aa(lp1743
I3878
aF299.341
aF637.245
aVp1
p1744
aS'utopia'
p1745
aS'#656565'
p1746
aF8.88595
aI0
aI00
aI00
aI00
aI00
aI00
aI00
aI00
aI00
aa(lp1747
I234378
aF345.993
aF637.245
aVp1
p1748
aS'utopia'
p1749
aS'#656565'
p1750
aF8.88595
aI0
aI00
aI00
aI00
aI00
aI00
aI00
aI00
aI00
aa(lp1751
I234378
aF377.094
aF637.245
aVp1
p1752
aS'utopia'
p1753
aS'#656565'
p1754
aF8.88595
aI0
aI01
aI00
aI00
aI00
aI00
aI00
aI00
aI00
aa(lp1755
I149270
aF417.08
aF637.245
aVp1
p1756
aS'utopia'
p1757
aS'#656565'
p1758
aF8.88595
aI0
aI00
aI00
aI00
aI00
aI00
aI00
aI00
aI00
aa(lp1759
I144690
aF454.846
aF637.245
aVp1
p1760
aS'utopia'
p1761
aS'#656565'
p1762
aF8.88595
aI0
aI00
aI00
aI00
aI00
aI00
aI00
aI00
aI00
aa(lp1763
I85218
aF482.244
aF637.245
aVp1
p1764
aS'utopia'
p1765
aS'#656565'
p1766
aF8.88595
aI0
aI00
aI00
aI00
aI00
aI00
aI00
aI00
aI00
aa(lp1767
I221291
aF499.275
aF637.245
aVp1
p1768
aS'utopia'
p1769
aS'#656565'
p1770
aF8.88595
aI0
aI00
aI00
aI00
aI00
aI00
aI00
aI00
aI00
aa(lp1771
I234378
aF516.54692
aF637.245
ag1768
aS'utopia'
p1772
aS'#656565'
p1773
aF8.88595
aI0
aI00
aI00
aI00
aI00
aI00
aI00
aI00
aI00
aa(lp1774
I234378
aF40.9084
aF647.611
aVp1
p1775
aS'utopia'
p1776
aS'#656565'
p1777
aF8.88595
aI0
aI01
aI00
aI00
aI00
aI00
aI00
aI00
aI00
aa(lp1778
I21071
aF81.6357
aF647.611
aVp1
p1779
aS'utopia'
p1780
aS'#656565'
p1781
aF8.88595
aI0
aI00
aI00
aI00
aI00
aI00
aI00
aI00
aI00
aa(lp1782
I85218
aF105.332
aF647.611
aVp1
p1783
aS'utopia'
p1784
aS'#656565'
p1785
aF8.88595
aI0
aI00
aI00
aI00
aI00
aI00
aI00
aI00
aI00
aa(lp1786
I125359
aF122.363
aF647.611
aVp1
p1787
aS'utopia'
p1788
aS'#656565'
p1789
aF8.88595
aI0
aI00
aI00
aI00
aI00
aI00
aI00
aI00
aI00
aa(lp1790
I234378
aF152.723
aF647.611
aVp1
p1791
aS'utopia'
p1792
aS'#656565'
p1793
aF8.88595
aI0
aI00
aI00
aI00
aI00
aI00
aI00
aI00
aI00
aa(lp1794
I234378
aF188.14862000000002
aF647.611
ag1791
aS'utopia'
p1795
aS'#656565'
p1796
aF8.88595
aI0
aI00
aI00
aI00
aI00
aI00
aI00
aI00
aI00
aa(lp1797
I234378
aF40.9084
aF680.827
aVp1
p1798
aS'utopia'
p1799
aS'#000000'
p1800
aF10.3669
aI1
aI01
aI01
aI00
aI00
aI00
aI00
aI00
aI00
aa(lp1801
I164802
aF63.8638
aF680.827
aVp1
p1802
aS'utopia'
p1803
aS'#000000'
p1804
aF10.3669
aI1
aI01
aI00
aI00
aI00
aI00
aI00
aI00
aI00
aa(lp1805
I234378
aF91.2621
aF680.827
aVp1
p1806
aS'utopia'
p1807
aS'#000000'
p1808
aF10.3669
aI1
aI01
aI00
aI00
aI00
aI00
aI00
aI00
aI00
aa(lp1809
I234378
aF109.034
aF680.827
aVp1
p1810
aS'utopia'
p1811
aS'#000000'
p1812
aF10.3669
aI1
aI01
aI00
aI00
aI00
aI00
aI00
aI00
aI00
aa(lp1813
I123665
aF40.9084
aF697.388
aVp1
p1814
aS'utopia'
p1815
aS'#656565'
p1816
aF10.3669
aI0
aI01
aI00
aI00
aI00
aI00
aI00
aI00
aI00
aa(lp1817
I100815
aF98.6671
aF697.388
aVp1
p1818
aS'utopia'
p1819
aS'#656565'
p1820
aF10.3669
aI0
aI01
aI00
aI00
aI00
aI00
aI00
aI00
aI00
aa(lp1821
I234378
aF153.464
aF697.388
aVp1
p1822
aS'utopia'
p1823
aS'#656565'
p1824
aF10.3669
aI0
aI01
aI00
aI00
aI00
aI00
aI00
aI00
aI01
aa(lp1825
I234378
aF168.274
aF697.388
aVp1
p1826
aS'utopia'
p1827
aS'#656565'
p1828
aF10.3669
aI0
aI00
aI00
aI01
aI01
aI01
aI00
aI00
aI00
aa(lp1829
I89480
aF191.229
aF697.388
aVp1
p1830
aS'utopia'
p1831
aS'#656565'
p1832
aF10.3669
aI0
aI01
aI00
aI00
aI00
aI00
aI00
aI00
aI00
aa(lp1833
I234378
aF206.039
aF697.388
aVp1
p1834
aS'utopia'
p1835
aS'#656565'
p1836
aF10.3669
aI0
aI01
aI00
aI00
aI00
aI00
aI00
aI00
aI01
aa(lp1837
I234378
aF223.811
aF697.388
aVp1
p1838
aS'utopia'
p1839
aS'#656565'
p1840
aF10.3669
aI0
aI00
aI00
aI01
aI01
aI01
aI00
aI00
aI00
aa(lp1841
I85582
aF46.8324
aF717.218
aVp1
p1842
aS'utopia'
p1843
aS'#656565'
p1844
aF8.88595
aI0
aI01
aI00
aI00
aI00
aI00
aI00
aI00
aI00
aa(lp1845
I149270
aF84.5977
aF717.218
aVp1
p1846
aS'utopia'
p1847
aS'#656565'
p1848
aF8.88595
aI0
aI00
aI00
aI00
aI00
aI00
aI00
aI00
aI00
aa(lp1849
I209804
aF122.363
aF717.218
aVp1
p1850
aS'utopia'
p1851
aS'#656565'
p1852
aF8.88595
aI0
aI00
aI00
aI00
aI00
aI00
aI00
aI00
aI00
aa(lp1853
I89480
aF165.312
aF717.218
aVp1
p1854
aS'utopia'
p1855
aS'#656565'
p1856
aF8.88595
aI0
aI00
aI00
aI00
aI00
aI00
aI00
aI00
aI00
aa(lp1857
I234378
aF175.679
aF717.218
aVp1
p1858
aS'utopia'
p1859
aS'#656565'
p1860
aF8.88595
aI0
aI00
aI00
aI00
aI00
aI00
aI00
aI00
aI00
aa(lp1861
I184870
aF220.849
aF717.218
aVp1
p1862
aS'utopia'
p1863
aS'#656565'
p1864
aF8.88595
aI0
aI00
aI00
aI00
aI00
aI00
aI00
aI00
aI00
aa(lp1865
I222122
aF254.912
aF717.218
aVp1
p1866
aS'utopia'
p1867
aS'#656565'
p1868
aF8.88595
aI0
aI00
aI00
aI00
aI00
aI00
aI00
aI00
aI00
aa(lp1869
I84132
aF303.784
aF717.218
aVp1
p1870
aS'utopia'
p1871
aS'#656565'
p1872
aF8.88595
aI0
aI00
aI00
aI00
aI00
aI00
aI00
aI00
aI00
aa(lp1873
I234378
aF337.4558222222222
aF717.218
ag1870
aS'utopia'
p1874
aS'#656565'
p1875
aF8.88595
aI0
aI00
aI00
aI00
aI00
aI00
aI00
aI00
aI00
aa(lp1876
I234378
aF343.771
aF717.218
aVp1
p1877
aS'utopia'
p1878
aS'#656565'
p1879
aF8.88595
aI0
aI00
aI00
aI00
aI00
aI00
aI00
aI00
aI00
aa(lp1880
I85218
aF387.46
aF717.218
aVp1
p1881
aS'utopia'
p1882
aS'#656565'
p1883
aF8.88595
aI0
aI00
aI00
aI00
aI00
aI00
aI00
aI00
aI00
aa(lp1884
I12448
aF404.492
aF717.218
aVp1
p1885
aS'utopia'
p1886
aS'#656565'
p1887
aF8.88595
aI0
aI00
aI00
aI00
aI00
aI00
aI00
aI00
aI00
aa(lp1888
I85218
aF442.257
aF717.218
aVp1
p1889
aS'utopia'
p1890
aS'#656565'
p1891
aF8.88595
aI0
aI00
aI00
aI00
aI00
aI00
aI00
aI00
aI00
aa(lp1892
I133174
aF459.289
aF717.218
aVp1
p1893
aS'utopia'
p1894
aS'#656565'
p1895
aF8.88595
aI0
aI00
aI00
aI00
aI00
aI00
aI00
aI00
aI00
aa(lp1896
I60201
aF477.801
aF717.218
aVp1
p1897
aS'utopia'
p1898
aS'#656565'
p1899
aF8.88595
aI0
aI00
aI00
aI00
aI00
aI00
aI00
aI00
aI00
aa(lp1900
I214011
aF492.611
aF717.218
aVp1
p1901
aS'utopia'
p1902
aS'#656565'
p1903
aF8.88595
aI0
aI00
aI00
aI00
aI00
aI00
aI00
aI00
aI00
aa(lp1904
I190806
aF40.9084
aF727.585
aVp1
p1905
aS'utopia'
p1906
aS'#656565'
p1907
aF8.88595
aI0
aI00
aI00
aI00
aI00
aI00
aI00
aI00
aI00
aa(lp1908
I194354
aF54.9779
aF727.585
aVp1
p1909
aS'utopia'
p1910
aS'#656565'
p1911
aF8.88595
aI0
aI00
aI00
aI00
aI00
aI00
aI00
aI00
aI00
aa(lp1912
I43052
aF69.7878
aF727.585
aVp1
p1913
aS'utopia'
p1914
aS'#656565'
p1915
aF8.88595
aI0
aI00
aI00
aI00
aI00
aI00
aI00
aI00
aI00
aa(lp1916
I234378
aF115.699
aF727.585
aVp1
p1917
aS'utopia'
p1918
aS'#656565'
p1919
aF8.88595
aI0
aI00
aI00
aI00
aI00
aI00
aI00
aI00
aI00
aa(lp1920
I85218
aF154.204
aF727.585
aVp1
p1921
aS'utopia'
p1922
aS'#656565'
p1923
aF8.88595
aI0
aI00
aI00
aI00
aI00
aI00
aI00
aI00
aI00
aa(lp1924
I234378
aF171.236
aF727.585
aVp1
p1925
aS'utopia'
p1926
aS'#656565'
p1927
aF8.88595
aI0
aI00
aI00
aI00
aI00
aI00
aI00
aI00
aI00
aa(lp1928
I234378
aF209.99387
aF727.585
ag1925
aS'utopia'
p1929
aS'#656565'
p1930
aF8.88595
aI0
aI00
aI00
aI00
aI00
aI00
aI00
aI00
aI00
aa(lp1931
I97764
aF222.33
aF727.585
aVp1
p1932
aS'utopia'
p1933
aS'#656565'
p1934
aF8.88595
aI0
aI01
aI00
aI00
aI00
aI00
aI00
aI00
aI00
aa(lp1935
I234378
aF260.836
aF727.585
aVp1
p1936
aS'utopia'
p1937
aS'#656565'
p1938
aF8.88595
aI0
aI01
aI01
aI00
aI00
aI00
aI00
aI00
aI00
aa(lp1939
I85218
aF282.31
aF727.585
aVp1
p1940
aS'utopia'
p1941
aS'#656565'
p1942
aF8.88595
aI0
aI00
aI00
aI00
aI00
aI00
aI00
aI00
aI00
aa(lp1943
I234378
aF299.341
aF727.585
aVp1
p1944
aS'utopia'
p1945
aS'#656565'
p1946
aF8.88595
aI0
aI01
aI01
aI00
aI00
aI00
aI00
aI00
aI00
aa(lp1947
I234378
aF324.518
aF727.585
aVp1
p1948
aS'utopia'
p1949
aS'#656565'
p1950
aF8.88595
aI0
aI01
aI00
aI00
aI00
aI00
aI00
aI00
aI00
aa(lp1951
I85218
aF354.879
aF727.585
aVp1
p1952
aS'utopia'
p1953
aS'#656565'
p1954
aF8.88595
aI0
aI00
aI00
aI00
aI00
aI00
aI00
aI00
aI00
aa(lp1955
I112275
aF371.91
aF727.585
aVp1
p1956
aS'utopia'
p1957
aS'#656565'
p1958
aF8.88595
aI0
aI01
aI00
aI00
aI00
aI00
aI00
aI00
aI00
aa(lp1959
I125078
aF391.163
aF727.585
aVp1
p1960
aS'utopia'
p1961
aS'#656565'
p1962
aF8.88595
aI0
aI00
aI00
aI00
aI00
aI00
aI00
aI00
aI00
aa(lp1963
I234378
aF415.8856
aF727.585
ag1960
aS'utopia'
p1964
aS'#656565'
p1965
aF8.88595
aI0
aI00
aI00
aI00
aI00
aI00
aI00
aI00
aI00
aa(lp1966
I221291
aF427.447
aF727.585
aVp1
p1967
aS'utopia'
p1968
aS'#656565'
p1969
aF8.88595
aI0
aI01
aI00
aI00
aI00
aI00
aI00
aI00
aI00
aa(lp1970
I56042
aF450.403
aF727.585
aVp1
p1971
aS'utopia'
p1972
aS'#656565'
p1973
aF8.88595
aI0
aI01
aI00
aI00
aI00
aI00
aI00
aI00
aI00
aa(lp1974
I85582
aF486.687
aF727.585
aVp1
p1975
aS'utopia'
p1976
aS'#656565'
p1977
aF8.88595
aI0
aI01
aI00
aI00
aI00
aI00
aI00
aI00
aI00
aa(lp1978
I147316
aF40.9084
aF737.952
aVp1
p1979
aS'utopia'
p1980
aS'#656565'
p1981
aF8.88595
aI0
aI00
aI00
aI00
aI00
aI00
aI00
aI00
aI00
aa(lp1982
I89480
aF74.2307
aF737.952
aVp1
p1983
aS'utopia'
p1984
aS'#656565'
p1985
aF8.88595
aI0
aI00
aI00
aI00
aI00
aI00
aI00
aI00
aI00
aa(lp1986
I234378
aF84.5977
aF737.952
aVp1
p1987
aS'utopia'
p1988
aS'#656565'
p1989
aF8.88595
aI0
aI01
aI01
aI00
aI00
aI00
aI00
aI00
aI00
aa(lp1990
I210461
aF99.4076
aF737.952
aVp1
p1991
aS'utopia'
p1992
aS'#656565'
p1993
aF8.88595
aI0
aI00
aI00
aI00
aI00
aI00
aI00
aI00
aI00
aa(lp1994
I234378
aF127.546
aF737.952
aVp1
p1995
aS'utopia'
p1996
aS'#656565'
p1997
aF8.88595
aI0
aI01
aI00
aI00
aI00
aI00
aI00
aI00
aI00
aa(lp1998
I3878
aF192.71
aF737.952
aVp1
p1999
aS'utopia'
p2000
aS'#656565'
p2001
aF8.88595
aI0
aI00
aI00
aI00
aI00
aI00
aI00
aI00
aI00
aa(lp2002
I234378
aF239.361
aF737.952
aVp1
p2003
aS'utopia'
p2004
aS'#656565'
p2005
aF8.88595
aI0
aI00
aI00
aI00
aI00
aI00
aI00
aI00
aI00
aa(lp2006
I97764
aF270.462
aF737.952
aVp1
p2007
aS'utopia'
p2008
aS'#656565'
p2009
aF8.88595
aI0
aI01
aI00
aI00
aI00
aI00
aI00
aI00
aI00
aa(lp2010
I21071
aF308.968
aF737.952
aVp1
p2011
aS'utopia'
p2012
aS'#656565'
p2013
aF8.88595
aI0
aI00
aI00
aI00
aI00
aI00
aI00
aI00
aI00
aa(lp2014
I85218
aF332.664
aF737.952
aVp1
p2015
aS'utopia'
p2016
aS'#656565'
p2017
aF8.88595
aI0
aI00
aI00
aI00
aI00
aI00
aI00
aI00
aI00
aa(lp2018
I125359
aF349.695
aF737.952
aVp1
p2019
aS'utopia'
p2020
aS'#656565'
p2021
aF8.88595
aI0
aI00
aI00
aI00
aI00
aI00
aI00
aI00
aI00
aa(lp2022
I234378
aF380.056
aF737.952
aVp1
p2023
aS'utopia'
p2024
aS'#656565'
p2025
aF8.88595
aI0
aI00
aI00
aI00
aI00
aI00
aI00
aI00
aI00
aa(lp2026
I234378
aF419.302
aF737.952
aVp1
p2027
aS'utopia'
p2028
aS'#656565'
p2029
aF8.88595
aI0
aI00
aI00
aI00
aI00
aI00
aI00
aI00
aI00
aa(lp2030
I18044
aF442.257
aF737.952
aVp1
p2031
aS'utopia'
p2032
aS'#656565'
p2033
aF8.88595
aI0
aI00
aI00
aI00
aI00
aI00
aI00
aI00
aI00
aa(lp2034
I234378
aF477.801
aF737.952
aVp1
p2035
aS'utopia'
p2036
aS'#656565'
p2037
aF8.88595
aI0
aI00
aI00
aI00
aI00
aI00
aI00
aI00
aI00
aa(lp2038
I85218
aF504.459
aF737.952
aVp1
p2039
aS'utopia'
p2040
aS'#656565'
p2041
aF8.88595
aI0
aI00
aI00
aI00
aI00
aI00
aI00
aI00
aI00
aa(lp2042
I135639
aF521.49
aF737.952
aVp1
p2043
aS'utopia'
p2044
aS'#656565'
p2045
aF8.88595
aI0
aI00
aI00
aI00
aI00
aI00
aI00
aI00
aI00
aa(lp2046
I85663
aF40.9084
aF748.319
aVp1
p2047
aS'utopia'
p2048
aS'#656565'
p2049
aF8.88595
aI0
aI00
aI00
aI00
aI00
aI00
aI00
aI00
aI00
aa(lp2050
I234378
aF66.8258
aF748.319
aVp1
p2051
aS'utopia'
p2052
aS'#656565'
p2053
aF8.88595
aI0
aI00
aI00
aI00
aI00
aI00
aI00
aI00
aI00
aa(lp2054
I234378
aF84.81738333333334
aF748.319
ag2051
aS'utopia'
p2055
aS'#656565'
p2056
aF8.88595
aI0
aI00
aI00
aI00
aI00
aI00
aI00
aI00
aI00
aa(lp2057
I234378
aF96.4456
aF748.319
aVp1
p2058
aS'utopia'
p2059
aS'#656565'
p2060
aF8.88595
aI0
aI01
aI00
aI00
aI00
aI00
aI00
aI00
aI00
aa(lp2061
I80364
aF137.913
aF748.319
aVp1
p2062
aS'utopia'
p2063
aS'#656565'
p2064
aF8.88595
aI0
aI00
aI00
aI00
aI00
aI00
aI00
aI00
aI00
aa(lp2065
I210461
aF156.426
aF748.319
aVp1
p2066
aS'utopia'
p2067
aS'#656565'
p2068
aF8.88595
aI0
aI00
aI00
aI00
aI00
aI00
aI00
aI00
aI00
aa(lp2069
I234378
aF178.641
aF748.319
aVp1
p2070
aS'utopia'
p2071
aS'#656565'
p2072
aF8.88595
aI0
aI00
aI00
aI00
aI00
aI00
aI00
aI00
aI00
aa(lp2073
I124531
aF40.1679
aF34.4987
aVp2
p2074
aS'utopia'
p2075
aS'#02304b'
p2076
aF11.8479
aI1
aI01
aI00
aI00
aI00
aI00
aI00
aI00
aI00
aa(lp2077
I209062
aF40.9084
aF62.7827
aVp2
p2078
aS'utopia'
p2079
aS'#656565'
p2080
aF10.3669
aI0
aI01
aI00
aI00
aI00
aI00
aI00
aI00
aI00
aa(lp2081
I234378
aF63.1233
aF62.7827
aVp2
p2082
aS'utopia'
p2083
aS'#656565'
p2084
aF10.3669
aI0
aI01
aI00
aI00
aI00
aI00
aI00
aI00
aI00
aa(lp2085
I234378
aF111.996
aF62.7827
aVp2
p2086
aS'utopia'
p2087
aS'#656565'
p2088
aF10.3669
aI0
aI00
aI00
aI00
aI00
aI00
aI00
aI00
aI00
aa(lp2089
I60201
aF117.92
aF62.7827
aVp2
p2090
aS'utopia'
p2091
aS'#656565'
p2092
aF10.3669
aI0
aI01
aI00
aI00
aI00
aI00
aI00
aI00
aI00
aa(lp2093
I230071
aF137.913
aF62.7827
aVp2
p2094
aS'utopia'
p2095
aS'#656565'
p2096
aF10.3669
aI0
aI01
aI00
aI00
aI00
aI00
aI00
aI00
aI00
aa(lp2097
I234378
aF164.571
aF62.7827
aVp2
p2098
aS'utopia'
p2099
aS'#656565'
p2100
aF10.3669
aI0
aI00
aI00
aI00
aI00
aI00
aI00
aI00
aI00
aa(lp2101
I95395
aF40.9084
aF78.804
aVp2
p2102
aS'utopia'
p2103
aS'#000000'
p2104
aF10.3669
aI1
aI01
aI01
aI00
aI00
aI00
aI00
aI00
aI00
aa(lp2105
I234378
aF46.92665
aF78.804
ag2102
aS'utopia'
p2106
aS'#000000'
p2107
aF10.3669
aI1
aI00
aI00
aI00
aI00
aI00
aI00
aI00
aI00
aa(lp2108
I2737
aF52.944900000000004
aF78.804
ag2102
aS'utopia'
p2109
aS'#000000'
p2110
aF10.3669
aI1
aI01
aI00
aI00
aI00
aI00
aI00
aI00
aI00
aa(lp2111
I234378
aF79.4142
aF78.804
aVp2
p2112
aS'utopia'
p2113
aS'#000000'
p2114
aF10.3669
aI1
aI00
aI00
aI00
aI00
aI00
aI00
aI00
aI00
aa(lp2115
I145064
aF84.5114
aF78.804
ag2112
aS'utopia'
p2116
aS'#000000'
p2117
aF10.3669
aI1
aI01
aI00
aI00
aI00
aI00
aI00
aI00
aI00
aa(lp2118
I234378
aF115.09459999999999
aF78.804
ag2112
aS'utopia'
p2119
aS'#000000'
p2120
aF10.3669
aI1
aI00
aI00
aI00
aI00
aI00
aI00
aI00
aI00
aa(lp2121
I25058
aF40.9084
aF99.067
aVp2
p2122
aS'utopia'
p2123
aS'#656565'
p2124
aF10.3669
aI0
aI01
aI00
aI00
aI00
aI00
aI00
aI00
aI00
aa(lp2125
I51981
aF83.8572
aF99.067
aVp2
p2126
aS'utopia'
p2127
aS'#656565'
p2128
aF10.3669
aI0
aI01
aI00
aI00
aI00
aI00
aI00
aI00
aI00
aa(lp2129
I144489
aF126.065
aF99.067
aVp2
p2130
aS'utopia'
p2131
aS'#656565'
p2132
aF10.3669
aI0
aI00
aI00
aI00
aI00
aI00
aI00
aI00
aI00
aa(lp2133
I43052
aF137.173
aF99.067
aVp2
p2134
aS'utopia'
p2135
aS'#656565'
p2136
aF10.3669
aI0
aI01
aI00
aI00
aI00
aI00
aI00
aI00
aI00
aa(lp2137
I234378
aF194.932
aF99.067
aVp2
p2138
aS'utopia'
p2139
aS'#656565'
p2140
aF10.3669
aI0
aI00
aI00
aI00
aI00
aI00
aI00
aI00
aI00
aa(lp2141
I106826
aF199.7059833333333
aF99.067
ag2138
aS'utopia'
p2142
aS'#656565'
p2143
aF10.3669
aI0
aI01
aI01
aI00
aI00
aI00
aI00
aI00
aI00
aa(lp2144
I234378
aF214.0279333333333
aF99.067
ag2138
aS'utopia'
p2145
aS'#656565'
p2146
aF10.3669
aI0
aI00
aI00
aI00
aI00
aI00
aI00
aI00
aI00
aa(lp2147
I234378
aF218.8019166666666
aF99.067
ag2138
aS'utopia'
p2148
aS'#656565'
p2149
aF10.3669
aI0
aI00
aI00
aI00
aI00
aI00
aI00
aI00
aI00
aa(lp2150
I174006
aF226.032
aF99.067
aVp2
p2151
aS'utopia'
p2152
aS'#656565'
p2153
aF10.3669
aI0
aI01
aI00
aI00
aI00
aI00
aI00
aI00
aI00
aa(lp2154
I135639
aF266.019
aF99.067
aVp2
p2155
aS'utopia'
p2156
aS'#656565'
p2157
aF10.3669
aI0
aI00
aI00
aI00
aI00
aI00
aI00
aI00
aI00
aa(lp2158
I234378
aF277.867
aF99.067
aVp2
p2159
aS'utopia'
p2160
aS'#656565'
p2161
aF10.3669
aI0
aI00
aI00
aI01
aI01
aI01
aI00
aI00
aI00
aa(lp2162
I234378
aF40.9084
aF127.206
aVp2
p2163
aS'utopia'
p2164
aS'#656565'
p2165
aF10.3669
aI0
aI01
aI00
aI00
aI00
aI00
aI00
aI00
aI00
aa(lp2166
I234378
aF117.18
aF127.206
aVp2
p2167
aS'utopia'
p2168
aS'#656565'
p2169
aF10.3669
aI0
aI00
aI00
aI00
aI00
aI00
aI00
aI00
aI00
aa(lp2170
I60201
aF123.103
aF127.206
aVp2
p2171
aS'utopia'
p2172
aS'#656565'
p2173
aF10.3669
aI0
aI01
aI00
aI00
aI00
aI00
aI00
aI00
aI00
aa(lp2174
I230071
aF143.097
aF127.206
aVp2
p2175
aS'utopia'
p2176
aS'#656565'
p2177
aF10.3669
aI0
aI01
aI00
aI00
aI00
aI00
aI00
aI00
aI00
aa(lp2178
I234378
aF169.755
aF127.206
aVp2
p2179
aS'utopia'
p2180
aS'#656565'
p2181
aF10.3669
aI0
aI00
aI00
aI00
aI00
aI00
aI00
aI00
aI00
aa(lp2182
I27780
aF40.9084
aF143.227
aVp2
p2183
aS'utopia'
p2184
aS'#000000'
p2185
aF10.3669
aI1
aI01
aI01
aI00
aI00
aI00
aI00
aI00
aI00
aa(lp2186
I234378
aF46.15191818181818
aF143.227
ag2183
aS'utopia'
p2187
aS'#000000'
p2188
aF10.3669
aI1
aI00
aI00
aI00
aI00
aI00
aI00
aI00
aI00
aa(lp2189
I2737
aF51.395436363636364
aF143.227
ag2183
aS'utopia'
p2190
aS'#000000'
p2191
aF10.3669
aI1
aI01
aI00
aI00
aI00
aI00
aI00
aI00
aI00
aa(lp2192
I234378
aF72.36950909090909
aF143.227
ag2183
aS'utopia'
p2193
aS'#000000'
p2194
aF10.3669
aI1
aI00
aI00
aI00
aI00
aI00
aI00
aI00
aI00
aa(lp2195
I27780
aF70.61302727272727
aF143.227
ag2183
aS'utopia'
p2196
aS'#000000'
p2197
aF10.3669
aI1
aI01
aI01
aI00
aI00
aI00
aI00
aI00
aI00
aa(lp2198
I234378
aF75.85654545454545
aF143.227
ag2183
aS'utopia'
p2199
aS'#000000'
p2200
aF10.3669
aI1
aI00
aI00
aI00
aI00
aI00
aI00
aI00
aI00
aa(lp2201
I64620
aF88.10006363636364
aF143.227
ag2183
aS'utopia'
p2202
aS'#000000'
p2203
aF10.3669
aI1
aI01
aI01
aI00
aI00
aI00
aI00
aI00
aI00
aa(lp2204
I234378
aF84.34358181818183
aF143.227
ag2183
aS'utopia'
p2205
aS'#000000'
p2206
aF10.3669
aI1
aI00
aI00
aI00
aI00
aI00
aI00
aI00
aI00
aa(lp2207
I234378
aF100.889
aF143.227
aVp2
p2208
aS'utopia'
p2209
aS'#000000'
p2210
aF10.3669
aI1
aI00
aI00
aI00
aI00
aI00
aI00
aI00
aI00
aa(lp2211
I32168
aF106.20008333333332
aF143.227
ag2208
aS'utopia'
p2212
aS'#000000'
p2213
aF10.3669
aI1
aI01
aI00
aI00
aI00
aI00
aI00
aI00
aI00
aa(lp2214
I234378
aF159.31091666666666
aF143.227
ag2208
aS'utopia'
p2215
aS'#000000'
p2216
aF10.3669
aI1
aI00
aI00
aI00
aI00
aI00
aI00
aI00
aI00
aa(lp2217
I172943
aF40.9084
aF163.49
aVp2
p2218
aS'utopia'
p2219
aS'#656565'
p2220
aF10.3669
aI0
aI01
aI00
aI00
aI00
aI00
aI00
aI00
aI00
aa(lp2221
I234378
aF55.7183
aF163.49
aVp2
p2222
aS'utopia'
p2223
aS'#656565'
p2224
aF10.3669
aI0
aI01
aI00
aI00
aI00
aI00
aI00
aI00
aI00
aa(lp2225
I153079
aF129.027
aF163.49
aVp2
p2226
aS'utopia'
p2227
aS'#656565'
p2228
aF10.3669
aI0
aI01
aI00
aI00
aI00
aI00
aI00
aI00
aI00
aa(lp2229
I234378
aF179.381
aF163.49
aVp2
p2230
aS'utopia'
p2231
aS'#656565'
p2232
aF10.3669
aI0
aI00
aI00
aI00
aI00
aI00
aI00
aI00
aI00
aa(lp2233
I234378
aF184.52521666666667
aF163.49
ag2230
aS'utopia'
p2234
aS'#656565'
p2235
aF10.3669
aI0
aI01
aI01
aI00
aI00
aI00
aI00
aI00
aI00
aa(lp2236
I234378
aF199.95786666666666
aF163.49
ag2230
aS'utopia'
p2237
aS'#656565'
p2238
aF10.3669
aI0
aI00
aI00
aI00
aI00
aI00
aI00
aI00
aI00
aa(lp2239
I234378
aF205.10208333333333
aF163.49
ag2230
aS'utopia'
p2240
aS'#656565'
p2241
aF10.3669
aI0
aI00
aI00
aI00
aI00
aI00
aI00
aI00
aI00
aa(lp2242
I234378
aF212.703
aF163.49
aVp2
p2243
aS'utopia'
p2244
aS'#656565'
p2245
aF10.3669
aI0
aI01
aI00
aI00
aI00
aI00
aI00
aI00
aI00
aa(lp2246
I135639
aF257.133
aF163.49
aVp2
p2247
aS'utopia'
p2248
aS'#656565'
p2249
aF10.3669
aI0
aI00
aI00
aI00
aI00
aI00
aI00
aI00
aI00
aa(lp2250
I234378
aF268.981
aF163.49
aVp2
p2251
aS'utopia'
p2252
aS'#656565'
p2253
aF10.3669
aI0
aI00
aI00
aI01
aI01
aI01
aI00
aI00
aI00
aa(lp2254
I22476
aF40.1679
aF197.408
aVp2
p2255
aS'utopia'
p2256
aS'#02304b'
p2257
aF11.8479
aI1
aI01
aI01
aI00
aI00
aI00
aI00
aI00
aI00
aa(lp2258
I234378
aF54.2374
aF197.408
aVp2
p2259
aS'utopia'
p2260
aS'#02304b'
p2261
aF11.8479
aI1
aI01
aI00
aI00
aI00
aI00
aI00
aI00
aI00
aa(lp2262
I109610
aF48.3134
aF225.298
aVp2
p2263
aS'utopia'
p2264
aS'#000000'
p2265
aF8.88595
aI1
aI01
aI00
aI00
aI00
aI00
aI00
aI00
aI00
aa(lp2266
I158577
aF69.7878
aF225.298
aVp2
p2267
aS'utopia'
p2268
aS'#000000'
p2269
aF8.88595
aI1
aI01
aI00
aI00
aI00
aI00
aI00
aI00
aI00
aa(lp2270
I194179
aF188.267
aF225.298
aVp2
p2271
aS'utopia'
p2272
aS'#000000'
p2273
aF8.88595
aI1
aI01
aI00
aI00
aI00
aI00
aI00
aI00
aI00
aa(lp2274
I177981
aF305.265
aF225.298
aVp2
p2275
aS'utopia'
p2276
aS'#000000'
p2277
aF8.88595
aI1
aI01
aI00
aI00
aI00
aI00
aI00
aI00
aI00
aa(lp2278
I25729
aF324.518
aF225.298
aVp2
p2279
aS'utopia'
p2280
aS'#000000'
p2281
aF8.88595
aI1
aI01
aI00
aI00
aI00
aI00
aI00
aI00
aI00
aa(lp2282
I60220
aF412.637
aF225.298
aVp2
p2283
aS'utopia'
p2284
aS'#000000'
p2285
aF8.88595
aI1
aI01
aI00
aI00
aI00
aI00
aI00
aI00
aI00
aa(lp2286
I234378
aF48.3134
aF244.041
aVp2
p2287
aS'utopia'
p2288
aS'#656565'
p2289
aF8.88595
aI0
aI01
aI00
aI00
aI00
aI00
aI00
aI00
aI00
aa(lp2290
I234378
aF188.267
aF244.041
aVp2
p2291
aS'utopia'
p2292
aS'#656565'
p2293
aF8.88595
aI0
aI00
aI00
aI01
aI01
aI00
aI00
aI00
aI00
aa(lp2294
I234378
aF192.0465
aF244.041
ag2291
aS'utopia'
p2295
aS'#656565'
p2296
aF8.88595
aI0
aI00
aI00
aI00
aI00
aI00
aI00
aI00
aI00
aa(lp2297
I234378
aF195.82600000000002
aF244.041
ag2291
aS'utopia'
p2298
aS'#656565'
p2299
aF8.88595
aI0
aI00
aI00
aI01
aI01
aI00
aI00
aI00
aI00
aa(lp2300
I234378
aF317.113
aF244.041
aVp2
p2301
aS'utopia'
p2302
aS'#656565'
p2303
aF8.88595
aI0
aI00
aI00
aI01
aI01
aI01
aI00
aI00
aI00
aa(lp2304
I234378
aF422.264
aF244.041
aVp2
p2305
aS'utopia'
p2306
aS'#656565'
p2307
aF8.88595
aI0
aI00
aI00
aI01
aI01
aI00
aI00
aI00
aI00
aa(lp2308
I234378
aF428.928
aF244.041
aVp2
p2309
aS'utopia'
p2310
aS'#656565'
p2311
aF8.88595
aI0
aI01
aI00
aI00
aI00
aI00
aI00
aI00
aI00
aa(lp2312
I234378
aF48.3134
aF262.554
aVp2
p2313
aS'utopia'
p2314
aS'#656565'
p2315
aF8.88595
aI0
aI01
aI01
aI00
aI00
aI00
aI00
aI00
aI00
aa(lp2316
I234378
aF317.113
aF262.554
aVp2
p2317
aS'utopia'
p2318
aS'#656565'
p2319
aF8.88595
aI0
aI00
aI00
aI01
aI01
aI01
aI00
aI00
aI00
aa(lp2320
I234378
aF422.264
aF262.554
aVp2
p2321
aS'utopia'
p2322
aS'#656565'
p2323
aF8.88595
aI0
aI00
aI00
aI01
aI01
aI00
aI00
aI00
aI00
aa(lp2324
I234378
aF428.928
aF262.554
aVp2
p2325
aS'utopia'
p2326
aS'#656565'
p2327
aF8.88595
aI0
aI01
aI00
aI00
aI00
aI00
aI00
aI00
aI00
aa(lp2328
I234378
aF48.3134
aF281.066
aVp2
p2329
aS'utopia'
p2330
aS'#656565'
p2331
aF8.88595
aI0
aI01
aI01
aI00
aI00
aI00
aI00
aI00
aI00
aa(lp2332
I234378
aF188.267
aF281.066
aVp2
p2333
aS'utopia'
p2334
aS'#656565'
p2335
aF8.88595
aI0
aI00
aI00
aI01
aI01
aI00
aI00
aI00
aI00
aa(lp2336
I234378
aF192.0465
aF281.066
ag2333
aS'utopia'
p2337
aS'#656565'
p2338
aF8.88595
aI0
aI00
aI00
aI00
aI00
aI00
aI00
aI00
aI00
aa(lp2339
I234378
aF195.82600000000002
aF281.066
ag2333
aS'utopia'
p2340
aS'#656565'
p2341
aF8.88595
aI0
aI00
aI00
aI01
aI01
aI00
aI00
aI00
aI00
aa(lp2342
I234378
aF317.113
aF281.066
aVp2
p2343
aS'utopia'
p2344
aS'#656565'
p2345
aF8.88595
aI0
aI00
aI00
aI01
aI01
aI01
aI00
aI00
aI00
aa(lp2346
I234378
aF422.264
aF281.066
aVp2
p2347
aS'utopia'
p2348
aS'#656565'
p2349
aF8.88595
aI0
aI00
aI00
aI01
aI01
aI00
aI00
aI00
aI00
aa(lp2350
I234378
aF428.928
aF281.066
aVp2
p2351
aS'utopia'
p2352
aS'#656565'
p2353
aF8.88595
aI0
aI01
aI00
aI00
aI00
aI00
aI00
aI00
aI00
aa(lp2354
I176767
aF48.3134
aF299.578
aVp2
p2355
aS'utopia'
p2356
aS'#656565'
p2357
aF8.88595
aI0
aI01
aI00
aI00
aI00
aI00
aI00
aI00
aI00
aa(lp2358
I234378
aF188.267
aF299.578
aVp2
p2359
aS'utopia'
p2360
aS'#656565'
p2361
aF8.88595
aI0
aI00
aI00
aI01
aI01
aI00
aI00
aI00
aI00
aa(lp2362
I234378
aF192.0465
aF299.578
ag2359
aS'utopia'
p2363
aS'#656565'
p2364
aF8.88595
aI0
aI00
aI00
aI00
aI00
aI00
aI00
aI00
aI00
aa(lp2365
I234378
aF195.82600000000002
aF299.578
ag2359
aS'utopia'
p2366
aS'#656565'
p2367
aF8.88595
aI0
aI00
aI00
aI01
aI01
aI00
aI00
aI00
aI00
aa(lp2368
I234378
aF317.113
aF299.578
aVp2
p2369
aS'utopia'
p2370
aS'#656565'
p2371
aF8.88595
aI0
aI00
aI00
aI01
aI01
aI01
aI00
aI00
aI00
aa(lp2372
I234378
aF422.264
aF299.578
aVp2
p2373
aS'utopia'
p2374
aS'#656565'
p2375
aF8.88595
aI0
aI00
aI00
aI01
aI01
aI00
aI00
aI00
aI00
aa(lp2376
I234378
aF428.928
aF299.578
aVp2
p2377
aS'utopia'
p2378
aS'#656565'
p2379
aF8.88595
aI0
aI01
aI00
aI00
aI00
aI00
aI00
aI00
aI00
aa(lp2380
I195166
aF40.1679
aF349.95
aVp2
p2381
aS'utopia'
p2382
aS'#02304b'
p2383
aF11.8479
aI1
aI01
aI00
aI00
aI00
aI00
aI00
aI00
aI00
aa(lp2384
I136346
aF96.4456
aF349.95
aVp2
p2385
aS'utopia'
p2386
aS'#02304b'
p2387
aF11.8479
aI1
aI01
aI00
aI00
aI00
aI00
aI00
aI00
aI00
aa(lp2388
I195166
aF48.3134
aF377.84
aVp2
p2389
aS'utopia'
p2390
aS'#000000'
p2391
aF8.88595
aI1
aI01
aI00
aI00
aI00
aI00
aI00
aI00
aI00
aa(lp2392
I164378
aF177.16
aF377.84
aVp2
p2393
aS'utopia'
p2394
aS'#000000'
p2395
aF8.88595
aI1
aI01
aI00
aI00
aI00
aI00
aI00
aI00
aI00
aa(lp2396
I175077
aF296.379
aF377.84
aVp2
p2397
aS'utopia'
p2398
aS'#000000'
p2399
aF8.88595
aI1
aI01
aI00
aI00
aI00
aI00
aI00
aI00
aI00
aa(lp2400
I224291
aF397.087
aF377.84
aVp2
p2401
aS'utopia'
p2402
aS'#000000'
p2403
aF8.88595
aI1
aI01
aI00
aI00
aI00
aI00
aI00
aI00
aI00
aa(lp2404
I165206
aF497.054
aF377.84
aVp2
p2405
aS'utopia'
p2406
aS'#000000'
p2407
aF8.88595
aI1
aI01
aI00
aI00
aI00
aI00
aI00
aI00
aI00
aa(lp2408
I58002
aF48.3134
aF396.583
aVp2
p2409
aS'utopia'
p2410
aS'#656565'
p2411
aF8.88595
aI0
aI01
aI00
aI00
aI00
aI00
aI00
aI00
aI00
aa(lp2412
I185159
aF177.16
aF396.583
aVp2
p2413
aS'utopia'
p2414
aS'#656565'
p2415
aF8.88595
aI0
aI01
aI00
aI00
aI00
aI00
aI00
aI00
aI00
aa(lp2416
I234378
aF40.1679
aF428.442
aVp2
p2417
aS'utopia'
p2418
aS'#02304b'
p2419
aF11.8479
aI1
aI01
aI00
aI00
aI00
aI00
aI00
aI00
aI00
aa(lp2420
I154203
aF40.9084
aF460.159
aVp2
p2421
aS'utopia'
p2422
aS'#000000'
p2423
aF10.3669
aI1
aI01
aI00
aI00
aI00
aI00
aI00
aI00
aI00
aa(lp2424
I234378
aF93.4836
aF460.159
aVp2
p2425
aS'utopia'
p2426
aS'#000000'
p2427
aF10.3669
aI1
aI00
aI00
aI00
aI00
aI00
aI00
aI00
aI00
aa(lp2428
I234378
aF40.9084
aF476.72
aVp2
p2429
aS'utopia'
p2430
aS'#656565'
p2431
aF10.3669
aI0
aI01
aI01
aI00
aI00
aI00
aI00
aI00
aI00
aa(lp2432
I234378
aF63.1233
aF476.72
aVp2
p2433
aS'utopia'
p2434
aS'#656565'
p2435
aF10.3669
aI0
aI01
aI00
aI00
aI00
aI00
aI00
aI00
aI00
aa(lp2436
I60201
aF100.148
aF476.72
aVp2
p2437
aS'utopia'
p2438
aS'#656565'
p2439
aF10.3669
aI0
aI01
aI00
aI00
aI00
aI00
aI00
aI00
aI00
aa(lp2440
I230071
aF120.141
aF476.72
aVp2
p2441
aS'utopia'
p2442
aS'#656565'
p2443
aF10.3669
aI0
aI01
aI00
aI00
aI00
aI00
aI00
aI00
aI00
aa(lp2444
I131049
aF151.242
aF476.72
aVp2
p2445
aS'utopia'
p2446
aS'#656565'
p2447
aF10.3669
aI0
aI00
aI00
aI00
aI00
aI00
aI00
aI00
aI00
aa(lp2448
I234378
aF175.679
aF476.72
aVp2
p2449
aS'utopia'
p2450
aS'#656565'
p2451
aF10.3669
aI0
aI01
aI00
aI00
aI00
aI00
aI00
aI00
aI01
aa(lp2452
I234378
aF196.413
aF476.72
aVp2
p2453
aS'utopia'
p2454
aS'#656565'
p2455
aF10.3669
aI0
aI00
aI00
aI01
aI01
aI01
aI00
aI00
aI00
aa(lp2456
I89480
aF219.368
aF476.72
aVp2
p2457
aS'utopia'
p2458
aS'#656565'
p2459
aF10.3669
aI0
aI00
aI00
aI00
aI00
aI00
aI00
aI00
aI00
aa(lp2460
I102117
aF231.216
aF476.72
aVp2
p2461
aS'utopia'
p2462
aS'#656565'
p2463
aF10.3669
aI0
aI01
aI00
aI00
aI00
aI00
aI00
aI00
aI00
aa(lp2464
I234378
aF40.9084
aF493.011
aVp2
p2465
aS'utopia'
p2466
aS'#656565'
p2467
aF10.3669
aI0
aI01
aI00
aI00
aI00
aI00
aI00
aI00
aI00
aa(lp2468
I109610
aF40.9084
aF509.139
aVp2
p2469
aS'utopia'
p2470
aS'#656565'
p2471
aF8.88595
aI0
aI01
aI00
aI00
aI00
aI00
aI00
aI00
aI00
aa(lp2472
I25729
aF58.6803
aF509.139
aVp2
p2473
aS'utopia'
p2474
aS'#656565'
p2475
aF8.88595
aI0
aI01
aI00
aI00
aI00
aI00
aI00
aI00
aI00
aa(lp2476
I234378
aF76.54462000000001
aF509.139
ag2473
aS'utopia'
p2477
aS'#656565'
p2478
aF8.88595
aI0
aI00
aI00
aI00
aI00
aI00
aI00
aI00
aI00
aa(lp2479
I84662
aF85.3382
aF509.139
aVp2
p2480
aS'utopia'
p2481
aS'#656565'
p2482
aF8.88595
aI0
aI01
aI00
aI00
aI00
aI00
aI00
aI00
aI00
aa(lp2483
I21716
aF106.813
aF509.139
aVp2
p2484
aS'utopia'
p2485
aS'#656565'
p2486
aF8.88595
aI0
aI00
aI00
aI00
aI00
aI00
aI00
aI00
aI00
aa(lp2487
I234378
aF121.12292000000001
aF509.139
ag2484
aS'utopia'
p2488
aS'#656565'
p2489
aF8.88595
aI0
aI00
aI00
aI00
aI00
aI00
aI00
aI00
aI00
aa(lp2490
I148996
aF126.806
aF509.139
aVp2
p2491
aS'utopia'
p2492
aS'#656565'
p2493
aF8.88595
aI0
aI01
aI00
aI00
aI00
aI00
aI00
aI00
aI00
aa(lp2494
I234378
aF150.38934285714285
aF509.139
ag2491
aS'utopia'
p2495
aS'#656565'
p2496
aF8.88595
aI0
aI00
aI00
aI00
aI00
aI00
aI00
aI00
aI00
aa(lp2497
I234378
aF156.426
aF509.139
aVp2
p2498
aS'utopia'
p2499
aS'#656565'
p2500
aF8.88595
aI0
aI01
aI01
aI00
aI00
aI00
aI00
aI00
aI00
aa(lp2501
I234378
aF175.47511999999998
aF509.139
ag2498
aS'utopia'
p2502
aS'#656565'
p2503
aF8.88595
aI0
aI00
aI00
aI00
aI00
aI00
aI00
aI00
aI00
aa(lp2504
I234378
aF182.343
aF509.139
aVp2
p2505
aS'utopia'
p2506
aS'#656565'
p2507
aF8.88595
aI0
aI00
aI00
aI00
aI00
aI00
aI00
aI00
aI00
aa(lp2508
I234378
aF207.19577142857142
aF509.139
ag2505
aS'utopia'
p2509
aS'#656565'
p2510
aF8.88595
aI0
aI00
aI00
aI00
aI00
aI00
aI00
aI00
aI00
aa(lp2511
I234378
aF213.444
aF509.139
aVp2
p2512
aS'utopia'
p2513
aS'#656565'
p2514
aF8.88595
aI0
aI01
aI01
aI00
aI00
aI00
aI00
aI00
aI00
aa(lp2515
I234378
aF231.90071999999998
aF509.139
ag2512
aS'utopia'
p2516
aS'#656565'
p2517
aF8.88595
aI0
aI00
aI00
aI00
aI00
aI00
aI00
aI00
aI00
aa(lp2518
I234378
aF238.621
aF509.139
aVp2
p2519
aS'utopia'
p2520
aS'#656565'
p2521
aF8.88595
aI0
aI01
aI00
aI00
aI00
aI00
aI00
aI00
aI00
aa(lp2522
I234378
aF254.11572
aF509.139
ag2519
aS'utopia'
p2523
aS'#656565'
p2524
aF8.88595
aI0
aI00
aI00
aI00
aI00
aI00
aI00
aI00
aI00
aa(lp2525
I21716
aF260.095
aF509.139
aVp2
p2526
aS'utopia'
p2527
aS'#656565'
p2528
aF8.88595
aI0
aI01
aI00
aI00
aI00
aI00
aI00
aI00
aI00
aa(lp2529
I17350
aF278.608
aF509.139
aVp2
p2530
aS'utopia'
p2531
aS'#656565'
p2532
aF8.88595
aI0
aI01
aI00
aI00
aI00
aI00
aI00
aI00
aI00
aa(lp2533
I234378
aF298.601
aF509.139
aVp2
p2534
aS'utopia'
p2535
aS'#656565'
p2536
aF8.88595
aI0
aI01
aI00
aI00
aI00
aI00
aI00
aI00
aI00
aa(lp2537
I234378
aF328.9817111111111
aF509.139
ag2534
aS'utopia'
p2538
aS'#656565'
p2539
aF8.88595
aI0
aI00
aI00
aI00
aI00
aI00
aI00
aI00
aI00
aa(lp2540
I234378
aF334.885
aF509.139
aVp2
p2541
aS'utopia'
p2542
aS'#656565'
p2543
aF8.88595
aI0
aI01
aI01
aI00
aI00
aI00
aI00
aI00
aI00
aa(lp2544
I234378
aF346.07905
aF509.139
ag2541
aS'utopia'
p2545
aS'#656565'
p2546
aF8.88595
aI0
aI00
aI00
aI00
aI00
aI00
aI00
aI00
aI00
aa(lp2547
I144690
aF351.917
aF509.139
aVp2
p2548
aS'utopia'
p2549
aS'#656565'
p2550
aF8.88595
aI0
aI01
aI00
aI00
aI00
aI00
aI00
aI00
aI00
aa(lp2551
I234378
aF380.796
aF509.139
aVp2
p2552
aS'utopia'
p2553
aS'#656565'
p2554
aF8.88595
aI0
aI01
aI00
aI00
aI00
aI00
aI00
aI00
aI00
aa(lp2555
I234378
aF411.8349333333333
aF509.139
ag2552
aS'utopia'
p2556
aS'#656565'
p2557
aF8.88595
aI0
aI00
aI00
aI00
aI00
aI00
aI00
aI00
aI00
aa(lp2558
I234378
aF417.821
aF509.139
aVp2
p2559
aS'utopia'
p2560
aS'#656565'
p2561
aF8.88595
aI0
aI01
aI01
aI00
aI00
aI00
aI00
aI00
aI00
aa(lp2562
I234378
aF433.45805
aF509.139
ag2559
aS'utopia'
p2563
aS'#656565'
p2564
aF8.88595
aI0
aI00
aI00
aI00
aI00
aI00
aI00
aI00
aI00
aa(lp2565
I234378
aF440.776
aF509.139
aVp2
p2566
aS'utopia'
p2567
aS'#656565'
p2568
aF8.88595
aI0
aI01
aI01
aI00
aI00
aI00
aI00
aI00
aI00
aa(lp2569
I234378
aF454.74692500000003
aF509.139
ag2566
aS'utopia'
p2570
aS'#656565'
p2571
aF8.88595
aI0
aI00
aI00
aI00
aI00
aI00
aI00
aI00
aI00
aa(lp2572
I234378
aF461.51
aF509.139
aVp2
p2573
aS'utopia'
p2574
aS'#656565'
p2575
aF8.88595
aI0
aI01
aI01
aI00
aI00
aI00
aI00
aI00
aI00
aa(lp2576
I234378
aF482.92872
aF509.139
ag2573
aS'utopia'
p2577
aS'#656565'
p2578
aF8.88595
aI0
aI00
aI00
aI00
aI00
aI00
aI00
aI00
aI00
aa(lp2579
I106895
aF490.389
aF509.139
aVp2
p2580
aS'utopia'
p2581
aS'#656565'
p2582
aF8.88595
aI0
aI01
aI01
aI00
aI00
aI00
aI00
aI00
aI00
aa(lp2583
I234378
aF510.03052
aF509.139
ag2580
aS'utopia'
p2584
aS'#656565'
p2585
aF8.88595
aI0
aI00
aI00
aI00
aI00
aI00
aI00
aI00
aI00
aa(lp2586
I210461
aF40.9084
aF523.208
aVp2
p2587
aS'utopia'
p2588
aS'#656565'
p2589
aF8.88595
aI0
aI01
aI00
aI00
aI00
aI00
aI00
aI00
aI00
aa(lp2590
I340
aF65.3448
aF523.208
aVp2
p2591
aS'utopia'
p2592
aS'#656565'
p2593
aF8.88595
aI0
aI01
aI00
aI00
aI00
aI00
aI00
aI00
aI00
aa(lp2594
I234378
aF79.65472000000001
aF523.208
ag2591
aS'utopia'
p2595
aS'#656565'
p2596
aF8.88595
aI0
aI00
aI00
aI00
aI00
aI00
aI00
aI00
aI00
aa(lp2597
I234378
aF87.5597
aF523.208
aVp2
p2598
aS'utopia'
p2599
aS'#656565'
p2600
aF8.88595
aI0
aI00
aI00
aI01
aI01
aI01
aI00
aI00
aI00
aa(lp2601
I176435
aF40.9084
aF537.278
aVp2
p2602
aS'utopia'
p2603
aS'#656565'
p2604
aF8.88595
aI0
aI01
aI00
aI00
aI00
aI00
aI00
aI00
aI00
aa(lp2605
I234378
aF60.9018
aF537.278
aVp2
p2606
aS'utopia'
p2607
aS'#656565'
p2608
aF8.88595
aI0
aI00
aI00
aI00
aI00
aI00
aI00
aI00
aI00
aa(lp2609
I234378
aF67.5663
aF537.278
aVp2
p2610
aS'utopia'
p2611
aS'#656565'
p2612
aF8.88595
aI0
aI01
aI00
aI00
aI00
aI00
aI00
aI00
aI00
aa(lp2613
I234378
aF74.55463333333333
aF537.278
ag2610
aS'utopia'
p2614
aS'#656565'
p2615
aF8.88595
aI0
aI00
aI00
aI00
aI00
aI00
aI00
aI00
aI00
aa(lp2616
I177958
aF80.1547
aF537.278
aVp2
p2617
aS'utopia'
p2618
aS'#656565'
p2619
aF8.88595
aI0
aI01
aI00
aI00
aI00
aI00
aI00
aI00
aI00
aa(lp2620
I234229
aF110.515
aF537.278
aVp2
p2621
aS'utopia'
p2622
aS'#656565'
p2623
aF8.88595
aI0
aI01
aI00
aI00
aI00
aI00
aI00
aI00
aI00
aa(lp2624
I176435
aF40.9084
aF551.347
aVp2
p2625
aS'utopia'
p2626
aS'#656565'
p2627
aF8.88595
aI0
aI01
aI00
aI00
aI00
aI00
aI00
aI00
aI00
aa(lp2628
I66756
aF60.9018
aF551.347
aVp2
p2629
aS'utopia'
p2630
aS'#656565'
p2631
aF8.88595
aI0
aI01
aI00
aI00
aI00
aI00
aI00
aI00
aI00
aa(lp2632
I234378
aF105.12885833333334
aF551.347
ag2629
aS'utopia'
p2633
aS'#656565'
p2634
aF8.88595
aI0
aI00
aI00
aI00
aI00
aI00
aI00
aI00
aI00
aa(lp2635
I234378
aF113.477
aF551.347
aVp2
p2636
aS'utopia'
p2637
aS'#656565'
p2638
aF8.88595
aI0
aI01
aI00
aI00
aI00
aI00
aI00
aI00
aI00
aa(lp2639
I234378
aF154.204
aF551.347
aVp2
p2640
aS'utopia'
p2641
aS'#656565'
p2642
aF8.88595
aI0
aI01
aI01
aI00
aI00
aI00
aI00
aI00
aI00
aa(lp2643
I234378
aF170.39642500000002
aF551.347
ag2640
aS'utopia'
p2644
aS'#656565'
p2645
aF8.88595
aI0
aI00
aI00
aI00
aI00
aI00
aI00
aI00
aI00
aa(lp2646
I234378
aF177.9
aF551.347
aVp2
p2647
aS'utopia'
p2648
aS'#656565'
p2649
aF8.88595
aI0
aI01
aI01
aI00
aI00
aI00
aI00
aI00
aI00
aa(lp2650
I234378
aF192.4263
aF551.347
ag2647
aS'utopia'
p2651
aS'#656565'
p2652
aF8.88595
aI0
aI00
aI00
aI00
aI00
aI00
aI00
aI00
aI00
aa(lp2653
I234378
aF199.375
aF551.347
aVp2
p2654
aS'utopia'
p2655
aS'#656565'
p2656
aF8.88595
aI0
aI00
aI00
aI00
aI00
aI00
aI00
aI00
aI00
aa(lp2657
I85218
aF228.254
aF551.347
aVp2
p2658
aS'utopia'
p2659
aS'#656565'
p2660
aF8.88595
aI0
aI00
aI00
aI00
aI00
aI00
aI00
aI00
aI00
aa(lp2661
I112275
aF245.285
aF551.347
aVp2
p2662
aS'utopia'
p2663
aS'#656565'
p2664
aF8.88595
aI0
aI00
aI00
aI00
aI00
aI00
aI00
aI00
aI00
aa(lp2665
I125078
aF263.057
aF551.347
aVp2
p2666
aS'utopia'
p2667
aS'#656565'
p2668
aF8.88595
aI0
aI00
aI00
aI00
aI00
aI00
aI00
aI00
aI00
aa(lp2669
I234378
aF287.7796
aF551.347
ag2666
aS'utopia'
p2670
aS'#656565'
p2671
aF8.88595
aI0
aI00
aI00
aI00
aI00
aI00
aI00
aI00
aI00
aa(lp2672
I11472
aF293.418
aF551.347
aVp2
p2673
aS'utopia'
p2674
aS'#656565'
p2675
aF8.88595
aI0
aI00
aI00
aI00
aI00
aI00
aI00
aI00
aI00
aa(lp2676
I147316
aF333.404
aF551.347
aVp2
p2677
aS'utopia'
p2678
aS'#656565'
p2679
aF8.88595
aI0
aI00
aI00
aI00
aI00
aI00
aI00
aI00
aI00
aa(lp2680
I89480
aF366.727
aF551.347
aVp2
p2681
aS'utopia'
p2682
aS'#656565'
p2683
aF8.88595
aI0
aI00
aI00
aI00
aI00
aI00
aI00
aI00
aI00
aa(lp2684
I234378
aF377.094
aF551.347
aVp2
p2685
aS'utopia'
p2686
aS'#656565'
p2687
aF8.88595
aI0
aI01
aI01
aI00
aI00
aI00
aI00
aI00
aI00
aa(lp2688
I210461
aF391.903
aF551.347
aVp2
p2689
aS'utopia'
p2690
aS'#656565'
p2691
aF8.88595
aI0
aI00
aI00
aI00
aI00
aI00
aI00
aI00
aI00
aa(lp2692
I234378
aF409.76732000000004
aF551.347
ag2689
aS'utopia'
p2693
aS'#656565'
p2694
aF8.88595
aI0
aI00
aI00
aI00
aI00
aI00
aI00
aI00
aI00
aa(lp2695
I60534
aF416.34
aF551.347
aVp2
p2696
aS'utopia'
p2697
aS'#656565'
p2698
aF8.88595
aI0
aI01
aI00
aI00
aI00
aI00
aI00
aI00
aI00
aa(lp2699
I234378
aF435.593
aF551.347
aVp2
p2700
aS'utopia'
p2701
aS'#656565'
p2702
aF8.88595
aI0
aI00
aI00
aI00
aI00
aI00
aI00
aI00
aI00
aa(lp2703
I121752
aF476.32
aF551.347
aVp2
p2704
aS'utopia'
p2705
aS'#656565'
p2706
aF8.88595
aI0
aI00
aI00
aI00
aI00
aI00
aI00
aI00
aI00
aa(lp2707
I119499
aF40.9084
aF561.714
aVp2
p2708
aS'utopia'
p2709
aS'#656565'
p2710
aF8.88595
aI0
aI00
aI00
aI00
aI00
aI00
aI00
aI00
aI00
aa(lp2711
I192651
aF80.8952
aF561.714
aVp2
p2712
aS'utopia'
p2713
aS'#656565'
p2714
aF8.88595
aI0
aI00
aI00
aI00
aI00
aI00
aI00
aI00
aI00
aa(lp2715
I123583
aF92.7431
aF561.714
aVp2
p2716
aS'utopia'
p2717
aS'#656565'
p2718
aF8.88595
aI0
aI00
aI00
aI00
aI00
aI00
aI00
aI00
aI00
aa(lp2719
I144483
aF126.806
aF561.714
aVp2
p2720
aS'utopia'
p2721
aS'#656565'
p2722
aF8.88595
aI0
aI00
aI00
aI00
aI00
aI00
aI00
aI00
aI00
aa(lp2723
I234378
aF139.394
aF561.714
aVp2
p2724
aS'utopia'
p2725
aS'#656565'
p2726
aF8.88595
aI0
aI01
aI00
aI00
aI00
aI00
aI00
aI00
aI00
aa(lp2727
I234378
aF158.44312
aF561.714
ag2724
aS'utopia'
p2728
aS'#656565'
p2729
aF8.88595
aI0
aI00
aI00
aI00
aI00
aI00
aI00
aI00
aI00
aa(lp2730
I234378
aF165.312
aF561.714
aVp2
p2731
aS'utopia'
p2732
aS'#656565'
p2733
aF8.88595
aI0
aI01
aI00
aI00
aI00
aI00
aI00
aI00
aI00
aa(lp2734
I12878
aF232.697
aF561.714
aVp2
p2735
aS'utopia'
p2736
aS'#656565'
p2737
aF8.88595
aI0
aI00
aI00
aI00
aI00
aI00
aI00
aI00
aI00
aa(lp2738
I234378
aF286.013
aF561.714
aVp2
p2739
aS'utopia'
p2740
aS'#656565'
p2741
aF8.88595
aI0
aI00
aI00
aI00
aI00
aI00
aI00
aI00
aI00
aa(lp2742
I234378
aF307.69219999999996
aF561.714
ag2739
aS'utopia'
p2743
aS'#656565'
p2744
aF8.88595
aI0
aI00
aI00
aI00
aI00
aI00
aI00
aI00
aI00
aa(lp2745
I123583
aF313.411
aF561.714
aVp2
p2746
aS'utopia'
p2747
aS'#656565'
p2748
aF8.88595
aI0
aI00
aI00
aI00
aI00
aI00
aI00
aI00
aI00
aa(lp2749
I144483
aF347.474
aF561.714
aVp2
p2750
aS'utopia'
p2751
aS'#656565'
p2752
aF8.88595
aI0
aI00
aI00
aI00
aI00
aI00
aI00
aI00
aI00
aa(lp2753
I53211
aF360.062
aF561.714
aVp2
p2754
aS'utopia'
p2755
aS'#656565'
p2756
aF8.88595
aI0
aI00
aI00
aI00
aI00
aI00
aI00
aI00
aI00
aa(lp2757
I85218
aF382.277
aF561.714
aVp2
p2758
aS'utopia'
p2759
aS'#656565'
p2760
aF8.88595
aI0
aI00
aI00
aI00
aI00
aI00
aI00
aI00
aI00
aa(lp2761
I35847
aF399.308
aF561.714
aVp2
p2762
aS'utopia'
p2763
aS'#656565'
p2764
aF8.88595
aI0
aI00
aI00
aI00
aI00
aI00
aI00
aI00
aI00
aa(lp2765
I234378
aF428.188
aF561.714
aVp2
p2766
aS'utopia'
p2767
aS'#656565'
p2768
aF8.88595
aI0
aI00
aI00
aI00
aI00
aI00
aI00
aI00
aI00
aa(lp2769
I177958
aF40.9084
aF575.783
aVp2
p2770
aS'utopia'
p2771
aS'#656565'
p2772
aF8.88595
aI0
aI01
aI00
aI00
aI00
aI00
aI00
aI00
aI00
aa(lp2773
I234378
aF71.2688
aF575.783
aVp2
p2774
aS'utopia'
p2775
aS'#656565'
p2776
aF8.88595
aI0
aI01
aI00
aI00
aI00
aI00
aI00
aI00
aI00
aa(lp2777
I234378
aF96.6393375
aF575.783
ag2774
aS'utopia'
p2778
aS'#656565'
p2779
aF8.88595
aI0
aI00
aI00
aI00
aI00
aI00
aI00
aI00
aI00
aa(lp2780
I154203
aF104.591
aF575.783
aVp2
p2781
aS'utopia'
p2782
aS'#656565'
p2783
aF8.88595
aI0
aI01
aI00
aI00
aI00
aI00
aI00
aI00
aI00
aa(lp2784
I234378
aF148.28
aF575.783
aVp2
p2785
aS'utopia'
p2786
aS'#656565'
p2787
aF8.88595
aI0
aI00
aI00
aI00
aI00
aI00
aI00
aI00
aI00
aa(lp2788
I234378
aF186.786
aF575.783
aVp2
p2789
aS'utopia'
p2790
aS'#656565'
p2791
aF8.88595
aI0
aI00
aI00
aI00
aI00
aI00
aI00
aI00
aI00
aa(lp2792
I234378
aF191.25326
aF575.783
ag2789
aS'utopia'
p2793
aS'#656565'
p2794
aF8.88595
aI0
aI01
aI00
aI00
aI00
aI00
aI00
aI00
aI00
aa(lp2795
I234378
aF204.65504
aF575.783
ag2789
aS'utopia'
p2796
aS'#656565'
p2797
aF8.88595
aI0
aI00
aI00
aI00
aI00
aI00
aI00
aI00
aI00
aa(lp2798
I234378
aF211.222
aF575.783
aVp2
p2799
aS'utopia'
p2800
aS'#656565'
p2801
aF8.88595
aI0
aI00
aI00
aI00
aI00
aI00
aI00
aI00
aI00
aa(lp2802
I25691
aF247.507
aF575.783
aVp2
p2803
aS'utopia'
p2804
aS'#656565'
p2805
aF8.88595
aI0
aI00
aI00
aI00
aI00
aI00
aI00
aI00
aI00
aa(lp2806
I234378
aF261.6374666666667
aF575.783
ag2803
aS'utopia'
p2807
aS'#656565'
p2808
aF8.88595
aI0
aI00
aI00
aI00
aI00
aI00
aI00
aI00
aI00
aa(lp2809
I169745
aF288.975
aF575.783
aVp2
p2810
aS'utopia'
p2811
aS'#656565'
p2812
aF8.88595
aI0
aI00
aI00
aI00
aI00
aI00
aI00
aI00
aI00
aa(lp2813
I4042
aF308.227
aF575.783
aVp2
p2814
aS'utopia'
p2815
aS'#656565'
p2816
aF8.88595
aI0
aI00
aI00
aI00
aI00
aI00
aI00
aI00
aI00
aa(lp2817
I234378
aF350.0690909090909
aF575.783
ag2814
aS'utopia'
p2818
aS'#656565'
p2819
aF8.88595
aI0
aI00
aI00
aI00
aI00
aI00
aI00
aI00
aI00
aa(lp2820
I19784
aF356.36
aF575.783
aVp2
p2821
aS'utopia'
p2822
aS'#656565'
p2823
aF8.88595
aI0
aI00
aI00
aI00
aI00
aI00
aI00
aI00
aI00
aa(lp2824
I230071
aF373.5258666666667
aF575.783
ag2821
aS'utopia'
p2825
aS'#656565'
p2826
aF8.88595
aI0
aI00
aI00
aI00
aI00
aI00
aI00
aI00
aI00
aa(lp2827
I68365
aF394.865
aF575.783
aVp2
p2828
aS'utopia'
p2829
aS'#656565'
p2830
aF8.88595
aI0
aI00
aI00
aI00
aI00
aI00
aI00
aI00
aI00
aa(lp2831
I89480
aF422.264
aF575.783
aVp2
p2832
aS'utopia'
p2833
aS'#656565'
p2834
aF8.88595
aI0
aI00
aI00
aI00
aI00
aI00
aI00
aI00
aI00
aa(lp2835
I218852
aF432.631
aF575.783
aVp2
p2836
aS'utopia'
p2837
aS'#656565'
p2838
aF8.88595
aI0
aI00
aI00
aI00
aI00
aI00
aI00
aI00
aI00
aa(lp2839
I7520
aF453.365
aF575.783
aVp2
p2840
aS'utopia'
p2841
aS'#656565'
p2842
aF8.88595
aI0
aI00
aI00
aI00
aI00
aI00
aI00
aI00
aI00
aa(lp2843
I89347
aF489.649
aF575.783
aVp2
p2844
aS'utopia'
p2845
aS'#656565'
p2846
aF8.88595
aI0
aI00
aI00
aI00
aI00
aI00
aI00
aI00
aI00
aa(lp2847
I234378
aF40.9084
aF586.15
aVp2
p2848
aS'utopia'
p2849
aS'#656565'
p2850
aF8.88595
aI0
aI00
aI00
aI00
aI00
aI00
aI00
aI00
aI00
aa(lp2851
I184870
aF81.6357
aF586.15
aVp2
p2852
aS'utopia'
p2853
aS'#656565'
p2854
aF8.88595
aI0
aI00
aI00
aI00
aI00
aI00
aI00
aI00
aI00
aa(lp2855
I166593
aF115.699
aF586.15
aVp2
p2856
aS'utopia'
p2857
aS'#656565'
p2858
aF8.88595
aI0
aI00
aI00
aI00
aI00
aI00
aI00
aI00
aI00
aa(lp2859
I234378
aF122.363
aF586.15
aVp2
p2860
aS'utopia'
p2861
aS'#656565'
p2862
aF8.88595
aI0
aI00
aI00
aI00
aI00
aI00
aI00
aI00
aI00
aa(lp2863
I17350
aF174.938
aF586.15
aVp2
p2864
aS'utopia'
p2865
aS'#656565'
p2866
aF8.88595
aI0
aI01
aI00
aI00
aI00
aI00
aI00
aI00
aI00
aa(lp2867
I90974
aF194.932
aF586.15
aVp2
p2868
aS'utopia'
p2869
aS'#656565'
p2870
aF8.88595
aI0
aI00
aI00
aI00
aI00
aI00
aI00
aI00
aI00
aa(lp2871
I144503
aF210.482
aF586.15
aVp2
p2872
aS'utopia'
p2873
aS'#656565'
p2874
aF8.88595
aI0
aI00
aI00
aI00
aI00
aI00
aI00
aI00
aI00
aa(lp2875
I182663
aF221.589
aF586.15
aVp2
p2876
aS'utopia'
p2877
aS'#656565'
p2878
aF8.88595
aI0
aI00
aI00
aI00
aI00
aI00
aI00
aI00
aI00
aa(lp2879
I94749
aF246.766
aF586.15
aVp2
p2880
aS'utopia'
p2881
aS'#656565'
p2882
aF8.88595
aI0
aI00
aI00
aI00
aI00
aI00
aI00
aI00
aI00
aa(lp2883
I134386
aF267.5
aF586.15
aVp2
p2884
aS'utopia'
p2885
aS'#656565'
p2886
aF8.88595
aI0
aI00
aI00
aI00
aI00
aI00
aI00
aI00
aI00
aa(lp2887
I173885
aF288.975
aF586.15
aVp2
p2888
aS'utopia'
p2889
aS'#656565'
p2890
aF8.88595
aI0
aI00
aI00
aI00
aI00
aI00
aI00
aI00
aI00
aa(lp2891
I192651
aF324.518
aF586.15
aVp2
p2892
aS'utopia'
p2893
aS'#656565'
p2894
aF8.88595
aI0
aI00
aI00
aI00
aI00
aI00
aI00
aI00
aI00
aa(lp2895
I218852
aF336.366
aF586.15
aVp2
p2896
aS'utopia'
p2897
aS'#656565'
p2898
aF8.88595
aI0
aI00
aI00
aI00
aI00
aI00
aI00
aI00
aI00
aa(lp2899
I89347
aF357.1
aF586.15
aVp2
p2900
aS'utopia'
p2901
aS'#656565'
p2902
aF8.88595
aI0
aI00
aI00
aI00
aI00
aI00
aI00
aI00
aI00
aa(lp2903
I234378
aF392.644
aF586.15
aVp2
p2904
aS'utopia'
p2905
aS'#656565'
p2906
aF8.88595
aI0
aI00
aI00
aI00
aI00
aI00
aI00
aI00
aI00
aa(lp2907
I85593
aF425.966
aF586.15
aVp2
p2908
aS'utopia'
p2909
aS'#656565'
p2910
aF8.88595
aI0
aI00
aI00
aI00
aI00
aI00
aI00
aI00
aI00
aa(lp2911
I234378
aF458.3213777777778
aF586.15
ag2908
aS'utopia'
p2912
aS'#656565'
p2913
aF8.88595
aI0
aI00
aI00
aI00
aI00
aI00
aI00
aI00
aI00
aa(lp2914
I169745
aF464.472
aF586.15
aVp2
p2915
aS'utopia'
p2916
aS'#656565'
p2917
aF8.88595
aI0
aI01
aI00
aI00
aI00
aI00
aI00
aI00
aI00
aa(lp2918
I137949
aF485.206
aF586.15
aVp2
p2919
aS'utopia'
p2920
aS'#656565'
p2921
aF8.88595
aI0
aI00
aI00
aI00
aI00
aI00
aI00
aI00
aI00
aa(lp2922
I64666
aF501.9327692307692
aF586.15
ag2919
aS'utopia'
p2923
aS'#656565'
p2924
aF8.88595
aI0
aI00
aI00
aI00
aI00
aI00
aI00
aI00
aI00
aa(lp2925
I234378
aF40.9084
aF596.517
aVp2
p2926
aS'utopia'
p2927
aS'#656565'
p2928
aF8.88595
aI0
aI00
aI00
aI00
aI00
aI00
aI00
aI00
aI00
aa(lp2929
I85218
aF81.6357
aF596.517
aVp2
p2930
aS'utopia'
p2931
aS'#656565'
p2932
aF8.88595
aI0
aI00
aI00
aI00
aI00
aI00
aI00
aI00
aI00
aa(lp2933
I231681
aF98.6671
aF596.517
aVp2
p2934
aS'utopia'
p2935
aS'#656565'
p2936
aF8.88595
aI0
aI00
aI00
aI00
aI00
aI00
aI00
aI00
aI00
aa(lp2937
I149372
aF141.616
aF596.517
aVp2
p2938
aS'utopia'
p2939
aS'#656565'
p2940
aF8.88595
aI0
aI00
aI00
aI00
aI00
aI00
aI00
aI00
aI00
aa(lp2941
I234378
aF176.37517000000003
aF596.517
ag2938
aS'utopia'
p2942
aS'#656565'
p2943
aF8.88595
aI0
aI00
aI00
aI00
aI00
aI00
aI00
aI00
aI00
aa(lp2944
I234378
aF182.343
aF596.517
aVp2
p2945
aS'utopia'
p2946
aS'#656565'
p2947
aF8.88595
aI0
aI00
aI00
aI00
aI00
aI00
aI00
aI00
aI00
aa(lp2948
I33705
aF226.032
aF596.517
aVp2
p2949
aS'utopia'
p2950
aS'#656565'
p2951
aF8.88595
aI0
aI00
aI00
aI00
aI00
aI00
aI00
aI00
aI00
aa(lp2952
I91899
aF242.323
aF596.517
aVp2
p2953
aS'utopia'
p2954
aS'#656565'
p2955
aF8.88595
aI0
aI00
aI00
aI00
aI00
aI00
aI00
aI00
aI00
aa(lp2956
I229969
aF277.867
aF596.517
aVp2
p2957
aS'utopia'
p2958
aS'#656565'
p2959
aF8.88595
aI0
aI00
aI00
aI00
aI00
aI00
aI00
aI00
aI00
aa(lp2960
I89480
aF291.9791
aF596.517
ag2957
aS'utopia'
p2961
aS'#656565'
p2962
aF8.88595
aI0
aI00
aI00
aI00
aI00
aI00
aI00
aI00
aI00
aa(lp2963
I229969
aF294.7205
aF596.517
ag2957
aS'utopia'
p2964
aS'#656565'
p2965
aF8.88595
aI0
aI00
aI00
aI00
aI00
aI00
aI00
aI00
aI00
aa(lp2966
I89958
aF323.778
aF596.517
aVp2
p2967
aS'utopia'
p2968
aS'#656565'
p2969
aF8.88595
aI0
aI00
aI00
aI00
aI00
aI00
aI00
aI00
aI00
aa(lp2970
I234378
aF357.1
aF596.517
aVp2
p2971
aS'utopia'
p2972
aS'#656565'
p2973
aF8.88595
aI0
aI00
aI00
aI00
aI00
aI00
aI00
aI00
aI00
aa(lp2974
I234378
aF375.09158333333335
aF596.517
ag2971
aS'utopia'
p2975
aS'#656565'
p2976
aF8.88595
aI0
aI00
aI00
aI00
aI00
aI00
aI00
aI00
aI00
aa(lp2977
I111461
aF380.796
aF596.517
aVp2
p2978
aS'utopia'
p2979
aS'#656565'
p2980
aF8.88595
aI0
aI00
aI00
aI00
aI00
aI00
aI00
aI00
aI00
aa(lp2981
I234378
aF397.087
aF596.517
aVp2
p2982
aS'utopia'
p2983
aS'#656565'
p2984
aF8.88595
aI0
aI00
aI00
aI00
aI00
aI00
aI00
aI00
aI00
aa(lp2985
I234378
aF411.99316666666664
aF596.517
ag2982
aS'utopia'
p2986
aS'#656565'
p2987
aF8.88595
aI0
aI00
aI00
aI00
aI00
aI00
aI00
aI00
aI00
aa(lp2988
I160850
aF417.08
aF596.517
aVp2
p2989
aS'utopia'
p2990
aS'#656565'
p2991
aF8.88595
aI0
aI00
aI00
aI00
aI00
aI00
aI00
aI00
aI00
aa(lp2992
I234378
aF444.479
aF596.517
aVp2
p2993
aS'utopia'
p2994
aS'#656565'
p2995
aF8.88595
aI0
aI00
aI00
aI00
aI00
aI00
aI00
aI00
aI00
aa(lp2996
I74911
aF475.579
aF596.517
aVp2
p2997
aS'utopia'
p2998
aS'#656565'
p2999
aF8.88595
aI0
aI00
aI00
aI00
aI00
aI00
aI00
aI00
aI00
aa(lp3000
I234378
aF521.1636416666666
aF596.517
ag2997
aS'utopia'
p3001
aS'#656565'
p3002
aF8.88595
aI0
aI00
aI00
aI00
aI00
aI00
aI00
aI00
aI00
aa(lp3003
I64702
aF40.9084
aF606.884
aVp2
p3004
aS'utopia'
p3005
aS'#656565'
p3006
aF8.88595
aI0
aI00
aI00
aI00
aI00
aI00
aI00
aI00
aI00
aa(lp3007
I234378
aF69.7878
aF606.884
aVp2
p3008
aS'utopia'
p3009
aS'#656565'
p3010
aF8.88595
aI0
aI00
aI00
aI00
aI00
aI00
aI00
aI00
aI00
aa(lp3011
I234378
aF116.37475384615385
aF606.884
ag3008
aS'utopia'
p3012
aS'#656565'
p3013
aF8.88595
aI0
aI00
aI00
aI00
aI00
aI00
aI00
aI00
aI00
aa(lp3014
I85218
aF122.363
aF606.884
aVp2
p3015
aS'utopia'
p3016
aS'#656565'
p3017
aF8.88595
aI0
aI00
aI00
aI00
aI00
aI00
aI00
aI00
aI00
aa(lp3018
I123814
aF139.394
aF606.884
aVp2
p3019
aS'utopia'
p3020
aS'#656565'
p3021
aF8.88595
aI0
aI00
aI00
aI00
aI00
aI00
aI00
aI00
aI00
aa(lp3022
I218852
aF172.717
aF606.884
aVp2
p3023
aS'utopia'
p3024
aS'#656565'
p3025
aF8.88595
aI0
aI00
aI00
aI00
aI00
aI00
aI00
aI00
aI00
aa(lp3026
I16742
aF193.451
aF606.884
aVp2
p3027
aS'utopia'
p3028
aS'#656565'
p3029
aF8.88595
aI0
aI00
aI00
aI00
aI00
aI00
aI00
aI00
aI00
aa(lp3030
I169745
aF242.323
aF606.884
aVp2
p3031
aS'utopia'
p3032
aS'#656565'
p3033
aF8.88595
aI0
aI00
aI00
aI00
aI00
aI00
aI00
aI00
aI00
aa(lp3034
I218852
aF261.576
aF606.884
aVp2
p3035
aS'utopia'
p3036
aS'#656565'
p3037
aF8.88595
aI0
aI00
aI00
aI00
aI00
aI00
aI00
aI00
aI00
aa(lp3038
I89347
aF282.31
aF606.884
aVp2
p3039
aS'utopia'
p3040
aS'#656565'
p3041
aF8.88595
aI0
aI00
aI00
aI00
aI00
aI00
aI00
aI00
aI00
aa(lp3042
I119502
aF317.854
aF606.884
aVp2
p3043
aS'utopia'
p3044
aS'#656565'
p3045
aF8.88595
aI0
aI00
aI00
aI00
aI00
aI00
aI00
aI00
aI00
aa(lp3046
I85593
aF347.474
aF606.884
aVp2
p3047
aS'utopia'
p3048
aS'#656565'
p3049
aF8.88595
aI0
aI00
aI00
aI00
aI00
aI00
aI00
aI00
aI00
aa(lp3050
I221393
aF383.758
aF606.884
aVp2
p3051
aS'utopia'
p3052
aS'#656565'
p3053
aF8.88595
aI0
aI00
aI00
aI00
aI00
aI00
aI00
aI00
aI00
aa(lp3054
I7520
aF397.087
aF606.884
aVp2
p3055
aS'utopia'
p3056
aS'#656565'
p3057
aF8.88595
aI0
aI00
aI00
aI00
aI00
aI00
aI00
aI00
aI00
aa(lp3058
I234378
aF433.371
aF606.884
aVp2
p3059
aS'utopia'
p3060
aS'#656565'
p3061
aF8.88595
aI0
aI00
aI00
aI00
aI00
aI00
aI00
aI00
aI00
aa(lp3062
I85218
aF478.541
aF606.884
aVp2
p3063
aS'utopia'
p3064
aS'#656565'
p3065
aF8.88595
aI0
aI00
aI00
aI00
aI00
aI00
aI00
aI00
aI00
aa(lp3066
I194354
aF495.573
aF606.884
aVp2
p3067
aS'utopia'
p3068
aS'#656565'
p3069
aF8.88595
aI0
aI00
aI00
aI00
aI00
aI00
aI00
aI00
aI00
aa(lp3070
I234378
aF510.383
aF606.884
aVp2
p3071
aS'utopia'
p3072
aS'#656565'
p3073
aF8.88595
aI0
aI01
aI00
aI00
aI00
aI00
aI00
aI00
aI00
aa(lp3074
I234378
aF540.7637111111111
aF606.884
ag3071
aS'utopia'
p3075
aS'#656565'
p3076
aF8.88595
aI0
aI00
aI00
aI00
aI00
aI00
aI00
aI00
aI00
aa(lp3077
I177271
aF40.1679
aF34.4987
aVp3
p3078
aS'utopia'
p3079
aS'#02304b'
p3080
aF11.8479
aI1
aI01
aI00
aI00
aI00
aI00
aI00
aI00
aI00
aa(lp3081
I234378
aF74.2307
aF34.4987
aVp3
p3082
aS'utopia'
p3083
aS'#02304b'
p3084
aF11.8479
aI1
aI01
aI00
aI00
aI00
aI00
aI00
aI00
aI00
aa(lp3085
I7520
aF49.0539
aF58.8107
aVp3
p3086
aS'utopia'
p3087
aS'#656565'
p3088
aF10.3669
aI1
aI01
aI00
aI00
aI00
aI00
aI00
aI00
aI00
aa(lp3089
I10865
aF93.4836
aF58.8107
aVp3
p3090
aS'utopia'
p3091
aS'#656565'
p3092
aF10.3669
aI1
aI01
aI00
aI00
aI00
aI00
aI00
aI00
aI00
aa(lp3093
I132955
aF49.0539
aF74.4677
aVp3
p3094
aS'utopia'
p3095
aS'#656565'
p3096
aF8.88595
aI0
aI01
aI00
aI00
aI00
aI00
aI00
aI00
aI00
aa(lp3097
I144489
aF69.7878
aF74.4677
aVp3
p3098
aS'utopia'
p3099
aS'#656565'
p3100
aF8.88595
aI0
aI00
aI00
aI00
aI00
aI00
aI00
aI00
aI00
aa(lp3101
I132529
aF80.1547
aF74.4677
aVp3
p3102
aS'utopia'
p3103
aS'#656565'
p3104
aF8.88595
aI0
aI01
aI00
aI00
aI00
aI00
aI00
aI00
aI00
aa(lp3105
I234378
aF98.76336666666667
aF74.4677
ag3102
aS'utopia'
p3106
aS'#656565'
p3107
aF8.88595
aI0
aI00
aI00
aI00
aI00
aI00
aI00
aI00
aI00
aa(lp3108
I234378
aF104.591
aF74.4677
aVp3
p3109
aS'utopia'
p3110
aS'#434343'
p3111
aF8.88595
aI0
aI00
aI00
aI01
aI01
aI01
aI00
aI00
aI00
aa(lp3112
I234378
aF115.699
aF74.4677
aVp3
p3113
aS'utopia'
p3114
aS'#434343'
p3115
aF8.88595
aI0
aI01
aI00
aI00
aI00
aI00
aI00
aI00
aI01
aa(lp3116
I234378
aF130.508
aF74.4677
aVp3
p3117
aS'utopia'
p3118
aS'#434343'
p3119
aF8.88595
aI0
aI00
aI00
aI01
aI01
aI01
aI00
aI00
aI00
aa(lp3120
I108944
aF49.0539
aF90.0181
aVp3
p3121
aS'utopia'
p3122
aS'#656565'
p3123
aF8.88595
aI0
aI01
aI00
aI00
aI00
aI00
aI00
aI00
aI00
aa(lp3124
I234378
aF76.44544285714287
aF90.0181
ag3121
aS'utopia'
p3125
aS'#656565'
p3126
aF8.88595
aI0
aI00
aI00
aI00
aI00
aI00
aI00
aI00
aI00
aa(lp3127
I104428
aF83.1167
aF90.0181
aVp3
p3128
aS'utopia'
p3129
aS'#434343'
p3130
aF8.88595
aI0
aI01
aI00
aI00
aI00
aI00
aI00
aI00
aI00
aa(lp3131
I212271
aF49.0539
aF105.569
aVp3
p3132
aS'utopia'
p3133
aS'#656565'
p3134
aF8.88595
aI0
aI01
aI00
aI00
aI00
aI00
aI00
aI00
aI00
aa(lp3135
I12510
aF79.4142
aF105.569
aVp3
p3136
aS'utopia'
p3137
aS'#656565'
p3138
aF8.88595
aI0
aI01
aI00
aI00
aI00
aI00
aI00
aI00
aI00
aa(lp3139
I234378
aF101.72811428571428
aF105.569
ag3136
aS'utopia'
p3140
aS'#656565'
p3141
aF8.88595
aI0
aI00
aI00
aI00
aI00
aI00
aI00
aI00
aI00
aa(lp3142
I97834
aF107.553
aF105.569
aVp3
p3143
aS'utopia'
p3144
aS'#434343'
p3145
aF8.88595
aI0
aI01
aI00
aI00
aI00
aI00
aI00
aI00
aI00
aa(lp3146
I118366
aF49.0539
aF125.455
aVp3
p3147
aS'utopia'
p3148
aS'#656565'
p3149
aF10.3669
aI1
aI01
aI00
aI00
aI00
aI00
aI00
aI00
aI00
aa(lp3150
I234378
aF83.97235
aF125.455
ag3147
aS'utopia'
p3151
aS'#656565'
p3152
aF10.3669
aI1
aI00
aI00
aI00
aI00
aI00
aI00
aI00
aI00
aa(lp3153
I234378
aF49.0539
aF138.15
aVp3
p3154
aS'utopia'
p3155
aS'#000000'
p3156
aF8.88595
aI0
aI01
aI00
aI00
aI00
aI00
aI00
aI00
aI00
aa(lp3157
I234378
aF49.0539
aF148.517
aVp3
p3158
aS'utopia'
p3159
aS'#000000'
p3160
aF8.88595
aI0
aI00
aI00
aI01
aI01
aI01
aI00
aI00
aI00
aa(lp3161
I182663
aF49.0539
aF161.846
aVp3
p3162
aS'utopia'
p3163
aS'#656565'
p3164
aF8.88595
aI0
aI01
aI00
aI00
aI00
aI00
aI00
aI00
aI00
aa(lp3165
I82279
aF76.4522
aF161.846
aVp3
p3166
aS'utopia'
p3167
aS'#656565'
p3168
aF8.88595
aI0
aI01
aI00
aI00
aI00
aI00
aI00
aI00
aI00
aa(lp3169
I234378
aF96.09372
aF161.846
ag3166
aS'utopia'
p3170
aS'#656565'
p3171
aF8.88595
aI0
aI00
aI00
aI00
aI00
aI00
aI00
aI00
aI00
aa(lp3172
I234378
aF103.11
aF161.846
aVp3
p3173
aS'utopia'
p3174
aS'#000000'
p3175
aF8.88595
aI0
aI01
aI00
aI00
aI00
aI00
aI00
aI00
aI00
aa(lp3176
I86794
aF292.677
aF62.5131
aVp3
p3177
aS'utopia'
p3178
aS'#656565'
p3179
aF10.3669
aI1
aI01
aI00
aI00
aI00
aI00
aI00
aI00
aI00
aa(lp3180
I131455
aF331.183
aF62.5131
aVp3
p3181
aS'utopia'
p3182
aS'#656565'
p3183
aF10.3669
aI1
aI01
aI00
aI00
aI00
aI00
aI00
aI00
aI00
aa(lp3184
I234378
aF348.955
aF62.5131
aVp3
p3185
aS'utopia'
p3186
aS'#656565'
p3187
aF10.3669
aI1
aI01
aI00
aI00
aI00
aI00
aI00
aI00
aI00
aa(lp3188
I131455
aF292.677
aF78.1702
aVp3
p3189
aS'utopia'
p3190
aS'#656565'
p3191
aF8.88595
aI0
aI01
aI00
aI00
aI00
aI00
aI00
aI00
aI00
aa(lp3192
I197416
aF308.227
aF78.1702
aVp3
p3193
aS'utopia'
p3194
aS'#656565'
p3195
aF8.88595
aI0
aI01
aI00
aI00
aI00
aI00
aI00
aI00
aI00
aa(lp3196
I234378
aF325.49892
aF78.1702
ag3193
aS'utopia'
p3197
aS'#656565'
p3198
aF8.88595
aI0
aI00
aI00
aI00
aI00
aI00
aI00
aI00
aI00
aa(lp3199
I28425
aF331.923
aF78.1702
aVp3
p3200
aS'utopia'
p3201
aS'#434343'
p3202
aF8.88595
aI0
aI01
aI00
aI00
aI00
aI00
aI00
aI00
aI00
aa(lp3203
I234378
aF377.834
aF78.1702
aVp3
p3204
aS'utopia'
p3205
aS'#434343'
p3206
aF8.88595
aI0
aI00
aI00
aI00
aI00
aI00
aI00
aI00
aI00
aa(lp3207
I137944
aF382.3888636363636
aF78.1702
ag3204
aS'utopia'
p3208
aS'#434343'
p3209
aF8.88595
aI0
aI01
aI00
aI00
aI00
aI00
aI00
aI00
aI00
aa(lp3210
I234378
aF413.3826363636363
aF78.1702
ag3204
aS'utopia'
p3211
aS'#434343'
p3212
aF8.88595
aI0
aI00
aI00
aI00
aI00
aI00
aI00
aI00
aI00
aa(lp3213
I42298
aF427.93749999999994
aF78.1702
ag3204
aS'utopia'
p3214
aS'#434343'
p3215
aF8.88595
aI0
aI01
aI00
aI00
aI00
aI00
aI00
aI00
aI00
aa(lp3216
I72722
aF292.677
aF93.7206
aVp3
p3217
aS'utopia'
p3218
aS'#656565'
p3219
aF8.88595
aI0
aI01
aI00
aI00
aI00
aI00
aI00
aI00
aI00
aa(lp3220
I12510
aF345.993
aF93.7206
aVp3
p3221
aS'utopia'
p3222
aS'#656565'
p3223
aF8.88595
aI0
aI01
aI00
aI00
aI00
aI00
aI00
aI00
aI00
aa(lp3224
I234378
aF368.3069142857143
aF93.7206
ag3221
aS'utopia'
p3225
aS'#656565'
p3226
aF8.88595
aI0
aI00
aI00
aI00
aI00
aI00
aI00
aI00
aI00
aa(lp3227
I60201
aF374.132
aF93.7206
aVp3
p3228
aS'utopia'
p3229
aS'#434343'
p3230
aF8.88595
aI0
aI01
aI00
aI00
aI00
aI00
aI00
aI00
aI00
aa(lp3231
I230071
aF391.163
aF93.7206
aVp3
p3232
aS'utopia'
p3233
aS'#434343'
p3234
aF8.88595
aI0
aI01
aI00
aI00
aI00
aI00
aI00
aI00
aI00
aa(lp3235
I51933
aF292.677
aF113.607
aVp3
p3236
aS'utopia'
p3237
aS'#656565'
p3238
aF10.3669
aI1
aI01
aI00
aI00
aI00
aI00
aI00
aI00
aI00
aa(lp3239
I62768
aF320.816
aF113.607
aVp3
p3240
aS'utopia'
p3241
aS'#656565'
p3242
aF10.3669
aI1
aI01
aI00
aI00
aI00
aI00
aI00
aI00
aI00
aa(lp3243
I31679
aF292.677
aF129.264
aVp3
p3244
aS'utopia'
p3245
aS'#656565'
p3246
aF8.88595
aI0
aI01
aI01
aI00
aI00
aI00
aI00
aI00
aI00
aa(lp3247
I51933
aF306.006
aF129.264
aVp3
p3248
aS'utopia'
p3249
aS'#656565'
p3250
aF8.88595
aI0
aI01
aI00
aI00
aI00
aI00
aI00
aI00
aI00
aa(lp3251
I12510
aF329.702
aF129.264
aVp3
p3252
aS'utopia'
p3253
aS'#656565'
p3254
aF8.88595
aI0
aI01
aI00
aI00
aI00
aI00
aI00
aI00
aI00
aa(lp3255
I234378
aF352.0159142857143
aF129.264
ag3252
aS'utopia'
p3256
aS'#656565'
p3257
aF8.88595
aI0
aI00
aI00
aI00
aI00
aI00
aI00
aI00
aI00
aa(lp3258
I109318
aF357.841
aF129.264
aVp3
p3259
aS'utopia'
p3260
aS'#434343'
p3261
aF8.88595
aI0
aI01
aI00
aI00
aI00
aI00
aI00
aI00
aI00
aa(lp3262
I234378
aF380.796
aF129.264
aVp3
p3263
aS'utopia'
p3264
aS'#434343'
p3265
aF8.88595
aI0
aI01
aI01
aI01
aI00
aI00
aI00
aI00
aI00
aa(lp3266
I222659
aF394.865
aF129.264
aVp3
p3267
aS'utopia'
p3268
aS'#434343'
p3269
aF8.88595
aI0
aI01
aI00
aI00
aI00
aI00
aI00
aI00
aI00
aa(lp3270
I234378
aF292.677
aF144.815
aVp3
p3271
aS'utopia'
p3272
aS'#656565'
p3273
aF8.88595
aI0
aI01
aI00
aI00
aI00
aI00
aI00
aI00
aI00
aa(lp3274
I234378
aF329.43552
aF144.815
ag3271
aS'utopia'
p3275
aS'#656565'
p3276
aF8.88595
aI0
aI00
aI00
aI00
aI00
aI00
aI00
aI00
aI00
aa(lp3277
I96185
aF335.626
aF144.815
aVp3
p3278
aS'utopia'
p3279
aS'#434343'
p3280
aF8.88595
aI0
aI01
aI00
aI00
aI00
aI00
aI00
aI00
aI00
aa(lp3281
I166771
aF292.677
aF164.702
aVp3
p3282
aS'utopia'
p3283
aS'#656565'
p3284
aF10.3669
aI1
aI01
aI00
aI00
aI00
aI00
aI00
aI00
aI00
aa(lp3285
I74833
aF348.955
aF164.702
aVp3
p3286
aS'utopia'
p3287
aS'#656565'
p3288
aF10.3669
aI1
aI01
aI00
aI00
aI00
aI00
aI00
aI00
aI00
aa(lp3289
I233758
aF292.677
aF180.359
aVp3
p3290
aS'utopia'
p3291
aS'#656565'
p3292
aF8.88595
aI0
aI01
aI00
aI00
aI00
aI00
aI00
aI00
aI00
aa(lp3293
I234378
aF326.3488222222222
aF180.359
ag3290
aS'utopia'
p3294
aS'#656565'
p3295
aF8.88595
aI0
aI00
aI00
aI00
aI00
aI00
aI00
aI00
aI00
aa(lp3296
I230332
aF332.664
aF180.359
aVp3
p3297
aS'utopia'
p3298
aS'#434343'
p3299
aF8.88595
aI0
aI01
aI00
aI00
aI00
aI00
aI00
aI00
aI00
aa(lp3300
I151511
aF292.677
aF195.909
aVp3
p3301
aS'utopia'
p3302
aS'#656565'
p3303
aF8.88595
aI0
aI01
aI00
aI00
aI00
aI00
aI00
aI00
aI00
aa(lp3304
I234378
aF333.404
aF195.909
aVp3
p3305
aS'utopia'
p3306
aS'#656565'
p3307
aF8.88595
aI0
aI01
aI00
aI00
aI00
aI00
aI00
aI00
aI00
aa(lp3308
I234378
aF375.2460909090909
aF195.909
ag3305
aS'utopia'
p3309
aS'#656565'
p3310
aF8.88595
aI0
aI00
aI00
aI00
aI00
aI00
aI00
aI00
aI00
aa(lp3311
I201816
aF381.537
aF195.909
aVp3
p3312
aS'utopia'
p3313
aS'#434343'
p3314
aF8.88595
aI0
aI01
aI00
aI00
aI00
aI00
aI00
aI00
aI00
aa(lp3315
I1
aI0
aI0
aI0
aI0
aI0
aI0
aI0
aI0
aI0
aI0
aI0
aI0
aI0
aI0
aI0
aI0
aI0
aI0
aI0
aI0
aI0
aI0
aI0
aI0
aI0
aI0
aI0
aI0
aI0
aI0
aI0
aI0
aI0
aI0
aI0
aI0
aI0
aI0
aI0
aI0
aI0
aI0
aI0
aI0
aI0
aI0
aI0
aI0
aI0
aI0
aI0
aI0
aI0
aI0
aI0
aI0
aI0
aI0
aI0
aI0
aI0
aI0
aI0
aI0
aI0
aI0
aI0
aI0
aI0
aI0
aI0
aI0
aI0
aI0
aI0
aI0
aI0
aI0
aI0
aI0
aI0
aI0
aI0
aI0
aI0
aI0
aI0
aI0
aI0
aI0
aI0
aI0
aI0
aI0
aI0
aI0
aI0
aI0
aI0
aI0
aI0
aI0
aI0
aI0
aI0
aI0
aI0
aI0
aI0
aI0
aI0
aI0
aI0
aI0
aI0
aI0
aI0
aI0
aI0
aI0
aI0
aI0
aI0
aI0
aI0
aI0
aI0
aI0
aI0
aI0
aI1
aI1
aI0
aI0
aI0
aI0
aI0
aI0
aI0
aI0
aI0
aI0
aI0
aI0
aI0
aI0
aI0
aI0
aI0
aI0
aI0
aI0
aI0
aI0
aI0
aI0
aI0
aI0
aI0
aI0
aI0
aI0
aI0
aI0
aI0
aI0
aI0
aI0
aI0
aI0
aI0
aI0
aI0
aI0
aI0
aI0
aI0
aI0
aI0
aI0
aI0
aI0
aI0
aI0
aI0
aI0
aI0
aI0
aI0
aI0
aI0
aI0
aI0
aI0
aI0
aI0
aI0
aI0
aI0
aI0
aI0
aI0
aI0
aI0
aI0
aI0
aI0
aI0
aI0
aI0
aI0
aI0
aI0
aI0
aI0
aI0
aI0
aI0
aI0
aI0
aI0
aI0
aI0
aI0
aI0
aI0
aI0
aI0
aI0
aI0
aI0
aI0
aI0
aI0
aI0
aI0
aI0
aI0
aI0
aI0
aI0
aI0
aI0
aI0
aI0
aI0
aI0
aI0
aI0
aI0
aI0
aI0
aI0
aI0
aI0
aI0
aI0
aI0
aI0
aI0
aI0
aI0
aI0
aI0
aI0
aI0
aI0
aI0
aI0
aI0
aI0
aI0
aI0
aI0
aI0
aI0
aI0
aI0
aI0
aI0
aI0
aI0
aI0
aI0
aI0
aI0
aI0
aI0
aI0
aI0
aI0
aI0
aI0
aI0
aI0
aI0
aI0
aI0
aI0
aI0
aI0
aI0
aI0
aI0
aI0
aI0
aI0
aI0
aI0
aI0
aI0
aI0
aI0
aI0
aI0
aI0
aI0
aI0
aI0
aI0
aI0
aI0
aI0
aI0
aI0
aI0
aI0
aI0
aI0
aI0
aI0
aI0
aI0
aI0
aI0
aI0
aI0
aI0
aI0
aI0
aI0
aI0
aI0
aI0
aI0
aI0
aI0
aI0
aI0
aI0
aI0
aI0
aI0
aI0
aI0
aI0
aI0
aI0
aI0
aI0
aI0
aI0
aI0
aI0
aI0
aI0
aI0
aI0
aI0
aI0
aI0
aI0
aI0
aI0
aI0
aI0
aI0
aI0
aI0
aI0
aI0
aI0
aI0
aI0
aI0
aI0
aI0
aI0
aI0
aI0
aI0
aI0
aI0
aI0
aI0
aI0
aI0
aI0
aI0
aI0
aI0
aI0
aI0
aI0
aI0
aI0
aI0
aI0
aI0
aI0
aI0
aI0
aI0
aI0
aI0
aI0
aI0
aI0
aI0
aI0
aI0
aI0
aI0
aI0
aI0
aI0
aI0
aI0
aI0
aI0
aI0
aI0
aI0
aI0
aI0
aI0
aI0
aI0
aI0
aI0
aI0
aI0
aI0
aI0
aI0
aI0
aI0
aI0
aI0
aI0
aI0
aI0
aI0
aI0
aI0
aI0
aI0
aI0
aI0
aI0
aI0
aI0
aI0
aI0
aI0
aI0
aI0
aI0
aI0
aI0
aI0
aI0
aI0
aI0
aI0
aI0
aI0
aI0
aI0
aI0
aI0
aI0
aI0
aI0
aI0
aI0
aI0
aI0
aI0
aI0
aI0
aI0
aI0
aI0
aI0
aI0
aI0
aI0
aI0
aI0
aI0
aI0
aI0
aI0
aI0
aI0
aI0
aI0
aI0
aI0
aI0
aI0
aI0
aI0
aI0
aI0
aI0
aI0
aI0
aI0
aI0
aI0
aI0
aI0
aI0
aI0
aI0
aI0
aI0
aI0
aI0
aI0
aI0
aI0
aI0
aI0
aI0
aI0
aI1
aI0
aI0
aI0
aI0
aI0
aI0
aI0
aI0
aI0
aI0
aI0
aI0
aI0
aI0
aI0
aI0
aI0
aI0
aI0
aI0
aI0
aI0
aI0
aI0
aI0
aI0
aI0
aI0
aI0
aI0
aI0
aI0
aI0
aI0
aI0
aI0
aI0
aI0
aI0
aI0
aI0
aI0
aI0
aI0
aI0
aI0
aI0
aI0
aI0
aI1
aI1
aI0
aI0
aI0
aI0
aI0
aI0
aI0
aI0
aI0
aI0
aI0
aI0
aI0
aI0
aI0
aI0
aI0
aI0
aI0
aI0
aI0
aI0
aI0
aI0
aI0
aI0
aI0
aI0
aI0
aI0
aI0
aI1
aI1
aI0
aI0
aI0
aI0
aI0
aI0
aI0
aI1
aI0
aI0
aI0
aI0
aI0
aI0
aI0
aI0
aI0
aI0
aI0
aI0
aI0
aI0
aI0
aI0
aI0
aI0
aI0
aI0
aI0
aI0
aI0
aI0
aI0
aI0
aI0
aI0
aI0
aI0
aI0
aI0
aI0
aI0
aI0
aI0
aI0
aI0
aI0
aI0
aI0
aI0
aI0
aI0
aI0
aI0
aI0
aI0
aI0
aI0
aI0
aI0
aI0
aI0
aI0
aI0
aI0
aI0
aI0
aI0
aI0
aI0
aI0
aI0
aI0
aI0
aI0
aI0
aI0
aI0
aI0
aI0
aI0
aI0
aI0
aI0
aI0
aI0
aI0
aI0
aI0
aI0
aI0
aI0
aI0
aI0
aI0
aI0
aI0
aI0
aI0
aI0
aI0
aI0
aI0
aI0
aI0
aI0
aI0
aI0
aI0
aI0
aI0
aI0
aI0
aI0
aI0
aI0
aI0
aI0
aI0
aI0
aI0
aI0
aI0
aI0
aI0
aI0
aI0
aI0
aI0
aI0
aI0
aI0
aI0
aI0
aI0
aI0
aI0
aI0
aI0
aI0
aI0
aI0
aI0
aI0
aI0
aI0
aI0
aI0
aI0
aI0
aI0
aI0
aI0
aI0
aI0
aI0
aI0
aI0
aI0
aI0
aI0
aI0
aI0
aI0
aI0
aI0
aI0
aI0
aI0
aI0
aI0
aI0
aI0
aI0
aI0
aI0
aI0
aI0
aI0
aI0
aI0
aI0
aI1
aI1
aI0
aI0
aI0
aI0
aI0
aI0
aI0
aI0
aI0
aI0
aI0
aI0
aI0
aI0
aI0
aI0
aI0
aI0
aI0
aI0
aI0
aI0
aI0
aI0
aI0
aI0
aI0
aI0
aI0
aI0
aI0
aI0
aI0
aI0
aI0
aI0
aI0
aI0
aI0
aI0
aI0
aI0
aI0
aI0
aI0
aI0
aI0
aI0
aI0
aI0
aI0
aI0
aI0
aI0
aI0
aI0
aI0
aI0
aI0
aI0
aI0
atp3316
.