((lp0
(lp1
I234378
aF40.9084
aF53.0111
aVp1
p2
aS'utopia'
p3
aS'#02304b'
p4
aF11.8479
aI1
aI01
aI00
aI00
aI00
aI00
aI00
aI00
aI00
aa(lp5
I234378
aF82.3762
aF53.0111
aVp1
p6
aS'utopia'
p7
aS'#02304b'
p8
aF11.8479
aI1
aI01
aI00
aI00
aI00
aI00
aI00
aI00
aI00
aa(lp9
I234378
aF46.8324
aF74.4677
aVp1
p10
aS'utopia'
p11
aS'#656565'
p12
aF8.88595
aI0
aI01
aI00
aI00
aI00
aI00
aI00
aI00
aI00
aa(lp13
I68032
aF83.8572
aF74.4677
aVp1
p14
aS'utopia'
p15
aS'#656565'
p16
aF8.88595
aI0
aI01
aI00
aI00
aI00
aI00
aI00
aI00
aI00
aa(lp17
I132100
aF139.394
aF74.4677
aVp1
p18
aS'utopia'
p19
aS'#656565'
p20
aF8.88595
aI0
aI01
aI00
aI00
aI00
aI00
aI00
aI00
aI00
aa(lp21
I195547
aF180.122
aF74.4677
aVp1
p22
aS'utopia'
p23
aS'#656565'
p24
aF8.88595
aI0
aI01
aI00
aI00
aI00
aI00
aI00
aI00
aI00
aa(lp25
I135639
aF208.26
aF74.4677
aVp1
p26
aS'utopia'
p27
aS'#656565'
p28
aF8.88595
aI0
aI00
aI00
aI00
aI00
aI00
aI00
aI00
aI00
aa(lp29
I132957
aF217.887
aF74.4677
aVp1
p30
aS'utopia'
p31
aS'#656565'
p32
aF8.88595
aI0
aI01
aI00
aI00
aI00
aI00
aI00
aI00
aI00
aa(lp33
I234378
aF238.621
aF74.4677
aVp1
p34
aS'utopia'
p35
aS'#656565'
p36
aF8.88595
aI0
aI00
aI00
aI00
aI00
aI00
aI00
aI00
aI00
aa(lp37
I234378
aF280.65152380952384
aF74.4677
ag34
aS'utopia'
p38
aS'#656565'
p39
aF8.88595
aI0
aI00
aI00
aI00
aI00
aI00
aI00
aI00
aI00
aa(lp40
I234378
aF284.8545761904762
aF74.4677
ag34
aS'utopia'
p41
aS'#656565'
p42
aF8.88595
aI0
aI01
aI00
aI00
aI00
aI00
aI00
aI00
aI00
aa(lp43
I169745
aF328.961
aF74.4677
aVp1
p44
aS'utopia'
p45
aS'#656565'
p46
aF8.88595
aI0
aI00
aI00
aI00
aI00
aI00
aI00
aI00
aI00
aa(lp47
I234378
aF348.214
aF74.4677
aVp1
p48
aS'utopia'
p49
aS'#656565'
p50
aF8.88595
aI0
aI00
aI00
aI01
aI01
aI00
aI00
aI00
aI00
aa(lp51
I234378
aF354.879
aF74.4677
aVp1
p52
aS'utopia'
p53
aS'#656565'
p54
aF8.88595
aI0
aI00
aI00
aI00
aI00
aI00
aI00
aI00
aI00
aa(lp55
I60220
aF377.834
aF74.4677
aVp1
p56
aS'utopia'
p57
aS'#656565'
p58
aF8.88595
aI0
aI00
aI00
aI00
aI00
aI00
aI00
aI00
aI00
aa(lp59
I234378
aF59.4208
aF124.081
aVp1
p60
aS'utopia'
p61
aS'#0d75b4'
p62
aF8.88595
aI0
aI00
aI00
aI00
aI00
aI00
aI01
aI00
aI00
aa(lp63
I234378
aF301.563
aF124.081
aVp1
p64
aS'utopia'
p65
aS'#000000'
p66
aF8.88595
aI0
aI00
aI00
aI01
aI01
aI01
aI00
aI00
aI00
aa(lp67
I15548
aF55.7183
aF158.884
aVp1
p68
aS'utopia'
p69
aS'#878787'
p70
aF8.88595
aI0
aI01
aI00
aI00
aI00
aI00
aI00
aI00
aI00
aa(lp71
I104542
aF89.0407
aF158.884
aVp1
p72
aS'utopia'
p73
aS'#878787'
p74
aF8.88595
aI0
aI01
aI00
aI00
aI00
aI00
aI00
aI00
aI00
aa(lp75
I234378
aF133.94655
aF158.884
ag72
aS'utopia'
p76
aS'#878787'
p77
aF8.88595
aI0
aI00
aI00
aI00
aI00
aI00
aI00
aI00
aI00
aa(lp78
I234378
aF142.356
aF158.884
aVp1
p79
aS'utopia'
p80
aS'#000000'
p81
aF8.88595
aI0
aI01
aI00
aI00
aI00
aI00
aI00
aI00
aI00
aa(lp82
I68032
aF179.381
aF158.884
aVp1
p83
aS'utopia'
p84
aS'#000000'
p85
aF8.88595
aI0
aI01
aI00
aI00
aI00
aI00
aI00
aI00
aI00
aa(lp86
I132100
aF234.918
aF158.884
aVp1
p87
aS'utopia'
p88
aS'#000000'
p89
aF8.88595
aI0
aI01
aI00
aI00
aI00
aI00
aI00
aI00
aI00
aa(lp90
I234378
aF271.943
aF158.884
aVp1
p91
aS'utopia'
p92
aS'#000000'
p93
aF8.88595
aI0
aI01
aI01
aI00
aI00
aI00
aI00
aI00
aI00
aa(lp94
I15548
aF55.7183
aF176.656
aVp1
p95
aS'utopia'
p96
aS'#878787'
p97
aF8.88595
aI0
aI01
aI00
aI00
aI00
aI00
aI00
aI00
aI00
aa(lp98
I2006
aF89.0407
aF176.656
aVp1
p99
aS'utopia'
p100
aS'#878787'
p101
aF8.88595
aI0
aI01
aI00
aI00
aI00
aI00
aI00
aI00
aI00
aa(lp102
I234378
aF124.77815
aF176.656
ag99
aS'utopia'
p103
aS'#878787'
p104
aF8.88595
aI0
aI00
aI00
aI00
aI00
aI00
aI00
aI00
aI00
aa(lp105
I234378
aF134.211
aF176.656
aVp1
p106
aS'utopia'
p107
aS'#000000'
p108
aF8.88595
aI0
aI01
aI00
aI00
aI00
aI00
aI00
aI00
aI00
aa(lp109
I15548
aF55.7183
aF194.428
aVp1
p110
aS'utopia'
p111
aS'#878787'
p112
aF8.88595
aI0
aI01
aI00
aI00
aI00
aI00
aI00
aI00
aI00
aa(lp113
I17057
aF89.0407
aF194.428
aVp1
p114
aS'utopia'
p115
aS'#878787'
p116
aF8.88595
aI0
aI01
aI00
aI00
aI00
aI00
aI00
aI00
aI00
aa(lp117
I234378
aF122.05430000000001
aF194.428
ag114
aS'utopia'
p118
aS'#878787'
p119
aF8.88595
aI0
aI00
aI00
aI00
aI00
aI00
aI00
aI00
aI00
aa(lp120
I234378
aF130.508
aF194.428
aVp1
p121
aS'utopia'
p122
aS'#000000'
p123
aF8.88595
aI0
aI01
aI00
aI00
aI00
aI00
aI00
aI00
aI00
aa(lp124
I234378
aF173.457
aF194.428
aVp1
p125
aS'utopia'
p126
aS'#000000'
p127
aF8.88595
aI0
aI00
aI00
aI00
aI00
aI00
aI00
aI00
aI00
aa(lp128
I234378
aF180.122
aF194.428
aVp1
p129
aS'utopia'
p130
aS'#000000'
p131
aF8.88595
aI0
aI01
aI00
aI00
aI00
aI00
aI00
aI00
aI00
aa(lp132
I234378
aF55.7183
aF212.2
aVp1
p133
aS'utopia'
p134
aS'#878787'
p135
aF8.88595
aI0
aI01
aI00
aI00
aI00
aI00
aI00
aI00
aI00
aa(lp136
I234378
aF70.62062
aF212.2
ag133
aS'utopia'
p137
aS'#878787'
p138
aF8.88595
aI0
aI00
aI00
aI00
aI00
aI00
aI00
aI00
aI00
aa(lp139
I17057
aF76.4522
aF212.2
aVp1
p140
aS'utopia'
p141
aS'#878787'
p142
aF8.88595
aI0
aI01
aI00
aI00
aI00
aI00
aI00
aI00
aI00
aa(lp143
I234378
aF109.4658
aF212.2
ag140
aS'utopia'
p144
aS'#878787'
p145
aF8.88595
aI0
aI00
aI00
aI00
aI00
aI00
aI00
aI00
aI00
aa(lp146
I234378
aF117.92
aF212.2
aVp1
p147
aS'utopia'
p148
aS'#000000'
p149
aF8.88595
aI0
aI01
aI00
aI00
aI00
aI00
aI00
aI00
aI00
aa(lp150
I234378
aF160.869
aF212.2
aVp1
p151
aS'utopia'
p152
aS'#000000'
p153
aF8.88595
aI0
aI00
aI00
aI00
aI00
aI00
aI00
aI00
aI00
aa(lp154
I234378
aF167.533
aF212.2
aVp1
p155
aS'utopia'
p156
aS'#000000'
p157
aF8.88595
aI0
aI01
aI00
aI00
aI00
aI00
aI00
aI00
aI00
aa(lp158
I234378
aF205.62442
aF212.2
ag155
aS'utopia'
p159
aS'#000000'
p160
aF8.88595
aI0
aI00
aI00
aI00
aI00
aI00
aI00
aI00
aI00
aa(lp161
I234378
aF211.963
aF212.2
aVp1
p162
aS'utopia'
p163
aS'#000000'
p164
aF8.88595
aI0
aI01
aI00
aI00
aI00
aI00
aI00
aI00
aI00
aa(lp165
I234378
aF242.52811428571428
aF212.2
ag162
aS'utopia'
p166
aS'#000000'
p167
aF8.88595
aI0
aI00
aI00
aI00
aI00
aI00
aI00
aI00
aI00
aa(lp168
I234378
aF249.728
aF212.2
aVp1
p169
aS'utopia'
p170
aS'#000000'
p171
aF8.88595
aI0
aI01
aI00
aI00
aI00
aI00
aI00
aI00
aI00
aa(lp172
I98580
aF55.7183
aF229.972
aVp1
p173
aS'utopia'
p174
aS'#878787'
p175
aF8.88595
aI0
aI01
aI00
aI00
aI00
aI00
aI00
aI00
aI00
aa(lp176
I166289
aF100.148
aF229.972
aVp1
p177
aS'utopia'
p178
aS'#878787'
p179
aF8.88595
aI0
aI01
aI00
aI00
aI00
aI00
aI00
aI00
aI00
aa(lp180
I234378
aF116.82751999999999
aF229.972
ag177
aS'utopia'
p181
aS'#878787'
p182
aF8.88595
aI0
aI00
aI00
aI00
aI00
aI00
aI00
aI00
aI00
aa(lp183
I22476
aF125.325
aF229.972
aVp1
p184
aS'utopia'
p185
aS'#000000'
p186
aF8.88595
aI0
aI01
aI01
aI00
aI00
aI00
aI00
aI00
aI00
aa(lp187
I234378
aF135.692
aF229.972
aVp1
p188
aS'utopia'
p189
aS'#000000'
p190
aF8.88595
aI0
aI01
aI00
aI00
aI00
aI00
aI00
aI00
aI00
aa(lp191
I177271
aF178.641
aF229.972
aVp1
p192
aS'utopia'
p193
aS'#000000'
p194
aF8.88595
aI0
aI01
aI00
aI00
aI00
aI00
aI00
aI00
aI00
aa(lp195
I176435
aF55.7183
aF247.744
aVp1
p196
aS'utopia'
p197
aS'#878787'
p198
aF8.88595
aI0
aI01
aI00
aI00
aI00
aI00
aI00
aI00
aI00
aa(lp199
I234378
aF71.80542
aF247.744
ag196
aS'utopia'
p200
aS'#878787'
p201
aF8.88595
aI0
aI00
aI00
aI00
aI00
aI00
aI00
aI00
aI00
aa(lp202
I234378
aF80.1547
aF247.744
aVp1
p203
aS'utopia'
p204
aS'#000000'
p205
aF8.88595
aI0
aI01
aI00
aI00
aI00
aI00
aI00
aI00
aI00
aa(lp206
I100815
aF117.18
aF247.744
aVp1
p207
aS'utopia'
p208
aS'#000000'
p209
aF8.88595
aI0
aI01
aI00
aI00
aI00
aI00
aI00
aI00
aI00
aa(lp210
I74589
aF55.7183
aF265.516
aVp1
p211
aS'utopia'
p212
aS'#878787'
p213
aF8.88595
aI0
aI01
aI00
aI00
aI00
aI00
aI00
aI00
aI00
aa(lp214
I234378
aF87.41545555555555
aF265.516
ag211
aS'utopia'
p215
aS'#878787'
p216
aF8.88595
aI0
aI00
aI00
aI00
aI00
aI00
aI00
aI00
aI00
aa(lp217
I22476
aF95.7051
aF265.516
aVp1
p218
aS'utopia'
p219
aS'#000000'
p220
aF8.88595
aI0
aI01
aI01
aI00
aI00
aI00
aI00
aI00
aI00
aa(lp221
I234378
aF105.30374
aF265.516
ag218
aS'utopia'
p222
aS'#000000'
p223
aF8.88595
aI0
aI01
aI00
aI00
aI00
aI00
aI00
aI00
aI00
aa(lp224
I234378
aF139.69830000000002
aF265.516
ag218
aS'utopia'
p225
aS'#000000'
p226
aF8.88595
aI0
aI00
aI00
aI00
aI00
aI00
aI00
aI00
aI00
aa(lp227
I234378
aF134.99762
aF265.516
ag218
aS'utopia'
p228
aS'#000000'
p229
aF8.88595
aI0
aI01
aI00
aI00
aI00
aI00
aI00
aI00
aI00
aa(lp230
I234378
aF183.824
aF265.516
aVp1
p231
aS'utopia'
p232
aS'#000000'
p233
aF8.88595
aI0
aI01
aI00
aI00
aI00
aI00
aI00
aI00
aI00
aa(lp234
I231013
aF55.7183
aF283.288
aVp1
p235
aS'utopia'
p236
aS'#878787'
p237
aF8.88595
aI0
aI01
aI00
aI00
aI00
aI00
aI00
aI00
aI00
aa(lp238
I234378
aF72.7498
aF283.288
aVp1
p239
aS'utopia'
p240
aS'#878787'
p241
aF8.88595
aI0
aI01
aI00
aI00
aI00
aI00
aI00
aI00
aI00
aa(lp242
I234378
aF91.25542857142857
aF283.288
ag239
aS'utopia'
p243
aS'#878787'
p244
aF8.88595
aI0
aI00
aI00
aI00
aI00
aI00
aI00
aI00
aI00
aa(lp245
I21716
aF98.6671
aF283.288
aVp1
p246
aS'utopia'
p247
aS'#000000'
p248
aF8.88595
aI0
aI01
aI00
aI00
aI00
aI00
aI00
aI00
aI00
aa(lp249
I234378
aF117.18
aF283.288
aVp1
p250
aS'utopia'
p251
aS'#000000'
p252
aF8.88595
aI0
aI00
aI00
aI00
aI00
aI00
aI00
aI00
aI00
aa(lp253
I233063
aF121.622
aF283.288
aVp1
p254
aS'utopia'
p255
aS'#000000'
p256
aF8.88595
aI0
aI01
aI01
aI00
aI00
aI00
aI00
aI00
aI00
aa(lp257
I234378
aF140.135
aF283.288
aVp1
p258
aS'utopia'
p259
aS'#000000'
p260
aF8.88595
aI0
aI00
aI00
aI00
aI00
aI00
aI00
aI00
aI00
aa(lp261
I233063
aF146.799
aF283.288
aVp1
p262
aS'utopia'
p263
aS'#000000'
p264
aF8.88595
aI0
aI01
aI01
aI00
aI00
aI00
aI00
aI00
aI00
aa(lp265
I234378
aF154.945
aF283.288
aVp1
p266
aS'utopia'
p267
aS'#000000'
p268
aF8.88595
aI0
aI00
aI00
aI00
aI00
aI00
aI00
aI00
aI00
aa(lp269
I132957
aF159.388
aF283.288
aVp1
p270
aS'utopia'
p271
aS'#000000'
p272
aF8.88595
aI0
aI01
aI00
aI00
aI00
aI00
aI00
aI00
aI00
aa(lp273
I234378
aF180.122
aF283.288
aVp1
p274
aS'utopia'
p275
aS'#000000'
p276
aF8.88595
aI0
aI01
aI00
aI00
aI00
aI00
aI00
aI00
aI00
aa(lp277
I234378
aF219.27136363636365
aF283.288
ag274
aS'utopia'
p278
aS'#000000'
p279
aF8.88595
aI0
aI00
aI00
aI00
aI00
aI00
aI00
aI00
aI00
aa(lp280
I234378
aF225.292
aF283.288
aVp1
p281
aS'utopia'
p282
aS'#000000'
p283
aF8.88595
aI0
aI01
aI00
aI00
aI00
aI00
aI00
aI00
aI00
aa(lp284
I51933
aF40.1679
aF320.33
aVp1
p285
aS'utopia'
p286
aS'#02304b'
p287
aF11.8479
aI1
aI01
aI00
aI00
aI00
aI00
aI00
aI00
aI00
aa(lp288
I60220
aF72.0093
aF320.33
aVp1
p289
aS'utopia'
p290
aS'#02304b'
p291
aF11.8479
aI1
aI01
aI00
aI00
aI00
aI00
aI00
aI00
aI00
aa(lp292
I234378
aF40.9084
aF352.047
aVp1
p293
aS'utopia'
p294
aS'#000000'
p295
aF10.3669
aI1
aI01
aI00
aI00
aI00
aI00
aI00
aI00
aI00
aa(lp296
I234378
aF75.7117
aF352.317
aVp1
p297
aS'utopia'
p298
aS'#656565'
p299
aF10.3669
aI0
aI00
aI00
aI00
aI00
aI00
aI00
aI00
aI00
aa(lp300
I15548
aF80.68912499999999
aF352.317
ag297
aS'utopia'
p301
aS'#656565'
p302
aF10.3669
aI0
aI01
aI00
aI00
aI00
aI00
aI00
aI00
aI00
aa(lp303
I70289
aF117.92
aF352.317
aVp1
p304
aS'utopia'
p305
aS'#656565'
p306
aF10.3669
aI0
aI01
aI00
aI00
aI00
aI00
aI00
aI00
aI00
aa(lp307
I234378
aF161.26897777777776
aF352.317
ag304
aS'utopia'
p308
aS'#656565'
p309
aF10.3669
aI0
aI00
aI00
aI00
aI00
aI00
aI00
aI00
aI00
aa(lp310
I234378
aF40.9084
aF368.607
aVp1
p311
aS'utopia'
p312
aS'#656565'
p313
aF10.3669
aI0
aI01
aI00
aI00
aI00
aI00
aI00
aI00
aI00
aa(lp314
I68032
aF83.8572
aF368.607
aVp1
p315
aS'utopia'
p316
aS'#656565'
p317
aF10.3669
aI0
aI01
aI00
aI00
aI00
aI00
aI00
aI00
aI00
aa(lp318
I132100
aF150.502
aF368.607
aVp1
p319
aS'utopia'
p320
aS'#656565'
p321
aF10.3669
aI0
aI01
aI00
aI00
aI00
aI00
aI00
aI00
aI00
aa(lp322
I234378
aF194.191
aF368.607
aVp1
p323
aS'utopia'
p324
aS'#656565'
p325
aF10.3669
aI0
aI01
aI01
aI00
aI00
aI00
aI00
aI00
aI00
aa(lp326
I27216
aF208.26
aF368.607
aVp1
p327
aS'utopia'
p328
aS'#656565'
p329
aF10.3669
aI0
aI01
aI00
aI00
aI00
aI00
aI00
aI00
aI01
aa(lp330
I234378
aF226.773
aF368.607
aVp1
p331
aS'utopia'
p332
aS'#656565'
p333
aF10.3669
aI0
aI00
aI00
aI01
aI01
aI01
aI00
aI00
aI00
aa(lp334
I48671
aF40.9084
aF388.438
aVp1
p335
aS'utopia'
p336
aS'#656565'
p337
aF8.88595
aI0
aI01
aI00
aI00
aI00
aI00
aI00
aI00
aI00
aa(lp338
I129688
aF69.0473
aF388.438
aVp1
p339
aS'utopia'
p340
aS'#656565'
p341
aF8.88595
aI0
aI01
aI00
aI00
aI00
aI00
aI00
aI00
aI00
aa(lp342
I234378
aF97.1861
aF388.438
aVp1
p343
aS'utopia'
p344
aS'#656565'
p345
aF8.88595
aI0
aI00
aI00
aI00
aI00
aI00
aI00
aI00
aI00
aa(lp346
I234378
aF101.629
aF388.438
aVp1
p347
aS'utopia'
p348
aS'#656565'
p349
aF8.88595
aI0
aI00
aI00
aI01
aI01
aI00
aI00
aI00
aI00
aa(lp350
I234378
aF108.294
aF388.438
aVp1
p351
aS'utopia'
p352
aS'#656565'
p353
aF8.88595
aI0
aI01
aI00
aI00
aI00
aI00
aI00
aI00
aI00
aa(lp354
I234378
aF40.9084
aF421.654
aVp1
p355
aS'utopia'
p356
aS'#000000'
p357
aF10.3669
aI1
aI01
aI01
aI00
aI00
aI00
aI00
aI00
aI00
aa(lp358
I146209
aF40.9084
aF438.214
aVp1
p359
aS'utopia'
p360
aS'#656565'
p361
aF10.3669
aI0
aI01
aI00
aI00
aI00
aI00
aI00
aI00
aI00
aa(lp362
I149270
aF82.3762
aF438.214
aVp1
p363
aS'utopia'
p364
aS'#656565'
p365
aF10.3669
aI0
aI01
aI00
aI00
aI00
aI00
aI00
aI00
aI00
aa(lp366
I215197
aF131.249
aF438.214
aVp1
p367
aS'utopia'
p368
aS'#656565'
p369
aF10.3669
aI0
aI01
aI00
aI00
aI00
aI00
aI00
aI00
aI00
aa(lp370
I234378
aF158.647
aF438.214
aVp1
p371
aS'utopia'
p372
aS'#656565'
p373
aF10.3669
aI0
aI01
aI00
aI00
aI00
aI00
aI00
aI00
aI01
aa(lp374
I234378
aF178.641
aF438.214
aVp1
p375
aS'utopia'
p376
aS'#656565'
p377
aF10.3669
aI0
aI00
aI00
aI01
aI01
aI01
aI00
aI00
aI00
aa(lp378
I89480
aF201.596
aF438.214
aVp1
p379
aS'utopia'
p380
aS'#656565'
p381
aF10.3669
aI0
aI01
aI00
aI00
aI00
aI00
aI00
aI00
aI00
aa(lp382
I234378
aF216.406
aF438.214
aVp1
p383
aS'utopia'
p384
aS'#656565'
p385
aF10.3669
aI0
aI01
aI00
aI00
aI00
aI00
aI00
aI00
aI01
aa(lp386
I234378
aF231.216
aF438.214
aVp1
p387
aS'utopia'
p388
aS'#656565'
p389
aF10.3669
aI0
aI00
aI00
aI01
aI01
aI01
aI00
aI00
aI00
aa(lp390
I124531
aF40.1679
aF483.239
aVp1
p391
aS'utopia'
p392
aS'#02304b'
p393
aF11.8479
aI1
aI01
aI00
aI00
aI00
aI00
aI00
aI00
aI00
aa(lp394
I234378
aF40.9084
aF511.523
aVp1
p395
aS'utopia'
p396
aS'#656565'
p397
aF10.3669
aI0
aI01
aI00
aI00
aI00
aI00
aI00
aI00
aI00
aa(lp398
I234378
aF117.18
aF511.523
aVp1
p399
aS'utopia'
p400
aS'#656565'
p401
aF10.3669
aI0
aI00
aI00
aI00
aI00
aI00
aI00
aI00
aI00
aa(lp402
I60201
aF123.103
aF511.523
aVp1
p403
aS'utopia'
p404
aS'#656565'
p405
aF10.3669
aI0
aI01
aI00
aI00
aI00
aI00
aI00
aI00
aI00
aa(lp406
I230071
aF143.097
aF511.523
aVp1
p407
aS'utopia'
p408
aS'#656565'
p409
aF10.3669
aI0
aI01
aI00
aI00
aI00
aI00
aI00
aI00
aI00
aa(lp410
I234378
aF169.755
aF511.523
aVp1
p411
aS'utopia'
p412
aS'#656565'
p413
aF10.3669
aI0
aI00
aI00
aI00
aI00
aI00
aI00
aI00
aI00
aa(lp414
I27780
aF40.9084
aF527.545
aVp1
p415
aS'utopia'
p416
aS'#000000'
p417
aF10.3669
aI1
aI01
aI01
aI00
aI00
aI00
aI00
aI00
aI00
aa(lp418
I234378
aF46.15191818181818
aF527.545
ag415
aS'utopia'
p419
aS'#000000'
p420
aF10.3669
aI1
aI00
aI00
aI00
aI00
aI00
aI00
aI00
aI00
aa(lp421
I2737
aF51.395436363636364
aF527.545
ag415
aS'utopia'
p422
aS'#000000'
p423
aF10.3669
aI1
aI01
aI00
aI00
aI00
aI00
aI00
aI00
aI00
aa(lp424
I234378
aF72.36950909090909
aF527.545
ag415
aS'utopia'
p425
aS'#000000'
p426
aF10.3669
aI1
aI00
aI00
aI00
aI00
aI00
aI00
aI00
aI00
aa(lp427
I27780
aF70.61302727272727
aF527.545
ag415
aS'utopia'
p428
aS'#000000'
p429
aF10.3669
aI1
aI01
aI01
aI00
aI00
aI00
aI00
aI00
aI00
aa(lp430
I234378
aF75.85654545454545
aF527.545
ag415
aS'utopia'
p431
aS'#000000'
p432
aF10.3669
aI1
aI00
aI00
aI00
aI00
aI00
aI00
aI00
aI00
aa(lp433
I64620
aF88.10006363636364
aF527.545
ag415
aS'utopia'
p434
aS'#000000'
p435
aF10.3669
aI1
aI01
aI01
aI00
aI00
aI00
aI00
aI00
aI00
aa(lp436
I234378
aF84.34358181818183
aF527.545
ag415
aS'utopia'
p437
aS'#000000'
p438
aF10.3669
aI1
aI00
aI00
aI00
aI00
aI00
aI00
aI00
aI00
aa(lp439
I234378
aF100.889
aF527.545
aVp1
p440
aS'utopia'
p441
aS'#000000'
p442
aF10.3669
aI1
aI00
aI00
aI00
aI00
aI00
aI00
aI00
aI00
aa(lp443
I234378
aF106.48095454545454
aF527.545
ag440
aS'utopia'
p444
aS'#000000'
p445
aF10.3669
aI1
aI01
aI00
aI00
aI00
aI00
aI00
aI00
aI00
aa(lp446
I234378
aF156.80854545454542
aF527.545
ag440
aS'utopia'
p447
aS'#000000'
p448
aF10.3669
aI1
aI00
aI00
aI00
aI00
aI00
aI00
aI00
aI00
aa(lp449
I25058
aF40.9084
aF547.807
aVp1
p450
aS'utopia'
p451
aS'#656565'
p452
aF10.3669
aI0
aI01
aI00
aI00
aI00
aI00
aI00
aI00
aI00
aa(lp453
I51981
aF83.8572
aF547.807
aVp1
p454
aS'utopia'
p455
aS'#656565'
p456
aF10.3669
aI0
aI01
aI00
aI00
aI00
aI00
aI00
aI00
aI00
aa(lp457
I144489
aF126.065
aF547.807
aVp1
p458
aS'utopia'
p459
aS'#656565'
p460
aF10.3669
aI0
aI00
aI00
aI00
aI00
aI00
aI00
aI00
aI00
aa(lp461
I43052
aF137.173
aF547.807
aVp1
p462
aS'utopia'
p463
aS'#656565'
p464
aF10.3669
aI0
aI01
aI00
aI00
aI00
aI00
aI00
aI00
aI00
aa(lp465
I234378
aF194.932
aF547.807
aVp1
p466
aS'utopia'
p467
aS'#656565'
p468
aF10.3669
aI0
aI00
aI00
aI00
aI00
aI00
aI00
aI00
aI00
aa(lp469
I106826
aF199.7059833333333
aF547.807
ag466
aS'utopia'
p470
aS'#656565'
p471
aF10.3669
aI0
aI01
aI01
aI00
aI00
aI00
aI00
aI00
aI00
aa(lp472
I234378
aF214.0279333333333
aF547.807
ag466
aS'utopia'
p473
aS'#656565'
p474
aF10.3669
aI0
aI00
aI00
aI00
aI00
aI00
aI00
aI00
aI00
aa(lp475
I234378
aF218.8019166666666
aF547.807
ag466
aS'utopia'
p476
aS'#656565'
p477
aF10.3669
aI0
aI00
aI00
aI00
aI00
aI00
aI00
aI00
aI00
aa(lp478
I234378
aF226.032
aF547.807
aVp1
p479
aS'utopia'
p480
aS'#656565'
p481
aF10.3669
aI0
aI01
aI00
aI00
aI00
aI00
aI00
aI00
aI00
aa(lp482
I135639
aF276.386
aF547.807
aVp1
p483
aS'utopia'
p484
aS'#656565'
p485
aF10.3669
aI0
aI00
aI00
aI00
aI00
aI00
aI00
aI00
aI00
aa(lp486
I234378
aF288.234
aF547.807
aVp1
p487
aS'utopia'
p488
aS'#656565'
p489
aF10.3669
aI0
aI00
aI00
aI01
aI01
aI01
aI00
aI00
aI00
aa(lp490
I22476
aF40.1679
aF581.725
aVp1
p491
aS'utopia'
p492
aS'#02304b'
p493
aF11.8479
aI1
aI01
aI01
aI00
aI00
aI00
aI00
aI00
aI00
aa(lp494
I234378
aF54.2374
aF581.725
aVp1
p495
aS'utopia'
p496
aS'#02304b'
p497
aF11.8479
aI1
aI01
aI00
aI00
aI00
aI00
aI00
aI00
aI00
aa(lp498
I201816
aF40.9084
aF609.846
aVp1
p499
aS'utopia'
p500
aS'#000000'
p501
aF8.88595
aI0
aI01
aI00
aI00
aI00
aI00
aI00
aI00
aI00
aa(lp502
I22476
aF54.9779
aF609.846
aVp1
p503
aS'utopia'
p504
aS'#000000'
p505
aF8.88595
aI0
aI01
aI01
aI00
aI00
aI00
aI00
aI00
aI00
aa(lp506
I234378
aF65.3448
aF609.846
aVp1
p507
aS'utopia'
p508
aS'#000000'
p509
aF8.88595
aI0
aI01
aI00
aI00
aI00
aI00
aI00
aI00
aI00
aa(lp510
I86196
aF86.8192
aF609.846
aVp1
p511
aS'utopia'
p512
aS'#000000'
p513
aF8.88595
aI0
aI00
aI00
aI00
aI00
aI00
aI00
aI00
aI00
aa(lp514
I195166
aF40.1679
aF663.92
aVp1
p515
aS'utopia'
p516
aS'#02304b'
p517
aF11.8479
aI1
aI01
aI00
aI00
aI00
aI00
aI00
aI00
aI00
aa(lp518
I136346
aF96.4456
aF663.92
aVp1
p519
aS'utopia'
p520
aS'#02304b'
p521
aF11.8479
aI1
aI01
aI00
aI00
aI00
aI00
aI00
aI00
aI00
aa(lp522
I201816
aF40.9084
aF692.041
aVp1
p523
aS'utopia'
p524
aS'#000000'
p525
aF8.88595
aI0
aI01
aI00
aI00
aI00
aI00
aI00
aI00
aI00
aa(lp526
I234378
aF54.9779
aF692.041
aVp1
p527
aS'utopia'
p528
aS'#000000'
p529
aF8.88595
aI0
aI01
aI00
aI00
aI00
aI00
aI00
aI00
aI00
aa(lp530
I47284
aF98.6671
aF692.041
aVp1
p531
aS'utopia'
p532
aS'#000000'
p533
aF8.88595
aI0
aI01
aI00
aI00
aI00
aI00
aI00
aI00
aI00
aa(lp534
I234378
aF40.1679
aF726.862
aVp1
p535
aS'utopia'
p536
aS'#02304b'
p537
aF11.8479
aI1
aI01
aI00
aI00
aI00
aI00
aI00
aI00
aI00
aa(lp538
I201816
aF40.9084
aF758.686
aVp1
p539
aS'utopia'
p540
aS'#000000'
p541
aF8.88595
aI0
aI01
aI00
aI00
aI00
aI00
aI00
aI00
aI00
aa(lp542
I234378
aF54.9779
aF758.686
aVp1
p543
aS'utopia'
p544
aS'#000000'
p545
aF8.88595
aI0
aI01
aI00
aI00
aI00
aI00
aI00
aI00
aI00
aa(lp546
I86196
aF89.0407
aF758.686
aVp1
p547
aS'utopia'
p548
aS'#000000'
p549
aF8.88595
aI0
aI01
aI00
aI00
aI00
aI00
aI00
aI00
aI00
aa(lp550
I177271
aF40.1679
aF34.4987
aVp2
p551
aS'utopia'
p552
aS'#02304b'
p553
aF11.8479
aI1
aI01
aI00
aI00
aI00
aI00
aI00
aI00
aI00
aa(lp554
I234378
aF74.2307
aF34.4987
aVp2
p555
aS'utopia'
p556
aS'#02304b'
p557
aF11.8479
aI1
aI01
aI00
aI00
aI00
aI00
aI00
aI00
aI00
aa(lp558
I7520
aF49.0539
aF55.1082
aVp2
p559
aS'utopia'
p560
aS'#656565'
p561
aF10.3669
aI1
aI01
aI00
aI00
aI00
aI00
aI00
aI00
aI00
aa(lp562
I10865
aF93.4836
aF55.1082
aVp2
p563
aS'utopia'
p564
aS'#656565'
p565
aF10.3669
aI1
aI01
aI00
aI00
aI00
aI00
aI00
aI00
aI00
aa(lp566
I132955
aF49.0539
aF70.7652
aVp2
p567
aS'utopia'
p568
aS'#656565'
p569
aF8.88595
aI0
aI01
aI00
aI00
aI00
aI00
aI00
aI00
aI00
aa(lp570
I144489
aF69.7878
aF70.7652
aVp2
p571
aS'utopia'
p572
aS'#656565'
p573
aF8.88595
aI0
aI00
aI00
aI00
aI00
aI00
aI00
aI00
aI00
aa(lp574
I132529
aF80.1547
aF70.7652
aVp2
p575
aS'utopia'
p576
aS'#656565'
p577
aF8.88595
aI0
aI01
aI00
aI00
aI00
aI00
aI00
aI00
aI00
aa(lp578
I234378
aF98.76336666666667
aF70.7652
ag575
aS'utopia'
p579
aS'#656565'
p580
aF8.88595
aI0
aI00
aI00
aI00
aI00
aI00
aI00
aI00
aI00
aa(lp581
I63091
aF104.591
aF70.7652
aVp2
p582
aS'utopia'
p583
aS'#434343'
p584
aF8.88595
aI0
aI01
aI00
aI00
aI00
aI00
aI00
aI00
aI00
aa(lp585
I234378
aF121.622
aF70.7652
aVp2
p586
aS'utopia'
p587
aS'#434343'
p588
aF8.88595
aI0
aI01
aI00
aI00
aI00
aI00
aI00
aI00
aI00
aa(lp589
I108944
aF49.0539
aF86.3156
aVp2
p590
aS'utopia'
p591
aS'#656565'
p592
aF8.88595
aI0
aI01
aI00
aI00
aI00
aI00
aI00
aI00
aI00
aa(lp593
I234378
aF76.44544285714287
aF86.3156
ag590
aS'utopia'
p594
aS'#656565'
p595
aF8.88595
aI0
aI00
aI00
aI00
aI00
aI00
aI00
aI00
aI00
aa(lp596
I104428
aF83.1167
aF86.3156
aVp2
p597
aS'utopia'
p598
aS'#434343'
p599
aF8.88595
aI0
aI01
aI00
aI00
aI00
aI00
aI00
aI00
aI00
aa(lp600
I212271
aF49.0539
aF101.866
aVp2
p601
aS'utopia'
p602
aS'#656565'
p603
aF8.88595
aI0
aI01
aI00
aI00
aI00
aI00
aI00
aI00
aI00
aa(lp604
I12510
aF79.4142
aF101.866
aVp2
p605
aS'utopia'
p606
aS'#656565'
p607
aF8.88595
aI0
aI01
aI00
aI00
aI00
aI00
aI00
aI00
aI00
aa(lp608
I234378
aF101.72811428571428
aF101.866
ag605
aS'utopia'
p609
aS'#656565'
p610
aF8.88595
aI0
aI00
aI00
aI00
aI00
aI00
aI00
aI00
aI00
aa(lp611
I63091
aF107.553
aF101.866
aVp2
p612
aS'utopia'
p613
aS'#434343'
p614
aF8.88595
aI0
aI01
aI00
aI00
aI00
aI00
aI00
aI00
aI00
aa(lp615
I234378
aF124.584
aF101.866
aVp2
p616
aS'utopia'
p617
aS'#434343'
p618
aF8.88595
aI0
aI01
aI00
aI00
aI00
aI00
aI00
aI00
aI00
aa(lp619
I118366
aF49.0539
aF121.753
aVp2
p620
aS'utopia'
p621
aS'#656565'
p622
aF10.3669
aI1
aI01
aI00
aI00
aI00
aI00
aI00
aI00
aI00
aa(lp623
I234378
aF83.97235
aF121.753
ag620
aS'utopia'
p624
aS'#656565'
p625
aF10.3669
aI1
aI00
aI00
aI00
aI00
aI00
aI00
aI00
aI00
aa(lp626
I85663
aF49.0539
aF134.448
aVp2
p627
aS'utopia'
p628
aS'#000000'
p629
aF8.88595
aI0
aI01
aI00
aI00
aI00
aI00
aI00
aI00
aI00
aa(lp630
I201816
aF77.1927
aF134.448
aVp2
p631
aS'utopia'
p632
aS'#000000'
p633
aF8.88595
aI0
aI01
aI00
aI00
aI00
aI00
aI00
aI00
aI00
aa(lp634
I234378
aF91.2621
aF134.448
aVp2
p635
aS'utopia'
p636
aS'#000000'
p637
aF8.88595
aI0
aI00
aI00
aI01
aI01
aI01
aI00
aI00
aI00
aa(lp638
I234378
aF106.813
aF134.448
aVp2
p639
aS'utopia'
p640
aS'#000000'
p641
aF8.88595
aI0
aI01
aI00
aI00
aI00
aI00
aI00
aI00
aI00
aa(lp642
I234378
aF117.8227
aF134.448
ag639
aS'utopia'
p643
aS'#000000'
p644
aF8.88595
aI0
aI00
aI00
aI00
aI00
aI00
aI00
aI00
aI00
aa(lp645
I131239
aF123.32755
aF134.448
ag639
aS'utopia'
p646
aS'#000000'
p647
aF8.88595
aI0
aI01
aI01
aI00
aI00
aI00
aI00
aI00
aI00
aa(lp648
I234378
aF49.0539
aF144.815
aVp2
p649
aS'utopia'
p650
aS'#000000'
p651
aF8.88595
aI0
aI01
aI00
aI00
aI00
aI00
aI00
aI00
aI00
aa(lp652
I234378
aF94.2241
aF144.815
aVp2
p653
aS'utopia'
p654
aS'#000000'
p655
aF8.88595
aI0
aI01
aI00
aI00
aI00
aI00
aI00
aI00
aI00
aa(lp656
I111618
aF125.325
aF144.815
aVp2
p657
aS'utopia'
p658
aS'#000000'
p659
aF8.88595
aI0
aI01
aI00
aI00
aI00
aI00
aI00
aI00
aI00
aa(lp660
I234378
aF49.0539
aF155.182
aVp2
p661
aS'utopia'
p662
aS'#000000'
p663
aF8.88595
aI0
aI00
aI00
aI01
aI01
aI01
aI00
aI00
aI00
aa(lp664
I182663
aF49.0539
aF168.511
aVp2
p665
aS'utopia'
p666
aS'#656565'
p667
aF8.88595
aI0
aI01
aI00
aI00
aI00
aI00
aI00
aI00
aI00
aa(lp668
I82279
aF76.4522
aF168.511
aVp2
p669
aS'utopia'
p670
aS'#656565'
p671
aF8.88595
aI0
aI01
aI00
aI00
aI00
aI00
aI00
aI00
aI00
aa(lp672
I234378
aF96.09372
aF168.511
ag669
aS'utopia'
p673
aS'#656565'
p674
aF8.88595
aI0
aI00
aI00
aI00
aI00
aI00
aI00
aI00
aI00
aa(lp675
I63394
aF103.11
aF168.511
aVp2
p676
aS'utopia'
p677
aS'#000000'
p678
aF8.88595
aI0
aI01
aI00
aI00
aI00
aI00
aI00
aI00
aI00
aa(lp679
I16915
aF308.227
aF158.884
aVp1
p680
aS'utopia'
p681
aS'#878787'
p682
aF8.88595
aI0
aI01
aI00
aI00
aI00
aI00
aI00
aI00
aI00
aa(lp683
I60220
aF330.442
aF158.884
aVp1
p684
aS'utopia'
p685
aS'#878787'
p686
aF8.88595
aI0
aI01
aI00
aI00
aI00
aI00
aI00
aI00
aI00
aa(lp687
I234378
aF372.28409090909093
aF158.884
ag684
aS'utopia'
p688
aS'#878787'
p689
aF8.88595
aI0
aI00
aI00
aI00
aI00
aI00
aI00
aI00
aI00
aa(lp690
I234378
aF380.796
aF158.884
aVp1
p691
aS'utopia'
p692
aS'#000000'
p693
aF8.88595
aI0
aI00
aI00
aI01
aI01
aI00
aI00
aI00
aI00
aa(lp694
I91136
aF387.46
aF158.884
aVp1
p695
aS'utopia'
p696
aS'#000000'
p697
aF8.88595
aI0
aI01
aI00
aI00
aI00
aI00
aI00
aI00
aI00
aa(lp698
I234378
aF403.18559999999997
aF158.884
ag695
aS'utopia'
p699
aS'#000000'
p700
aF8.88595
aI0
aI00
aI00
aI00
aI00
aI00
aI00
aI00
aI00
aa(lp701
I59734
aF407.11699999999996
aF158.884
ag695
aS'utopia'
p702
aS'#000000'
p703
aF8.88595
aI0
aI00
aI00
aI00
aI00
aI00
aI00
aI00
aI00
aa(lp704
I234378
aF411.04839999999996
aF158.884
ag695
aS'utopia'
p705
aS'#000000'
p706
aF8.88595
aI0
aI00
aI00
aI00
aI00
aI00
aI00
aI00
aI00
aa(lp707
I234378
aF417.08
aF158.884
aVp1
p708
aS'utopia'
p709
aS'#000000'
p710
aF8.88595
aI0
aI00
aI00
aI01
aI01
aI00
aI00
aI00
aI00
aa(lp711
I63729
aF423.745
aF158.884
aVp1
p712
aS'utopia'
p713
aS'#000000'
p714
aF8.88595
aI0
aI01
aI00
aI00
aI00
aI00
aI00
aI00
aI00
aa(lp715
I234378
aF446.4985625
aF158.884
ag712
aS'utopia'
p716
aS'#000000'
p717
aF8.88595
aI0
aI00
aI00
aI00
aI00
aI00
aI00
aI00
aI00
aa(lp718
I59734
aF451.04927499999997
aF158.884
ag712
aS'utopia'
p719
aS'#000000'
p720
aF8.88595
aI0
aI00
aI00
aI00
aI00
aI00
aI00
aI00
aI00
aa(lp721
I234378
aF455.59998749999994
aF158.884
ag712
aS'utopia'
p722
aS'#000000'
p723
aF8.88595
aI0
aI00
aI00
aI00
aI00
aI00
aI00
aI00
aI00
aa(lp724
I229300
aF308.227
aF176.656
aVp1
p725
aS'utopia'
p726
aS'#878787'
p727
aF8.88595
aI0
aI01
aI00
aI00
aI00
aI00
aI00
aI00
aI00
aa(lp728
I78894
aF338.588
aF176.656
aVp1
p729
aS'utopia'
p730
aS'#878787'
p731
aF8.88595
aI0
aI01
aI00
aI00
aI00
aI00
aI00
aI00
aI00
aa(lp732
I234378
aF360.9019142857143
aF176.656
ag729
aS'utopia'
p733
aS'#878787'
p734
aF8.88595
aI0
aI00
aI00
aI00
aI00
aI00
aI00
aI00
aI00
aa(lp735
I234378
aF368.948
aF176.656
aVp1
p736
aS'utopia'
p737
aS'#000000'
p738
aF8.88595
aI0
aI01
aI00
aI00
aI00
aI00
aI00
aI00
aI00
aa(lp739
I234378
aF380.796
aF176.656
aVp1
p740
aS'utopia'
p741
aS'#000000'
p742
aF8.88595
aI0
aI00
aI00
aI01
aI01
aI01
aI00
aI00
aI00
aa(lp743
I234378
aF391.903
aF176.656
aVp1
p744
aS'utopia'
p745
aS'#000000'
p746
aF8.88595
aI0
aI01
aI00
aI00
aI00
aI00
aI00
aI00
aI00
aa(lp747
I234378
aF308.227
aF194.428
aVp1
p748
aS'utopia'
p749
aS'#878787'
p750
aF8.88595
aI0
aI01
aI00
aI00
aI00
aI00
aI00
aI00
aI00
aa(lp751
I234378
aF346.733
aF194.428
aVp1
p752
aS'utopia'
p753
aS'#878787'
p754
aF8.88595
aI0
aI01
aI01
aI00
aI00
aI00
aI00
aI00
aI00
aa(lp755
I234378
aF361.2593
aF194.428
ag752
aS'utopia'
p756
aS'#878787'
p757
aF8.88595
aI0
aI00
aI00
aI00
aI00
aI00
aI00
aI00
aI00
aa(lp758
I63091
aF370.429
aF194.428
aVp1
p759
aS'utopia'
p760
aS'#000000'
p761
aF8.88595
aI0
aI01
aI00
aI00
aI00
aI00
aI00
aI00
aI00
aa(lp762
I234378
aF387.46
aF194.428
aVp1
p763
aS'utopia'
p764
aS'#000000'
p765
aF8.88595
aI0
aI01
aI00
aI00
aI00
aI00
aI00
aI00
aI00
aa(lp766
I7204
aF308.227
aF212.2
aVp1
p767
aS'utopia'
p768
aS'#878787'
p769
aF8.88595
aI0
aI01
aI00
aI00
aI00
aI00
aI00
aI00
aI00
aa(lp770
I189220
aF340.809
aF212.2
aVp1
p771
aS'utopia'
p772
aS'#878787'
p773
aF8.88595
aI0
aI01
aI00
aI00
aI00
aI00
aI00
aI00
aI00
aa(lp774
I234378
aF366.93111428571433
aF212.2
ag771
aS'utopia'
p775
aS'#878787'
p776
aF8.88595
aI0
aI00
aI00
aI00
aI00
aI00
aI00
aI00
aI00
aa(lp777
I27780
aF375.613
aF212.2
aVp1
p778
aS'utopia'
p779
aS'#000000'
p780
aF8.88595
aI0
aI01
aI01
aI00
aI00
aI00
aI00
aI00
aI00
aa(lp781
I234378
aF379.93184545454545
aF212.2
ag778
aS'utopia'
p782
aS'#000000'
p783
aF8.88595
aI0
aI00
aI00
aI00
aI00
aI00
aI00
aI00
aI00
aa(lp784
I2737
aF384.2506909090909
aF212.2
ag778
aS'utopia'
p785
aS'#000000'
p786
aF8.88595
aI0
aI01
aI00
aI00
aI00
aI00
aI00
aI00
aI00
aa(lp787
I234378
aF401.5260727272727
aF212.2
ag778
aS'utopia'
p788
aS'#000000'
p789
aF8.88595
aI0
aI00
aI00
aI00
aI00
aI00
aI00
aI00
aI00
aa(lp790
I27780
aF398.8449181818182
aF212.2
ag778
aS'utopia'
p791
aS'#000000'
p792
aF8.88595
aI0
aI01
aI01
aI00
aI00
aI00
aI00
aI00
aI00
aa(lp793
I234378
aF403.1637636363636
aF212.2
ag778
aS'utopia'
p794
aS'#000000'
p795
aF8.88595
aI0
aI00
aI00
aI00
aI00
aI00
aI00
aI00
aI00
aa(lp796
I64620
aF414.4826090909091
aF212.2
ag778
aS'utopia'
p797
aS'#000000'
p798
aF8.88595
aI0
aI01
aI01
aI00
aI00
aI00
aI00
aI00
aI00
aa(lp799
I234378
aF409.80145454545453
aF212.2
ag778
aS'utopia'
p800
aS'#000000'
p801
aF8.88595
aI0
aI00
aI00
aI00
aI00
aI00
aI00
aI00
aI00
aa(lp802
I48671
aF308.227
aF229.972
aVp1
p803
aS'utopia'
p804
aS'#878787'
p805
aF8.88595
aI0
aI01
aI00
aI00
aI00
aI00
aI00
aI00
aI00
aa(lp806
I129688
aF336.366
aF229.972
aVp1
p807
aS'utopia'
p808
aS'#878787'
p809
aF8.88595
aI0
aI00
aI00
aI00
aI00
aI00
aI00
aI00
aI00
aa(lp810
I234378
aF360.58405714285715
aF229.972
ag807
aS'utopia'
p811
aS'#878787'
p812
aF8.88595
aI0
aI00
aI00
aI00
aI00
aI00
aI00
aI00
aI00
aa(lp813
I234378
aF368.948
aF229.972
aVp1
p814
aS'utopia'
p815
aS'#000000'
p816
aF8.88595
aI0
aI00
aI00
aI01
aI01
aI00
aI00
aI00
aI00
aa(lp817
I234378
aF375.613
aF229.972
aVp1
p818
aS'utopia'
p819
aS'#000000'
p820
aF8.88595
aI0
aI01
aI00
aI00
aI00
aI00
aI00
aI00
aI00
aa(lp821
I86794
aF293.418
aF63.2536
aVp2
p822
aS'utopia'
p823
aS'#656565'
p824
aF10.3669
aI1
aI01
aI00
aI00
aI00
aI00
aI00
aI00
aI00
aa(lp825
I131455
aF331.923
aF63.2536
aVp2
p826
aS'utopia'
p827
aS'#656565'
p828
aF10.3669
aI1
aI01
aI00
aI00
aI00
aI00
aI00
aI00
aI00
aa(lp829
I234378
aF349.695
aF63.2536
aVp2
p830
aS'utopia'
p831
aS'#656565'
p832
aF10.3669
aI1
aI01
aI00
aI00
aI00
aI00
aI00
aI00
aI00
aa(lp833
I131455
aF293.418
aF78.9107
aVp2
p834
aS'utopia'
p835
aS'#656565'
p836
aF8.88595
aI0
aI01
aI00
aI00
aI00
aI00
aI00
aI00
aI00
aa(lp837
I197416
aF308.968
aF78.9107
aVp2
p838
aS'utopia'
p839
aS'#656565'
p840
aF8.88595
aI0
aI01
aI00
aI00
aI00
aI00
aI00
aI00
aI00
aa(lp841
I234378
aF326.23992000000004
aF78.9107
ag838
aS'utopia'
p842
aS'#656565'
p843
aF8.88595
aI0
aI00
aI00
aI00
aI00
aI00
aI00
aI00
aI00
aa(lp844
I28425
aF332.664
aF78.9107
aVp2
p845
aS'utopia'
p846
aS'#434343'
p847
aF8.88595
aI0
aI01
aI00
aI00
aI00
aI00
aI00
aI00
aI00
aa(lp848
I72722
aF293.418
aF94.4611
aVp2
p849
aS'utopia'
p850
aS'#656565'
p851
aF8.88595
aI0
aI01
aI00
aI00
aI00
aI00
aI00
aI00
aI00
aa(lp852
I12510
aF346.733
aF94.4611
aVp2
p853
aS'utopia'
p854
aS'#656565'
p855
aF8.88595
aI0
aI01
aI00
aI00
aI00
aI00
aI00
aI00
aI00
aa(lp856
I234378
aF369.0469142857143
aF94.4611
ag853
aS'utopia'
p857
aS'#656565'
p858
aF8.88595
aI0
aI00
aI00
aI00
aI00
aI00
aI00
aI00
aI00
aa(lp859
I60201
aF374.872
aF94.4611
aVp2
p860
aS'utopia'
p861
aS'#434343'
p862
aF8.88595
aI0
aI01
aI00
aI00
aI00
aI00
aI00
aI00
aI00
aa(lp863
I230071
aF391.903
aF94.4611
aVp2
p864
aS'utopia'
p865
aS'#434343'
p866
aF8.88595
aI0
aI01
aI00
aI00
aI00
aI00
aI00
aI00
aI00
aa(lp867
I51933
aF293.418
aF114.348
aVp2
p868
aS'utopia'
p869
aS'#656565'
p870
aF10.3669
aI1
aI01
aI00
aI00
aI00
aI00
aI00
aI00
aI00
aa(lp871
I62768
aF321.556
aF114.348
aVp2
p872
aS'utopia'
p873
aS'#656565'
p874
aF10.3669
aI1
aI01
aI00
aI00
aI00
aI00
aI00
aI00
aI00
aa(lp875
I31679
aF293.418
aF130.005
aVp2
p876
aS'utopia'
p877
aS'#656565'
p878
aF8.88595
aI0
aI01
aI01
aI00
aI00
aI00
aI00
aI00
aI00
aa(lp879
I51933
aF306.746
aF130.005
aVp2
p880
aS'utopia'
p881
aS'#656565'
p882
aF8.88595
aI0
aI01
aI00
aI00
aI00
aI00
aI00
aI00
aI00
aa(lp883
I12510
aF330.442
aF130.005
aVp2
p884
aS'utopia'
p885
aS'#656565'
p886
aF8.88595
aI0
aI01
aI00
aI00
aI00
aI00
aI00
aI00
aI00
aa(lp887
I234378
aF352.7559142857143
aF130.005
ag884
aS'utopia'
p888
aS'#656565'
p889
aF8.88595
aI0
aI00
aI00
aI00
aI00
aI00
aI00
aI00
aI00
aa(lp890
I63091
aF358.581
aF130.005
aVp2
p891
aS'utopia'
p892
aS'#434343'
p893
aF8.88595
aI0
aI01
aI00
aI00
aI00
aI00
aI00
aI00
aI00
aa(lp894
I234378
aF375.613
aF130.005
aVp2
p895
aS'utopia'
p896
aS'#434343'
p897
aF8.88595
aI0
aI01
aI00
aI00
aI00
aI00
aI00
aI00
aI00
aa(lp898
I234378
aF293.418
aF145.555
aVp2
p899
aS'utopia'
p900
aS'#656565'
p901
aF8.88595
aI0
aI01
aI00
aI00
aI00
aI00
aI00
aI00
aI00
aa(lp902
I234378
aF330.17652
aF145.555
ag899
aS'utopia'
p903
aS'#656565'
p904
aF8.88595
aI0
aI00
aI00
aI00
aI00
aI00
aI00
aI00
aI00
aa(lp905
I63091
aF336.366
aF145.555
aVp2
p906
aS'utopia'
p907
aS'#434343'
p908
aF8.88595
aI0
aI01
aI00
aI00
aI00
aI00
aI00
aI00
aI00
aa(lp909
I234378
aF353.398
aF145.555
aVp2
p910
aS'utopia'
p911
aS'#434343'
p912
aF8.88595
aI0
aI01
aI00
aI00
aI00
aI00
aI00
aI00
aI00
aa(lp913
I166771
aF293.418
aF165.442
aVp2
p914
aS'utopia'
p915
aS'#656565'
p916
aF10.3669
aI1
aI01
aI00
aI00
aI00
aI00
aI00
aI00
aI00
aa(lp917
I74833
aF349.695
aF165.442
aVp2
p918
aS'utopia'
p919
aS'#656565'
p920
aF10.3669
aI1
aI01
aI00
aI00
aI00
aI00
aI00
aI00
aI00
aa(lp921
I233758
aF293.418
aF181.099
aVp2
p922
aS'utopia'
p923
aS'#656565'
p924
aF8.88595
aI0
aI01
aI00
aI00
aI00
aI00
aI00
aI00
aI00
aa(lp925
I234378
aF327.0898222222222
aF181.099
ag922
aS'utopia'
p926
aS'#656565'
p927
aF8.88595
aI0
aI00
aI00
aI00
aI00
aI00
aI00
aI00
aI00
aa(lp928
I63091
aF333.404
aF181.099
aVp2
p929
aS'utopia'
p930
aS'#434343'
p931
aF8.88595
aI0
aI01
aI00
aI00
aI00
aI00
aI00
aI00
aI00
aa(lp932
I234378
aF350.436
aF181.099
aVp2
p933
aS'utopia'
p934
aS'#434343'
p935
aF8.88595
aI0
aI01
aI00
aI00
aI00
aI00
aI00
aI00
aI00
aa(lp936
I151511
aF293.418
aF196.65
aVp2
p937
aS'utopia'
p938
aS'#656565'
p939
aF8.88595
aI0
aI01
aI00
aI00
aI00
aI00
aI00
aI00
aI00
aa(lp940
I234378
aF334.145
aF196.65
aVp2
p941
aS'utopia'
p942
aS'#656565'
p943
aF8.88595
aI0
aI01
aI00
aI00
aI00
aI00
aI00
aI00
aI00
aa(lp944
I234378
aF375.9870909090909
aF196.65
ag941
aS'utopia'
p945
aS'#656565'
p946
aF8.88595
aI0
aI00
aI00
aI00
aI00
aI00
aI00
aI00
aI00
aa(lp947
I201816
aF382.277
aF196.65
aVp2
p948
aS'utopia'
p949
aS'#434343'
p950
aF8.88595
aI0
aI01
aI00
aI00
aI00
aI00
aI00
aI00
aI00
aa(lp951
I1
aI1
aI0
aI0
aI0
aI0
aI0
aI0
aI0
aI0
aI0
aI0
aI0
aI0
aI0
aI0
aI0
aI0
aI0
aI0
aI0
aI0
aI0
aI0
aI0
aI0
aI0
aI0
aI0
aI0
aI0
aI0
aI0
aI0
aI0
aI0
aI0
aI0
aI0
aI0
aI0
aI0
aI0
aI0
aI0
aI0
aI0
aI0
aI0
aI0
aI0
aI0
aI0
aI0
aI0
aI0
aI0
aI0
aI0
aI0
aI0
aI0
aI0
aI0
aI0
aI0
aI0
aI0
aI0
aI0
aI0
aI0
aI0
aI0
aI0
aI1
aI1
aI0
aI0
aI0
aI0
aI0
aI0
aI0
aI0
aI0
aI0
aI0
aI0
aI0
aI0
aI0
aI0
aI0
aI0
aI0
aI0
aI0
aI0
aI0
aI0
aI0
aI1
aI0
aI0
aI0
aI0
aI0
aI0
aI0
aI0
aI0
aI0
aI0
aI0
aI0
aI0
aI0
aI0
aI0
aI0
aI0
aI0
aI0
aI0
aI0
aI0
aI0
aI0
aI0
aI1
aI1
aI0
aI0
aI0
aI0
aI1
aI1
aI0
aI0
aI0
aI1
aI0
aI0
aI0
aI1
aI1
aI0
aI0
aI0
aI0
aI0
aI0
aI0
aI0
aI0
aI0
aI0
aI0
aI0
aI0
aI0
aI0
aI0
aI0
aI0
aI0
aI0
aI0
aI0
aI0
aI0
aI0
aI0
aI0
aI0
aI0
aI0
aI0
aI0
aI0
aI0
aI0
aI0
aI0
aI0
aI0
aI0
aI0
aI0
aI0
aI0
aI0
aI0
aI0
aI0
aI0
aI0
aI0
aI0
aI0
aI0
aI0
aI0
aI0
aI0
aI0
aI0
aI0
aI0
aI0
aI0
aI0
aI0
aI0
aI0
aI0
aI0
aI0
aI0
aI0
aI0
aI0
aI0
aI0
aI0
aI0
aI0
aI0
aI0
aI0
aI0
aI0
aI0
aI0
aI0
aI0
aI0
aI0
aI0
aI0
aI0
aI0
aI0
aI0
aI0
aI0
aI0
aI0
aI0
aI0
aI0
aI0
atp952
.