((lp0
(lp1
I234378
aF40.9084
aF53.0111
aVp1
p2
aS'utopia'
p3
aS'#02304b'
p4
aF11.8479
aI1
aI01
aI00
aI00
aI00
aI00
aI00
aI00
aI00
aa(lp5
I234378
aF80.1547
aF53.0111
aVp1
p6
aS'utopia'
p7
aS'#02304b'
p8
aF11.8479
aI1
aI01
aI00
aI00
aI00
aI00
aI00
aI00
aI00
aa(lp9
I234378
aF46.8324
aF74.4677
aVp1
p10
aS'utopia'
p11
aS'#656565'
p12
aF8.88595
aI0
aI01
aI00
aI00
aI00
aI00
aI00
aI00
aI00
aa(lp13
I234378
aF74.9712
aF74.4677
aVp1
p14
aS'utopia'
p15
aS'#656565'
p16
aF8.88595
aI0
aI01
aI00
aI00
aI00
aI00
aI00
aI00
aI00
aa(lp17
I60220
aF107.553
aF74.4677
aVp1
p18
aS'utopia'
p19
aS'#656565'
p20
aF8.88595
aI0
aI01
aI00
aI00
aI00
aI00
aI00
aI00
aI00
aa(lp21
I234378
aF149.707
aF74.4677
ag18
aS'utopia'
p22
aS'#656565'
p23
aF8.88595
aI0
aI00
aI00
aI00
aI00
aI00
aI00
aI00
aI00
aa(lp24
I234378
aF153.92239999999998
aF74.4677
ag18
aS'utopia'
p25
aS'#656565'
p26
aF8.88595
aI0
aI00
aI00
aI01
aI01
aI00
aI00
aI00
aI00
aa(lp27
I234378
aF160.128
aF74.4677
aVp1
p28
aS'utopia'
p29
aS'#656565'
p30
aF8.88595
aI0
aI01
aI00
aI00
aI00
aI00
aI00
aI00
aI00
aa(lp31
I234378
aF183.824
aF74.4677
aVp1
p32
aS'utopia'
p33
aS'#656565'
p34
aF8.88595
aI0
aI00
aI00
aI01
aI01
aI00
aI00
aI00
aI00
aa(lp35
I234378
aF190.489
aF74.4677
aVp1
p36
aS'utopia'
p37
aS'#656565'
p38
aF8.88595
aI0
aI01
aI00
aI00
aI00
aI00
aI00
aI00
aI00
aa(lp39
I231013
aF223.07
aF74.4677
aVp1
p40
aS'utopia'
p41
aS'#656565'
p42
aF8.88595
aI0
aI01
aI00
aI00
aI00
aI00
aI00
aI00
aI00
aa(lp43
I234378
aF240.102
aF74.4677
aVp1
p44
aS'utopia'
p45
aS'#656565'
p46
aF8.88595
aI0
aI01
aI00
aI00
aI00
aI00
aI00
aI00
aI00
aa(lp47
I234378
aF262.36532727272726
aF74.4677
ag44
aS'utopia'
p48
aS'#656565'
p49
aF8.88595
aI0
aI00
aI00
aI00
aI00
aI00
aI00
aI00
aI00
aa(lp50
I84662
aF266.0758818181818
aF74.4677
ag44
aS'utopia'
p51
aS'#656565'
p52
aF8.88595
aI0
aI01
aI00
aI00
aI00
aI00
aI00
aI00
aI00
aa(lp53
I21716
aF283.051
aF74.4677
aVp1
p54
aS'utopia'
p55
aS'#656565'
p56
aF8.88595
aI0
aI01
aI00
aI00
aI00
aI00
aI00
aI00
aI00
aa(lp57
I234378
aF297.95331999999996
aF74.4677
ag54
aS'utopia'
p58
aS'#656565'
p59
aF8.88595
aI0
aI00
aI00
aI00
aI00
aI00
aI00
aI00
aI00
aa(lp60
I234378
aF303.784
aF74.4677
aVp1
p61
aS'utopia'
p62
aS'#656565'
p63
aF8.88595
aI0
aI01
aI00
aI00
aI00
aI00
aI00
aI00
aI00
aa(lp64
I234378
aF324.95234375
aF74.4677
ag61
aS'utopia'
p65
aS'#656565'
p66
aF8.88595
aI0
aI00
aI00
aI00
aI00
aI00
aI00
aI00
aI00
aa(lp67
I234378
aF361.25536250000005
aF74.4677
ag61
aS'utopia'
p68
aS'#656565'
p69
aF8.88595
aI0
aI00
aI00
aI00
aI00
aI00
aI00
aI00
aI00
aa(lp70
I234378
aF370.429
aF74.4677
aVp1
p71
aS'utopia'
p72
aS'#656565'
p73
aF8.88595
aI0
aI01
aI00
aI00
aI00
aI00
aI00
aI00
aI00
aa(lp74
I234378
aF412.619775
aF74.4677
ag71
aS'utopia'
p75
aS'#656565'
p76
aF8.88595
aI0
aI00
aI00
aI00
aI00
aI00
aI00
aI00
aI00
aa(lp77
I234378
aF418.561
aF74.4677
aVp1
p78
aS'utopia'
p79
aS'#656565'
p80
aF8.88595
aI0
aI01
aI00
aI00
aI00
aI00
aI00
aI00
aI00
aa(lp81
I234378
aF445.87526249999996
aF74.4677
ag78
aS'utopia'
p82
aS'#656565'
p83
aF8.88595
aI0
aI00
aI00
aI00
aI00
aI00
aI00
aI00
aI00
aa(lp84
I176767
aF40.9084
aF84.8346
aVp1
p85
aS'utopia'
p86
aS'#656565'
p87
aF8.88595
aI0
aI01
aI00
aI00
aI00
aI00
aI00
aI00
aI00
aa(lp88
I234378
aF78.99982
aF84.8346
ag85
aS'utopia'
p89
aS'#656565'
p90
aF8.88595
aI0
aI00
aI00
aI00
aI00
aI00
aI00
aI00
aI00
aa(lp91
I233063
aF85.3382
aF84.8346
aVp1
p92
aS'utopia'
p93
aS'#656565'
p94
aF8.88595
aI0
aI01
aI01
aI00
aI00
aI00
aI00
aI00
aI00
aa(lp95
I234378
aF89.468685
aF84.8346
ag92
aS'utopia'
p96
aS'#656565'
p97
aF8.88595
aI0
aI00
aI00
aI00
aI00
aI00
aI00
aI00
aI00
aa(lp98
I233063
aF95.7051
aF84.8346
aVp1
p99
aS'utopia'
p100
aS'#656565'
p101
aF8.88595
aI0
aI01
aI01
aI00
aI00
aI00
aI00
aI00
aI00
aa(lp102
I234378
aF102.362075
aF84.8346
ag99
aS'utopia'
p103
aS'#656565'
p104
aF8.88595
aI0
aI00
aI00
aI00
aI00
aI00
aI00
aI00
aI00
aa(lp105
I85218
aF116.439
aF84.8346
aVp1
p106
aS'utopia'
p107
aS'#656565'
p108
aF8.88595
aI0
aI00
aI00
aI00
aI00
aI00
aI00
aI00
aI00
aa(lp109
I132957
aF133.47
aF84.8346
aVp1
p110
aS'utopia'
p111
aS'#656565'
p112
aF8.88595
aI0
aI01
aI00
aI00
aI00
aI00
aI00
aI00
aI00
aa(lp113
I234378
aF154.204
aF84.8346
aVp1
p114
aS'utopia'
p115
aS'#656565'
p116
aF8.88595
aI0
aI01
aI00
aI00
aI00
aI00
aI00
aI00
aI00
aa(lp117
I104542
aF197.153
aF84.8346
aVp1
p118
aS'utopia'
p119
aS'#656565'
p120
aF8.88595
aI0
aI01
aI00
aI00
aI00
aI00
aI00
aI00
aI00
aa(lp121
I234378
aF242.05885
aF84.8346
ag118
aS'utopia'
p122
aS'#656565'
p123
aF8.88595
aI0
aI00
aI00
aI00
aI00
aI00
aI00
aI00
aI00
aa(lp124
I55966
aF248.247
aF84.8346
aVp1
p125
aS'utopia'
p126
aS'#656565'
p127
aF8.88595
aI0
aI01
aI00
aI00
aI00
aI00
aI00
aI00
aI00
aa(lp128
I48604
aF275.646
aF84.8346
aVp1
p129
aS'utopia'
p130
aS'#656565'
p131
aF8.88595
aI0
aI01
aI00
aI00
aI00
aI00
aI00
aI00
aI00
aa(lp132
I2006
aF306.746
aF84.8346
aVp1
p133
aS'utopia'
p134
aS'#656565'
p135
aF8.88595
aI0
aI01
aI00
aI00
aI00
aI00
aI00
aI00
aI00
aa(lp136
I234378
aF342.48344999999995
aF84.8346
ag133
aS'utopia'
p137
aS'#656565'
p138
aF8.88595
aI0
aI00
aI00
aI00
aI00
aI00
aI00
aI00
aI00
aa(lp139
I91539
aF349.695
aF84.8346
aVp1
p140
aS'utopia'
p141
aS'#656565'
p142
aF8.88595
aI0
aI01
aI00
aI00
aI00
aI00
aI00
aI00
aI00
aa(lp143
I144489
aF371.91
aF84.8346
aVp1
p144
aS'utopia'
p145
aS'#656565'
p146
aF8.88595
aI0
aI01
aI00
aI00
aI00
aI00
aI00
aI00
aI00
aa(lp147
I180550
aF383.758
aF84.8346
aVp1
p148
aS'utopia'
p149
aS'#656565'
p150
aF8.88595
aI0
aI01
aI00
aI00
aI00
aI00
aI00
aI00
aI00
aa(lp151
I171311
aF40.9084
aF95.2016
aVp1
p152
aS'utopia'
p153
aS'#656565'
p154
aF8.88595
aI0
aI01
aI00
aI00
aI00
aI00
aI00
aI00
aI00
aa(lp155
I234378
aF89.83547857142858
aF95.2016
ag152
aS'utopia'
p156
aS'#656565'
p157
aF8.88595
aI0
aI00
aI00
aI00
aI00
aI00
aI00
aI00
aI00
aa(lp158
I27780
aF95.7051
aF95.2016
aVp1
p159
aS'utopia'
p160
aS'#656565'
p161
aF8.88595
aI0
aI01
aI01
aI00
aI00
aI00
aI00
aI00
aI00
aa(lp162
I2737
aF101.54596666666667
aF95.2016
ag159
aS'utopia'
p163
aS'#656565'
p164
aF8.88595
aI0
aI01
aI00
aI00
aI00
aI00
aI00
aI00
aI00
aa(lp165
I169745
aF126.806
aF95.2016
aVp1
p166
aS'utopia'
p167
aS'#656565'
p168
aF8.88595
aI0
aI00
aI00
aI00
aI00
aI00
aI00
aI00
aI00
aa(lp169
I22407
aF146.059
aF95.2016
aVp1
p170
aS'utopia'
p171
aS'#656565'
p172
aF8.88595
aI0
aI01
aI00
aI00
aI00
aI00
aI00
aI00
aI00
aa(lp173
I234378
aF59.4208
aF124.821
aVp1
p174
aS'utopia'
p175
aS'#0d75b4'
p176
aF8.88595
aI0
aI00
aI00
aI00
aI00
aI00
aI01
aI00
aI00
aa(lp177
I234378
aF59.4208
aF141.853
aVp1
p178
aS'utopia'
p179
aS'#0d75b4'
p180
aF8.88595
aI0
aI00
aI00
aI00
aI00
aI00
aI01
aI00
aI00
aa(lp181
I15548
aF55.7183
aF176.656
aVp1
p182
aS'utopia'
p183
aS'#878787'
p184
aF8.88595
aI0
aI01
aI00
aI00
aI00
aI00
aI00
aI00
aI00
aa(lp185
I104542
aF89.0407
aF176.656
aVp1
p186
aS'utopia'
p187
aS'#878787'
p188
aF8.88595
aI0
aI01
aI00
aI00
aI00
aI00
aI00
aI00
aI00
aa(lp189
I234378
aF133.94655
aF176.656
ag186
aS'utopia'
p190
aS'#878787'
p191
aF8.88595
aI0
aI00
aI00
aI00
aI00
aI00
aI00
aI00
aI00
aa(lp192
I55966
aF142.356
aF176.656
aVp1
p193
aS'utopia'
p194
aS'#000000'
p195
aF8.88595
aI0
aI01
aI00
aI00
aI00
aI00
aI00
aI00
aI00
aa(lp196
I48604
aF169.755
aF176.656
aVp1
p197
aS'utopia'
p198
aS'#000000'
p199
aF8.88595
aI0
aI01
aI00
aI00
aI00
aI00
aI00
aI00
aI00
aa(lp200
I15548
aF55.7183
aF194.428
aVp1
p201
aS'utopia'
p202
aS'#878787'
p203
aF8.88595
aI0
aI01
aI00
aI00
aI00
aI00
aI00
aI00
aI00
aa(lp204
I2006
aF89.0407
aF194.428
aVp1
p205
aS'utopia'
p206
aS'#878787'
p207
aF8.88595
aI0
aI01
aI00
aI00
aI00
aI00
aI00
aI00
aI00
aa(lp208
I234378
aF124.77815
aF194.428
ag205
aS'utopia'
p209
aS'#878787'
p210
aF8.88595
aI0
aI00
aI00
aI00
aI00
aI00
aI00
aI00
aI00
aa(lp211
I91539
aF134.211
aF194.428
aVp1
p212
aS'utopia'
p213
aS'#000000'
p214
aF8.88595
aI0
aI01
aI00
aI00
aI00
aI00
aI00
aI00
aI00
aa(lp215
I144489
aF156.426
aF194.428
aVp1
p216
aS'utopia'
p217
aS'#000000'
p218
aF8.88595
aI0
aI01
aI00
aI00
aI00
aI00
aI00
aI00
aI00
aa(lp219
I180550
aF168.274
aF194.428
aVp1
p220
aS'utopia'
p221
aS'#000000'
p222
aF8.88595
aI0
aI01
aI00
aI00
aI00
aI00
aI00
aI00
aI00
aa(lp223
I15548
aF55.7183
aF212.2
aVp1
p224
aS'utopia'
p225
aS'#878787'
p226
aF8.88595
aI0
aI01
aI00
aI00
aI00
aI00
aI00
aI00
aI00
aa(lp227
I17057
aF89.0407
aF212.2
aVp1
p228
aS'utopia'
p229
aS'#878787'
p230
aF8.88595
aI0
aI01
aI00
aI00
aI00
aI00
aI00
aI00
aI00
aa(lp231
I234378
aF122.05430000000001
aF212.2
ag228
aS'utopia'
p232
aS'#878787'
p233
aF8.88595
aI0
aI00
aI00
aI00
aI00
aI00
aI00
aI00
aI00
aa(lp234
I234378
aF130.508
aF212.2
aVp1
p235
aS'utopia'
p236
aS'#000000'
p237
aF8.88595
aI0
aI01
aI00
aI00
aI00
aI00
aI00
aI00
aI00
aa(lp238
I234378
aF55.7183
aF229.972
aVp1
p239
aS'utopia'
p240
aS'#878787'
p241
aF8.88595
aI0
aI01
aI00
aI00
aI00
aI00
aI00
aI00
aI00
aa(lp242
I234378
aF70.62062
aF229.972
ag239
aS'utopia'
p243
aS'#878787'
p244
aF8.88595
aI0
aI00
aI00
aI00
aI00
aI00
aI00
aI00
aI00
aa(lp245
I17057
aF76.4522
aF229.972
aVp1
p246
aS'utopia'
p247
aS'#878787'
p248
aF8.88595
aI0
aI01
aI00
aI00
aI00
aI00
aI00
aI00
aI00
aa(lp249
I234378
aF109.4658
aF229.972
ag246
aS'utopia'
p250
aS'#878787'
p251
aF8.88595
aI0
aI00
aI00
aI00
aI00
aI00
aI00
aI00
aI00
aa(lp252
I234378
aF117.92
aF229.972
aVp1
p253
aS'utopia'
p254
aS'#000000'
p255
aF8.88595
aI0
aI01
aI00
aI00
aI00
aI00
aI00
aI00
aI00
aa(lp256
I234378
aF160.869
aF229.972
aVp1
p257
aS'utopia'
p258
aS'#000000'
p259
aF8.88595
aI0
aI00
aI00
aI00
aI00
aI00
aI00
aI00
aI00
aa(lp260
I234378
aF167.533
aF229.972
aVp1
p261
aS'utopia'
p262
aS'#000000'
p263
aF8.88595
aI0
aI01
aI00
aI00
aI00
aI00
aI00
aI00
aI00
aa(lp264
I234378
aF205.62442
aF229.972
ag261
aS'utopia'
p265
aS'#000000'
p266
aF8.88595
aI0
aI00
aI00
aI00
aI00
aI00
aI00
aI00
aI00
aa(lp267
I234378
aF211.963
aF229.972
aVp1
p268
aS'utopia'
p269
aS'#000000'
p270
aF8.88595
aI0
aI01
aI00
aI00
aI00
aI00
aI00
aI00
aI00
aa(lp271
I234378
aF242.51694999999998
aF229.972
ag268
aS'utopia'
p272
aS'#000000'
p273
aF8.88595
aI0
aI00
aI00
aI00
aI00
aI00
aI00
aI00
aI00
aa(lp274
I234378
aF248.988
aF229.972
aVp1
p275
aS'utopia'
p276
aS'#000000'
p277
aF8.88595
aI0
aI01
aI00
aI00
aI00
aI00
aI00
aI00
aI00
aa(lp278
I98580
aF55.7183
aF247.744
aVp1
p279
aS'utopia'
p280
aS'#878787'
p281
aF8.88595
aI0
aI01
aI00
aI00
aI00
aI00
aI00
aI00
aI00
aa(lp282
I166289
aF100.148
aF247.744
aVp1
p283
aS'utopia'
p284
aS'#878787'
p285
aF8.88595
aI0
aI01
aI00
aI00
aI00
aI00
aI00
aI00
aI00
aa(lp286
I234378
aF116.82751999999999
aF247.744
ag283
aS'utopia'
p287
aS'#878787'
p288
aF8.88595
aI0
aI00
aI00
aI00
aI00
aI00
aI00
aI00
aI00
aa(lp289
I22476
aF125.325
aF247.744
aVp1
p290
aS'utopia'
p291
aS'#000000'
p292
aF8.88595
aI0
aI01
aI01
aI00
aI00
aI00
aI00
aI00
aI00
aa(lp293
I234378
aF135.692
aF247.744
aVp1
p294
aS'utopia'
p295
aS'#000000'
p296
aF8.88595
aI0
aI01
aI00
aI00
aI00
aI00
aI00
aI00
aI00
aa(lp297
I123665
aF178.641
aF247.744
aVp1
p298
aS'utopia'
p299
aS'#000000'
p300
aF8.88595
aI0
aI01
aI00
aI00
aI00
aI00
aI00
aI00
aI00
aa(lp301
I234378
aF226.032
aF247.744
aVp1
p302
aS'utopia'
p303
aS'#000000'
p304
aF8.88595
aI0
aI01
aI00
aI00
aI00
aI00
aI00
aI00
aI00
aa(lp305
I234378
aF283.051
aF247.744
aVp1
p306
aS'utopia'
p307
aS'#000000'
p308
aF8.88595
aI0
aI00
aI00
aI00
aI00
aI00
aI00
aI00
aI00
aa(lp309
I20593
aF55.7183
aF258.111
aVp1
p310
aS'utopia'
p311
aS'#000000'
p312
aF8.88595
aI0
aI01
aI00
aI00
aI00
aI00
aI00
aI00
aI00
aa(lp313
I176435
aF55.7183
aF275.883
aVp1
p314
aS'utopia'
p315
aS'#878787'
p316
aF8.88595
aI0
aI01
aI00
aI00
aI00
aI00
aI00
aI00
aI00
aa(lp317
I234378
aF71.80542
aF275.883
ag314
aS'utopia'
p318
aS'#878787'
p319
aF8.88595
aI0
aI00
aI00
aI00
aI00
aI00
aI00
aI00
aI00
aa(lp320
I234378
aF80.1547
aF275.883
aVp1
p321
aS'utopia'
p322
aS'#000000'
p323
aF8.88595
aI0
aI01
aI00
aI00
aI00
aI00
aI00
aI00
aI00
aa(lp324
I100815
aF117.18
aF275.883
aVp1
p325
aS'utopia'
p326
aS'#000000'
p327
aF8.88595
aI0
aI01
aI00
aI00
aI00
aI00
aI00
aI00
aI00
aa(lp328
I74589
aF55.7183
aF293.654
aVp1
p329
aS'utopia'
p330
aS'#878787'
p331
aF8.88595
aI0
aI01
aI00
aI00
aI00
aI00
aI00
aI00
aI00
aa(lp332
I234378
aF87.41545555555555
aF293.654
ag329
aS'utopia'
p333
aS'#878787'
p334
aF8.88595
aI0
aI00
aI00
aI00
aI00
aI00
aI00
aI00
aI00
aa(lp335
I22476
aF95.7051
aF293.654
aVp1
p336
aS'utopia'
p337
aS'#000000'
p338
aF8.88595
aI0
aI01
aI01
aI00
aI00
aI00
aI00
aI00
aI00
aa(lp339
I234378
aF105.30374
aF293.654
ag336
aS'utopia'
p340
aS'#000000'
p341
aF8.88595
aI0
aI01
aI00
aI00
aI00
aI00
aI00
aI00
aI00
aa(lp342
I234378
aF139.69830000000002
aF293.654
ag336
aS'utopia'
p343
aS'#000000'
p344
aF8.88595
aI0
aI00
aI00
aI00
aI00
aI00
aI00
aI00
aI00
aa(lp345
I234378
aF134.99762
aF293.654
ag336
aS'utopia'
p346
aS'#000000'
p347
aF8.88595
aI0
aI01
aI00
aI00
aI00
aI00
aI00
aI00
aI00
aa(lp348
I234378
aF183.824
aF293.654
aVp1
p349
aS'utopia'
p350
aS'#000000'
p351
aF8.88595
aI0
aI01
aI00
aI00
aI00
aI00
aI00
aI00
aI00
aa(lp352
I231013
aF55.7183
aF311.426
aVp1
p353
aS'utopia'
p354
aS'#878787'
p355
aF8.88595
aI0
aI01
aI00
aI00
aI00
aI00
aI00
aI00
aI00
aa(lp356
I234378
aF72.7498
aF311.426
aVp1
p357
aS'utopia'
p358
aS'#878787'
p359
aF8.88595
aI0
aI01
aI00
aI00
aI00
aI00
aI00
aI00
aI00
aa(lp360
I234378
aF91.25542857142857
aF311.426
ag357
aS'utopia'
p361
aS'#878787'
p362
aF8.88595
aI0
aI00
aI00
aI00
aI00
aI00
aI00
aI00
aI00
aa(lp363
I84662
aF98.6671
aF311.426
aVp1
p364
aS'utopia'
p365
aS'#000000'
p366
aF8.88595
aI0
aI01
aI00
aI00
aI00
aI00
aI00
aI00
aI00
aa(lp367
I21716
aF120.141
aF311.426
aVp1
p368
aS'utopia'
p369
aS'#000000'
p370
aF8.88595
aI0
aI01
aI00
aI00
aI00
aI00
aI00
aI00
aI00
aa(lp371
I234378
aF135.04332
aF311.426
ag368
aS'utopia'
p372
aS'#000000'
p373
aF8.88595
aI0
aI00
aI00
aI00
aI00
aI00
aI00
aI00
aI00
aa(lp374
I234378
aF140.875
aF311.426
aVp1
p375
aS'utopia'
p376
aS'#000000'
p377
aF8.88595
aI0
aI01
aI00
aI00
aI00
aI00
aI00
aI00
aI00
aa(lp378
I234378
aF183.065775
aF311.426
ag375
aS'utopia'
p379
aS'#000000'
p380
aF8.88595
aI0
aI00
aI00
aI00
aI00
aI00
aI00
aI00
aI00
aa(lp381
I234378
aF189.008
aF311.426
aVp1
p382
aS'utopia'
p383
aS'#000000'
p384
aF8.88595
aI0
aI01
aI00
aI00
aI00
aI00
aI00
aI00
aI00
aa(lp385
I234378
aF211.963
aF311.426
aVp1
p386
aS'utopia'
p387
aS'#000000'
p388
aF8.88595
aI0
aI00
aI00
aI00
aI00
aI00
aI00
aI00
aI00
aa(lp389
I234378
aF248.05507
aF311.426
ag386
aS'utopia'
p390
aS'#000000'
p391
aF8.88595
aI0
aI00
aI00
aI00
aI00
aI00
aI00
aI00
aI00
aa(lp392
I233063
aF254.171
aF311.426
aVp1
p393
aS'utopia'
p394
aS'#000000'
p395
aF8.88595
aI0
aI01
aI01
aI00
aI00
aI00
aI00
aI00
aI00
aa(lp396
I234378
aF258.301485
aF311.426
ag393
aS'utopia'
p397
aS'#000000'
p398
aF8.88595
aI0
aI00
aI00
aI00
aI00
aI00
aI00
aI00
aI00
aa(lp399
I233063
aF264.538
aF311.426
aVp1
p400
aS'utopia'
p401
aS'#000000'
p402
aF8.88595
aI0
aI01
aI01
aI00
aI00
aI00
aI00
aI00
aI00
aa(lp403
I234378
aF271.194975
aF311.426
ag400
aS'utopia'
p404
aS'#000000'
p405
aF8.88595
aI0
aI00
aI00
aI00
aI00
aI00
aI00
aI00
aI00
aa(lp406
I222873
aF55.7183
aF321.793
aVp1
p407
aS'utopia'
p408
aS'#000000'
p409
aF8.88595
aI0
aI01
aI00
aI00
aI00
aI00
aI00
aI00
aI00
aa(lp410
I234378
aF81.84041428571429
aF321.793
ag407
aS'utopia'
p411
aS'#000000'
p412
aF8.88595
aI0
aI00
aI00
aI00
aI00
aI00
aI00
aI00
aI00
aa(lp413
I229868
aF88.3002
aF321.793
aVp1
p414
aS'utopia'
p415
aS'#000000'
p416
aF8.88595
aI0
aI01
aI01
aI00
aI00
aI00
aI00
aI00
aI00
aa(lp417
I234378
aF98.95552500000001
aF321.793
ag414
aS'utopia'
p418
aS'#000000'
p419
aF8.88595
aI0
aI00
aI01
aI01
aI00
aI00
aI00
aI00
aI00
aa(lp420
I234378
aF118.266175
aF321.793
ag414
aS'utopia'
p421
aS'#000000'
p422
aF8.88595
aI0
aI00
aI00
aI00
aI00
aI00
aI00
aI00
aI00
aa(lp423
I234378
aF129.027
aF321.793
aVp1
p424
aS'utopia'
p425
aS'#000000'
p426
aF8.88595
aI0
aI01
aI00
aI00
aI00
aI00
aI00
aI00
aI00
aa(lp427
I234378
aF154.5144857142857
aF321.793
ag424
aS'utopia'
p428
aS'#000000'
p429
aF8.88595
aI0
aI00
aI00
aI00
aI00
aI00
aI00
aI00
aI00
aa(lp430
I234378
aF160.869
aF321.793
aVp1
p431
aS'utopia'
p432
aS'#000000'
p433
aF8.88595
aI0
aI01
aI01
aI00
aI00
aI00
aI00
aI00
aI00
aa(lp434
I234378
aF176.50605
aF321.793
ag431
aS'utopia'
p435
aS'#000000'
p436
aF8.88595
aI0
aI00
aI00
aI00
aI00
aI00
aI00
aI00
aI00
aa(lp437
I148996
aF183.824
aF321.793
aVp1
p438
aS'utopia'
p439
aS'#000000'
p440
aF8.88595
aI0
aI00
aI00
aI00
aI00
aI00
aI00
aI00
aI00
aa(lp441
I234378
aF210.482
aF321.793
aVp1
p442
aS'utopia'
p443
aS'#000000'
p444
aF8.88595
aI0
aI00
aI00
aI00
aI00
aI00
aI00
aI00
aI00
aa(lp445
I234378
aF225.0083
aF321.793
ag442
aS'utopia'
p446
aS'#000000'
p447
aF8.88595
aI0
aI00
aI00
aI00
aI00
aI00
aI00
aI00
aI00
aa(lp448
I148996
aF231.956
aF321.793
aVp1
p449
aS'utopia'
p450
aS'#000000'
p451
aF8.88595
aI0
aI00
aI00
aI00
aI00
aI00
aI00
aI00
aI00
aa(lp452
I115769
aF258.614
aF321.793
aVp1
p453
aS'utopia'
p454
aS'#000000'
p455
aF8.88595
aI0
aI00
aI00
aI00
aI00
aI00
aI00
aI00
aI00
aa(lp456
I234378
aF300.03767
aF321.793
ag453
aS'utopia'
p457
aS'#000000'
p458
aF8.88595
aI0
aI00
aI00
aI00
aI00
aI00
aI00
aI00
aI00
aa(lp459
I176767
aF55.7183
aF332.16
aVp1
p460
aS'utopia'
p461
aS'#000000'
p462
aF8.88595
aI0
aI00
aI00
aI00
aI00
aI00
aI00
aI00
aI00
aa(lp463
I234378
aF91.81037
aF332.16
ag460
aS'utopia'
p464
aS'#000000'
p465
aF8.88595
aI0
aI00
aI00
aI00
aI00
aI00
aI00
aI00
aI00
aa(lp466
I234378
aF97.9266
aF332.16
aVp1
p467
aS'utopia'
p468
aS'#000000'
p469
aF8.88595
aI0
aI00
aI00
aI01
aI00
aI00
aI00
aI00
aI00
aa(lp470
I234378
aF115.30109999999999
aF332.16
ag467
aS'utopia'
p471
aS'#000000'
p472
aF8.88595
aI0
aI00
aI00
aI00
aI00
aI00
aI00
aI00
aI00
aa(lp473
I234378
aF120.882
aF332.16
aVp1
p474
aS'utopia'
p475
aS'#000000'
p476
aF8.88595
aI0
aI00
aI00
aI00
aI00
aI00
aI00
aI00
aI00
aa(lp477
I234378
aF130.9653
aF332.16
ag474
aS'utopia'
p478
aS'#000000'
p479
aF8.88595
aI0
aI00
aI00
aI00
aI00
aI00
aI00
aI00
aI00
aa(lp480
I158645
aF136.432
aF332.16
aVp1
p481
aS'utopia'
p482
aS'#000000'
p483
aF8.88595
aI0
aI00
aI00
aI00
aI00
aI00
aI00
aI00
aI00
aa(lp484
I234378
aF156.89191666666665
aF332.16
ag481
aS'utopia'
p485
aS'#000000'
p486
aF8.88595
aI0
aI00
aI00
aI00
aI00
aI00
aI00
aI00
aI00
aa(lp487
I77592
aF163.09
aF332.16
aVp1
p488
aS'utopia'
p489
aS'#000000'
p490
aF8.88595
aI0
aI00
aI00
aI00
aI00
aI00
aI00
aI00
aI00
aa(lp491
I110786
aF193.451
aF332.16
aVp1
p492
aS'utopia'
p493
aS'#000000'
p494
aF8.88595
aI0
aI00
aI00
aI00
aI00
aI00
aI00
aI00
aI00
aa(lp495
I51933
aF40.1679
aF369.203
aVp1
p496
aS'utopia'
p497
aS'#02304b'
p498
aF11.8479
aI1
aI01
aI00
aI00
aI00
aI00
aI00
aI00
aI00
aa(lp499
I60220
aF72.0093
aF369.203
aVp1
p500
aS'utopia'
p501
aS'#02304b'
p502
aF11.8479
aI1
aI01
aI00
aI00
aI00
aI00
aI00
aI00
aI00
aa(lp503
I91539
aF40.9084
aF400.92
aVp1
p504
aS'utopia'
p505
aS'#000000'
p506
aF10.3669
aI1
aI01
aI00
aI00
aI00
aI00
aI00
aI00
aI00
aa(lp507
I144489
aF69.0473
aF400.92
aVp1
p508
aS'utopia'
p509
aS'#000000'
p510
aF10.3669
aI1
aI01
aI00
aI00
aI00
aI00
aI00
aI00
aI00
aa(lp511
I180550
aF83.1167
aF400.92
aVp1
p512
aS'utopia'
p513
aS'#000000'
p514
aF10.3669
aI1
aI01
aI00
aI00
aI00
aI00
aI00
aI00
aI00
aa(lp515
I234378
aF125.325
aF401.189
aVp1
p516
aS'utopia'
p517
aS'#656565'
p518
aF10.3669
aI0
aI00
aI00
aI00
aI00
aI00
aI00
aI00
aI00
aa(lp519
I15548
aF130.302425
aF401.189
ag516
aS'utopia'
p520
aS'#656565'
p521
aF10.3669
aI0
aI01
aI00
aI00
aI00
aI00
aI00
aI00
aI00
aa(lp522
I70289
aF167.533
aF401.189
aVp1
p523
aS'utopia'
p524
aS'#656565'
p525
aF10.3669
aI0
aI01
aI00
aI00
aI00
aI00
aI00
aI00
aI00
aa(lp526
I234378
aF210.88197777777776
aF401.189
ag523
aS'utopia'
p527
aS'#656565'
p528
aF10.3669
aI0
aI00
aI00
aI00
aI00
aI00
aI00
aI00
aI00
aa(lp529
I55966
aF40.9084
aF417.48
aVp1
p530
aS'utopia'
p531
aS'#656565'
p532
aF10.3669
aI0
aI01
aI00
aI00
aI00
aI00
aI00
aI00
aI00
aa(lp533
I48604
aF73.4902
aF417.48
aVp1
p534
aS'utopia'
p535
aS'#656565'
p536
aF10.3669
aI0
aI01
aI00
aI00
aI00
aI00
aI00
aI00
aI00
aa(lp537
I234378
aF114.958
aF417.48
aVp1
p538
aS'utopia'
p539
aS'#656565'
p540
aF10.3669
aI0
aI01
aI00
aI00
aI00
aI00
aI00
aI00
aI01
aa(lp541
I234378
aF135.692
aF417.48
aVp1
p542
aS'utopia'
p543
aS'#656565'
p544
aF10.3669
aI0
aI00
aI00
aI01
aI01
aI01
aI00
aI00
aI00
aa(lp545
I123583
aF40.9084
aF437.311
aVp1
p546
aS'utopia'
p547
aS'#656565'
p548
aF8.88595
aI0
aI01
aI00
aI00
aI00
aI00
aI00
aI00
aI00
aa(lp549
I16331
aF76.4522
aF437.311
aVp1
p550
aS'utopia'
p551
aS'#656565'
p552
aF8.88595
aI0
aI00
aI00
aI00
aI00
aI00
aI00
aI00
aI00
aa(lp553
I166593
aF86.8192
aF437.311
aVp1
p554
aS'utopia'
p555
aS'#656565'
p556
aF8.88595
aI0
aI00
aI00
aI00
aI00
aI00
aI00
aI00
aI00
aa(lp557
I55966
aF93.4836
aF437.311
aVp1
p558
aS'utopia'
p559
aS'#656565'
p560
aF8.88595
aI0
aI01
aI00
aI00
aI00
aI00
aI00
aI00
aI00
aa(lp561
I48604
aF120.882
aF437.311
aVp1
p562
aS'utopia'
p563
aS'#656565'
p564
aF8.88595
aI0
aI00
aI00
aI00
aI00
aI00
aI00
aI00
aI00
aa(lp565
I150037
aF150.502
aF437.311
aVp1
p566
aS'utopia'
p567
aS'#656565'
p568
aF8.88595
aI0
aI00
aI00
aI00
aI00
aI00
aI00
aI00
aI00
aa(lp569
I48671
aF40.9084
aF447.678
aVp1
p570
aS'utopia'
p571
aS'#656565'
p572
aF8.88595
aI0
aI01
aI00
aI00
aI00
aI00
aI00
aI00
aI00
aa(lp573
I129688
aF69.0473
aF447.678
aVp1
p574
aS'utopia'
p575
aS'#656565'
p576
aF8.88595
aI0
aI01
aI00
aI00
aI00
aI00
aI00
aI00
aI00
aa(lp577
I234378
aF97.1861
aF447.678
aVp1
p578
aS'utopia'
p579
aS'#656565'
p580
aF8.88595
aI0
aI00
aI00
aI00
aI00
aI00
aI00
aI00
aI00
aa(lp581
I234378
aF101.629
aF447.678
aVp1
p582
aS'utopia'
p583
aS'#656565'
p584
aF8.88595
aI0
aI00
aI00
aI01
aI01
aI00
aI00
aI00
aI00
aa(lp585
I234378
aF108.294
aF447.678
aVp1
p586
aS'utopia'
p587
aS'#656565'
p588
aF8.88595
aI0
aI01
aI00
aI00
aI00
aI00
aI00
aI00
aI00
aa(lp589
I234378
aF40.9084
aF480.893
aVp1
p590
aS'utopia'
p591
aS'#000000'
p592
aF10.3669
aI1
aI01
aI00
aI00
aI00
aI00
aI00
aI00
aI00
aa(lp593
I196436
aF86.8192
aF480.893
aVp1
p594
aS'utopia'
p595
aS'#000000'
p596
aF10.3669
aI1
aI01
aI00
aI00
aI00
aI00
aI00
aI00
aI00
aa(lp597
I164802
aF122.363
aF480.893
aVp1
p598
aS'utopia'
p599
aS'#000000'
p600
aF10.3669
aI1
aI01
aI00
aI00
aI00
aI00
aI00
aI00
aI00
aa(lp601
I234378
aF149.761
aF480.893
aVp1
p602
aS'utopia'
p603
aS'#000000'
p604
aF10.3669
aI1
aI01
aI00
aI00
aI00
aI00
aI00
aI00
aI00
aa(lp605
I234378
aF167.533
aF480.893
aVp1
p606
aS'utopia'
p607
aS'#000000'
p608
aF10.3669
aI1
aI01
aI00
aI00
aI00
aI00
aI00
aI00
aI00
aa(lp609
I55966
aF40.9084
aF497.454
aVp1
p610
aS'utopia'
p611
aS'#656565'
p612
aF10.3669
aI0
aI01
aI00
aI00
aI00
aI00
aI00
aI00
aI00
aa(lp613
I48604
aF73.4902
aF497.454
aVp1
p614
aS'utopia'
p615
aS'#656565'
p616
aF10.3669
aI0
aI01
aI00
aI00
aI00
aI00
aI00
aI00
aI00
aa(lp617
I27216
aF114.958
aF497.454
aVp1
p618
aS'utopia'
p619
aS'#656565'
p620
aF10.3669
aI0
aI01
aI00
aI00
aI00
aI00
aI00
aI00
aI01
aa(lp621
I234378
aF133.47
aF497.454
aVp1
p622
aS'utopia'
p623
aS'#656565'
p624
aF10.3669
aI0
aI00
aI00
aI01
aI01
aI01
aI00
aI00
aI00
aa(lp625
I89480
aF156.426
aF497.454
aVp1
p626
aS'utopia'
p627
aS'#656565'
p628
aF10.3669
aI0
aI01
aI00
aI00
aI00
aI00
aI00
aI00
aI00
aa(lp629
I234378
aF171.236
aF497.454
aVp1
p630
aS'utopia'
p631
aS'#656565'
p632
aF10.3669
aI0
aI01
aI00
aI00
aI00
aI00
aI00
aI00
aI01
aa(lp633
I234378
aF191.97
aF497.454
aVp1
p634
aS'utopia'
p635
aS'#656565'
p636
aF10.3669
aI0
aI00
aI00
aI01
aI01
aI01
aI00
aI00
aI00
aa(lp637
I125458
aF40.9084
aF517.284
aVp1
p638
aS'utopia'
p639
aS'#656565'
p640
aF8.88595
aI0
aI01
aI00
aI00
aI00
aI00
aI00
aI00
aI00
aa(lp641
I16331
aF74.2307
aF517.284
aVp1
p642
aS'utopia'
p643
aS'#656565'
p644
aF8.88595
aI0
aI00
aI00
aI00
aI00
aI00
aI00
aI00
aI00
aa(lp645
I166593
aF84.5977
aF517.284
aVp1
p646
aS'utopia'
p647
aS'#656565'
p648
aF8.88595
aI0
aI00
aI00
aI00
aI00
aI00
aI00
aI00
aI00
aa(lp649
I149270
aF91.2621
aF517.284
aVp1
p650
aS'utopia'
p651
aS'#656565'
p652
aF8.88595
aI0
aI01
aI00
aI00
aI00
aI00
aI00
aI00
aI00
aa(lp653
I175409
aF131.249
aF517.284
aVp1
p654
aS'utopia'
p655
aS'#656565'
p656
aF8.88595
aI0
aI01
aI00
aI00
aI00
aI00
aI00
aI00
aI00
aa(lp657
I132100
aF152.723
aF517.284
aVp1
p658
aS'utopia'
p659
aS'#656565'
p660
aF8.88595
aI0
aI01
aI00
aI00
aI00
aI00
aI00
aI00
aI00
aa(lp661
I190806
aF189.748
aF517.284
aVp1
p662
aS'utopia'
p663
aS'#656565'
p664
aF8.88595
aI0
aI00
aI00
aI00
aI00
aI00
aI00
aI00
aI00
aa(lp665
I234378
aF203.818
aF517.284
aVp1
p666
aS'utopia'
p667
aS'#656565'
p668
aF8.88595
aI0
aI00
aI00
aI00
aI00
aI00
aI00
aI00
aI00
aa(lp669
I68032
aF240.102
aF517.284
aVp1
p670
aS'utopia'
p671
aS'#656565'
p672
aF8.88595
aI0
aI00
aI00
aI00
aI00
aI00
aI00
aI00
aI00
aa(lp673
I85218
aF294.158
aF517.284
aVp1
p674
aS'utopia'
p675
aS'#656565'
p676
aF8.88595
aI0
aI00
aI00
aI00
aI00
aI00
aI00
aI00
aI00
aa(lp677
I125078
aF311.189
aF517.284
aVp1
p678
aS'utopia'
p679
aS'#656565'
p680
aF8.88595
aI0
aI00
aI00
aI00
aI00
aI00
aI00
aI00
aI00
aa(lp681
I234378
aF335.9116
aF517.284
ag678
aS'utopia'
p682
aS'#656565'
p683
aF8.88595
aI0
aI00
aI00
aI00
aI00
aI00
aI00
aI00
aI00
aa(lp684
I234378
aF40.9084
aF550.5
aVp1
p685
aS'utopia'
p686
aS'#000000'
p687
aF10.3669
aI1
aI01
aI00
aI00
aI00
aI00
aI00
aI00
aI00
aa(lp688
I43052
aF93.4836
aF550.5
aVp1
p689
aS'utopia'
p690
aS'#000000'
p691
aF10.3669
aI1
aI01
aI00
aI00
aI00
aI00
aI00
aI00
aI00
aa(lp692
I234378
aF151.242
aF550.5
aVp1
p693
aS'utopia'
p694
aS'#000000'
p695
aF10.3669
aI1
aI01
aI00
aI00
aI00
aI00
aI00
aI00
aI00
aa(lp696
I234378
aF198.634
aF550.5
aVp1
p697
aS'utopia'
p698
aS'#000000'
p699
aF10.3669
aI1
aI01
aI00
aI00
aI00
aI00
aI00
aI00
aI00
aa(lp700
I234378
aF216.406
aF550.5
aVp1
p701
aS'utopia'
p702
aS'#000000'
p703
aF10.3669
aI1
aI01
aI00
aI00
aI00
aI00
aI00
aI00
aI00
aa(lp704
I108130
aF40.9084
aF567.06
aVp1
p705
aS'utopia'
p706
aS'#656565'
p707
aF10.3669
aI0
aI01
aI00
aI00
aI00
aI00
aI00
aI00
aI00
aa(lp708
I132100
aF78.6737
aF567.06
aVp1
p709
aS'utopia'
p710
aS'#656565'
p711
aF10.3669
aI0
aI01
aI00
aI00
aI00
aI00
aI00
aI00
aI00
aa(lp712
I234378
aF126.806
aF567.06
aVp1
p713
aS'utopia'
p714
aS'#656565'
p715
aF10.3669
aI0
aI01
aI00
aI00
aI00
aI00
aI00
aI00
aI01
aa(lp716
I234378
aF146.799
aF567.06
aVp1
p717
aS'utopia'
p718
aS'#656565'
p719
aF10.3669
aI0
aI00
aI00
aI01
aI01
aI01
aI00
aI00
aI00
aa(lp720
I89480
aF169.755
aF567.06
aVp1
p721
aS'utopia'
p722
aS'#656565'
p723
aF10.3669
aI0
aI01
aI00
aI00
aI00
aI00
aI00
aI00
aI00
aa(lp724
I37515
aF184.565
aF567.06
aVp1
p725
aS'utopia'
p726
aS'#656565'
p727
aF10.3669
aI0
aI01
aI00
aI00
aI00
aI00
aI00
aI00
aI01
aa(lp728
I234378
aF206.779
aF567.06
aVp1
p729
aS'utopia'
p730
aS'#656565'
p731
aF10.3669
aI0
aI00
aI00
aI01
aI01
aI01
aI00
aI00
aI00
aa(lp732
I68032
aF40.9084
aF586.891
aVp1
p733
aS'utopia'
p734
aS'#656565'
p735
aF8.88595
aI0
aI01
aI00
aI00
aI00
aI00
aI00
aI00
aI00
aa(lp736
I85218
aF96.4456
aF586.891
aVp1
p737
aS'utopia'
p738
aS'#656565'
p739
aF8.88595
aI0
aI00
aI00
aI00
aI00
aI00
aI00
aI00
aI00
aa(lp740
I125078
aF113.477
aF586.891
aVp1
p741
aS'utopia'
p742
aS'#656565'
p743
aF8.88595
aI0
aI01
aI00
aI00
aI00
aI00
aI00
aI00
aI00
aa(lp744
I124531
aF40.1679
aF622.452
aVp1
p745
aS'utopia'
p746
aS'#02304b'
p747
aF11.8479
aI1
aI01
aI00
aI00
aI00
aI00
aI00
aI00
aI00
aa(lp748
I234378
aF40.9084
aF650.736
aVp1
p749
aS'utopia'
p750
aS'#656565'
p751
aF10.3669
aI0
aI01
aI00
aI00
aI00
aI00
aI00
aI00
aI00
aa(lp752
I234378
aF117.18
aF650.736
aVp1
p753
aS'utopia'
p754
aS'#656565'
p755
aF10.3669
aI0
aI00
aI00
aI00
aI00
aI00
aI00
aI00
aI00
aa(lp756
I60201
aF123.103
aF650.736
aVp1
p757
aS'utopia'
p758
aS'#656565'
p759
aF10.3669
aI0
aI01
aI00
aI00
aI00
aI00
aI00
aI00
aI00
aa(lp760
I230071
aF143.097
aF650.736
aVp1
p761
aS'utopia'
p762
aS'#656565'
p763
aF10.3669
aI0
aI01
aI00
aI00
aI00
aI00
aI00
aI00
aI00
aa(lp764
I234378
aF169.755
aF650.736
aVp1
p765
aS'utopia'
p766
aS'#656565'
p767
aF10.3669
aI0
aI00
aI00
aI00
aI00
aI00
aI00
aI00
aI00
aa(lp768
I27780
aF40.9084
aF666.758
aVp1
p769
aS'utopia'
p770
aS'#000000'
p771
aF10.3669
aI1
aI01
aI01
aI00
aI00
aI00
aI00
aI00
aI00
aa(lp772
I234378
aF46.15191818181818
aF666.758
ag769
aS'utopia'
p773
aS'#000000'
p774
aF10.3669
aI1
aI00
aI00
aI00
aI00
aI00
aI00
aI00
aI00
aa(lp775
I2737
aF51.395436363636364
aF666.758
ag769
aS'utopia'
p776
aS'#000000'
p777
aF10.3669
aI1
aI01
aI00
aI00
aI00
aI00
aI00
aI00
aI00
aa(lp778
I234378
aF72.36950909090909
aF666.758
ag769
aS'utopia'
p779
aS'#000000'
p780
aF10.3669
aI1
aI00
aI00
aI00
aI00
aI00
aI00
aI00
aI00
aa(lp781
I27780
aF70.61302727272727
aF666.758
ag769
aS'utopia'
p782
aS'#000000'
p783
aF10.3669
aI1
aI01
aI01
aI00
aI00
aI00
aI00
aI00
aI00
aa(lp784
I234378
aF75.85654545454545
aF666.758
ag769
aS'utopia'
p785
aS'#000000'
p786
aF10.3669
aI1
aI00
aI00
aI00
aI00
aI00
aI00
aI00
aI00
aa(lp787
I64620
aF88.10006363636364
aF666.758
ag769
aS'utopia'
p788
aS'#000000'
p789
aF10.3669
aI1
aI01
aI01
aI00
aI00
aI00
aI00
aI00
aI00
aa(lp790
I234378
aF84.34358181818183
aF666.758
ag769
aS'utopia'
p791
aS'#000000'
p792
aF10.3669
aI1
aI00
aI00
aI00
aI00
aI00
aI00
aI00
aI00
aa(lp793
I234378
aF100.889
aF666.758
aVp1
p794
aS'utopia'
p795
aS'#000000'
p796
aF10.3669
aI1
aI00
aI00
aI00
aI00
aI00
aI00
aI00
aI00
aa(lp797
I234378
aF106.48095454545454
aF666.758
ag794
aS'utopia'
p798
aS'#000000'
p799
aF10.3669
aI1
aI01
aI00
aI00
aI00
aI00
aI00
aI00
aI00
aa(lp800
I234378
aF156.80854545454542
aF666.758
ag794
aS'utopia'
p801
aS'#000000'
p802
aF10.3669
aI1
aI00
aI00
aI00
aI00
aI00
aI00
aI00
aI00
aa(lp803
I234378
aF40.9084
aF687.021
aVp1
p804
aS'utopia'
p805
aS'#656565'
p806
aF10.3669
aI0
aI01
aI00
aI00
aI00
aI00
aI00
aI00
aI00
aa(lp807
I234378
aF92.0026
aF687.021
aVp1
p808
aS'utopia'
p809
aS'#656565'
p810
aF10.3669
aI0
aI01
aI00
aI00
aI00
aI00
aI00
aI00
aI00
aa(lp811
I153079
aF123.844
aF687.021
aVp1
p812
aS'utopia'
p813
aS'#656565'
p814
aF10.3669
aI0
aI01
aI00
aI00
aI00
aI00
aI00
aI00
aI00
aa(lp815
I234378
aF174.198
aF687.021
aVp1
p816
aS'utopia'
p817
aS'#656565'
p818
aF10.3669
aI0
aI00
aI00
aI00
aI00
aI00
aI00
aI00
aI00
aa(lp819
I234378
aF179.65664
aF687.021
ag816
aS'utopia'
p820
aS'#656565'
p821
aF10.3669
aI0
aI01
aI01
aI00
aI00
aI00
aI00
aI00
aI00
aa(lp822
I234378
aF196.03256000000002
aF687.021
ag816
aS'utopia'
p823
aS'#656565'
p824
aF10.3669
aI0
aI00
aI00
aI00
aI00
aI00
aI00
aI00
aI00
aa(lp825
I135639
aF208.26
aF687.021
aVp1
p826
aS'utopia'
p827
aS'#656565'
p828
aF10.3669
aI0
aI00
aI00
aI00
aI00
aI00
aI00
aI00
aI00
aa(lp829
I234378
aF220.108
aF687.021
aVp1
p830
aS'utopia'
p831
aS'#656565'
p832
aF10.3669
aI0
aI00
aI00
aI01
aI01
aI01
aI00
aI00
aI00
aa(lp833
I234378
aF40.1679
aF720.938
aVp1
p834
aS'utopia'
p835
aS'#02304b'
p836
aF11.8479
aI1
aI01
aI00
aI00
aI00
aI00
aI00
aI00
aI00
aa(lp837
I109610
aF48.3134
aF36.4714
aVp2
p838
aS'utopia'
p839
aS'#000000'
p840
aF8.88595
aI1
aI01
aI00
aI00
aI00
aI00
aI00
aI00
aI00
aa(lp841
I158577
aF69.7878
aF36.4714
aVp2
p842
aS'utopia'
p843
aS'#000000'
p844
aF8.88595
aI1
aI01
aI00
aI00
aI00
aI00
aI00
aI00
aI00
aa(lp845
I194179
aF188.267
aF36.4714
aVp2
p846
aS'utopia'
p847
aS'#000000'
p848
aF8.88595
aI1
aI01
aI00
aI00
aI00
aI00
aI00
aI00
aI00
aa(lp849
I177981
aF305.265
aF36.4714
aVp2
p850
aS'utopia'
p851
aS'#000000'
p852
aF8.88595
aI1
aI01
aI00
aI00
aI00
aI00
aI00
aI00
aI00
aa(lp853
I25729
aF324.518
aF36.4714
aVp2
p854
aS'utopia'
p855
aS'#000000'
p856
aF8.88595
aI1
aI01
aI00
aI00
aI00
aI00
aI00
aI00
aI00
aa(lp857
I60220
aF412.637
aF36.4714
aVp2
p858
aS'utopia'
p859
aS'#000000'
p860
aF8.88595
aI1
aI01
aI00
aI00
aI00
aI00
aI00
aI00
aI00
aa(lp861
I233063
aF48.3134
aF55.2148
aVp2
p862
aS'utopia'
p863
aS'#656565'
p864
aF8.88595
aI0
aI01
aI01
aI00
aI00
aI00
aI00
aI00
aI00
aa(lp865
I234378
aF404.492
aF55.2148
aVp2
p866
aS'utopia'
p867
aS'#656565'
p868
aF8.88595
aI0
aI00
aI00
aI01
aI01
aI00
aI00
aI00
aI00
aa(lp869
I91136
aF411.156
aF55.2148
aVp2
p870
aS'utopia'
p871
aS'#656565'
p872
aF8.88595
aI0
aI01
aI00
aI00
aI00
aI00
aI00
aI00
aI00
aa(lp873
I234378
aF431.15
aF55.2148
aVp2
p874
aS'utopia'
p875
aS'#656565'
p876
aF8.88595
aI0
aI00
aI00
aI01
aI01
aI00
aI00
aI00
aI00
aa(lp877
I234378
aF437.814
aF55.2148
aVp2
p878
aS'utopia'
p879
aS'#656565'
p880
aF8.88595
aI0
aI01
aI00
aI00
aI00
aI00
aI00
aI00
aI00
aa(lp881
I233063
aF48.3134
aF73.7272
aVp2
p882
aS'utopia'
p883
aS'#656565'
p884
aF8.88595
aI0
aI01
aI01
aI00
aI00
aI00
aI00
aI00
aI00
aa(lp885
I234378
aF422.264
aF73.7272
aVp2
p886
aS'utopia'
p887
aS'#656565'
p888
aF8.88595
aI0
aI00
aI00
aI01
aI01
aI00
aI00
aI00
aI00
aa(lp889
I234378
aF428.928
aF73.7272
aVp2
p890
aS'utopia'
p891
aS'#656565'
p892
aF8.88595
aI0
aI01
aI00
aI00
aI00
aI00
aI00
aI00
aI00
aa(lp893
I234378
aF48.3134
aF92.2396
aVp2
p894
aS'utopia'
p895
aS'#656565'
p896
aF8.88595
aI0
aI01
aI00
aI00
aI00
aI00
aI00
aI00
aI00
aa(lp897
I234378
aF403.011
aF92.2396
aVp2
p898
aS'utopia'
p899
aS'#656565'
p900
aF8.88595
aI0
aI00
aI00
aI01
aI01
aI00
aI00
aI00
aI00
aa(lp901
I234378
aF409.675
aF92.2396
aVp2
p902
aS'utopia'
p903
aS'#656565'
p904
aF8.88595
aI0
aI01
aI00
aI00
aI00
aI00
aI00
aI00
aI00
aa(lp905
I234378
aF433.371
aF92.2396
aVp2
p906
aS'utopia'
p907
aS'#656565'
p908
aF8.88595
aI0
aI00
aI00
aI01
aI01
aI00
aI00
aI00
aI00
aa(lp909
I234378
aF440.036
aF92.2396
aVp2
p910
aS'utopia'
p911
aS'#656565'
p912
aF8.88595
aI0
aI01
aI00
aI00
aI00
aI00
aI00
aI00
aI00
aa(lp913
I148996
aF48.3134
aF110.752
aVp2
p914
aS'utopia'
p915
aS'#656565'
p916
aF8.88595
aI0
aI01
aI00
aI00
aI00
aI00
aI00
aI00
aI00
aa(lp917
I234378
aF404.492
aF110.752
aVp2
p918
aS'utopia'
p919
aS'#656565'
p920
aF8.88595
aI0
aI00
aI00
aI01
aI01
aI00
aI00
aI00
aI00
aa(lp921
I91136
aF411.156
aF110.752
aVp2
p922
aS'utopia'
p923
aS'#656565'
p924
aF8.88595
aI0
aI01
aI00
aI00
aI00
aI00
aI00
aI00
aI00
aa(lp925
I234378
aF431.15
aF110.752
aVp2
p926
aS'utopia'
p927
aS'#656565'
p928
aF8.88595
aI0
aI00
aI00
aI01
aI01
aI00
aI00
aI00
aI00
aa(lp929
I234378
aF437.814
aF110.752
aVp2
p930
aS'utopia'
p931
aS'#656565'
p932
aF8.88595
aI0
aI01
aI00
aI00
aI00
aI00
aI00
aI00
aI00
aa(lp933
I176767
aF48.3134
aF129.264
aVp2
p934
aS'utopia'
p935
aS'#656565'
p936
aF8.88595
aI0
aI01
aI00
aI00
aI00
aI00
aI00
aI00
aI00
aa(lp937
I234378
aF404.492
aF129.264
aVp2
p938
aS'utopia'
p939
aS'#656565'
p940
aF8.88595
aI0
aI00
aI00
aI01
aI01
aI00
aI00
aI00
aI00
aa(lp941
I91136
aF411.156
aF129.264
aVp2
p942
aS'utopia'
p943
aS'#656565'
p944
aF8.88595
aI0
aI01
aI00
aI00
aI00
aI00
aI00
aI00
aI00
aa(lp945
I234378
aF431.15
aF129.264
aVp2
p946
aS'utopia'
p947
aS'#656565'
p948
aF8.88595
aI0
aI00
aI00
aI01
aI01
aI00
aI00
aI00
aI00
aa(lp949
I234378
aF437.814
aF129.264
aVp2
p950
aS'utopia'
p951
aS'#656565'
p952
aF8.88595
aI0
aI01
aI00
aI00
aI00
aI00
aI00
aI00
aI00
aa(lp953
I195166
aF40.1679
aF179.636
aVp2
p954
aS'utopia'
p955
aS'#02304b'
p956
aF11.8479
aI1
aI01
aI00
aI00
aI00
aI00
aI00
aI00
aI00
aa(lp957
I136346
aF96.4456
aF179.636
aVp2
p958
aS'utopia'
p959
aS'#02304b'
p960
aF11.8479
aI1
aI01
aI00
aI00
aI00
aI00
aI00
aI00
aI00
aa(lp961
I195166
aF48.3134
aF207.526
aVp2
p962
aS'utopia'
p963
aS'#000000'
p964
aF8.88595
aI1
aI01
aI00
aI00
aI00
aI00
aI00
aI00
aI00
aa(lp965
I164378
aF177.16
aF207.526
aVp2
p966
aS'utopia'
p967
aS'#000000'
p968
aF8.88595
aI1
aI01
aI00
aI00
aI00
aI00
aI00
aI00
aI00
aa(lp969
I175077
aF296.379
aF207.526
aVp2
p970
aS'utopia'
p971
aS'#000000'
p972
aF8.88595
aI1
aI01
aI00
aI00
aI00
aI00
aI00
aI00
aI00
aa(lp973
I224291
aF397.087
aF207.526
aVp2
p974
aS'utopia'
p975
aS'#000000'
p976
aF8.88595
aI1
aI01
aI00
aI00
aI00
aI00
aI00
aI00
aI00
aa(lp977
I165206
aF497.054
aF207.526
aVp2
p978
aS'utopia'
p979
aS'#000000'
p980
aF8.88595
aI1
aI01
aI00
aI00
aI00
aI00
aI00
aI00
aI00
aa(lp981
I58002
aF48.3134
aF226.269
aVp2
p982
aS'utopia'
p983
aS'#656565'
p984
aF8.88595
aI0
aI01
aI00
aI00
aI00
aI00
aI00
aI00
aI00
aa(lp985
I61354
aF177.16
aF226.269
aVp2
p986
aS'utopia'
p987
aS'#656565'
p988
aF8.88595
aI0
aI01
aI00
aI00
aI00
aI00
aI00
aI00
aI00
aa(lp989
I106589
aF48.3134
aF244.782
aVp2
p990
aS'utopia'
p991
aS'#656565'
p992
aF8.88595
aI0
aI01
aI00
aI00
aI00
aI00
aI00
aI00
aI00
aa(lp993
I61354
aF177.16
aF244.782
aVp2
p994
aS'utopia'
p995
aS'#656565'
p996
aF8.88595
aI0
aI01
aI00
aI00
aI00
aI00
aI00
aI00
aI00
aa(lp997
I234378
aF40.1679
aF276.641
aVp2
p998
aS'utopia'
p999
aS'#02304b'
p1000
aF11.8479
aI1
aI01
aI00
aI00
aI00
aI00
aI00
aI00
aI00
aa(lp1001
I201816
aF40.9084
aF308.464
aVp2
p1002
aS'utopia'
p1003
aS'#000000'
p1004
aF8.88595
aI0
aI01
aI00
aI00
aI00
aI00
aI00
aI00
aI00
aa(lp1005
I234378
aF54.9779
aF308.464
aVp2
p1006
aS'utopia'
p1007
aS'#000000'
p1008
aF8.88595
aI0
aI01
aI00
aI00
aI00
aI00
aI00
aI00
aI00
aa(lp1009
I86196
aF89.0407
aF308.464
aVp2
p1010
aS'utopia'
p1011
aS'#000000'
p1012
aF8.88595
aI0
aI01
aI00
aI00
aI00
aI00
aI00
aI00
aI00
aa(lp1013
I177271
aF40.1679
aF347.728
aVp2
p1014
aS'utopia'
p1015
aS'#02304b'
p1016
aF11.8479
aI1
aI01
aI00
aI00
aI00
aI00
aI00
aI00
aI00
aa(lp1017
I234378
aF74.2307
aF347.728
aVp2
p1018
aS'utopia'
p1019
aS'#02304b'
p1020
aF11.8479
aI1
aI01
aI00
aI00
aI00
aI00
aI00
aI00
aI00
aa(lp1021
I7520
aF49.0539
aF368.338
aVp2
p1022
aS'utopia'
p1023
aS'#656565'
p1024
aF10.3669
aI1
aI01
aI00
aI00
aI00
aI00
aI00
aI00
aI00
aa(lp1025
I10865
aF93.4836
aF368.338
aVp2
p1026
aS'utopia'
p1027
aS'#656565'
p1028
aF10.3669
aI1
aI01
aI00
aI00
aI00
aI00
aI00
aI00
aI00
aa(lp1029
I132955
aF49.0539
aF383.995
aVp2
p1030
aS'utopia'
p1031
aS'#656565'
p1032
aF8.88595
aI0
aI01
aI00
aI00
aI00
aI00
aI00
aI00
aI00
aa(lp1033
I144489
aF69.7878
aF383.995
aVp2
p1034
aS'utopia'
p1035
aS'#656565'
p1036
aF8.88595
aI0
aI00
aI00
aI00
aI00
aI00
aI00
aI00
aI00
aa(lp1037
I132529
aF80.1547
aF383.995
aVp2
p1038
aS'utopia'
p1039
aS'#656565'
p1040
aF8.88595
aI0
aI01
aI00
aI00
aI00
aI00
aI00
aI00
aI00
aa(lp1041
I234378
aF98.76336666666667
aF383.995
ag1038
aS'utopia'
p1042
aS'#656565'
p1043
aF8.88595
aI0
aI00
aI00
aI00
aI00
aI00
aI00
aI00
aI00
aa(lp1044
I234378
aF104.591
aF383.995
aVp2
p1045
aS'utopia'
p1046
aS'#434343'
p1047
aF8.88595
aI0
aI00
aI00
aI01
aI01
aI01
aI00
aI00
aI00
aa(lp1048
I37515
aF115.699
aF383.995
aVp2
p1049
aS'utopia'
p1050
aS'#434343'
p1051
aF8.88595
aI0
aI01
aI00
aI00
aI00
aI00
aI00
aI00
aI01
aa(lp1052
I234378
aF134.951
aF383.995
aVp2
p1053
aS'utopia'
p1054
aS'#434343'
p1055
aF8.88595
aI0
aI00
aI00
aI01
aI01
aI01
aI00
aI00
aI00
aa(lp1056
I108944
aF49.0539
aF399.545
aVp2
p1057
aS'utopia'
p1058
aS'#656565'
p1059
aF8.88595
aI0
aI01
aI00
aI00
aI00
aI00
aI00
aI00
aI00
aa(lp1060
I234378
aF76.44544285714287
aF399.545
ag1057
aS'utopia'
p1061
aS'#656565'
p1062
aF8.88595
aI0
aI00
aI00
aI00
aI00
aI00
aI00
aI00
aI00
aa(lp1063
I104428
aF83.1167
aF399.545
aVp2
p1064
aS'utopia'
p1065
aS'#434343'
p1066
aF8.88595
aI0
aI01
aI00
aI00
aI00
aI00
aI00
aI00
aI00
aa(lp1067
I86794
aF292.677
aF402.401
aVp2
p1068
aS'utopia'
p1069
aS'#656565'
p1070
aF10.3669
aI1
aI01
aI00
aI00
aI00
aI00
aI00
aI00
aI00
aa(lp1071
I131455
aF331.183
aF402.401
aVp2
p1072
aS'utopia'
p1073
aS'#656565'
p1074
aF10.3669
aI1
aI01
aI00
aI00
aI00
aI00
aI00
aI00
aI00
aa(lp1075
I234378
aF348.955
aF402.401
aVp2
p1076
aS'utopia'
p1077
aS'#656565'
p1078
aF10.3669
aI1
aI01
aI00
aI00
aI00
aI00
aI00
aI00
aI00
aa(lp1079
I212271
aF49.0539
aF415.096
aVp2
p1080
aS'utopia'
p1081
aS'#656565'
p1082
aF8.88595
aI0
aI01
aI00
aI00
aI00
aI00
aI00
aI00
aI00
aa(lp1083
I12510
aF79.4142
aF415.096
aVp2
p1084
aS'utopia'
p1085
aS'#656565'
p1086
aF8.88595
aI0
aI01
aI00
aI00
aI00
aI00
aI00
aI00
aI00
aa(lp1087
I234378
aF101.72811428571428
aF415.096
ag1084
aS'utopia'
p1088
aS'#656565'
p1089
aF8.88595
aI0
aI00
aI00
aI00
aI00
aI00
aI00
aI00
aI00
aa(lp1090
I97834
aF107.553
aF415.096
aVp2
p1091
aS'utopia'
p1092
aS'#434343'
p1093
aF8.88595
aI0
aI01
aI00
aI00
aI00
aI00
aI00
aI00
aI00
aa(lp1094
I131455
aF292.677
aF418.058
aVp2
p1095
aS'utopia'
p1096
aS'#656565'
p1097
aF8.88595
aI0
aI01
aI00
aI00
aI00
aI00
aI00
aI00
aI00
aa(lp1098
I197416
aF308.227
aF418.058
aVp2
p1099
aS'utopia'
p1100
aS'#656565'
p1101
aF8.88595
aI0
aI01
aI00
aI00
aI00
aI00
aI00
aI00
aI00
aa(lp1102
I234378
aF325.49892
aF418.058
ag1099
aS'utopia'
p1103
aS'#656565'
p1104
aF8.88595
aI0
aI00
aI00
aI00
aI00
aI00
aI00
aI00
aI00
aa(lp1105
I28425
aF331.923
aF418.058
aVp2
p1106
aS'utopia'
p1107
aS'#434343'
p1108
aF8.88595
aI0
aI01
aI00
aI00
aI00
aI00
aI00
aI00
aI00
aa(lp1109
I234378
aF377.834
aF418.058
aVp2
p1110
aS'utopia'
p1111
aS'#434343'
p1112
aF8.88595
aI0
aI00
aI00
aI00
aI00
aI00
aI00
aI00
aI00
aa(lp1113
I137944
aF382.3888636363636
aF418.058
ag1110
aS'utopia'
p1114
aS'#434343'
p1115
aF8.88595
aI0
aI01
aI00
aI00
aI00
aI00
aI00
aI00
aI00
aa(lp1116
I234378
aF413.3826363636363
aF418.058
ag1110
aS'utopia'
p1117
aS'#434343'
p1118
aF8.88595
aI0
aI00
aI00
aI00
aI00
aI00
aI00
aI00
aI00
aa(lp1119
I42298
aF427.93749999999994
aF418.058
ag1110
aS'utopia'
p1120
aS'#434343'
p1121
aF8.88595
aI0
aI01
aI00
aI00
aI00
aI00
aI00
aI00
aI00
aa(lp1122
I118366
aF49.0539
aF434.983
aVp2
p1123
aS'utopia'
p1124
aS'#656565'
p1125
aF10.3669
aI1
aI01
aI00
aI00
aI00
aI00
aI00
aI00
aI00
aa(lp1126
I234378
aF83.97235
aF434.983
ag1123
aS'utopia'
p1127
aS'#656565'
p1128
aF10.3669
aI1
aI00
aI00
aI00
aI00
aI00
aI00
aI00
aI00
aa(lp1129
I72722
aF292.677
aF433.608
aVp2
p1130
aS'utopia'
p1131
aS'#656565'
p1132
aF8.88595
aI0
aI01
aI00
aI00
aI00
aI00
aI00
aI00
aI00
aa(lp1133
I12510
aF345.993
aF433.608
aVp2
p1134
aS'utopia'
p1135
aS'#656565'
p1136
aF8.88595
aI0
aI01
aI00
aI00
aI00
aI00
aI00
aI00
aI00
aa(lp1137
I234378
aF368.3069142857143
aF433.608
ag1134
aS'utopia'
p1138
aS'#656565'
p1139
aF8.88595
aI0
aI00
aI00
aI00
aI00
aI00
aI00
aI00
aI00
aa(lp1140
I60201
aF374.132
aF433.608
aVp2
p1141
aS'utopia'
p1142
aS'#434343'
p1143
aF8.88595
aI0
aI01
aI00
aI00
aI00
aI00
aI00
aI00
aI00
aa(lp1144
I230071
aF391.163
aF433.608
aVp2
p1145
aS'utopia'
p1146
aS'#434343'
p1147
aF8.88595
aI0
aI01
aI00
aI00
aI00
aI00
aI00
aI00
aI00
aa(lp1148
I234378
aF49.0539
aF447.678
aVp2
p1149
aS'utopia'
p1150
aS'#000000'
p1151
aF8.88595
aI0
aI01
aI00
aI00
aI00
aI00
aI00
aI00
aI00
aa(lp1152
I234378
aF77.1927
aF447.678
aVp2
p1153
aS'utopia'
p1154
aS'#000000'
p1155
aF8.88595
aI0
aI01
aI00
aI00
aI00
aI00
aI00
aI00
aI00
aa(lp1156
I71195
aF49.0539
aF458.045
aVp2
p1157
aS'utopia'
p1158
aS'#000000'
p1159
aF8.88595
aI0
aI01
aI00
aI00
aI00
aI00
aI00
aI00
aI00
aa(lp1160
I201816
aF66.0853
aF458.045
aVp2
p1161
aS'utopia'
p1162
aS'#000000'
p1163
aF8.88595
aI0
aI01
aI00
aI00
aI00
aI00
aI00
aI00
aI00
aa(lp1164
I234378
aF75.5419
aF458.045
ag1161
aS'utopia'
p1165
aS'#000000'
p1166
aF8.88595
aI0
aI00
aI00
aI00
aI00
aI00
aI00
aI00
aI00
aa(lp1167
I234378
aF82.3762
aF458.045
aVp2
p1168
aS'utopia'
p1169
aS'#000000'
p1170
aF8.88595
aI0
aI00
aI00
aI01
aI01
aI01
aI00
aI00
aI00
aa(lp1171
I234378
aF94.125625
aF458.045
ag1168
aS'utopia'
p1172
aS'#000000'
p1173
aF8.88595
aI0
aI00
aI00
aI00
aI00
aI00
aI00
aI00
aI00
aa(lp1174
I234378
aF49.0539
aF468.411
aVp2
p1175
aS'utopia'
p1176
aS'#000000'
p1177
aF8.88595
aI0
aI01
aI01
aI00
aI00
aI00
aI00
aI00
aI00
aa(lp1178
I234378
aF69.0473
aF468.411
aVp2
p1179
aS'utopia'
p1180
aS'#000000'
p1181
aF8.88595
aI0
aI01
aI00
aI00
aI00
aI00
aI00
aI00
aI00
aa(lp1182
I49897
aF100.148
aF468.411
aVp2
p1183
aS'utopia'
p1184
aS'#000000'
p1185
aF8.88595
aI0
aI01
aI00
aI00
aI00
aI00
aI00
aI00
aI00
aa(lp1186
I166593
aF130.508
aF468.411
aVp2
p1187
aS'utopia'
p1188
aS'#000000'
p1189
aF8.88595
aI0
aI01
aI01
aI00
aI00
aI00
aI00
aI00
aI00
aa(lp1190
I234378
aF134.638485
aF468.411
ag1187
aS'utopia'
p1191
aS'#000000'
p1192
aF8.88595
aI0
aI00
aI00
aI00
aI00
aI00
aI00
aI00
aI00
aa(lp1193
I234378
aF49.0539
aF478.778
aVp2
p1194
aS'utopia'
p1195
aS'#000000'
p1196
aF8.88595
aI0
aI01
aI01
aI00
aI00
aI00
aI00
aI00
aI00
aa(lp1197
I217236
aF65.3448
aF478.778
aVp2
p1198
aS'utopia'
p1199
aS'#000000'
p1200
aF8.88595
aI0
aI01
aI00
aI00
aI00
aI00
aI00
aI00
aI00
aa(lp1201
I234378
aF91.4669142857143
aF478.778
ag1198
aS'utopia'
p1202
aS'#000000'
p1203
aF8.88595
aI0
aI00
aI00
aI00
aI00
aI00
aI00
aI00
aI00
aa(lp1204
I22459
aF49.0539
aF489.145
aVp2
p1205
aS'utopia'
p1206
aS'#000000'
p1207
aF8.88595
aI0
aI01
aI00
aI00
aI00
aI00
aI00
aI00
aI00
aa(lp1208
I89480
aF70.5283
aF489.145
aVp2
p1209
aS'utopia'
p1210
aS'#000000'
p1211
aF8.88595
aI0
aI00
aI00
aI00
aI00
aI00
aI00
aI00
aI00
aa(lp1212
I219134
aF80.8952
aF489.145
aVp2
p1213
aS'utopia'
p1214
aS'#000000'
p1215
aF8.88595
aI0
aI01
aI00
aI00
aI00
aI00
aI00
aI00
aI00
aa(lp1216
I82279
aF100.889
aF489.145
aVp2
p1217
aS'utopia'
p1218
aS'#000000'
p1219
aF8.88595
aI0
aI01
aI00
aI00
aI00
aI00
aI00
aI00
aI00
aa(lp1220
I234378
aF49.0539
aF499.512
aVp2
p1221
aS'utopia'
p1222
aS'#000000'
p1223
aF8.88595
aI0
aI01
aI00
aI00
aI00
aI00
aI00
aI00
aI00
aa(lp1224
I234378
aF49.0539
aF509.879
aVp2
p1225
aS'utopia'
p1226
aS'#000000'
p1227
aF8.88595
aI0
aI00
aI00
aI01
aI01
aI01
aI00
aI00
aI00
aa(lp1228
I234378
aF49.0539
aF520.246
aVp2
p1229
aS'utopia'
p1230
aS'#000000'
p1231
aF8.88595
aI0
aI00
aI00
aI01
aI01
aI01
aI00
aI00
aI00
aa(lp1232
I51933
aF292.677
aF453.495
aVp2
p1233
aS'utopia'
p1234
aS'#656565'
p1235
aF10.3669
aI1
aI01
aI00
aI00
aI00
aI00
aI00
aI00
aI00
aa(lp1236
I62768
aF320.816
aF453.495
aVp2
p1237
aS'utopia'
p1238
aS'#656565'
p1239
aF10.3669
aI1
aI01
aI00
aI00
aI00
aI00
aI00
aI00
aI00
aa(lp1240
I31679
aF292.677
aF469.152
aVp2
p1241
aS'utopia'
p1242
aS'#656565'
p1243
aF8.88595
aI0
aI01
aI01
aI00
aI00
aI00
aI00
aI00
aI00
aa(lp1244
I51933
aF306.006
aF469.152
aVp2
p1245
aS'utopia'
p1246
aS'#656565'
p1247
aF8.88595
aI0
aI01
aI00
aI00
aI00
aI00
aI00
aI00
aI00
aa(lp1248
I12510
aF329.702
aF469.152
aVp2
p1249
aS'utopia'
p1250
aS'#656565'
p1251
aF8.88595
aI0
aI01
aI00
aI00
aI00
aI00
aI00
aI00
aI00
aa(lp1252
I234378
aF352.0159142857143
aF469.152
ag1249
aS'utopia'
p1253
aS'#656565'
p1254
aF8.88595
aI0
aI00
aI00
aI00
aI00
aI00
aI00
aI00
aI00
aa(lp1255
I63091
aF357.841
aF469.152
aVp2
p1256
aS'utopia'
p1257
aS'#434343'
p1258
aF8.88595
aI0
aI01
aI00
aI00
aI00
aI00
aI00
aI00
aI00
aa(lp1259
I234378
aF374.872
aF469.152
aVp2
p1260
aS'utopia'
p1261
aS'#434343'
p1262
aF8.88595
aI0
aI01
aI00
aI00
aI00
aI00
aI00
aI00
aI00
aa(lp1263
I234378
aF292.677
aF484.702
aVp2
p1264
aS'utopia'
p1265
aS'#656565'
p1266
aF8.88595
aI0
aI01
aI00
aI00
aI00
aI00
aI00
aI00
aI00
aa(lp1267
I234378
aF329.43552
aF484.702
ag1264
aS'utopia'
p1268
aS'#656565'
p1269
aF8.88595
aI0
aI00
aI00
aI00
aI00
aI00
aI00
aI00
aI00
aa(lp1270
I164802
aF335.626
aF484.702
aVp2
p1271
aS'utopia'
p1272
aS'#434343'
p1273
aF8.88595
aI0
aI01
aI00
aI00
aI00
aI00
aI00
aI00
aI00
aa(lp1274
I166771
aF292.677
aF504.589
aVp2
p1275
aS'utopia'
p1276
aS'#656565'
p1277
aF10.3669
aI1
aI01
aI00
aI00
aI00
aI00
aI00
aI00
aI00
aa(lp1278
I74833
aF348.955
aF504.589
aVp2
p1279
aS'utopia'
p1280
aS'#656565'
p1281
aF10.3669
aI1
aI01
aI00
aI00
aI00
aI00
aI00
aI00
aI00
aa(lp1282
I233758
aF292.677
aF520.246
aVp2
p1283
aS'utopia'
p1284
aS'#656565'
p1285
aF8.88595
aI0
aI01
aI00
aI00
aI00
aI00
aI00
aI00
aI00
aa(lp1286
I234378
aF326.3488222222222
aF520.246
ag1283
aS'utopia'
p1287
aS'#656565'
p1288
aF8.88595
aI0
aI00
aI00
aI00
aI00
aI00
aI00
aI00
aI00
aa(lp1289
I63091
aF332.664
aF520.246
aVp2
p1290
aS'utopia'
p1291
aS'#434343'
p1292
aF8.88595
aI0
aI01
aI00
aI00
aI00
aI00
aI00
aI00
aI00
aa(lp1293
I234378
aF349.695
aF520.246
aVp2
p1294
aS'utopia'
p1295
aS'#434343'
p1296
aF8.88595
aI0
aI01
aI00
aI00
aI00
aI00
aI00
aI00
aI00
aa(lp1297
I182663
aF49.0539
aF533.575
aVp2
p1298
aS'utopia'
p1299
aS'#656565'
p1300
aF8.88595
aI0
aI01
aI00
aI00
aI00
aI00
aI00
aI00
aI00
aa(lp1301
I82279
aF76.4522
aF533.575
aVp2
p1302
aS'utopia'
p1303
aS'#656565'
p1304
aF8.88595
aI0
aI01
aI00
aI00
aI00
aI00
aI00
aI00
aI00
aa(lp1305
I234378
aF96.09372
aF533.575
ag1302
aS'utopia'
p1306
aS'#656565'
p1307
aF8.88595
aI0
aI00
aI00
aI00
aI00
aI00
aI00
aI00
aI00
aa(lp1308
I234378
aF103.11
aF533.575
aVp2
p1309
aS'utopia'
p1310
aS'#000000'
p1311
aF8.88595
aI0
aI00
aI00
aI00
aI00
aI00
aI00
aI00
aI00
aa(lp1312
I151511
aF292.677
aF535.797
aVp2
p1313
aS'utopia'
p1314
aS'#656565'
p1315
aF8.88595
aI0
aI01
aI00
aI00
aI00
aI00
aI00
aI00
aI00
aa(lp1316
I234378
aF333.404
aF535.797
aVp2
p1317
aS'utopia'
p1318
aS'#656565'
p1319
aF8.88595
aI0
aI01
aI00
aI00
aI00
aI00
aI00
aI00
aI00
aa(lp1320
I234378
aF375.2460909090909
aF535.797
ag1317
aS'utopia'
p1321
aS'#656565'
p1322
aF8.88595
aI0
aI00
aI00
aI00
aI00
aI00
aI00
aI00
aI00
aa(lp1323
I201816
aF381.537
aF535.797
aVp2
p1324
aS'utopia'
p1325
aS'#434343'
p1326
aF8.88595
aI0
aI01
aI00
aI00
aI00
aI00
aI00
aI00
aI00
aa(lp1327
I234378
aF301.563
aF124.081
aVp1
p1328
aS'utopia'
p1329
aS'#000000'
p1330
aF8.88595
aI0
aI00
aI00
aI01
aI01
aI01
aI00
aI00
aI00
aa(lp1331
I234378
aF301.563
aF141.853
aVp1
p1332
aS'utopia'
p1333
aS'#000000'
p1334
aF8.88595
aI0
aI00
aI00
aI01
aI01
aI01
aI00
aI00
aI00
aa(lp1335
I16915
aF308.227
aF176.656
aVp1
p1336
aS'utopia'
p1337
aS'#878787'
p1338
aF8.88595
aI0
aI01
aI00
aI00
aI00
aI00
aI00
aI00
aI00
aa(lp1339
I60220
aF330.442
aF176.656
aVp1
p1340
aS'utopia'
p1341
aS'#878787'
p1342
aF8.88595
aI0
aI01
aI00
aI00
aI00
aI00
aI00
aI00
aI00
aa(lp1343
I234378
aF372.28409090909093
aF176.656
ag1340
aS'utopia'
p1344
aS'#878787'
p1345
aF8.88595
aI0
aI00
aI00
aI00
aI00
aI00
aI00
aI00
aI00
aa(lp1346
I234378
aF380.796
aF176.656
aVp1
p1347
aS'utopia'
p1348
aS'#000000'
p1349
aF8.88595
aI0
aI00
aI00
aI01
aI01
aI00
aI00
aI00
aI00
aa(lp1350
I91136
aF387.46
aF176.656
aVp1
p1351
aS'utopia'
p1352
aS'#000000'
p1353
aF8.88595
aI0
aI01
aI00
aI00
aI00
aI00
aI00
aI00
aI00
aa(lp1354
I234378
aF403.18559999999997
aF176.656
ag1351
aS'utopia'
p1355
aS'#000000'
p1356
aF8.88595
aI0
aI00
aI00
aI00
aI00
aI00
aI00
aI00
aI00
aa(lp1357
I59734
aF407.11699999999996
aF176.656
ag1351
aS'utopia'
p1358
aS'#000000'
p1359
aF8.88595
aI0
aI00
aI00
aI00
aI00
aI00
aI00
aI00
aI00
aa(lp1360
I234378
aF411.04839999999996
aF176.656
ag1351
aS'utopia'
p1361
aS'#000000'
p1362
aF8.88595
aI0
aI00
aI00
aI00
aI00
aI00
aI00
aI00
aI00
aa(lp1363
I234378
aF417.08
aF176.656
aVp1
p1364
aS'utopia'
p1365
aS'#000000'
p1366
aF8.88595
aI0
aI00
aI00
aI01
aI01
aI00
aI00
aI00
aI00
aa(lp1367
I63729
aF423.745
aF176.656
aVp1
p1368
aS'utopia'
p1369
aS'#000000'
p1370
aF8.88595
aI0
aI01
aI00
aI00
aI00
aI00
aI00
aI00
aI00
aa(lp1371
I234378
aF446.4985625
aF176.656
ag1368
aS'utopia'
p1372
aS'#000000'
p1373
aF8.88595
aI0
aI00
aI00
aI00
aI00
aI00
aI00
aI00
aI00
aa(lp1374
I59734
aF451.04927499999997
aF176.656
ag1368
aS'utopia'
p1375
aS'#000000'
p1376
aF8.88595
aI0
aI00
aI00
aI00
aI00
aI00
aI00
aI00
aI00
aa(lp1377
I234378
aF455.59998749999994
aF176.656
ag1368
aS'utopia'
p1378
aS'#000000'
p1379
aF8.88595
aI0
aI00
aI00
aI00
aI00
aI00
aI00
aI00
aI00
aa(lp1380
I229300
aF308.227
aF194.428
aVp1
p1381
aS'utopia'
p1382
aS'#878787'
p1383
aF8.88595
aI0
aI01
aI00
aI00
aI00
aI00
aI00
aI00
aI00
aa(lp1384
I78894
aF338.588
aF194.428
aVp1
p1385
aS'utopia'
p1386
aS'#878787'
p1387
aF8.88595
aI0
aI01
aI00
aI00
aI00
aI00
aI00
aI00
aI00
aa(lp1388
I234378
aF360.9019142857143
aF194.428
ag1385
aS'utopia'
p1389
aS'#878787'
p1390
aF8.88595
aI0
aI00
aI00
aI00
aI00
aI00
aI00
aI00
aI00
aa(lp1391
I234378
aF368.948
aF194.428
aVp1
p1392
aS'utopia'
p1393
aS'#000000'
p1394
aF8.88595
aI0
aI01
aI00
aI00
aI00
aI00
aI00
aI00
aI00
aa(lp1395
I234378
aF380.796
aF194.428
aVp1
p1396
aS'utopia'
p1397
aS'#000000'
p1398
aF8.88595
aI0
aI00
aI00
aI01
aI01
aI01
aI00
aI00
aI00
aa(lp1399
I234378
aF388.88576
aF194.428
ag1396
aS'utopia'
p1400
aS'#000000'
p1401
aF8.88595
aI0
aI00
aI00
aI00
aI00
aI00
aI00
aI00
aI00
aa(lp1402
I234378
aF389.93064
aF194.428
ag1396
aS'utopia'
p1403
aS'#000000'
p1404
aF8.88595
aI0
aI00
aI00
aI01
aI01
aI01
aI00
aI00
aI00
aa(lp1405
I234378
aF403.011
aF194.428
aVp1
p1406
aS'utopia'
p1407
aS'#000000'
p1408
aF8.88595
aI0
aI01
aI00
aI00
aI00
aI00
aI00
aI00
aI00
aa(lp1409
I234378
aF308.227
aF212.2
aVp1
p1410
aS'utopia'
p1411
aS'#878787'
p1412
aF8.88595
aI0
aI01
aI00
aI00
aI00
aI00
aI00
aI00
aI00
aa(lp1413
I234378
aF346.733
aF212.2
aVp1
p1414
aS'utopia'
p1415
aS'#878787'
p1416
aF8.88595
aI0
aI01
aI01
aI00
aI00
aI00
aI00
aI00
aI00
aa(lp1417
I234378
aF361.2593
aF212.2
ag1414
aS'utopia'
p1418
aS'#878787'
p1419
aF8.88595
aI0
aI00
aI00
aI00
aI00
aI00
aI00
aI00
aI00
aa(lp1420
I63091
aF370.429
aF212.2
aVp1
p1421
aS'utopia'
p1422
aS'#000000'
p1423
aF8.88595
aI0
aI01
aI00
aI00
aI00
aI00
aI00
aI00
aI00
aa(lp1424
I234378
aF387.46
aF212.2
aVp1
p1425
aS'utopia'
p1426
aS'#000000'
p1427
aF8.88595
aI0
aI01
aI00
aI00
aI00
aI00
aI00
aI00
aI00
aa(lp1428
I7204
aF308.227
aF229.972
aVp1
p1429
aS'utopia'
p1430
aS'#878787'
p1431
aF8.88595
aI0
aI01
aI00
aI00
aI00
aI00
aI00
aI00
aI00
aa(lp1432
I189220
aF340.809
aF229.972
aVp1
p1433
aS'utopia'
p1434
aS'#878787'
p1435
aF8.88595
aI0
aI01
aI00
aI00
aI00
aI00
aI00
aI00
aI00
aa(lp1436
I234378
aF366.93111428571433
aF229.972
ag1433
aS'utopia'
p1437
aS'#878787'
p1438
aF8.88595
aI0
aI00
aI00
aI00
aI00
aI00
aI00
aI00
aI00
aa(lp1439
I27780
aF375.613
aF229.972
aVp1
p1440
aS'utopia'
p1441
aS'#000000'
p1442
aF8.88595
aI0
aI01
aI01
aI00
aI00
aI00
aI00
aI00
aI00
aa(lp1443
I234378
aF379.93184545454545
aF229.972
ag1440
aS'utopia'
p1444
aS'#000000'
p1445
aF8.88595
aI0
aI00
aI00
aI00
aI00
aI00
aI00
aI00
aI00
aa(lp1446
I2737
aF384.2506909090909
aF229.972
ag1440
aS'utopia'
p1447
aS'#000000'
p1448
aF8.88595
aI0
aI01
aI00
aI00
aI00
aI00
aI00
aI00
aI00
aa(lp1449
I234378
aF401.5260727272727
aF229.972
ag1440
aS'utopia'
p1450
aS'#000000'
p1451
aF8.88595
aI0
aI00
aI00
aI00
aI00
aI00
aI00
aI00
aI00
aa(lp1452
I27780
aF398.8449181818182
aF229.972
ag1440
aS'utopia'
p1453
aS'#000000'
p1454
aF8.88595
aI0
aI01
aI01
aI00
aI00
aI00
aI00
aI00
aI00
aa(lp1455
I234378
aF403.1637636363636
aF229.972
ag1440
aS'utopia'
p1456
aS'#000000'
p1457
aF8.88595
aI0
aI00
aI00
aI00
aI00
aI00
aI00
aI00
aI00
aa(lp1458
I64620
aF414.4826090909091
aF229.972
ag1440
aS'utopia'
p1459
aS'#000000'
p1460
aF8.88595
aI0
aI01
aI01
aI00
aI00
aI00
aI00
aI00
aI00
aa(lp1461
I234378
aF409.80145454545453
aF229.972
ag1440
aS'utopia'
p1462
aS'#000000'
p1463
aF8.88595
aI0
aI00
aI00
aI00
aI00
aI00
aI00
aI00
aI00
aa(lp1464
I48671
aF308.227
aF247.744
aVp1
p1465
aS'utopia'
p1466
aS'#878787'
p1467
aF8.88595
aI0
aI01
aI00
aI00
aI00
aI00
aI00
aI00
aI00
aa(lp1468
I129688
aF336.366
aF247.744
aVp1
p1469
aS'utopia'
p1470
aS'#878787'
p1471
aF8.88595
aI0
aI00
aI00
aI00
aI00
aI00
aI00
aI00
aI00
aa(lp1472
I234378
aF360.58405714285715
aF247.744
ag1469
aS'utopia'
p1473
aS'#878787'
p1474
aF8.88595
aI0
aI00
aI00
aI00
aI00
aI00
aI00
aI00
aI00
aa(lp1475
I234378
aF368.948
aF247.744
aVp1
p1476
aS'utopia'
p1477
aS'#000000'
p1478
aF8.88595
aI0
aI00
aI00
aI01
aI01
aI00
aI00
aI00
aI00
aa(lp1479
I234378
aF375.613
aF247.744
aVp1
p1480
aS'utopia'
p1481
aS'#000000'
p1482
aF8.88595
aI0
aI01
aI00
aI00
aI00
aI00
aI00
aI00
aI00
aa(lp1483
I1
aI1
aI0
aI0
aI0
aI0
aI0
aI0
aI0
aI0
aI0
aI0
aI0
aI0
aI0
aI0
aI0
aI0
aI0
aI0
aI0
aI0
aI0
aI0
aI0
aI0
aI0
aI0
aI0
aI0
aI0
aI0
aI0
aI0
aI0
aI0
aI0
aI0
aI0
aI0
aI0
aI0
aI0
aI0
aI0
aI0
aI0
aI0
aI0
aI0
aI0
aI0
aI0
aI0
aI0
aI0
aI0
aI0
aI0
aI0
aI0
aI0
aI0
aI0
aI0
aI0
aI0
aI0
aI0
aI0
aI0
aI0
aI0
aI0
aI0
aI0
aI0
aI0
aI0
aI0
aI0
aI0
aI0
aI0
aI0
aI0
aI0
aI0
aI0
aI0
aI0
aI0
aI0
aI0
aI0
aI0
aI0
aI0
aI0
aI0
aI0
aI0
aI0
aI0
aI0
aI0
aI0
aI0
aI0
aI0
aI0
aI0
aI0
aI0
aI0
aI0
aI0
aI0
aI0
aI0
aI0
aI0
aI0
aI0
aI0
aI0
aI0
aI0
aI0
aI0
aI0
aI0
aI0
aI0
aI0
aI1
aI1
aI0
aI0
aI0
aI0
aI0
aI0
aI0
aI0
aI0
aI0
aI0
aI0
aI0
aI0
aI0
aI0
aI0
aI0
aI0
aI0
aI0
aI0
aI0
aI0
aI0
aI0
aI0
aI0
aI0
aI0
aI0
aI0
aI0
aI0
aI0
aI0
aI0
aI0
aI0
aI0
aI0
aI0
aI0
aI0
aI0
aI0
aI0
aI0
aI0
aI0
aI0
aI0
aI0
aI0
aI0
aI0
aI0
aI0
aI0
aI0
aI0
aI1
aI0
aI0
aI0
aI0
aI0
aI0
aI0
aI0
aI0
aI0
aI0
aI0
aI0
aI0
aI0
aI0
aI0
aI0
aI0
aI0
aI0
aI0
aI0
aI0
aI1
aI0
aI0
aI0
aI0
aI0
aI0
aI0
aI0
aI0
aI0
aI0
aI0
aI0
aI0
aI0
aI0
aI0
aI0
aI0
aI0
aI0
aI0
aI0
aI0
aI0
aI0
aI0
aI0
aI0
aI1
aI1
aI0
aI0
aI0
aI0
aI0
aI0
aI0
aI0
aI0
aI1
aI0
aI0
aI0
aI1
aI0
aI0
aI0
aI0
aI0
aI0
aI0
aI0
aI0
aI0
aI0
aI0
aI0
aI0
aI0
aI0
aI0
aI0
aI0
aI0
aI0
aI0
aI0
aI0
aI0
aI0
aI0
aI0
aI0
aI0
aI0
aI0
aI0
aI0
aI0
aI0
aI0
aI0
aI0
aI0
aI0
aI0
aI0
aI0
aI0
aI0
aI0
aI0
aI0
aI0
aI0
aI0
aI0
aI0
aI0
aI0
aI0
aI0
aI0
aI0
aI0
aI0
aI0
aI0
aI0
aI0
aI0
aI0
aI0
aI0
aI0
aI0
aI0
aI0
aI0
aI0
aI0
aI0
aI0
aI0
aI0
aI0
aI0
aI0
aI0
aI0
aI0
aI0
aI0
aI0
aI0
aI0
aI0
aI0
aI0
aI0
aI0
aI0
aI0
aI0
aI0
aI0
aI0
aI0
aI0
aI0
aI0
aI0
aI0
aI0
aI0
aI0
aI0
aI0
aI0
aI0
aI0
aI0
aI0
aI0
aI0
aI0
aI0
aI0
aI0
aI0
atp1484
.