((lp0
(lp1
I234378
aF40.9084
aF53.0111
aVp1
p2
aS'utopia'
p3
aS'#02304b'
p4
aF11.8479
aI1
aI01
aI00
aI00
aI00
aI00
aI00
aI00
aI00
aa(lp5
I234378
aF78.6737
aF53.0111
aVp1
p6
aS'utopia'
p7
aS'#02304b'
p8
aF11.8479
aI1
aI01
aI00
aI00
aI00
aI00
aI00
aI00
aI00
aa(lp9
I234378
aF46.8324
aF74.4677
aVp1
p10
aS'utopia'
p11
aS'#656565'
p12
aF8.88595
aI0
aI01
aI01
aI00
aI00
aI00
aI00
aI00
aI00
aa(lp13
I169745
aF69.0473
aF74.4677
aVp1
p14
aS'utopia'
p15
aS'#656565'
p16
aF8.88595
aI0
aI00
aI00
aI00
aI00
aI00
aI00
aI00
aI00
aa(lp17
I234378
aF88.3002
aF74.4677
aVp1
p18
aS'utopia'
p19
aS'#656565'
p20
aF8.88595
aI0
aI00
aI00
aI01
aI01
aI00
aI00
aI00
aI00
aa(lp21
I234378
aF94.9646
aF74.4677
aVp1
p22
aS'utopia'
p23
aS'#656565'
p24
aF8.88595
aI0
aI00
aI00
aI00
aI00
aI00
aI00
aI00
aI00
aa(lp25
I144489
aF109.034
aF74.4677
aVp1
p26
aS'utopia'
p27
aS'#656565'
p28
aF8.88595
aI0
aI00
aI00
aI00
aI00
aI00
aI00
aI00
aI00
aa(lp29
I60220
aF119.401
aF74.4677
aVp1
p30
aS'utopia'
p31
aS'#656565'
p32
aF8.88595
aI0
aI00
aI00
aI00
aI00
aI00
aI00
aI00
aI00
aa(lp33
I135639
aF164.571
aF74.4677
aVp1
p34
aS'utopia'
p35
aS'#656565'
p36
aF8.88595
aI0
aI00
aI00
aI00
aI00
aI00
aI00
aI00
aI00
aa(lp37
I234378
aF174.198
aF74.4677
aVp1
p38
aS'utopia'
p39
aS'#656565'
p40
aF8.88595
aI0
aI01
aI00
aI00
aI00
aI00
aI00
aI00
aI00
aa(lp41
I68032
aF211.222
aF74.4677
aVp1
p42
aS'utopia'
p43
aS'#656565'
p44
aF8.88595
aI0
aI00
aI00
aI00
aI00
aI00
aI00
aI00
aI00
aa(lp45
I234378
aF260.87939166666666
aF74.4677
ag42
aS'utopia'
p46
aS'#656565'
p47
aF8.88595
aI0
aI00
aI00
aI00
aI00
aI00
aI00
aI00
aI00
aa(lp48
I123583
aF267.5
aF74.4677
aVp1
p49
aS'utopia'
p50
aS'#656565'
p51
aF8.88595
aI0
aI00
aI00
aI00
aI00
aI00
aI00
aI00
aI00
aa(lp52
I169745
aF301.563
aF74.4677
aVp1
p53
aS'utopia'
p54
aS'#656565'
p55
aF8.88595
aI0
aI00
aI00
aI00
aI00
aI00
aI00
aI00
aI00
aa(lp56
I234378
aF320.816
aF74.4677
aVp1
p57
aS'utopia'
p58
aS'#656565'
p59
aF8.88595
aI0
aI01
aI00
aI00
aI00
aI00
aI00
aI00
aI00
aa(lp60
I234378
aF346.733
aF74.4677
aVp1
p61
aS'utopia'
p62
aS'#656565'
p63
aF8.88595
aI0
aI01
aI00
aI00
aI00
aI00
aI00
aI00
aI00
aa(lp64
I234378
aF357.92705
aF74.4677
ag61
aS'utopia'
p65
aS'#656565'
p66
aF8.88595
aI0
aI00
aI00
aI00
aI00
aI00
aI00
aI00
aI00
aa(lp67
I234378
aF59.4208
aF124.081
aVp1
p68
aS'utopia'
p69
aS'#0d75b4'
p70
aF8.88595
aI0
aI00
aI00
aI00
aI00
aI00
aI01
aI00
aI00
aa(lp71
I234378
aF301.563
aF124.081
aVp1
p72
aS'utopia'
p73
aS'#000000'
p74
aF8.88595
aI0
aI00
aI00
aI01
aI01
aI01
aI00
aI00
aI00
aa(lp75
I15548
aF55.7183
aF158.884
aVp1
p76
aS'utopia'
p77
aS'#878787'
p78
aF8.88595
aI0
aI01
aI00
aI00
aI00
aI00
aI00
aI00
aI00
aa(lp79
I104542
aF89.0407
aF158.884
aVp1
p80
aS'utopia'
p81
aS'#878787'
p82
aF8.88595
aI0
aI01
aI00
aI00
aI00
aI00
aI00
aI00
aI00
aa(lp83
I234378
aF133.94655
aF158.884
ag80
aS'utopia'
p84
aS'#878787'
p85
aF8.88595
aI0
aI00
aI00
aI00
aI00
aI00
aI00
aI00
aI00
aa(lp86
I55966
aF142.356
aF158.884
aVp1
p87
aS'utopia'
p88
aS'#000000'
p89
aF8.88595
aI0
aI01
aI00
aI00
aI00
aI00
aI00
aI00
aI00
aa(lp90
I234378
aF169.755
aF158.884
aVp1
p91
aS'utopia'
p92
aS'#000000'
p93
aF8.88595
aI0
aI01
aI00
aI00
aI00
aI00
aI00
aI00
aI00
aa(lp94
I132100
aF206.779
aF158.884
aVp1
p95
aS'utopia'
p96
aS'#000000'
p97
aF8.88595
aI0
aI01
aI00
aI00
aI00
aI00
aI00
aI00
aI00
aa(lp98
I16915
aF308.227
aF158.884
aVp1
p99
aS'utopia'
p100
aS'#878787'
p101
aF8.88595
aI0
aI01
aI00
aI00
aI00
aI00
aI00
aI00
aI00
aa(lp102
I60220
aF330.442
aF158.884
aVp1
p103
aS'utopia'
p104
aS'#878787'
p105
aF8.88595
aI0
aI01
aI00
aI00
aI00
aI00
aI00
aI00
aI00
aa(lp106
I234378
aF372.28409090909093
aF158.884
ag103
aS'utopia'
p107
aS'#878787'
p108
aF8.88595
aI0
aI00
aI00
aI00
aI00
aI00
aI00
aI00
aI00
aa(lp109
I234378
aF380.796
aF158.884
aVp1
p110
aS'utopia'
p111
aS'#000000'
p112
aF8.88595
aI0
aI00
aI00
aI01
aI01
aI00
aI00
aI00
aI00
aa(lp113
I91136
aF387.46
aF158.884
aVp1
p114
aS'utopia'
p115
aS'#000000'
p116
aF8.88595
aI0
aI01
aI00
aI00
aI00
aI00
aI00
aI00
aI00
aa(lp117
I234378
aF403.18559999999997
aF158.884
ag114
aS'utopia'
p118
aS'#000000'
p119
aF8.88595
aI0
aI00
aI00
aI00
aI00
aI00
aI00
aI00
aI00
aa(lp120
I59734
aF407.11699999999996
aF158.884
ag114
aS'utopia'
p121
aS'#000000'
p122
aF8.88595
aI0
aI00
aI00
aI00
aI00
aI00
aI00
aI00
aI00
aa(lp123
I234378
aF411.04839999999996
aF158.884
ag114
aS'utopia'
p124
aS'#000000'
p125
aF8.88595
aI0
aI00
aI00
aI00
aI00
aI00
aI00
aI00
aI00
aa(lp126
I234378
aF417.08
aF158.884
aVp1
p127
aS'utopia'
p128
aS'#000000'
p129
aF8.88595
aI0
aI00
aI00
aI01
aI01
aI00
aI00
aI00
aI00
aa(lp130
I63729
aF423.745
aF158.884
aVp1
p131
aS'utopia'
p132
aS'#000000'
p133
aF8.88595
aI0
aI01
aI00
aI00
aI00
aI00
aI00
aI00
aI00
aa(lp134
I234378
aF446.4985625
aF158.884
ag131
aS'utopia'
p135
aS'#000000'
p136
aF8.88595
aI0
aI00
aI00
aI00
aI00
aI00
aI00
aI00
aI00
aa(lp137
I59734
aF451.04927499999997
aF158.884
ag131
aS'utopia'
p138
aS'#000000'
p139
aF8.88595
aI0
aI00
aI00
aI00
aI00
aI00
aI00
aI00
aI00
aa(lp140
I234378
aF455.59998749999994
aF158.884
ag131
aS'utopia'
p141
aS'#000000'
p142
aF8.88595
aI0
aI00
aI00
aI00
aI00
aI00
aI00
aI00
aI00
aa(lp143
I15548
aF55.7183
aF176.656
aVp1
p144
aS'utopia'
p145
aS'#878787'
p146
aF8.88595
aI0
aI01
aI00
aI00
aI00
aI00
aI00
aI00
aI00
aa(lp147
I2006
aF89.0407
aF176.656
aVp1
p148
aS'utopia'
p149
aS'#878787'
p150
aF8.88595
aI0
aI01
aI00
aI00
aI00
aI00
aI00
aI00
aI00
aa(lp151
I234378
aF124.77815
aF176.656
ag148
aS'utopia'
p152
aS'#878787'
p153
aF8.88595
aI0
aI00
aI00
aI00
aI00
aI00
aI00
aI00
aI00
aa(lp154
I234378
aF134.211
aF176.656
aVp1
p155
aS'utopia'
p156
aS'#000000'
p157
aF8.88595
aI0
aI01
aI00
aI00
aI00
aI00
aI00
aI00
aI00
aa(lp158
I229300
aF308.227
aF176.656
aVp1
p159
aS'utopia'
p160
aS'#878787'
p161
aF8.88595
aI0
aI01
aI00
aI00
aI00
aI00
aI00
aI00
aI00
aa(lp162
I78894
aF338.588
aF176.656
aVp1
p163
aS'utopia'
p164
aS'#878787'
p165
aF8.88595
aI0
aI01
aI00
aI00
aI00
aI00
aI00
aI00
aI00
aa(lp166
I234378
aF360.9019142857143
aF176.656
ag163
aS'utopia'
p167
aS'#878787'
p168
aF8.88595
aI0
aI00
aI00
aI00
aI00
aI00
aI00
aI00
aI00
aa(lp169
I234378
aF368.948
aF176.656
aVp1
p170
aS'utopia'
p171
aS'#000000'
p172
aF8.88595
aI0
aI01
aI00
aI00
aI00
aI00
aI00
aI00
aI00
aa(lp173
I234378
aF380.796
aF176.656
aVp1
p174
aS'utopia'
p175
aS'#000000'
p176
aF8.88595
aI0
aI00
aI00
aI01
aI01
aI01
aI00
aI00
aI00
aa(lp177
I234378
aF391.903
aF176.656
aVp1
p178
aS'utopia'
p179
aS'#000000'
p180
aF8.88595
aI0
aI01
aI00
aI00
aI00
aI00
aI00
aI00
aI00
aa(lp181
I15548
aF55.7183
aF194.428
aVp1
p182
aS'utopia'
p183
aS'#878787'
p184
aF8.88595
aI0
aI01
aI00
aI00
aI00
aI00
aI00
aI00
aI00
aa(lp185
I17057
aF89.0407
aF194.428
aVp1
p186
aS'utopia'
p187
aS'#878787'
p188
aF8.88595
aI0
aI01
aI00
aI00
aI00
aI00
aI00
aI00
aI00
aa(lp189
I234378
aF122.05430000000001
aF194.428
ag186
aS'utopia'
p190
aS'#878787'
p191
aF8.88595
aI0
aI00
aI00
aI00
aI00
aI00
aI00
aI00
aI00
aa(lp192
I234378
aF130.508
aF194.428
aVp1
p193
aS'utopia'
p194
aS'#000000'
p195
aF8.88595
aI0
aI01
aI00
aI00
aI00
aI00
aI00
aI00
aI00
aa(lp196
I234378
aF308.227
aF194.428
aVp1
p197
aS'utopia'
p198
aS'#878787'
p199
aF8.88595
aI0
aI01
aI00
aI00
aI00
aI00
aI00
aI00
aI00
aa(lp200
I234378
aF346.733
aF194.428
aVp1
p201
aS'utopia'
p202
aS'#878787'
p203
aF8.88595
aI0
aI01
aI01
aI00
aI00
aI00
aI00
aI00
aI00
aa(lp204
I234378
aF361.2593
aF194.428
ag201
aS'utopia'
p205
aS'#878787'
p206
aF8.88595
aI0
aI00
aI00
aI00
aI00
aI00
aI00
aI00
aI00
aa(lp207
I63091
aF370.429
aF194.428
aVp1
p208
aS'utopia'
p209
aS'#000000'
p210
aF8.88595
aI0
aI01
aI00
aI00
aI00
aI00
aI00
aI00
aI00
aa(lp211
I234378
aF387.46
aF194.428
aVp1
p212
aS'utopia'
p213
aS'#000000'
p214
aF8.88595
aI0
aI01
aI00
aI00
aI00
aI00
aI00
aI00
aI00
aa(lp215
I234378
aF55.7183
aF212.2
aVp1
p216
aS'utopia'
p217
aS'#878787'
p218
aF8.88595
aI0
aI01
aI00
aI00
aI00
aI00
aI00
aI00
aI00
aa(lp219
I234378
aF70.62062
aF212.2
ag216
aS'utopia'
p220
aS'#878787'
p221
aF8.88595
aI0
aI00
aI00
aI00
aI00
aI00
aI00
aI00
aI00
aa(lp222
I17057
aF76.4522
aF212.2
aVp1
p223
aS'utopia'
p224
aS'#878787'
p225
aF8.88595
aI0
aI01
aI00
aI00
aI00
aI00
aI00
aI00
aI00
aa(lp226
I234378
aF109.4658
aF212.2
ag223
aS'utopia'
p227
aS'#878787'
p228
aF8.88595
aI0
aI00
aI00
aI00
aI00
aI00
aI00
aI00
aI00
aa(lp229
I234378
aF117.92
aF212.2
aVp1
p230
aS'utopia'
p231
aS'#000000'
p232
aF8.88595
aI0
aI01
aI00
aI00
aI00
aI00
aI00
aI00
aI00
aa(lp233
I234378
aF160.869
aF212.2
aVp1
p234
aS'utopia'
p235
aS'#000000'
p236
aF8.88595
aI0
aI00
aI00
aI00
aI00
aI00
aI00
aI00
aI00
aa(lp237
I234378
aF167.533
aF212.2
aVp1
p238
aS'utopia'
p239
aS'#000000'
p240
aF8.88595
aI0
aI01
aI00
aI00
aI00
aI00
aI00
aI00
aI00
aa(lp241
I234378
aF205.62442
aF212.2
ag238
aS'utopia'
p242
aS'#000000'
p243
aF8.88595
aI0
aI00
aI00
aI00
aI00
aI00
aI00
aI00
aI00
aa(lp244
I227337
aF211.963
aF212.2
aVp1
p245
aS'utopia'
p246
aS'#000000'
p247
aF8.88595
aI0
aI01
aI00
aI00
aI00
aI00
aI00
aI00
aI00
aa(lp248
I85540
aF240.842
aF212.2
aVp1
p249
aS'utopia'
p250
aS'#000000'
p251
aF8.88595
aI0
aI01
aI00
aI00
aI00
aI00
aI00
aI00
aI00
aa(lp252
I234378
aF279.348
aF212.2
aVp1
p253
aS'utopia'
p254
aS'#000000'
p255
aF8.88595
aI0
aI00
aI00
aI00
aI00
aI00
aI00
aI00
aI00
aa(lp256
I234378
aF283.51788
aF212.2
ag253
aS'utopia'
p257
aS'#000000'
p258
aF8.88595
aI0
aI01
aI01
aI00
aI00
aI00
aI00
aI00
aI00
aa(lp259
I234378
aF291.85764
aF212.2
ag253
aS'utopia'
p260
aS'#000000'
p261
aF8.88595
aI0
aI00
aI00
aI00
aI00
aI00
aI00
aI00
aI00
aa(lp262
I234378
aF296.02752
aF212.2
ag253
aS'utopia'
p263
aS'#000000'
p264
aF8.88595
aI0
aI00
aI00
aI00
aI00
aI00
aI00
aI00
aI00
aa(lp265
I227337
aF55.7183
aF222.567
aVp1
p266
aS'utopia'
p267
aS'#000000'
p268
aF8.88595
aI0
aI01
aI00
aI00
aI00
aI00
aI00
aI00
aI00
aa(lp269
I234378
aF84.5977
aF222.567
aVp1
p270
aS'utopia'
p271
aS'#000000'
p272
aF8.88595
aI0
aI01
aI00
aI00
aI00
aI00
aI00
aI00
aI00
aa(lp273
I234378
aF109.775
aF222.567
aVp1
p274
aS'utopia'
p275
aS'#000000'
p276
aF8.88595
aI0
aI00
aI00
aI00
aI00
aI00
aI00
aI00
aI00
aa(lp277
I31679
aF114.06320000000001
aF222.567
ag274
aS'utopia'
p278
aS'#000000'
p279
aF8.88595
aI0
aI01
aI01
aI00
aI00
aI00
aI00
aI00
aI00
aa(lp280
I234378
aF122.6396
aF222.567
ag274
aS'utopia'
p281
aS'#000000'
p282
aF8.88595
aI0
aI00
aI00
aI00
aI00
aI00
aI00
aI00
aI00
aa(lp283
I7204
aF308.227
aF212.2
aVp1
p284
aS'utopia'
p285
aS'#878787'
p286
aF8.88595
aI0
aI01
aI00
aI00
aI00
aI00
aI00
aI00
aI00
aa(lp287
I189220
aF340.809
aF212.2
aVp1
p288
aS'utopia'
p289
aS'#878787'
p290
aF8.88595
aI0
aI01
aI00
aI00
aI00
aI00
aI00
aI00
aI00
aa(lp291
I234378
aF366.93111428571433
aF212.2
ag288
aS'utopia'
p292
aS'#878787'
p293
aF8.88595
aI0
aI00
aI00
aI00
aI00
aI00
aI00
aI00
aI00
aa(lp294
I234378
aF375.613
aF212.2
aVp1
p295
aS'utopia'
p296
aS'#000000'
p297
aF8.88595
aI0
aI01
aI01
aI00
aI00
aI00
aI00
aI00
aI00
aa(lp298
I48671
aF308.227
aF229.972
aVp1
p299
aS'utopia'
p300
aS'#878787'
p301
aF8.88595
aI0
aI01
aI00
aI00
aI00
aI00
aI00
aI00
aI00
aa(lp302
I129688
aF336.366
aF229.972
aVp1
p303
aS'utopia'
p304
aS'#878787'
p305
aF8.88595
aI0
aI00
aI00
aI00
aI00
aI00
aI00
aI00
aI00
aa(lp306
I234378
aF360.58405714285715
aF229.972
ag303
aS'utopia'
p307
aS'#878787'
p308
aF8.88595
aI0
aI00
aI00
aI00
aI00
aI00
aI00
aI00
aI00
aa(lp309
I234378
aF368.948
aF229.972
aVp1
p310
aS'utopia'
p311
aS'#000000'
p312
aF8.88595
aI0
aI00
aI00
aI01
aI01
aI00
aI00
aI00
aI00
aa(lp313
I234378
aF375.613
aF229.972
aVp1
p314
aS'utopia'
p315
aS'#000000'
p316
aF8.88595
aI0
aI01
aI00
aI00
aI00
aI00
aI00
aI00
aI00
aa(lp317
I98580
aF55.7183
aF240.339
aVp1
p318
aS'utopia'
p319
aS'#878787'
p320
aF8.88595
aI0
aI01
aI00
aI00
aI00
aI00
aI00
aI00
aI00
aa(lp321
I166289
aF100.148
aF240.339
aVp1
p322
aS'utopia'
p323
aS'#878787'
p324
aF8.88595
aI0
aI01
aI00
aI00
aI00
aI00
aI00
aI00
aI00
aa(lp325
I234378
aF116.82751999999999
aF240.339
ag322
aS'utopia'
p326
aS'#878787'
p327
aF8.88595
aI0
aI00
aI00
aI00
aI00
aI00
aI00
aI00
aI00
aa(lp328
I22476
aF125.325
aF240.339
aVp1
p329
aS'utopia'
p330
aS'#000000'
p331
aF8.88595
aI0
aI01
aI01
aI00
aI00
aI00
aI00
aI00
aI00
aa(lp332
I234378
aF135.692
aF240.339
aVp1
p333
aS'utopia'
p334
aS'#000000'
p335
aF8.88595
aI0
aI01
aI00
aI00
aI00
aI00
aI00
aI00
aI00
aa(lp336
I25931
aF178.641
aF240.339
aVp1
p337
aS'utopia'
p338
aS'#000000'
p339
aF8.88595
aI0
aI01
aI00
aI00
aI00
aI00
aI00
aI00
aI00
aa(lp340
I96642
aF203.818
aF240.339
aVp1
p341
aS'utopia'
p342
aS'#000000'
p343
aF8.88595
aI0
aI01
aI00
aI00
aI00
aI00
aI00
aI00
aI00
aa(lp344
I176435
aF55.7183
aF258.111
aVp1
p345
aS'utopia'
p346
aS'#878787'
p347
aF8.88595
aI0
aI01
aI00
aI00
aI00
aI00
aI00
aI00
aI00
aa(lp348
I234378
aF71.80542
aF258.111
ag345
aS'utopia'
p349
aS'#878787'
p350
aF8.88595
aI0
aI00
aI00
aI00
aI00
aI00
aI00
aI00
aI00
aa(lp351
I234378
aF80.1547
aF258.111
aVp1
p352
aS'utopia'
p353
aS'#000000'
p354
aF8.88595
aI0
aI01
aI00
aI00
aI00
aI00
aI00
aI00
aI00
aa(lp355
I100815
aF117.18
aF258.111
aVp1
p356
aS'utopia'
p357
aS'#000000'
p358
aF8.88595
aI0
aI01
aI00
aI00
aI00
aI00
aI00
aI00
aI00
aa(lp359
I74589
aF55.7183
aF275.883
aVp1
p360
aS'utopia'
p361
aS'#878787'
p362
aF8.88595
aI0
aI01
aI00
aI00
aI00
aI00
aI00
aI00
aI00
aa(lp363
I234378
aF87.41545555555555
aF275.883
ag360
aS'utopia'
p364
aS'#878787'
p365
aF8.88595
aI0
aI00
aI00
aI00
aI00
aI00
aI00
aI00
aI00
aa(lp366
I234378
aF95.7051
aF275.883
aVp1
p367
aS'utopia'
p368
aS'#000000'
p369
aF8.88595
aI0
aI01
aI00
aI00
aI00
aI00
aI00
aI00
aI00
aa(lp370
I234378
aF123.75804
aF275.883
ag367
aS'utopia'
p371
aS'#000000'
p372
aF8.88595
aI0
aI00
aI00
aI00
aI00
aI00
aI00
aI00
aI00
aa(lp373
I234378
aF128.43353
aF275.883
ag367
aS'utopia'
p374
aS'#000000'
p375
aF8.88595
aI0
aI01
aI01
aI00
aI00
aI00
aI00
aI00
aI00
aa(lp376
I231013
aF55.7183
aF293.654
aVp1
p377
aS'utopia'
p378
aS'#878787'
p379
aF8.88595
aI0
aI01
aI00
aI00
aI00
aI00
aI00
aI00
aI00
aa(lp380
I234378
aF72.7498
aF293.654
aVp1
p381
aS'utopia'
p382
aS'#878787'
p383
aF8.88595
aI0
aI01
aI00
aI00
aI00
aI00
aI00
aI00
aI00
aa(lp384
I234378
aF91.25542857142857
aF293.654
ag381
aS'utopia'
p385
aS'#878787'
p386
aF8.88595
aI0
aI00
aI00
aI00
aI00
aI00
aI00
aI00
aI00
aa(lp387
I21716
aF98.6671
aF293.654
aVp1
p388
aS'utopia'
p389
aS'#000000'
p390
aF8.88595
aI0
aI01
aI00
aI00
aI00
aI00
aI00
aI00
aI00
aa(lp391
I234378
aF113.56942000000001
aF293.654
ag388
aS'utopia'
p392
aS'#000000'
p393
aF8.88595
aI0
aI00
aI00
aI00
aI00
aI00
aI00
aI00
aI00
aa(lp394
I234378
aF119.401
aF293.654
aVp1
p395
aS'utopia'
p396
aS'#000000'
p397
aF8.88595
aI0
aI01
aI00
aI01
aI00
aI00
aI00
aI00
aI00
aa(lp398
I234378
aF134.89571999999998
aF293.654
ag395
aS'utopia'
p399
aS'#000000'
p400
aF8.88595
aI0
aI00
aI00
aI00
aI00
aI00
aI00
aI00
aI00
aa(lp401
I148996
aF140.875
aF293.654
aVp1
p402
aS'utopia'
p403
aS'#000000'
p404
aF8.88595
aI0
aI01
aI00
aI00
aI00
aI00
aI00
aI00
aI00
aa(lp405
I115769
aF168.274
aF293.654
aVp1
p406
aS'utopia'
p407
aS'#000000'
p408
aF8.88595
aI0
aI01
aI00
aI00
aI00
aI00
aI00
aI00
aI00
aa(lp409
I234378
aF211.69693
aF293.654
ag406
aS'utopia'
p410
aS'#000000'
p411
aF8.88595
aI0
aI00
aI00
aI00
aI00
aI00
aI00
aI00
aI00
aa(lp412
I176767
aF218.627
aF293.654
aVp1
p413
aS'utopia'
p414
aS'#000000'
p415
aF8.88595
aI0
aI01
aI00
aI00
aI00
aI00
aI00
aI00
aI00
aa(lp416
I234378
aF256.71842000000004
aF293.654
ag413
aS'utopia'
p417
aS'#000000'
p418
aF8.88595
aI0
aI00
aI00
aI00
aI00
aI00
aI00
aI00
aI00
aa(lp419
I234378
aF263.057
aF293.654
aVp1
p420
aS'utopia'
p421
aS'#000000'
p422
aF8.88595
aI0
aI01
aI01
aI00
aI00
aI00
aI00
aI00
aI00
aa(lp423
I234378
aF283.29092
aF293.654
ag420
aS'utopia'
p424
aS'#000000'
p425
aF8.88595
aI0
aI00
aI00
aI00
aI00
aI00
aI00
aI00
aI00
aa(lp426
I234378
aF55.7183
aF304.021
aVp1
p427
aS'utopia'
p428
aS'#000000'
p429
aF8.88595
aI0
aI01
aI00
aI00
aI00
aI00
aI00
aI00
aI00
aa(lp430
I234378
aF97.56039090909091
aF304.021
ag427
aS'utopia'
p431
aS'#000000'
p432
aF8.88595
aI0
aI00
aI00
aI00
aI00
aI00
aI00
aI00
aI00
aa(lp433
I21716
aF103.851
aF304.021
aVp1
p434
aS'utopia'
p435
aS'#000000'
p436
aF8.88595
aI0
aI01
aI00
aI00
aI00
aI00
aI00
aI00
aI00
aa(lp437
I17350
aF122.363
aF304.021
aVp1
p438
aS'utopia'
p439
aS'#000000'
p440
aF8.88595
aI0
aI01
aI00
aI00
aI00
aI00
aI00
aI00
aI00
aa(lp441
I234378
aF142.356
aF304.021
aVp1
p442
aS'utopia'
p443
aS'#000000'
p444
aF8.88595
aI0
aI01
aI00
aI00
aI00
aI00
aI00
aI00
aI00
aa(lp445
I234378
aF172.7367111111111
aF304.021
ag442
aS'utopia'
p446
aS'#000000'
p447
aF8.88595
aI0
aI00
aI00
aI00
aI00
aI00
aI00
aI00
aI00
aa(lp448
I132957
aF178.641
aF304.021
aVp1
p449
aS'utopia'
p450
aS'#000000'
p451
aF8.88595
aI0
aI01
aI00
aI00
aI00
aI00
aI00
aI00
aI00
aa(lp452
I234378
aF199.375
aF304.021
aVp1
p453
aS'utopia'
p454
aS'#000000'
p455
aF8.88595
aI0
aI01
aI00
aI00
aI00
aI00
aI00
aI00
aI00
aa(lp456
I234378
aF238.52436363636363
aF304.021
ag453
aS'utopia'
p457
aS'#000000'
p458
aF8.88595
aI0
aI00
aI00
aI00
aI00
aI00
aI00
aI00
aI00
aa(lp459
I234378
aF244.545
aF304.021
aVp1
p460
aS'utopia'
p461
aS'#000000'
p462
aF8.88595
aI0
aI01
aI01
aI00
aI00
aI00
aI00
aI00
aI00
aa(lp463
I51933
aF40.1679
aF341.064
aVp1
p464
aS'utopia'
p465
aS'#02304b'
p466
aF11.8479
aI1
aI01
aI00
aI00
aI00
aI00
aI00
aI00
aI00
aa(lp467
I60220
aF72.0093
aF341.064
aVp1
p468
aS'utopia'
p469
aS'#02304b'
p470
aF11.8479
aI1
aI01
aI00
aI00
aI00
aI00
aI00
aI00
aI00
aa(lp471
I234378
aF40.9084
aF372.781
aVp1
p472
aS'utopia'
p473
aS'#000000'
p474
aF10.3669
aI1
aI01
aI00
aI00
aI00
aI00
aI00
aI00
aI00
aa(lp475
I234378
aF72.0093
aF373.05
aVp1
p476
aS'utopia'
p477
aS'#656565'
p478
aF10.3669
aI0
aI00
aI00
aI00
aI00
aI00
aI00
aI00
aI00
aa(lp479
I15548
aF76.98672499999999
aF373.05
ag476
aS'utopia'
p480
aS'#656565'
p481
aF10.3669
aI0
aI01
aI00
aI00
aI00
aI00
aI00
aI00
aI00
aa(lp482
I70289
aF114.218
aF373.05
aVp1
p483
aS'utopia'
p484
aS'#656565'
p485
aF10.3669
aI0
aI01
aI00
aI00
aI00
aI00
aI00
aI00
aI00
aa(lp486
I234378
aF157.56697777777777
aF373.05
ag483
aS'utopia'
p487
aS'#656565'
p488
aF10.3669
aI0
aI00
aI00
aI00
aI00
aI00
aI00
aI00
aI00
aa(lp489
I55966
aF40.9084
aF389.341
aVp1
p490
aS'utopia'
p491
aS'#656565'
p492
aF10.3669
aI0
aI01
aI00
aI00
aI00
aI00
aI00
aI00
aI00
aa(lp493
I234378
aF73.4902
aF389.341
aVp1
p494
aS'utopia'
p495
aS'#656565'
p496
aF10.3669
aI0
aI01
aI00
aI00
aI00
aI00
aI00
aI00
aI00
aa(lp497
I132100
aF116.439
aF389.341
aVp1
p498
aS'utopia'
p499
aS'#656565'
p500
aF10.3669
aI0
aI01
aI00
aI00
aI00
aI00
aI00
aI00
aI00
aa(lp501
I234378
aF164.571
aF389.341
aVp1
p502
aS'utopia'
p503
aS'#656565'
p504
aF10.3669
aI0
aI01
aI00
aI00
aI00
aI00
aI00
aI00
aI01
aa(lp505
I234378
aF184.565
aF389.341
aVp1
p506
aS'utopia'
p507
aS'#656565'
p508
aF10.3669
aI0
aI00
aI00
aI01
aI01
aI01
aI00
aI00
aI00
aa(lp509
I197030
aF40.9084
aF409.172
aVp1
p510
aS'utopia'
p511
aS'#656565'
p512
aF8.88595
aI0
aI01
aI01
aI00
aI00
aI00
aI00
aI00
aI00
aa(lp513
I16326
aF46.0919
aF409.172
aVp1
p514
aS'utopia'
p515
aS'#656565'
p516
aF8.88595
aI0
aI00
aI00
aI00
aI00
aI00
aI00
aI00
aI00
aa(lp517
I123583
aF60.9018
aF409.172
aVp1
p518
aS'utopia'
p519
aS'#656565'
p520
aF8.88595
aI0
aI00
aI00
aI00
aI00
aI00
aI00
aI00
aI00
aa(lp521
I16331
aF94.9646
aF409.172
aVp1
p522
aS'utopia'
p523
aS'#656565'
p524
aF8.88595
aI0
aI00
aI00
aI00
aI00
aI00
aI00
aI00
aI00
aa(lp525
I166593
aF105.332
aF409.172
aVp1
p526
aS'utopia'
p527
aS'#656565'
p528
aF8.88595
aI0
aI00
aI00
aI00
aI00
aI00
aI00
aI00
aI00
aa(lp529
I55966
aF111.996
aF409.172
aVp1
p530
aS'utopia'
p531
aS'#656565'
p532
aF8.88595
aI0
aI01
aI00
aI00
aI00
aI00
aI00
aI00
aI00
aa(lp533
I234378
aF139.394
aF409.172
aVp1
p534
aS'utopia'
p535
aS'#656565'
p536
aF8.88595
aI0
aI00
aI00
aI00
aI00
aI00
aI00
aI00
aI00
aa(lp537
I132100
aF175.679
aF409.172
aVp1
p538
aS'utopia'
p539
aS'#656565'
p540
aF8.88595
aI0
aI00
aI00
aI00
aI00
aI00
aI00
aI00
aI00
aa(lp541
I16334
aF211.963
aF409.172
aVp1
p542
aS'utopia'
p543
aS'#656565'
p544
aF8.88595
aI0
aI00
aI00
aI00
aI00
aI00
aI00
aI00
aI00
aa(lp545
I234378
aF221.589
aF409.172
aVp1
p546
aS'utopia'
p547
aS'#656565'
p548
aF8.88595
aI0
aI01
aI00
aI00
aI00
aI00
aI00
aI00
aI00
aa(lp549
I234378
aF247.507
aF409.172
aVp1
p550
aS'utopia'
p551
aS'#656565'
p552
aF8.88595
aI0
aI01
aI00
aI00
aI00
aI00
aI00
aI00
aI00
aa(lp553
I234378
aF258.70105
aF409.172
ag550
aS'utopia'
p554
aS'#656565'
p555
aF8.88595
aI0
aI00
aI00
aI00
aI00
aI00
aI00
aI00
aI00
aa(lp556
I234378
aF264.538
aF409.172
aVp1
p557
aS'utopia'
p558
aS'#656565'
p559
aF8.88595
aI0
aI01
aI00
aI00
aI00
aI00
aI00
aI00
aI00
aa(lp560
I234378
aF282.40232000000003
aF409.172
ag557
aS'utopia'
p561
aS'#656565'
p562
aF8.88595
aI0
aI00
aI00
aI00
aI00
aI00
aI00
aI00
aI00
aa(lp563
I37654
aF288.975
aF409.172
aVp1
p564
aS'utopia'
p565
aS'#656565'
p566
aF8.88595
aI0
aI00
aI00
aI00
aI00
aI00
aI00
aI00
aI00
aa(lp567
I197030
aF315.632
aF409.172
aVp1
p568
aS'utopia'
p569
aS'#656565'
p570
aF8.88595
aI0
aI01
aI01
aI00
aI00
aI00
aI00
aI00
aI00
aa(lp571
I62551
aF320.816
aF409.172
aVp1
p572
aS'utopia'
p573
aS'#656565'
p574
aF8.88595
aI0
aI00
aI00
aI00
aI00
aI00
aI00
aI00
aI00
aa(lp575
I39932
aF341.55
aF409.172
aVp1
p576
aS'utopia'
p577
aS'#656565'
p578
aF8.88595
aI0
aI00
aI00
aI00
aI00
aI00
aI00
aI00
aI00
aa(lp579
I174578
aF363.024
aF409.172
aVp1
p580
aS'utopia'
p581
aS'#656565'
p582
aF8.88595
aI0
aI00
aI00
aI00
aI00
aI00
aI00
aI00
aI00
aa(lp583
I234378
aF406.713
aF409.172
aVp1
p584
aS'utopia'
p585
aS'#656565'
p586
aF8.88595
aI0
aI00
aI00
aI00
aI00
aI00
aI00
aI00
aI00
aa(lp587
I190806
aF451.884
aF409.172
aVp1
p588
aS'utopia'
p589
aS'#656565'
p590
aF8.88595
aI0
aI00
aI00
aI00
aI00
aI00
aI00
aI00
aI00
aa(lp591
I234378
aF465.953
aF409.172
aVp1
p592
aS'utopia'
p593
aS'#656565'
p594
aF8.88595
aI0
aI00
aI00
aI00
aI00
aI00
aI00
aI00
aI00
aa(lp595
I3865
aF511.123
aF409.172
aVp1
p596
aS'utopia'
p597
aS'#656565'
p598
aF8.88595
aI0
aI00
aI00
aI00
aI00
aI00
aI00
aI00
aI00
aa(lp599
I234378
aF40.9084
aF419.539
aVp1
p600
aS'utopia'
p601
aS'#656565'
p602
aF8.88595
aI0
aI00
aI00
aI00
aI00
aI00
aI00
aI00
aI00
aa(lp603
I234378
aF75.00112
aF419.539
ag600
aS'utopia'
p604
aS'#656565'
p605
aF8.88595
aI0
aI00
aI00
aI00
aI00
aI00
aI00
aI00
aI00
aa(lp606
I234378
aF80.8952
aF419.539
aVp1
p607
aS'utopia'
p608
aS'#656565'
p609
aF8.88595
aI0
aI00
aI00
aI00
aI00
aI00
aI00
aI00
aI00
aa(lp610
I221291
aF124.584
aF419.539
aVp1
p611
aS'utopia'
p612
aS'#656565'
p613
aF8.88595
aI0
aI00
aI00
aI00
aI00
aI00
aI00
aI00
aI00
aa(lp614
I85218
aF146.059
aF419.539
aVp1
p615
aS'utopia'
p616
aS'#656565'
p617
aF8.88595
aI0
aI00
aI00
aI00
aI00
aI00
aI00
aI00
aI00
aa(lp618
I117435
aF163.09
aF419.539
aVp1
p619
aS'utopia'
p620
aS'#656565'
p621
aF8.88595
aI0
aI00
aI00
aI00
aI00
aI00
aI00
aI00
aI00
aa(lp622
I234378
aF202.337
aF419.539
aVp1
p623
aS'utopia'
p624
aS'#656565'
p625
aF8.88595
aI0
aI00
aI00
aI00
aI00
aI00
aI00
aI00
aI00
aa(lp626
I234378
aF234.69237777777778
aF419.539
ag623
aS'utopia'
p627
aS'#656565'
p628
aF8.88595
aI0
aI00
aI00
aI00
aI00
aI00
aI00
aI00
aI00
aa(lp629
I197030
aF240.842
aF419.539
aVp1
p630
aS'utopia'
p631
aS'#656565'
p632
aF8.88595
aI0
aI01
aI01
aI00
aI00
aI00
aI00
aI00
aI00
aa(lp633
I16326
aF246.026
aF419.539
aVp1
p634
aS'utopia'
p635
aS'#656565'
p636
aF8.88595
aI0
aI00
aI00
aI00
aI00
aI00
aI00
aI00
aI00
aa(lp637
I90127
aF260.836
aF419.539
aVp1
p638
aS'utopia'
p639
aS'#656565'
p640
aF8.88595
aI0
aI00
aI00
aI00
aI00
aI00
aI00
aI00
aI00
aa(lp641
I190806
aF308.227
aF419.539
aVp1
p642
aS'utopia'
p643
aS'#656565'
p644
aF8.88595
aI0
aI00
aI00
aI00
aI00
aI00
aI00
aI00
aI00
aa(lp645
I60201
aF322.297
aF419.539
aVp1
p646
aS'utopia'
p647
aS'#656565'
p648
aF8.88595
aI0
aI00
aI00
aI00
aI00
aI00
aI00
aI00
aI00
aa(lp649
I15166
aF337.107
aF419.539
aVp1
p650
aS'utopia'
p651
aS'#656565'
p652
aF8.88595
aI0
aI00
aI00
aI00
aI00
aI00
aI00
aI00
aI00
aa(lp653
I231317
aF351.176
aF419.539
aVp1
p654
aS'utopia'
p655
aS'#656565'
p656
aF8.88595
aI0
aI00
aI00
aI00
aI00
aI00
aI00
aI00
aI00
aa(lp657
I68032
aF373.391
aF419.539
aVp1
p658
aS'utopia'
p659
aS'#656565'
p660
aF8.88595
aI0
aI00
aI00
aI00
aI00
aI00
aI00
aI00
aI00
aa(lp661
I144489
aF427.447
aF419.539
aVp1
p662
aS'utopia'
p663
aS'#656565'
p664
aF8.88595
aI0
aI00
aI00
aI00
aI00
aI00
aI00
aI00
aI00
aa(lp665
I234378
aF437.814
aF419.539
aVp1
p666
aS'utopia'
p667
aS'#656565'
p668
aF8.88595
aI0
aI00
aI00
aI00
aI00
aI00
aI00
aI00
aI00
aa(lp669
I234378
aF470.1693777777778
aF419.539
ag666
aS'utopia'
p670
aS'#656565'
p671
aF8.88595
aI0
aI00
aI00
aI00
aI00
aI00
aI00
aI00
aI00
aa(lp672
I131049
aF476.32
aF419.539
aVp1
p673
aS'utopia'
p674
aS'#656565'
p675
aF8.88595
aI0
aI00
aI00
aI00
aI00
aI00
aI00
aI00
aI00
aa(lp676
I21071
aF498.535
aF419.539
aVp1
p677
aS'utopia'
p678
aS'#656565'
p679
aF8.88595
aI0
aI00
aI00
aI00
aI00
aI00
aI00
aI00
aI00
aa(lp680
I202216
aF40.9084
aF429.906
aVp1
p681
aS'utopia'
p682
aS'#656565'
p683
aF8.88595
aI0
aI00
aI00
aI00
aI00
aI00
aI00
aI00
aI00
aa(lp684
I96295
aF92.7431
aF429.906
aVp1
p685
aS'utopia'
p686
aS'#656565'
p687
aF8.88595
aI0
aI00
aI00
aI00
aI00
aI00
aI00
aI00
aI00
aa(lp688
I89480
aF131.989
aF429.906
aVp1
p689
aS'utopia'
p690
aS'#656565'
p691
aF8.88595
aI0
aI00
aI00
aI00
aI00
aI00
aI00
aI00
aI00
aa(lp692
I144690
aF142.356
aF429.906
aVp1
p693
aS'utopia'
p694
aS'#656565'
p695
aF8.88595
aI0
aI00
aI00
aI00
aI00
aI00
aI00
aI00
aI00
aa(lp696
I234378
aF165.93934285714286
aF429.906
ag693
aS'utopia'
p697
aS'#656565'
p698
aF8.88595
aI0
aI00
aI00
aI00
aI00
aI00
aI00
aI00
aI00
aa(lp699
I234378
aF171.976
aF429.906
aVp1
p700
aS'utopia'
p701
aS'#656565'
p702
aF8.88595
aI0
aI00
aI00
aI00
aI00
aI00
aI00
aI00
aI00
aa(lp703
I234378
aF196.82877142857143
aF429.906
ag700
aS'utopia'
p704
aS'#656565'
p705
aF8.88595
aI0
aI00
aI00
aI00
aI00
aI00
aI00
aI00
aI00
aa(lp706
I125078
aF203.077
aF429.906
aVp1
p707
aS'utopia'
p708
aS'#656565'
p709
aF8.88595
aI0
aI00
aI00
aI00
aI00
aI00
aI00
aI00
aI00
aa(lp710
I234378
aF227.7996
aF429.906
ag707
aS'utopia'
p711
aS'#656565'
p712
aF8.88595
aI0
aI00
aI00
aI00
aI00
aI00
aI00
aI00
aI00
aa(lp713
I195671
aF233.437
aF429.906
aVp1
p714
aS'utopia'
p715
aS'#656565'
p716
aF8.88595
aI0
aI00
aI00
aI00
aI00
aI00
aI00
aI00
aI00
aa(lp717
I85218
aF296.379
aF429.906
aVp1
p718
aS'utopia'
p719
aS'#656565'
p720
aF8.88595
aI0
aI00
aI00
aI00
aI00
aI00
aI00
aI00
aI00
aa(lp721
I83126
aF313.411
aF429.906
aVp1
p722
aS'utopia'
p723
aS'#656565'
p724
aF8.88595
aI0
aI00
aI00
aI00
aI00
aI00
aI00
aI00
aI00
aa(lp725
I234378
aF374.33825333333334
aF429.906
ag722
aS'utopia'
p726
aS'#656565'
p727
aF8.88595
aI0
aI00
aI00
aI00
aI00
aI00
aI00
aI00
aI00
aa(lp728
I163337
aF380.796
aF429.906
aVp1
p729
aS'utopia'
p730
aS'#656565'
p731
aF8.88595
aI0
aI01
aI00
aI00
aI00
aI00
aI00
aI00
aI00
aa(lp732
I197030
aF420.783
aF429.906
aVp1
p733
aS'utopia'
p734
aS'#656565'
p735
aF8.88595
aI0
aI01
aI01
aI00
aI00
aI00
aI00
aI00
aI00
aa(lp736
I16326
aF425.966
aF429.906
aVp1
p737
aS'utopia'
p738
aS'#656565'
p739
aF8.88595
aI0
aI00
aI00
aI00
aI00
aI00
aI00
aI00
aI00
aa(lp740
I123583
aF440.776
aF429.906
aVp1
p741
aS'utopia'
p742
aS'#656565'
p743
aF8.88595
aI0
aI00
aI00
aI00
aI00
aI00
aI00
aI00
aI00
aa(lp744
I144483
aF474.839
aF429.906
aVp1
p745
aS'utopia'
p746
aS'#656565'
p747
aF8.88595
aI0
aI00
aI00
aI00
aI00
aI00
aI00
aI00
aI00
aa(lp748
I234378
aF487.427
aF429.906
aVp1
p749
aS'utopia'
p750
aS'#656565'
p751
aF8.88595
aI0
aI00
aI00
aI00
aI00
aI00
aI00
aI00
aI00
aa(lp752
I33301
aF518.528
aF429.906
aVp1
p753
aS'utopia'
p754
aS'#656565'
p755
aF8.88595
aI0
aI01
aI00
aI00
aI00
aI00
aI00
aI00
aI00
aa(lp756
I25230
aF40.9084
aF440.273
aVp1
p757
aS'utopia'
p758
aS'#656565'
p759
aF8.88595
aI0
aI01
aI00
aI00
aI00
aI00
aI00
aI00
aI00
aa(lp760
I123665
aF69.7878
aF440.273
aVp1
p761
aS'utopia'
p762
aS'#656565'
p763
aF8.88595
aI0
aI00
aI00
aI00
aI00
aI00
aI00
aI00
aI00
aa(lp764
I131049
aF115.699
aF440.273
aVp1
p765
aS'utopia'
p766
aS'#656565'
p767
aF8.88595
aI0
aI00
aI00
aI00
aI00
aI00
aI00
aI00
aI00
aa(lp768
I234378
aF137.913
aF440.273
aVp1
p769
aS'utopia'
p770
aS'#656565'
p771
aF8.88595
aI0
aI00
aI00
aI00
aI00
aI00
aI00
aI00
aI00
aa(lp772
I234378
aF171.236
aF440.273
aVp1
p773
aS'utopia'
p774
aS'#656565'
p775
aF8.88595
aI0
aI00
aI00
aI00
aI00
aI00
aI00
aI00
aI00
aa(lp776
I89480
aF207.52
aF440.273
aVp1
p777
aS'utopia'
p778
aS'#656565'
p779
aF8.88595
aI0
aI00
aI00
aI00
aI00
aI00
aI00
aI00
aI00
aa(lp780
I17350
aF217.887
aF440.273
aVp1
p781
aS'utopia'
p782
aS'#656565'
p783
aF8.88595
aI0
aI01
aI00
aI00
aI00
aI00
aI00
aI00
aI00
aa(lp784
I35885
aF237.88
aF440.273
aVp1
p785
aS'utopia'
p786
aS'#656565'
p787
aF8.88595
aI0
aI00
aI00
aI00
aI00
aI00
aI00
aI00
aI00
aa(lp788
I234378
aF263.057
aF440.273
aVp1
p789
aS'utopia'
p790
aS'#656565'
p791
aF8.88595
aI0
aI00
aI00
aI00
aI00
aI00
aI00
aI00
aI00
aa(lp792
I234378
aF286.013
aF440.273
aVp1
p793
aS'utopia'
p794
aS'#656565'
p795
aF8.88595
aI0
aI01
aI00
aI00
aI00
aI00
aI00
aI00
aI00
aa(lp796
I85218
aF326.74
aF440.273
aVp1
p797
aS'utopia'
p798
aS'#656565'
p799
aF8.88595
aI0
aI00
aI00
aI00
aI00
aI00
aI00
aI00
aI00
aa(lp800
I234378
aF343.771
aF440.273
aVp1
p801
aS'utopia'
p802
aS'#656565'
p803
aF8.88595
aI0
aI01
aI00
aI00
aI00
aI00
aI00
aI00
aI00
aa(lp804
I234378
aF369.2584857142857
aF440.273
ag801
aS'utopia'
p805
aS'#656565'
p806
aF8.88595
aI0
aI00
aI00
aI00
aI00
aI00
aI00
aI00
aI00
aa(lp807
I169745
aF375.613
aF440.273
aVp1
p808
aS'utopia'
p809
aS'#656565'
p810
aF8.88595
aI0
aI00
aI00
aI00
aI00
aI00
aI00
aI00
aI00
aa(lp811
I96642
aF394.865
aF440.273
aVp1
p812
aS'utopia'
p813
aS'#656565'
p814
aF8.88595
aI0
aI00
aI00
aI00
aI00
aI00
aI00
aI00
aI00
aa(lp815
I104149
aF421.523
aF440.273
aVp1
p816
aS'utopia'
p817
aS'#656565'
p818
aF8.88595
aI0
aI00
aI00
aI00
aI00
aI00
aI00
aI00
aI00
aa(lp819
I43052
aF439.295
aF440.273
aVp1
p820
aS'utopia'
p821
aS'#656565'
p822
aF8.88595
aI0
aI00
aI00
aI00
aI00
aI00
aI00
aI00
aI00
aa(lp823
I130950
aF485.206
aF440.273
aVp1
p824
aS'utopia'
p825
aS'#656565'
p826
aF8.88595
aI0
aI00
aI00
aI00
aI00
aI00
aI00
aI00
aI00
aa(lp827
I89217
aF516.307
aF440.273
aVp1
p828
aS'utopia'
p829
aS'#656565'
p830
aF8.88595
aI0
aI01
aI00
aI00
aI00
aI00
aI00
aI00
aI00
aa(lp831
I17350
aF535.56
aF440.273
aVp1
p832
aS'utopia'
p833
aS'#656565'
p834
aF8.88595
aI0
aI01
aI00
aI00
aI00
aI00
aI00
aI00
aI00
aa(lp835
I119502
aF40.9084
aF450.64
aVp1
p836
aS'utopia'
p837
aS'#656565'
p838
aF8.88595
aI0
aI01
aI00
aI00
aI00
aI00
aI00
aI00
aI00
aa(lp839
I85218
aF71.2688
aF450.64
aVp1
p840
aS'utopia'
p841
aS'#656565'
p842
aF8.88595
aI0
aI00
aI00
aI00
aI00
aI00
aI00
aI00
aI00
aa(lp843
I234378
aF88.3002
aF450.64
aVp1
p844
aS'utopia'
p845
aS'#656565'
p846
aF8.88595
aI0
aI01
aI00
aI00
aI00
aI00
aI00
aI00
aI00
aa(lp847
I16334
aF136.432
aF450.64
aVp1
p848
aS'utopia'
p849
aS'#656565'
p850
aF8.88595
aI0
aI00
aI00
aI00
aI00
aI00
aI00
aI00
aI00
aa(lp851
I199810
aF146.059
aF450.64
aVp1
p852
aS'utopia'
p853
aS'#656565'
p854
aF8.88595
aI0
aI00
aI00
aI00
aI00
aI00
aI00
aI00
aI00
aa(lp855
I25691
aF166.793
aF450.64
aVp1
p856
aS'utopia'
p857
aS'#656565'
p858
aF8.88595
aI0
aI00
aI00
aI00
aI00
aI00
aI00
aI00
aI00
aa(lp859
I234378
aF179.653175
aF450.64
ag856
aS'utopia'
p860
aS'#656565'
p861
aF8.88595
aI0
aI00
aI00
aI00
aI00
aI00
aI00
aI00
aI00
aa(lp862
I197030
aF186.046
aF450.64
aVp1
p863
aS'utopia'
p864
aS'#656565'
p865
aF8.88595
aI0
aI01
aI01
aI00
aI00
aI00
aI00
aI00
aI00
aa(lp866
I62551
aF191.229
aF450.64
aVp1
p867
aS'utopia'
p868
aS'#656565'
p869
aF8.88595
aI0
aI00
aI00
aI00
aI00
aI00
aI00
aI00
aI00
aa(lp870
I228990
aF211.963
aF450.64
aVp1
p871
aS'utopia'
p872
aS'#656565'
p873
aF8.88595
aI0
aI01
aI00
aI00
aI00
aI00
aI00
aI00
aI00
aa(lp874
I120957
aF236.399
aF450.64
aVp1
p875
aS'utopia'
p876
aS'#656565'
p877
aF8.88595
aI0
aI00
aI00
aI00
aI00
aI00
aI00
aI00
aI00
aa(lp878
I144483
aF274.905
aF450.64
aVp1
p879
aS'utopia'
p880
aS'#656565'
p881
aF8.88595
aI0
aI00
aI00
aI00
aI00
aI00
aI00
aI00
aI00
aa(lp882
I234378
aF287.494
aF450.64
aVp1
p883
aS'utopia'
p884
aS'#656565'
p885
aF8.88595
aI0
aI01
aI00
aI00
aI00
aI00
aI00
aI00
aI00
aa(lp886
I234378
aF319.34382500000004
aF450.64
ag883
aS'utopia'
p887
aS'#656565'
p888
aF8.88595
aI0
aI00
aI00
aI00
aI00
aI00
aI00
aI00
aI00
aa(lp889
I64620
aF325.999
aF450.64
aVp1
p890
aS'utopia'
p891
aS'#656565'
p892
aF8.88595
aI0
aI01
aI01
aI00
aI00
aI00
aI00
aI00
aI00
aa(lp893
I220029
aF331.9237
aF450.64
ag890
aS'utopia'
p894
aS'#656565'
p895
aF8.88595
aI0
aI00
aI00
aI00
aI00
aI00
aI00
aI00
aI00
aa(lp896
I234378
aF371.3213
aF450.64
ag890
aS'utopia'
p897
aS'#656565'
p898
aF8.88595
aI0
aI00
aI00
aI00
aI00
aI00
aI00
aI00
aI00
aa(lp899
I234378
aF382.277
aF450.64
aVp1
p900
aS'utopia'
p901
aS'#656565'
p902
aF8.88595
aI0
aI01
aI00
aI00
aI00
aI00
aI00
aI00
aI00
aa(lp903
I234378
aF424.1190909090909
aF450.64
ag900
aS'utopia'
p904
aS'#656565'
p905
aF8.88595
aI0
aI00
aI00
aI00
aI00
aI00
aI00
aI00
aI00
aa(lp906
I89958
aF430.409
aF450.64
aVp1
p907
aS'utopia'
p908
aS'#656565'
p909
aF8.88595
aI0
aI01
aI00
aI00
aI00
aI00
aI00
aI00
aI00
aa(lp910
I87500
aF464.472
aF450.64
aVp1
p911
aS'utopia'
p912
aS'#656565'
p913
aF8.88595
aI0
aI00
aI00
aI00
aI00
aI00
aI00
aI00
aI00
aa(lp914
I85218
aF497.054
aF450.64
aVp1
p915
aS'utopia'
p916
aS'#656565'
p917
aF8.88595
aI0
aI00
aI00
aI00
aI00
aI00
aI00
aI00
aI00
aa(lp918
I149270
aF514.085
aF450.64
aVp1
p919
aS'utopia'
p920
aS'#656565'
p921
aF8.88595
aI0
aI00
aI00
aI00
aI00
aI00
aI00
aI00
aI00
aa(lp922
I234378
aF40.9084
aF461.007
aVp1
p923
aS'utopia'
p924
aS'#656565'
p925
aF8.88595
aI0
aI00
aI00
aI00
aI00
aI00
aI00
aI00
aI00
aa(lp926
I234378
aF78.6737
aF461.007
aVp1
p927
aS'utopia'
p928
aS'#656565'
p929
aF8.88595
aI0
aI00
aI00
aI00
aI00
aI00
aI00
aI00
aI00
aa(lp930
I21716
aF113.477
aF461.007
aVp1
p931
aS'utopia'
p932
aS'#656565'
p933
aF8.88595
aI0
aI01
aI00
aI00
aI00
aI00
aI00
aI00
aI00
aa(lp934
I85218
aF131.989
aF461.007
aVp1
p935
aS'utopia'
p936
aS'#656565'
p937
aF8.88595
aI0
aI00
aI00
aI00
aI00
aI00
aI00
aI00
aI00
aa(lp938
I234378
aF149.021
aF461.007
aVp1
p939
aS'utopia'
p940
aS'#656565'
p941
aF8.88595
aI0
aI01
aI01
aI01
aI00
aI00
aI00
aI00
aI00
aa(lp942
I234378
aF169.014
aF461.007
aVp1
p943
aS'utopia'
p944
aS'#656565'
p945
aF8.88595
aI0
aI00
aI00
aI00
aI00
aI00
aI00
aI00
aI00
aa(lp946
I234378
aF226.032
aF461.007
aVp1
p947
aS'utopia'
p948
aS'#656565'
p949
aF8.88595
aI0
aI01
aI01
aI00
aI00
aI00
aI00
aI00
aI00
aa(lp950
I234378
aF238.3368
aF461.007
ag947
aS'utopia'
p951
aS'#656565'
p952
aF8.88595
aI0
aI00
aI00
aI00
aI00
aI00
aI00
aI00
aI00
aa(lp953
I104617
aF244.545
aF461.007
aVp1
p954
aS'utopia'
p955
aS'#656565'
p956
aF8.88595
aI0
aI01
aI00
aI00
aI00
aI00
aI00
aI00
aI00
aa(lp957
I166289
aF270.462
aF461.007
aVp1
p958
aS'utopia'
p959
aS'#656565'
p960
aF8.88595
aI0
aI00
aI00
aI00
aI00
aI00
aI00
aI00
aI00
aa(lp961
I130950
aF289.715
aF461.007
aVp1
p962
aS'utopia'
p963
aS'#656565'
p964
aF8.88595
aI0
aI00
aI00
aI00
aI00
aI00
aI00
aI00
aI00
aa(lp965
I234378
aF320.816
aF461.007
aVp1
p966
aS'utopia'
p967
aS'#656565'
p968
aF8.88595
aI0
aI01
aI00
aI00
aI00
aI00
aI00
aI00
aI00
aa(lp969
I234378
aF377.59645333333333
aF461.007
ag966
aS'utopia'
p970
aS'#656565'
p971
aF8.88595
aI0
aI00
aI00
aI00
aI00
aI00
aI00
aI00
aI00
aa(lp972
I234378
aF383.758
aF461.007
aVp1
p973
aS'utopia'
p974
aS'#656565'
p975
aF8.88595
aI0
aI01
aI00
aI00
aI00
aI00
aI00
aI00
aI00
aa(lp976
I234378
aF425.94877499999996
aF461.007
ag973
aS'utopia'
p977
aS'#656565'
p978
aF8.88595
aI0
aI00
aI00
aI00
aI00
aI00
aI00
aI00
aI00
aa(lp979
I80902
aF431.89
aF461.007
aVp1
p980
aS'utopia'
p981
aS'#656565'
p982
aF8.88595
aI0
aI01
aI00
aI00
aI00
aI00
aI00
aI00
aI00
aa(lp983
I163414
aF473.358
aF461.007
aVp1
p984
aS'utopia'
p985
aS'#656565'
p986
aF8.88595
aI0
aI00
aI00
aI00
aI00
aI00
aI00
aI00
aI00
aa(lp987
I234378
aF505.7133777777778
aF461.007
ag984
aS'utopia'
p988
aS'#656565'
p989
aF8.88595
aI0
aI00
aI00
aI00
aI00
aI00
aI00
aI00
aI00
aa(lp990
I173030
aF40.9084
aF471.373
aVp1
p991
aS'utopia'
p992
aS'#656565'
p993
aF8.88595
aI0
aI01
aI00
aI00
aI00
aI00
aI00
aI00
aI00
aa(lp994
I234378
aF84.45675833333334
aF471.373
ag991
aS'utopia'
p995
aS'#656565'
p996
aF8.88595
aI0
aI00
aI00
aI00
aI00
aI00
aI00
aI00
aI00
aa(lp997
I17350
aF90.5217
aF471.373
aVp1
p998
aS'utopia'
p999
aS'#656565'
p1000
aF8.88595
aI0
aI01
aI00
aI00
aI00
aI00
aI00
aI00
aI00
aa(lp1001
I234378
aF110.515
aF471.373
aVp1
p1002
aS'utopia'
p1003
aS'#656565'
p1004
aF8.88595
aI0
aI01
aI00
aI00
aI00
aI00
aI00
aI00
aI00
aa(lp1005
I234378
aF140.8957111111111
aF471.373
ag1002
aS'utopia'
p1006
aS'#656565'
p1007
aF8.88595
aI0
aI00
aI00
aI00
aI00
aI00
aI00
aI00
aI00
aa(lp1008
I148996
aF146.799
aF471.373
aVp1
p1009
aS'utopia'
p1010
aS'#656565'
p1011
aF8.88595
aI0
aI01
aI00
aI00
aI00
aI00
aI00
aI00
aI00
aa(lp1012
I234378
aF170.38234285714287
aF471.373
ag1009
aS'utopia'
p1013
aS'#656565'
p1014
aF8.88595
aI0
aI00
aI00
aI00
aI00
aI00
aI00
aI00
aI00
aa(lp1015
I176767
aF176.419
aF471.373
aVp1
p1016
aS'utopia'
p1017
aS'#656565'
p1018
aF8.88595
aI0
aI01
aI00
aI00
aI00
aI00
aI00
aI00
aI00
aa(lp1019
I234378
aF214.51042
aF471.373
ag1016
aS'utopia'
p1020
aS'#656565'
p1021
aF8.88595
aI0
aI00
aI00
aI00
aI00
aI00
aI00
aI00
aI00
aa(lp1022
I234378
aF220.849
aF471.373
aVp1
p1023
aS'utopia'
p1024
aS'#656565'
p1025
aF8.88595
aI0
aI01
aI01
aI01
aI00
aI00
aI00
aI00
aI00
aa(lp1026
I234378
aF248.09675
aF471.373
ag1023
aS'utopia'
p1027
aS'#656565'
p1028
aF8.88595
aI0
aI00
aI00
aI00
aI00
aI00
aI00
aI00
aI00
aa(lp1029
I234378
aF255.652
aF471.373
aVp1
p1030
aS'utopia'
p1031
aS'#656565'
p1032
aF8.88595
aI0
aI01
aI00
aI00
aI00
aI00
aI00
aI00
aI00
aa(lp1033
I234378
aF292.78181818181815
aF471.373
ag1030
aS'utopia'
p1034
aS'#656565'
p1035
aF8.88595
aI0
aI00
aI00
aI00
aI00
aI00
aI00
aI00
aI00
aa(lp1036
I234378
aF298.601
aF471.373
aVp1
p1037
aS'utopia'
p1038
aS'#656565'
p1039
aF8.88595
aI0
aI01
aI00
aI00
aI00
aI00
aI00
aI00
aI00
aa(lp1040
I234378
aF324.0884857142857
aF471.373
ag1037
aS'utopia'
p1041
aS'#656565'
p1042
aF8.88595
aI0
aI00
aI00
aI00
aI00
aI00
aI00
aI00
aI00
aa(lp1043
I234378
aF330.442
aF471.373
aVp1
p1044
aS'utopia'
p1045
aS'#656565'
p1046
aF8.88595
aI0
aI01
aI00
aI00
aI00
aI00
aI00
aI00
aI00
aa(lp1047
I234378
aF367.20052
aF471.373
ag1044
aS'utopia'
p1048
aS'#656565'
p1049
aF8.88595
aI0
aI00
aI00
aI00
aI00
aI00
aI00
aI00
aI00
aa(lp1050
I234378
aF373.391
aF471.373
aVp1
p1051
aS'utopia'
p1052
aS'#656565'
p1053
aF8.88595
aI0
aI01
aI00
aI00
aI00
aI00
aI00
aI00
aI00
aa(lp1054
I234378
aF399.40458333333333
aF471.373
ag1051
aS'utopia'
p1055
aS'#656565'
p1056
aF8.88595
aI0
aI00
aI00
aI00
aI00
aI00
aI00
aI00
aI00
aa(lp1057
I45445
aF406.713
aF471.373
aVp1
p1058
aS'utopia'
p1059
aS'#656565'
p1060
aF8.88595
aI0
aI01
aI00
aI00
aI00
aI00
aI00
aI00
aI00
aa(lp1061
I234378
aF430.9310571428572
aF471.373
ag1058
aS'utopia'
p1062
aS'#656565'
p1063
aF8.88595
aI0
aI00
aI00
aI00
aI00
aI00
aI00
aI00
aI00
aa(lp1064
I48671
aF40.9084
aF481.74
aVp1
p1065
aS'utopia'
p1066
aS'#656565'
p1067
aF8.88595
aI0
aI01
aI00
aI00
aI00
aI00
aI00
aI00
aI00
aa(lp1068
I129688
aF69.0473
aF481.74
aVp1
p1069
aS'utopia'
p1070
aS'#656565'
p1071
aF8.88595
aI0
aI01
aI00
aI00
aI00
aI00
aI00
aI00
aI00
aa(lp1072
I234378
aF97.1861
aF481.74
aVp1
p1073
aS'utopia'
p1074
aS'#656565'
p1075
aF8.88595
aI0
aI00
aI00
aI00
aI00
aI00
aI00
aI00
aI00
aa(lp1076
I234378
aF101.629
aF481.74
aVp1
p1077
aS'utopia'
p1078
aS'#656565'
p1079
aF8.88595
aI0
aI00
aI00
aI01
aI01
aI00
aI00
aI00
aI00
aa(lp1080
I234378
aF108.294
aF481.74
aVp1
p1081
aS'utopia'
p1082
aS'#656565'
p1083
aF8.88595
aI0
aI01
aI00
aI00
aI00
aI00
aI00
aI00
aI00
aa(lp1084
I234378
aF40.9084
aF514.956
aVp1
p1085
aS'utopia'
p1086
aS'#000000'
p1087
aF10.3669
aI1
aI01
aI00
aI00
aI00
aI00
aI00
aI00
aI00
aa(lp1088
I19068
aF90.5217
aF514.956
aVp1
p1089
aS'utopia'
p1090
aS'#000000'
p1091
aF10.3669
aI1
aI01
aI00
aI00
aI00
aI00
aI00
aI00
aI00
aa(lp1092
I55966
aF40.9084
aF531.517
aVp1
p1093
aS'utopia'
p1094
aS'#656565'
p1095
aF10.3669
aI0
aI01
aI00
aI00
aI00
aI00
aI00
aI00
aI00
aa(lp1096
I234378
aF73.4902
aF531.517
aVp1
p1097
aS'utopia'
p1098
aS'#656565'
p1099
aF10.3669
aI0
aI01
aI00
aI00
aI00
aI00
aI00
aI00
aI00
aa(lp1100
I132100
aF116.439
aF531.517
aVp1
p1101
aS'utopia'
p1102
aS'#656565'
p1103
aF10.3669
aI0
aI01
aI00
aI00
aI00
aI00
aI00
aI00
aI00
aa(lp1104
I234378
aF164.571
aF531.517
aVp1
p1105
aS'utopia'
p1106
aS'#656565'
p1107
aF10.3669
aI0
aI01
aI00
aI00
aI00
aI00
aI00
aI00
aI01
aa(lp1108
I234378
aF179.381
aF531.517
aVp1
p1109
aS'utopia'
p1110
aS'#656565'
p1111
aF10.3669
aI0
aI00
aI00
aI01
aI01
aI01
aI00
aI00
aI00
aa(lp1112
I89480
aF202.337
aF531.517
aVp1
p1113
aS'utopia'
p1114
aS'#656565'
p1115
aF10.3669
aI0
aI01
aI00
aI00
aI00
aI00
aI00
aI00
aI00
aa(lp1116
I37515
aF217.146
aF531.517
aVp1
p1117
aS'utopia'
p1118
aS'#656565'
p1119
aF10.3669
aI0
aI01
aI00
aI00
aI00
aI00
aI00
aI00
aI01
aa(lp1120
I234378
aF239.361
aF531.517
aVp1
p1121
aS'utopia'
p1122
aS'#656565'
p1123
aF10.3669
aI0
aI00
aI00
aI01
aI01
aI01
aI00
aI00
aI00
aa(lp1124
I234378
aF40.9084
aF551.347
aVp1
p1125
aS'utopia'
p1126
aS'#656565'
p1127
aF8.88595
aI0
aI01
aI00
aI00
aI00
aI00
aI00
aI00
aI00
aa(lp1128
I105322
aF73.4902
aF551.347
aVp1
p1129
aS'utopia'
p1130
aS'#656565'
p1131
aF8.88595
aI0
aI00
aI00
aI00
aI00
aI00
aI00
aI00
aI00
aa(lp1132
I135639
aF109.034
aF551.347
aVp1
p1133
aS'utopia'
p1134
aS'#656565'
p1135
aF8.88595
aI0
aI00
aI00
aI00
aI00
aI00
aI00
aI00
aI00
aa(lp1136
I117435
aF118.66
aF551.347
aVp1
p1137
aS'utopia'
p1138
aS'#656565'
p1139
aF8.88595
aI0
aI00
aI00
aI00
aI00
aI00
aI00
aI00
aI00
aa(lp1140
I85218
aF157.907
aF551.347
aVp1
p1141
aS'utopia'
p1142
aS'#656565'
p1143
aF8.88595
aI0
aI00
aI00
aI00
aI00
aI00
aI00
aI00
aI00
aa(lp1144
I68032
aF174.938
aF551.347
aVp1
p1145
aS'utopia'
p1146
aS'#656565'
p1147
aF8.88595
aI0
aI00
aI00
aI00
aI00
aI00
aI00
aI00
aI00
aa(lp1148
I144489
aF228.994
aF551.347
aVp1
p1149
aS'utopia'
p1150
aS'#656565'
p1151
aF8.88595
aI0
aI00
aI00
aI00
aI00
aI00
aI00
aI00
aI00
aa(lp1152
I81006
aF239.361
aF551.347
aVp1
p1153
aS'utopia'
p1154
aS'#656565'
p1155
aF8.88595
aI0
aI00
aI00
aI00
aI00
aI00
aI00
aI00
aI00
aa(lp1156
I18648
aF265.279
aF551.347
aVp1
p1157
aS'utopia'
p1158
aS'#656565'
p1159
aF8.88595
aI0
aI00
aI00
aI00
aI00
aI00
aI00
aI00
aI00
aa(lp1160
I234378
aF298.601
aF551.347
aVp1
p1161
aS'utopia'
p1162
aS'#656565'
p1163
aF8.88595
aI0
aI00
aI00
aI00
aI00
aI00
aI00
aI00
aI00
aa(lp1164
I234378
aF344.5044153846154
aF551.347
ag1161
aS'utopia'
p1165
aS'#656565'
p1166
aF8.88595
aI0
aI00
aI00
aI00
aI00
aI00
aI00
aI00
aI00
aa(lp1167
I197030
aF350.436
aF551.347
aVp1
p1168
aS'utopia'
p1169
aS'#656565'
p1170
aF8.88595
aI0
aI01
aI01
aI00
aI00
aI00
aI00
aI00
aI00
aa(lp1171
I209115
aF355.619
aF551.347
aVp1
p1172
aS'utopia'
p1173
aS'#656565'
p1174
aF8.88595
aI0
aI00
aI00
aI00
aI00
aI00
aI00
aI00
aI00
aa(lp1175
I123583
aF372.651
aF551.347
aVp1
p1176
aS'utopia'
p1177
aS'#656565'
p1178
aF8.88595
aI0
aI00
aI00
aI00
aI00
aI00
aI00
aI00
aI00
aa(lp1179
I135639
aF406.713
aF551.347
aVp1
p1180
aS'utopia'
p1181
aS'#656565'
p1182
aF8.88595
aI0
aI00
aI00
aI00
aI00
aI00
aI00
aI00
aI00
aa(lp1183
I39741
aF416.34
aF551.347
aVp1
p1184
aS'utopia'
p1185
aS'#656565'
p1186
aF8.88595
aI0
aI01
aI00
aI00
aI00
aI00
aI00
aI00
aI00
aa(lp1187
I234378
aF436.333
aF551.347
aVp1
p1188
aS'utopia'
p1189
aS'#656565'
p1190
aF8.88595
aI0
aI00
aI00
aI00
aI00
aI00
aI00
aI00
aI00
aa(lp1191
I129342
aF479.282
aF551.347
aVp1
p1192
aS'utopia'
p1193
aS'#656565'
p1194
aF8.88595
aI0
aI00
aI00
aI00
aI00
aI00
aI00
aI00
aI00
aa(lp1195
I210461
aF516.307
aF551.347
aVp1
p1196
aS'utopia'
p1197
aS'#656565'
p1198
aF8.88595
aI0
aI00
aI00
aI00
aI00
aI00
aI00
aI00
aI00
aa(lp1199
I234378
aF534.17132
aF551.347
ag1196
aS'utopia'
p1200
aS'#656565'
p1201
aF8.88595
aI0
aI00
aI00
aI00
aI00
aI00
aI00
aI00
aI00
aa(lp1202
I218914
aF40.9084
aF561.714
aVp1
p1203
aS'utopia'
p1204
aS'#656565'
p1205
aF8.88595
aI0
aI00
aI00
aI00
aI00
aI00
aI00
aI00
aI00
aa(lp1206
I104380
aF66.8258
aF561.714
aVp1
p1207
aS'utopia'
p1208
aS'#656565'
p1209
aF8.88595
aI0
aI00
aI00
aI00
aI00
aI00
aI00
aI00
aI00
aa(lp1210
I234378
aF87.5597
aF561.714
aVp1
p1211
aS'utopia'
p1212
aS'#656565'
p1213
aF8.88595
aI0
aI01
aI01
aI00
aI00
aI00
aI00
aI00
aI00
aa(lp1214
I234378
aF106.813
aF561.714
aVp1
p1215
aS'utopia'
p1216
aS'#656565'
p1217
aF8.88595
aI0
aI00
aI00
aI00
aI00
aI00
aI00
aI00
aI00
aa(lp1218
I89480
aF151.242
aF561.714
aVp1
p1219
aS'utopia'
p1220
aS'#656565'
p1221
aF8.88595
aI0
aI00
aI00
aI00
aI00
aI00
aI00
aI00
aI00
aa(lp1222
I144045
aF161.609
aF561.714
aVp1
p1223
aS'utopia'
p1224
aS'#656565'
p1225
aF8.88595
aI0
aI00
aI00
aI00
aI00
aI00
aI00
aI00
aI00
aa(lp1226
I144489
aF194.932
aF561.714
aVp1
p1227
aS'utopia'
p1228
aS'#656565'
p1229
aF8.88595
aI0
aI00
aI00
aI00
aI00
aI00
aI00
aI00
aI00
aa(lp1230
I234378
aF205.299
aF561.714
aVp1
p1231
aS'utopia'
p1232
aS'#656565'
p1233
aF8.88595
aI0
aI00
aI00
aI00
aI00
aI00
aI00
aI00
aI00
aa(lp1234
I190806
aF228.254
aF561.714
aVp1
p1235
aS'utopia'
p1236
aS'#656565'
p1237
aF8.88595
aI0
aI00
aI00
aI00
aI00
aI00
aI00
aI00
aI00
aa(lp1238
I108443
aF242.323
aF561.714
aVp1
p1239
aS'utopia'
p1240
aS'#656565'
p1241
aF8.88595
aI0
aI01
aI00
aI00
aI00
aI00
aI00
aI00
aI00
aa(lp1242
I223946
aF271.943
aF561.714
aVp1
p1243
aS'utopia'
p1244
aS'#656565'
p1245
aF8.88595
aI0
aI01
aI00
aI00
aI00
aI00
aI00
aI00
aI00
aa(lp1246
I184870
aF314.151
aF561.714
aVp1
p1247
aS'utopia'
p1248
aS'#656565'
p1249
aF8.88595
aI0
aI00
aI00
aI00
aI00
aI00
aI00
aI00
aI00
aa(lp1250
I234378
aF348.214
aF561.714
aVp1
p1251
aS'utopia'
p1252
aS'#656565'
p1253
aF8.88595
aI0
aI00
aI00
aI00
aI00
aI00
aI00
aI00
aI00
aa(lp1254
I85218
aF392.644
aF561.714
aVp1
p1255
aS'utopia'
p1256
aS'#656565'
p1257
aF8.88595
aI0
aI00
aI00
aI00
aI00
aI00
aI00
aI00
aI00
aa(lp1258
I234378
aF409.675
aF561.714
aVp1
p1259
aS'utopia'
p1260
aS'#656565'
p1261
aF8.88595
aI0
aI00
aI00
aI00
aI00
aI00
aI00
aI00
aI00
aa(lp1262
I234378
aF433.371
aF561.714
aVp1
p1263
aS'utopia'
p1264
aS'#656565'
p1265
aF8.88595
aI0
aI00
aI00
aI00
aI00
aI00
aI00
aI00
aI00
aa(lp1266
I234378
aF468.35926666666666
aF561.714
ag1263
aS'utopia'
p1267
aS'#656565'
p1268
aF8.88595
aI0
aI00
aI00
aI00
aI00
aI00
aI00
aI00
aI00
aa(lp1269
I144690
aF474.839
aF561.714
aVp1
p1270
aS'utopia'
p1271
aS'#656565'
p1272
aF8.88595
aI0
aI01
aI00
aI00
aI00
aI00
aI00
aI00
aI00
aa(lp1273
I85218
aF503.718
aF561.714
aVp1
p1274
aS'utopia'
p1275
aS'#656565'
p1276
aF8.88595
aI0
aI00
aI00
aI00
aI00
aI00
aI00
aI00
aI00
aa(lp1277
I234378
aF40.9084
aF572.081
aVp1
p1278
aS'utopia'
p1279
aS'#656565'
p1280
aF8.88595
aI0
aI00
aI00
aI00
aI00
aI00
aI00
aI00
aI00
aa(lp1281
I234378
aF83.8572
aF572.081
aVp1
p1282
aS'utopia'
p1283
aS'#656565'
p1284
aF8.88595
aI0
aI00
aI00
aI00
aI00
aI00
aI00
aI00
aI00
aa(lp1285
I119502
aF128.287
aF572.081
aVp1
p1286
aS'utopia'
p1287
aS'#656565'
p1288
aF8.88595
aI0
aI00
aI00
aI00
aI00
aI00
aI00
aI00
aI00
aa(lp1289
I89480
aF157.907
aF572.081
aVp1
p1290
aS'utopia'
p1291
aS'#656565'
p1292
aF8.88595
aI0
aI00
aI00
aI00
aI00
aI00
aI00
aI00
aI00
aa(lp1293
I223003
aF168.274
aF572.081
aVp1
p1294
aS'utopia'
p1295
aS'#656565'
p1296
aF8.88595
aI0
aI00
aI00
aI00
aI00
aI00
aI00
aI00
aI00
aa(lp1297
I151364
aF205.299
aF572.081
aVp1
p1298
aS'utopia'
p1299
aS'#656565'
p1300
aF8.88595
aI0
aI00
aI00
aI00
aI00
aI00
aI00
aI00
aI00
aa(lp1301
I18050
aF240.842
aF572.081
aVp1
p1302
aS'utopia'
p1303
aS'#656565'
p1304
aF8.88595
aI0
aI00
aI00
aI00
aI00
aI00
aI00
aI00
aI00
aa(lp1305
I168333
aF274.165
aF572.081
aVp1
p1306
aS'utopia'
p1307
aS'#656565'
p1308
aF8.88595
aI0
aI00
aI00
aI00
aI00
aI00
aI00
aI00
aI00
aa(lp1309
I234378
aF310.4697111111111
aF572.081
ag1306
aS'utopia'
p1310
aS'#656565'
p1311
aF8.88595
aI0
aI00
aI00
aI00
aI00
aI00
aI00
aI00
aI00
aa(lp1312
I234378
aF317.113
aF572.081
aVp1
p1313
aS'utopia'
p1314
aS'#656565'
p1315
aF8.88595
aI0
aI00
aI00
aI00
aI00
aI00
aI00
aI00
aI00
aa(lp1316
I86885
aF340.069
aF572.081
aVp1
p1317
aS'utopia'
p1318
aS'#656565'
p1319
aF8.88595
aI0
aI00
aI00
aI00
aI00
aI00
aI00
aI00
aI00
aa(lp1320
I120066
aF387.46
aF572.081
aVp1
p1321
aS'utopia'
p1322
aS'#656565'
p1323
aF8.88595
aI0
aI00
aI00
aI00
aI00
aI00
aI00
aI00
aI00
aa(lp1324
I89480
aF428.188
aF572.081
aVp1
p1325
aS'utopia'
p1326
aS'#656565'
p1327
aF8.88595
aI0
aI00
aI00
aI00
aI00
aI00
aI00
aI00
aI00
aa(lp1328
I79694
aF438.555
aF572.081
aVp1
p1329
aS'utopia'
p1330
aS'#656565'
p1331
aF8.88595
aI0
aI00
aI00
aI00
aI00
aI00
aI00
aI00
aI00
aa(lp1332
I194354
aF462.251
aF572.081
aVp1
p1333
aS'utopia'
p1334
aS'#656565'
p1335
aF8.88595
aI0
aI00
aI00
aI00
aI00
aI00
aI00
aI00
aI00
aa(lp1336
I151364
aF477.06
aF572.081
aVp1
p1337
aS'utopia'
p1338
aS'#656565'
p1339
aF8.88595
aI0
aI00
aI00
aI00
aI00
aI00
aI00
aI00
aI00
aa(lp1340
I92825
aF40.9084
aF582.448
aVp1
p1341
aS'utopia'
p1342
aS'#656565'
p1343
aF8.88595
aI0
aI00
aI00
aI00
aI00
aI00
aI00
aI00
aI00
aa(lp1344
I89480
aF88.3002
aF582.448
aVp1
p1345
aS'utopia'
p1346
aS'#656565'
p1347
aF8.88595
aI0
aI00
aI00
aI00
aI00
aI00
aI00
aI00
aI00
aa(lp1348
I194002
aF98.6671
aF582.448
aVp1
p1349
aS'utopia'
p1350
aS'#656565'
p1351
aF8.88595
aI0
aI00
aI00
aI00
aI00
aI00
aI00
aI00
aI00
aa(lp1352
I144489
aF111.996
aF582.448
aVp1
p1353
aS'utopia'
p1354
aS'#656565'
p1355
aF8.88595
aI0
aI00
aI00
aI00
aI00
aI00
aI00
aI00
aI00
aa(lp1356
I108443
aF122.363
aF582.448
aVp1
p1357
aS'utopia'
p1358
aS'#656565'
p1359
aF8.88595
aI0
aI01
aI00
aI00
aI00
aI00
aI00
aI00
aI00
aa(lp1360
I234378
aF151.983
aF582.448
aVp1
p1361
aS'utopia'
p1362
aS'#656565'
p1363
aF8.88595
aI0
aI01
aI00
aI00
aI00
aI00
aI00
aI00
aI00
aa(lp1364
I234378
aF186.424575
aF582.448
ag1361
aS'utopia'
p1365
aS'#656565'
p1366
aF8.88595
aI0
aI00
aI00
aI00
aI00
aI00
aI00
aI00
aI00
aa(lp1367
I234378
aF193.451
aF582.448
aVp1
p1368
aS'utopia'
p1369
aS'#656565'
p1370
aF8.88595
aI0
aI01
aI00
aI00
aI00
aI00
aI00
aI00
aI00
aa(lp1371
I14859
aF236.399
aF582.448
aVp1
p1372
aS'utopia'
p1373
aS'#656565'
p1374
aF8.88595
aI0
aI00
aI00
aI00
aI00
aI00
aI00
aI00
aI00
aa(lp1375
I169745
aF270.462
aF582.448
aVp1
p1376
aS'utopia'
p1377
aS'#656565'
p1378
aF8.88595
aI0
aI00
aI00
aI00
aI00
aI00
aI00
aI00
aI00
aa(lp1379
I234378
aF289.715
aF582.448
aVp1
p1380
aS'utopia'
p1381
aS'#656565'
p1382
aF8.88595
aI0
aI01
aI01
aI00
aI00
aI00
aI00
aI00
aI00
aa(lp1383
I234378
aF311.93
aF582.448
aVp1
p1384
aS'utopia'
p1385
aS'#656565'
p1386
aF8.88595
aI0
aI00
aI00
aI00
aI00
aI00
aI00
aI00
aI00
aa(lp1387
I92825
aF357.841
aF582.448
aVp1
p1388
aS'utopia'
p1389
aS'#656565'
p1390
aF8.88595
aI0
aI00
aI00
aI00
aI00
aI00
aI00
aI00
aI00
aa(lp1391
I184870
aF405.232
aF582.448
aVp1
p1392
aS'utopia'
p1393
aS'#656565'
p1394
aF8.88595
aI0
aI00
aI00
aI00
aI00
aI00
aI00
aI00
aI00
aa(lp1395
I111522
aF439.295
aF582.448
aVp1
p1396
aS'utopia'
p1397
aS'#656565'
p1398
aF8.88595
aI0
aI00
aI00
aI00
aI00
aI00
aI00
aI00
aI00
aa(lp1399
I203832
aF477.801
aF582.448
aVp1
p1400
aS'utopia'
p1401
aS'#656565'
p1402
aF8.88595
aI0
aI00
aI00
aI00
aI00
aI00
aI00
aI00
aI00
aa(lp1403
I144489
aF493.351
aF582.448
aVp1
p1404
aS'utopia'
p1405
aS'#656565'
p1406
aF8.88595
aI0
aI00
aI00
aI00
aI00
aI00
aI00
aI00
aI00
aa(lp1407
I260
aF40.9084
aF592.815
aVp1
p1408
aS'utopia'
p1409
aS'#656565'
p1410
aF8.88595
aI0
aI00
aI00
aI00
aI00
aI00
aI00
aI00
aI00
aa(lp1411
I85218
aF93.4836
aF592.815
aVp1
p1412
aS'utopia'
p1413
aS'#656565'
p1414
aF8.88595
aI0
aI00
aI00
aI00
aI00
aI00
aI00
aI00
aI00
aa(lp1415
I234378
aF110.515
aF592.815
aVp1
p1416
aS'utopia'
p1417
aS'#656565'
p1418
aF8.88595
aI0
aI00
aI00
aI00
aI00
aI00
aI00
aI00
aI00
aa(lp1419
I234378
aF132.29626666666667
aF592.815
ag1416
aS'utopia'
p1420
aS'#656565'
p1421
aF8.88595
aI0
aI00
aI00
aI00
aI00
aI00
aI00
aI00
aI00
aa(lp1422
I4526
aF174.938
aF592.815
aVp1
p1423
aS'utopia'
p1424
aS'#656565'
p1425
aF8.88595
aI0
aI00
aI00
aI00
aI00
aI00
aI00
aI00
aI00
aa(lp1426
I234378
aF204.8440125
aF592.815
ag1423
aS'utopia'
p1427
aS'#656565'
p1428
aF8.88595
aI0
aI00
aI00
aI00
aI00
aI00
aI00
aI00
aI00
aa(lp1429
I234378
aF211.222
aF592.815
aVp1
p1430
aS'utopia'
p1431
aS'#656565'
p1432
aF8.88595
aI0
aI01
aI00
aI00
aI00
aI00
aI00
aI00
aI00
aa(lp1433
I234378
aF243.804
aF592.815
aVp1
p1434
aS'utopia'
p1435
aS'#656565'
p1436
aF8.88595
aI0
aI00
aI00
aI00
aI00
aI00
aI00
aI00
aI00
aa(lp1437
I89480
aF301.563
aF592.815
aVp1
p1438
aS'utopia'
p1439
aS'#656565'
p1440
aF8.88595
aI0
aI00
aI00
aI00
aI00
aI00
aI00
aI00
aI00
aa(lp1441
I223003
aF311.93
aF592.815
aVp1
p1442
aS'utopia'
p1443
aS'#656565'
p1444
aF8.88595
aI0
aI00
aI00
aI00
aI00
aI00
aI00
aI00
aI00
aa(lp1445
I234378
aF348.955
aF592.815
aVp1
p1446
aS'utopia'
p1447
aS'#656565'
p1448
aF8.88595
aI0
aI00
aI00
aI00
aI00
aI00
aI00
aI00
aI00
aa(lp1449
I8691
aF393.384
aF592.815
aVp1
p1450
aS'utopia'
p1451
aS'#656565'
p1452
aF8.88595
aI0
aI00
aI00
aI00
aI00
aI00
aI00
aI00
aI00
aa(lp1453
I234378
aF420.783
aF592.815
aVp1
p1454
aS'utopia'
p1455
aS'#656565'
p1456
aF8.88595
aI0
aI00
aI00
aI00
aI00
aI00
aI00
aI00
aI00
aa(lp1457
I85218
aF460.029
aF592.815
aVp1
p1458
aS'utopia'
p1459
aS'#656565'
p1460
aF8.88595
aI0
aI00
aI00
aI00
aI00
aI00
aI00
aI00
aI00
aa(lp1461
I234378
aF477.06
aF592.815
aVp1
p1462
aS'utopia'
p1463
aS'#656565'
p1464
aF8.88595
aI0
aI00
aI00
aI00
aI00
aI00
aI00
aI00
aI00
aa(lp1465
I169745
aF499.275
aF592.815
aVp1
p1466
aS'utopia'
p1467
aS'#656565'
p1468
aF8.88595
aI0
aI00
aI00
aI00
aI00
aI00
aI00
aI00
aI00
aa(lp1469
I230071
aF518.528
aF592.815
aVp1
p1470
aS'utopia'
p1471
aS'#656565'
p1472
aF8.88595
aI0
aI01
aI00
aI00
aI00
aI00
aI00
aI00
aI00
aa(lp1473
I148248
aF40.9084
aF603.182
aVp1
p1474
aS'utopia'
p1475
aS'#656565'
p1476
aF8.88595
aI0
aI01
aI00
aI00
aI00
aI00
aI00
aI00
aI00
aa(lp1477
I153177
aF63.1233
aF603.182
aVp1
p1478
aS'utopia'
p1479
aS'#656565'
p1480
aF8.88595
aI0
aI00
aI00
aI00
aI00
aI00
aI00
aI00
aI00
aa(lp1481
I234378
aF112.37030000000001
aF603.182
ag1478
aS'utopia'
p1482
aS'#656565'
p1483
aF8.88595
aI0
aI00
aI00
aI00
aI00
aI00
aI00
aI00
aI00
aa(lp1484
I104617
aF119.401
aF603.182
aVp1
p1485
aS'utopia'
p1486
aS'#656565'
p1487
aF8.88595
aI0
aI01
aI00
aI00
aI00
aI00
aI00
aI00
aI00
aa(lp1488
I177958
aF145.318
aF603.182
aVp1
p1489
aS'utopia'
p1490
aS'#656565'
p1491
aF8.88595
aI0
aI00
aI00
aI00
aI00
aI00
aI00
aI00
aI00
aa(lp1492
I209115
aF175.679
aF603.182
aVp1
p1493
aS'utopia'
p1494
aS'#656565'
p1495
aF8.88595
aI0
aI00
aI00
aI00
aI00
aI00
aI00
aI00
aI00
aa(lp1496
I53211
aF192.71
aF603.182
aVp1
p1497
aS'utopia'
p1498
aS'#656565'
p1499
aF8.88595
aI0
aI00
aI00
aI00
aI00
aI00
aI00
aI00
aI00
aa(lp1500
I144483
aF214.925
aF603.182
aVp1
p1501
aS'utopia'
p1502
aS'#656565'
p1503
aF8.88595
aI0
aI00
aI00
aI00
aI00
aI00
aI00
aI00
aI00
aa(lp1504
I21716
aF227.513
aF603.182
aVp1
p1505
aS'utopia'
p1506
aS'#656565'
p1507
aF8.88595
aI0
aI01
aI00
aI00
aI00
aI00
aI00
aI00
aI00
aa(lp1508
I234378
aF242.41532
aF603.182
ag1505
aS'utopia'
p1509
aS'#656565'
p1510
aF8.88595
aI0
aI00
aI00
aI00
aI00
aI00
aI00
aI00
aI00
aa(lp1511
I148996
aF248.247
aF603.182
aVp1
p1512
aS'utopia'
p1513
aS'#656565'
p1514
aF8.88595
aI0
aI01
aI00
aI00
aI00
aI00
aI00
aI00
aI00
aa(lp1515
I234378
aF271.83034285714285
aF603.182
ag1512
aS'utopia'
p1516
aS'#656565'
p1517
aF8.88595
aI0
aI00
aI00
aI00
aI00
aI00
aI00
aI00
aI00
aa(lp1518
I234378
aF277.867
aF603.182
aVp1
p1519
aS'utopia'
p1520
aS'#656565'
p1521
aF8.88595
aI0
aI01
aI00
aI00
aI00
aI00
aI00
aI00
aI00
aa(lp1522
I234378
aF319.70909090909095
aF603.182
ag1519
aS'utopia'
p1523
aS'#656565'
p1524
aF8.88595
aI0
aI00
aI00
aI00
aI00
aI00
aI00
aI00
aI00
aa(lp1525
I213286
aF325.999
aF603.182
aVp1
p1526
aS'utopia'
p1527
aS'#656565'
p1528
aF8.88595
aI0
aI01
aI00
aI00
aI00
aI00
aI00
aI00
aI00
aa(lp1529
I85218
aF360.803
aF603.182
aVp1
p1530
aS'utopia'
p1531
aS'#656565'
p1532
aF8.88595
aI0
aI00
aI00
aI00
aI00
aI00
aI00
aI00
aI00
aa(lp1533
I234378
aF377.834
aF603.182
aVp1
p1534
aS'utopia'
p1535
aS'#656565'
p1536
aF8.88595
aI0
aI00
aI00
aI00
aI00
aI00
aI00
aI00
aI00
aa(lp1537
I132957
aF419.302
aF603.182
aVp1
p1538
aS'utopia'
p1539
aS'#656565'
p1540
aF8.88595
aI0
aI01
aI00
aI00
aI00
aI00
aI00
aI00
aI00
aa(lp1541
I234378
aF440.036
aF603.182
aVp1
p1542
aS'utopia'
p1543
aS'#656565'
p1544
aF8.88595
aI0
aI00
aI00
aI00
aI00
aI00
aI00
aI00
aI00
aa(lp1545
I234378
aF478.51218181818183
aF603.182
ag1542
aS'utopia'
p1546
aS'#656565'
p1547
aF8.88595
aI0
aI00
aI00
aI00
aI00
aI00
aI00
aI00
aI00
aa(lp1548
I124531
aF40.1679
aF638.743
aVp1
p1549
aS'utopia'
p1550
aS'#02304b'
p1551
aF11.8479
aI1
aI01
aI00
aI00
aI00
aI00
aI00
aI00
aI00
aa(lp1552
I209062
aF40.9084
aF667.027
aVp1
p1553
aS'utopia'
p1554
aS'#656565'
p1555
aF10.3669
aI0
aI01
aI00
aI00
aI00
aI00
aI00
aI00
aI00
aa(lp1556
I234378
aF63.1233
aF667.027
aVp1
p1557
aS'utopia'
p1558
aS'#656565'
p1559
aF10.3669
aI0
aI01
aI00
aI00
aI00
aI00
aI00
aI00
aI00
aa(lp1560
I234378
aF111.996
aF667.027
aVp1
p1561
aS'utopia'
p1562
aS'#656565'
p1563
aF10.3669
aI0
aI00
aI00
aI00
aI00
aI00
aI00
aI00
aI00
aa(lp1564
I60201
aF117.92
aF667.027
aVp1
p1565
aS'utopia'
p1566
aS'#656565'
p1567
aF10.3669
aI0
aI01
aI00
aI00
aI00
aI00
aI00
aI00
aI00
aa(lp1568
I230071
aF137.913
aF667.027
aVp1
p1569
aS'utopia'
p1570
aS'#656565'
p1571
aF10.3669
aI0
aI01
aI00
aI00
aI00
aI00
aI00
aI00
aI00
aa(lp1572
I234378
aF164.571
aF667.027
aVp1
p1573
aS'utopia'
p1574
aS'#656565'
p1575
aF10.3669
aI0
aI00
aI00
aI00
aI00
aI00
aI00
aI00
aI00
aa(lp1576
I234378
aF40.9084
aF683.049
aVp1
p1577
aS'utopia'
p1578
aS'#000000'
p1579
aF10.3669
aI1
aI01
aI01
aI00
aI00
aI00
aI00
aI00
aI00
aa(lp1580
I234378
aF66.8258
aF683.049
aVp1
p1581
aS'utopia'
p1582
aS'#000000'
p1583
aF10.3669
aI1
aI00
aI00
aI00
aI00
aI00
aI00
aI00
aI00
aa(lp1584
I234378
aF72.41775454545454
aF683.049
ag1581
aS'utopia'
p1585
aS'#000000'
p1586
aF10.3669
aI1
aI01
aI00
aI00
aI00
aI00
aI00
aI00
aI00
aa(lp1587
I234378
aF122.74534545454544
aF683.049
ag1581
aS'utopia'
p1588
aS'#000000'
p1589
aF10.3669
aI1
aI00
aI00
aI00
aI00
aI00
aI00
aI00
aI00
aa(lp1590
I234378
aF40.9084
aF703.312
aVp1
p1591
aS'utopia'
p1592
aS'#656565'
p1593
aF10.3669
aI0
aI01
aI00
aI00
aI00
aI00
aI00
aI00
aI00
aa(lp1594
I153079
aF66.8258
aF703.312
aVp1
p1595
aS'utopia'
p1596
aS'#656565'
p1597
aF10.3669
aI0
aI01
aI00
aI00
aI00
aI00
aI00
aI00
aI00
aa(lp1598
I135639
aF121.622
aF703.312
aVp1
p1599
aS'utopia'
p1600
aS'#656565'
p1601
aF10.3669
aI0
aI00
aI00
aI00
aI00
aI00
aI00
aI00
aI00
aa(lp1602
I234378
aF133.47
aF703.312
aVp1
p1603
aS'utopia'
p1604
aS'#656565'
p1605
aF10.3669
aI0
aI00
aI00
aI01
aI01
aI01
aI00
aI00
aI00
aa(lp1606
I234378
aF40.9084
aF731.45
aVp1
p1607
aS'utopia'
p1608
aS'#656565'
p1609
aF10.3669
aI0
aI01
aI00
aI00
aI00
aI00
aI00
aI00
aI00
aa(lp1610
I234378
aF117.18
aF731.45
aVp1
p1611
aS'utopia'
p1612
aS'#656565'
p1613
aF10.3669
aI0
aI00
aI00
aI00
aI00
aI00
aI00
aI00
aI00
aa(lp1614
I60201
aF123.103
aF731.45
aVp1
p1615
aS'utopia'
p1616
aS'#656565'
p1617
aF10.3669
aI0
aI01
aI00
aI00
aI00
aI00
aI00
aI00
aI00
aa(lp1618
I230071
aF143.097
aF731.45
aVp1
p1619
aS'utopia'
p1620
aS'#656565'
p1621
aF10.3669
aI0
aI01
aI00
aI00
aI00
aI00
aI00
aI00
aI00
aa(lp1622
I234378
aF169.755
aF731.45
aVp1
p1623
aS'utopia'
p1624
aS'#656565'
p1625
aF10.3669
aI0
aI00
aI00
aI00
aI00
aI00
aI00
aI00
aI00
aa(lp1626
I27780
aF40.9084
aF747.472
aVp1
p1627
aS'utopia'
p1628
aS'#000000'
p1629
aF10.3669
aI1
aI01
aI01
aI00
aI00
aI00
aI00
aI00
aI00
aa(lp1630
I234378
aF46.251075
aF747.472
ag1627
aS'utopia'
p1631
aS'#000000'
p1632
aF10.3669
aI1
aI00
aI00
aI00
aI00
aI00
aI00
aI00
aI00
aa(lp1633
I234378
aF51.59375
aF747.472
ag1627
aS'utopia'
p1634
aS'#000000'
p1635
aF10.3669
aI1
aI01
aI00
aI00
aI00
aI00
aI00
aI00
aI00
aa(lp1636
I234378
aF64.6043
aF747.472
aVp1
p1637
aS'utopia'
p1638
aS'#000000'
p1639
aF10.3669
aI1
aI00
aI00
aI00
aI00
aI00
aI00
aI00
aI00
aa(lp1640
I234378
aF70.19625454545454
aF747.472
ag1637
aS'utopia'
p1641
aS'#000000'
p1642
aF10.3669
aI1
aI01
aI00
aI00
aI00
aI00
aI00
aI00
aI00
aa(lp1643
I234378
aF120.52384545454544
aF747.472
ag1637
aS'utopia'
p1644
aS'#000000'
p1645
aF10.3669
aI1
aI00
aI00
aI00
aI00
aI00
aI00
aI00
aI00
aa(lp1646
I234378
aF40.9084
aF767.735
aVp1
p1647
aS'utopia'
p1648
aS'#656565'
p1649
aF10.3669
aI0
aI01
aI00
aI00
aI00
aI00
aI00
aI00
aI00
aa(lp1650
I153079
aF82.3762
aF767.735
aVp1
p1651
aS'utopia'
p1652
aS'#656565'
p1653
aF10.3669
aI0
aI01
aI00
aI00
aI00
aI00
aI00
aI00
aI00
aa(lp1654
I135639
aF137.173
aF767.735
aVp1
p1655
aS'utopia'
p1656
aS'#656565'
p1657
aF10.3669
aI0
aI00
aI00
aI00
aI00
aI00
aI00
aI00
aI00
aa(lp1658
I234378
aF149.021
aF767.735
aVp1
p1659
aS'utopia'
p1660
aS'#656565'
p1661
aF10.3669
aI0
aI00
aI00
aI01
aI01
aI01
aI00
aI00
aI00
aa(lp1662
I22476
aF40.1679
aF34.4987
aVp2
p1663
aS'utopia'
p1664
aS'#02304b'
p1665
aF11.8479
aI1
aI01
aI01
aI00
aI00
aI00
aI00
aI00
aI00
aa(lp1666
I234378
aF54.2374
aF34.4987
aVp2
p1667
aS'utopia'
p1668
aS'#02304b'
p1669
aF11.8479
aI1
aI01
aI00
aI00
aI00
aI00
aI00
aI00
aI00
aa(lp1670
I109610
aF48.3134
aF62.3887
aVp2
p1671
aS'utopia'
p1672
aS'#000000'
p1673
aF8.88595
aI1
aI01
aI00
aI00
aI00
aI00
aI00
aI00
aI00
aa(lp1674
I158577
aF69.7878
aF62.3887
aVp2
p1675
aS'utopia'
p1676
aS'#000000'
p1677
aF8.88595
aI1
aI01
aI00
aI00
aI00
aI00
aI00
aI00
aI00
aa(lp1678
I194179
aF188.267
aF62.3887
aVp2
p1679
aS'utopia'
p1680
aS'#000000'
p1681
aF8.88595
aI1
aI01
aI00
aI00
aI00
aI00
aI00
aI00
aI00
aa(lp1682
I177981
aF305.265
aF62.3887
aVp2
p1683
aS'utopia'
p1684
aS'#000000'
p1685
aF8.88595
aI1
aI01
aI00
aI00
aI00
aI00
aI00
aI00
aI00
aa(lp1686
I25729
aF324.518
aF62.3887
aVp2
p1687
aS'utopia'
p1688
aS'#000000'
p1689
aF8.88595
aI1
aI01
aI00
aI00
aI00
aI00
aI00
aI00
aI00
aa(lp1690
I60220
aF412.637
aF62.3887
aVp2
p1691
aS'utopia'
p1692
aS'#000000'
p1693
aF8.88595
aI1
aI01
aI00
aI00
aI00
aI00
aI00
aI00
aI00
aa(lp1694
I84662
aF48.3134
aF81.1322
aVp2
p1695
aS'utopia'
p1696
aS'#656565'
p1697
aF8.88595
aI0
aI01
aI01
aI00
aI00
aI00
aI00
aI00
aI00
aa(lp1698
I21716
aF74.2307
aF81.1322
aVp2
p1699
aS'utopia'
p1700
aS'#656565'
p1701
aF8.88595
aI0
aI01
aI01
aI00
aI00
aI00
aI00
aI00
aI00
aa(lp1702
I234378
aF188.267
aF81.1322
aVp2
p1703
aS'utopia'
p1704
aS'#656565'
p1705
aF8.88595
aI0
aI00
aI00
aI01
aI01
aI00
aI00
aI00
aI00
aa(lp1706
I234378
aF192.0465
aF81.1322
ag1703
aS'utopia'
p1707
aS'#656565'
p1708
aF8.88595
aI0
aI00
aI00
aI00
aI00
aI00
aI00
aI00
aI00
aa(lp1709
I234378
aF195.82600000000002
aF81.1322
ag1703
aS'utopia'
p1710
aS'#656565'
p1711
aF8.88595
aI0
aI00
aI00
aI01
aI01
aI00
aI00
aI00
aI00
aa(lp1712
I234378
aF317.113
aF81.1322
aVp2
p1713
aS'utopia'
p1714
aS'#656565'
p1715
aF8.88595
aI0
aI00
aI00
aI01
aI01
aI01
aI00
aI00
aI00
aa(lp1716
I234378
aF422.264
aF81.1322
aVp2
p1717
aS'utopia'
p1718
aS'#656565'
p1719
aF8.88595
aI0
aI00
aI00
aI01
aI01
aI00
aI00
aI00
aI00
aa(lp1720
I234378
aF428.928
aF81.1322
aVp2
p1721
aS'utopia'
p1722
aS'#656565'
p1723
aF8.88595
aI0
aI01
aI00
aI00
aI00
aI00
aI00
aI00
aI00
aa(lp1724
I148996
aF48.3134
aF99.6446
aVp2
p1725
aS'utopia'
p1726
aS'#656565'
p1727
aF8.88595
aI0
aI01
aI00
aI00
aI00
aI00
aI00
aI00
aI00
aa(lp1728
I234378
aF188.267
aF99.6446
aVp2
p1729
aS'utopia'
p1730
aS'#656565'
p1731
aF8.88595
aI0
aI00
aI00
aI01
aI01
aI00
aI00
aI00
aI00
aa(lp1732
I234378
aF317.113
aF99.6446
aVp2
p1733
aS'utopia'
p1734
aS'#656565'
p1735
aF8.88595
aI0
aI00
aI00
aI01
aI01
aI01
aI00
aI00
aI00
aa(lp1736
I234378
aF422.264
aF99.6446
aVp2
p1737
aS'utopia'
p1738
aS'#656565'
p1739
aF8.88595
aI0
aI00
aI00
aI01
aI01
aI00
aI00
aI00
aI00
aa(lp1740
I234378
aF428.928
aF99.6446
aVp2
p1741
aS'utopia'
p1742
aS'#656565'
p1743
aF8.88595
aI0
aI01
aI00
aI00
aI00
aI00
aI00
aI00
aI00
aa(lp1744
I234378
aF48.3134
aF118.157
aVp2
p1745
aS'utopia'
p1746
aS'#656565'
p1747
aF8.88595
aI0
aI01
aI00
aI00
aI00
aI00
aI00
aI00
aI00
aa(lp1748
I234378
aF188.267
aF118.157
aVp2
p1749
aS'utopia'
p1750
aS'#656565'
p1751
aF8.88595
aI0
aI00
aI00
aI01
aI01
aI00
aI00
aI00
aI00
aa(lp1752
I234378
aF317.113
aF118.157
aVp2
p1753
aS'utopia'
p1754
aS'#656565'
p1755
aF8.88595
aI0
aI00
aI00
aI01
aI01
aI01
aI00
aI00
aI00
aa(lp1756
I234378
aF422.264
aF118.157
aVp2
p1757
aS'utopia'
p1758
aS'#656565'
p1759
aF8.88595
aI0
aI00
aI00
aI01
aI01
aI00
aI00
aI00
aI00
aa(lp1760
I234378
aF428.928
aF118.157
aVp2
p1761
aS'utopia'
p1762
aS'#656565'
p1763
aF8.88595
aI0
aI01
aI00
aI00
aI00
aI00
aI00
aI00
aI00
aa(lp1764
I234378
aF48.3134
aF136.669
aVp2
p1765
aS'utopia'
p1766
aS'#656565'
p1767
aF8.88595
aI0
aI01
aI01
aI00
aI00
aI00
aI00
aI00
aI00
aa(lp1768
I234378
aF317.113
aF136.669
aVp2
p1769
aS'utopia'
p1770
aS'#656565'
p1771
aF8.88595
aI0
aI00
aI00
aI01
aI01
aI01
aI00
aI00
aI00
aa(lp1772
I234378
aF422.264
aF136.669
aVp2
p1773
aS'utopia'
p1774
aS'#656565'
p1775
aF8.88595
aI0
aI00
aI00
aI01
aI01
aI00
aI00
aI00
aI00
aa(lp1776
I234378
aF428.928
aF136.669
aVp2
p1777
aS'utopia'
p1778
aS'#656565'
p1779
aF8.88595
aI0
aI01
aI00
aI00
aI00
aI00
aI00
aI00
aI00
aa(lp1780
I132957
aF48.3134
aF155.182
aVp2
p1781
aS'utopia'
p1782
aS'#656565'
p1783
aF8.88595
aI0
aI01
aI00
aI00
aI00
aI00
aI00
aI00
aI00
aa(lp1784
I234378
aF69.0473
aF155.182
aVp2
p1785
aS'utopia'
p1786
aS'#656565'
p1787
aF8.88595
aI0
aI01
aI00
aI00
aI00
aI00
aI00
aI00
aI00
aa(lp1788
I234378
aF317.113
aF155.182
aVp2
p1789
aS'utopia'
p1790
aS'#656565'
p1791
aF8.88595
aI0
aI00
aI00
aI01
aI01
aI01
aI00
aI00
aI00
aa(lp1792
I234378
aF422.264
aF155.182
aVp2
p1793
aS'utopia'
p1794
aS'#656565'
p1795
aF8.88595
aI0
aI00
aI00
aI01
aI01
aI00
aI00
aI00
aI00
aa(lp1796
I234378
aF428.928
aF155.182
aVp2
p1797
aS'utopia'
p1798
aS'#656565'
p1799
aF8.88595
aI0
aI01
aI00
aI00
aI00
aI00
aI00
aI00
aI00
aa(lp1800
I176767
aF48.3134
aF173.694
aVp2
p1801
aS'utopia'
p1802
aS'#656565'
p1803
aF8.88595
aI0
aI01
aI00
aI00
aI00
aI00
aI00
aI00
aI00
aa(lp1804
I234378
aF188.267
aF173.694
aVp2
p1805
aS'utopia'
p1806
aS'#656565'
p1807
aF8.88595
aI0
aI00
aI00
aI01
aI01
aI00
aI00
aI00
aI00
aa(lp1808
I234378
aF317.113
aF173.694
aVp2
p1809
aS'utopia'
p1810
aS'#656565'
p1811
aF8.88595
aI0
aI00
aI00
aI01
aI01
aI01
aI00
aI00
aI00
aa(lp1812
I234378
aF422.264
aF173.694
aVp2
p1813
aS'utopia'
p1814
aS'#656565'
p1815
aF8.88595
aI0
aI00
aI00
aI01
aI01
aI00
aI00
aI00
aI00
aa(lp1816
I234378
aF428.928
aF173.694
aVp2
p1817
aS'utopia'
p1818
aS'#656565'
p1819
aF8.88595
aI0
aI01
aI00
aI00
aI00
aI00
aI00
aI00
aI00
aa(lp1820
I17350
aF48.3134
aF192.207
aVp2
p1821
aS'utopia'
p1822
aS'#656565'
p1823
aF8.88595
aI0
aI01
aI01
aI00
aI00
aI00
aI00
aI00
aI00
aa(lp1824
I234378
aF69.7878
aF192.207
aVp2
p1825
aS'utopia'
p1826
aS'#656565'
p1827
aF8.88595
aI0
aI01
aI01
aI00
aI00
aI00
aI00
aI00
aI00
aa(lp1828
I234378
aF317.113
aF192.207
aVp2
p1829
aS'utopia'
p1830
aS'#656565'
p1831
aF8.88595
aI0
aI00
aI00
aI01
aI01
aI01
aI00
aI00
aI00
aa(lp1832
I234378
aF422.264
aF192.207
aVp2
p1833
aS'utopia'
p1834
aS'#656565'
p1835
aF8.88595
aI0
aI00
aI00
aI01
aI01
aI00
aI00
aI00
aI00
aa(lp1836
I234378
aF428.928
aF192.207
aVp2
p1837
aS'utopia'
p1838
aS'#656565'
p1839
aF8.88595
aI0
aI01
aI00
aI00
aI00
aI00
aI00
aI00
aI00
aa(lp1840
I234378
aF48.3134
aF210.719
aVp2
p1841
aS'utopia'
p1842
aS'#656565'
p1843
aF8.88595
aI0
aI01
aI00
aI00
aI00
aI00
aI00
aI00
aI00
aa(lp1844
I234378
aF317.113
aF210.719
aVp2
p1845
aS'utopia'
p1846
aS'#656565'
p1847
aF8.88595
aI0
aI00
aI00
aI01
aI01
aI01
aI00
aI00
aI00
aa(lp1848
I234378
aF422.264
aF210.719
aVp2
p1849
aS'utopia'
p1850
aS'#656565'
p1851
aF8.88595
aI0
aI00
aI00
aI01
aI01
aI00
aI00
aI00
aI00
aa(lp1852
I234378
aF428.928
aF210.719
aVp2
p1853
aS'utopia'
p1854
aS'#656565'
p1855
aF8.88595
aI0
aI01
aI00
aI00
aI00
aI00
aI00
aI00
aI00
aa(lp1856
I195166
aF40.1679
aF261.09
aVp2
p1857
aS'utopia'
p1858
aS'#02304b'
p1859
aF11.8479
aI1
aI01
aI00
aI00
aI00
aI00
aI00
aI00
aI00
aa(lp1860
I136346
aF96.4456
aF261.09
aVp2
p1861
aS'utopia'
p1862
aS'#02304b'
p1863
aF11.8479
aI1
aI01
aI00
aI00
aI00
aI00
aI00
aI00
aI00
aa(lp1864
I201816
aF40.9084
aF289.211
aVp2
p1865
aS'utopia'
p1866
aS'#000000'
p1867
aF8.88595
aI0
aI01
aI00
aI00
aI00
aI00
aI00
aI00
aI00
aa(lp1868
I234378
aF54.9779
aF289.211
aVp2
p1869
aS'utopia'
p1870
aS'#000000'
p1871
aF8.88595
aI0
aI01
aI00
aI00
aI00
aI00
aI00
aI00
aI00
aa(lp1872
I47284
aF98.6671
aF289.211
aVp2
p1873
aS'utopia'
p1874
aS'#000000'
p1875
aF8.88595
aI0
aI01
aI00
aI00
aI00
aI00
aI00
aI00
aI00
aa(lp1876
I234378
aF40.1679
aF324.033
aVp2
p1877
aS'utopia'
p1878
aS'#02304b'
p1879
aF11.8479
aI1
aI01
aI00
aI00
aI00
aI00
aI00
aI00
aI00
aa(lp1880
I234378
aF40.9084
aF355.749
aVp2
p1881
aS'utopia'
p1882
aS'#000000'
p1883
aF10.3669
aI1
aI01
aI01
aI00
aI00
aI00
aI00
aI00
aI00
aa(lp1884
I164858
aF53.4969
aF355.749
aVp2
p1885
aS'utopia'
p1886
aS'#000000'
p1887
aF10.3669
aI1
aI01
aI00
aI00
aI00
aI00
aI00
aI00
aI00
aa(lp1888
I33301
aF84.5977
aF355.749
aVp2
p1889
aS'utopia'
p1890
aS'#000000'
p1891
aF10.3669
aI1
aI01
aI00
aI00
aI00
aI00
aI00
aI00
aI00
aa(lp1892
I25230
aF125.325
aF355.749
aVp2
p1893
aS'utopia'
p1894
aS'#000000'
p1895
aF10.3669
aI1
aI01
aI00
aI00
aI00
aI00
aI00
aI00
aI00
aa(lp1896
I234378
aF40.9084
aF372.31
aVp2
p1897
aS'utopia'
p1898
aS'#656565'
p1899
aF10.3669
aI0
aI01
aI00
aI00
aI00
aI00
aI00
aI00
aI00
aa(lp1900
I234378
aF74.9712
aF372.31
aVp2
p1901
aS'utopia'
p1902
aS'#656565'
p1903
aF10.3669
aI0
aI01
aI00
aI00
aI00
aI00
aI00
aI00
aI00
aa(lp1904
I60201
aF111.996
aF372.31
aVp2
p1905
aS'utopia'
p1906
aS'#656565'
p1907
aF10.3669
aI0
aI01
aI00
aI00
aI00
aI00
aI00
aI00
aI00
aa(lp1908
I230071
aF131.989
aF372.31
aVp2
p1909
aS'utopia'
p1910
aS'#656565'
p1911
aF10.3669
aI0
aI01
aI00
aI00
aI00
aI00
aI00
aI00
aI00
aa(lp1912
I131049
aF163.09
aF372.31
aVp2
p1913
aS'utopia'
p1914
aS'#656565'
p1915
aF10.3669
aI0
aI00
aI00
aI00
aI00
aI00
aI00
aI00
aI00
aa(lp1916
I234378
aF187.527
aF372.31
aVp2
p1917
aS'utopia'
p1918
aS'#656565'
p1919
aF10.3669
aI0
aI01
aI00
aI00
aI00
aI00
aI00
aI00
aI01
aa(lp1920
I234378
aF207.52
aF372.31
aVp2
p1921
aS'utopia'
p1922
aS'#656565'
p1923
aF10.3669
aI0
aI00
aI00
aI01
aI01
aI01
aI00
aI00
aI00
aa(lp1924
I89480
aF230.475
aF372.31
aVp2
p1925
aS'utopia'
p1926
aS'#656565'
p1927
aF10.3669
aI0
aI00
aI00
aI00
aI00
aI00
aI00
aI00
aI00
aa(lp1928
I27216
aF242.323
aF372.31
aVp2
p1929
aS'utopia'
p1930
aS'#656565'
p1931
aF10.3669
aI0
aI01
aI00
aI00
aI00
aI00
aI00
aI00
aI01
aa(lp1932
I234378
aF260.836
aF372.31
aVp2
p1933
aS'utopia'
p1934
aS'#656565'
p1935
aF10.3669
aI0
aI00
aI00
aI01
aI01
aI01
aI00
aI00
aI00
aa(lp1936
I234378
aF40.9084
aF388.601
aVp2
p1937
aS'utopia'
p1938
aS'#656565'
p1939
aF10.3669
aI0
aI01
aI00
aI00
aI00
aI00
aI00
aI00
aI00
aa(lp1940
I109610
aF40.9084
aF404.729
aVp2
p1941
aS'utopia'
p1942
aS'#656565'
p1943
aF8.88595
aI0
aI01
aI00
aI00
aI00
aI00
aI00
aI00
aI00
aa(lp1944
I25729
aF58.6803
aF404.729
aVp2
p1945
aS'utopia'
p1946
aS'#656565'
p1947
aF8.88595
aI0
aI01
aI00
aI00
aI00
aI00
aI00
aI00
aI00
aa(lp1948
I234378
aF76.54462000000001
aF404.729
ag1945
aS'utopia'
p1949
aS'#656565'
p1950
aF8.88595
aI0
aI00
aI00
aI00
aI00
aI00
aI00
aI00
aI00
aa(lp1951
I84662
aF85.3382
aF404.729
aVp2
p1952
aS'utopia'
p1953
aS'#656565'
p1954
aF8.88595
aI0
aI01
aI00
aI00
aI00
aI00
aI00
aI00
aI00
aa(lp1955
I21716
aF106.813
aF404.729
aVp2
p1956
aS'utopia'
p1957
aS'#656565'
p1958
aF8.88595
aI0
aI01
aI00
aI00
aI00
aI00
aI00
aI00
aI00
aa(lp1959
I234378
aF121.71532
aF404.729
ag1956
aS'utopia'
p1960
aS'#656565'
p1961
aF8.88595
aI0
aI00
aI00
aI00
aI00
aI00
aI00
aI00
aI00
aa(lp1962
I89217
aF127.546
aF404.729
aVp2
p1963
aS'utopia'
p1964
aS'#656565'
p1965
aF8.88595
aI0
aI01
aI01
aI00
aI00
aI00
aI00
aI00
aI00
aa(lp1966
I17350
aF150.502
aF404.729
aVp2
p1967
aS'utopia'
p1968
aS'#656565'
p1969
aF8.88595
aI0
aI01
aI00
aI00
aI00
aI00
aI00
aI00
aI00
aa(lp1970
I119502
aF170.495
aF404.729
aVp2
p1971
aS'utopia'
p1972
aS'#656565'
p1973
aF8.88595
aI0
aI01
aI00
aI00
aI00
aI00
aI00
aI00
aI00
aa(lp1974
I234378
aF197.161325
aF404.729
ag1971
aS'utopia'
p1975
aS'#656565'
p1976
aF8.88595
aI0
aI00
aI00
aI00
aI00
aI00
aI00
aI00
aI00
aa(lp1977
I234378
aF203.077
aF404.729
aVp2
p1978
aS'utopia'
p1979
aS'#656565'
p1980
aF8.88595
aI0
aI01
aI00
aI00
aI00
aI00
aI00
aI00
aI00
aa(lp1981
I234378
aF239.83552
aF404.729
ag1978
aS'utopia'
p1982
aS'#656565'
p1983
aF8.88595
aI0
aI00
aI00
aI00
aI00
aI00
aI00
aI00
aI00
aa(lp1984
I148996
aF246.026
aF404.729
aVp2
p1985
aS'utopia'
p1986
aS'#656565'
p1987
aF8.88595
aI0
aI01
aI00
aI00
aI00
aI00
aI00
aI00
aI00
aa(lp1988
I234378
aF273.424
aF404.729
aVp2
p1989
aS'utopia'
p1990
aS'#656565'
p1991
aF8.88595
aI0
aI01
aI00
aI00
aI00
aI00
aI00
aI00
aI00
aa(lp1992
I234378
aF287.95029999999997
aF404.729
ag1989
aS'utopia'
p1993
aS'#656565'
p1994
aF8.88595
aI0
aI00
aI00
aI00
aI00
aI00
aI00
aI00
aI00
aa(lp1995
I234378
aF294.899
aF404.729
aVp2
p1996
aS'utopia'
p1997
aS'#656565'
p1998
aF8.88595
aI0
aI01
aI00
aI00
aI00
aI00
aI00
aI00
aI00
aa(lp1999
I234378
aF336.74109090909093
aF404.729
ag1996
aS'utopia'
p2000
aS'#656565'
p2001
aF8.88595
aI0
aI00
aI00
aI00
aI00
aI00
aI00
aI00
aI00
aa(lp2002
I132957
aF343.031
aF404.729
aVp2
p2003
aS'utopia'
p2004
aS'#656565'
p2005
aF8.88595
aI0
aI01
aI00
aI00
aI00
aI00
aI00
aI00
aI00
aa(lp2006
I234378
aF363.765
aF404.729
aVp2
p2007
aS'utopia'
p2008
aS'#656565'
p2009
aF8.88595
aI0
aI01
aI00
aI00
aI00
aI00
aI00
aI00
aI00
aa(lp2010
I234378
aF402.91436363636365
aF404.729
ag2007
aS'utopia'
p2011
aS'#656565'
p2012
aF8.88595
aI0
aI00
aI00
aI00
aI00
aI00
aI00
aI00
aI00
aa(lp2013
I234378
aF408.935
aF404.729
aVp2
p2014
aS'utopia'
p2015
aS'#656565'
p2016
aF8.88595
aI0
aI01
aI01
aI00
aI00
aI00
aI00
aI00
aI00
aa(lp2017
I234378
aF429.16892
aF404.729
ag2014
aS'utopia'
p2018
aS'#656565'
p2019
aF8.88595
aI0
aI00
aI00
aI00
aI00
aI00
aI00
aI00
aI00
aa(lp2020
I210461
aF40.9084
aF418.798
aVp2
p2021
aS'utopia'
p2022
aS'#656565'
p2023
aF8.88595
aI0
aI01
aI00
aI00
aI00
aI00
aI00
aI00
aI00
aa(lp2024
I340
aF65.3448
aF418.798
aVp2
p2025
aS'utopia'
p2026
aS'#656565'
p2027
aF8.88595
aI0
aI01
aI00
aI00
aI00
aI00
aI00
aI00
aI00
aa(lp2028
I234378
aF79.65472000000001
aF418.798
ag2025
aS'utopia'
p2029
aS'#656565'
p2030
aF8.88595
aI0
aI00
aI00
aI00
aI00
aI00
aI00
aI00
aI00
aa(lp2031
I234378
aF87.5597
aF418.798
aVp2
p2032
aS'utopia'
p2033
aS'#656565'
p2034
aF8.88595
aI0
aI00
aI00
aI01
aI01
aI01
aI00
aI00
aI00
aa(lp2035
I176435
aF40.9084
aF432.868
aVp2
p2036
aS'utopia'
p2037
aS'#656565'
p2038
aF8.88595
aI0
aI01
aI00
aI00
aI00
aI00
aI00
aI00
aI00
aa(lp2039
I234378
aF60.9018
aF432.868
aVp2
p2040
aS'utopia'
p2041
aS'#656565'
p2042
aF8.88595
aI0
aI00
aI00
aI00
aI00
aI00
aI00
aI00
aI00
aa(lp2043
I176435
aF40.9084
aF446.937
aVp2
p2044
aS'utopia'
p2045
aS'#656565'
p2046
aF8.88595
aI0
aI01
aI00
aI00
aI00
aI00
aI00
aI00
aI00
aa(lp2047
I66756
aF60.9018
aF446.937
aVp2
p2048
aS'utopia'
p2049
aS'#656565'
p2050
aF8.88595
aI0
aI01
aI00
aI00
aI00
aI00
aI00
aI00
aI00
aa(lp2051
I234378
aF105.12885833333334
aF446.937
ag2048
aS'utopia'
p2052
aS'#656565'
p2053
aF8.88595
aI0
aI00
aI00
aI00
aI00
aI00
aI00
aI00
aI00
aa(lp2054
I144690
aF113.477
aF446.937
aVp2
p2055
aS'utopia'
p2056
aS'#656565'
p2057
aF8.88595
aI0
aI01
aI00
aI00
aI00
aI00
aI00
aI00
aI00
aa(lp2058
I85218
aF142.356
aF446.937
aVp2
p2059
aS'utopia'
p2060
aS'#656565'
p2061
aF8.88595
aI0
aI00
aI00
aI00
aI00
aI00
aI00
aI00
aI00
aa(lp2062
I100815
aF159.388
aF446.937
aVp2
p2063
aS'utopia'
p2064
aS'#656565'
p2065
aF8.88595
aI0
aI01
aI00
aI00
aI00
aI00
aI00
aI00
aI00
aa(lp2066
I177958
aF40.9084
aF461.007
aVp2
p2067
aS'utopia'
p2068
aS'#656565'
p2069
aF8.88595
aI0
aI01
aI00
aI00
aI00
aI00
aI00
aI00
aI00
aa(lp2070
I234378
aF71.2688
aF461.007
aVp2
p2071
aS'utopia'
p2072
aS'#656565'
p2073
aF8.88595
aI0
aI01
aI00
aI00
aI00
aI00
aI00
aI00
aI00
aa(lp2074
I234378
aF96.6393375
aF461.007
ag2071
aS'utopia'
p2075
aS'#656565'
p2076
aF8.88595
aI0
aI00
aI00
aI00
aI00
aI00
aI00
aI00
aI00
aa(lp2077
I234378
aF104.591
aF461.007
aVp2
p2078
aS'utopia'
p2079
aS'#656565'
p2080
aF8.88595
aI0
aI00
aI00
aI00
aI00
aI00
aI00
aI00
aI00
aa(lp2081
I173426
aF110.515
aF461.007
aVp2
p2082
aS'utopia'
p2083
aS'#656565'
p2084
aF8.88595
aI0
aI01
aI00
aI00
aI00
aI00
aI00
aI00
aI00
aa(lp2085
I194354
aF149.021
aF461.007
aVp2
p2086
aS'utopia'
p2087
aS'#656565'
p2088
aF8.88595
aI0
aI00
aI00
aI00
aI00
aI00
aI00
aI00
aI00
aa(lp2089
I134213
aF163.831
aF461.007
aVp2
p2090
aS'utopia'
p2091
aS'#656565'
p2092
aF8.88595
aI0
aI00
aI00
aI00
aI00
aI00
aI00
aI00
aI00
aa(lp2093
I144489
aF204.558
aF461.007
aVp2
p2094
aS'utopia'
p2095
aS'#656565'
p2096
aF8.88595
aI0
aI00
aI00
aI00
aI00
aI00
aI00
aI00
aI00
aa(lp2097
I12248
aF214.925
aF461.007
aVp2
p2098
aS'utopia'
p2099
aS'#656565'
p2100
aF8.88595
aI0
aI00
aI00
aI00
aI00
aI00
aI00
aI00
aI00
aa(lp2101
I234378
aF241.583
aF461.007
aVp2
p2102
aS'utopia'
p2103
aS'#656565'
p2104
aF8.88595
aI0
aI01
aI00
aI00
aI00
aI00
aI00
aI00
aI00
aa(lp2105
I43275
aF270.462
aF461.007
aVp2
p2106
aS'utopia'
p2107
aS'#656565'
p2108
aF8.88595
aI0
aI00
aI00
aI00
aI00
aI00
aI00
aI00
aI00
aa(lp2109
I89480
aF303.044
aF461.007
aVp2
p2110
aS'utopia'
p2111
aS'#656565'
p2112
aF8.88595
aI0
aI00
aI00
aI00
aI00
aI00
aI00
aI00
aI00
aa(lp2113
I17350
aF313.411
aF461.007
aVp2
p2114
aS'utopia'
p2115
aS'#656565'
p2116
aF8.88595
aI0
aI00
aI00
aI00
aI00
aI00
aI00
aI00
aI00
aa(lp2117
I35885
aF331.923
aF461.007
aVp2
p2118
aS'utopia'
p2119
aS'#656565'
p2120
aF8.88595
aI0
aI00
aI00
aI00
aI00
aI00
aI00
aI00
aI00
aa(lp2121
I14859
aF357.1
aF461.007
aVp2
p2122
aS'utopia'
p2123
aS'#656565'
p2124
aF8.88595
aI0
aI00
aI00
aI00
aI00
aI00
aI00
aI00
aI00
aa(lp2125
I234378
aF387.48071111111113
aF461.007
ag2122
aS'utopia'
p2126
aS'#656565'
p2127
aF8.88595
aI0
aI00
aI00
aI00
aI00
aI00
aI00
aI00
aI00
aa(lp2128
I234378
aF393.384
aF461.007
aVp2
p2129
aS'utopia'
p2130
aS'#656565'
p2131
aF8.88595
aI0
aI00
aI00
aI00
aI00
aI00
aI00
aI00
aI00
aa(lp2132
I234378
aF399.308
aF461.007
aVp2
p2133
aS'utopia'
p2134
aS'#656565'
p2135
aF8.88595
aI0
aI01
aI00
aI00
aI00
aI00
aI00
aI00
aI00
aa(lp2136
I194354
aF442.257
aF461.007
aVp2
p2137
aS'utopia'
p2138
aS'#656565'
p2139
aF8.88595
aI0
aI00
aI00
aI00
aI00
aI00
aI00
aI00
aI00
aa(lp2140
I207511
aF457.067
aF461.007
aVp2
p2141
aS'utopia'
p2142
aS'#656565'
p2143
aF8.88595
aI0
aI00
aI00
aI00
aI00
aI00
aI00
aI00
aI00
aa(lp2144
I144489
aF496.313
aF461.007
aVp2
p2145
aS'utopia'
p2146
aS'#656565'
p2147
aF8.88595
aI0
aI00
aI00
aI00
aI00
aI00
aI00
aI00
aI00
aa(lp2148
I111798
aF40.9084
aF471.373
aVp2
p2149
aS'utopia'
p2150
aS'#656565'
p2151
aF8.88595
aI0
aI00
aI00
aI00
aI00
aI00
aI00
aI00
aI00
aa(lp2152
I194354
aF100.148
aF471.373
aVp2
p2153
aS'utopia'
p2154
aS'#656565'
p2155
aF8.88595
aI0
aI00
aI00
aI00
aI00
aI00
aI00
aI00
aI00
aa(lp2156
I201345
aF114.958
aF471.373
aVp2
p2157
aS'utopia'
p2158
aS'#656565'
p2159
aF8.88595
aI0
aI00
aI00
aI00
aI00
aI00
aI00
aI00
aI00
aa(lp2160
I144489
aF134.211
aF471.373
aVp2
p2161
aS'utopia'
p2162
aS'#656565'
p2163
aF8.88595
aI0
aI00
aI00
aI00
aI00
aI00
aI00
aI00
aI00
aa(lp2164
I12248
aF144.578
aF471.373
aVp2
p2165
aS'utopia'
p2166
aS'#656565'
p2167
aF8.88595
aI0
aI00
aI00
aI00
aI00
aI00
aI00
aI00
aI00
aa(lp2168
I207716
aF171.236
aF471.373
aVp2
p2169
aS'utopia'
p2170
aS'#656565'
p2171
aF8.88595
aI0
aI00
aI00
aI00
aI00
aI00
aI00
aI00
aI00
aa(lp2172
I85218
aF200.856
aF471.373
aVp2
p2173
aS'utopia'
p2174
aS'#656565'
p2175
aF8.88595
aI0
aI00
aI00
aI00
aI00
aI00
aI00
aI00
aI00
aa(lp2176
I85582
aF217.887
aF471.373
aVp2
p2177
aS'utopia'
p2178
aS'#656565'
p2179
aF8.88595
aI0
aI00
aI00
aI00
aI00
aI00
aI00
aI00
aI00
aa(lp2180
I215246
aF255.652
aF471.373
aVp2
p2181
aS'utopia'
p2182
aS'#656565'
p2183
aF8.88595
aI0
aI00
aI00
aI00
aI00
aI00
aI00
aI00
aI00
aa(lp2184
I17350
aF296.379
aF471.373
aVp2
p2185
aS'utopia'
p2186
aS'#656565'
p2187
aF8.88595
aI0
aI00
aI00
aI00
aI00
aI00
aI00
aI00
aI00
aa(lp2188
I35885
aF314.892
aF471.373
aVp2
p2189
aS'utopia'
p2190
aS'#656565'
p2191
aF8.88595
aI0
aI00
aI00
aI00
aI00
aI00
aI00
aI00
aI00
aa(lp2192
I14859
aF340.069
aF471.373
aVp2
p2193
aS'utopia'
p2194
aS'#656565'
p2195
aF8.88595
aI0
aI00
aI00
aI00
aI00
aI00
aI00
aI00
aI00
aa(lp2196
I234378
aF374.132
aF471.373
aVp2
p2197
aS'utopia'
p2198
aS'#656565'
p2199
aF8.88595
aI0
aI00
aI00
aI00
aI00
aI00
aI00
aI00
aI00
aa(lp2200
I24011
aF397.087
aF471.373
aVp2
p2201
aS'utopia'
p2202
aS'#656565'
p2203
aF8.88595
aI0
aI00
aI00
aI00
aI00
aI00
aI00
aI00
aI00
aa(lp2204
I234378
aF440.776
aF471.373
aVp2
p2205
aS'utopia'
p2206
aS'#656565'
p2207
aF8.88595
aI0
aI01
aI01
aI00
aI00
aI00
aI00
aI00
aI00
aa(lp2208
I234378
aF448.75166666666667
aF471.373
ag2205
aS'utopia'
p2209
aS'#656565'
p2210
aF8.88595
aI0
aI00
aI00
aI00
aI00
aI00
aI00
aI00
aI00
aa(lp2211
I234378
aF454.846
aF471.373
aVp2
p2212
aS'utopia'
p2213
aS'#656565'
p2214
aF8.88595
aI0
aI00
aI00
aI00
aI00
aI00
aI00
aI00
aI00
aa(lp2215
I173426
aF460.77
aF471.373
aVp2
p2216
aS'utopia'
p2217
aS'#656565'
p2218
aF8.88595
aI0
aI01
aI00
aI00
aI00
aI00
aI00
aI00
aI00
aa(lp2219
I194354
aF499.275
aF471.373
aVp2
p2220
aS'utopia'
p2221
aS'#656565'
p2222
aF8.88595
aI0
aI00
aI00
aI00
aI00
aI00
aI00
aI00
aI00
aa(lp2223
I207716
aF514.085
aF471.373
aVp2
p2224
aS'utopia'
p2225
aS'#656565'
p2226
aF8.88595
aI0
aI00
aI00
aI00
aI00
aI00
aI00
aI00
aI00
aa(lp2227
I154254
aF40.9084
aF481.74
aVp2
p2228
aS'utopia'
p2229
aS'#656565'
p2230
aF8.88595
aI0
aI00
aI00
aI00
aI00
aI00
aI00
aI00
aI00
aa(lp2231
I85218
aF91.2621
aF481.74
aVp2
p2232
aS'utopia'
p2233
aS'#656565'
p2234
aF8.88595
aI0
aI00
aI00
aI00
aI00
aI00
aI00
aI00
aI00
aa(lp2235
I144509
aF108.294
aF481.74
aVp2
p2236
aS'utopia'
p2237
aS'#656565'
p2238
aF8.88595
aI0
aI00
aI00
aI00
aI00
aI00
aI00
aI00
aI00
aa(lp2239
I234378
aF173.457
aF481.74
aVp2
p2240
aS'utopia'
p2241
aS'#656565'
p2242
aF8.88595
aI0
aI00
aI00
aI00
aI00
aI00
aI00
aI00
aI00
aa(lp2243
I92710
aF213.444
aF481.74
aVp2
p2244
aS'utopia'
p2245
aS'#656565'
p2246
aF8.88595
aI0
aI00
aI00
aI00
aI00
aI00
aI00
aI00
aI00
aa(lp2247
I196036
aF248.988
aF481.74
aVp2
p2248
aS'utopia'
p2249
aS'#656565'
p2250
aF8.88595
aI0
aI00
aI00
aI00
aI00
aI00
aI00
aI00
aI00
aa(lp2251
I43275
aF269.722
aF481.74
aVp2
p2252
aS'utopia'
p2253
aS'#656565'
p2254
aF8.88595
aI0
aI00
aI00
aI00
aI00
aI00
aI00
aI00
aI00
aa(lp2255
I190806
aF302.303
aF481.74
aVp2
p2256
aS'utopia'
p2257
aS'#656565'
p2258
aF8.88595
aI0
aI00
aI00
aI00
aI00
aI00
aI00
aI00
aI00
aa(lp2259
I17350
aF316.373
aF481.74
aVp2
p2260
aS'utopia'
p2261
aS'#656565'
p2262
aF8.88595
aI0
aI00
aI00
aI00
aI00
aI00
aI00
aI00
aI00
aa(lp2263
I35885
aF334.885
aF481.74
aVp2
p2264
aS'utopia'
p2265
aS'#656565'
p2266
aF8.88595
aI0
aI00
aI00
aI00
aI00
aI00
aI00
aI00
aI00
aa(lp2267
I14859
aF360.062
aF481.74
aVp2
p2268
aS'utopia'
p2269
aS'#656565'
p2270
aF8.88595
aI0
aI00
aI00
aI00
aI00
aI00
aI00
aI00
aI00
aa(lp2271
I234378
aF390.4427111111111
aF481.74
ag2268
aS'utopia'
p2272
aS'#656565'
p2273
aF8.88595
aI0
aI00
aI00
aI00
aI00
aI00
aI00
aI00
aI00
aa(lp2274
I234378
aF396.346
aF481.74
aVp2
p2275
aS'utopia'
p2276
aS'#656565'
p2277
aF8.88595
aI0
aI00
aI00
aI00
aI00
aI00
aI00
aI00
aI00
aa(lp2278
I234378
aF402.27
aF481.74
aVp2
p2279
aS'utopia'
p2280
aS'#656565'
p2281
aF8.88595
aI0
aI01
aI00
aI00
aI00
aI00
aI00
aI00
aI00
aa(lp2282
I234378
aF446.7
aF481.74
aVp2
p2283
aS'utopia'
p2284
aS'#656565'
p2285
aF8.88595
aI0
aI01
aI00
aI00
aI00
aI00
aI00
aI00
aI00
aa(lp2286
I115769
aF491.13
aF481.74
aVp2
p2287
aS'utopia'
p2288
aS'#656565'
p2289
aF8.88595
aI0
aI00
aI00
aI00
aI00
aI00
aI00
aI00
aI00
aa(lp2290
I190806
aF537.041
aF481.74
aVp2
p2291
aS'utopia'
p2292
aS'#656565'
p2293
aF8.88595
aI0
aI00
aI00
aI00
aI00
aI00
aI00
aI00
aI00
aa(lp2294
I16854
aF40.9084
aF492.107
aVp2
p2295
aS'utopia'
p2296
aS'#656565'
p2297
aF8.88595
aI0
aI00
aI00
aI00
aI00
aI00
aI00
aI00
aI00
aa(lp2298
I132957
aF68.3068
aF492.107
aVp2
p2299
aS'utopia'
p2300
aS'#656565'
p2301
aF8.88595
aI0
aI00
aI00
aI00
aI00
aI00
aI00
aI00
aI00
aa(lp2302
I234378
aF87.5597
aF492.107
aVp2
p2303
aS'utopia'
p2304
aS'#656565'
p2305
aF8.88595
aI0
aI00
aI00
aI00
aI00
aI00
aI00
aI00
aI00
aa(lp2306
I85218
aF129.027
aF492.107
aVp2
p2307
aS'utopia'
p2308
aS'#656565'
p2309
aF8.88595
aI0
aI00
aI00
aI00
aI00
aI00
aI00
aI00
aI00
aa(lp2310
I44367
aF146.059
aF492.107
aVp2
p2311
aS'utopia'
p2312
aS'#656565'
p2313
aF8.88595
aI0
aI00
aI00
aI00
aI00
aI00
aI00
aI00
aI00
aa(lp2314
I89480
aF165.312
aF492.107
aVp2
p2315
aS'utopia'
p2316
aS'#656565'
p2317
aF8.88595
aI0
aI00
aI00
aI00
aI00
aI00
aI00
aI00
aI00
aa(lp2318
I203832
aF175.679
aF492.107
aVp2
p2319
aS'utopia'
p2320
aS'#656565'
p2321
aF8.88595
aI0
aI00
aI00
aI00
aI00
aI00
aI00
aI00
aI00
aa(lp2322
I234378
aF191.229
aF492.107
aVp2
p2323
aS'utopia'
p2324
aS'#656565'
p2325
aF8.88595
aI0
aI01
aI01
aI00
aI00
aI00
aI00
aI00
aI00
aa(lp2326
I234378
aF205.199925
aF492.107
ag2323
aS'utopia'
p2327
aS'#656565'
p2328
aF8.88595
aI0
aI00
aI00
aI00
aI00
aI00
aI00
aI00
aI00
aa(lp2329
I234378
aF211.963
aF492.107
aVp2
p2330
aS'utopia'
p2331
aS'#656565'
p2332
aF8.88595
aI0
aI00
aI00
aI00
aI00
aI00
aI00
aI00
aI00
aa(lp2333
I234378
aF217.887
aF492.107
aVp2
p2334
aS'utopia'
p2335
aS'#656565'
p2336
aF8.88595
aI0
aI01
aI00
aI00
aI00
aI00
aI00
aI00
aI00
aa(lp2337
I234378
aF262.317
aF492.107
aVp2
p2338
aS'utopia'
p2339
aS'#656565'
p2340
aF8.88595
aI0
aI00
aI00
aI00
aI00
aI00
aI00
aI00
aI00
aa(lp2341
I89480
aF300.082
aF492.107
aVp2
p2342
aS'utopia'
p2343
aS'#656565'
p2344
aF8.88595
aI0
aI00
aI00
aI00
aI00
aI00
aI00
aI00
aI00
aa(lp2345
I221173
aF310.449
aF492.107
aVp2
p2346
aS'utopia'
p2347
aS'#656565'
p2348
aF8.88595
aI0
aI00
aI00
aI00
aI00
aI00
aI00
aI00
aI00
aa(lp2349
I184171
aF351.917
aF492.107
aVp2
p2350
aS'utopia'
p2351
aS'#656565'
p2352
aF8.88595
aI0
aI00
aI00
aI00
aI00
aI00
aI00
aI00
aI00
aa(lp2353
I85218
aF405.973
aF492.107
aVp2
p2354
aS'utopia'
p2355
aS'#656565'
p2356
aF8.88595
aI0
aI00
aI00
aI00
aI00
aI00
aI00
aI00
aI00
aa(lp2357
I234378
aF423.004
aF492.107
aVp2
p2358
aS'utopia'
p2359
aS'#656565'
p2360
aF8.88595
aI0
aI00
aI00
aI00
aI00
aI00
aI00
aI00
aI00
aa(lp2361
I144489
aF463.732
aF492.107
aVp2
p2362
aS'utopia'
p2363
aS'#656565'
p2364
aF8.88595
aI0
aI00
aI00
aI00
aI00
aI00
aI00
aI00
aI00
aa(lp2365
I70370
aF474.099
aF492.107
aVp2
p2366
aS'utopia'
p2367
aS'#656565'
p2368
aF8.88595
aI0
aI00
aI00
aI00
aI00
aI00
aI00
aI00
aI00
aa(lp2369
I234378
aF502.978
aF492.107
aVp2
p2370
aS'utopia'
p2371
aS'#656565'
p2372
aF8.88595
aI0
aI00
aI00
aI00
aI00
aI00
aI00
aI00
aI00
aa(lp2373
I234378
aF532.236075
aF492.107
ag2370
aS'utopia'
p2374
aS'#656565'
p2375
aF8.88595
aI0
aI00
aI00
aI00
aI00
aI00
aI00
aI00
aI00
aa(lp2376
I234378
aF538.522
aF492.107
aVp2
p2377
aS'utopia'
p2378
aS'#656565'
p2379
aF8.88595
aI0
aI00
aI00
aI00
aI00
aI00
aI00
aI00
aI00
aa(lp2380
I89480
aF40.9084
aF502.474
aVp2
p2381
aS'utopia'
p2382
aS'#656565'
p2383
aF8.88595
aI0
aI01
aI00
aI00
aI00
aI00
aI00
aI00
aI00
aa(lp2384
I187196
aF53.4969
aF502.474
aVp2
p2385
aS'utopia'
p2386
aS'#656565'
p2387
aF8.88595
aI0
aI00
aI00
aI00
aI00
aI00
aI00
aI00
aI00
aa(lp2388
I110092
aF82.3762
aF502.474
aVp2
p2389
aS'utopia'
p2390
aS'#656565'
p2391
aF8.88595
aI0
aI00
aI00
aI00
aI00
aI00
aI00
aI00
aI00
aa(lp2392
I37936
aF108.294
aF502.474
aVp2
p2393
aS'utopia'
p2394
aS'#656565'
p2395
aF8.88595
aI0
aI00
aI00
aI00
aI00
aI00
aI00
aI00
aI00
aa(lp2396
I147316
aF142.356
aF502.474
aVp2
p2397
aS'utopia'
p2398
aS'#656565'
p2399
aF8.88595
aI0
aI00
aI00
aI00
aI00
aI00
aI00
aI00
aI00
aa(lp2400
I234378
aF171.61407499999999
aF502.474
ag2397
aS'utopia'
p2401
aS'#656565'
p2402
aF8.88595
aI0
aI00
aI00
aI00
aI00
aI00
aI00
aI00
aI00
aa(lp2403
I130524
aF177.9
aF502.474
aVp2
p2404
aS'utopia'
p2405
aS'#656565'
p2406
aF8.88595
aI0
aI00
aI00
aI00
aI00
aI00
aI00
aI00
aI00
aa(lp2407
I36088
aF203.077
aF502.474
aVp2
p2408
aS'utopia'
p2409
aS'#656565'
p2410
aF8.88595
aI0
aI00
aI00
aI00
aI00
aI00
aI00
aI00
aI00
aa(lp2411
I73051
aF220.29998666666665
aF502.474
ag2408
aS'utopia'
p2412
aS'#656565'
p2413
aF8.88595
aI0
aI00
aI00
aI00
aI00
aI00
aI00
aI00
aI00
aa(lp2414
I234378
aF256.80170666666663
aF502.474
ag2408
aS'utopia'
p2415
aS'#656565'
p2416
aF8.88595
aI0
aI00
aI00
aI00
aI00
aI00
aI00
aI00
aI00
aa(lp2417
I234378
aF266.019
aF502.474
aVp2
p2418
aS'utopia'
p2419
aS'#656565'
p2420
aF8.88595
aI0
aI00
aI00
aI00
aI00
aI00
aI00
aI00
aI00
aa(lp2421
I234378
aF304.11042
aF502.474
ag2418
aS'utopia'
p2422
aS'#656565'
p2423
aF8.88595
aI0
aI00
aI00
aI00
aI00
aI00
aI00
aI00
aI00
aa(lp2424
I85218
aF310.449
aF502.474
aVp2
p2425
aS'utopia'
p2426
aS'#656565'
p2427
aF8.88595
aI0
aI00
aI00
aI00
aI00
aI00
aI00
aI00
aI00
aa(lp2428
I234378
aF327.48
aF502.474
aVp2
p2429
aS'utopia'
p2430
aS'#656565'
p2431
aF8.88595
aI0
aI00
aI00
aI00
aI00
aI00
aI00
aI00
aI00
aa(lp2432
I185339
aF380.056
aF502.474
aVp2
p2433
aS'utopia'
p2434
aS'#656565'
p2435
aF8.88595
aI0
aI00
aI00
aI00
aI00
aI00
aI00
aI00
aI00
aa(lp2436
I221291
aF408.935
aF502.474
aVp2
p2437
aS'utopia'
p2438
aS'#656565'
p2439
aF8.88595
aI0
aI00
aI00
aI00
aI00
aI00
aI00
aI00
aI00
aa(lp2440
I234378
aF426.20692
aF502.474
ag2437
aS'utopia'
p2441
aS'#656565'
p2442
aF8.88595
aI0
aI00
aI00
aI00
aI00
aI00
aI00
aI00
aI00
aa(lp2443
I234378
aF432.631
aF502.474
aVp2
p2444
aS'utopia'
p2445
aS'#656565'
p2446
aF8.88595
aI0
aI00
aI00
aI00
aI00
aI00
aI00
aI00
aI00
aa(lp2447
I89480
aF438.555
aF502.474
aVp2
p2448
aS'utopia'
p2449
aS'#656565'
p2450
aF8.88595
aI0
aI01
aI00
aI00
aI00
aI00
aI00
aI00
aI00
aa(lp2451
I2396
aF451.143
aF502.474
aVp2
p2452
aS'utopia'
p2453
aS'#656565'
p2454
aF8.88595
aI0
aI00
aI00
aI00
aI00
aI00
aI00
aI00
aI00
aa(lp2455
I15429
aF476.32
aF502.474
aVp2
p2456
aS'utopia'
p2457
aS'#656565'
p2458
aF8.88595
aI0
aI00
aI00
aI00
aI00
aI00
aI00
aI00
aI00
aa(lp2459
I68032
aF488.908
aF502.474
aVp2
p2460
aS'utopia'
p2461
aS'#656565'
p2462
aF8.88595
aI0
aI00
aI00
aI00
aI00
aI00
aI00
aI00
aI00
aa(lp2463
I234378
aF538.5653916666666
aF502.474
ag2460
aS'utopia'
p2464
aS'#656565'
p2465
aF8.88595
aI0
aI00
aI00
aI00
aI00
aI00
aI00
aI00
aI00
aa(lp2466
I68771
aF40.9084
aF512.841
aVp2
p2467
aS'utopia'
p2468
aS'#656565'
p2469
aF8.88595
aI0
aI00
aI00
aI00
aI00
aI00
aI00
aI00
aI00
aa(lp2470
I234378
aF77.9332
aF512.841
aVp2
p2471
aS'utopia'
p2472
aS'#656565'
p2473
aF8.88595
aI0
aI00
aI00
aI00
aI00
aI00
aI00
aI00
aI00
aa(lp2474
I169745
aF129.768
aF512.841
aVp2
p2475
aS'utopia'
p2476
aS'#656565'
p2477
aF8.88595
aI0
aI00
aI00
aI00
aI00
aI00
aI00
aI00
aI00
aa(lp2478
I177271
aF149.021
aF512.841
aVp2
p2479
aS'utopia'
p2480
aS'#656565'
p2481
aF8.88595
aI0
aI00
aI00
aI00
aI00
aI00
aI00
aI00
aI00
aa(lp2482
I234378
aF172.717
aF512.841
aVp2
p2483
aS'utopia'
p2484
aS'#656565'
p2485
aF8.88595
aI0
aI00
aI00
aI00
aI00
aI00
aI00
aI00
aI00
aa(lp2486
I89480
aF229.735
aF512.841
aVp2
p2487
aS'utopia'
p2488
aS'#656565'
p2489
aF8.88595
aI0
aI00
aI00
aI00
aI00
aI00
aI00
aI00
aI00
aa(lp2490
I144690
aF240.102
aF512.841
aVp2
p2491
aS'utopia'
p2492
aS'#656565'
p2493
aF8.88595
aI0
aI00
aI00
aI00
aI00
aI00
aI00
aI00
aI00
aa(lp2494
I85218
aF267.5
aF512.841
aVp2
p2495
aS'utopia'
p2496
aS'#656565'
p2497
aF8.88595
aI0
aI00
aI00
aI00
aI00
aI00
aI00
aI00
aI00
aa(lp2498
I127387
aF284.532
aF512.841
aVp2
p2499
aS'utopia'
p2500
aS'#656565'
p2501
aF8.88595
aI0
aI00
aI00
aI00
aI00
aI00
aI00
aI00
aI00
aa(lp2502
I234378
aF329.702
aF512.841
aVp2
p2503
aS'utopia'
p2504
aS'#656565'
p2505
aF8.88595
aI0
aI00
aI00
aI00
aI00
aI00
aI00
aI00
aI00
aa(lp2506
I234378
aF360.0827111111111
aF512.841
ag2503
aS'utopia'
p2507
aS'#656565'
p2508
aF8.88595
aI0
aI00
aI00
aI00
aI00
aI00
aI00
aI00
aI00
aa(lp2509
I234378
aF365.986
aF512.841
aVp2
p2510
aS'utopia'
p2511
aS'#656565'
p2512
aF8.88595
aI0
aI00
aI00
aI00
aI00
aI00
aI00
aI00
aI00
aa(lp2513
I234378
aF371.91
aF512.841
aVp2
p2514
aS'utopia'
p2515
aS'#656565'
p2516
aF8.88595
aI0
aI01
aI00
aI00
aI00
aI00
aI00
aI00
aI00
aa(lp2517
I28496
aF418.561
aF512.841
aVp2
p2518
aS'utopia'
p2519
aS'#656565'
p2520
aF8.88595
aI0
aI00
aI00
aI00
aI00
aI00
aI00
aI00
aI00
aa(lp2521
I89480
aF457.808
aF512.841
aVp2
p2522
aS'utopia'
p2523
aS'#656565'
p2524
aF8.88595
aI0
aI00
aI00
aI00
aI00
aI00
aI00
aI00
aI00
aa(lp2525
I204810
aF468.175
aF512.841
aVp2
p2526
aS'utopia'
p2527
aS'#656565'
p2528
aF8.88595
aI0
aI00
aI00
aI00
aI00
aI00
aI00
aI00
aI00
aa(lp2529
I234378
aF498.535
aF512.841
aVp2
p2530
aS'utopia'
p2531
aS'#656565'
p2532
aF8.88595
aI0
aI00
aI00
aI00
aI00
aI00
aI00
aI00
aI00
aa(lp2533
I85218
aF518.528
aF512.841
aVp2
p2534
aS'utopia'
p2535
aS'#656565'
p2536
aF8.88595
aI0
aI00
aI00
aI00
aI00
aI00
aI00
aI00
aI00
aa(lp2537
I153278
aF535.56
aF512.841
aVp2
p2538
aS'utopia'
p2539
aS'#656565'
p2540
aF8.88595
aI0
aI00
aI00
aI00
aI00
aI00
aI00
aI00
aI00
aa(lp2541
I234378
aF40.9084
aF523.208
aVp2
p2542
aS'utopia'
p2543
aS'#656565'
p2544
aF8.88595
aI0
aI00
aI00
aI00
aI00
aI00
aI00
aI00
aI00
aa(lp2545
I89480
aF72.0093
aF523.208
aVp2
p2546
aS'utopia'
p2547
aS'#656565'
p2548
aF8.88595
aI0
aI00
aI00
aI00
aI00
aI00
aI00
aI00
aI00
aa(lp2549
I187196
aF82.3762
aF523.208
aVp2
p2550
aS'utopia'
p2551
aS'#656565'
p2552
aF8.88595
aI0
aI00
aI00
aI00
aI00
aI00
aI00
aI00
aI00
aa(lp2553
I18050
aF111.256
aF523.208
aVp2
p2554
aS'utopia'
p2555
aS'#656565'
p2556
aF8.88595
aI0
aI00
aI00
aI00
aI00
aI00
aI00
aI00
aI00
aa(lp2557
I144489
aF144.578
aF523.208
aVp2
p2558
aS'utopia'
p2559
aS'#656565'
p2560
aF8.88595
aI0
aI00
aI00
aI00
aI00
aI00
aI00
aI00
aI00
aa(lp2561
I63022
aF154.945
aF523.208
aVp2
p2562
aS'utopia'
p2563
aS'#656565'
p2564
aF8.88595
aI0
aI00
aI00
aI00
aI00
aI00
aI00
aI00
aI00
aa(lp2565
I135639
aF189.008
aF523.208
aVp2
p2566
aS'utopia'
p2567
aS'#656565'
p2568
aF8.88595
aI0
aI00
aI00
aI00
aI00
aI00
aI00
aI00
aI00
aa(lp2569
I180931
aF198.634
aF523.208
aVp2
p2570
aS'utopia'
p2571
aS'#656565'
p2572
aF8.88595
aI0
aI00
aI00
aI00
aI00
aI00
aI00
aI00
aI00
aa(lp2573
I166390
aF218.627
aF523.208
aVp2
p2574
aS'utopia'
p2575
aS'#656565'
p2576
aF8.88595
aI0
aI00
aI00
aI00
aI00
aI00
aI00
aI00
aI00
aa(lp2577
I234378
aF250.32415555555556
aF523.208
ag2574
aS'utopia'
p2578
aS'#656565'
p2579
aF8.88595
aI0
aI00
aI00
aI00
aI00
aI00
aI00
aI00
aI00
aa(lp2580
I234378
aF256.393
aF523.208
aVp2
p2581
aS'utopia'
p2582
aS'#656565'
p2583
aF8.88595
aI0
aI00
aI00
aI00
aI00
aI00
aI00
aI00
aI00
aa(lp2584
I60264
aF262.317
aF523.208
aVp2
p2585
aS'utopia'
p2586
aS'#656565'
p2587
aF8.88595
aI0
aI01
aI00
aI00
aI00
aI00
aI00
aI00
aI00
aa(lp2588
I63022
aF290.456
aF523.208
aVp2
p2589
aS'utopia'
p2590
aS'#656565'
p2591
aF8.88595
aI0
aI00
aI00
aI00
aI00
aI00
aI00
aI00
aI00
aa(lp2592
I190806
aF324.518
aF523.208
aVp2
p2593
aS'utopia'
p2594
aS'#656565'
p2595
aF8.88595
aI0
aI00
aI00
aI00
aI00
aI00
aI00
aI00
aI00
aa(lp2596
I104859
aF338.588
aF523.208
aVp2
p2597
aS'utopia'
p2598
aS'#656565'
p2599
aF8.88595
aI0
aI00
aI00
aI00
aI00
aI00
aI00
aI00
aI00
aa(lp2600
I163414
aF357.841
aF523.208
aVp2
p2601
aS'utopia'
p2602
aS'#656565'
p2603
aF8.88595
aI0
aI00
aI00
aI00
aI00
aI00
aI00
aI00
aI00
aa(lp2604
I85218
aF394.125
aF523.208
aVp2
p2605
aS'utopia'
p2606
aS'#656565'
p2607
aF8.88595
aI0
aI00
aI00
aI00
aI00
aI00
aI00
aI00
aI00
aa(lp2608
I25691
aF411.156
aF523.208
aVp2
p2609
aS'utopia'
p2610
aS'#656565'
p2611
aF8.88595
aI0
aI00
aI00
aI00
aI00
aI00
aI00
aI00
aI00
aa(lp2612
I89480
aF428.188
aF523.208
aVp2
p2613
aS'utopia'
p2614
aS'#656565'
p2615
aF8.88595
aI0
aI00
aI00
aI00
aI00
aI00
aI00
aI00
aI00
aa(lp2616
I25691
aF438.555
aF523.208
aVp2
p2617
aS'utopia'
p2618
aS'#656565'
p2619
aF8.88595
aI0
aI00
aI00
aI00
aI00
aI00
aI00
aI00
aI00
aa(lp2620
I204810
aF455.586
aF523.208
aVp2
p2621
aS'utopia'
p2622
aS'#656565'
p2623
aF8.88595
aI0
aI00
aI00
aI00
aI00
aI00
aI00
aI00
aI00
aa(lp2624
I78023
aF485.946
aF523.208
aVp2
p2625
aS'utopia'
p2626
aS'#656565'
p2627
aF8.88595
aI0
aI00
aI00
aI00
aI00
aI00
aI00
aI00
aI00
aa(lp2628
I234378
aF529.1153538461539
aF523.208
ag2625
aS'utopia'
p2629
aS'#656565'
p2630
aF8.88595
aI0
aI00
aI00
aI00
aI00
aI00
aI00
aI00
aI00
aa(lp2631
I177271
aF40.1679
aF566.175
aVp2
p2632
aS'utopia'
p2633
aS'#02304b'
p2634
aF11.8479
aI1
aI01
aI00
aI00
aI00
aI00
aI00
aI00
aI00
aa(lp2635
I234378
aF74.2307
aF566.175
aVp2
p2636
aS'utopia'
p2637
aS'#02304b'
p2638
aF11.8479
aI1
aI01
aI00
aI00
aI00
aI00
aI00
aI00
aI00
aa(lp2639
I7520
aF49.0539
aF590.487
aVp2
p2640
aS'utopia'
p2641
aS'#656565'
p2642
aF10.3669
aI1
aI01
aI00
aI00
aI00
aI00
aI00
aI00
aI00
aa(lp2643
I10865
aF93.4836
aF590.487
aVp2
p2644
aS'utopia'
p2645
aS'#656565'
p2646
aF10.3669
aI1
aI01
aI00
aI00
aI00
aI00
aI00
aI00
aI00
aa(lp2647
I132955
aF49.0539
aF606.144
aVp2
p2648
aS'utopia'
p2649
aS'#656565'
p2650
aF8.88595
aI0
aI01
aI00
aI00
aI00
aI00
aI00
aI00
aI00
aa(lp2651
I144489
aF69.7878
aF606.144
aVp2
p2652
aS'utopia'
p2653
aS'#656565'
p2654
aF8.88595
aI0
aI00
aI00
aI00
aI00
aI00
aI00
aI00
aI00
aa(lp2655
I132529
aF80.1547
aF606.144
aVp2
p2656
aS'utopia'
p2657
aS'#656565'
p2658
aF8.88595
aI0
aI01
aI00
aI00
aI00
aI00
aI00
aI00
aI00
aa(lp2659
I234378
aF98.76336666666667
aF606.144
ag2656
aS'utopia'
p2660
aS'#656565'
p2661
aF8.88595
aI0
aI00
aI00
aI00
aI00
aI00
aI00
aI00
aI00
aa(lp2662
I234378
aF104.591
aF606.144
aVp2
p2663
aS'utopia'
p2664
aS'#434343'
p2665
aF8.88595
aI0
aI00
aI00
aI01
aI01
aI01
aI00
aI00
aI00
aa(lp2666
I234378
aF115.699
aF606.144
aVp2
p2667
aS'utopia'
p2668
aS'#434343'
p2669
aF8.88595
aI0
aI01
aI00
aI00
aI00
aI00
aI00
aI00
aI01
aa(lp2670
I234378
aF131.989
aF606.144
aVp2
p2671
aS'utopia'
p2672
aS'#434343'
p2673
aF8.88595
aI0
aI00
aI00
aI01
aI01
aI01
aI00
aI00
aI00
aa(lp2674
I86794
aF294.158
aF594.189
aVp2
p2675
aS'utopia'
p2676
aS'#656565'
p2677
aF10.3669
aI1
aI01
aI00
aI00
aI00
aI00
aI00
aI00
aI00
aa(lp2678
I131455
aF332.664
aF594.189
aVp2
p2679
aS'utopia'
p2680
aS'#656565'
p2681
aF10.3669
aI1
aI01
aI00
aI00
aI00
aI00
aI00
aI00
aI00
aa(lp2682
I234378
aF350.436
aF594.189
aVp2
p2683
aS'utopia'
p2684
aS'#656565'
p2685
aF10.3669
aI1
aI01
aI00
aI00
aI00
aI00
aI00
aI00
aI00
aa(lp2686
I131455
aF294.158
aF609.846
aVp2
p2687
aS'utopia'
p2688
aS'#656565'
p2689
aF8.88595
aI0
aI01
aI00
aI00
aI00
aI00
aI00
aI00
aI00
aa(lp2690
I197416
aF309.708
aF609.846
aVp2
p2691
aS'utopia'
p2692
aS'#656565'
p2693
aF8.88595
aI0
aI01
aI00
aI00
aI00
aI00
aI00
aI00
aI00
aa(lp2694
I234378
aF326.97992000000005
aF609.846
ag2691
aS'utopia'
p2695
aS'#656565'
p2696
aF8.88595
aI0
aI00
aI00
aI00
aI00
aI00
aI00
aI00
aI00
aa(lp2697
I28425
aF333.404
aF609.846
aVp2
p2698
aS'utopia'
p2699
aS'#434343'
p2700
aF8.88595
aI0
aI01
aI00
aI00
aI00
aI00
aI00
aI00
aI00
aa(lp2701
I108944
aF49.0539
aF621.694
aVp2
p2702
aS'utopia'
p2703
aS'#656565'
p2704
aF8.88595
aI0
aI01
aI00
aI00
aI00
aI00
aI00
aI00
aI00
aa(lp2705
I234378
aF76.44544285714287
aF621.694
ag2702
aS'utopia'
p2706
aS'#656565'
p2707
aF8.88595
aI0
aI00
aI00
aI00
aI00
aI00
aI00
aI00
aI00
aa(lp2708
I104428
aF83.1167
aF621.694
aVp2
p2709
aS'utopia'
p2710
aS'#434343'
p2711
aF8.88595
aI0
aI01
aI00
aI00
aI00
aI00
aI00
aI00
aI00
aa(lp2712
I72722
aF294.158
aF625.397
aVp2
p2713
aS'utopia'
p2714
aS'#656565'
p2715
aF8.88595
aI0
aI01
aI00
aI00
aI00
aI00
aI00
aI00
aI00
aa(lp2716
I12510
aF347.474
aF625.397
aVp2
p2717
aS'utopia'
p2718
aS'#656565'
p2719
aF8.88595
aI0
aI01
aI00
aI00
aI00
aI00
aI00
aI00
aI00
aa(lp2720
I234378
aF369.7879142857143
aF625.397
ag2717
aS'utopia'
p2721
aS'#656565'
p2722
aF8.88595
aI0
aI00
aI00
aI00
aI00
aI00
aI00
aI00
aI00
aa(lp2723
I60201
aF375.613
aF625.397
aVp2
p2724
aS'utopia'
p2725
aS'#434343'
p2726
aF8.88595
aI0
aI01
aI00
aI00
aI00
aI00
aI00
aI00
aI00
aa(lp2727
I230071
aF392.644
aF625.397
aVp2
p2728
aS'utopia'
p2729
aS'#434343'
p2730
aF8.88595
aI0
aI01
aI00
aI00
aI00
aI00
aI00
aI00
aI00
aa(lp2731
I212271
aF49.0539
aF637.245
aVp2
p2732
aS'utopia'
p2733
aS'#656565'
p2734
aF8.88595
aI0
aI01
aI00
aI00
aI00
aI00
aI00
aI00
aI00
aa(lp2735
I12510
aF79.4142
aF637.245
aVp2
p2736
aS'utopia'
p2737
aS'#656565'
p2738
aF8.88595
aI0
aI01
aI00
aI00
aI00
aI00
aI00
aI00
aI00
aa(lp2739
I234378
aF101.72811428571428
aF637.245
ag2736
aS'utopia'
p2740
aS'#656565'
p2741
aF8.88595
aI0
aI00
aI00
aI00
aI00
aI00
aI00
aI00
aI00
aa(lp2742
I97834
aF107.553
aF637.245
aVp2
p2743
aS'utopia'
p2744
aS'#434343'
p2745
aF8.88595
aI0
aI01
aI00
aI00
aI00
aI00
aI00
aI00
aI00
aa(lp2746
I118366
aF49.0539
aF657.131
aVp2
p2747
aS'utopia'
p2748
aS'#656565'
p2749
aF10.3669
aI1
aI01
aI00
aI00
aI00
aI00
aI00
aI00
aI00
aa(lp2750
I234378
aF83.97235
aF657.131
ag2747
aS'utopia'
p2751
aS'#656565'
p2752
aF10.3669
aI1
aI00
aI00
aI00
aI00
aI00
aI00
aI00
aI00
aa(lp2753
I51933
aF294.158
aF645.283
aVp2
p2754
aS'utopia'
p2755
aS'#656565'
p2756
aF10.3669
aI1
aI01
aI00
aI00
aI00
aI00
aI00
aI00
aI00
aa(lp2757
I62768
aF322.297
aF645.283
aVp2
p2758
aS'utopia'
p2759
aS'#656565'
p2760
aF10.3669
aI1
aI01
aI00
aI00
aI00
aI00
aI00
aI00
aI00
aa(lp2761
I234378
aF49.0539
aF669.826
aVp2
p2762
aS'utopia'
p2763
aS'#000000'
p2764
aF8.88595
aI0
aI01
aI01
aI01
aI00
aI00
aI00
aI00
aI00
aa(lp2765
I234378
aF57.52316666666667
aF669.826
ag2762
aS'utopia'
p2766
aS'#000000'
p2767
aF8.88595
aI0
aI00
aI00
aI00
aI00
aI00
aI00
aI00
aI00
aa(lp2768
I234378
aF63.8638
aF669.826
aVp2
p2769
aS'utopia'
p2770
aS'#000000'
p2771
aF8.88595
aI0
aI00
aI00
aI01
aI01
aI01
aI00
aI00
aI00
aa(lp2772
I234378
aF75.613225
aF669.826
ag2769
aS'utopia'
p2773
aS'#000000'
p2774
aF8.88595
aI0
aI00
aI00
aI00
aI00
aI00
aI00
aI00
aI00
aa(lp2775
I234378
aF81.6357
aF669.826
aVp2
p2776
aS'utopia'
p2777
aS'#000000'
p2778
aF8.88595
aI0
aI01
aI00
aI00
aI00
aI00
aI00
aI00
aI00
aa(lp2779
I23416
aF101.629
aF669.826
aVp2
p2780
aS'utopia'
p2781
aS'#000000'
p2782
aF8.88595
aI0
aI00
aI00
aI00
aI00
aI00
aI00
aI00
aI00
aa(lp2783
I171568
aF126.806
aF669.826
aVp2
p2784
aS'utopia'
p2785
aS'#000000'
p2786
aF8.88595
aI0
aI00
aI00
aI00
aI00
aI00
aI00
aI00
aI00
aa(lp2787
I234378
aF152.824475
aF669.826
ag2784
aS'utopia'
p2788
aS'#000000'
p2789
aF8.88595
aI0
aI00
aI00
aI00
aI00
aI00
aI00
aI00
aI00
aa(lp2790
I234378
aF158.647
aF669.826
aVp2
p2791
aS'utopia'
p2792
aS'#000000'
p2793
aF8.88595
aI0
aI01
aI00
aI00
aI00
aI00
aI00
aI00
aI00
aa(lp2794
I234378
aF183.084
aF669.826
aVp2
p2795
aS'utopia'
p2796
aS'#000000'
p2797
aF8.88595
aI0
aI01
aI00
aI00
aI00
aI00
aI00
aI00
aI00
aa(lp2798
I234378
aF204.77808333333334
aF669.826
ag2795
aS'utopia'
p2799
aS'#000000'
p2800
aF8.88595
aI0
aI00
aI00
aI00
aI00
aI00
aI00
aI00
aI00
aa(lp2801
I234378
aF211.222
aF669.826
aVp2
p2802
aS'utopia'
p2803
aS'#000000'
p2804
aF8.88595
aI0
aI01
aI00
aI00
aI00
aI00
aI00
aI00
aI00
aa(lp2805
I234378
aF229.08632
aF669.826
ag2802
aS'utopia'
p2806
aS'#000000'
p2807
aF8.88595
aI0
aI00
aI00
aI00
aI00
aI00
aI00
aI00
aI00
aa(lp2808
I234378
aF49.0539
aF680.193
aVp2
p2809
aS'utopia'
p2810
aS'#000000'
p2811
aF8.88595
aI0
aI00
aI00
aI01
aI01
aI01
aI00
aI00
aI00
aa(lp2812
I182663
aF49.0539
aF693.522
aVp2
p2813
aS'utopia'
p2814
aS'#656565'
p2815
aF8.88595
aI0
aI01
aI00
aI00
aI00
aI00
aI00
aI00
aI00
aa(lp2816
I82279
aF76.4522
aF693.522
aVp2
p2817
aS'utopia'
p2818
aS'#656565'
p2819
aF8.88595
aI0
aI01
aI00
aI00
aI00
aI00
aI00
aI00
aI00
aa(lp2820
I234378
aF96.09372
aF693.522
ag2817
aS'utopia'
p2821
aS'#656565'
p2822
aF8.88595
aI0
aI00
aI00
aI00
aI00
aI00
aI00
aI00
aI00
aa(lp2823
I234378
aF103.11
aF693.522
aVp2
p2824
aS'utopia'
p2825
aS'#000000'
p2826
aF8.88595
aI0
aI01
aI00
aI00
aI00
aI00
aI00
aI00
aI00
aa(lp2827
I31679
aF294.158
aF660.94
aVp2
p2828
aS'utopia'
p2829
aS'#656565'
p2830
aF8.88595
aI0
aI01
aI01
aI00
aI00
aI00
aI00
aI00
aI00
aa(lp2831
I51933
aF307.487
aF660.94
aVp2
p2832
aS'utopia'
p2833
aS'#656565'
p2834
aF8.88595
aI0
aI01
aI00
aI00
aI00
aI00
aI00
aI00
aI00
aa(lp2835
I12510
aF331.183
aF660.94
aVp2
p2836
aS'utopia'
p2837
aS'#656565'
p2838
aF8.88595
aI0
aI01
aI00
aI00
aI00
aI00
aI00
aI00
aI00
aa(lp2839
I234378
aF353.4969142857143
aF660.94
ag2836
aS'utopia'
p2840
aS'#656565'
p2841
aF8.88595
aI0
aI00
aI00
aI00
aI00
aI00
aI00
aI00
aI00
aa(lp2842
I109318
aF359.322
aF660.94
aVp2
p2843
aS'utopia'
p2844
aS'#434343'
p2845
aF8.88595
aI0
aI01
aI00
aI00
aI00
aI00
aI00
aI00
aI00
aa(lp2846
I234378
aF382.277
aF660.94
aVp2
p2847
aS'utopia'
p2848
aS'#434343'
p2849
aF8.88595
aI0
aI01
aI01
aI01
aI00
aI00
aI00
aI00
aI00
aa(lp2850
I222659
aF396.346
aF660.94
aVp2
p2851
aS'utopia'
p2852
aS'#434343'
p2853
aF8.88595
aI0
aI01
aI00
aI00
aI00
aI00
aI00
aI00
aI00
aa(lp2854
I234378
aF294.158
aF676.491
aVp2
p2855
aS'utopia'
p2856
aS'#656565'
p2857
aF8.88595
aI0
aI01
aI00
aI00
aI00
aI00
aI00
aI00
aI00
aa(lp2858
I234378
aF330.91652
aF676.491
ag2855
aS'utopia'
p2859
aS'#656565'
p2860
aF8.88595
aI0
aI00
aI00
aI00
aI00
aI00
aI00
aI00
aI00
aa(lp2861
I63091
aF337.107
aF676.491
aVp2
p2862
aS'utopia'
p2863
aS'#434343'
p2864
aF8.88595
aI0
aI01
aI00
aI00
aI00
aI00
aI00
aI00
aI00
aa(lp2865
I234378
aF354.138
aF676.491
aVp2
p2866
aS'utopia'
p2867
aS'#434343'
p2868
aF8.88595
aI0
aI01
aI00
aI00
aI00
aI00
aI00
aI00
aI00
aa(lp2869
I166771
aF294.158
aF696.378
aVp2
p2870
aS'utopia'
p2871
aS'#656565'
p2872
aF10.3669
aI1
aI01
aI00
aI00
aI00
aI00
aI00
aI00
aI00
aa(lp2873
I74833
aF350.436
aF696.378
aVp2
p2874
aS'utopia'
p2875
aS'#656565'
p2876
aF10.3669
aI1
aI01
aI00
aI00
aI00
aI00
aI00
aI00
aI00
aa(lp2877
I233758
aF294.158
aF712.035
aVp2
p2878
aS'utopia'
p2879
aS'#656565'
p2880
aF8.88595
aI0
aI01
aI00
aI00
aI00
aI00
aI00
aI00
aI00
aa(lp2881
I234378
aF327.8298222222222
aF712.035
ag2878
aS'utopia'
p2882
aS'#656565'
p2883
aF8.88595
aI0
aI00
aI00
aI00
aI00
aI00
aI00
aI00
aI00
aa(lp2884
I63091
aF334.145
aF712.035
aVp2
p2885
aS'utopia'
p2886
aS'#434343'
p2887
aF8.88595
aI0
aI01
aI00
aI00
aI00
aI00
aI00
aI00
aI00
aa(lp2888
I234378
aF351.176
aF712.035
aVp2
p2889
aS'utopia'
p2890
aS'#434343'
p2891
aF8.88595
aI0
aI01
aI00
aI00
aI00
aI00
aI00
aI00
aI00
aa(lp2892
I151511
aF294.158
aF727.585
aVp2
p2893
aS'utopia'
p2894
aS'#656565'
p2895
aF8.88595
aI0
aI01
aI00
aI00
aI00
aI00
aI00
aI00
aI00
aa(lp2896
I234378
aF334.885
aF727.585
aVp2
p2897
aS'utopia'
p2898
aS'#656565'
p2899
aF8.88595
aI0
aI01
aI00
aI00
aI00
aI00
aI00
aI00
aI00
aa(lp2900
I234378
aF376.7270909090909
aF727.585
ag2897
aS'utopia'
p2901
aS'#656565'
p2902
aF8.88595
aI0
aI00
aI00
aI00
aI00
aI00
aI00
aI00
aI00
aa(lp2903
I201816
aF383.018
aF727.585
aVp2
p2904
aS'utopia'
p2905
aS'#434343'
p2906
aF8.88595
aI0
aI01
aI00
aI00
aI00
aI00
aI00
aI00
aI00
aa(lp2907
I1
aI1
aI0
aI0
aI0
aI0
aI0
aI0
aI0
aI0
aI0
aI0
aI0
aI0
aI0
aI0
aI0
aI0
aI0
aI0
aI0
aI0
aI0
aI0
aI0
aI0
aI0
aI0
aI0
aI0
aI0
aI0
aI0
aI0
aI0
aI0
aI0
aI0
aI0
aI0
aI0
aI0
aI0
aI0
aI0
aI0
aI0
aI0
aI0
aI0
aI0
aI0
aI0
aI0
aI0
aI0
aI0
aI0
aI0
aI0
aI0
aI0
aI0
aI0
aI0
aI0
aI0
aI0
aI0
aI0
aI0
aI0
aI0
aI0
aI0
aI0
aI0
aI0
aI0
aI0
aI0
aI0
aI0
aI0
aI0
aI0
aI0
aI0
aI0
aI0
aI0
aI0
aI0
aI0
aI0
aI0
aI0
aI0
aI0
aI0
aI0
aI0
aI0
aI0
aI0
aI0
aI0
aI0
aI0
aI0
aI0
aI0
aI0
aI0
aI0
aI0
aI0
aI0
aI0
aI0
aI0
aI0
aI0
aI0
aI0
aI1
aI1
aI0
aI0
aI0
aI0
aI0
aI0
aI0
aI0
aI0
aI0
aI0
aI0
aI0
aI0
aI0
aI0
aI0
aI0
aI0
aI0
aI0
aI0
aI0
aI0
aI0
aI0
aI0
aI0
aI0
aI0
aI0
aI0
aI0
aI0
aI0
aI0
aI0
aI0
aI0
aI0
aI0
aI0
aI0
aI0
aI0
aI0
aI0
aI0
aI0
aI0
aI0
aI0
aI0
aI0
aI0
aI0
aI0
aI0
aI0
aI0
aI0
aI0
aI0
aI0
aI0
aI0
aI0
aI0
aI0
aI0
aI0
aI0
aI0
aI0
aI0
aI0
aI0
aI0
aI0
aI0
aI0
aI0
aI0
aI0
aI0
aI0
aI0
aI0
aI0
aI0
aI0
aI0
aI0
aI0
aI0
aI0
aI0
aI0
aI0
aI0
aI0
aI0
aI0
aI0
aI0
aI0
aI0
aI0
aI0
aI0
aI0
aI0
aI0
aI0
aI0
aI0
aI0
aI0
aI0
aI0
aI0
aI0
aI0
aI0
aI0
aI0
aI0
aI0
aI0
aI0
aI0
aI0
aI0
aI0
aI0
aI0
aI0
aI0
aI0
aI0
aI0
aI0
aI0
aI0
aI0
aI0
aI0
aI0
aI0
aI0
aI0
aI0
aI0
aI0
aI0
aI0
aI0
aI0
aI0
aI0
aI0
aI0
aI0
aI0
aI0
aI0
aI0
aI0
aI0
aI0
aI0
aI0
aI0
aI0
aI0
aI0
aI0
aI0
aI0
aI0
aI0
aI0
aI0
aI0
aI0
aI0
aI0
aI0
aI0
aI0
aI0
aI0
aI0
aI0
aI0
aI0
aI0
aI0
aI0
aI0
aI0
aI0
aI0
aI0
aI0
aI0
aI0
aI0
aI0
aI0
aI0
aI0
aI0
aI0
aI0
aI0
aI0
aI0
aI0
aI0
aI0
aI0
aI0
aI0
aI0
aI0
aI0
aI0
aI0
aI0
aI0
aI0
aI0
aI0
aI0
aI0
aI0
aI0
aI0
aI0
aI0
aI0
aI0
aI0
aI0
aI0
aI0
aI0
aI0
aI0
aI0
aI0
aI0
aI0
aI0
aI0
aI0
aI0
aI0
aI0
aI0
aI0
aI0
aI0
aI0
aI0
aI0
aI0
aI0
aI0
aI0
aI0
aI0
aI0
aI0
aI0
aI0
aI0
aI0
aI0
aI1
aI0
aI0
aI0
aI0
aI0
aI0
aI0
aI0
aI0
aI0
aI0
aI0
aI0
aI0
aI0
aI0
aI0
aI0
aI0
aI0
aI0
aI0
aI0
aI0
aI0
aI0
aI0
aI0
aI0
aI1
aI1
aI0
aI0
aI0
aI0
aI0
aI0
aI0
aI0
aI0
aI0
aI0
aI0
aI0
aI0
aI0
aI0
aI0
aI0
aI0
aI0
aI0
aI0
aI0
aI0
aI0
aI0
aI0
aI0
aI0
aI0
aI0
aI0
aI0
aI0
aI0
aI0
aI0
aI0
aI0
aI0
aI0
aI0
aI0
aI0
aI0
aI0
aI0
aI1
aI1
aI0
aI0
aI0
aI1
aI0
aI0
aI0
aI0
aI0
aI0
aI0
aI0
aI0
aI0
aI0
aI0
aI0
aI0
aI0
aI0
aI0
aI0
aI0
aI0
aI0
aI0
aI0
aI0
aI0
aI0
aI0
aI0
aI0
aI0
aI0
aI0
aI0
aI0
aI0
aI0
aI0
aI0
aI0
aI0
aI0
aI0
aI0
aI0
aI0
aI0
aI0
aI0
aI0
aI0
aI0
aI0
aI0
aI0
aI0
aI0
aI0
aI0
aI0
aI0
aI0
aI0
aI0
aI0
aI0
aI0
aI0
aI0
aI0
aI0
aI0
aI0
aI0
aI0
aI0
aI0
aI0
aI0
aI0
aI0
aI0
aI0
aI0
aI0
aI0
aI0
aI0
aI0
aI0
aI0
aI0
aI0
aI0
aI0
aI0
aI0
aI0
aI0
aI0
aI0
aI0
aI0
aI0
aI0
aI0
aI0
aI0
aI0
aI0
aI0
aI0
aI0
aI0
aI0
aI0
aI0
aI0
aI0
aI0
aI0
aI0
aI0
aI0
aI0
aI0
aI0
aI0
aI0
aI0
aI0
aI0
aI0
aI0
aI0
aI0
aI0
aI0
aI0
aI0
aI0
aI0
aI0
aI0
aI0
aI0
aI0
aI0
aI0
aI0
aI0
aI0
aI0
aI0
aI0
aI0
aI0
aI0
aI0
aI0
aI0
aI0
aI0
aI0
aI0
aI0
aI0
aI0
aI0
aI0
aI0
aI0
aI0
aI0
aI0
aI0
aI0
aI0
aI0
aI0
aI0
aI0
aI0
aI0
aI0
aI0
aI0
aI0
aI0
aI0
aI0
aI0
aI0
aI0
aI0
aI1
aI1
aI0
aI0
aI0
aI0
aI0
aI0
aI0
aI0
aI0
aI0
aI0
aI0
aI0
aI0
aI0
aI0
aI0
aI0
aI0
aI0
aI0
aI0
aI0
aI0
aI0
aI0
aI0
aI0
aI0
aI0
aI0
aI0
aI0
aI0
aI0
aI0
aI0
aI0
aI0
aI0
aI0
aI0
aI0
aI0
aI0
aI0
aI0
aI0
aI0
aI0
aI0
aI0
aI0
aI0
aI0
aI0
aI0
aI0
aI0
aI0
aI0
aI0
aI0
aI0
aI0
aI0
aI0
aI0
aI0
aI0
aI0
atp2908
.