((lp0
(lp1
I183172
aF282.4
aF72.06
aVp1
p2
aS'nimbusromno9l'
p3
aS'#000000'
p4
aF14.0
aI0
aI01
aI00
aI00
aI00
aI00
aI00
aI00
aI00
aa(lp5
I234378
aF45.6
aF108.964
aVp1
p6
aS'dejavusans'
p7
aS'#000000'
p8
aF12.0
aI1
aI01
aI01
aI00
aI00
aI00
aI00
aI00
aI00
aa(lp9
I234378
aF101.652
aF108.964
aVp1
p10
aS'dejavusans'
p11
aS'#000000'
p12
aF12.0
aI1
aI01
aI01
aI00
aI00
aI00
aI00
aI00
aI00
aa(lp13
I118366
aF45.6
aF123.392
aVp1
p14
aS'dejavusans'
p15
aS'#000000'
p16
aF11.0
aI0
aI01
aI00
aI00
aI00
aI00
aI00
aI00
aI00
aa(lp17
I71195
aF101.9
aF123.392
aVp1
p18
aS'dejavusans'
p19
aS'#000000'
p20
aF11.0
aI0
aI01
aI00
aI00
aI00
aI00
aI00
aI00
aI00
aa(lp21
I234378
aF133.261
aF123.392
aVp1
p22
aS'dejavusans'
p23
aS'#000000'
p24
aF11.0
aI0
aI00
aI00
aI01
aI01
aI01
aI00
aI00
aI00
aa(lp25
I234378
aF151.61725
aF123.392
ag22
aS'dejavusans'
p26
aS'#000000'
p27
aF11.0
aI0
aI00
aI00
aI00
aI00
aI00
aI00
aI00
aI00
aa(lp28
I129851
aF161.223
aF123.392
aVp1
p29
aS'dejavusans'
p30
aS'#000000'
p31
aF11.0
aI0
aI01
aI00
aI00
aI00
aI00
aI00
aI00
aI00
aa(lp32
I234378
aF205.553
aF123.392
aVp1
p33
aS'dejavusans'
p34
aS'#000000'
p35
aF11.0
aI0
aI00
aI00
aI01
aI01
aI01
aI00
aI00
aI00
aa(lp36
I234378
aF217.20566666666667
aF123.392
ag33
aS'dejavusans'
p37
aS'#000000'
p38
aF11.0
aI0
aI00
aI00
aI00
aI00
aI00
aI00
aI00
aI00
aa(lp39
I234378
aF226.519
aF123.392
aVp1
p40
aS'dejavusans'
p41
aS'#000000'
p42
aF11.0
aI0
aI01
aI00
aI00
aI00
aI00
aI00
aI00
aI00
aa(lp43
I38603
aF279.979
aF123.392
aVp1
p44
aS'dejavusans'
p45
aS'#000000'
p46
aF11.0
aI0
aI01
aI00
aI00
aI00
aI00
aI00
aI00
aI00
aa(lp47
I82279
aF307.16
aF123.392
aVp1
p48
aS'dejavusans'
p49
aS'#000000'
p50
aF11.0
aI0
aI01
aI00
aI00
aI00
aI00
aI00
aI00
aI00
aa(lp51
I234378
aF331.9232
aF123.392
ag48
aS'dejavusans'
p52
aS'#000000'
p53
aF11.0
aI0
aI00
aI00
aI00
aI00
aI00
aI00
aI00
aI00
aa(lp54
I234378
aF108.6
aF136.192
aVp1
p55
aS'dejavusans'
p56
aS'#000000'
p57
aF11.0
aI0
aI01
aI00
aI00
aI00
aI00
aI00
aI00
aI00
aa(lp58
I234378
aF148.233
aF136.192
aVp1
p59
aS'dejavusans'
p60
aS'#000000'
p61
aF11.0
aI0
aI00
aI00
aI01
aI01
aI01
aI00
aI00
aI00
aa(lp62
I234378
aF187.20128571428572
aF136.192
ag59
aS'dejavusans'
p63
aS'#000000'
p64
aF11.0
aI0
aI00
aI00
aI00
aI00
aI00
aI00
aI00
aI00
aa(lp65
I234378
aF197.183
aF136.192
aVp1
p66
aS'dejavusans'
p67
aS'#000000'
p68
aF11.0
aI0
aI01
aI00
aI00
aI00
aI00
aI00
aI00
aI00
aa(lp69
I108443
aF45.6
aF150.392
aVp1
p70
aS'dejavusans'
p71
aS'#000000'
p72
aF11.0
aI0
aI01
aI00
aI00
aI00
aI00
aI00
aI00
aI00
aa(lp73
I201816
aF85.145
aF150.392
aVp1
p74
aS'dejavusans'
p75
aS'#000000'
p76
aF11.0
aI0
aI00
aI00
aI00
aI00
aI00
aI00
aI00
aI00
aa(lp77
I234378
aF96.779
aF150.392
ag74
aS'dejavusans'
p78
aS'#000000'
p79
aF11.0
aI0
aI00
aI00
aI00
aI00
aI00
aI00
aI00
aI00
aa(lp80
I234378
aF106.1
aF150.392
aVp1
p81
aS'dejavusans'
p82
aS'#000000'
p83
aF11.0
aI0
aI00
aI00
aI01
aI01
aI01
aI00
aI00
aI00
aa(lp84
I234378
aF242.8
aF149.512
aVp1
p85
aS'nimbusromno9l'
p86
aS'#000000'
p87
aF12.0
aI0
aI01
aI01
aI00
aI00
aI00
aI00
aI00
aI00
aa(lp88
I234378
aF290.351
aF149.512
ag85
aS'nimbusromno9l'
p89
aS'#000000'
p90
aF12.0
aI0
aI00
aI00
aI00
aI00
aI00
aI00
aI00
aI00
aa(lp91
I234378
aF297.294875
aF149.512
ag85
aS'nimbusromno9l'
p92
aS'#000000'
p93
aF12.0
aI0
aI00
aI00
aI00
aI00
aI00
aI00
aI00
aI00
aa(lp94
I234378
aF369.621375
aF149.512
ag85
aS'nimbusromno9l'
p95
aS'#000000'
p96
aF12.0
aI0
aI00
aI00
aI00
aI00
aI00
aI00
aI00
aI00
aa(lp97
I234378
aF399.34075
aF149.512
ag85
aS'nimbusromno9l'
p98
aS'#000000'
p99
aF12.0
aI0
aI00
aI00
aI00
aI00
aI00
aI00
aI00
aI00
aa(lp100
I234378
aF405.284625
aF149.512
ag85
aS'nimbusromno9l'
p101
aS'#000000'
p102
aF12.0
aI0
aI00
aI00
aI00
aI00
aI00
aI00
aI00
aI00
aa(lp103
I212437
aF500.0
aF150.392
aVp1
p104
aS'dejavusans'
p105
aS'#000000'
p106
aF11.0
aI0
aI01
aI01
aI00
aI00
aI00
aI00
aI00
aI00
aa(lp107
I234378
aF521.219
aF150.392
ag104
aS'dejavusans'
p108
aS'#000000'
p109
aF11.0
aI0
aI00
aI00
aI00
aI00
aI00
aI00
aI00
aI00
aa(lp110
I234378
aF45.6
aF164.692
aVp1
p111
aS'dejavusans'
p112
aS'#000000'
p113
aF11.0
aI0
aI00
aI00
aI01
aI01
aI01
aI00
aI00
aI00
aa(lp114
I234378
aF58.338
aF164.692
ag111
aS'dejavusans'
p115
aS'#000000'
p116
aF11.0
aI0
aI00
aI00
aI00
aI00
aI00
aI00
aI00
aI00
aa(lp117
I37510
aF64.707
aF164.692
ag111
aS'dejavusans'
p118
aS'#000000'
p119
aF11.0
aI0
aI01
aI00
aI00
aI00
aI00
aI00
aI00
aI01
aa(lp120
I234378
aF79.814
aF164.692
ag111
aS'dejavusans'
p121
aS'#000000'
p122
aF11.0
aI0
aI00
aI00
aI00
aI00
aI00
aI00
aI00
aI00
aa(lp123
I234378
aF90.18299999999999
aF164.692
ag111
aS'dejavusans'
p124
aS'#000000'
p125
aF11.0
aI0
aI00
aI00
aI01
aI01
aI01
aI00
aI00
aI00
aa(lp126
I7520
aF40.2
aF190.12
aVp1
p127
aS'dejavusans'
p128
aS'#000000'
p129
aF10.0
aI1
aI01
aI00
aI00
aI00
aI00
aI00
aI00
aI00
aa(lp130
I127485
aF92.85
aF190.12
aVp1
p131
aS'dejavusans'
p132
aS'#000000'
p133
aF10.0
aI1
aI01
aI00
aI00
aI00
aI00
aI00
aI00
aI00
aa(lp134
I234378
aF128.43625
aF190.12
ag131
aS'dejavusans'
p135
aS'#000000'
p136
aF10.0
aI1
aI00
aI00
aI00
aI00
aI00
aI00
aI00
aI00
aa(lp137
I184566
aF81.6
aF214.964
aVp1
p138
aS'dejavusans'
p139
aS'#000000'
p140
aF12.0
aI0
aI01
aI00
aI00
aI00
aI00
aI00
aI00
aI00
aa(lp141
I85218
aF124.968
aF214.964
aVp1
p142
aS'dejavusans'
p143
aS'#000000'
p144
aF12.0
aI0
aI00
aI00
aI00
aI00
aI00
aI00
aI00
aI00
aa(lp145
I34923
aF151.356
aF214.964
aVp1
p146
aS'dejavusans'
p147
aS'#000000'
p148
aF12.0
aI0
aI00
aI00
aI00
aI00
aI00
aI00
aI00
aI00
aa(lp149
I234378
aF229.2
aF214.964
aVp1
p150
aS'dejavusans'
p151
aS'#000000'
p152
aF12.0
aI0
aI01
aI00
aI00
aI00
aI00
aI00
aI00
aI00
aa(lp153
I165938
aF285.96
aF214.964
aVp1
p154
aS'dejavusans'
p155
aS'#000000'
p156
aF12.0
aI0
aI01
aI00
aI00
aI00
aI00
aI00
aI00
aI00
aa(lp157
I234378
aF355.87753846153845
aF214.964
ag154
aS'dejavusans'
p158
aS'#000000'
p159
aF12.0
aI0
aI00
aI00
aI00
aI00
aI00
aI00
aI00
aI00
aa(lp160
I169745
aF365.592
aF214.964
aVp1
p161
aS'dejavusans'
p162
aS'#000000'
p163
aF12.0
aI0
aI00
aI00
aI00
aI00
aI00
aI00
aI00
aI00
aa(lp164
I234378
aF394.896
aF214.964
aVp1
p165
aS'dejavusans'
p166
aS'#000000'
p167
aF12.0
aI0
aI00
aI00
aI01
aI01
aI00
aI00
aI00
aI00
aa(lp168
I234378
aF401.24
aF214.964
ag165
aS'dejavusans'
p169
aS'#000000'
p170
aF12.0
aI0
aI00
aI00
aI00
aI00
aI00
aI00
aI00
aI00
aa(lp171
I234378
aF407.584
aF214.964
ag165
aS'dejavusans'
p172
aS'#000000'
p173
aF12.0
aI0
aI00
aI00
aI01
aI01
aI00
aI00
aI00
aI00
aa(lp174
I234378
aF417.792
aF214.964
aVp1
p175
aS'dejavusans'
p176
aS'#000000'
p177
aF12.0
aI0
aI00
aI00
aI00
aI00
aI00
aI00
aI00
aI00
aa(lp178
I144489
aF454.56
aF214.964
aVp1
p179
aS'dejavusans'
p180
aS'#000000'
p181
aF12.0
aI0
aI00
aI00
aI00
aI00
aI00
aI00
aI00
aI00
aa(lp182
I60220
aF469.944
aF214.964
aVp1
p183
aS'dejavusans'
p184
aS'#000000'
p185
aF12.0
aI0
aI00
aI00
aI00
aI00
aI00
aI00
aI00
aI00
aa(lp186
I135639
aF540.192
aF214.964
aVp1
p187
aS'dejavusans'
p188
aS'#000000'
p189
aF12.0
aI0
aI00
aI00
aI00
aI00
aI00
aI00
aI00
aI00
aa(lp190
I21716
aF81.6
aF229.564
aVp1
p191
aS'dejavusans'
p192
aS'#000000'
p193
aF12.0
aI0
aI01
aI00
aI00
aI00
aI00
aI00
aI00
aI00
aa(lp194
I68032
aF110.784
aF229.564
aVp1
p195
aS'dejavusans'
p196
aS'#000000'
p197
aF12.0
aI0
aI00
aI00
aI00
aI00
aI00
aI00
aI00
aI00
aa(lp198
I234378
aF186.728
aF229.564
ag195
aS'dejavusans'
p199
aS'#000000'
p200
aF12.0
aI0
aI00
aI00
aI00
aI00
aI00
aI00
aI00
aI00
aa(lp201
I218914
aF197.52
aF229.564
aVp1
p202
aS'dejavusans'
p203
aS'#000000'
p204
aF12.0
aI0
aI00
aI00
aI00
aI00
aI00
aI00
aI00
aI00
aa(lp205
I234378
aF236.304
aF229.564
aVp1
p206
aS'dejavusans'
p207
aS'#000000'
p208
aF12.0
aI0
aI00
aI00
aI00
aI00
aI00
aI00
aI00
aI00
aa(lp209
I234378
aF289.764
aF229.564
aVp1
p210
aS'dejavusans'
p211
aS'#000000'
p212
aF12.0
aI0
aI00
aI00
aI01
aI01
aI00
aI00
aI00
aI00
aa(lp213
I234378
aF301.26
aF229.564
aVp1
p214
aS'dejavusans'
p215
aS'#000000'
p216
aF12.0
aI0
aI00
aI00
aI00
aI00
aI00
aI00
aI00
aI00
aa(lp217
I144489
aF338.028
aF229.564
aVp1
p218
aS'dejavusans'
p219
aS'#000000'
p220
aF12.0
aI0
aI00
aI00
aI00
aI00
aI00
aI00
aI00
aI00
aa(lp221
I234378
aF353.412
aF229.564
aVp1
p222
aS'dejavusans'
p223
aS'#000000'
p224
aF12.0
aI0
aI01
aI00
aI00
aI00
aI00
aI00
aI00
aI00
aa(lp225
I60220
aF395.892
aF229.564
aVp1
p226
aS'dejavusans'
p227
aS'#000000'
p228
aF12.0
aI0
aI00
aI00
aI00
aI00
aI00
aI00
aI00
aI00
aa(lp229
I234378
aF459.6665454545455
aF229.564
ag226
aS'dejavusans'
p230
aS'#000000'
p231
aF12.0
aI0
aI00
aI00
aI00
aI00
aI00
aI00
aI00
aI00
aa(lp232
I62551
aF81.6
aF244.564
aVp1
p233
aS'dejavusans'
p234
aS'#000000'
p235
aF12.0
aI0
aI01
aI00
aI00
aI00
aI00
aI00
aI00
aI00
aa(lp236
I125458
aF116.28
aF244.564
aVp1
p237
aS'dejavusans'
p238
aS'#000000'
p239
aF12.0
aI0
aI00
aI00
aI00
aI00
aI00
aI00
aI00
aI00
aa(lp240
I16331
aF163.668
aF244.564
aVp1
p241
aS'dejavusans'
p242
aS'#000000'
p243
aF12.0
aI0
aI00
aI00
aI00
aI00
aI00
aI00
aI00
aI00
aa(lp244
I166593
aF181.068
aF244.564
aVp1
p245
aS'dejavusans'
p246
aS'#000000'
p247
aF12.0
aI0
aI00
aI00
aI00
aI00
aI00
aI00
aI00
aI00
aa(lp248
I210461
aF192.264
aF244.564
aVp1
p249
aS'dejavusans'
p250
aS'#000000'
p251
aF12.0
aI0
aI01
aI00
aI00
aI00
aI00
aI00
aI00
aI00
aa(lp252
I175409
aF227.736
aF244.564
aVp1
p253
aS'dejavusans'
p254
aS'#000000'
p255
aF12.0
aI0
aI01
aI00
aI00
aI00
aI00
aI00
aI00
aI00
aa(lp256
I234378
aF253.79999999999998
aF244.564
ag253
aS'dejavusans'
p257
aS'#000000'
p258
aF12.0
aI0
aI00
aI00
aI00
aI00
aI00
aI00
aI00
aI00
aa(lp259
I55966
aF264.204
aF244.564
aVp1
p260
aS'dejavusans'
p261
aS'#000000'
p262
aF12.0
aI0
aI00
aI00
aI00
aI00
aI00
aI00
aI00
aI00
aa(lp263
I100815
aF304.872
aF244.564
aVp1
p264
aS'dejavusans'
p265
aS'#000000'
p266
aF12.0
aI0
aI00
aI00
aI00
aI00
aI00
aI00
aI00
aI00
aa(lp267
I85218
aF368.724
aF244.564
aVp1
p268
aS'dejavusans'
p269
aS'#000000'
p270
aF12.0
aI0
aI00
aI00
aI00
aI00
aI00
aI00
aI00
aI00
aa(lp271
I234378
aF395.1
aF244.564
aVp1
p272
aS'dejavusans'
p273
aS'#000000'
p274
aF12.0
aI0
aI01
aI00
aI00
aI00
aI00
aI00
aI00
aI00
aa(lp275
I234378
aF437.58
aF244.564
aVp1
p276
aS'dejavusans'
p277
aS'#000000'
p278
aF12.0
aI0
aI00
aI00
aI00
aI00
aI00
aI00
aI00
aI00
aa(lp279
I234378
aF502.986
aF244.564
ag276
aS'dejavusans'
p280
aS'#000000'
p281
aF12.0
aI0
aI00
aI00
aI00
aI00
aI00
aI00
aI00
aI00
aa(lp282
I137307
aF81.6
aF260.264
aVp1
p283
aS'dejavusans'
p284
aS'#000000'
p285
aF12.0
aI0
aI01
aI00
aI00
aI00
aI00
aI00
aI00
aI00
aa(lp286
I106981
aF112.08
aF260.264
aVp1
p287
aS'dejavusans'
p288
aS'#000000'
p289
aF12.0
aI0
aI00
aI00
aI00
aI00
aI00
aI00
aI00
aI00
aa(lp290
I234378
aF152.22933333333333
aF260.264
ag287
aS'dejavusans'
p291
aS'#000000'
p292
aF12.0
aI0
aI00
aI00
aI00
aI00
aI00
aI00
aI00
aI00
aa(lp293
I105222
aF161.22
aF260.264
aVp1
p294
aS'dejavusans'
p295
aS'#000000'
p296
aF12.0
aI0
aI00
aI00
aI00
aI00
aI00
aI00
aI00
aI00
aa(lp297
I85218
aF203.88
aF260.264
aVp1
p298
aS'dejavusans'
p299
aS'#000000'
p300
aF12.0
aI0
aI00
aI00
aI00
aI00
aI00
aI00
aI00
aI00
aa(lp301
I164684
aF230.268
aF260.264
aVp1
p302
aS'dejavusans'
p303
aS'#000000'
p304
aF12.0
aI0
aI00
aI00
aI00
aI00
aI00
aI00
aI00
aI00
aa(lp305
I135639
aF295.236
aF260.264
aVp1
p306
aS'dejavusans'
p307
aS'#000000'
p308
aF12.0
aI0
aI00
aI00
aI00
aI00
aI00
aI00
aI00
aI00
aa(lp309
I119499
aF310.02
aF260.264
aVp1
p310
aS'dejavusans'
p311
aS'#000000'
p312
aF12.0
aI0
aI00
aI00
aI00
aI00
aI00
aI00
aI00
aI00
aa(lp313
I85218
aF369.876
aF260.264
aVp1
p314
aS'dejavusans'
p315
aS'#000000'
p316
aF12.0
aI0
aI00
aI00
aI00
aI00
aI00
aI00
aI00
aI00
aa(lp317
I234378
aF396.264
aF260.264
aVp1
p318
aS'dejavusans'
p319
aS'#000000'
p320
aF12.0
aI0
aI00
aI00
aI00
aI00
aI00
aI00
aI00
aI00
aa(lp321
I194354
aF421.248
aF260.264
aVp1
p322
aS'dejavusans'
p323
aS'#000000'
p324
aF12.0
aI0
aI00
aI00
aI00
aI00
aI00
aI00
aI00
aI00
aa(lp325
I189696
aF444.828
aF260.264
aVp1
p326
aS'dejavusans'
p327
aS'#000000'
p328
aF12.0
aI0
aI00
aI00
aI00
aI00
aI00
aI00
aI00
aI00
aa(lp329
I89480
aF485.316
aF260.264
aVp1
p330
aS'dejavusans'
p331
aS'#000000'
p332
aF12.0
aI0
aI00
aI00
aI00
aI00
aI00
aI00
aI00
aI00
aa(lp333
I234378
aF501.216
aF260.264
aVp1
p334
aS'dejavusans'
p335
aS'#000000'
p336
aF12.0
aI0
aI00
aI00
aI00
aI00
aI00
aI00
aI00
aI00
aa(lp337
I166593
aF558.18
aF260.264
aVp1
p338
aS'dejavusans'
p339
aS'#000000'
p340
aF12.0
aI0
aI00
aI00
aI00
aI00
aI00
aI00
aI00
aI00
aa(lp341
I162530
aF81.6
aF274.864
aVp1
p342
aS'dejavusans'
p343
aS'#000000'
p344
aF12.0
aI0
aI00
aI00
aI00
aI00
aI00
aI00
aI00
aI00
aa(lp345
I234378
aF153.252
aF274.864
aVp1
p346
aS'dejavusans'
p347
aS'#000000'
p348
aF12.0
aI0
aI00
aI00
aI00
aI00
aI00
aI00
aI00
aI00
aa(lp349
I234378
aF205.13466666666667
aF274.864
ag346
aS'dejavusans'
p350
aS'#000000'
p351
aF12.0
aI0
aI00
aI00
aI00
aI00
aI00
aI00
aI00
aI00
aa(lp352
I34923
aF81.6
aF289.864
aVp1
p353
aS'dejavusans'
p354
aS'#000000'
p355
aF12.0
aI0
aI01
aI00
aI00
aI00
aI00
aI00
aI00
aI00
aa(lp356
I135639
aF159.924
aF289.864
aVp1
p357
aS'dejavusans'
p358
aS'#000000'
p359
aF12.0
aI0
aI00
aI00
aI00
aI00
aI00
aI00
aI00
aI00
aa(lp360
I123583
aF174.624
aF289.864
aVp1
p361
aS'dejavusans'
p362
aS'#000000'
p363
aF12.0
aI0
aI00
aI00
aI00
aI00
aI00
aI00
aI00
aI00
aa(lp364
I135639
aF226.08
aF289.864
aVp1
p365
aS'dejavusans'
p366
aS'#000000'
p367
aF12.0
aI0
aI00
aI00
aI00
aI00
aI00
aI00
aI00
aI00
aa(lp368
I51660
aF240.78
aF289.864
aVp1
p369
aS'dejavusans'
p370
aS'#000000'
p371
aF12.0
aI0
aI01
aI01
aI00
aI00
aI00
aI00
aI00
aI00
aa(lp372
I210461
aF279.648
aF289.864
aVp1
p373
aS'dejavusans'
p374
aS'#000000'
p375
aF12.0
aI0
aI00
aI00
aI00
aI00
aI00
aI00
aI00
aI00
aa(lp376
I85218
aF314.628
aF289.864
aVp1
p377
aS'dejavusans'
p378
aS'#000000'
p379
aF12.0
aI0
aI00
aI00
aI00
aI00
aI00
aI00
aI00
aI00
aa(lp380
I234378
aF341.016
aF289.864
aVp1
p381
aS'dejavusans'
p382
aS'#000000'
p383
aF12.0
aI0
aI01
aI01
aI00
aI00
aI00
aI00
aI00
aI00
aa(lp384
I227583
aF393.888
aF289.864
aVp1
p385
aS'dejavusans'
p386
aS'#000000'
p387
aF12.0
aI0
aI00
aI00
aI00
aI00
aI00
aI00
aI00
aI00
aa(lp388
I234378
aF448.3413333333333
aF289.864
ag385
aS'dejavusans'
p389
aS'#000000'
p390
aF12.0
aI0
aI00
aI00
aI00
aI00
aI00
aI00
aI00
aI00
aa(lp391
I149270
aF40.2
aF317.22
aVp1
p392
aS'dejavusans'
p393
aS'#000000'
p394
aF10.0
aI1
aI01
aI00
aI00
aI00
aI00
aI00
aI00
aI00
aa(lp395
I234378
aF95.66
aF317.22
aVp1
p396
aS'dejavusans'
p397
aS'#000000'
p398
aF10.0
aI1
aI01
aI00
aI00
aI00
aI00
aI00
aI00
aI00
aa(lp399
I69610
aF45.6
aF329.364
aVp1
p400
aS'dejavusans'
p401
aS'#000000'
p402
aF12.0
aI0
aI01
aI00
aI00
aI00
aI00
aI00
aI00
aI00
aa(lp403
I234378
aF95.76
aF329.364
aVp1
p404
aS'dejavusans'
p405
aS'#000000'
p406
aF12.0
aI0
aI01
aI00
aI00
aI00
aI00
aI00
aI00
aI00
aa(lp407
I84662
aF180.3
aF329.364
aVp1
p408
aS'dejavusans'
p409
aS'#000000'
p410
aF12.0
aI0
aI01
aI00
aI00
aI00
aI00
aI00
aI00
aI00
aa(lp411
I21716
aF211.872
aF329.364
aVp1
p412
aS'dejavusans'
p413
aS'#000000'
p414
aF12.0
aI0
aI01
aI00
aI00
aI00
aI00
aI00
aI00
aI00
aa(lp415
I234378
aF235.2192
aF329.364
ag412
aS'dejavusans'
p416
aS'#000000'
p417
aF12.0
aI0
aI00
aI00
aI00
aI00
aI00
aI00
aI00
aI00
aa(lp418
I234378
aF244.86
aF329.364
aVp1
p419
aS'dejavusans'
p420
aS'#000000'
p421
aF12.0
aI0
aI01
aI00
aI00
aI00
aI00
aI00
aI00
aI00
aa(lp422
I234378
aF275.6275
aF329.364
ag419
aS'dejavusans'
p423
aS'#000000'
p424
aF12.0
aI0
aI00
aI00
aI00
aI00
aI00
aI00
aI00
aI00
aa(lp425
I234378
aF329.209
aF329.364
ag419
aS'dejavusans'
p426
aS'#000000'
p427
aF12.0
aI0
aI00
aI00
aI00
aI00
aI00
aI00
aI00
aI00
aa(lp428
I148996
aF344.004
aF329.364
aVp1
p429
aS'dejavusans'
p430
aS'#000000'
p431
aF12.0
aI0
aI01
aI00
aI00
aI00
aI00
aI00
aI00
aI00
aa(lp432
I234378
aF386.484
aF329.364
aVp1
p433
aS'dejavusans'
p434
aS'#000000'
p435
aF12.0
aI0
aI00
aI00
aI00
aI00
aI00
aI00
aI00
aI00
aa(lp436
I84662
aF392.512
aF329.364
ag433
aS'dejavusans'
p437
aS'#000000'
p438
aF12.0
aI0
aI01
aI00
aI00
aI00
aI00
aI00
aI00
aI00
aa(lp439
I234378
aF416.624
aF329.364
ag433
aS'dejavusans'
p440
aS'#000000'
p441
aF12.0
aI0
aI00
aI00
aI00
aI00
aI00
aI00
aI00
aI00
aa(lp442
I141687
aF426.54
aF329.364
aVp1
p443
aS'dejavusans'
p444
aS'#000000'
p445
aF12.0
aI0
aI01
aI00
aI00
aI00
aI00
aI00
aI00
aI00
aa(lp446
I234378
aF490.505
aF329.364
ag443
aS'dejavusans'
p447
aS'#000000'
p448
aF12.0
aI0
aI00
aI00
aI00
aI00
aI00
aI00
aI00
aI00
aa(lp449
I50998
aF500.304
aF329.364
aVp1
p450
aS'dejavusans'
p451
aS'#000000'
p452
aF12.0
aI0
aI01
aI00
aI00
aI00
aI00
aI00
aI00
aI00
aa(lp453
I234378
aF532.204
aF329.364
ag450
aS'dejavusans'
p454
aS'#000000'
p455
aF12.0
aI0
aI00
aI00
aI00
aI00
aI00
aI00
aI00
aI00
aa(lp456
I234378
aF180.3
aF343.364
aVp1
p457
aS'dejavusans'
p458
aS'#000000'
p459
aF12.0
aI0
aI01
aI01
aI00
aI00
aI00
aI00
aI00
aI00
aa(lp460
I234378
aF203.38500000000002
aF343.364
ag457
aS'dejavusans'
p461
aS'#000000'
p462
aF12.0
aI0
aI00
aI00
aI00
aI00
aI00
aI00
aI00
aI00
aa(lp463
I234378
aF214.884
aF343.364
aVp1
p464
aS'dejavusans'
p465
aS'#000000'
p466
aF12.0
aI0
aI01
aI01
aI00
aI00
aI00
aI00
aI00
aI00
aa(lp467
I20488
aF247.884
aF343.364
aVp1
p468
aS'dejavusans'
p469
aS'#000000'
p470
aF12.0
aI0
aI01
aI00
aI00
aI00
aI00
aI00
aI00
aI00
aa(lp471
I234378
aF299.852
aF343.364
ag468
aS'dejavusans'
p472
aS'#000000'
p473
aF12.0
aI0
aI00
aI00
aI00
aI00
aI00
aI00
aI00
aI00
aa(lp474
I21605
aF310.236
aF343.364
aVp1
p475
aS'dejavusans'
p476
aS'#000000'
p477
aF12.0
aI0
aI01
aI00
aI00
aI00
aI00
aI00
aI00
aI00
aa(lp478
I85218
aF382.596
aF343.364
aVp1
p479
aS'dejavusans'
p480
aS'#000000'
p481
aF12.0
aI0
aI00
aI00
aI00
aI00
aI00
aI00
aI00
aI00
aa(lp482
I234378
aF408.984
aF343.364
aVp1
p483
aS'dejavusans'
p484
aS'#000000'
p485
aF12.0
aI0
aI01
aI01
aI00
aI00
aI00
aI00
aI00
aI00
aa(lp486
I234378
aF428.83439999999996
aF343.364
ag483
aS'dejavusans'
p487
aS'#000000'
p488
aF12.0
aI0
aI00
aI00
aI00
aI00
aI00
aI00
aI00
aI00
aa(lp489
I234378
aF435.4512
aF343.364
ag483
aS'dejavusans'
p490
aS'#000000'
p491
aF12.0
aI0
aI00
aI00
aI00
aI00
aI00
aI00
aI00
aI00
aa(lp492
I176767
aF445.956
aF343.364
aVp1
p493
aS'dejavusans'
p494
aS'#000000'
p495
aF12.0
aI0
aI01
aI00
aI00
aI00
aI00
aI00
aI00
aI00
aa(lp496
I234378
aF502.548
aF343.364
ag493
aS'dejavusans'
p497
aS'#000000'
p498
aF12.0
aI0
aI00
aI00
aI00
aI00
aI00
aI00
aI00
aI00
aa(lp499
I17350
aF512.724
aF343.364
aVp1
p500
aS'dejavusans'
p501
aS'#000000'
p502
aF12.0
aI0
aI01
aI00
aI00
aI00
aI00
aI00
aI00
aI00
aa(lp503
I234378
aF180.3
aF357.364
aVp1
p504
aS'dejavusans'
p505
aS'#000000'
p506
aF12.0
aI0
aI01
aI00
aI00
aI00
aI00
aI00
aI00
aI00
aa(lp507
I234378
aF234.648
aF357.364
aVp1
p508
aS'dejavusans'
p509
aS'#000000'
p510
aF12.0
aI0
aI00
aI00
aI00
aI00
aI00
aI00
aI00
aI00
aa(lp511
I106895
aF241.5648
aF357.364
ag508
aS'dejavusans'
p512
aS'#000000'
p513
aF12.0
aI0
aI01
aI00
aI00
aI00
aI00
aI00
aI00
aI00
aa(lp514
I89217
aF286.224
aF357.364
aVp1
p515
aS'dejavusans'
p516
aS'#000000'
p517
aF12.0
aI0
aI01
aI00
aI00
aI00
aI00
aI00
aI00
aI00
aa(lp518
I234378
aF309.28
aF357.364
ag515
aS'dejavusans'
p519
aS'#000000'
p520
aF12.0
aI0
aI00
aI00
aI00
aI00
aI00
aI00
aI00
aI00
aa(lp521
I234378
aF315.044
aF357.364
ag515
aS'dejavusans'
p522
aS'#000000'
p523
aF12.0
aI0
aI00
aI00
aI00
aI00
aI00
aI00
aI00
aI00
aa(lp524
I234378
aF324.696
aF357.364
aVp1
p525
aS'dejavusans'
p526
aS'#000000'
p527
aF12.0
aI0
aI01
aI01
aI00
aI00
aI00
aI00
aI00
aI00
aa(lp528
I234378
aF345.30600000000004
aF357.364
ag525
aS'dejavusans'
p529
aS'#000000'
p530
aF12.0
aI0
aI00
aI00
aI00
aI00
aI00
aI00
aI00
aI00
aa(lp531
I234378
aF356.064
aF357.364
aVp1
p532
aS'dejavusans'
p533
aS'#000000'
p534
aF12.0
aI0
aI01
aI01
aI00
aI00
aI00
aI00
aI00
aI00
aa(lp535
I234378
aF375.036
aF357.364
ag532
aS'dejavusans'
p536
aS'#000000'
p537
aF12.0
aI0
aI00
aI00
aI00
aI00
aI00
aI00
aI00
aI00
aa(lp538
I234378
aF385.164
aF357.364
aVp1
p539
aS'dejavusans'
p540
aS'#000000'
p541
aF12.0
aI0
aI01
aI00
aI00
aI00
aI00
aI00
aI00
aI00
aa(lp542
I96401
aF45.6
aF374.864
aVp1
p543
aS'dejavusans'
p544
aS'#000000'
p545
aF12.0
aI0
aI01
aI00
aI00
aI00
aI00
aI00
aI00
aI00
aa(lp546
I234378
aF112.944
aF374.864
aVp1
p547
aS'dejavusans'
p548
aS'#000000'
p549
aF12.0
aI0
aI01
aI00
aI00
aI00
aI00
aI00
aI00
aI00
aa(lp550
I234378
aF180.3
aF371.864
aVp1
p551
aS'dejavusans'
p552
aS'#000000'
p553
aF12.0
aI0
aI01
aI00
aI00
aI00
aI00
aI00
aI00
aI00
aa(lp554
I234378
aF219.984
aF371.864
aVp1
p555
aS'dejavusans'
p556
aS'#000000'
p557
aF12.0
aI0
aI00
aI00
aI01
aI01
aI00
aI00
aI00
aI00
aa(lp558
I234378
aF225.684
aF371.864
ag555
aS'dejavusans'
p559
aS'#000000'
p560
aF12.0
aI0
aI00
aI00
aI00
aI00
aI00
aI00
aI00
aI00
aa(lp561
I234378
aF231.384
aF371.864
ag555
aS'dejavusans'
p562
aS'#000000'
p563
aF12.0
aI0
aI00
aI00
aI01
aI01
aI00
aI00
aI00
aI00
aa(lp564
I234378
aF237.08399999999997
aF371.864
ag555
aS'dejavusans'
p565
aS'#000000'
p566
aF12.0
aI0
aI00
aI00
aI00
aI00
aI00
aI00
aI00
aI00
aa(lp567
I234378
aF246.672
aF371.864
aVp1
p568
aS'dejavusans'
p569
aS'#000000'
p570
aF12.0
aI0
aI01
aI00
aI00
aI00
aI00
aI00
aI00
aI00
aa(lp571
I234378
aF286.1835
aF371.864
ag568
aS'dejavusans'
p572
aS'#000000'
p573
aF12.0
aI0
aI00
aI00
aI00
aI00
aI00
aI00
aI00
aI00
aa(lp574
I234378
aF295.716
aF371.864
aVp1
p575
aS'dejavusans'
p576
aS'#000000'
p577
aF12.0
aI0
aI01
aI00
aI00
aI00
aI00
aI00
aI00
aI00
aa(lp578
I234378
aF320.1768
aF371.864
ag575
aS'dejavusans'
p579
aS'#000000'
p580
aF12.0
aI0
aI00
aI00
aI00
aI00
aI00
aI00
aI00
aI00
aa(lp581
I234378
aF330.18
aF371.864
aVp1
p582
aS'dejavusans'
p583
aS'#000000'
p584
aF12.0
aI0
aI01
aI01
aI00
aI00
aI00
aI00
aI00
aI00
aa(lp585
I234378
aF348.45446153846154
aF371.864
ag582
aS'dejavusans'
p586
aS'#000000'
p587
aF12.0
aI0
aI01
aI00
aI00
aI00
aI00
aI00
aI00
aI00
aa(lp588
I234378
aF394.5196923076923
aF371.864
ag582
aS'dejavusans'
p589
aS'#000000'
p590
aF12.0
aI0
aI00
aI00
aI00
aI00
aI00
aI00
aI00
aI00
aa(lp591
I234378
aF408.924
aF371.864
aVp1
p592
aS'dejavusans'
p593
aS'#000000'
p594
aF12.0
aI0
aI01
aI01
aI00
aI00
aI00
aI00
aI00
aI00
aa(lp595
I234378
aF430.659
aF371.864
ag592
aS'dejavusans'
p596
aS'#000000'
p597
aF12.0
aI0
aI00
aI00
aI00
aI00
aI00
aI00
aI00
aI00
aa(lp598
I234378
aF441.708
aF371.864
aVp1
p599
aS'dejavusans'
p600
aS'#000000'
p601
aF12.0
aI0
aI01
aI00
aI00
aI00
aI00
aI00
aI00
aI00
aa(lp602
I234378
aF478.01800000000003
aF371.864
ag599
aS'dejavusans'
p603
aS'#000000'
p604
aF12.0
aI0
aI00
aI00
aI00
aI00
aI00
aI00
aI00
aI00
aa(lp605
I234378
aF489.168
aF371.864
aVp1
p606
aS'dejavusans'
p607
aS'#000000'
p608
aF12.0
aI0
aI01
aI01
aI00
aI00
aI00
aI00
aI00
aI00
aa(lp609
I234378
aF512.256
aF371.864
aVp1
p610
aS'dejavusans'
p611
aS'#000000'
p612
aF12.0
aI0
aI00
aI00
aI00
aI00
aI00
aI00
aI00
aI00
aa(lp613
I234378
aF519.086
aF371.864
ag610
aS'dejavusans'
p614
aS'#000000'
p615
aF12.0
aI0
aI01
aI01
aI00
aI00
aI00
aI00
aI00
aI00
aa(lp616
I234378
aF539.576
aF371.864
ag610
aS'dejavusans'
p617
aS'#000000'
p618
aF12.0
aI0
aI00
aI00
aI00
aI00
aI00
aI00
aI00
aI00
aa(lp619
I234378
aF546.4060000000001
aF371.864
ag610
aS'dejavusans'
p620
aS'#000000'
p621
aF12.0
aI0
aI00
aI00
aI00
aI00
aI00
aI00
aI00
aI00
aa(lp622
I234378
aF180.3
aF385.864
aVp1
p623
aS'dejavusans'
p624
aS'#000000'
p625
aF12.0
aI0
aI01
aI00
aI00
aI00
aI00
aI00
aI00
aI00
aa(lp626
I123665
aF45.6
aF400.364
aVp1
p627
aS'dejavusans'
p628
aS'#000000'
p629
aF12.0
aI0
aI01
aI00
aI00
aI00
aI00
aI00
aI00
aI00
aa(lp630
I234378
aF116.46
aF400.364
aVp1
p631
aS'dejavusans'
p632
aS'#000000'
p633
aF12.0
aI0
aI01
aI00
aI00
aI00
aI00
aI00
aI00
aI00
aa(lp634
I234378
aF180.3
aF400.364
aVp1
p635
aS'dejavusans'
p636
aS'#000000'
p637
aF12.0
aI0
aI01
aI00
aI00
aI00
aI00
aI00
aI00
aI00
aa(lp638
I234378
aF231.916
aF400.364
ag635
aS'dejavusans'
p639
aS'#000000'
p640
aF12.0
aI0
aI00
aI00
aI00
aI00
aI00
aI00
aI00
aI00
aa(lp641
I110786
aF242.256
aF400.364
aVp1
p642
aS'dejavusans'
p643
aS'#000000'
p644
aF12.0
aI0
aI01
aI00
aI00
aI00
aI00
aI00
aI00
aI00
aa(lp645
I234378
aF282.25714285714287
aF400.364
ag642
aS'dejavusans'
p646
aS'#000000'
p647
aF12.0
aI0
aI00
aI00
aI00
aI00
aI00
aI00
aI00
aI00
aa(lp648
I234378
aF292.896
aF400.364
aVp1
p649
aS'dejavusans'
p650
aS'#000000'
p651
aF12.0
aI0
aI01
aI00
aI00
aI00
aI00
aI00
aI00
aI00
aa(lp652
I234378
aF322.37600000000003
aF400.364
ag649
aS'dejavusans'
p653
aS'#000000'
p654
aF12.0
aI0
aI00
aI00
aI00
aI00
aI00
aI00
aI00
aI00
aa(lp655
I234378
aF332.076
aF400.364
aVp1
p656
aS'dejavusans'
p657
aS'#000000'
p658
aF12.0
aI0
aI01
aI00
aI00
aI00
aI00
aI00
aI00
aI00
aa(lp659
I234378
aF45.6
aF418.164
aVp1
p660
aS'dejavusans'
p661
aS'#000000'
p662
aF12.0
aI0
aI01
aI00
aI00
aI00
aI00
aI00
aI00
aI00
aa(lp663
I148996
aF180.3
aF418.164
aVp1
p664
aS'dejavusans'
p665
aS'#000000'
p666
aF12.0
aI0
aI01
aI00
aI00
aI00
aI00
aI00
aI00
aI00
aa(lp667
I83999
aF222.876
aF418.164
aVp1
p668
aS'dejavusans'
p669
aS'#000000'
p670
aF12.0
aI0
aI01
aI00
aI00
aI00
aI00
aI00
aI00
aI00
aa(lp671
I234378
aF258.7834285714286
aF418.164
ag668
aS'dejavusans'
p672
aS'#000000'
p673
aF12.0
aI0
aI00
aI00
aI00
aI00
aI00
aI00
aI00
aI00
aa(lp674
I234378
aF268.656
aF418.164
aVp1
p675
aS'dejavusans'
p676
aS'#000000'
p677
aF12.0
aI0
aI01
aI00
aI00
aI00
aI00
aI00
aI00
aI00
aa(lp678
I234378
aF331.35054545454545
aF418.164
ag675
aS'dejavusans'
p679
aS'#000000'
p680
aF12.0
aI0
aI00
aI00
aI00
aI00
aI00
aI00
aI00
aI00
aa(lp681
I223319
aF341.508
aF418.164
aVp1
p682
aS'dejavusans'
p683
aS'#000000'
p684
aF12.0
aI0
aI01
aI00
aI00
aI00
aI00
aI00
aI00
aI00
aa(lp685
I234378
aF381.6285
aF418.164
ag682
aS'dejavusans'
p686
aS'#000000'
p687
aF12.0
aI0
aI00
aI00
aI00
aI00
aI00
aI00
aI00
aI00
aa(lp688
I234378
aF391.248
aF418.164
aVp1
p689
aS'dejavusans'
p690
aS'#000000'
p691
aF12.0
aI0
aI01
aI01
aI00
aI00
aI00
aI00
aI00
aI00
aa(lp692
I234378
aF423.9552
aF418.164
ag689
aS'dejavusans'
p693
aS'#000000'
p694
aF12.0
aI0
aI00
aI00
aI00
aI00
aI00
aI00
aI00
aI00
aa(lp695
I234378
aF435.936
aF418.164
aVp1
p696
aS'dejavusans'
p697
aS'#000000'
p698
aF12.0
aI0
aI01
aI01
aI00
aI00
aI00
aI00
aI00
aI00
aa(lp699
I109247
aF456.024
aF418.164
aVp1
p700
aS'dejavusans'
p701
aS'#000000'
p702
aF12.0
aI0
aI01
aI00
aI00
aI00
aI00
aI00
aI00
aI00
aa(lp703
I25230
aF502.704
aF418.164
aVp1
p704
aS'dejavusans'
p705
aS'#000000'
p706
aF12.0
aI0
aI01
aI00
aI00
aI00
aI00
aI00
aI00
aI00
aa(lp707
I234378
aF540.5657142857143
aF418.164
ag704
aS'dejavusans'
p708
aS'#000000'
p709
aF12.0
aI0
aI00
aI00
aI00
aI00
aI00
aI00
aI00
aI00
aa(lp710
I64572
aF180.3
aF432.164
aVp1
p711
aS'dejavusans'
p712
aS'#000000'
p713
aF12.0
aI0
aI01
aI00
aI00
aI00
aI00
aI00
aI00
aI00
aa(lp714
I222035
aF215.472
aF432.164
aVp1
p715
aS'dejavusans'
p716
aS'#000000'
p717
aF12.0
aI0
aI01
aI00
aI00
aI00
aI00
aI00
aI00
aI00
aa(lp718
I234378
aF248.122
aF432.164
ag715
aS'dejavusans'
p719
aS'#000000'
p720
aF12.0
aI0
aI00
aI00
aI00
aI00
aI00
aI00
aI00
aI00
aa(lp721
I234378
aF258.456
aF432.164
aVp1
p722
aS'dejavusans'
p723
aS'#000000'
p724
aF12.0
aI0
aI01
aI00
aI00
aI00
aI00
aI00
aI00
aI00
aa(lp725
I234378
aF297.86057142857146
aF432.164
ag722
aS'dejavusans'
p726
aS'#000000'
p727
aF12.0
aI0
aI00
aI00
aI00
aI00
aI00
aI00
aI00
aI00
aa(lp728
I158145
aF308.316
aF432.164
aVp1
p729
aS'dejavusans'
p730
aS'#000000'
p731
aF12.0
aI0
aI01
aI00
aI00
aI00
aI00
aI00
aI00
aI00
aa(lp732
I234378
aF358.176
aF432.164
aVp1
p733
aS'dejavusans'
p734
aS'#000000'
p735
aF12.0
aI0
aI00
aI00
aI00
aI00
aI00
aI00
aI00
aI00
aa(lp736
I184171
aF364.88599999999997
aF432.164
ag733
aS'dejavusans'
p737
aS'#000000'
p738
aF12.0
aI0
aI01
aI00
aI00
aI00
aI00
aI00
aI00
aI00
aa(lp739
I156028
aF442.608
aF432.164
aVp1
p740
aS'dejavusans'
p741
aS'#000000'
p742
aF12.0
aI0
aI00
aI00
aI00
aI00
aI00
aI00
aI00
aI00
aa(lp743
I234378
aF463.336
aF432.164
ag740
aS'dejavusans'
p744
aS'#000000'
p745
aF12.0
aI0
aI00
aI00
aI00
aI00
aI00
aI00
aI00
aI00
aa(lp746
I234378
aF468.51800000000003
aF432.164
ag740
aS'dejavusans'
p747
aS'#000000'
p748
aF12.0
aI0
aI00
aI00
aI00
aI00
aI00
aI00
aI00
aI00
aa(lp749
I234378
aF477.588
aF432.164
aVp1
p750
aS'dejavusans'
p751
aS'#000000'
p752
aF12.0
aI0
aI01
aI01
aI00
aI00
aI00
aI00
aI00
aI00
aa(lp753
I100815
aF180.3
aF446.164
aVp1
p754
aS'dejavusans'
p755
aS'#000000'
p756
aF12.0
aI0
aI01
aI00
aI00
aI00
aI00
aI00
aI00
aI00
aa(lp757
I234378
aF239.12760000000003
aF446.164
ag754
aS'dejavusans'
p758
aS'#000000'
p759
aF12.0
aI0
aI00
aI00
aI00
aI00
aI00
aI00
aI00
aI00
aa(lp760
I129868
aF249.648
aF446.164
aVp1
p761
aS'dejavusans'
p762
aS'#000000'
p763
aF12.0
aI0
aI01
aI00
aI00
aI00
aI00
aI00
aI00
aI00
aa(lp764
I234378
aF274.6752
aF446.164
ag761
aS'dejavusans'
p765
aS'#000000'
p766
aF12.0
aI0
aI00
aI00
aI00
aI00
aI00
aI00
aI00
aI00
aa(lp767
I234378
aF284.82
aF446.164
aVp1
p768
aS'dejavusans'
p769
aS'#000000'
p770
aF12.0
aI0
aI01
aI00
aI00
aI00
aI00
aI00
aI00
aI00
aa(lp771
I234378
aF325.476
aF446.164
ag768
aS'dejavusans'
p772
aS'#000000'
p773
aF12.0
aI0
aI00
aI00
aI00
aI00
aI00
aI00
aI00
aI00
aa(lp774
I1257
aF335.088
aF446.164
aVp1
p775
aS'dejavusans'
p776
aS'#000000'
p777
aF12.0
aI0
aI01
aI00
aI00
aI00
aI00
aI00
aI00
aI00
aa(lp778
I234378
aF367.238
aF446.164
ag775
aS'dejavusans'
p779
aS'#000000'
p780
aF12.0
aI0
aI00
aI00
aI00
aI00
aI00
aI00
aI00
aI00
aa(lp781
I234378
aF377.556
aF446.164
aVp1
p782
aS'dejavusans'
p783
aS'#000000'
p784
aF12.0
aI0
aI01
aI01
aI00
aI00
aI00
aI00
aI00
aI00
aa(lp785
I234378
aF399.00239999999997
aF446.164
ag782
aS'dejavusans'
p786
aS'#000000'
p787
aF12.0
aI0
aI00
aI00
aI00
aI00
aI00
aI00
aI00
aI00
aa(lp788
I804
aF408.348
aF446.164
aVp1
p789
aS'dejavusans'
p790
aS'#000000'
p791
aF12.0
aI0
aI01
aI00
aI00
aI00
aI00
aI00
aI00
aI00
aa(lp792
I234378
aF454.0062857142857
aF446.164
ag789
aS'dejavusans'
p793
aS'#000000'
p794
aF12.0
aI0
aI00
aI00
aI00
aI00
aI00
aI00
aI00
aI00
aa(lp795
I234378
aF465.504
aF446.164
aVp1
p796
aS'dejavusans'
p797
aS'#000000'
p798
aF12.0
aI0
aI01
aI00
aI00
aI00
aI00
aI00
aI00
aI00
aa(lp799
I234378
aF45.6
aF460.664
aVp1
p800
aS'dejavusans'
p801
aS'#000000'
p802
aF12.0
aI0
aI01
aI00
aI00
aI00
aI00
aI00
aI00
aI00
aa(lp803
I45445
aF180.3
aF460.664
aVp1
p804
aS'dejavusans'
p805
aS'#000000'
p806
aF12.0
aI0
aI01
aI00
aI00
aI00
aI00
aI00
aI00
aI00
aa(lp807
I234378
aF223.164
aF460.664
aVp1
p808
aS'dejavusans'
p809
aS'#000000'
p810
aF12.0
aI0
aI00
aI00
aI01
aI00
aI00
aI00
aI00
aI00
aa(lp811
I234378
aF243.10799999999998
aF460.664
ag808
aS'dejavusans'
p812
aS'#000000'
p813
aF12.0
aI0
aI00
aI00
aI00
aI00
aI00
aI00
aI00
aI00
aa(lp814
I45445
aF253.644
aF460.664
aVp1
p815
aS'dejavusans'
p816
aS'#000000'
p817
aF12.0
aI0
aI01
aI00
aI00
aI00
aI00
aI00
aI00
aI00
aa(lp818
I234378
aF296.496
aF460.664
aVp1
p819
aS'dejavusans'
p820
aS'#000000'
p821
aF12.0
aI0
aI00
aI00
aI01
aI00
aI00
aI00
aI00
aI00
aa(lp822
I234378
aF316.44
aF460.664
ag819
aS'dejavusans'
p823
aS'#000000'
p824
aF12.0
aI0
aI00
aI00
aI00
aI00
aI00
aI00
aI00
aI00
aa(lp825
I234378
aF326.976
aF460.664
aVp1
p826
aS'dejavusans'
p827
aS'#000000'
p828
aF12.0
aI0
aI01
aI00
aI00
aI00
aI00
aI00
aI00
aI00
aa(lp829
I234378
aF374.04
aF460.664
aVp1
p830
aS'dejavusans'
p831
aS'#000000'
p832
aF12.0
aI0
aI00
aI00
aI01
aI01
aI01
aI00
aI00
aI00
aa(lp833
I234378
aF386.1984
aF460.664
ag830
aS'dejavusans'
p834
aS'#000000'
p835
aF12.0
aI0
aI00
aI00
aI00
aI00
aI00
aI00
aI00
aI00
aa(lp836
I234378
aF390.2776
aF460.664
ag830
aS'dejavusans'
p837
aS'#000000'
p838
aF12.0
aI0
aI00
aI00
aI01
aI01
aI00
aI00
aI00
aI00
aa(lp839
I234378
aF398.3568
aF460.664
ag830
aS'dejavusans'
p840
aS'#000000'
p841
aF12.0
aI0
aI00
aI00
aI00
aI00
aI00
aI00
aI00
aI00
aa(lp842
I234378
aF408.408
aF460.664
aVp1
p843
aS'dejavusans'
p844
aS'#000000'
p845
aF12.0
aI0
aI01
aI00
aI00
aI00
aI00
aI00
aI00
aI00
aa(lp846
I234378
aF45.6
aF475.664
aVp1
p847
aS'dejavusans'
p848
aS'#000000'
p849
aF12.0
aI0
aI01
aI00
aI00
aI00
aI00
aI00
aI00
aI00
aa(lp850
I234378
aF102.768
aF475.664
aVp1
p851
aS'dejavusans'
p852
aS'#000000'
p853
aF12.0
aI0
aI01
aI00
aI00
aI00
aI00
aI00
aI00
aI00
aa(lp854
I234378
aF180.3
aF475.664
aVp1
p855
aS'dejavusans'
p856
aS'#000000'
p857
aF12.0
aI0
aI01
aI00
aI00
aI00
aI00
aI00
aI00
aI00
aa(lp858
I234378
aF238.35818181818183
aF475.664
ag855
aS'dejavusans'
p859
aS'#000000'
p860
aF12.0
aI0
aI00
aI00
aI00
aI00
aI00
aI00
aI00
aI00
aa(lp861
I234378
aF248.052
aF475.664
aVp1
p862
aS'dejavusans'
p863
aS'#000000'
p864
aF12.0
aI0
aI01
aI01
aI00
aI00
aI00
aI00
aI00
aI00
aa(lp865
I234378
aF277.7928
aF475.664
ag862
aS'dejavusans'
p866
aS'#000000'
p867
aF12.0
aI0
aI00
aI00
aI00
aI00
aI00
aI00
aI00
aI00
aa(lp868
I234378
aF292.92
aF475.664
aVp1
p869
aS'dejavusans'
p870
aS'#000000'
p871
aF12.0
aI0
aI01
aI01
aI00
aI00
aI00
aI00
aI00
aI00
aa(lp872
I234378
aF309.498
aF475.664
ag869
aS'dejavusans'
p873
aS'#000000'
p874
aF12.0
aI0
aI00
aI00
aI00
aI00
aI00
aI00
aI00
aI00
aa(lp875
I218862
aF318.912
aF475.664
aVp1
p876
aS'dejavusans'
p877
aS'#000000'
p878
aF12.0
aI0
aI01
aI00
aI00
aI00
aI00
aI00
aI00
aI00
aa(lp879
I234378
aF351.984
aF475.664
aVp1
p880
aS'dejavusans'
p881
aS'#000000'
p882
aF12.0
aI0
aI01
aI00
aI00
aI00
aI00
aI00
aI00
aI00
aa(lp883
I207986
aF45.6
aF490.164
aVp1
p884
aS'dejavusans'
p885
aS'#000000'
p886
aF12.0
aI0
aI01
aI00
aI00
aI00
aI00
aI00
aI00
aI00
aa(lp887
I234378
aF107.364
aF490.164
aVp1
p888
aS'dejavusans'
p889
aS'#000000'
p890
aF12.0
aI0
aI00
aI00
aI00
aI00
aI00
aI00
aI00
aI00
aa(lp891
I234378
aF45.6
aF504.164
aVp1
p892
aS'dejavusans'
p893
aS'#000000'
p894
aF12.0
aI0
aI01
aI00
aI00
aI00
aI00
aI00
aI00
aI00
aa(lp895
I234378
aF180.3
aF490.164
aVp1
p896
aS'dejavusans'
p897
aS'#000000'
p898
aF12.0
aI0
aI01
aI00
aI00
aI00
aI00
aI00
aI00
aI00
aa(lp899
I234378
aF230.42700000000002
aF490.164
ag896
aS'dejavusans'
p900
aS'#000000'
p901
aF12.0
aI0
aI00
aI00
aI00
aI00
aI00
aI00
aI00
aI00
aa(lp902
I234378
aF241.476
aF490.164
aVp1
p903
aS'dejavusans'
p904
aS'#000000'
p905
aF12.0
aI0
aI01
aI01
aI00
aI00
aI00
aI00
aI00
aI00
aa(lp906
I234378
aF274.776
aF490.164
ag903
aS'dejavusans'
p907
aS'#000000'
p908
aF12.0
aI0
aI00
aI00
aI00
aI00
aI00
aI00
aI00
aI00
aa(lp909
I234378
aF285.324
aF490.164
aVp1
p910
aS'dejavusans'
p911
aS'#000000'
p912
aF12.0
aI0
aI01
aI00
aI00
aI00
aI00
aI00
aI00
aI00
aa(lp913
I51933
aF41.9
aF530.264
aVp1
p914
aS'dejavusans'
p915
aS'#000000'
p916
aF12.0
aI1
aI01
aI01
aI00
aI00
aI00
aI00
aI00
aI00
aa(lp917
I60220
aF88.076
aF530.264
aVp1
p918
aS'dejavusans'
p919
aS'#000000'
p920
aF12.0
aI1
aI01
aI01
aI00
aI00
aI00
aI00
aI00
aI00
aa(lp921
I234378
aF175.688
aF530.264
aVp1
p922
aS'dejavusans'
p923
aS'#000000'
p924
aF12.0
aI1
aI00
aI00
aI00
aI00
aI00
aI00
aI00
aI00
aa(lp925
I234378
aF184.58
aF530.264
aVp1
p926
aS'dejavusans'
p927
aS'#000000'
p928
aF12.0
aI1
aI00
aI00
aI01
aI01
aI00
aI00
aI00
aI00
aa(lp929
I234378
aF197.156
aF530.264
aVp1
p930
aS'dejavusans'
p931
aS'#000000'
p932
aF12.0
aI1
aI00
aI00
aI00
aI00
aI00
aI00
aI00
aI00
aa(lp933
I85218
aF238.424
aF530.264
aVp1
p934
aS'dejavusans'
p935
aS'#000000'
p936
aF12.0
aI1
aI00
aI00
aI00
aI00
aI00
aI00
aI00
aI00
aa(lp937
I234378
aF267.788
aF530.264
aVp1
p938
aS'dejavusans'
p939
aS'#000000'
p940
aF12.0
aI1
aI00
aI00
aI01
aI01
aI00
aI00
aI00
aI00
aa(lp941
I234378
aF280.28
aF530.264
aVp1
p942
aS'dejavusans'
p943
aS'#000000'
p944
aF12.0
aI1
aI01
aI00
aI00
aI00
aI00
aI00
aI00
aI00
aa(lp945
I234378
aF53.3
aF558.264
aVp1
p946
aS'dejavusans'
p947
aS'#000000'
p948
aF12.0
aI1
aI01
aI00
aI00
aI00
aI00
aI00
aI00
aI00
aa(lp949
I234378
aF91.868
aF558.264
aVp1
p950
aS'dejavusans'
p951
aS'#000000'
p952
aF12.0
aI1
aI01
aI00
aI00
aI00
aI00
aI00
aI00
aI00
aa(lp953
I43052
aF157.016
aF558.264
aVp1
p954
aS'dejavusans'
p955
aS'#000000'
p956
aF12.0
aI1
aI01
aI00
aI00
aI00
aI00
aI00
aI00
aI00
aa(lp957
I123669
aF53.3
aF572.264
aVp1
p958
aS'dejavusans'
p959
aS'#000000'
p960
aF12.0
aI1
aI01
aI00
aI00
aI00
aI00
aI00
aI00
aI00
aa(lp961
I234378
aF131.4309090909091
aF572.264
ag958
aS'dejavusans'
p962
aS'#000000'
p963
aF12.0
aI1
aI00
aI00
aI00
aI00
aI00
aI00
aI00
aI00
aa(lp964
I89958
aF143.6
aF572.264
aVp1
p965
aS'dejavusans'
p966
aS'#000000'
p967
aF12.0
aI0
aI01
aI00
aI00
aI00
aI00
aI00
aI00
aI00
aa(lp968
I89347
aF209.252
aF572.264
aVp1
p969
aS'dejavusans'
p970
aS'#000000'
p971
aF12.0
aI0
aI01
aI00
aI00
aI00
aI00
aI00
aI00
aI00
aa(lp972
I234378
aF265.604
aF572.264
aVp1
p973
aS'dejavusans'
p974
aS'#000000'
p975
aF12.0
aI0
aI01
aI00
aI00
aI00
aI00
aI00
aI00
aI00
aa(lp976
I104542
aF53.3
aF586.264
aVp1
p977
aS'dejavusans'
p978
aS'#000000'
p979
aF12.0
aI1
aI01
aI00
aI00
aI00
aI00
aI00
aI00
aI00
aa(lp980
I234378
aF131.994
aF586.264
ag977
aS'dejavusans'
p981
aS'#000000'
p982
aF12.0
aI1
aI00
aI00
aI00
aI00
aI00
aI00
aI00
aI00
aa(lp983
I55966
aF143.5
aF586.264
aVp1
p984
aS'dejavusans'
p985
aS'#000000'
p986
aF12.0
aI0
aI01
aI00
aI00
aI00
aI00
aI00
aI00
aI00
aa(lp987
I234378
aF185.476
aF586.264
aVp1
p988
aS'dejavusans'
p989
aS'#000000'
p990
aF12.0
aI0
aI00
aI00
aI00
aI00
aI00
aI00
aI00
aI00
aa(lp991
I132100
aF240.832
aF586.264
aVp1
p992
aS'dejavusans'
p993
aS'#000000'
p994
aF12.0
aI0
aI00
aI00
aI00
aI00
aI00
aI00
aI00
aI00
aa(lp995
I120031
aF53.3
aF600.264
aVp1
p996
aS'dejavusans'
p997
aS'#000000'
p998
aF12.0
aI1
aI01
aI00
aI00
aI00
aI00
aI00
aI00
aI00
aa(lp999
I234378
aF109.972
aF600.264
ag996
aS'dejavusans'
p1000
aS'#000000'
p1001
aF12.0
aI1
aI00
aI00
aI00
aI00
aI00
aI00
aI00
aI00
aa(lp1002
I131049
aF121.4
aF600.264
aVp1
p1003
aS'dejavusans'
p1004
aS'#000000'
p1005
aF12.0
aI0
aI01
aI00
aI00
aI00
aI00
aI00
aI00
aI00
aa(lp1006
I37515
aF154.988
aF600.264
aVp1
p1007
aS'dejavusans'
p1008
aS'#000000'
p1009
aF12.0
aI0
aI01
aI00
aI00
aI00
aI00
aI00
aI00
aI01
aa(lp1010
I234378
aF183.572
aF600.264
aVp1
p1011
aS'dejavusans'
p1012
aS'#000000'
p1013
aF12.0
aI0
aI00
aI00
aI01
aI01
aI01
aI00
aI00
aI00
aa(lp1014
I89480
aF217.856
aF600.264
aVp1
p1015
aS'dejavusans'
p1016
aS'#000000'
p1017
aF12.0
aI0
aI00
aI00
aI00
aI00
aI00
aI00
aI00
aI00
aa(lp1018
I36403
aF233.756
aF600.264
aVp1
p1019
aS'dejavusans'
p1020
aS'#000000'
p1021
aF12.0
aI0
aI00
aI00
aI00
aI00
aI00
aI00
aI00
aI00
aa(lp1022
I132955
aF252.248
aF600.264
aVp1
p1023
aS'dejavusans'
p1024
aS'#000000'
p1025
aF12.0
aI0
aI00
aI00
aI00
aI00
aI00
aI00
aI00
aI00
aa(lp1026
I234378
aF53.3
aF628.264
aVp1
p1027
aS'dejavusans'
p1028
aS'#000000'
p1029
aF12.0
aI1
aI01
aI00
aI00
aI00
aI00
aI00
aI00
aI00
aa(lp1030
I234378
aF125.768
aF628.264
aVp1
p1031
aS'dejavusans'
p1032
aS'#000000'
p1033
aF12.0
aI1
aI01
aI00
aI00
aI00
aI00
aI00
aI00
aI00
aa(lp1034
I83140
aF193.244
aF628.264
aVp1
p1035
aS'dejavusans'
p1036
aS'#000000'
p1037
aF12.0
aI1
aI01
aI00
aI00
aI00
aI00
aI00
aI00
aI00
aa(lp1038
I40036
aF246.02
aF628.264
aVp1
p1039
aS'dejavusans'
p1040
aS'#000000'
p1041
aF12.0
aI1
aI01
aI00
aI00
aI00
aI00
aI00
aI00
aI00
aa(lp1042
I123669
aF53.3
aF642.264
aVp1
p1043
aS'dejavusans'
p1044
aS'#000000'
p1045
aF12.0
aI1
aI01
aI00
aI00
aI00
aI00
aI00
aI00
aI00
aa(lp1046
I234378
aF130.87454545454545
aF642.264
ag1043
aS'dejavusans'
p1047
aS'#000000'
p1048
aF12.0
aI1
aI00
aI00
aI00
aI00
aI00
aI00
aI00
aI00
aa(lp1049
I89347
aF142.496
aF642.264
aVp1
p1050
aS'dejavusans'
p1051
aS'#000000'
p1052
aF12.0
aI0
aI01
aI00
aI00
aI00
aI00
aI00
aI00
aI00
aa(lp1053
I234378
aF198.764
aF642.264
aVp1
p1054
aS'dejavusans'
p1055
aS'#000000'
p1056
aF12.0
aI0
aI00
aI00
aI00
aI00
aI00
aI00
aI00
aI00
aa(lp1057
I104542
aF53.3
aF656.264
aVp1
p1058
aS'dejavusans'
p1059
aS'#000000'
p1060
aF12.0
aI1
aI01
aI00
aI00
aI00
aI00
aI00
aI00
aI00
aa(lp1061
I234378
aF131.42933333333332
aF656.264
ag1058
aS'dejavusans'
p1062
aS'#000000'
p1063
aF12.0
aI1
aI00
aI00
aI00
aI00
aI00
aI00
aI00
aI00
aa(lp1064
I43052
aF146.2
aF656.264
aVp1
p1065
aS'dejavusans'
p1066
aS'#000000'
p1067
aF12.0
aI0
aI01
aI00
aI00
aI00
aI00
aI00
aI00
aI00
aa(lp1068
I29568
aF217.132
aF656.264
aVp1
p1069
aS'dejavusans'
p1070
aS'#000000'
p1071
aF12.0
aI0
aI01
aI00
aI00
aI00
aI00
aI00
aI00
aI00
aa(lp1072
I120031
aF53.3
aF670.264
aVp1
p1073
aS'dejavusans'
p1074
aS'#000000'
p1075
aF12.0
aI1
aI01
aI00
aI00
aI00
aI00
aI00
aI00
aI00
aa(lp1076
I234378
aF109.41733333333333
aF670.264
ag1073
aS'dejavusans'
p1077
aS'#000000'
p1078
aF12.0
aI1
aI00
aI00
aI00
aI00
aI00
aI00
aI00
aI00
aa(lp1079
I131049
aF120.296
aF670.264
aVp1
p1080
aS'dejavusans'
p1081
aS'#000000'
p1082
aF12.0
aI0
aI01
aI00
aI00
aI00
aI00
aI00
aI00
aI00
aa(lp1083
I177494
aF153.776
aF670.264
aVp1
p1084
aS'dejavusans'
p1085
aS'#000000'
p1086
aF12.0
aI0
aI01
aI00
aI00
aI00
aI00
aI00
aI00
aI01
aa(lp1087
I234378
aF220.016
aF670.264
aVp1
p1088
aS'dejavusans'
p1089
aS'#000000'
p1090
aF12.0
aI0
aI00
aI00
aI01
aI01
aI01
aI00
aI00
aI00
aa(lp1091
I89480
aF254.3
aF670.264
aVp1
p1092
aS'dejavusans'
p1093
aS'#000000'
p1094
aF12.0
aI0
aI00
aI00
aI00
aI00
aI00
aI00
aI00
aI00
aa(lp1095
I131472
aF270.2
aF670.264
aVp1
p1096
aS'dejavusans'
p1097
aS'#000000'
p1098
aF12.0
aI0
aI01
aI00
aI00
aI00
aI00
aI00
aI00
aI01
aa(lp1099
I234378
aF301.376
aF670.264
aVp1
p1100
aS'dejavusans'
p1101
aS'#000000'
p1102
aF12.0
aI0
aI00
aI00
aI01
aI01
aI01
aI00
aI00
aI00
aa(lp1103
I42284
aF53.3
aF698.264
aVp1
p1104
aS'dejavusans'
p1105
aS'#000000'
p1106
aF12.0
aI1
aI01
aI00
aI00
aI00
aI00
aI00
aI00
aI00
aa(lp1107
I43052
aF125.024
aF698.264
aVp1
p1108
aS'dejavusans'
p1109
aS'#000000'
p1110
aF12.0
aI1
aI01
aI00
aI00
aI00
aI00
aI00
aI00
aI00
aa(lp1111
I234378
aF205.088
aF698.264
aVp1
p1112
aS'dejavusans'
p1113
aS'#000000'
p1114
aF12.0
aI1
aI01
aI00
aI00
aI00
aI00
aI00
aI00
aI00
aa(lp1115
I123669
aF53.3
aF72.064
aVp2
p1116
aS'dejavusans'
p1117
aS'#000000'
p1118
aF12.0
aI1
aI01
aI00
aI00
aI00
aI00
aI00
aI00
aI00
aa(lp1119
I234378
aF130.87454545454545
aF72.064
ag1116
aS'dejavusans'
p1120
aS'#000000'
p1121
aF12.0
aI1
aI00
aI00
aI00
aI00
aI00
aI00
aI00
aI00
aa(lp1122
I89958
aF142.496
aF72.064
aVp2
p1123
aS'dejavusans'
p1124
aS'#000000'
p1125
aF12.0
aI0
aI01
aI00
aI00
aI00
aI00
aI00
aI00
aI00
aa(lp1126
I89347
aF208.148
aF72.064
aVp2
p1127
aS'dejavusans'
p1128
aS'#000000'
p1129
aF12.0
aI0
aI01
aI00
aI00
aI00
aI00
aI00
aI00
aI00
aa(lp1130
I104542
aF53.3
aF86.064
aVp2
p1131
aS'dejavusans'
p1132
aS'#000000'
p1133
aF12.0
aI1
aI01
aI00
aI00
aI00
aI00
aI00
aI00
aI00
aa(lp1134
I234378
aF131.42933333333332
aF86.064
ag1131
aS'dejavusans'
p1135
aS'#000000'
p1136
aF12.0
aI1
aI00
aI00
aI00
aI00
aI00
aI00
aI00
aI00
aa(lp1137
I150037
aF146.2
aF86.064
aVp2
p1138
aS'dejavusans'
p1139
aS'#000000'
p1140
aF12.0
aI0
aI01
aI00
aI00
aI00
aI00
aI00
aI00
aI00
aa(lp1141
I48604
aF224.548
aF86.064
aVp2
p1142
aS'dejavusans'
p1143
aS'#000000'
p1144
aF12.0
aI0
aI01
aI00
aI00
aI00
aI00
aI00
aI00
aI00
aa(lp1145
I120031
aF53.3
aF100.064
aVp2
p1146
aS'dejavusans'
p1147
aS'#000000'
p1148
aF12.0
aI1
aI01
aI00
aI00
aI00
aI00
aI00
aI00
aI00
aa(lp1149
I234378
aF109.41733333333333
aF100.064
ag1146
aS'dejavusans'
p1150
aS'#000000'
p1151
aF12.0
aI1
aI00
aI00
aI00
aI00
aI00
aI00
aI00
aI00
aa(lp1152
I131049
aF120.296
aF100.064
aVp2
p1153
aS'dejavusans'
p1154
aS'#000000'
p1155
aF12.0
aI0
aI01
aI00
aI00
aI00
aI00
aI00
aI00
aI00
aa(lp1156
I177494
aF153.776
aF100.064
aVp2
p1157
aS'dejavusans'
p1158
aS'#000000'
p1159
aF12.0
aI0
aI01
aI00
aI00
aI00
aI00
aI00
aI00
aI01
aa(lp1160
I234378
aF220.016
aF100.064
aVp2
p1161
aS'dejavusans'
p1162
aS'#000000'
p1163
aF12.0
aI0
aI00
aI00
aI01
aI01
aI01
aI00
aI00
aI00
aa(lp1164
I89480
aF254.3
aF100.064
aVp2
p1165
aS'dejavusans'
p1166
aS'#000000'
p1167
aF12.0
aI0
aI00
aI00
aI00
aI00
aI00
aI00
aI00
aI00
aa(lp1168
I206369
aF270.2
aF100.064
aVp2
p1169
aS'dejavusans'
p1170
aS'#000000'
p1171
aF12.0
aI0
aI01
aI00
aI00
aI00
aI00
aI00
aI00
aI01
aa(lp1172
I234378
aF321.968
aF100.064
aVp2
p1173
aS'dejavusans'
p1174
aS'#000000'
p1175
aF12.0
aI0
aI00
aI00
aI01
aI01
aI01
aI00
aI00
aI00
aa(lp1176
I177958
aF41.9
aF126.836
aVp2
p1177
aS'dejavusans'
p1178
aS'#000000'
p1179
aF13.0
aI1
aI01
aI00
aI00
aI00
aI00
aI00
aI00
aI00
aa(lp1180
I74911
aF98.476
aF126.836
aVp2
p1181
aS'dejavusans'
p1182
aS'#000000'
p1183
aF13.0
aI1
aI01
aI00
aI00
aI00
aI00
aI00
aI00
aI00
aa(lp1184
I234378
aF188.988
aF127.764
aVp2
p1185
aS'dejavusans'
p1186
aS'#000000'
p1187
aF12.0
aI1
aI00
aI00
aI00
aI00
aI00
aI00
aI00
aI00
aa(lp1188
I24788
aF84.3
aF155.98
aVp2
p1189
aS'standardsyml'
p1190
aS'#000000'
p1191
aF12.0
aI0
aI01
aI01
aI00
aI00
aI00
aI00
aI00
aI00
aa(lp1192
I14859
aF126.364
aF156.964
aVp2
p1193
aS'dejavusans'
p1194
aS'#000000'
p1195
aF12.0
aI1
aI01
aI00
aI00
aI00
aI00
aI00
aI00
aI00
aa(lp1196
I190806
aF186.64
aF156.964
aVp2
p1197
aS'dejavusans'
p1198
aS'#000000'
p1199
aF12.0
aI1
aI00
aI00
aI00
aI00
aI00
aI00
aI00
aI00
aa(lp1200
I128633
aF210.208
aF156.964
aVp2
p1201
aS'dejavusans'
p1202
aS'#000000'
p1203
aF12.0
aI1
aI01
aI00
aI00
aI00
aI00
aI00
aI00
aI00
aa(lp1204
I153843
aF291.064
aF156.964
aVp2
p1205
aS'dejavusans'
p1206
aS'#000000'
p1207
aF12.0
aI1
aI01
aI00
aI00
aI00
aI00
aI00
aI00
aI00
aa(lp1208
I234378
aF336.532
aF156.964
aVp2
p1209
aS'dejavusans'
p1210
aS'#000000'
p1211
aF12.0
aI1
aI00
aI00
aI00
aI00
aI00
aI00
aI00
aI00
aa(lp1212
I234378
aF342.99657142857143
aF156.964
ag1209
aS'dejavusans'
p1213
aS'#000000'
p1214
aF12.0
aI1
aI01
aI00
aI00
aI00
aI00
aI00
aI00
aI00
aa(lp1215
I234378
aF375.3194285714286
aF156.964
ag1209
aS'dejavusans'
p1216
aS'#000000'
p1217
aF12.0
aI1
aI00
aI00
aI00
aI00
aI00
aI00
aI00
aI00
aa(lp1218
I176435
aF90.1
aF171.664
aVp2
p1219
aS'dejavusans'
p1220
aS'#000000'
p1221
aF12.0
aI1
aI01
aI00
aI00
aI00
aI00
aI00
aI00
aI00
aa(lp1222
I135639
aF124.0
aF171.664
aVp2
p1223
aS'dejavusans'
p1224
aS'#000000'
p1225
aF12.0
aI1
aI00
aI00
aI00
aI00
aI00
aI00
aI00
aI00
aa(lp1226
I177958
aF140.884
aF171.664
aVp2
p1227
aS'dejavusans'
p1228
aS'#000000'
p1229
aF12.0
aI1
aI00
aI00
aI00
aI00
aI00
aI00
aI00
aI00
aa(lp1230
I234378
aF186.25099999999998
aF171.664
ag1227
aS'dejavusans'
p1231
aS'#000000'
p1232
aF12.0
aI1
aI00
aI00
aI00
aI00
aI00
aI00
aI00
aI00
aa(lp1233
I145945
aF196.596
aF171.664
aVp2
p1234
aS'dejavusans'
p1235
aS'#000000'
p1236
aF12.0
aI0
aI01
aI00
aI00
aI00
aI00
aI00
aI00
aI00
aa(lp1237
I178237
aF258.756
aF171.664
aVp2
p1238
aS'dejavusans'
p1239
aS'#000000'
p1240
aF12.0
aI0
aI00
aI00
aI00
aI00
aI00
aI00
aI00
aI00
aa(lp1241
I66756
aF90.1
aF185.664
aVp2
p1242
aS'dejavusans'
p1243
aS'#000000'
p1244
aF12.0
aI1
aI01
aI00
aI00
aI00
aI00
aI00
aI00
aI00
aa(lp1245
I234378
aF164.92933333333332
aF185.664
ag1242
aS'dejavusans'
p1246
aS'#000000'
p1247
aF12.0
aI1
aI00
aI00
aI00
aI00
aI00
aI00
aI00
aI00
aa(lp1248
I16331
aF175.596
aF185.664
aVp2
p1249
aS'dejavusans'
p1250
aS'#000000'
p1251
aF12.0
aI0
aI01
aI00
aI00
aI00
aI00
aI00
aI00
aI00
aa(lp1252
I38609
aF193.872
aF185.664
aVp2
p1253
aS'dejavusans'
p1254
aS'#000000'
p1255
aF12.0
aI0
aI00
aI00
aI00
aI00
aI00
aI00
aI00
aI00
aa(lp1256
I144489
aF222.252
aF185.664
aVp2
p1257
aS'dejavusans'
p1258
aS'#000000'
p1259
aF12.0
aI0
aI00
aI00
aI00
aI00
aI00
aI00
aI00
aI00
aa(lp1260
I166245
aF237.636
aF185.664
aVp2
p1261
aS'dejavusans'
p1262
aS'#000000'
p1263
aF12.0
aI0
aI01
aI00
aI00
aI00
aI00
aI00
aI00
aI00
aa(lp1264
I10775
aF294.288
aF185.664
aVp2
p1265
aS'dejavusans'
p1266
aS'#000000'
p1267
aF12.0
aI0
aI00
aI00
aI00
aI00
aI00
aI00
aI00
aI00
aa(lp1268
I234378
aF372.4416
aF185.664
ag1265
aS'dejavusans'
p1269
aS'#000000'
p1270
aF12.0
aI0
aI00
aI00
aI00
aI00
aI00
aI00
aI00
aI00
aa(lp1271
I166593
aF381.912
aF185.664
aVp2
p1272
aS'dejavusans'
p1273
aS'#000000'
p1274
aF12.0
aI0
aI00
aI00
aI00
aI00
aI00
aI00
aI00
aI00
aa(lp1275
I185311
aF393.096
aF185.664
aVp2
p1276
aS'dejavusans'
p1277
aS'#000000'
p1278
aF12.0
aI0
aI01
aI00
aI00
aI00
aI00
aI00
aI00
aI00
aa(lp1279
I91539
aF435.444
aF185.664
aVp2
p1280
aS'dejavusans'
p1281
aS'#000000'
p1282
aF12.0
aI0
aI00
aI00
aI00
aI00
aI00
aI00
aI00
aI00
aa(lp1283
I22474
aF468.72
aF185.664
aVp2
p1284
aS'dejavusans'
p1285
aS'#000000'
p1286
aF12.0
aI0
aI00
aI00
aI00
aI00
aI00
aI00
aI00
aI00
aa(lp1287
I233170
aF482.112
aF185.664
aVp2
p1288
aS'dejavusans'
p1289
aS'#000000'
p1290
aF12.0
aI0
aI00
aI00
aI00
aI00
aI00
aI00
aI00
aI00
aa(lp1291
I131049
aF530.58
aF185.664
aVp2
p1292
aS'dejavusans'
p1293
aS'#000000'
p1294
aF12.0
aI0
aI00
aI00
aI00
aI00
aI00
aI00
aI00
aI00
aa(lp1295
I234378
aF90.1
aF199.664
aVp2
p1296
aS'dejavusans'
p1297
aS'#000000'
p1298
aF12.0
aI0
aI00
aI00
aI00
aI00
aI00
aI00
aI00
aI00
aa(lp1299
I114954
aF126.364
aF199.664
aVp2
p1300
aS'dejavusans'
p1301
aS'#000000'
p1302
aF12.0
aI0
aI00
aI00
aI00
aI00
aI00
aI00
aI00
aI00
aa(lp1303
I12248
aF179.14
aF199.664
aVp2
p1304
aS'dejavusans'
p1305
aS'#000000'
p1306
aF12.0
aI0
aI00
aI00
aI00
aI00
aI00
aI00
aI00
aI00
aa(lp1307
I234378
aF222.304
aF199.664
aVp2
p1308
aS'dejavusans'
p1309
aS'#000000'
p1310
aF12.0
aI0
aI00
aI00
aI00
aI00
aI00
aI00
aI00
aI00
aa(lp1311
I89480
aF275.68
aF199.664
aVp2
p1312
aS'dejavusans'
p1313
aS'#000000'
p1314
aF12.0
aI0
aI00
aI00
aI00
aI00
aI00
aI00
aI00
aI00
aa(lp1315
I166593
aF291.58
aF199.664
aVp2
p1316
aS'dejavusans'
p1317
aS'#000000'
p1318
aF12.0
aI0
aI00
aI00
aI00
aI00
aI00
aI00
aI00
aI00
aa(lp1319
I118865
aF302.776
aF199.664
aVp2
p1320
aS'dejavusans'
p1321
aS'#000000'
p1322
aF12.0
aI0
aI00
aI00
aI00
aI00
aI00
aI00
aI00
aI00
aa(lp1323
I234378
aF342.052
aF199.664
aVp2
p1324
aS'dejavusans'
p1325
aS'#000000'
p1326
aF12.0
aI0
aI00
aI00
aI00
aI00
aI00
aI00
aI00
aI00
aa(lp1327
I14859
aF397.408
aF199.664
aVp2
p1328
aS'dejavusans'
p1329
aS'#000000'
p1330
aF12.0
aI0
aI00
aI00
aI00
aI00
aI00
aI00
aI00
aI00
aa(lp1331
I8691
aF448.696
aF199.664
aVp2
p1332
aS'dejavusans'
p1333
aS'#000000'
p1334
aF12.0
aI0
aI00
aI00
aI00
aI00
aI00
aI00
aI00
aI00
aa(lp1335
I41890
aF490.948
aF199.664
aVp2
p1336
aS'dejavusans'
p1337
aS'#000000'
p1338
aF12.0
aI0
aI00
aI00
aI00
aI00
aI00
aI00
aI00
aI00
aa(lp1339
I234378
aF90.1
aF213.664
aVp2
p1340
aS'dejavusans'
p1341
aS'#000000'
p1342
aF12.0
aI0
aI00
aI00
aI00
aI00
aI00
aI00
aI00
aI00
aa(lp1343
I234378
aF143.61399999999998
aF213.664
ag1340
aS'dejavusans'
p1344
aS'#000000'
p1345
aF12.0
aI0
aI00
aI00
aI00
aI00
aI00
aI00
aI00
aI00
aa(lp1346
I189446
aF153.448
aF213.664
aVp2
p1347
aS'dejavusans'
p1348
aS'#000000'
p1349
aF12.0
aI0
aI01
aI00
aI00
aI00
aI00
aI00
aI00
aI00
aa(lp1350
I177958
aF179.236
aF213.664
aVp2
p1351
aS'dejavusans'
p1352
aS'#000000'
p1353
aF12.0
aI0
aI00
aI00
aI00
aI00
aI00
aI00
aI00
aI00
aa(lp1354
I234378
aF224.692
aF213.664
aVp2
p1355
aS'dejavusans'
p1356
aS'#000000'
p1357
aF12.0
aI0
aI00
aI00
aI00
aI00
aI00
aI00
aI00
aI00
aa(lp1358
I85218
aF288.244
aF213.664
aVp2
p1359
aS'dejavusans'
p1360
aS'#000000'
p1361
aF12.0
aI0
aI00
aI00
aI00
aI00
aI00
aI00
aI00
aI00
aa(lp1362
I152685
aF314.632
aF213.664
aVp2
p1363
aS'dejavusans'
p1364
aS'#000000'
p1365
aF12.0
aI0
aI00
aI00
aI00
aI00
aI00
aI00
aI00
aI00
aa(lp1366
I16331
aF353.704
aF213.664
aVp2
p1367
aS'dejavusans'
p1368
aS'#000000'
p1369
aF12.0
aI0
aI00
aI00
aI00
aI00
aI00
aI00
aI00
aI00
aa(lp1370
I166593
aF371.092
aF213.664
aVp2
p1371
aS'dejavusans'
p1372
aS'#000000'
p1373
aF12.0
aI0
aI00
aI00
aI00
aI00
aI00
aI00
aI00
aI00
aa(lp1374
I166245
aF382.288
aF213.664
aVp2
p1375
aS'dejavusans'
p1376
aS'#000000'
p1377
aF12.0
aI0
aI01
aI00
aI00
aI00
aI00
aI00
aI00
aI00
aa(lp1378
I196174
aF438.94
aF213.664
aVp2
p1379
aS'dejavusans'
p1380
aS'#000000'
p1381
aF12.0
aI0
aI00
aI00
aI00
aI00
aI00
aI00
aI00
aI00
aa(lp1382
I85218
aF531.88
aF213.664
aVp2
p1383
aS'dejavusans'
p1384
aS'#000000'
p1385
aF12.0
aI0
aI00
aI00
aI00
aI00
aI00
aI00
aI00
aI00
aa(lp1386
I166751
aF90.1
aF227.664
aVp2
p1387
aS'dejavusans'
p1388
aS'#000000'
p1389
aF12.0
aI0
aI00
aI00
aI00
aI00
aI00
aI00
aI00
aI00
aa(lp1390
I112275
aF158.464
aF227.664
aVp2
p1391
aS'dejavusans'
p1392
aS'#000000'
p1393
aF12.0
aI0
aI00
aI00
aI00
aI00
aI00
aI00
aI00
aI00
aa(lp1394
I169745
aF185.464
aF227.664
aVp2
p1395
aS'dejavusans'
p1396
aS'#000000'
p1397
aF12.0
aI0
aI00
aI00
aI00
aI00
aI00
aI00
aI00
aI00
aa(lp1398
I194354
aF214.768
aF227.664
aVp2
p1399
aS'dejavusans'
p1400
aS'#000000'
p1401
aF12.0
aI0
aI00
aI00
aI00
aI00
aI00
aI00
aI00
aI00
aa(lp1402
I195933
aF238.264
aF227.664
aVp2
p1403
aS'dejavusans'
p1404
aS'#000000'
p1405
aF12.0
aI0
aI00
aI00
aI00
aI00
aI00
aI00
aI00
aI00
aa(lp1406
I207716
aF284.02
aF227.664
aVp2
p1407
aS'dejavusans'
p1408
aS'#000000'
p1409
aF12.0
aI0
aI00
aI00
aI00
aI00
aI00
aI00
aI00
aI00
aa(lp1410
I85218
aF331.192
aF227.664
aVp2
p1411
aS'dejavusans'
p1412
aS'#000000'
p1413
aF12.0
aI0
aI00
aI00
aI00
aI00
aI00
aI00
aI00
aI00
aa(lp1414
I177271
aF357.58
aF227.664
aVp2
p1415
aS'dejavusans'
p1416
aS'#000000'
p1417
aF12.0
aI0
aI00
aI00
aI00
aI00
aI00
aI00
aI00
aI00
aa(lp1418
I12248
aF393.352
aF227.664
aVp2
p1419
aS'dejavusans'
p1420
aS'#000000'
p1421
aF12.0
aI0
aI00
aI00
aI00
aI00
aI00
aI00
aI00
aI00
aa(lp1422
I234378
aF436.504
aF227.664
aVp2
p1423
aS'dejavusans'
p1424
aS'#000000'
p1425
aF12.0
aI0
aI00
aI00
aI00
aI00
aI00
aI00
aI00
aI00
aa(lp1426
I234378
aF483.1975
aF227.664
ag1423
aS'dejavusans'
p1427
aS'#000000'
p1428
aF12.0
aI0
aI00
aI00
aI00
aI00
aI00
aI00
aI00
aI00
aa(lp1429
I200489
aF493.672
aF227.664
aVp2
p1430
aS'dejavusans'
p1431
aS'#000000'
p1432
aF12.0
aI0
aI01
aI00
aI00
aI00
aI00
aI00
aI00
aI00
aa(lp1433
I202782
aF516.064
aF227.664
aVp2
p1434
aS'dejavusans'
p1435
aS'#000000'
p1436
aF12.0
aI0
aI00
aI00
aI00
aI00
aI00
aI00
aI00
aI00
aa(lp1437
I51660
aF90.1
aF241.664
aVp2
p1438
aS'dejavusans'
p1439
aS'#000000'
p1440
aF12.0
aI0
aI01
aI01
aI00
aI00
aI00
aI00
aI00
aI00
aa(lp1441
I85218
aF128.968
aF241.664
aVp2
p1442
aS'dejavusans'
p1443
aS'#000000'
p1444
aF12.0
aI0
aI00
aI00
aI00
aI00
aI00
aI00
aI00
aI00
aa(lp1445
I234378
aF155.356
aF241.664
aVp2
p1446
aS'dejavusans'
p1447
aS'#000000'
p1448
aF12.0
aI0
aI01
aI01
aI00
aI00
aI00
aI00
aI00
aI00
aa(lp1449
I68032
aF185.044
aF241.664
aVp2
p1450
aS'dejavusans'
p1451
aS'#000000'
p1452
aF12.0
aI0
aI00
aI00
aI00
aI00
aI00
aI00
aI00
aI00
aa(lp1453
I119499
aF267.976
aF241.664
aVp2
p1454
aS'dejavusans'
p1455
aS'#000000'
p1456
aF12.0
aI0
aI00
aI00
aI00
aI00
aI00
aI00
aI00
aI00
aa(lp1457
I234378
aF321.096
aF241.664
ag1454
aS'dejavusans'
p1458
aS'#000000'
p1459
aF12.0
aI0
aI00
aI00
aI00
aI00
aI00
aI00
aI00
aI00
aa(lp1460
I135639
aF331.624
aF241.664
aVp2
p1461
aS'dejavusans'
p1462
aS'#000000'
p1463
aF12.0
aI0
aI00
aI00
aI00
aI00
aI00
aI00
aI00
aI00
aa(lp1464
I166593
aF346.42
aF241.664
aVp2
p1465
aS'dejavusans'
p1466
aS'#000000'
p1467
aF12.0
aI0
aI00
aI00
aI00
aI00
aI00
aI00
aI00
aI00
aa(lp1468
I234378
aF357.604
aF241.664
aVp2
p1469
aS'dejavusans'
p1470
aS'#000000'
p1471
aF12.0
aI0
aI01
aI01
aI00
aI00
aI00
aI00
aI00
aI00
aa(lp1472
I227583
aF410.476
aF241.664
aVp2
p1473
aS'dejavusans'
p1474
aS'#000000'
p1475
aF12.0
aI0
aI00
aI00
aI00
aI00
aI00
aI00
aI00
aI00
aa(lp1476
I234378
aF464.844
aF241.664
ag1473
aS'dejavusans'
p1477
aS'#000000'
p1478
aF12.0
aI0
aI00
aI00
aI00
aI00
aI00
aI00
aI00
aI00
aa(lp1479
I234378
aF90.1
aF255.664
aVp2
p1480
aS'dejavusans'
p1481
aS'#000000'
p1482
aF12.0
aI1
aI01
aI00
aI00
aI00
aI00
aI00
aI00
aI00
aa(lp1483
I234378
aF205.34875
aF255.664
ag1480
aS'dejavusans'
p1484
aS'#000000'
p1485
aF12.0
aI1
aI00
aI00
aI00
aI00
aI00
aI00
aI00
aI00
aa(lp1486
I105322
aF126.1
aF269.664
aVp2
p1487
aS'dejavusans'
p1488
aS'#000000'
p1489
aF12.0
aI0
aI01
aI00
aI00
aI00
aI00
aI00
aI00
aI00
aa(lp1490
I135639
aF180.964
aF269.664
aVp2
p1491
aS'dejavusans'
p1492
aS'#000000'
p1493
aF12.0
aI0
aI00
aI00
aI00
aI00
aI00
aI00
aI00
aI00
aa(lp1494
I41890
aF195.664
aF269.664
aVp2
p1495
aS'dejavusans'
p1496
aS'#000000'
p1497
aF12.0
aI0
aI00
aI00
aI00
aI00
aI00
aI00
aI00
aI00
aa(lp1498
I194354
aF213.544
aF269.664
aVp2
p1499
aS'dejavusans'
p1500
aS'#000000'
p1501
aF12.0
aI0
aI00
aI00
aI00
aI00
aI00
aI00
aI00
aI00
aa(lp1502
I165056
aF237.04
aF269.664
aVp2
p1503
aS'dejavusans'
p1504
aS'#000000'
p1505
aF12.0
aI0
aI00
aI00
aI00
aI00
aI00
aI00
aI00
aI00
aa(lp1506
I144489
aF277.012
aF269.664
aVp2
p1507
aS'dejavusans'
p1508
aS'#000000'
p1509
aF12.0
aI0
aI00
aI00
aI00
aI00
aI00
aI00
aI00
aI00
aa(lp1510
I234378
aF292.396
aF269.664
aVp2
p1511
aS'dejavusans'
p1512
aS'#000000'
p1513
aF12.0
aI0
aI00
aI00
aI00
aI00
aI00
aI00
aI00
aI00
aa(lp1514
I68032
aF347.668
aF269.664
aVp2
p1515
aS'dejavusans'
p1516
aS'#000000'
p1517
aF12.0
aI0
aI00
aI00
aI00
aI00
aI00
aI00
aI00
aI00
aa(lp1518
I234378
aF423.821
aF269.664
ag1515
aS'dejavusans'
p1519
aS'#000000'
p1520
aF12.0
aI0
aI00
aI00
aI00
aI00
aI00
aI00
aI00
aI00
aa(lp1521
I131049
aF434.692
aF269.664
aVp2
p1522
aS'dejavusans'
p1523
aS'#000000'
p1524
aF12.0
aI0
aI00
aI00
aI00
aI00
aI00
aI00
aI00
aI00
aa(lp1525
I202216
aF466.372
aF269.664
aVp2
p1526
aS'dejavusans'
p1527
aS'#000000'
p1528
aF12.0
aI0
aI01
aI00
aI00
aI00
aI00
aI00
aI00
aI00
aa(lp1529
I96295
aF126.1
aF284.564
aVp2
p1530
aS'dejavusans'
p1531
aS'#000000'
p1532
aF12.0
aI0
aI00
aI00
aI00
aI00
aI00
aI00
aI00
aI00
aa(lp1533
I89480
aF188.068
aF284.564
aVp2
p1534
aS'dejavusans'
p1535
aS'#000000'
p1536
aF12.0
aI0
aI00
aI00
aI00
aI00
aI00
aI00
aI00
aI00
aa(lp1537
I234378
aF203.968
aF284.564
aVp2
p1538
aS'dejavusans'
p1539
aS'#000000'
p1540
aF12.0
aI0
aI00
aI00
aI00
aI00
aI00
aI00
aI00
aI00
aa(lp1541
I25691
aF267.328
aF284.564
aVp2
p1542
aS'dejavusans'
p1543
aS'#000000'
p1544
aF12.0
aI0
aI00
aI00
aI00
aI00
aI00
aI00
aI00
aI00
aa(lp1545
I63022
aF293.8
aF284.564
aVp2
p1546
aS'dejavusans'
p1547
aS'#000000'
p1548
aF12.0
aI0
aI00
aI00
aI00
aI00
aI00
aI00
aI00
aI00
aa(lp1549
I234378
aF337.35400000000004
aF284.564
ag1546
aS'dejavusans'
p1550
aS'#000000'
p1551
aF12.0
aI0
aI00
aI00
aI00
aI00
aI00
aI00
aI00
aI00
aa(lp1552
I123583
aF126.1
aF298.564
aVp2
p1553
aS'dejavusans'
p1554
aS'#000000'
p1555
aF12.0
aI0
aI01
aI00
aI00
aI00
aI00
aI00
aI00
aI00
aa(lp1556
I16331
aF178.864
aF298.564
aVp2
p1557
aS'dejavusans'
p1558
aS'#000000'
p1559
aF12.0
aI0
aI00
aI00
aI00
aI00
aI00
aI00
aI00
aI00
aa(lp1560
I16329
aF196.252
aF298.564
aVp2
p1561
aS'dejavusans'
p1562
aS'#000000'
p1563
aF12.0
aI0
aI00
aI00
aI00
aI00
aI00
aI00
aI00
aI00
aa(lp1564
I145945
aF215.044
aF298.564
aVp2
p1565
aS'dejavusans'
p1566
aS'#000000'
p1567
aF12.0
aI0
aI00
aI00
aI00
aI00
aI00
aI00
aI00
aI00
aa(lp1568
I178237
aF277.0
aF298.564
aVp2
p1569
aS'dejavusans'
p1570
aS'#000000'
p1571
aF12.0
aI0
aI00
aI00
aI00
aI00
aI00
aI00
aI00
aI00
aa(lp1572
I234378
aF340.49199999999996
aF298.564
ag1569
aS'dejavusans'
p1573
aS'#000000'
p1574
aF12.0
aI0
aI00
aI00
aI00
aI00
aI00
aI00
aI00
aI00
aa(lp1575
I62551
aF126.1
aF313.464
aVp2
p1576
aS'dejavusans'
p1577
aS'#000000'
p1578
aF12.0
aI0
aI01
aI00
aI00
aI00
aI00
aI00
aI00
aI00
aa(lp1579
I234378
aF160.78
aF313.464
aVp2
p1580
aS'dejavusans'
p1581
aS'#000000'
p1582
aF12.0
aI0
aI00
aI00
aI00
aI00
aI00
aI00
aI00
aI00
aa(lp1583
I166593
aF210.244
aF313.464
aVp2
p1584
aS'dejavusans'
p1585
aS'#000000'
p1586
aF12.0
aI0
aI00
aI00
aI00
aI00
aI00
aI00
aI00
aI00
aa(lp1587
I115769
aF221.44
aF313.464
aVp2
p1588
aS'dejavusans'
p1589
aS'#000000'
p1590
aF12.0
aI0
aI00
aI00
aI00
aI00
aI00
aI00
aI00
aI00
aa(lp1591
I89480
aF289.792
aF313.464
aVp2
p1592
aS'dejavusans'
p1593
aS'#000000'
p1594
aF12.0
aI0
aI00
aI00
aI00
aI00
aI00
aI00
aI00
aI00
aa(lp1595
I106371
aF305.692
aF313.464
aVp2
p1596
aS'dejavusans'
p1597
aS'#000000'
p1598
aF12.0
aI0
aI00
aI00
aI00
aI00
aI00
aI00
aI00
aI00
aa(lp1599
I194354
aF342.448
aF313.464
aVp2
p1600
aS'dejavusans'
p1601
aS'#000000'
p1602
aF12.0
aI0
aI00
aI00
aI00
aI00
aI00
aI00
aI00
aI00
aa(lp1603
I123665
aF365.944
aF313.464
aVp2
p1604
aS'dejavusans'
p1605
aS'#000000'
p1606
aF12.0
aI0
aI00
aI00
aI00
aI00
aI00
aI00
aI00
aI00
aa(lp1607
I51933
aF435.904
aF313.464
aVp2
p1608
aS'dejavusans'
p1609
aS'#000000'
p1610
aF12.0
aI0
aI00
aI00
aI00
aI00
aI00
aI00
aI00
aI00
aa(lp1611
I135639
aF468.688
aF313.464
aVp2
p1612
aS'dejavusans'
p1613
aS'#000000'
p1614
aF12.0
aI0
aI00
aI00
aI00
aI00
aI00
aI00
aI00
aI00
aa(lp1615
I166593
aF483.484
aF313.464
aVp2
p1616
aS'dejavusans'
p1617
aS'#000000'
p1618
aF12.0
aI0
aI00
aI00
aI00
aI00
aI00
aI00
aI00
aI00
aa(lp1619
I176278
aF494.68
aF313.464
aVp2
p1620
aS'dejavusans'
p1621
aS'#000000'
p1622
aF12.0
aI0
aI00
aI00
aI00
aI00
aI00
aI00
aI00
aI00
aa(lp1623
I12878
aF126.1
aF328.364
aVp2
p1624
aS'dejavusans'
p1625
aS'#000000'
p1626
aF12.0
aI0
aI00
aI00
aI00
aI00
aI00
aI00
aI00
aI00
aa(lp1627
I234378
aF206.332
aF328.364
aVp2
p1628
aS'dejavusans'
p1629
aS'#000000'
p1630
aF12.0
aI0
aI00
aI00
aI00
aI00
aI00
aI00
aI00
aI00
aa(lp1631
I234378
aF242.512
aF328.364
aVp2
p1632
aS'dejavusans'
p1633
aS'#000000'
p1634
aF12.0
aI0
aI01
aI00
aI00
aI00
aI00
aI00
aI00
aI00
aa(lp1635
I234378
aF286.234
aF328.364
ag1632
aS'dejavusans'
p1636
aS'#000000'
p1637
aF12.0
aI0
aI00
aI00
aI00
aI00
aI00
aI00
aI00
aI00
aa(lp1638
I234378
aF84.3
aF356.38
aVp2
p1639
aS'standardsyml'
p1640
aS'#000000'
p1641
aF12.0
aI0
aI01
aI00
aI00
aI00
aI00
aI00
aI00
aI00
aa(lp1642
I63022
aF162.64
aF357.364
aVp2
p1643
aS'dejavusans'
p1644
aS'#000000'
p1645
aF12.0
aI1
aI01
aI00
aI00
aI00
aI00
aI00
aI00
aI00
aa(lp1646
I68032
aF219.688
aF357.364
aVp2
p1647
aS'dejavusans'
p1648
aS'#000000'
p1649
aF12.0
aI1
aI01
aI00
aI00
aI00
aI00
aI00
aI00
aI00
aa(lp1650
I234378
aF313.72
aF357.364
aVp2
p1651
aS'dejavusans'
p1652
aS'#000000'
p1653
aF12.0
aI1
aI00
aI00
aI00
aI00
aI00
aI00
aI00
aI00
aa(lp1654
I234378
aF320.9145454545455
aF357.364
ag1651
aS'dejavusans'
p1655
aS'#000000'
p1656
aF12.0
aI1
aI01
aI00
aI00
aI00
aI00
aI00
aI00
aI00
aa(lp1657
I234378
aF385.66545454545457
aF357.364
ag1651
aS'dejavusans'
p1658
aS'#000000'
p1659
aF12.0
aI1
aI00
aI00
aI00
aI00
aI00
aI00
aI00
aI00
aa(lp1660
I176435
aF90.1
aF371.964
aVp2
p1661
aS'dejavusans'
p1662
aS'#000000'
p1663
aF12.0
aI1
aI01
aI00
aI00
aI00
aI00
aI00
aI00
aI00
aa(lp1664
I135639
aF124.0
aF371.964
aVp2
p1665
aS'dejavusans'
p1666
aS'#000000'
p1667
aF12.0
aI1
aI00
aI00
aI00
aI00
aI00
aI00
aI00
aI00
aa(lp1668
I177958
aF140.884
aF371.964
aVp2
p1669
aS'dejavusans'
p1670
aS'#000000'
p1671
aF12.0
aI1
aI00
aI00
aI00
aI00
aI00
aI00
aI00
aI00
aa(lp1672
I234378
aF186.25099999999998
aF371.964
ag1669
aS'dejavusans'
p1673
aS'#000000'
p1674
aF12.0
aI1
aI00
aI00
aI00
aI00
aI00
aI00
aI00
aI00
aa(lp1675
I210461
aF196.596
aF371.964
aVp2
p1676
aS'dejavusans'
p1677
aS'#000000'
p1678
aF12.0
aI0
aI01
aI00
aI00
aI00
aI00
aI00
aI00
aI00
aa(lp1679
I175409
aF232.068
aF371.964
aVp2
p1680
aS'dejavusans'
p1681
aS'#000000'
p1682
aF12.0
aI0
aI01
aI00
aI00
aI00
aI00
aI00
aI00
aI00
aa(lp1683
I85218
aF264.732
aF371.964
aVp2
p1684
aS'dejavusans'
p1685
aS'#000000'
p1686
aF12.0
aI0
aI00
aI00
aI00
aI00
aI00
aI00
aI00
aI00
aa(lp1687
I234378
aF291.024
aF371.964
aVp2
p1688
aS'dejavusans'
p1689
aS'#000000'
p1690
aF12.0
aI0
aI01
aI00
aI00
aI00
aI00
aI00
aI00
aI00
aa(lp1691
I234378
aF333.6
aF371.964
aVp2
p1692
aS'dejavusans'
p1693
aS'#000000'
p1694
aF12.0
aI0
aI00
aI00
aI00
aI00
aI00
aI00
aI00
aI00
aa(lp1695
I66756
aF90.1
aF385.964
aVp2
p1696
aS'dejavusans'
p1697
aS'#000000'
p1698
aF12.0
aI1
aI01
aI00
aI00
aI00
aI00
aI00
aI00
aI00
aa(lp1699
I234378
aF164.92933333333332
aF385.964
ag1696
aS'dejavusans'
p1700
aS'#000000'
p1701
aF12.0
aI1
aI00
aI00
aI00
aI00
aI00
aI00
aI00
aI00
aa(lp1702
I234378
aF175.596
aF385.964
aVp2
p1703
aS'dejavusans'
p1704
aS'#000000'
p1705
aF12.0
aI0
aI01
aI00
aI00
aI00
aI00
aI00
aI00
aI00
aa(lp1706
I22474
aF240.648
aF385.964
aVp2
p1707
aS'dejavusans'
p1708
aS'#000000'
p1709
aF12.0
aI0
aI00
aI00
aI00
aI00
aI00
aI00
aI00
aI00
aa(lp1710
I166593
aF254.028
aF385.964
aVp2
p1711
aS'dejavusans'
p1712
aS'#000000'
p1713
aF12.0
aI0
aI00
aI00
aI00
aI00
aI00
aI00
aI00
aI00
aa(lp1714
I63022
aF265.128
aF385.964
aVp2
p1715
aS'dejavusans'
p1716
aS'#000000'
p1717
aF12.0
aI0
aI01
aI00
aI00
aI00
aI00
aI00
aI00
aI00
aa(lp1718
I190806
aF314.484
aF385.964
aVp2
p1719
aS'dejavusans'
p1720
aS'#000000'
p1721
aF12.0
aI0
aI00
aI00
aI00
aI00
aI00
aI00
aI00
aI00
aa(lp1722
I104866
aF334.776
aF385.964
aVp2
p1723
aS'dejavusans'
p1724
aS'#000000'
p1725
aF12.0
aI0
aI01
aI00
aI00
aI00
aI00
aI00
aI00
aI00
aa(lp1726
I234378
aF360.7632
aF385.964
ag1723
aS'dejavusans'
p1727
aS'#000000'
p1728
aF12.0
aI0
aI00
aI00
aI00
aI00
aI00
aI00
aI00
aI00
aa(lp1729
I214156
aF371.148
aF385.964
aVp2
p1730
aS'dejavusans'
p1731
aS'#000000'
p1732
aF12.0
aI0
aI01
aI00
aI00
aI00
aI00
aI00
aI00
aI00
aa(lp1733
I234378
aF403.298
aF385.964
ag1730
aS'dejavusans'
p1734
aS'#000000'
p1735
aF12.0
aI0
aI00
aI00
aI00
aI00
aI00
aI00
aI00
aI00
aa(lp1736
I77579
aF413.616
aF385.964
aVp2
p1737
aS'dejavusans'
p1738
aS'#000000'
p1739
aF12.0
aI0
aI01
aI00
aI00
aI00
aI00
aI00
aI00
aI00
aa(lp1740
I85218
aF474.78
aF385.964
aVp2
p1741
aS'dejavusans'
p1742
aS'#000000'
p1743
aF12.0
aI0
aI00
aI00
aI00
aI00
aI00
aI00
aI00
aI00
aa(lp1744
I230790
aF501.168
aF385.964
aVp2
p1745
aS'dejavusans'
p1746
aS'#000000'
p1747
aF12.0
aI0
aI01
aI00
aI00
aI00
aI00
aI00
aI00
aI00
aa(lp1748
I153177
aF90.1
aF399.964
aVp2
p1749
aS'dejavusans'
p1750
aS'#000000'
p1751
aF12.0
aI0
aI00
aI00
aI00
aI00
aI00
aI00
aI00
aI00
aa(lp1752
I234378
aF166.59454545454545
aF399.964
ag1749
aS'dejavusans'
p1753
aS'#000000'
p1754
aF12.0
aI0
aI00
aI00
aI00
aI00
aI00
aI00
aI00
aI00
aa(lp1755
I46544
aF178.132
aF399.964
aVp2
p1756
aS'dejavusans'
p1757
aS'#000000'
p1758
aF12.0
aI0
aI01
aI00
aI00
aI00
aI00
aI00
aI00
aI00
aa(lp1759
I63022
aF206.416
aF399.964
aVp2
p1760
aS'dejavusans'
p1761
aS'#000000'
p1762
aF12.0
aI0
aI00
aI00
aI00
aI00
aI00
aI00
aI00
aI00
aa(lp1763
I234378
aF256.372
aF399.964
aVp2
p1764
aS'dejavusans'
p1765
aS'#000000'
p1766
aF12.0
aI0
aI00
aI00
aI00
aI00
aI00
aI00
aI00
aI00
aa(lp1767
I104617
aF339.52
aF399.964
aVp2
p1768
aS'dejavusans'
p1769
aS'#000000'
p1770
aF12.0
aI0
aI00
aI00
aI00
aI00
aI00
aI00
aI00
aI00
aa(lp1771
I234378
aF377.992
aF399.964
aVp2
p1772
aS'dejavusans'
p1773
aS'#000000'
p1774
aF12.0
aI0
aI00
aI00
aI00
aI00
aI00
aI00
aI00
aI00
aa(lp1775
I144489
aF427.948
aF399.964
aVp2
p1776
aS'dejavusans'
p1777
aS'#000000'
p1778
aF12.0
aI0
aI00
aI00
aI00
aI00
aI00
aI00
aI00
aI00
aa(lp1779
I101582
aF443.332
aF399.964
aVp2
p1780
aS'dejavusans'
p1781
aS'#000000'
p1782
aF12.0
aI0
aI01
aI00
aI00
aI00
aI00
aI00
aI00
aI00
aa(lp1783
I85218
aF489.124
aF399.964
aVp2
p1784
aS'dejavusans'
p1785
aS'#000000'
p1786
aF12.0
aI0
aI00
aI00
aI00
aI00
aI00
aI00
aI00
aI00
aa(lp1787
I152900
aF90.1
aF413.964
aVp2
p1788
aS'dejavusans'
p1789
aS'#000000'
p1790
aF12.0
aI0
aI01
aI00
aI00
aI00
aI00
aI00
aI00
aI00
aa(lp1791
I224218
aF165.616
aF413.964
aVp2
p1792
aS'dejavusans'
p1793
aS'#000000'
p1794
aF12.0
aI0
aI00
aI00
aI00
aI00
aI00
aI00
aI00
aI00
aa(lp1795
I234378
aF205.37028571428573
aF413.964
ag1792
aS'dejavusans'
p1796
aS'#000000'
p1797
aF12.0
aI0
aI00
aI00
aI00
aI00
aI00
aI00
aI00
aI00
aa(lp1798
I190806
aF215.8
aF413.964
aVp2
p1799
aS'dejavusans'
p1800
aS'#000000'
p1801
aF12.0
aI0
aI00
aI00
aI00
aI00
aI00
aI00
aI00
aI00
aa(lp1802
I199810
aF236.092
aF413.964
aVp2
p1803
aS'dejavusans'
p1804
aS'#000000'
p1805
aF12.0
aI0
aI01
aI00
aI00
aI00
aI00
aI00
aI00
aI00
aa(lp1806
I85218
aF269.056
aF413.964
aVp2
p1807
aS'dejavusans'
p1808
aS'#000000'
p1809
aF12.0
aI0
aI00
aI00
aI00
aI00
aI00
aI00
aI00
aI00
aa(lp1810
I186242
aF295.444
aF413.964
aVp2
p1811
aS'dejavusans'
p1812
aS'#000000'
p1813
aF12.0
aI0
aI01
aI00
aI00
aI00
aI00
aI00
aI00
aI00
aa(lp1814
I164858
aF329.608
aF413.964
aVp2
p1815
aS'dejavusans'
p1816
aS'#000000'
p1817
aF12.0
aI0
aI00
aI00
aI00
aI00
aI00
aI00
aI00
aI00
aa(lp1818
I234378
aF361.04114285714286
aF413.964
ag1815
aS'dejavusans'
p1819
aS'#000000'
p1820
aF12.0
aI0
aI00
aI00
aI00
aI00
aI00
aI00
aI00
aI00
aa(lp1821
I234378
aF370.084
aF413.964
aVp2
p1822
aS'dejavusans'
p1823
aS'#000000'
p1824
aF12.0
aI0
aI00
aI00
aI00
aI00
aI00
aI00
aI00
aI00
aa(lp1825
I190806
aF418.948
aF413.964
aVp2
p1826
aS'dejavusans'
p1827
aS'#000000'
p1828
aF12.0
aI0
aI00
aI00
aI00
aI00
aI00
aI00
aI00
aI00
aa(lp1829
I88248
aF439.24
aF413.964
aVp2
p1830
aS'dejavusans'
p1831
aS'#000000'
p1832
aF12.0
aI0
aI01
aI00
aI00
aI00
aI00
aI00
aI00
aI00
aa(lp1833
I234378
aF493.3306666666667
aF413.964
ag1830
aS'dejavusans'
p1834
aS'#000000'
p1835
aF12.0
aI0
aI00
aI00
aI00
aI00
aI00
aI00
aI00
aI00
aa(lp1836
I211980
aF503.98
aF413.964
aVp2
p1837
aS'dejavusans'
p1838
aS'#000000'
p1839
aF12.0
aI0
aI01
aI00
aI00
aI00
aI00
aI00
aI00
aI00
aa(lp1840
I85218
aF540.556
aF413.964
aVp2
p1841
aS'dejavusans'
p1842
aS'#000000'
p1843
aF12.0
aI0
aI00
aI00
aI00
aI00
aI00
aI00
aI00
aI00
aa(lp1844
I65446
aF90.1
aF427.964
aVp2
p1845
aS'dejavusans'
p1846
aS'#000000'
p1847
aF12.0
aI0
aI01
aI00
aI00
aI00
aI00
aI00
aI00
aI00
aa(lp1848
I5770
aF127.48
aF427.964
aVp2
p1849
aS'dejavusans'
p1850
aS'#000000'
p1851
aF12.0
aI0
aI01
aI00
aI00
aI00
aI00
aI00
aI00
aI00
aa(lp1852
I224218
aF188.332
aF427.964
aVp2
p1853
aS'dejavusans'
p1854
aS'#000000'
p1855
aF12.0
aI0
aI01
aI00
aI00
aI00
aI00
aI00
aI00
aI00
aa(lp1856
I234378
aF226.97542857142855
aF427.964
ag1853
aS'dejavusans'
p1857
aS'#000000'
p1858
aF12.0
aI0
aI00
aI00
aI00
aI00
aI00
aI00
aI00
aI00
aa(lp1859
I234378
aF90.1
aF441.964
aVp2
p1860
aS'dejavusans'
p1861
aS'#000000'
p1862
aF12.0
aI1
aI01
aI00
aI00
aI00
aI00
aI00
aI00
aI00
aa(lp1863
I234378
aF205.34875
aF441.964
ag1860
aS'dejavusans'
p1864
aS'#000000'
p1865
aF12.0
aI1
aI00
aI00
aI00
aI00
aI00
aI00
aI00
aI00
aa(lp1866
I125458
aF126.1
aF455.964
aVp2
p1867
aS'dejavusans'
p1868
aS'#000000'
p1869
aF12.0
aI0
aI01
aI00
aI00
aI00
aI00
aI00
aI00
aI00
aa(lp1870
I16331
aF174.88
aF455.964
aVp2
p1871
aS'dejavusans'
p1872
aS'#000000'
p1873
aF12.0
aI0
aI00
aI00
aI00
aI00
aI00
aI00
aI00
aI00
aa(lp1874
I16329
aF192.268
aF455.964
aVp2
p1875
aS'dejavusans'
p1876
aS'#000000'
p1877
aF12.0
aI0
aI00
aI00
aI00
aI00
aI00
aI00
aI00
aI00
aa(lp1878
I234378
aF211.06
aF455.964
aVp2
p1879
aS'dejavusans'
p1880
aS'#000000'
p1881
aF12.0
aI0
aI00
aI00
aI00
aI00
aI00
aI00
aI00
aI00
aa(lp1882
I234378
aF251.44
aF455.964
aVp2
p1883
aS'dejavusans'
p1884
aS'#000000'
p1885
aF12.0
aI0
aI00
aI00
aI00
aI00
aI00
aI00
aI00
aI00
aa(lp1886
I190806
aF324.088
aF455.964
aVp2
p1887
aS'dejavusans'
p1888
aS'#000000'
p1889
aF12.0
aI0
aI00
aI00
aI00
aI00
aI00
aI00
aI00
aI00
aa(lp1890
I37807
aF344.464
aF455.964
aVp2
p1891
aS'dejavusans'
p1892
aS'#000000'
p1893
aF12.0
aI0
aI00
aI00
aI00
aI00
aI00
aI00
aI00
aI00
aa(lp1894
I234378
aF385.936
aF455.964
aVp2
p1895
aS'dejavusans'
p1896
aS'#000000'
p1897
aF12.0
aI0
aI00
aI00
aI01
aI01
aI00
aI00
aI00
aI00
aa(lp1898
I234378
aF397.336
aF455.964
aVp2
p1899
aS'dejavusans'
p1900
aS'#000000'
p1901
aF12.0
aI0
aI00
aI00
aI00
aI00
aI00
aI00
aI00
aI00
aa(lp1902
I234378
aF427.976
aF455.964
ag1899
aS'dejavusans'
p1903
aS'#000000'
p1904
aF12.0
aI0
aI00
aI00
aI00
aI00
aI00
aI00
aI00
aI00
aa(lp1905
I175409
aF437.992
aF455.964
aVp2
p1906
aS'dejavusans'
p1907
aS'#000000'
p1908
aF12.0
aI0
aI01
aI00
aI00
aI00
aI00
aI00
aI00
aI00
aa(lp1909
I166593
aF470.572
aF455.964
aVp2
p1910
aS'dejavusans'
p1911
aS'#000000'
p1912
aF12.0
aI0
aI00
aI00
aI00
aI00
aI00
aI00
aI00
aI00
aa(lp1913
I210461
aF481.768
aF455.964
aVp2
p1914
aS'dejavusans'
p1915
aS'#000000'
p1916
aF12.0
aI0
aI00
aI00
aI00
aI00
aI00
aI00
aI00
aI00
aa(lp1917
I144489
aF516.652
aF455.964
aVp2
p1918
aS'dejavusans'
p1919
aS'#000000'
p1920
aF12.0
aI0
aI00
aI00
aI00
aI00
aI00
aI00
aI00
aI00
aa(lp1921
I234378
aF532.036
aF455.964
aVp2
p1922
aS'dejavusans'
p1923
aS'#000000'
p1924
aF12.0
aI0
aI00
aI00
aI01
aI01
aI00
aI00
aI00
aI00
aa(lp1925
I15314
aF126.1
aF470.864
aVp2
p1926
aS'dejavusans'
p1927
aS'#000000'
p1928
aF12.0
aI0
aI00
aI00
aI00
aI00
aI00
aI00
aI00
aI00
aa(lp1929
I190806
aF170.572
aF470.864
aVp2
p1930
aS'dejavusans'
p1931
aS'#000000'
p1932
aF12.0
aI0
aI00
aI00
aI00
aI00
aI00
aI00
aI00
aI00
aa(lp1933
I68032
aF190.864
aF470.864
aVp2
p1934
aS'dejavusans'
p1935
aS'#000000'
p1936
aF12.0
aI0
aI00
aI00
aI00
aI00
aI00
aI00
aI00
aI00
aa(lp1937
I16334
aF273.796
aF470.864
aVp2
p1938
aS'dejavusans'
p1939
aS'#000000'
p1940
aF12.0
aI0
aI00
aI00
aI00
aI00
aI00
aI00
aI00
aI00
aa(lp1941
I234378
aF289.696
aF470.864
aVp2
p1942
aS'dejavusans'
p1943
aS'#000000'
p1944
aF12.0
aI0
aI01
aI00
aI00
aI00
aI00
aI00
aI00
aI00
aa(lp1945
I234378
aF320.516
aF470.864
ag1942
aS'dejavusans'
p1946
aS'#000000'
p1947
aF12.0
aI0
aI00
aI00
aI00
aI00
aI00
aI00
aI00
aI00
aa(lp1948
I91495
aF330.568
aF470.864
aVp2
p1949
aS'dejavusans'
p1950
aS'#000000'
p1951
aF12.0
aI0
aI01
aI00
aI00
aI00
aI00
aI00
aI00
aI00
aa(lp1952
I234378
aF369.256
aF470.864
aVp2
p1953
aS'dejavusans'
p1954
aS'#000000'
p1955
aF12.0
aI0
aI01
aI00
aI00
aI00
aI00
aI00
aI00
aI00
aa(lp1956
I234378
aF400.736
aF470.864
ag1953
aS'dejavusans'
p1957
aS'#000000'
p1958
aF12.0
aI0
aI00
aI00
aI00
aI00
aI00
aI00
aI00
aI00
aa(lp1959
I105322
aF126.1
aF484.864
aVp2
p1960
aS'dejavusans'
p1961
aS'#000000'
p1962
aF12.0
aI0
aI01
aI00
aI00
aI00
aI00
aI00
aI00
aI00
aa(lp1963
I135639
aF180.964
aF484.864
aVp2
p1964
aS'dejavusans'
p1965
aS'#000000'
p1966
aF12.0
aI0
aI00
aI00
aI00
aI00
aI00
aI00
aI00
aI00
aa(lp1967
I41890
aF195.664
aF484.864
aVp2
p1968
aS'dejavusans'
p1969
aS'#000000'
p1970
aF12.0
aI0
aI00
aI00
aI00
aI00
aI00
aI00
aI00
aI00
aa(lp1971
I194354
aF213.544
aF484.864
aVp2
p1972
aS'dejavusans'
p1973
aS'#000000'
p1974
aF12.0
aI0
aI00
aI00
aI00
aI00
aI00
aI00
aI00
aI00
aa(lp1975
I165056
aF237.04
aF484.864
aVp2
p1976
aS'dejavusans'
p1977
aS'#000000'
p1978
aF12.0
aI0
aI00
aI00
aI00
aI00
aI00
aI00
aI00
aI00
aa(lp1979
I144489
aF277.012
aF484.864
aVp2
p1980
aS'dejavusans'
p1981
aS'#000000'
p1982
aF12.0
aI0
aI00
aI00
aI00
aI00
aI00
aI00
aI00
aI00
aa(lp1983
I234378
aF292.396
aF484.864
aVp2
p1984
aS'dejavusans'
p1985
aS'#000000'
p1986
aF12.0
aI0
aI00
aI00
aI00
aI00
aI00
aI00
aI00
aI00
aa(lp1987
I68032
aF347.668
aF484.864
aVp2
p1988
aS'dejavusans'
p1989
aS'#000000'
p1990
aF12.0
aI0
aI00
aI00
aI00
aI00
aI00
aI00
aI00
aI00
aa(lp1991
I234378
aF423.821
aF484.864
ag1988
aS'dejavusans'
p1992
aS'#000000'
p1993
aF12.0
aI0
aI00
aI00
aI00
aI00
aI00
aI00
aI00
aI00
aa(lp1994
I131049
aF434.692
aF484.864
aVp2
p1995
aS'dejavusans'
p1996
aS'#000000'
p1997
aF12.0
aI0
aI00
aI00
aI00
aI00
aI00
aI00
aI00
aI00
aa(lp1998
I202216
aF466.372
aF484.864
aVp2
p1999
aS'dejavusans'
p2000
aS'#000000'
p2001
aF12.0
aI0
aI01
aI00
aI00
aI00
aI00
aI00
aI00
aI00
aa(lp2002
I96295
aF126.1
aF499.764
aVp2
p2003
aS'dejavusans'
p2004
aS'#000000'
p2005
aF12.0
aI0
aI00
aI00
aI00
aI00
aI00
aI00
aI00
aI00
aa(lp2006
I89480
aF188.068
aF499.764
aVp2
p2007
aS'dejavusans'
p2008
aS'#000000'
p2009
aF12.0
aI0
aI00
aI00
aI00
aI00
aI00
aI00
aI00
aI00
aa(lp2010
I234378
aF203.968
aF499.764
aVp2
p2011
aS'dejavusans'
p2012
aS'#000000'
p2013
aF12.0
aI0
aI00
aI00
aI00
aI00
aI00
aI00
aI00
aI00
aa(lp2014
I25691
aF267.328
aF499.764
aVp2
p2015
aS'dejavusans'
p2016
aS'#000000'
p2017
aF12.0
aI0
aI00
aI00
aI00
aI00
aI00
aI00
aI00
aI00
aa(lp2018
I63022
aF293.8
aF499.764
aVp2
p2019
aS'dejavusans'
p2020
aS'#000000'
p2021
aF12.0
aI0
aI00
aI00
aI00
aI00
aI00
aI00
aI00
aI00
aa(lp2022
I16334
aF343.66
aF499.764
aVp2
p2023
aS'dejavusans'
p2024
aS'#000000'
p2025
aF12.0
aI0
aI00
aI00
aI00
aI00
aI00
aI00
aI00
aI00
aa(lp2026
I25931
aF359.56
aF499.764
aVp2
p2027
aS'dejavusans'
p2028
aS'#000000'
p2029
aF12.0
aI0
aI00
aI00
aI00
aI00
aI00
aI00
aI00
aI00
aa(lp2030
I104149
aF396.328
aF499.764
aVp2
p2031
aS'dejavusans'
p2032
aS'#000000'
p2033
aF12.0
aI0
aI00
aI00
aI00
aI00
aI00
aI00
aI00
aI00
aa(lp2034
I234378
aF419.032
aF499.764
ag2031
aS'dejavusans'
p2035
aS'#000000'
p2036
aF12.0
aI0
aI00
aI00
aI00
aI00
aI00
aI00
aI00
aI00
aa(lp2037
I118076
aF126.1
aF513.764
aVp2
p2038
aS'dejavusans'
p2039
aS'#000000'
p2040
aF12.0
aI0
aI01
aI00
aI00
aI00
aI00
aI00
aI00
aI00
aa(lp2041
I234378
aF153.892
aF513.764
aVp2
p2042
aS'dejavusans'
p2043
aS'#000000'
p2044
aF12.0
aI0
aI00
aI00
aI00
aI00
aI00
aI00
aI00
aI00
aa(lp2045
I166593
aF203.44
aF513.764
aVp2
p2046
aS'dejavusans'
p2047
aS'#000000'
p2048
aF12.0
aI0
aI00
aI00
aI00
aI00
aI00
aI00
aI00
aI00
aa(lp2049
I151364
aF214.54
aF513.764
aVp2
p2050
aS'dejavusans'
p2051
aS'#000000'
p2052
aF12.0
aI0
aI01
aI00
aI00
aI00
aI00
aI00
aI00
aI00
aa(lp2053
I115769
aF270.904
aF513.764
aVp2
p2054
aS'dejavusans'
p2055
aS'#000000'
p2056
aF12.0
aI0
aI00
aI00
aI00
aI00
aI00
aI00
aI00
aI00
aa(lp2057
I135639
aF339.364
aF513.764
aVp2
p2058
aS'dejavusans'
p2059
aS'#000000'
p2060
aF12.0
aI0
aI00
aI00
aI00
aI00
aI00
aI00
aI00
aI00
aa(lp2061
I164851
aF354.064
aF513.764
aVp2
p2062
aS'dejavusans'
p2063
aS'#000000'
p2064
aF12.0
aI0
aI00
aI00
aI00
aI00
aI00
aI00
aI00
aI00
aa(lp2065
I89480
aF389.848
aF513.764
aVp2
p2066
aS'dejavusans'
p2067
aS'#000000'
p2068
aF12.0
aI0
aI00
aI00
aI00
aI00
aI00
aI00
aI00
aI00
aa(lp2069
I207845
aF405.748
aF513.764
aVp2
p2070
aS'dejavusans'
p2071
aS'#000000'
p2072
aF12.0
aI0
aI00
aI00
aI00
aI00
aI00
aI00
aI00
aI00
aa(lp2073
I41890
aF450.424
aF513.764
aVp2
p2074
aS'dejavusans'
p2075
aS'#000000'
p2076
aF12.0
aI0
aI00
aI00
aI00
aI00
aI00
aI00
aI00
aI00
aa(lp2077
I144489
aF468.304
aF513.764
aVp2
p2078
aS'dejavusans'
p2079
aS'#000000'
p2080
aF12.0
aI0
aI00
aI00
aI00
aI00
aI00
aI00
aI00
aI00
aa(lp2081
I194354
aF483.604
aF513.764
aVp2
p2082
aS'dejavusans'
p2083
aS'#000000'
p2084
aF12.0
aI0
aI00
aI00
aI00
aI00
aI00
aI00
aI00
aI00
aa(lp2085
I234378
aF126.1
aF528.664
aVp2
p2086
aS'dejavusans'
p2087
aS'#000000'
p2088
aF12.0
aI0
aI00
aI00
aI00
aI00
aI00
aI00
aI00
aI00
aa(lp2089
I234378
aF194.956
aF528.664
aVp2
p2090
aS'dejavusans'
p2091
aS'#000000'
p2092
aF12.0
aI0
aI00
aI00
aI00
aI00
aI00
aI00
aI00
aI00
aa(lp2093
I234378
aF201.772
aF528.664
ag2090
aS'dejavusans'
p2094
aS'#000000'
p2095
aF12.0
aI0
aI01
aI01
aI00
aI00
aI00
aI00
aI00
aI00
aa(lp2096
I234378
aF222.22
aF528.664
ag2090
aS'dejavusans'
p2097
aS'#000000'
p2098
aF12.0
aI0
aI00
aI00
aI00
aI00
aI00
aI00
aI00
aI00
aa(lp2099
I234378
aF232.84
aF528.664
aVp2
p2100
aS'dejavusans'
p2101
aS'#000000'
p2102
aF12.0
aI0
aI01
aI01
aI00
aI00
aI00
aI00
aI00
aI00
aa(lp2103
I234378
aF254.197
aF528.664
ag2100
aS'dejavusans'
p2104
aS'#000000'
p2105
aF12.0
aI0
aI00
aI00
aI00
aI00
aI00
aI00
aI00
aI00
aa(lp2106
I234378
aF265.12
aF528.664
aVp2
p2107
aS'dejavusans'
p2108
aS'#000000'
p2109
aF12.0
aI0
aI01
aI00
aI00
aI00
aI00
aI00
aI00
aI00
aa(lp2110
I85218
aF313.48
aF528.664
aVp2
p2111
aS'dejavusans'
p2112
aS'#000000'
p2113
aF12.0
aI0
aI00
aI00
aI00
aI00
aI00
aI00
aI00
aI00
aa(lp2114
I234378
aF339.868
aF528.664
aVp2
p2115
aS'dejavusans'
p2116
aS'#000000'
p2117
aF12.0
aI0
aI01
aI00
aI00
aI00
aI00
aI00
aI00
aI00
aa(lp2118
I234378
aF377.78114285714287
aF528.664
ag2115
aS'dejavusans'
p2119
aS'#000000'
p2120
aF12.0
aI0
aI00
aI00
aI00
aI00
aI00
aI00
aI00
aI00
aa(lp2121
I175989
aF387.916
aF528.664
aVp2
p2122
aS'dejavusans'
p2123
aS'#000000'
p2124
aF12.0
aI0
aI00
aI00
aI00
aI00
aI00
aI00
aI00
aI00
aa(lp2125
I140393
aF416.104
aF528.664
aVp2
p2126
aS'dejavusans'
p2127
aS'#000000'
p2128
aF12.0
aI0
aI00
aI00
aI00
aI00
aI00
aI00
aI00
aI00
aa(lp2129
I190765
aF449.092
aF528.664
aVp2
p2130
aS'dejavusans'
p2131
aS'#000000'
p2132
aF12.0
aI0
aI00
aI00
aI00
aI00
aI00
aI00
aI00
aI00
aa(lp2133
I131049
aF502.048
aF528.664
aVp2
p2134
aS'dejavusans'
p2135
aS'#000000'
p2136
aF12.0
aI0
aI00
aI00
aI00
aI00
aI00
aI00
aI00
aI00
aa(lp2137
I194354
aF533.728
aF528.664
aVp2
p2138
aS'dejavusans'
p2139
aS'#000000'
p2140
aF12.0
aI0
aI00
aI00
aI00
aI00
aI00
aI00
aI00
aI00
aa(lp2141
I207716
aF126.1
aF542.664
aVp2
p2142
aS'dejavusans'
p2143
aS'#000000'
p2144
aF12.0
aI0
aI00
aI00
aI00
aI00
aI00
aI00
aI00
aI00
aa(lp2145
I234378
aF166.52285714285713
aF542.664
ag2142
aS'dejavusans'
p2146
aS'#000000'
p2147
aF12.0
aI0
aI00
aI00
aI00
aI00
aI00
aI00
aI00
aI00
aa(lp2148
I153843
aF84.3
aF570.68
aVp2
p2149
aS'standardsyml'
p2150
aS'#000000'
p2151
aF12.0
aI0
aI01
aI00
aI00
aI00
aI00
aI00
aI00
aI00
aa(lp2152
I75592
aF135.568
aF571.664
aVp2
p2153
aS'dejavusans'
p2154
aS'#000000'
p2155
aF12.0
aI1
aI01
aI00
aI00
aI00
aI00
aI00
aI00
aI00
aa(lp2156
I234378
aF168.16
aF571.664
aVp2
p2157
aS'dejavusans'
p2158
aS'#000000'
p2159
aF12.0
aI1
aI01
aI00
aI00
aI00
aI00
aI00
aI00
aI00
aa(lp2160
I207716
aF246.304
aF571.664
aVp2
p2161
aS'dejavusans'
p2162
aS'#000000'
p2163
aF12.0
aI1
aI01
aI00
aI00
aI00
aI00
aI00
aI00
aI00
aa(lp2164
I234378
aF300.484
aF571.664
aVp2
p2165
aS'dejavusans'
p2166
aS'#000000'
p2167
aF12.0
aI1
aI00
aI00
aI00
aI00
aI00
aI00
aI00
aI00
aa(lp2168
I42284
aF307.6054545454545
aF571.664
ag2165
aS'dejavusans'
p2169
aS'#000000'
p2170
aF12.0
aI1
aI01
aI00
aI00
aI00
aI00
aI00
aI00
aI00
aa(lp2171
I234378
aF371.6985454545454
aF571.664
ag2165
aS'dejavusans'
p2172
aS'#000000'
p2173
aF12.0
aI1
aI00
aI00
aI00
aI00
aI00
aI00
aI00
aI00
aa(lp2174
I176435
aF90.1
aF586.364
aVp2
p2175
aS'dejavusans'
p2176
aS'#000000'
p2177
aF12.0
aI1
aI01
aI00
aI00
aI00
aI00
aI00
aI00
aI00
aa(lp2178
I135639
aF124.0
aF586.364
aVp2
p2179
aS'dejavusans'
p2180
aS'#000000'
p2181
aF12.0
aI1
aI00
aI00
aI00
aI00
aI00
aI00
aI00
aI00
aa(lp2182
I177958
aF140.884
aF586.364
aVp2
p2183
aS'dejavusans'
p2184
aS'#000000'
p2185
aF12.0
aI1
aI00
aI00
aI00
aI00
aI00
aI00
aI00
aI00
aa(lp2186
I234378
aF186.25099999999998
aF586.364
ag2183
aS'dejavusans'
p2187
aS'#000000'
p2188
aF12.0
aI1
aI00
aI00
aI00
aI00
aI00
aI00
aI00
aI00
aa(lp2189
I55966
aF196.596
aF586.364
aVp2
p2190
aS'dejavusans'
p2191
aS'#000000'
p2192
aF12.0
aI0
aI01
aI00
aI00
aI00
aI00
aI00
aI00
aI00
aa(lp2193
I100815
aF238.572
aF586.364
aVp2
p2194
aS'dejavusans'
p2195
aS'#000000'
p2196
aF12.0
aI0
aI00
aI00
aI00
aI00
aI00
aI00
aI00
aI00
aa(lp2197
I66756
aF90.1
aF600.364
aVp2
p2198
aS'dejavusans'
p2199
aS'#000000'
p2200
aF12.0
aI1
aI01
aI00
aI00
aI00
aI00
aI00
aI00
aI00
aa(lp2201
I234378
aF164.92933333333332
aF600.364
ag2198
aS'dejavusans'
p2202
aS'#000000'
p2203
aF12.0
aI1
aI00
aI00
aI00
aI00
aI00
aI00
aI00
aI00
aa(lp2204
I153843
aF175.596
aF600.364
aVp2
p2205
aS'dejavusans'
p2206
aS'#000000'
p2207
aF12.0
aI0
aI01
aI00
aI00
aI00
aI00
aI00
aI00
aI00
aa(lp2208
I75592
aF215.46
aF600.364
aVp2
p2209
aS'dejavusans'
p2210
aS'#000000'
p2211
aF12.0
aI0
aI01
aI00
aI00
aI00
aI00
aI00
aI00
aI00
aa(lp2212
I234378
aF244.236
aF600.364
aVp2
p2213
aS'dejavusans'
p2214
aS'#000000'
p2215
aF12.0
aI0
aI01
aI00
aI00
aI00
aI00
aI00
aI00
aI00
aa(lp2216
I22474
aF312.204
aF600.364
aVp2
p2217
aS'dejavusans'
p2218
aS'#000000'
p2219
aF12.0
aI0
aI00
aI00
aI00
aI00
aI00
aI00
aI00
aI00
aa(lp2220
I234378
aF325.596
aF600.364
aVp2
p2221
aS'dejavusans'
p2222
aS'#000000'
p2223
aF12.0
aI0
aI00
aI00
aI00
aI00
aI00
aI00
aI00
aI00
aa(lp2224
I89480
aF372.972
aF600.364
aVp2
p2225
aS'dejavusans'
p2226
aS'#000000'
p2227
aF12.0
aI0
aI00
aI00
aI00
aI00
aI00
aI00
aI00
aI00
aa(lp2228
I106371
aF388.872
aF600.364
aVp2
p2229
aS'dejavusans'
p2230
aS'#000000'
p2231
aF12.0
aI0
aI00
aI00
aI00
aI00
aI00
aI00
aI00
aI00
aa(lp2232
I153843
aF425.628
aF600.364
aVp2
p2233
aS'dejavusans'
p2234
aS'#000000'
p2235
aF12.0
aI0
aI00
aI00
aI00
aI00
aI00
aI00
aI00
aI00
aa(lp2236
I234378
aF463.692
aF600.364
aVp2
p2237
aS'dejavusans'
p2238
aS'#000000'
p2239
aF12.0
aI0
aI00
aI00
aI00
aI00
aI00
aI00
aI00
aI00
aa(lp2240
I175989
aF523.14
aF600.364
aVp2
p2241
aS'dejavusans'
p2242
aS'#000000'
p2243
aF12.0
aI0
aI00
aI00
aI00
aI00
aI00
aI00
aI00
aI00
aa(lp2244
I113929
aF90.1
aF614.364
aVp2
p2245
aS'dejavusans'
p2246
aS'#000000'
p2247
aF12.0
aI0
aI00
aI00
aI00
aI00
aI00
aI00
aI00
aI00
aa(lp2248
I26681
aF113.776
aF614.364
aVp2
p2249
aS'dejavusans'
p2250
aS'#000000'
p2251
aF12.0
aI0
aI00
aI00
aI00
aI00
aI00
aI00
aI00
aI00
aa(lp2252
I122810
aF178.048
aF614.364
aVp2
p2253
aS'dejavusans'
p2254
aS'#000000'
p2255
aF12.0
aI0
aI00
aI00
aI00
aI00
aI00
aI00
aI00
aI00
aa(lp2256
I163971
aF221.812
aF614.364
aVp2
p2257
aS'dejavusans'
p2258
aS'#000000'
p2259
aF12.0
aI0
aI00
aI00
aI00
aI00
aI00
aI00
aI00
aI00
aa(lp2260
I166593
aF274.996
aF614.364
aVp2
p2261
aS'dejavusans'
p2262
aS'#000000'
p2263
aF12.0
aI0
aI00
aI00
aI00
aI00
aI00
aI00
aI00
aI00
aa(lp2264
I74981
aF286.192
aF614.364
aVp2
p2265
aS'dejavusans'
p2266
aS'#000000'
p2267
aF12.0
aI0
aI00
aI00
aI00
aI00
aI00
aI00
aI00
aI00
aa(lp2268
I182558
aF303.516
aF614.364
ag2265
aS'dejavusans'
p2269
aS'#000000'
p2270
aF12.0
aI0
aI00
aI00
aI00
aI00
aI00
aI00
aI00
aI00
aa(lp2271
I21605
aF338.968
aF614.364
aVp2
p2272
aS'dejavusans'
p2273
aS'#000000'
p2274
aF12.0
aI0
aI00
aI00
aI00
aI00
aI00
aI00
aI00
aI00
aa(lp2275
I33705
aF410.536
aF614.364
aVp2
p2276
aS'dejavusans'
p2277
aS'#000000'
p2278
aF12.0
aI0
aI00
aI00
aI00
aI00
aI00
aI00
aI00
aI00
aa(lp2279
I192638
aF435.916
aF614.364
aVp2
p2280
aS'dejavusans'
p2281
aS'#000000'
p2282
aF12.0
aI0
aI00
aI00
aI00
aI00
aI00
aI00
aI00
aI00
aa(lp2283
I43592
aF454.708
aF614.364
aVp2
p2284
aS'dejavusans'
p2285
aS'#000000'
p2286
aF12.0
aI0
aI00
aI00
aI00
aI00
aI00
aI00
aI00
aI00
aa(lp2287
I144503
aF492.58
aF614.364
aVp2
p2288
aS'dejavusans'
p2289
aS'#000000'
p2290
aF12.0
aI0
aI00
aI00
aI00
aI00
aI00
aI00
aI00
aI00
aa(lp2291
I73425
aF508.672
aF614.364
aVp2
p2292
aS'dejavusans'
p2293
aS'#000000'
p2294
aF12.0
aI0
aI00
aI00
aI00
aI00
aI00
aI00
aI00
aI00
aa(lp2295
I89480
aF530.668
aF614.364
aVp2
p2296
aS'dejavusans'
p2297
aS'#000000'
p2298
aF12.0
aI0
aI00
aI00
aI00
aI00
aI00
aI00
aI00
aI00
aa(lp2299
I61195
aF90.1
aF628.364
aVp2
p2300
aS'dejavusans'
p2301
aS'#000000'
p2302
aF12.0
aI0
aI00
aI00
aI00
aI00
aI00
aI00
aI00
aI00
aa(lp2303
I50825
aF140.032
aF628.364
aVp2
p2304
aS'dejavusans'
p2305
aS'#000000'
p2306
aF12.0
aI0
aI00
aI00
aI00
aI00
aI00
aI00
aI00
aI00
aa(lp2307
I89480
aF166.42
aF628.364
aVp2
p2308
aS'dejavusans'
p2309
aS'#000000'
p2310
aF12.0
aI0
aI00
aI00
aI00
aI00
aI00
aI00
aI00
aI00
aa(lp2311
I189154
aF182.224
aF628.364
aVp2
p2312
aS'dejavusans'
p2313
aS'#000000'
p2314
aF12.0
aI0
aI00
aI00
aI00
aI00
aI00
aI00
aI00
aI00
aa(lp2315
I135639
aF227.284
aF628.364
aVp2
p2316
aS'dejavusans'
p2317
aS'#000000'
p2318
aF12.0
aI0
aI00
aI00
aI00
aI00
aI00
aI00
aI00
aI00
aa(lp2319
I153843
aF241.984
aF628.364
aVp2
p2320
aS'dejavusans'
p2321
aS'#000000'
p2322
aF12.0
aI0
aI01
aI00
aI00
aI00
aI00
aI00
aI00
aI00
aa(lp2323
I75592
aF281.848
aF628.364
aVp2
p2324
aS'dejavusans'
p2325
aS'#000000'
p2326
aF12.0
aI0
aI01
aI00
aI00
aI00
aI00
aI00
aI00
aI00
aa(lp2327
I234378
aF304.8688
aF628.364
ag2324
aS'dejavusans'
p2328
aS'#000000'
p2329
aF12.0
aI0
aI00
aI00
aI00
aI00
aI00
aI00
aI00
aI00
aa(lp2330
I22476
aF314.512
aF628.364
aVp2
p2331
aS'dejavusans'
p2332
aS'#000000'
p2333
aF12.0
aI0
aI01
aI00
aI00
aI00
aI00
aI00
aI00
aI00
aa(lp2334
I22474
aF326.608
aF628.364
aVp2
p2335
aS'dejavusans'
p2336
aS'#000000'
p2337
aF12.0
aI0
aI00
aI00
aI00
aI00
aI00
aI00
aI00
aI00
aa(lp2338
I166593
aF339.988
aF628.364
aVp2
p2339
aS'dejavusans'
p2340
aS'#000000'
p2341
aF12.0
aI0
aI00
aI00
aI00
aI00
aI00
aI00
aI00
aI00
aa(lp2342
I86836
aF351.088
aF628.364
aVp2
p2343
aS'dejavusans'
p2344
aS'#000000'
p2345
aF12.0
aI0
aI01
aI01
aI00
aI00
aI00
aI00
aI00
aI00
aa(lp2346
I154322
aF378.664
aF628.364
aVp2
p2347
aS'dejavusans'
p2348
aS'#000000'
p2349
aF12.0
aI0
aI01
aI00
aI00
aI00
aI00
aI00
aI00
aI00
aa(lp2350
I177958
aF434.848
aF628.364
aVp2
p2351
aS'dejavusans'
p2352
aS'#000000'
p2353
aF12.0
aI0
aI01
aI00
aI00
aI00
aI00
aI00
aI00
aI00
aa(lp2354
I234378
aF473.95000000000005
aF628.364
ag2351
aS'dejavusans'
p2355
aS'#000000'
p2356
aF12.0
aI0
aI00
aI00
aI00
aI00
aI00
aI00
aI00
aI00
aa(lp2357
I175989
aF483.508
aF628.364
aVp2
p2358
aS'dejavusans'
p2359
aS'#000000'
p2360
aF12.0
aI0
aI00
aI00
aI00
aI00
aI00
aI00
aI00
aI00
aa(lp2361
I171514
aF511.696
aF628.364
aVp2
p2362
aS'dejavusans'
p2363
aS'#000000'
p2364
aF12.0
aI0
aI00
aI00
aI00
aI00
aI00
aI00
aI00
aI00
aa(lp2365
I24443
aF90.1
aF642.364
aVp2
p2366
aS'dejavusans'
p2367
aS'#000000'
p2368
aF12.0
aI0
aI00
aI00
aI00
aI00
aI00
aI00
aI00
aI00
aa(lp2369
I85218
aF139.876
aF642.364
aVp2
p2370
aS'dejavusans'
p2371
aS'#000000'
p2372
aF12.0
aI0
aI00
aI00
aI00
aI00
aI00
aI00
aI00
aI00
aa(lp2373
I135639
aF166.264
aF642.364
aVp2
p2374
aS'dejavusans'
p2375
aS'#000000'
p2376
aF12.0
aI0
aI00
aI00
aI00
aI00
aI00
aI00
aI00
aI00
aa(lp2377
I192024
aF181.06
aF642.364
aVp2
p2378
aS'dejavusans'
p2379
aS'#000000'
p2380
aF12.0
aI0
aI00
aI00
aI00
aI00
aI00
aI00
aI00
aI00
aa(lp2381
I135639
aF232.336
aF642.364
aVp2
p2382
aS'dejavusans'
p2383
aS'#000000'
p2384
aF12.0
aI0
aI00
aI00
aI00
aI00
aI00
aI00
aI00
aI00
aa(lp2385
I75592
aF247.036
aF642.364
aVp2
p2386
aS'dejavusans'
p2387
aS'#000000'
p2388
aF12.0
aI0
aI00
aI00
aI00
aI00
aI00
aI00
aI00
aI00
aa(lp2389
I169745
aF272.524
aF642.364
aVp2
p2390
aS'dejavusans'
p2391
aS'#000000'
p2392
aF12.0
aI0
aI00
aI00
aI00
aI00
aI00
aI00
aI00
aI00
aa(lp2393
I194354
aF301.828
aF642.364
aVp2
p2394
aS'dejavusans'
p2395
aS'#000000'
p2396
aF12.0
aI0
aI00
aI00
aI00
aI00
aI00
aI00
aI00
aI00
aa(lp2397
I174334
aF325.324
aF642.364
aVp2
p2398
aS'dejavusans'
p2399
aS'#000000'
p2400
aF12.0
aI0
aI00
aI00
aI00
aI00
aI00
aI00
aI00
aI00
aa(lp2401
I144489
aF385.984
aF642.364
aVp2
p2402
aS'dejavusans'
p2403
aS'#000000'
p2404
aF12.0
aI0
aI00
aI00
aI00
aI00
aI00
aI00
aI00
aI00
aa(lp2405
I95125
aF401.368
aF642.364
aVp2
p2406
aS'dejavusans'
p2407
aS'#000000'
p2408
aF12.0
aI0
aI00
aI00
aI00
aI00
aI00
aI00
aI00
aI00
aa(lp2409
I175989
aF426.64
aF642.364
aVp2
p2410
aS'dejavusans'
p2411
aS'#000000'
p2412
aF12.0
aI0
aI00
aI00
aI00
aI00
aI00
aI00
aI00
aI00
aa(lp2413
I234378
aF454.744
aF642.364
aVp2
p2414
aS'dejavusans'
p2415
aS'#000000'
p2416
aF12.0
aI0
aI00
aI00
aI00
aI00
aI00
aI00
aI00
aI00
aa(lp2417
I234378
aF497.896
aF642.364
aVp2
p2418
aS'dejavusans'
p2419
aS'#000000'
p2420
aF12.0
aI0
aI00
aI00
aI00
aI00
aI00
aI00
aI00
aI00
aa(lp2421
I169745
aF90.1
aF656.364
aVp2
p2422
aS'dejavusans'
p2423
aS'#000000'
p2424
aF12.0
aI0
aI00
aI00
aI00
aI00
aI00
aI00
aI00
aI00
aa(lp2425
I77579
aF119.404
aF656.364
aVp2
p2426
aS'dejavusans'
p2427
aS'#000000'
p2428
aF12.0
aI0
aI01
aI00
aI00
aI00
aI00
aI00
aI00
aI00
aa(lp2429
I153177
aF180.652
aF656.364
aVp2
p2430
aS'dejavusans'
p2431
aS'#000000'
p2432
aF12.0
aI0
aI01
aI00
aI00
aI00
aI00
aI00
aI00
aI00
aa(lp2433
I234378
aF255.8810909090909
aF656.364
ag2430
aS'dejavusans'
p2434
aS'#000000'
p2435
aF12.0
aI0
aI00
aI00
aI00
aI00
aI00
aI00
aI00
aI00
aa(lp2436
I234378
aF90.1
aF670.364
aVp2
p2437
aS'dejavusans'
p2438
aS'#000000'
p2439
aF12.0
aI1
aI01
aI00
aI00
aI00
aI00
aI00
aI00
aI00
aa(lp2440
I234378
aF205.34875
aF670.364
ag2437
aS'dejavusans'
p2441
aS'#000000'
p2442
aF12.0
aI1
aI00
aI00
aI00
aI00
aI00
aI00
aI00
aI00
aa(lp2443
I105322
aF126.1
aF684.364
aVp2
p2444
aS'dejavusans'
p2445
aS'#000000'
p2446
aF12.0
aI0
aI01
aI00
aI00
aI00
aI00
aI00
aI00
aI00
aa(lp2447
I135639
aF180.964
aF684.364
aVp2
p2448
aS'dejavusans'
p2449
aS'#000000'
p2450
aF12.0
aI0
aI00
aI00
aI00
aI00
aI00
aI00
aI00
aI00
aa(lp2451
I111522
aF195.664
aF684.364
aVp2
p2452
aS'dejavusans'
p2453
aS'#000000'
p2454
aF12.0
aI0
aI00
aI00
aI00
aI00
aI00
aI00
aI00
aI00
aa(lp2455
I202216
aF257.524
aF684.364
aVp2
p2456
aS'dejavusans'
p2457
aS'#000000'
p2458
aF12.0
aI0
aI01
aI00
aI00
aI00
aI00
aI00
aI00
aI00
aa(lp2459
I96295
aF338.464
aF684.364
aVp2
p2460
aS'dejavusans'
p2461
aS'#000000'
p2462
aF12.0
aI0
aI00
aI00
aI00
aI00
aI00
aI00
aI00
aI00
aa(lp2463
I85218
aF400.42
aF684.364
aVp2
p2464
aS'dejavusans'
p2465
aS'#000000'
p2466
aF12.0
aI0
aI00
aI00
aI00
aI00
aI00
aI00
aI00
aI00
aa(lp2467
I90832
aF426.712
aF684.364
aVp2
p2468
aS'dejavusans'
p2469
aS'#000000'
p2470
aF12.0
aI0
aI01
aI00
aI00
aI00
aI00
aI00
aI00
aI00
aa(lp2471
I117435
aF498.448
aF684.364
aVp2
p2472
aS'dejavusans'
p2473
aS'#000000'
p2474
aF12.0
aI0
aI01
aI00
aI00
aI00
aI00
aI00
aI00
aI00
aa(lp2475
I165056
aF126.1
aF699.264
aVp2
p2476
aS'dejavusans'
p2477
aS'#000000'
p2478
aF12.0
aI0
aI00
aI00
aI00
aI00
aI00
aI00
aI00
aI00
aa(lp2479
I234378
aF159.42
aF699.264
ag2476
aS'dejavusans'
p2480
aS'#000000'
p2481
aF12.0
aI0
aI00
aI00
aI00
aI00
aI00
aI00
aI00
aI00
aa(lp2482
I234378
aF126.1
aF72.064
aVp3
p2483
aS'dejavusans'
p2484
aS'#000000'
p2485
aF12.0
aI0
aI01
aI00
aI00
aI00
aI00
aI00
aI00
aI00
aa(lp2486
I194354
aF177.364
aF72.064
aVp3
p2487
aS'dejavusans'
p2488
aS'#000000'
p2489
aF12.0
aI0
aI00
aI00
aI00
aI00
aI00
aI00
aI00
aI00
aa(lp2490
I60201
aF200.86
aF72.064
aVp3
p2491
aS'dejavusans'
p2492
aS'#000000'
p2493
aF12.0
aI0
aI00
aI00
aI00
aI00
aI00
aI00
aI00
aI00
aa(lp2494
I96642
aF223.228
aF72.064
aVp3
p2495
aS'dejavusans'
p2496
aS'#000000'
p2497
aF12.0
aI0
aI00
aI00
aI00
aI00
aI00
aI00
aI00
aI00
aa(lp2498
I95104
aF264.988
aF72.064
aVp3
p2499
aS'dejavusans'
p2500
aS'#000000'
p2501
aF12.0
aI0
aI00
aI00
aI00
aI00
aI00
aI00
aI00
aI00
aa(lp2502
I144483
aF302.284
aF72.064
aVp3
p2503
aS'dejavusans'
p2504
aS'#000000'
p2505
aF12.0
aI0
aI00
aI00
aI00
aI00
aI00
aI00
aI00
aI00
aa(lp2506
I234378
aF321.076
aF72.064
aVp3
p2507
aS'dejavusans'
p2508
aS'#000000'
p2509
aF12.0
aI0
aI01
aI00
aI00
aI00
aI00
aI00
aI00
aI00
aa(lp2510
I96642
aF379.252
aF72.064
aVp3
p2511
aS'dejavusans'
p2512
aS'#000000'
p2513
aF12.0
aI0
aI00
aI00
aI00
aI00
aI00
aI00
aI00
aI00
aa(lp2514
I16334
aF421.012
aF72.064
aVp3
p2515
aS'dejavusans'
p2516
aS'#000000'
p2517
aF12.0
aI0
aI00
aI00
aI00
aI00
aI00
aI00
aI00
aI00
aa(lp2518
I91463
aF436.912
aF72.064
aVp3
p2519
aS'dejavusans'
p2520
aS'#000000'
p2521
aF12.0
aI0
aI00
aI00
aI00
aI00
aI00
aI00
aI00
aI00
aa(lp2522
I17057
aF489.556
aF72.064
aVp3
p2523
aS'dejavusans'
p2524
aS'#000000'
p2525
aF12.0
aI0
aI00
aI00
aI00
aI00
aI00
aI00
aI00
aI00
aa(lp2526
I234378
aF535.1346666666667
aF72.064
ag2523
aS'dejavusans'
p2527
aS'#000000'
p2528
aF12.0
aI0
aI00
aI00
aI00
aI00
aI00
aI00
aI00
aI00
aa(lp2529
I105322
aF126.1
aF86.964
aVp3
p2530
aS'dejavusans'
p2531
aS'#000000'
p2532
aF12.0
aI0
aI01
aI00
aI00
aI00
aI00
aI00
aI00
aI00
aa(lp2533
I135639
aF180.964
aF86.964
aVp3
p2534
aS'dejavusans'
p2535
aS'#000000'
p2536
aF12.0
aI0
aI00
aI00
aI00
aI00
aI00
aI00
aI00
aI00
aa(lp2537
I68032
aF195.664
aF86.964
aVp3
p2538
aS'dejavusans'
p2539
aS'#000000'
p2540
aF12.0
aI0
aI01
aI00
aI00
aI00
aI00
aI00
aI00
aI00
aa(lp2541
I234378
aF273.082
aF86.964
ag2538
aS'dejavusans'
p2542
aS'#000000'
p2543
aF12.0
aI0
aI00
aI00
aI00
aI00
aI00
aI00
aI00
aI00
aa(lp2544
I125078
aF284.092
aF86.964
aVp3
p2545
aS'dejavusans'
p2546
aS'#000000'
p2547
aF12.0
aI0
aI01
aI00
aI00
aI00
aI00
aI00
aI00
aI00
aa(lp2548
I85218
aF330.052
aF86.964
aVp3
p2549
aS'dejavusans'
p2550
aS'#000000'
p2551
aF12.0
aI0
aI00
aI00
aI00
aI00
aI00
aI00
aI00
aI00
aa(lp2552
I71646
aF356.428
aF86.964
aVp3
p2553
aS'dejavusans'
p2554
aS'#000000'
p2555
aF12.0
aI0
aI01
aI00
aI00
aI00
aI00
aI00
aI00
aI00
aa(lp2556
I31703
aF399.712
aF86.964
aVp3
p2557
aS'dejavusans'
p2558
aS'#000000'
p2559
aF12.0
aI0
aI00
aI00
aI00
aI00
aI00
aI00
aI00
aI00
aa(lp2560
I234378
aF436.684
aF86.964
aVp3
p2561
aS'dejavusans'
p2562
aS'#000000'
p2563
aF12.0
aI0
aI00
aI00
aI00
aI00
aI00
aI00
aI00
aI00
aa(lp2564
I234378
aF466.16400000000004
aF86.964
ag2561
aS'dejavusans'
p2565
aS'#000000'
p2566
aF12.0
aI0
aI00
aI00
aI00
aI00
aI00
aI00
aI00
aI00
aa(lp2567
I62551
aF126.1
aF101.864
aVp3
p2568
aS'dejavusans'
p2569
aS'#000000'
p2570
aF12.0
aI0
aI01
aI00
aI00
aI00
aI00
aI00
aI00
aI00
aa(lp2571
I38577
aF160.78
aF101.864
aVp3
p2572
aS'dejavusans'
p2573
aS'#000000'
p2574
aF12.0
aI0
aI00
aI00
aI00
aI00
aI00
aI00
aI00
aI00
aa(lp2575
I194354
aF194.56
aF101.864
aVp3
p2576
aS'dejavusans'
p2577
aS'#000000'
p2578
aF12.0
aI0
aI00
aI00
aI00
aI00
aI00
aI00
aI00
aI00
aa(lp2579
I60201
aF218.056
aF101.864
aVp3
p2580
aS'dejavusans'
p2581
aS'#000000'
p2582
aF12.0
aI0
aI00
aI00
aI00
aI00
aI00
aI00
aI00
aI00
aa(lp2583
I95104
aF240.34
aF101.864
aVp3
p2584
aS'dejavusans'
p2585
aS'#000000'
p2586
aF12.0
aI0
aI00
aI00
aI00
aI00
aI00
aI00
aI00
aI00
aa(lp2587
I144489
aF277.72
aF101.864
aVp3
p2588
aS'dejavusans'
p2589
aS'#000000'
p2590
aF12.0
aI0
aI00
aI00
aI00
aI00
aI00
aI00
aI00
aI00
aa(lp2591
I234378
aF293.104
aF101.864
aVp3
p2592
aS'dejavusans'
p2593
aS'#000000'
p2594
aF12.0
aI0
aI01
aI00
aI00
aI00
aI00
aI00
aI00
aI00
aa(lp2595
I115769
aF324.88
aF101.864
aVp3
p2596
aS'dejavusans'
p2597
aS'#000000'
p2598
aF12.0
aI0
aI00
aI00
aI00
aI00
aI00
aI00
aI00
aI00
aa(lp2599
I190806
aF393.256
aF101.864
aVp3
p2600
aS'dejavusans'
p2601
aS'#000000'
p2602
aF12.0
aI0
aI00
aI00
aI00
aI00
aI00
aI00
aI00
aI00
aa(lp2603
I112275
aF413.548
aF101.864
aVp3
p2604
aS'dejavusans'
p2605
aS'#000000'
p2606
aF12.0
aI0
aI01
aI00
aI00
aI00
aI00
aI00
aI00
aI00
aa(lp2607
I125078
aF441.82
aF101.864
aVp3
p2608
aS'dejavusans'
p2609
aS'#000000'
p2610
aF12.0
aI0
aI01
aI00
aI00
aI00
aI00
aI00
aI00
aI00
aa(lp2611
I234378
aF481.9615
aF101.864
ag2608
aS'dejavusans'
p2612
aS'#000000'
p2613
aF12.0
aI0
aI00
aI00
aI00
aI00
aI00
aI00
aI00
aI00
aa(lp2614
I195933
aF84.3
aF130.78
aVp3
p2615
aS'standardsyml'
p2616
aS'#000000'
p2617
aF12.0
aI0
aI01
aI00
aI00
aI00
aI00
aI00
aI00
aI00
aa(lp2618
I234378
aF143.656
aF131.764
aVp3
p2619
aS'dejavusans'
p2620
aS'#000000'
p2621
aF12.0
aI1
aI01
aI00
aI00
aI00
aI00
aI00
aI00
aI00
aa(lp2622
I94650
aF194.944
aF131.764
aVp3
p2623
aS'dejavusans'
p2624
aS'#000000'
p2625
aF12.0
aI1
aI01
aI00
aI00
aI00
aI00
aI00
aI00
aI00
aa(lp2626
I234378
aF252.916
aF131.764
aVp3
p2627
aS'dejavusans'
p2628
aS'#000000'
p2629
aF12.0
aI1
aI00
aI00
aI00
aI00
aI00
aI00
aI00
aI00
aa(lp2630
I42284
aF260.0450909090909
aF131.764
ag2627
aS'dejavusans'
p2631
aS'#000000'
p2632
aF12.0
aI1
aI01
aI00
aI00
aI00
aI00
aI00
aI00
aI00
aa(lp2633
I234378
aF324.2069090909091
aF131.764
ag2627
aS'dejavusans'
p2634
aS'#000000'
p2635
aF12.0
aI1
aI00
aI00
aI00
aI00
aI00
aI00
aI00
aI00
aa(lp2636
I176435
aF90.1
aF146.364
aVp3
p2637
aS'dejavusans'
p2638
aS'#000000'
p2639
aF12.0
aI1
aI01
aI00
aI00
aI00
aI00
aI00
aI00
aI00
aa(lp2640
I135639
aF124.0
aF146.364
aVp3
p2641
aS'dejavusans'
p2642
aS'#000000'
p2643
aF12.0
aI1
aI00
aI00
aI00
aI00
aI00
aI00
aI00
aI00
aa(lp2644
I177958
aF140.884
aF146.364
aVp3
p2645
aS'dejavusans'
p2646
aS'#000000'
p2647
aF12.0
aI1
aI00
aI00
aI00
aI00
aI00
aI00
aI00
aI00
aa(lp2648
I234378
aF186.25099999999998
aF146.364
ag2645
aS'dejavusans'
p2649
aS'#000000'
p2650
aF12.0
aI1
aI00
aI00
aI00
aI00
aI00
aI00
aI00
aI00
aa(lp2651
I234378
aF196.596
aF146.364
aVp3
p2652
aS'dejavusans'
p2653
aS'#000000'
p2654
aF12.0
aI0
aI01
aI00
aI00
aI00
aI00
aI00
aI00
aI00
aa(lp2655
I100815
aF253.272
aF146.364
aVp3
p2656
aS'dejavusans'
p2657
aS'#000000'
p2658
aF12.0
aI0
aI00
aI00
aI00
aI00
aI00
aI00
aI00
aI00
aa(lp2659
I66756
aF90.1
aF160.364
aVp3
p2660
aS'dejavusans'
p2661
aS'#000000'
p2662
aF12.0
aI1
aI01
aI00
aI00
aI00
aI00
aI00
aI00
aI00
aa(lp2663
I234378
aF164.92933333333332
aF160.364
ag2660
aS'dejavusans'
p2664
aS'#000000'
p2665
aF12.0
aI1
aI00
aI00
aI00
aI00
aI00
aI00
aI00
aI00
aa(lp2666
I195933
aF175.596
aF160.364
aVp3
p2667
aS'dejavusans'
p2668
aS'#000000'
p2669
aF12.0
aI0
aI01
aI00
aI00
aI00
aI00
aI00
aI00
aI00
aa(lp2670
I234378
aF223.068
aF160.364
aVp3
p2671
aS'dejavusans'
p2672
aS'#000000'
p2673
aF12.0
aI0
aI01
aI00
aI00
aI00
aI00
aI00
aI00
aI00
aa(lp2674
I94650
aF267.324
aF160.364
aVp3
p2675
aS'dejavusans'
p2676
aS'#000000'
p2677
aF12.0
aI0
aI01
aI00
aI00
aI00
aI00
aI00
aI00
aI00
aa(lp2678
I234378
aF318.804
aF160.364
aVp3
p2679
aS'dejavusans'
p2680
aS'#000000'
p2681
aF12.0
aI0
aI00
aI00
aI00
aI00
aI00
aI00
aI00
aI00
aa(lp2682
I234378
aF325.45439999999996
aF160.364
ag2679
aS'dejavusans'
p2683
aS'#000000'
p2684
aF12.0
aI0
aI01
aI01
aI00
aI00
aI00
aI00
aI00
aI00
aa(lp2685
I234378
aF345.40559999999994
aF160.364
ag2679
aS'dejavusans'
p2686
aS'#000000'
p2687
aF12.0
aI0
aI00
aI00
aI00
aI00
aI00
aI00
aI00
aI00
aa(lp2688
I22474
aF355.872
aF160.364
aVp3
p2689
aS'dejavusans'
p2690
aS'#000000'
p2691
aF12.0
aI0
aI00
aI00
aI00
aI00
aI00
aI00
aI00
aI00
aa(lp2692
I166593
aF369.264
aF160.364
aVp3
p2693
aS'dejavusans'
p2694
aS'#000000'
p2695
aF12.0
aI0
aI00
aI00
aI00
aI00
aI00
aI00
aI00
aI00
aa(lp2696
I195933
aF380.46
aF160.364
aVp3
p2697
aS'dejavusans'
p2698
aS'#000000'
p2699
aF12.0
aI0
aI00
aI00
aI00
aI00
aI00
aI00
aI00
aI00
aa(lp2700
I48014
aF426.132
aF160.364
aVp3
p2701
aS'dejavusans'
p2702
aS'#000000'
p2703
aF12.0
aI0
aI00
aI00
aI00
aI00
aI00
aI00
aI00
aI00
aa(lp2704
I190806
aF490.584
aF160.364
aVp3
p2705
aS'dejavusans'
p2706
aS'#000000'
p2707
aF12.0
aI0
aI00
aI00
aI00
aI00
aI00
aI00
aI00
aI00
aa(lp2708
I230790
aF510.96
aF160.364
aVp3
p2709
aS'dejavusans'
p2710
aS'#000000'
p2711
aF12.0
aI0
aI00
aI00
aI00
aI00
aI00
aI00
aI00
aI00
aa(lp2712
I234378
aF90.1
aF174.364
aVp3
p2713
aS'dejavusans'
p2714
aS'#000000'
p2715
aF12.0
aI0
aI00
aI00
aI00
aI00
aI00
aI00
aI00
aI00
aa(lp2716
I132957
aF134.968
aF174.364
aVp3
p2717
aS'dejavusans'
p2718
aS'#000000'
p2719
aF12.0
aI0
aI00
aI00
aI00
aI00
aI00
aI00
aI00
aI00
aa(lp2720
I234378
aF159.59199999999998
aF174.364
ag2717
aS'dejavusans'
p2721
aS'#000000'
p2722
aF12.0
aI0
aI00
aI00
aI00
aI00
aI00
aI00
aI00
aI00
aa(lp2723
I234378
aF169.552
aF174.364
aVp3
p2724
aS'dejavusans'
p2725
aS'#000000'
p2726
aF12.0
aI0
aI01
aI01
aI00
aI00
aI00
aI00
aI00
aI00
aa(lp2727
I123665
aF197.332
aF174.364
aVp3
p2728
aS'dejavusans'
p2729
aS'#000000'
p2730
aF12.0
aI0
aI00
aI00
aI00
aI00
aI00
aI00
aI00
aI00
aa(lp2731
I234378
aF267.376
aF174.364
aVp3
p2732
aS'dejavusans'
p2733
aS'#000000'
p2734
aF12.0
aI0
aI00
aI00
aI00
aI00
aI00
aI00
aI00
aI00
aa(lp2735
I194354
aF323.332
aF174.364
aVp3
p2736
aS'dejavusans'
p2737
aS'#000000'
p2738
aF12.0
aI0
aI00
aI00
aI00
aI00
aI00
aI00
aI00
aI00
aa(lp2739
I234378
aF346.828
aF174.364
aVp3
p2740
aS'dejavusans'
p2741
aS'#000000'
p2742
aF12.0
aI0
aI00
aI00
aI00
aI00
aI00
aI00
aI00
aI00
aa(lp2743
I234378
aF391.6
aF174.364
aVp3
p2744
aS'dejavusans'
p2745
aS'#000000'
p2746
aF12.0
aI0
aI00
aI00
aI00
aI00
aI00
aI00
aI00
aI00
aa(lp2747
I131049
aF428.272
aF174.364
aVp3
p2748
aS'dejavusans'
p2749
aS'#000000'
p2750
aF12.0
aI0
aI00
aI00
aI00
aI00
aI00
aI00
aI00
aI00
aa(lp2751
I234378
aF459.952
aF174.364
aVp3
p2752
aS'dejavusans'
p2753
aS'#000000'
p2754
aF12.0
aI0
aI00
aI00
aI00
aI00
aI00
aI00
aI00
aI00
aa(lp2755
I234378
aF505.41700000000003
aF174.364
ag2752
aS'dejavusans'
p2756
aS'#000000'
p2757
aF12.0
aI0
aI00
aI00
aI00
aI00
aI00
aI00
aI00
aI00
aa(lp2758
I234378
aF90.1
aF188.364
aVp3
p2759
aS'dejavusans'
p2760
aS'#000000'
p2761
aF12.0
aI0
aI00
aI00
aI00
aI00
aI00
aI00
aI00
aI00
aa(lp2762
I194354
aF148.36
aF188.364
aVp3
p2763
aS'dejavusans'
p2764
aS'#000000'
p2765
aF12.0
aI0
aI00
aI00
aI00
aI00
aI00
aI00
aI00
aI00
aa(lp2766
I234378
aF171.856
aF188.364
aVp3
p2767
aS'dejavusans'
p2768
aS'#000000'
p2769
aF12.0
aI0
aI00
aI00
aI00
aI00
aI00
aI00
aI00
aI00
aa(lp2770
I234378
aF206.02514285714284
aF188.364
ag2767
aS'dejavusans'
p2771
aS'#000000'
p2772
aF12.0
aI0
aI00
aI00
aI00
aI00
aI00
aI00
aI00
aI00
aa(lp2773
I234378
aF215.524
aF188.364
aVp3
p2774
aS'dejavusans'
p2775
aS'#000000'
p2776
aF12.0
aI0
aI00
aI00
aI00
aI00
aI00
aI00
aI00
aI00
aa(lp2777
I194354
aF294.46
aF188.364
aVp3
p2778
aS'dejavusans'
p2779
aS'#000000'
p2780
aF12.0
aI0
aI00
aI00
aI00
aI00
aI00
aI00
aI00
aI00
aa(lp2781
I234378
aF317.956
aF188.364
aVp3
p2782
aS'dejavusans'
p2783
aS'#000000'
p2784
aF12.0
aI0
aI00
aI00
aI00
aI00
aI00
aI00
aI00
aI00
aa(lp2785
I35885
aF357.82
aF188.364
aVp3
p2786
aS'dejavusans'
p2787
aS'#000000'
p2788
aF12.0
aI0
aI00
aI00
aI00
aI00
aI00
aI00
aI00
aI00
aa(lp2789
I144483
aF397.876
aF188.364
aVp3
p2790
aS'dejavusans'
p2791
aS'#000000'
p2792
aF12.0
aI0
aI00
aI00
aI00
aI00
aI00
aI00
aI00
aI00
aa(lp2793
I234378
aF416.572
aF188.364
aVp3
p2794
aS'dejavusans'
p2795
aS'#000000'
p2796
aF12.0
aI0
aI00
aI00
aI00
aI00
aI00
aI00
aI00
aI00
aa(lp2797
I86113
aF461.44
aF188.364
aVp3
p2798
aS'dejavusans'
p2799
aS'#000000'
p2800
aF12.0
aI0
aI00
aI00
aI00
aI00
aI00
aI00
aI00
aI00
aa(lp2801
I85218
aF515.224
aF188.364
aVp3
p2802
aS'dejavusans'
p2803
aS'#000000'
p2804
aF12.0
aI0
aI00
aI00
aI00
aI00
aI00
aI00
aI00
aI00
aa(lp2805
I234378
aF90.1
aF202.364
aVp3
p2806
aS'dejavusans'
p2807
aS'#000000'
p2808
aF12.0
aI0
aI00
aI00
aI00
aI00
aI00
aI00
aI00
aI00
aa(lp2809
I194354
aF141.256
aF202.364
aVp3
p2810
aS'dejavusans'
p2811
aS'#000000'
p2812
aF12.0
aI0
aI00
aI00
aI00
aI00
aI00
aI00
aI00
aI00
aa(lp2813
I234378
aF164.752
aF202.364
aVp3
p2814
aS'dejavusans'
p2815
aS'#000000'
p2816
aF12.0
aI0
aI00
aI00
aI00
aI00
aI00
aI00
aI00
aI00
aa(lp2817
I89480
aF204.616
aF202.364
aVp3
p2818
aS'dejavusans'
p2819
aS'#000000'
p2820
aF12.0
aI0
aI00
aI00
aI00
aI00
aI00
aI00
aI00
aI00
aa(lp2821
I194354
aF220.516
aF202.364
aVp3
p2822
aS'dejavusans'
p2823
aS'#000000'
p2824
aF12.0
aI0
aI00
aI00
aI00
aI00
aI00
aI00
aI00
aI00
aa(lp2825
I234378
aF244.012
aF202.364
aVp3
p2826
aS'dejavusans'
p2827
aS'#000000'
p2828
aF12.0
aI0
aI00
aI00
aI00
aI00
aI00
aI00
aI00
aI00
aa(lp2829
I234378
aF310.408
aF202.364
ag2826
aS'dejavusans'
p2830
aS'#000000'
p2831
aF12.0
aI0
aI00
aI00
aI00
aI00
aI00
aI00
aI00
aI00
aa(lp2832
I234378
aF320.332
aF202.364
aVp3
p2833
aS'dejavusans'
p2834
aS'#000000'
p2835
aF12.0
aI0
aI01
aI01
aI00
aI00
aI00
aI00
aI00
aI00
aa(lp2836
I234378
aF348.112
aF202.364
aVp3
p2837
aS'dejavusans'
p2838
aS'#000000'
p2839
aF12.0
aI0
aI00
aI00
aI00
aI00
aI00
aI00
aI00
aI00
aa(lp2840
I230790
aF379.384
aF202.364
aVp3
p2841
aS'dejavusans'
p2842
aS'#000000'
p2843
aF12.0
aI0
aI01
aI00
aI00
aI00
aI00
aI00
aI00
aI00
aa(lp2844
I226160
aF415.972
aF202.364
aVp3
p2845
aS'dejavusans'
p2846
aS'#000000'
p2847
aF12.0
aI0
aI01
aI00
aI00
aI00
aI00
aI00
aI00
aI00
aa(lp2848
I63022
aF463.132
aF202.364
aVp3
p2849
aS'dejavusans'
p2850
aS'#000000'
p2851
aF12.0
aI0
aI01
aI00
aI00
aI00
aI00
aI00
aI00
aI00
aa(lp2852
I89480
aF512.488
aF202.364
aVp3
p2853
aS'dejavusans'
p2854
aS'#000000'
p2855
aF12.0
aI0
aI00
aI00
aI00
aI00
aI00
aI00
aI00
aI00
aa(lp2856
I110057
aF90.1
aF216.364
aVp3
p2857
aS'dejavusans'
p2858
aS'#000000'
p2859
aF12.0
aI0
aI00
aI00
aI00
aI00
aI00
aI00
aI00
aI00
aa(lp2860
I194354
aF146.872
aF216.364
aVp3
p2861
aS'dejavusans'
p2862
aS'#000000'
p2863
aF12.0
aI0
aI00
aI00
aI00
aI00
aI00
aI00
aI00
aI00
aa(lp2864
I234378
aF170.368
aF216.364
aVp3
p2865
aS'dejavusans'
p2866
aS'#000000'
p2867
aF12.0
aI0
aI00
aI00
aI00
aI00
aI00
aI00
aI00
aI00
aa(lp2868
I132957
aF215.236
aF216.364
aVp3
p2869
aS'dejavusans'
p2870
aS'#000000'
p2871
aF12.0
aI0
aI00
aI00
aI00
aI00
aI00
aI00
aI00
aI00
aa(lp2872
I234378
aF239.85999999999999
aF216.364
ag2869
aS'dejavusans'
p2873
aS'#000000'
p2874
aF12.0
aI0
aI00
aI00
aI00
aI00
aI00
aI00
aI00
aI00
aa(lp2875
I234378
aF249.904
aF216.364
aVp3
p2876
aS'dejavusans'
p2877
aS'#000000'
p2878
aF12.0
aI0
aI01
aI01
aI00
aI00
aI00
aI00
aI00
aI00
aa(lp2879
I234378
aF277.672
aF216.364
aVp3
p2880
aS'dejavusans'
p2881
aS'#000000'
p2882
aF12.0
aI0
aI00
aI00
aI00
aI00
aI00
aI00
aI00
aI00
aa(lp2883
I166593
aF302.656
aF216.364
aVp3
p2884
aS'dejavusans'
p2885
aS'#000000'
p2886
aF12.0
aI0
aI00
aI00
aI00
aI00
aI00
aI00
aI00
aI00
aa(lp2887
I234378
aF313.84
aF216.364
aVp3
p2888
aS'dejavusans'
p2889
aS'#000000'
p2890
aF12.0
aI0
aI01
aI01
aI00
aI00
aI00
aI00
aI00
aI00
aa(lp2891
I221858
aF337.42
aF216.364
aVp3
p2892
aS'dejavusans'
p2893
aS'#000000'
p2894
aF12.0
aI0
aI00
aI00
aI00
aI00
aI00
aI00
aI00
aI00
aa(lp2895
I169745
aF394.684
aF216.364
aVp3
p2896
aS'dejavusans'
p2897
aS'#000000'
p2898
aF12.0
aI0
aI00
aI00
aI00
aI00
aI00
aI00
aI00
aI00
aa(lp2899
I19068
aF423.988
aF216.364
aVp3
p2900
aS'dejavusans'
p2901
aS'#000000'
p2902
aF12.0
aI0
aI01
aI00
aI00
aI00
aI00
aI00
aI00
aI00
aa(lp2903
I139618
aF466.048
aF216.364
aVp3
p2904
aS'dejavusans'
p2905
aS'#000000'
p2906
aF12.0
aI0
aI01
aI00
aI00
aI00
aI00
aI00
aI00
aI00
aa(lp2907
I132957
aF530.2
aF216.364
aVp3
p2908
aS'dejavusans'
p2909
aS'#000000'
p2910
aF12.0
aI0
aI01
aI00
aI00
aI00
aI00
aI00
aI00
aI00
aa(lp2911
I123665
aF90.1
aF230.364
aVp3
p2912
aS'dejavusans'
p2913
aS'#000000'
p2914
aF12.0
aI0
aI00
aI00
aI00
aI00
aI00
aI00
aI00
aI00
aa(lp2915
I190806
aF160.06
aF230.364
aVp3
p2916
aS'dejavusans'
p2917
aS'#000000'
p2918
aF12.0
aI0
aI00
aI00
aI00
aI00
aI00
aI00
aI00
aI00
aa(lp2919
I234378
aF180.436
aF230.364
aVp3
p2920
aS'dejavusans'
p2921
aS'#000000'
p2922
aF12.0
aI0
aI00
aI00
aI00
aI00
aI00
aI00
aI00
aI00
aa(lp2923
I194354
aF239.188
aF230.364
aVp3
p2924
aS'dejavusans'
p2925
aS'#000000'
p2926
aF12.0
aI0
aI00
aI00
aI00
aI00
aI00
aI00
aI00
aI00
aa(lp2927
I139618
aF262.684
aF230.364
aVp3
p2928
aS'dejavusans'
p2929
aS'#000000'
p2930
aF12.0
aI0
aI00
aI00
aI00
aI00
aI00
aI00
aI00
aI00
aa(lp2931
I132957
aF323.728
aF230.364
aVp3
p2932
aS'dejavusans'
p2933
aS'#000000'
p2934
aF12.0
aI0
aI00
aI00
aI00
aI00
aI00
aI00
aI00
aI00
aa(lp2935
I234378
aF354.616
aF230.364
aVp3
p2936
aS'dejavusans'
p2937
aS'#000000'
p2938
aF12.0
aI0
aI00
aI00
aI00
aI00
aI00
aI00
aI00
aI00
aa(lp2939
I192651
aF408.664
aF230.364
aVp3
p2940
aS'dejavusans'
p2941
aS'#000000'
p2942
aF12.0
aI0
aI00
aI00
aI00
aI00
aI00
aI00
aI00
aI00
aa(lp2943
I194354
aF427.156
aF230.364
aVp3
p2944
aS'dejavusans'
p2945
aS'#000000'
p2946
aF12.0
aI0
aI00
aI00
aI00
aI00
aI00
aI00
aI00
aI00
aa(lp2947
I166245
aF450.652
aF230.364
aVp3
p2948
aS'dejavusans'
p2949
aS'#000000'
p2950
aF12.0
aI0
aI00
aI00
aI00
aI00
aI00
aI00
aI00
aI00
aa(lp2951
I234378
aF506.716
aF230.364
aVp3
p2952
aS'dejavusans'
p2953
aS'#000000'
p2954
aF12.0
aI0
aI00
aI00
aI00
aI00
aI00
aI00
aI00
aI00
aa(lp2955
I234378
aF554.5026666666666
aF230.364
ag2952
aS'dejavusans'
p2956
aS'#000000'
p2957
aF12.0
aI0
aI00
aI00
aI00
aI00
aI00
aI00
aI00
aI00
aa(lp2958
I234378
aF90.1
aF244.364
aVp3
p2959
aS'dejavusans'
p2960
aS'#000000'
p2961
aF12.0
aI1
aI01
aI00
aI00
aI00
aI00
aI00
aI00
aI00
aa(lp2962
I234378
aF205.34875
aF244.364
ag2959
aS'dejavusans'
p2963
aS'#000000'
p2964
aF12.0
aI1
aI00
aI00
aI00
aI00
aI00
aI00
aI00
aI00
aa(lp2965
I105322
aF126.1
aF258.364
aVp3
p2966
aS'dejavusans'
p2967
aS'#000000'
p2968
aF12.0
aI0
aI01
aI00
aI00
aI00
aI00
aI00
aI00
aI00
aa(lp2969
I135639
aF180.964
aF258.364
aVp3
p2970
aS'dejavusans'
p2971
aS'#000000'
p2972
aF12.0
aI0
aI00
aI00
aI00
aI00
aI00
aI00
aI00
aI00
aa(lp2973
I100065
aF195.664
aF258.364
aVp3
p2974
aS'dejavusans'
p2975
aS'#000000'
p2976
aF12.0
aI0
aI00
aI00
aI00
aI00
aI00
aI00
aI00
aI00
aa(lp2977
I113201
aF233.236
aF258.364
aVp3
p2978
aS'dejavusans'
p2979
aS'#000000'
p2980
aF12.0
aI0
aI00
aI00
aI00
aI00
aI00
aI00
aI00
aI00
aa(lp2981
I144489
aF279.496
aF258.364
aVp3
p2982
aS'dejavusans'
p2983
aS'#000000'
p2984
aF12.0
aI0
aI00
aI00
aI00
aI00
aI00
aI00
aI00
aI00
aa(lp2985
I234378
aF294.88
aF258.364
aVp3
p2986
aS'dejavusans'
p2987
aS'#000000'
p2988
aF12.0
aI0
aI00
aI00
aI00
aI00
aI00
aI00
aI00
aI00
aa(lp2989
I68032
aF350.164
aF258.364
aVp3
p2990
aS'dejavusans'
p2991
aS'#000000'
p2992
aF12.0
aI0
aI00
aI00
aI00
aI00
aI00
aI00
aI00
aI00
aa(lp2993
I234378
aF426.317
aF258.364
ag2990
aS'dejavusans'
p2994
aS'#000000'
p2995
aF12.0
aI0
aI00
aI00
aI00
aI00
aI00
aI00
aI00
aI00
aa(lp2996
I131049
aF437.104
aF258.364
aVp3
p2997
aS'dejavusans'
p2998
aS'#000000'
p2999
aF12.0
aI0
aI00
aI00
aI00
aI00
aI00
aI00
aI00
aI00
aa(lp3000
I202216
aF468.868
aF258.364
aVp3
p3001
aS'dejavusans'
p3002
aS'#000000'
p3003
aF12.0
aI0
aI01
aI00
aI00
aI00
aI00
aI00
aI00
aI00
aa(lp3004
I96295
aF126.1
aF273.264
aVp3
p3005
aS'dejavusans'
p3006
aS'#000000'
p3007
aF12.0
aI0
aI00
aI00
aI00
aI00
aI00
aI00
aI00
aI00
aa(lp3008
I234378
aF181.7848
aF273.264
ag3005
aS'dejavusans'
p3009
aS'#000000'
p3010
aF12.0
aI0
aI00
aI00
aI00
aI00
aI00
aI00
aI00
aI00
aa(lp3011
I68032
aF191.86
aF273.264
aVp3
p3012
aS'dejavusans'
p3013
aS'#000000'
p3014
aF12.0
aI0
aI00
aI00
aI00
aI00
aI00
aI00
aI00
aI00
aa(lp3015
I234378
aF267.80400000000003
aF273.264
ag3012
aS'dejavusans'
p3016
aS'#000000'
p3017
aF12.0
aI0
aI00
aI00
aI00
aI00
aI00
aI00
aI00
aI00
aa(lp3018
I125078
aF278.596
aF273.264
aVp3
p3019
aS'dejavusans'
p3020
aS'#000000'
p3021
aF12.0
aI0
aI00
aI00
aI00
aI00
aI00
aI00
aI00
aI00
aa(lp3022
I234378
aF318.307
aF273.264
ag3019
aS'dejavusans'
p3023
aS'#000000'
p3024
aF12.0
aI0
aI00
aI00
aI00
aI00
aI00
aI00
aI00
aI00
aa(lp3025
I24757
aF327.868
aF273.264
aVp3
p3026
aS'dejavusans'
p3027
aS'#000000'
p3028
aF12.0
aI0
aI01
aI01
aI00
aI00
aI00
aI00
aI00
aI00
aa(lp3029
I234378
aF363.268
aF273.264
aVp3
p3030
aS'dejavusans'
p3031
aS'#000000'
p3032
aF12.0
aI0
aI01
aI01
aI00
aI00
aI00
aI00
aI00
aI00
aa(lp3033
I147316
aF390.532
aF273.264
aVp3
p3034
aS'dejavusans'
p3035
aS'#000000'
p3036
aF12.0
aI0
aI00
aI00
aI00
aI00
aI00
aI00
aI00
aI00
aa(lp3037
I234378
aF434.0125
aF273.264
ag3034
aS'dejavusans'
p3038
aS'#000000'
p3039
aF12.0
aI0
aI00
aI00
aI00
aI00
aI00
aI00
aI00
aI00
aa(lp3040
I118865
aF126.1
aF287.264
aVp3
p3041
aS'dejavusans'
p3042
aS'#000000'
p3043
aF12.0
aI0
aI01
aI00
aI00
aI00
aI00
aI00
aI00
aI00
aa(lp3044
I234378
aF166.78
aF287.264
aVp3
p3045
aS'dejavusans'
p3046
aS'#000000'
p3047
aF12.0
aI0
aI00
aI00
aI00
aI00
aI00
aI00
aI00
aI00
aa(lp3048
I234378
aF226.24
aF287.264
aVp3
p3049
aS'dejavusans'
p3050
aS'#000000'
p3051
aF12.0
aI0
aI00
aI00
aI00
aI00
aI00
aI00
aI00
aI00
aa(lp3052
I85218
aF285.796
aF287.264
aVp3
p3053
aS'dejavusans'
p3054
aS'#000000'
p3055
aF12.0
aI0
aI00
aI00
aI00
aI00
aI00
aI00
aI00
aI00
aa(lp3056
I234378
aF312.184
aF287.264
aVp3
p3057
aS'dejavusans'
p3058
aS'#000000'
p3059
aF12.0
aI0
aI00
aI00
aI00
aI00
aI00
aI00
aI00
aI00
aa(lp3060
I166593
aF372.556
aF287.264
aVp3
p3061
aS'dejavusans'
p3062
aS'#000000'
p3063
aF12.0
aI0
aI00
aI00
aI00
aI00
aI00
aI00
aI00
aI00
aa(lp3064
I130095
aF383.752
aF287.264
aVp3
p3065
aS'dejavusans'
p3066
aS'#000000'
p3067
aF12.0
aI0
aI00
aI00
aI00
aI00
aI00
aI00
aI00
aI00
aa(lp3068
I207716
aF405.4916
aF287.264
ag3065
aS'dejavusans'
p3069
aS'#000000'
p3070
aF12.0
aI0
aI00
aI00
aI00
aI00
aI00
aI00
aI00
aI00
aa(lp3071
I135639
aF456.688
aF287.264
aVp3
p3072
aS'dejavusans'
p3073
aS'#000000'
p3074
aF12.0
aI0
aI00
aI00
aI00
aI00
aI00
aI00
aI00
aI00
aa(lp3075
I234378
aF471.472
aF287.264
aVp3
p3076
aS'dejavusans'
p3077
aS'#000000'
p3078
aF12.0
aI0
aI01
aI01
aI00
aI00
aI00
aI00
aI00
aI00
aa(lp3079
I234378
aF492.23499999999996
aF287.264
ag3076
aS'dejavusans'
p3080
aS'#000000'
p3081
aF12.0
aI0
aI00
aI00
aI00
aI00
aI00
aI00
aI00
aI00
aa(lp3082
I234378
aF503.044
aF287.264
aVp3
p3083
aS'dejavusans'
p3084
aS'#000000'
p3085
aF12.0
aI0
aI00
aI00
aI00
aI00
aI00
aI00
aI00
aI00
aa(lp3086
I234378
aF126.1
aF302.164
aVp3
p3087
aS'dejavusans'
p3088
aS'#000000'
p3089
aF12.0
aI0
aI01
aI01
aI00
aI00
aI00
aI00
aI00
aI00
aa(lp3090
I234378
aF146.75257142857143
aF302.164
ag3087
aS'dejavusans'
p3091
aS'#000000'
p3092
aF12.0
aI0
aI00
aI00
aI00
aI00
aI00
aI00
aI00
aI00
aa(lp3093
I61211
aF40.2
aF354.02
aVp3
p3094
aS'dejavusans'
p3095
aS'#000000'
p3096
aF10.0
aI1
aI01
aI00
aI00
aI00
aI00
aI00
aI00
aI00
aa(lp3097
I171311
aF109.85
aF354.02
aVp3
p3098
aS'dejavusans'
p3099
aS'#000000'
p3100
aF10.0
aI1
aI01
aI00
aI00
aI00
aI00
aI00
aI00
aI00
aa(lp3101
I234378
aF51.0
aF378.32
aVp3
p3102
aS'dejavusans'
p3103
aS'#000000'
p3104
aF10.0
aI1
aI01
aI00
aI00
aI00
aI00
aI00
aI00
aI00
aa(lp3105
I234378
aF237.8
aF378.32
aVp3
p3106
aS'dejavusans'
p3107
aS'#000000'
p3108
aF10.0
aI1
aI01
aI00
aI00
aI00
aI00
aI00
aI00
aI00
aa(lp3109
I172293
aF470.7
aF378.32
aVp3
p3110
aS'dejavusans'
p3111
aS'#000000'
p3112
aF10.0
aI1
aI01
aI00
aI00
aI00
aI00
aI00
aI00
aI00
aa(lp3113
I27780
aF51.0
aF390.42
aVp3
p3114
aS'dejavusans'
p3115
aS'#000000'
p3116
aF10.0
aI0
aI01
aI01
aI00
aI00
aI00
aI00
aI00
aI00
aa(lp3117
I234378
aF56.39833333333333
aF390.42
ag3114
aS'dejavusans'
p3118
aS'#000000'
p3119
aF10.0
aI0
aI00
aI00
aI00
aI00
aI00
aI00
aI00
aI00
aa(lp3120
I2737
aF61.79666666666667
aF390.42
ag3114
aS'dejavusans'
p3121
aS'#000000'
p3122
aF10.0
aI0
aI01
aI00
aI00
aI00
aI00
aI00
aI00
aI00
aa(lp3123
I135639
aF86.55
aF390.42
aVp3
p3124
aS'dejavusans'
p3125
aS'#000000'
p3126
aF10.0
aI0
aI00
aI00
aI00
aI00
aI00
aI00
aI00
aI00
aa(lp3127
I74911
aF98.83
aF390.42
aVp3
p3128
aS'dejavusans'
p3129
aS'#000000'
p3130
aF10.0
aI0
aI01
aI00
aI00
aI00
aI00
aI00
aI00
aI00
aa(lp3131
I43052
aF159.88
aF390.42
aVp3
p3132
aS'dejavusans'
p3133
aS'#000000'
p3134
aF10.0
aI0
aI01
aI00
aI00
aI00
aI00
aI00
aI00
aI00
aa(lp3135
I234378
aF51.0
aF402.12
aVp3
p3136
aS'dejavusans'
p3137
aS'#000000'
p3138
aF10.0
aI0
aI00
aI00
aI00
aI00
aI00
aI00
aI00
aI00
aa(lp3139
I234378
aF56.545
aF402.12
ag3136
aS'dejavusans'
p3140
aS'#000000'
p3141
aF10.0
aI0
aI00
aI00
aI01
aI01
aI01
aI00
aI00
aI00
aa(lp3142
I234378
aF78.72500000000001
aF402.12
ag3136
aS'dejavusans'
p3143
aS'#000000'
p3144
aF10.0
aI0
aI00
aI00
aI00
aI00
aI00
aI00
aI00
aI00
aa(lp3145
I147619
aF237.8
aF390.42
aVp3
p3146
aS'dejavusans'
p3147
aS'#000000'
p3148
aF10.0
aI0
aI01
aI00
aI00
aI00
aI00
aI00
aI00
aI00
aa(lp3149
I234378
aF249.012
aF390.42
ag3146
aS'dejavusans'
p3150
aS'#000000'
p3151
aF10.0
aI0
aI00
aI00
aI00
aI00
aI00
aI00
aI00
aI00
aa(lp3152
I28189
aF254.618
aF390.42
ag3146
aS'dejavusans'
p3153
aS'#000000'
p3154
aF10.0
aI0
aI01
aI00
aI00
aI00
aI00
aI00
aI00
aI00
aa(lp3155
I41479
aF297.17
aF390.42
aVp3
p3156
aS'dejavusans'
p3157
aS'#000000'
p3158
aF10.0
aI0
aI01
aI00
aI00
aI00
aI00
aI00
aI00
aI00
aa(lp3159
I144489
aF337.62
aF390.42
aVp3
p3160
aS'dejavusans'
p3161
aS'#000000'
p3162
aF10.0
aI0
aI00
aI00
aI00
aI00
aI00
aI00
aI00
aI00
aa(lp3163
I199937
aF350.41
aF390.42
aVp3
p3164
aS'dejavusans'
p3165
aS'#000000'
p3166
aF10.0
aI0
aI01
aI00
aI00
aI00
aI00
aI00
aI00
aI00
aa(lp3167
I43052
aF237.8
aF402.12
aVp3
p3168
aS'dejavusans'
p3169
aS'#000000'
p3170
aF10.0
aI0
aI01
aI00
aI00
aI00
aI00
aI00
aI00
aI00
aa(lp3171
I234378
aF291.3818181818182
aF402.12
ag3168
aS'dejavusans'
p3172
aS'#000000'
p3173
aF10.0
aI0
aI00
aI00
aI00
aI00
aI00
aI00
aI00
aI00
aa(lp3174
I234378
aF300.06
aF402.12
aVp3
p3175
aS'dejavusans'
p3176
aS'#000000'
p3177
aF10.0
aI0
aI01
aI00
aI00
aI00
aI00
aI00
aI00
aI00
aa(lp3178
I234378
aF340.03
aF402.12
aVp3
p3179
aS'dejavusans'
p3180
aS'#000000'
p3181
aF10.0
aI0
aI00
aI00
aI00
aI00
aI00
aI00
aI00
aI00
aa(lp3182
I118838
aF345.712
aF402.12
ag3179
aS'dejavusans'
p3183
aS'#000000'
p3184
aF10.0
aI0
aI01
aI00
aI00
aI00
aI00
aI00
aI00
aI00
aa(lp3185
I163492
aF371.61
aF402.12
aVp3
p3186
aS'dejavusans'
p3187
aS'#000000'
p3188
aF10.0
aI0
aI01
aI00
aI00
aI00
aI00
aI00
aI00
aI00
aa(lp3189
I234378
aF404.5842857142857
aF402.12
ag3186
aS'dejavusans'
p3190
aS'#000000'
p3191
aF10.0
aI0
aI00
aI00
aI00
aI00
aI00
aI00
aI00
aI00
aa(lp3192
I13387
aF51.0
aF414.22
aVp3
p3193
aS'dejavusans'
p3194
aS'#000000'
p3195
aF10.0
aI0
aI01
aI00
aI00
aI00
aI00
aI00
aI00
aI00
aa(lp3196
I96401
aF87.37
aF414.22
aVp3
p3197
aS'dejavusans'
p3198
aS'#000000'
p3199
aF10.0
aI0
aI01
aI00
aI00
aI00
aI00
aI00
aI00
aI00
aa(lp3200
I234378
aF143.52
aF414.22
aVp3
p3201
aS'dejavusans'
p3202
aS'#000000'
p3203
aF10.0
aI0
aI00
aI00
aI00
aI00
aI00
aI00
aI00
aI00
aa(lp3204
I234378
aF149.04833333333335
aF414.22
ag3201
aS'dejavusans'
p3205
aS'#000000'
p3206
aF10.0
aI0
aI00
aI00
aI01
aI01
aI01
aI00
aI00
aI00
aa(lp3207
I234378
aF171.1616666666667
aF414.22
ag3201
aS'dejavusans'
p3208
aS'#000000'
p3209
aF10.0
aI0
aI00
aI00
aI00
aI00
aI00
aI00
aI00
aI00
aa(lp3210
I234378
aF237.8
aF414.22
aVp3
p3211
aS'dejavusans'
p3212
aS'#000000'
p3213
aF10.0
aI0
aI01
aI00
aI00
aI00
aI00
aI00
aI00
aI00
aa(lp3214
I234378
aF274.38
aF414.22
aVp3
p3215
aS'dejavusans'
p3216
aS'#000000'
p3217
aF10.0
aI0
aI01
aI00
aI00
aI00
aI00
aI00
aI00
aI00
aa(lp3218
I13387
aF302.36
aF414.22
aVp3
p3219
aS'dejavusans'
p3220
aS'#000000'
p3221
aF10.0
aI0
aI01
aI00
aI00
aI00
aI00
aI00
aI00
aI00
aa(lp3222
I96401
aF338.73
aF414.22
aVp3
p3223
aS'dejavusans'
p3224
aS'#000000'
p3225
aF10.0
aI0
aI01
aI00
aI00
aI00
aI00
aI00
aI00
aI00
aa(lp3226
I186485
aF394.89
aF414.22
aVp3
p3227
aS'dejavusans'
p3228
aS'#000000'
p3229
aF10.0
aI0
aI01
aI00
aI00
aI00
aI00
aI00
aI00
aI00
aa(lp3230
I234378
aF425.96142857142854
aF414.22
ag3227
aS'dejavusans'
p3231
aS'#000000'
p3232
aF10.0
aI0
aI00
aI00
aI00
aI00
aI00
aI00
aI00
aI00
aa(lp3233
I234378
aF237.8
aF425.92
aVp3
p3234
aS'dejavusans'
p3235
aS'#000000'
p3236
aF10.0
aI0
aI01
aI00
aI00
aI00
aI00
aI00
aI00
aI00
aa(lp3237
I234378
aF273.36
aF425.92
aVp3
p3238
aS'dejavusans'
p3239
aS'#000000'
p3240
aF10.0
aI0
aI00
aI00
aI00
aI00
aI00
aI00
aI00
aI00
aa(lp3241
I234378
aF278.5007142857143
aF425.92
ag3238
aS'dejavusans'
p3242
aS'#000000'
p3243
aF10.0
aI0
aI01
aI00
aI00
aI00
aI00
aI00
aI00
aI00
aa(lp3244
I234378
aF340.18928571428575
aF425.92
ag3238
aS'dejavusans'
p3245
aS'#000000'
p3246
aF10.0
aI0
aI00
aI00
aI00
aI00
aI00
aI00
aI00
aI00
aa(lp3247
I96401
aF51.0
aF438.02
aVp3
p3248
aS'dejavusans'
p3249
aS'#000000'
p3250
aF10.0
aI0
aI01
aI00
aI00
aI00
aI00
aI00
aI00
aI00
aa(lp3251
I234378
aF107.16
aF438.02
aVp3
p3252
aS'dejavusans'
p3253
aS'#000000'
p3254
aF10.0
aI0
aI00
aI00
aI00
aI00
aI00
aI00
aI00
aI00
aa(lp3255
I234378
aF112.68833333333333
aF438.02
ag3252
aS'dejavusans'
p3256
aS'#000000'
p3257
aF10.0
aI0
aI00
aI00
aI01
aI01
aI01
aI00
aI00
aI00
aa(lp3258
I234378
aF134.80166666666668
aF438.02
ag3252
aS'dejavusans'
p3259
aS'#000000'
p3260
aF10.0
aI0
aI00
aI00
aI00
aI00
aI00
aI00
aI00
aI00
aa(lp3261
I234378
aF237.8
aF438.02
aVp3
p3262
aS'dejavusans'
p3263
aS'#000000'
p3264
aF10.0
aI0
aI01
aI00
aI00
aI00
aI00
aI00
aI00
aI00
aa(lp3265
I234378
aF274.38
aF438.02
aVp3
p3266
aS'dejavusans'
p3267
aS'#000000'
p3268
aF10.0
aI0
aI01
aI00
aI00
aI00
aI00
aI00
aI00
aI00
aa(lp3269
I13387
aF302.36
aF438.02
aVp3
p3270
aS'dejavusans'
p3271
aS'#000000'
p3272
aF10.0
aI0
aI01
aI00
aI00
aI00
aI00
aI00
aI00
aI00
aa(lp3273
I96401
aF338.73
aF438.02
aVp3
p3274
aS'dejavusans'
p3275
aS'#000000'
p3276
aF10.0
aI0
aI01
aI00
aI00
aI00
aI00
aI00
aI00
aI00
aa(lp3277
I186485
aF394.89
aF438.02
aVp3
p3278
aS'dejavusans'
p3279
aS'#000000'
p3280
aF10.0
aI0
aI01
aI00
aI00
aI00
aI00
aI00
aI00
aI00
aa(lp3281
I234378
aF425.96142857142854
aF438.02
ag3278
aS'dejavusans'
p3282
aS'#000000'
p3283
aF10.0
aI0
aI00
aI00
aI00
aI00
aI00
aI00
aI00
aI00
aa(lp3284
I234378
aF237.8
aF449.72
aVp3
p3285
aS'dejavusans'
p3286
aS'#000000'
p3287
aF10.0
aI0
aI01
aI00
aI00
aI00
aI00
aI00
aI00
aI00
aa(lp3288
I234378
aF273.36
aF449.72
aVp3
p3289
aS'dejavusans'
p3290
aS'#000000'
p3291
aF10.0
aI0
aI00
aI00
aI00
aI00
aI00
aI00
aI00
aI00
aa(lp3292
I234378
aF278.5007142857143
aF449.72
ag3289
aS'dejavusans'
p3293
aS'#000000'
p3294
aF10.0
aI0
aI01
aI00
aI00
aI00
aI00
aI00
aI00
aI00
aa(lp3295
I234378
aF340.18928571428575
aF449.72
ag3289
aS'dejavusans'
p3296
aS'#000000'
p3297
aF10.0
aI0
aI00
aI00
aI00
aI00
aI00
aI00
aI00
aI00
aa(lp3298
I234378
aF40.2
aF477.32
aVp3
p3299
aS'dejavusans'
p3300
aS'#000000'
p3301
aF10.0
aI1
aI01
aI00
aI00
aI00
aI00
aI00
aI00
aI00
aa(lp3302
I45445
aF45.6
aF489.52
aVp3
p3303
aS'dejavusans'
p3304
aS'#000000'
p3305
aF10.0
aI0
aI01
aI00
aI00
aI00
aI00
aI00
aI00
aI00
aa(lp3306
I121293
aF81.26
aF489.52
aVp3
p3307
aS'dejavusans'
p3308
aS'#000000'
p3309
aF10.0
aI0
aI01
aI00
aI00
aI00
aI00
aI00
aI00
aI00
aa(lp3310
I21716
aF127.2
aF489.52
aVp3
p3311
aS'dejavusans'
p3312
aS'#000000'
p3313
aF10.0
aI0
aI01
aI00
aI00
aI00
aI00
aI00
aI00
aI00
aa(lp3314
I150037
aF151.39
aF489.52
aVp3
p3315
aS'dejavusans'
p3316
aS'#000000'
p3317
aF10.0
aI0
aI01
aI00
aI00
aI00
aI00
aI00
aI00
aI00
aa(lp3318
I234378
aF216.74
aF489.52
aVp3
p3319
aS'dejavusans'
p3320
aS'#000000'
p3321
aF10.0
aI0
aI00
aI00
aI01
aI01
aI00
aI00
aI00
aI00
aa(lp3322
I234378
aF222.02333333333334
aF489.52
ag3319
aS'dejavusans'
p3323
aS'#000000'
p3324
aF10.0
aI0
aI00
aI00
aI00
aI00
aI00
aI00
aI00
aI00
aa(lp3325
I234378
aF227.30666666666667
aF489.52
ag3319
aS'dejavusans'
p3326
aS'#000000'
p3327
aF10.0
aI0
aI00
aI00
aI01
aI01
aI00
aI00
aI00
aI00
aa(lp3328
I7520
aF40.2
aF516.62
aVp3
p3329
aS'dejavusans'
p3330
aS'#000000'
p3331
aF10.0
aI1
aI01
aI00
aI00
aI00
aI00
aI00
aI00
aI00
aa(lp3332
I74911
aF92.85
aF516.62
aVp3
p3333
aS'dejavusans'
p3334
aS'#000000'
p3335
aF10.0
aI1
aI01
aI00
aI00
aI00
aI00
aI00
aI00
aI00
aa(lp3336
I234378
aF157.16333333333333
aF516.62
ag3333
aS'dejavusans'
p3337
aS'#000000'
p3338
aF10.0
aI1
aI00
aI00
aI00
aI00
aI00
aI00
aI00
aI00
aa(lp3339
I132955
aF45.6
aF528.72
aVp3
p3340
aS'dejavusans'
p3341
aS'#000000'
p3342
aF10.0
aI1
aI01
aI00
aI00
aI00
aI00
aI00
aI00
aI00
aa(lp3343
I144489
aF75.67
aF528.72
aVp3
p3344
aS'dejavusans'
p3345
aS'#000000'
p3346
aF10.0
aI1
aI00
aI00
aI00
aI00
aI00
aI00
aI00
aI00
aa(lp3347
I132529
aF90.35
aF528.72
aVp3
p3348
aS'dejavusans'
p3349
aS'#000000'
p3350
aF10.0
aI1
aI00
aI00
aI00
aI00
aI00
aI00
aI00
aI00
aa(lp3351
I234378
aF116.49166666666666
aF528.72
ag3348
aS'dejavusans'
p3352
aS'#000000'
p3353
aF10.0
aI1
aI00
aI00
aI00
aI00
aI00
aI00
aI00
aI00
aa(lp3354
I234378
aF180.3
aF528.72
aVp3
p3355
aS'dejavusans'
p3356
aS'#000000'
p3357
aF10.0
aI0
aI00
aI00
aI01
aI01
aI01
aI00
aI00
aI00
aa(lp3358
I89483
aF193.0
aF528.718
aVp3
p3359
aS'dejavusans'
p3360
aS'#000000'
p3361
aF5.8
aI0
aI00
aI00
aI00
aI00
aI00
aI00
aI00
aI00
aa(lp3362
I20708
aF202.19
aF528.72
aVp3
p3363
aS'dejavusans'
p3364
aS'#000000'
p3365
aF10.0
aI0
aI01
aI00
aI00
aI00
aI00
aI00
aI00
aI01
aa(lp3366
I234378
aF230.07333333333332
aF528.72
ag3363
aS'dejavusans'
p3367
aS'#000000'
p3368
aF10.0
aI0
aI00
aI00
aI00
aI00
aI00
aI00
aI00
aI00
aa(lp3369
I234378
aF238.96
aF528.72
aVp3
p3370
aS'dejavusans'
p3371
aS'#000000'
p3372
aF10.0
aI0
aI00
aI00
aI01
aI01
aI01
aI00
aI00
aI00
aa(lp3373
I22484
aF45.6
aF540.92
aVp3
p3374
aS'dejavusans'
p3375
aS'#000000'
p3376
aF10.0
aI1
aI01
aI01
aI00
aI00
aI00
aI00
aI00
aI00
aa(lp3377
I116628
aF61.09
aF540.92
aVp3
p3378
aS'dejavusans'
p3379
aS'#000000'
p3380
aF10.0
aI1
aI01
aI00
aI00
aI00
aI00
aI00
aI00
aI00
aa(lp3381
I234378
aF94.95
aF540.92
aVp3
p3382
aS'dejavusans'
p3383
aS'#000000'
p3384
aF10.0
aI1
aI00
aI00
aI00
aI00
aI00
aI00
aI00
aI00
aa(lp3385
I219532
aF100.62636363636364
aF540.92
ag3382
aS'dejavusans'
p3386
aS'#000000'
p3387
aF10.0
aI1
aI01
aI00
aI00
aI00
aI00
aI00
aI00
aI00
aa(lp3388
I234378
aF146.03727272727272
aF540.92
ag3382
aS'dejavusans'
p3389
aS'#000000'
p3390
aF10.0
aI1
aI00
aI00
aI00
aI00
aI00
aI00
aI00
aI00
aa(lp3391
I234378
aF151.71363636363637
aF540.92
ag3382
aS'dejavusans'
p3392
aS'#000000'
p3393
aF10.0
aI1
aI00
aI00
aI00
aI00
aI00
aI00
aI00
aI00
aa(lp3394
I234378
aF180.3
aF540.92
aVp3
p3395
aS'dejavusans'
p3396
aS'#000000'
p3397
aF10.0
aI0
aI01
aI01
aI01
aI00
aI00
aI00
aI00
aI00
aa(lp3398
I234378
aF45.6
aF553.02
aVp3
p3399
aS'dejavusans'
p3400
aS'#000000'
p3401
aF10.0
aI1
aI01
aI00
aI00
aI00
aI00
aI00
aI00
aI00
aa(lp3402
I136346
aF110.24
aF553.02
aVp3
p3403
aS'dejavusans'
p3404
aS'#000000'
p3405
aF10.0
aI1
aI00
aI00
aI00
aI00
aI00
aI00
aI00
aI00
aa(lp3406
I234378
aF144.30666666666667
aF553.02
ag3403
aS'dejavusans'
p3407
aS'#000000'
p3408
aF10.0
aI1
aI00
aI00
aI00
aI00
aI00
aI00
aI00
aI00
aa(lp3409
I58002
aF180.3
aF553.02
aVp3
p3410
aS'dejavusans'
p3411
aS'#000000'
p3412
aF10.0
aI0
aI01
aI00
aI00
aI00
aI00
aI00
aI00
aI00
aa(lp3413
I234378
aF214.55625
aF553.02
ag3410
aS'dejavusans'
p3414
aS'#000000'
p3415
aF10.0
aI0
aI00
aI00
aI00
aI00
aI00
aI00
aI00
aI00
aa(lp3416
I144532
aF222.76
aF553.02
aVp3
p3417
aS'dejavusans'
p3418
aS'#000000'
p3419
aF10.0
aI0
aI01
aI00
aI00
aI00
aI00
aI00
aI00
aI00
aa(lp3420
I234378
aF246.80166666666665
aF553.02
ag3417
aS'dejavusans'
p3421
aS'#000000'
p3422
aF10.0
aI0
aI00
aI00
aI00
aI00
aI00
aI00
aI00
aI00
aa(lp3423
I125387
aF254.82
aF553.02
aVp3
p3424
aS'dejavusans'
p3425
aS'#000000'
p3426
aF10.0
aI0
aI01
aI00
aI00
aI00
aI00
aI00
aI00
aI00
aa(lp3427
I85218
aF295.29
aF553.02
aVp3
p3428
aS'dejavusans'
p3429
aS'#000000'
p3430
aF10.0
aI0
aI00
aI00
aI00
aI00
aI00
aI00
aI00
aI00
aa(lp3431
I227906
aF317.28
aF553.02
aVp3
p3432
aS'dejavusans'
p3433
aS'#000000'
p3434
aF10.0
aI0
aI01
aI00
aI00
aI00
aI00
aI00
aI00
aI00
aa(lp3435
I234378
aF45.6
aF565.22
aVp3
p3436
aS'dejavusans'
p3437
aS'#000000'
p3438
aF10.0
aI1
aI01
aI00
aI00
aI00
aI00
aI00
aI00
aI00
aa(lp3439
I234378
aF94.86600000000001
aF565.22
ag3436
aS'dejavusans'
p3440
aS'#000000'
p3441
aF10.0
aI1
aI00
aI00
aI00
aI00
aI00
aI00
aI00
aI00
aa(lp3442
I141334
aF216.3
aF565.22
aVp3
p3443
aS'dejavusans'
p3444
aS'#000000'
p3445
aF10.0
aI0
aI01
aI00
aI00
aI00
aI00
aI00
aI00
aI00
aa(lp3446
I216756
aF216.3
aF576.82
aVp3
p3447
aS'dejavusans'
p3448
aS'#000000'
p3449
aF10.0
aI0
aI01
aI00
aI00
aI00
aI00
aI00
aI00
aI00
aa(lp3450
I85218
aF251.58
aF576.82
aVp3
p3451
aS'dejavusans'
p3452
aS'#000000'
p3453
aF10.0
aI0
aI00
aI00
aI00
aI00
aI00
aI00
aI00
aI00
aa(lp3454
I175717
aF273.56
aF576.82
aVp3
p3455
aS'dejavusans'
p3456
aS'#000000'
p3457
aF10.0
aI0
aI01
aI00
aI00
aI00
aI00
aI00
aI00
aI00
aa(lp3458
I234378
aF470.7
aF390.42
aVp3
p3459
aS'dejavusans'
p3460
aS'#000000'
p3461
aF10.0
aI0
aI01
aI01
aI00
aI00
aI00
aI00
aI00
aI00
aa(lp3462
I234378
aF509.68
aF390.42
aVp3
p3463
aS'dejavusans'
p3464
aS'#000000'
p3465
aF10.0
aI0
aI00
aI00
aI01
aI01
aI00
aI00
aI00
aI00
aa(lp3466
I234378
aF514.9633333333334
aF390.42
ag3463
aS'dejavusans'
p3467
aS'#000000'
p3468
aF10.0
aI0
aI00
aI00
aI00
aI00
aI00
aI00
aI00
aI00
aa(lp3469
I234378
aF520.2466666666667
aF390.42
ag3463
aS'dejavusans'
p3470
aS'#000000'
p3471
aF10.0
aI0
aI00
aI00
aI01
aI01
aI00
aI00
aI00
aI00
aa(lp3472
I234378
aF470.7
aF414.22
aVp3
p3473
aS'dejavusans'
p3474
aS'#000000'
p3475
aF10.0
aI0
aI00
aI00
aI01
aI01
aI01
aI00
aI00
aI00
aa(lp3476
I234378
aF482.116
aF414.22
ag3473
aS'dejavusans'
p3477
aS'#000000'
p3478
aF10.0
aI0
aI00
aI00
aI00
aI00
aI00
aI00
aI00
aI00
aa(lp3479
I234378
aF484.824
aF414.22
ag3473
aS'dejavusans'
p3480
aS'#000000'
p3481
aF10.0
aI0
aI00
aI00
aI01
aI01
aI01
aI00
aI00
aI00
aa(lp3482
I234378
aF470.7
aF438.02
aVp3
p3483
aS'dejavusans'
p3484
aS'#000000'
p3485
aF10.0
aI0
aI00
aI00
aI01
aI01
aI01
aI00
aI00
aI00
aa(lp3486
I234378
aF482.116
aF438.02
ag3483
aS'dejavusans'
p3487
aS'#000000'
p3488
aF10.0
aI0
aI00
aI00
aI00
aI00
aI00
aI00
aI00
aI00
aa(lp3489
I234378
aF487.824
aF438.02
ag3483
aS'dejavusans'
p3490
aS'#000000'
p3491
aF10.0
aI0
aI00
aI00
aI01
aI01
aI01
aI00
aI00
aI00
aa(lp3492
I234378
aF417.6
aF638.42
aVp3
p3493
aS'dejavusans'
p3494
aS'#000000'
p3495
aF10.0
aI1
aI01
aI00
aI00
aI00
aI00
aI00
aI00
aI00
aa(lp3496
I234378
aF459.47
aF638.42
aVp3
p3497
aS'dejavusans'
p3498
aS'#000000'
p3499
aF10.0
aI1
aI01
aI00
aI00
aI00
aI00
aI00
aI00
aI00
aa(lp3500
I1
aI1
aI1
aI0
aI0
aI0
aI0
aI0
aI0
aI0
aI0
aI0
aI0
aI0
aI0
aI0
aI0
aI0
aI0
aI0
aI0
aI0
aI0
aI0
aI0
aI0
aI0
aI0
aI0
aI0
aI0
aI0
aI0
aI0
aI0
aI1
aI1
aI1
aI0
aI0
aI0
aI0
aI0
aI0
aI0
aI0
aI0
aI0
aI0
aI0
aI0
aI0
aI0
aI0
aI0
aI0
aI0
aI0
aI0
aI0
aI0
aI0
aI0
aI0
aI0
aI0
aI0
aI0
aI0
aI0
aI0
aI0
aI0
aI0
aI0
aI0
aI0
aI0
aI0
aI0
aI0
aI0
aI0
aI0
aI0
aI0
aI0
aI0
aI0
aI0
aI0
aI0
aI0
aI0
aI0
aI0
aI0
aI0
aI0
aI0
aI0
aI0
aI0
aI0
aI1
aI1
aI0
aI0
aI0
aI0
aI0
aI0
aI0
aI0
aI0
aI0
aI0
aI0
aI0
aI0
aI0
aI0
aI0
aI0
aI0
aI0
aI0
aI0
aI0
aI0
aI0
aI0
aI0
aI0
aI0
aI0
aI0
aI0
aI0
aI0
aI0
aI0
aI0
aI0
aI0
aI0
aI0
aI0
aI0
aI0
aI0
aI0
aI0
aI0
aI0
aI0
aI0
aI0
aI0
aI0
aI0
aI0
aI0
aI0
aI0
aI0
aI0
aI0
aI0
aI0
aI0
aI0
aI0
aI0
aI0
aI0
aI0
aI0
aI0
aI0
aI0
aI0
aI0
aI0
aI0
aI0
aI0
aI0
aI0
aI0
aI0
aI0
aI0
aI0
aI0
aI0
aI0
aI0
aI0
aI0
aI0
aI0
aI0
aI0
aI0
aI0
aI0
aI0
aI0
aI0
aI0
aI0
aI0
aI0
aI0
aI0
aI0
aI0
aI0
aI0
aI0
aI0
aI0
aI0
aI0
aI0
aI0
aI0
aI0
aI0
aI0
aI0
aI0
aI0
aI0
aI0
aI0
aI0
aI0
aI0
aI0
aI0
aI0
aI0
aI0
aI0
aI0
aI0
aI0
aI1
aI1
aI1
aI1
aI1
aI1
aI1
aI1
aI0
aI0
aI0
aI0
aI0
aI0
aI0
aI0
aI0
aI0
aI0
aI0
aI0
aI0
aI0
aI0
aI0
aI0
aI0
aI0
aI0
aI0
aI0
aI0
aI0
aI0
aI0
aI0
aI0
aI0
aI0
aI0
aI0
aI0
aI0
aI0
aI0
aI0
aI0
aI0
aI0
aI0
aI0
aI0
aI0
aI0
aI0
aI0
aI0
aI0
aI0
aI0
aI0
aI0
aI0
aI0
aI0
aI0
aI0
aI0
aI1
aI1
aI1
aI0
aI0
aI0
aI0
aI0
aI0
aI0
aI0
aI0
aI0
aI0
aI0
aI0
aI0
aI0
aI0
aI0
aI0
aI0
aI0
aI0
aI0
aI0
aI0
aI0
aI0
aI0
aI0
aI0
aI0
aI0
aI0
aI0
aI0
aI0
aI0
aI0
aI0
aI0
aI0
aI0
aI0
aI0
aI0
aI0
aI0
aI0
aI0
aI0
aI0
aI0
aI0
aI0
aI0
aI0
aI0
aI0
aI0
aI0
aI0
aI0
aI0
aI0
aI0
aI0
aI0
aI0
aI0
aI0
aI0
aI0
aI0
aI0
aI0
aI0
aI0
aI0
aI0
aI0
aI0
aI0
aI0
aI0
aI0
aI0
aI0
aI0
aI0
aI0
aI0
aI0
aI0
aI0
aI0
aI0
aI0
aI0
aI0
aI0
aI0
aI0
aI0
aI0
aI0
aI0
aI0
aI0
aI0
aI0
aI0
aI0
aI0
aI0
aI0
aI0
aI0
aI0
aI0
aI0
aI0
aI0
aI0
aI0
aI0
aI0
aI0
aI0
aI0
aI0
aI0
aI0
aI0
aI0
aI0
aI0
aI0
aI0
aI0
aI0
aI0
aI0
aI0
aI0
aI0
aI0
aI0
aI0
aI0
aI0
aI0
aI0
aI0
aI0
aI0
aI0
aI0
aI0
aI0
aI0
aI0
aI0
aI0
aI0
aI0
aI0
aI0
aI0
aI0
aI0
aI0
aI0
aI0
aI0
aI0
aI0
aI0
aI0
aI0
aI0
aI0
aI0
aI0
aI0
aI0
aI0
aI0
aI0
aI0
aI0
aI0
aI0
aI0
aI0
aI0
aI0
aI0
aI0
aI0
aI0
aI0
aI0
aI0
aI0
aI0
aI0
aI0
aI0
aI0
aI0
aI0
aI0
aI0
aI0
aI0
aI0
aI0
aI0
aI0
aI0
aI0
aI0
aI0
aI0
aI0
aI0
aI0
aI0
aI0
aI0
aI0
aI0
aI0
aI0
aI0
aI0
aI0
aI0
aI0
aI0
aI0
aI0
aI0
aI0
aI0
aI0
aI0
aI0
aI0
aI0
aI0
aI0
aI0
aI0
aI0
aI0
aI0
aI0
aI0
aI0
aI0
aI0
aI0
aI0
aI0
aI0
aI0
aI0
aI0
aI0
aI0
aI0
aI0
aI0
aI0
aI0
aI0
aI0
aI0
aI0
aI0
aI0
aI0
aI0
aI0
aI0
aI0
aI0
aI0
aI0
aI0
aI0
aI0
aI0
aI0
aI0
aI0
aI0
aI0
aI0
aI0
aI0
aI0
aI0
aI0
aI0
aI0
aI0
aI0
aI0
aI0
aI0
aI0
aI0
aI0
aI0
aI0
aI0
aI0
aI0
aI0
aI0
aI0
aI0
aI0
aI0
aI0
aI0
aI0
aI0
aI0
aI0
aI0
aI0
aI0
aI0
aI0
aI0
aI0
aI0
aI0
aI0
aI0
aI0
aI0
aI0
aI0
aI0
aI0
aI0
aI0
aI0
aI0
aI0
aI0
aI0
aI0
aI0
aI0
aI0
aI0
aI0
aI0
aI0
aI0
aI0
aI0
aI0
aI0
aI0
aI0
aI0
aI0
aI0
aI0
aI0
aI0
aI0
aI0
aI0
aI0
aI0
aI0
aI0
aI0
aI0
aI0
aI0
aI0
aI0
aI0
aI0
aI0
aI0
aI0
aI0
aI0
aI0
aI0
aI0
aI0
aI0
aI0
aI0
aI0
aI0
aI0
aI0
aI0
aI0
aI0
aI0
aI0
aI0
aI0
aI0
aI0
aI0
aI0
aI0
aI0
aI0
aI0
aI0
aI0
aI0
aI0
aI0
aI0
aI0
aI0
aI0
aI0
aI0
aI0
aI0
aI0
aI0
aI0
aI0
aI0
aI0
aI0
aI0
aI0
aI0
aI0
aI0
aI0
aI0
aI0
aI0
aI0
aI0
aI0
aI0
aI0
aI0
aI0
aI0
aI0
aI0
aI0
aI0
aI0
aI0
aI0
aI0
aI0
aI0
aI0
aI0
aI0
aI0
aI0
aI0
aI0
aI0
aI0
aI0
aI0
aI0
aI0
aI0
aI0
aI0
aI0
aI0
aI0
aI0
aI0
aI0
aI0
aI0
aI0
aI1
aI1
aI0
aI0
aI0
aI0
aI0
aI0
aI0
aI0
aI0
aI0
aI0
aI0
aI0
aI0
aI0
aI0
aI0
aI0
aI0
aI0
aI0
aI0
aI0
aI0
aI0
aI0
aI0
aI0
aI0
aI0
aI0
aI0
aI0
aI0
aI0
aI0
aI0
aI0
aI0
aI0
aI0
aI0
aI0
aI0
aI0
aI0
aI0
aI0
aI0
aI0
aI0
aI0
aI0
aI0
aI1
aI0
aI0
aI0
aI0
aI0
aI0
aI0
aI1
aI1
aI1
aI0
aI0
aI0
aI0
aI0
aI0
aI0
aI0
aI0
aI0
aI0
aI0
aI0
aI0
aI0
aI0
aI0
aI0
aI0
aI0
aI0
aI0
aI0
aI0
aI0
aI0
aI0
aI0
aI0
aI0
aI0
aI0
aI0
aI0
aI0
aI0
aI0
aI0
aI0
aI0
aI0
aI0
aI0
aI0
atp3501
.