((lp0
(lp1
I234378
aF43.3
aF62.436
aVp1
p2
aS'nimbussanl'
p3
aS'#000000'
p4
aF16.0
aI1
aI01
aI00
aI00
aI00
aI00
aI00
aI00
aI00
aa(lp5
I234378
aF78.574
aF62.436
ag2
aS'nimbussanl'
p6
aS'#000000'
p7
aF16.0
aI1
aI01
aI00
aI00
aI00
aI00
aI00
aI00
aI00
aa(lp8
I234378
aF106.9932
aF62.436
ag2
aS'nimbussanl'
p9
aS'#000000'
p10
aF16.0
aI1
aI00
aI00
aI00
aI00
aI00
aI00
aI00
aI00
aa(lp11
I234378
aF113.848
aF62.436
ag2
aS'nimbussanl'
p12
aS'#000000'
p13
aF16.0
aI1
aI00
aI00
aI01
aI01
aI00
aI00
aI00
aI00
aa(lp14
I234378
aF121.7028
aF62.436
ag2
aS'nimbussanl'
p15
aS'#000000'
p16
aF16.0
aI1
aI00
aI00
aI00
aI00
aI00
aI00
aI00
aI00
aa(lp17
I234378
aF155.9768
aF62.436
ag2
aS'nimbussanl'
p18
aS'#000000'
p19
aF16.0
aI1
aI00
aI00
aI00
aI00
aI00
aI00
aI00
aI00
aa(lp20
I228539
aF367.3
aF66.664
aVp1
p21
aS'nimbussanl'
p22
aS'#000000'
p23
aF12.0
aI0
aI01
aI00
aI00
aI00
aI00
aI00
aI00
aI00
aa(lp24
I234378
aF386.29284210526316
aF66.664
ag21
aS'nimbussanl'
p25
aS'#000000'
p26
aF12.0
aI0
aI00
aI00
aI00
aI00
aI00
aI00
aI00
aI00
aa(lp27
I234378
aF394.6237894736842
aF66.664
ag21
aS'nimbussanl'
p28
aS'#000000'
p29
aF12.0
aI0
aI00
aI00
aI01
aI01
aI01
aI00
aI00
aI00
aa(lp30
I234378
aF408.2856842105263
aF66.664
ag21
aS'nimbussanl'
p31
aS'#000000'
p32
aF12.0
aI0
aI00
aI00
aI01
aI01
aI01
aI00
aI00
aI00
aa(lp33
I234378
aF43.3
aF83.064
aVp1
p34
aS'nimbussanl'
p35
aS'#000000'
p36
aF12.0
aI0
aI01
aI00
aI00
aI00
aI00
aI00
aI00
aI00
aa(lp37
I234378
aF92.3725
aF83.064
ag34
aS'nimbussanl'
p38
aS'#000000'
p39
aF12.0
aI0
aI00
aI00
aI00
aI00
aI00
aI00
aI00
aI00
aa(lp40
I164802
aF98.825
aF83.064
ag34
aS'nimbussanl'
p41
aS'#000000'
p42
aF12.0
aI0
aI01
aI00
aI00
aI00
aI00
aI00
aI00
aI00
aa(lp43
I234378
aF291.888
aF83.064
aVp1
p44
aS'nimbussanl'
p45
aS'#000000'
p46
aF12.0
aI0
aI00
aI00
aI00
aI00
aI00
aI00
aI00
aI00
aa(lp47
I234378
aF363.888
aF83.064
aVp1
p48
aS'nimbussanl'
p49
aS'#000000'
p50
aF12.0
aI0
aI01
aI00
aI00
aI00
aI00
aI00
aI00
aI00
aa(lp51
I234378
aF397.3113333333333
aF83.064
ag48
aS'nimbussanl'
p52
aS'#000000'
p53
aF12.0
aI0
aI00
aI00
aI00
aI00
aI00
aI00
aI00
aI00
aa(lp54
I234378
aF400.584
aF83.064
aVp1
p55
aS'nimbussanl'
p56
aS'#000000'
p57
aF12.0
aI0
aI00
aI00
aI00
aI00
aI00
aI01
aI00
aI00
aa(lp58
I60220
aF43.3
aF121.994
aVp1
p59
aS'nimbussanl'
p60
aS'#656565'
p61
aF14.0
aI0
aI01
aI00
aI00
aI00
aI00
aI00
aI00
aI00
aa(lp62
I23021
aF117.41266666666667
aF121.994
ag59
aS'nimbussanl'
p63
aS'#656565'
p64
aF14.0
aI0
aI01
aI00
aI00
aI00
aI00
aI00
aI00
aI00
aa(lp65
I84662
aF171.59153333333333
aF121.994
ag59
aS'nimbussanl'
p66
aS'#656565'
p67
aF14.0
aI0
aI01
aI00
aI00
aI00
aI00
aI00
aI00
aI00
aa(lp68
I21716
aF201.8366
aF121.994
ag59
aS'nimbussanl'
p69
aS'#656565'
p70
aF14.0
aI0
aI01
aI00
aI00
aI00
aI00
aI00
aI00
aI00
aa(lp71
I234378
aF61.3
aF139.964
aVp1
p72
aS'nimbussanl'
p73
aS'#000000'
p74
aF12.0
aI0
aI00
aI00
aI01
aI01
aI00
aI00
aI00
aI00
aa(lp75
I234378
aF66.76549397590361
aF139.964
ag72
aS'nimbussanl'
p76
aS'#000000'
p77
aF12.0
aI0
aI00
aI00
aI00
aI00
aI00
aI00
aI00
aI00
aa(lp78
I234378
aF72.23098795180722
aF139.964
ag72
aS'nimbussanl'
p79
aS'#000000'
p80
aF12.0
aI0
aI00
aI00
aI01
aI01
aI00
aI00
aI00
aI00
aa(lp81
I234378
aF78.69648192771083
aF139.964
ag72
aS'nimbussanl'
p82
aS'#000000'
p83
aF12.0
aI0
aI00
aI00
aI00
aI00
aI00
aI00
aI00
aI00
aa(lp84
I144489
aF107.02395180722891
aF139.964
ag72
aS'nimbussanl'
p85
aS'#000000'
p86
aF12.0
aI0
aI00
aI00
aI00
aI00
aI00
aI00
aI00
aI00
aa(lp87
I60220
aF118.95493975903614
aF139.964
ag72
aS'nimbussanl'
p88
aS'#000000'
p89
aF12.0
aI0
aI00
aI00
aI00
aI00
aI00
aI00
aI00
aI00
aa(lp90
I135639
aF174.6098795180723
aF139.964
ag72
aS'nimbussanl'
p91
aS'#000000'
p92
aF12.0
aI0
aI00
aI00
aI00
aI00
aI00
aI00
aI00
aI00
aa(lp93
I202216
aF186.54086746987952
aF139.964
ag72
aS'nimbussanl'
p94
aS'#000000'
p95
aF12.0
aI0
aI00
aI00
aI00
aI00
aI00
aI00
aI00
aI00
aa(lp96
I166558
aF247.66130120481927
aF139.964
ag72
aS'nimbussanl'
p97
aS'#000000'
p98
aF12.0
aI0
aI00
aI00
aI00
aI00
aI00
aI00
aI00
aI00
aa(lp99
I234378
aF291.38525301204817
aF139.964
ag72
aS'nimbussanl'
p100
aS'#000000'
p101
aF12.0
aI0
aI00
aI00
aI00
aI00
aI00
aI00
aI00
aI00
aa(lp102
I144690
aF297.85074698795177
aF139.964
ag72
aS'nimbussanl'
p103
aS'#000000'
p104
aF12.0
aI0
aI00
aI00
aI00
aI00
aI00
aI00
aI00
aI00
aa(lp105
I85218
aF331.64371084337347
aF139.964
ag72
aS'nimbussanl'
p106
aS'#000000'
p107
aF12.0
aI0
aI00
aI00
aI00
aI00
aI00
aI00
aI00
aI00
aa(lp108
I68032
aF349.0401927710843
aF139.964
ag72
aS'nimbussanl'
p109
aS'#000000'
p110
aF12.0
aI0
aI00
aI00
aI00
aI00
aI00
aI00
aI00
aI00
aa(lp111
I144489
aF348.1606265060241
aF139.964
ag72
aS'nimbussanl'
p112
aS'#000000'
p113
aF12.0
aI0
aI00
aI00
aI00
aI00
aI00
aI00
aI00
aI00
aa(lp114
I234378
aF422.0916144578313
aF139.964
ag72
aS'nimbussanl'
p115
aS'#000000'
p116
aF12.0
aI0
aI00
aI00
aI00
aI00
aI00
aI00
aI00
aI00
aa(lp117
I234378
aF61.3
aF155.164
aVp1
p118
aS'nimbussanl'
p119
aS'#000000'
p120
aF12.0
aI0
aI00
aI00
aI00
aI00
aI00
aI00
aI00
aI00
aa(lp121
I135639
aF108.50342857142857
aF155.164
ag118
aS'nimbussanl'
p122
aS'#000000'
p123
aF12.0
aI0
aI00
aI00
aI00
aI00
aI00
aI00
aI00
aI00
aa(lp124
I84662
aF121.05428571428571
aF155.164
ag118
aS'nimbussanl'
p125
aS'#000000'
p126
aF12.0
aI0
aI01
aI00
aI00
aI00
aI00
aI00
aI00
aI00
aa(lp127
I21716
aF145.156
aF155.164
ag118
aS'nimbussanl'
p128
aS'#000000'
p129
aF12.0
aI0
aI01
aI01
aI00
aI00
aI00
aI00
aI00
aI00
aa(lp130
I111522
aF61.3
aF170.264
aVp1
p131
aS'nimbussanl'
p132
aS'#000000'
p133
aF12.0
aI0
aI01
aI00
aI00
aI00
aI00
aI00
aI00
aI00
aa(lp134
I60220
aF109.56758139534884
aF170.264
ag131
aS'nimbussanl'
p135
aS'#000000'
p136
aF12.0
aI0
aI00
aI00
aI00
aI00
aI00
aI00
aI00
aI00
aa(lp137
I135639
aF163.0871162790698
aF170.264
ag131
aS'nimbussanl'
p138
aS'#000000'
p139
aF12.0
aI0
aI00
aI00
aI00
aI00
aI00
aI00
aI00
aI00
aa(lp140
I132957
aF174.59102325581398
aF170.264
ag131
aS'nimbussanl'
p141
aS'#000000'
p142
aF12.0
aI0
aI00
aI00
aI00
aI00
aI00
aI00
aI00
aI00
aa(lp143
I234378
aF196.59883720930236
aF170.264
ag131
aS'nimbussanl'
p144
aS'#000000'
p145
aF12.0
aI0
aI00
aI00
aI00
aI00
aI00
aI00
aI00
aI00
aa(lp146
I234378
aF243.8664186046512
aF170.264
ag131
aS'nimbussanl'
p147
aS'#000000'
p148
aF12.0
aI0
aI00
aI00
aI00
aI00
aI00
aI00
aI00
aI00
aa(lp149
I234378
aF250.11837209302328
aF170.264
ag131
aS'nimbussanl'
p150
aS'#000000'
p151
aF12.0
aI0
aI00
aI00
aI00
aI00
aI00
aI00
aI00
aI00
aa(lp152
I234378
aF290.6379069767442
aF170.264
ag131
aS'nimbussanl'
p153
aS'#000000'
p154
aF12.0
aI0
aI00
aI00
aI00
aI00
aI00
aI00
aI00
aI00
aa(lp155
I234378
aF308.88986046511627
aF170.264
ag131
aS'nimbussanl'
p156
aS'#000000'
p157
aF12.0
aI0
aI00
aI00
aI00
aI00
aI00
aI00
aI00
aI00
aa(lp158
I234378
aF336.1496279069767
aF170.264
ag131
aS'nimbussanl'
p159
aS'#000000'
p160
aF12.0
aI0
aI00
aI00
aI00
aI00
aI00
aI00
aI00
aI00
aa(lp161
I234378
aF354.41720930232555
aF170.264
ag131
aS'nimbussanl'
p162
aS'#000000'
p163
aF12.0
aI0
aI00
aI00
aI00
aI00
aI00
aI00
aI00
aI00
aa(lp164
I59164
aF389.6691627906976
aF170.264
ag131
aS'nimbussanl'
p165
aS'#000000'
p166
aF12.0
aI0
aI00
aI00
aI00
aI00
aI00
aI00
aI00
aI00
aa(lp167
I211693
aF427.43283720930225
aF170.264
ag131
aS'nimbussanl'
p168
aS'#000000'
p169
aF12.0
aI0
aI00
aI00
aI00
aI00
aI00
aI00
aI00
aI00
aa(lp170
I234378
aF422.448465116279
aF170.264
ag131
aS'nimbussanl'
p171
aS'#000000'
p172
aF12.0
aI0
aI00
aI00
aI00
aI00
aI00
aI00
aI00
aI00
aa(lp173
I234378
aF61.3
aF185.464
aVp1
p174
aS'nimbussanl'
p175
aS'#000000'
p176
aF12.0
aI0
aI00
aI00
aI00
aI00
aI00
aI00
aI00
aI00
aa(lp177
I234378
aF114.41415384615384
aF185.464
ag174
aS'nimbussanl'
p178
aS'#000000'
p179
aF12.0
aI0
aI00
aI00
aI00
aI00
aI00
aI00
aI00
aI00
aa(lp180
I234378
aF61.3
aF200.564
aVp1
p181
aS'nimbussanl'
p182
aS'#000000'
p183
aF12.0
aI0
aI00
aI00
aI01
aI01
aI00
aI00
aI00
aI00
aa(lp184
I234378
aF66.90921739130434
aF200.564
ag181
aS'nimbussanl'
p185
aS'#000000'
p186
aF12.0
aI0
aI00
aI00
aI00
aI00
aI00
aI00
aI00
aI00
aa(lp187
I234378
aF72.5184347826087
aF200.564
ag181
aS'nimbussanl'
p188
aS'#000000'
p189
aF12.0
aI0
aI00
aI00
aI01
aI01
aI00
aI00
aI00
aI00
aa(lp190
I234378
aF79.12765217391305
aF200.564
ag181
aS'nimbussanl'
p191
aS'#000000'
p192
aF12.0
aI0
aI00
aI00
aI00
aI00
aI00
aI00
aI00
aI00
aa(lp193
I144489
aF108.1737391304348
aF200.564
ag181
aS'nimbussanl'
p194
aS'#000000'
p195
aF12.0
aI0
aI00
aI00
aI00
aI00
aI00
aI00
aI00
aI00
aa(lp196
I60220
aF120.3921739130435
aF200.564
ag181
aS'nimbussanl'
p197
aS'#000000'
p198
aF12.0
aI0
aI00
aI00
aI00
aI00
aI00
aI00
aI00
aI00
aa(lp199
I135639
aF177.48434782608697
aF200.564
ag181
aS'nimbussanl'
p200
aS'#000000'
p201
aF12.0
aI0
aI00
aI00
aI00
aI00
aI00
aI00
aI00
aI00
aa(lp202
I234378
aF189.70278260869566
aF200.564
ag181
aS'nimbussanl'
p203
aS'#000000'
p204
aF12.0
aI0
aI01
aI01
aI01
aI00
aI00
aI00
aI00
aI00
aa(lp205
I190806
aF213.13965217391305
aF200.564
ag181
aS'nimbussanl'
p206
aS'#000000'
p207
aF12.0
aI0
aI00
aI00
aI00
aI00
aI00
aI00
aI00
aI00
aa(lp208
I234378
aF230.9673043478261
aF200.564
ag181
aS'nimbussanl'
p209
aS'#000000'
p210
aF12.0
aI0
aI00
aI00
aI00
aI00
aI00
aI00
aI00
aI00
aa(lp211
I68032
aF288.0594782608696
aF200.564
ag181
aS'nimbussanl'
p212
aS'#000000'
p213
aF12.0
aI0
aI00
aI00
aI00
aI00
aI00
aI00
aI00
aI00
aa(lp214
I85218
aF350.76086956521743
aF200.564
ag181
aS'nimbussanl'
p215
aS'#000000'
p216
aF12.0
aI0
aI00
aI00
aI00
aI00
aI00
aI00
aI00
aI00
aa(lp217
I108443
aF368.5885217391305
aF200.564
ag181
aS'nimbussanl'
p218
aS'#000000'
p219
aF12.0
aI0
aI00
aI00
aI00
aI00
aI00
aI00
aI00
aI00
aa(lp220
I111522
aF61.3
aF216.064
aVp1
p221
aS'nimbussanl'
p222
aS'#000000'
p223
aF12.0
aI0
aI01
aI00
aI00
aI00
aI00
aI00
aI00
aI00
aa(lp224
I153278
aF113.58391489361702
aF216.064
ag221
aS'nimbussanl'
p225
aS'#000000'
p226
aF12.0
aI0
aI00
aI00
aI00
aI00
aI00
aI00
aI00
aI00
aa(lp227
I166558
aF131.67855319148936
aF216.064
ag221
aS'nimbussanl'
p228
aS'#000000'
p229
aF12.0
aI0
aI00
aI00
aI00
aI00
aI00
aI00
aI00
aI00
aa(lp230
I85218
aF178.26425531914893
aF216.064
ag221
aS'nimbussanl'
p231
aS'#000000'
p232
aF12.0
aI0
aI00
aI00
aI00
aI00
aI00
aI00
aI00
aI00
aa(lp233
I234378
aF196.35889361702127
aF216.064
ag221
aS'nimbussanl'
p234
aS'#000000'
p235
aF12.0
aI0
aI00
aI00
aI00
aI00
aI00
aI00
aI00
aI00
aa(lp236
I60220
aF248.6428085106383
aF216.064
ag221
aS'nimbussanl'
p237
aS'#000000'
p238
aF12.0
aI0
aI01
aI00
aI00
aI00
aI00
aI00
aI00
aI00
aa(lp239
I118076
aF61.3
aF231.464
aVp1
p240
aS'nimbussanl'
p241
aS'#000000'
p242
aF12.0
aI0
aI01
aI00
aI00
aI00
aI00
aI00
aI00
aI00
aa(lp243
I38577
aF80.40292957746479
aF231.464
ag240
aS'nimbussanl'
p244
aS'#000000'
p245
aF12.0
aI0
aI00
aI00
aI00
aI00
aI00
aI00
aI00
aI00
aa(lp246
I100065
aF105.54016901408451
aF231.464
ag240
aS'nimbussanl'
p247
aS'#000000'
p248
aF12.0
aI0
aI00
aI00
aI00
aI00
aI00
aI00
aI00
aI00
aa(lp249
I184171
aF130.67740845070423
aF231.464
ag240
aS'nimbussanl'
p250
aS'#000000'
p251
aF12.0
aI0
aI00
aI00
aI00
aI00
aI00
aI00
aI00
aI00
aa(lp252
I224801
aF198.05481690140846
aF231.464
ag240
aS'nimbussanl'
p253
aS'#000000'
p254
aF12.0
aI0
aI00
aI00
aI00
aI00
aI00
aI00
aI00
aI00
aa(lp255
I234378
aF265.4322253521127
aF231.464
ag240
aS'nimbussanl'
p256
aS'#000000'
p257
aF12.0
aI0
aI00
aI00
aI00
aI00
aI00
aI00
aI00
aI00
aa(lp258
I89480
aF308.6723943661972
aF231.464
ag240
aS'nimbussanl'
p259
aS'#000000'
p260
aF12.0
aI0
aI00
aI00
aI00
aI00
aI00
aI00
aI00
aI00
aa(lp261
I123861
aF321.741014084507
aF231.464
ag240
aS'nimbussanl'
p262
aS'#000000'
p263
aF12.0
aI0
aI00
aI00
aI00
aI00
aI00
aI00
aI00
aI00
aa(lp264
I120218
aF346.87825352112674
aF231.464
ag240
aS'nimbussanl'
p265
aS'#000000'
p266
aF12.0
aI0
aI00
aI00
aI00
aI00
aI00
aI00
aI00
aI00
aa(lp267
I234378
aF396.1527323943662
aF231.464
ag240
aS'nimbussanl'
p268
aS'#000000'
p269
aF12.0
aI0
aI00
aI00
aI00
aI00
aI00
aI00
aI00
aI00
aa(lp270
I234378
aF438.3929014084507
aF231.464
ag240
aS'nimbussanl'
p271
aS'#000000'
p272
aF12.0
aI0
aI00
aI00
aI00
aI00
aI00
aI00
aI00
aI00
aa(lp273
I234378
aF61.3
aF246.964
aVp1
p274
aS'nimbussanl'
p275
aS'#000000'
p276
aF12.0
aI0
aI01
aI00
aI00
aI00
aI00
aI00
aI00
aI00
aa(lp277
I144483
aF91.07652173913043
aF246.964
ag274
aS'nimbussanl'
p278
aS'#000000'
p279
aF12.0
aI0
aI00
aI00
aI00
aI00
aI00
aI00
aI00
aI00
aa(lp280
I60220
aF103.58713043478261
aF246.964
ag274
aS'nimbussanl'
p281
aS'#000000'
p282
aF12.0
aI0
aI00
aI00
aI00
aI00
aI00
aI00
aI00
aI00
aa(lp283
I135639
aF162.14017391304347
aF246.964
ag274
aS'nimbussanl'
p284
aS'#000000'
p285
aF12.0
aI0
aI00
aI00
aI00
aI00
aI00
aI00
aI00
aI00
aa(lp286
I123583
aF174.65078260869564
aF246.964
ag274
aS'nimbussanl'
p287
aS'#000000'
p288
aF12.0
aI0
aI00
aI00
aI00
aI00
aI00
aI00
aI00
aI00
aa(lp289
I169745
aF215.93791304347826
aF246.964
ag274
aS'nimbussanl'
p290
aS'#000000'
p291
aF12.0
aI0
aI00
aI00
aI00
aI00
aI00
aI00
aI00
aI00
aa(lp292
I234378
aF239.9591304347826
aF246.964
ag274
aS'nimbussanl'
p293
aS'#000000'
p294
aF12.0
aI0
aI01
aI01
aI00
aI00
aI00
aI00
aI00
aI00
aa(lp295
I234378
aF257.22504347826083
aF246.964
ag274
aS'nimbussanl'
p296
aS'#000000'
p297
aF12.0
aI0
aI00
aI00
aI00
aI00
aI00
aI00
aI00
aI00
aa(lp298
I234378
aF263.9803478260869
aF246.964
ag274
aS'nimbussanl'
p299
aS'#000000'
p300
aF12.0
aI0
aI01
aI01
aI00
aI00
aI00
aI00
aI00
aI00
aa(lp301
I85218
aF238.24626086956516
aF246.964
ag274
aS'nimbussanl'
p302
aS'#000000'
p303
aF12.0
aI0
aI00
aI00
aI00
aI00
aI00
aI00
aI00
aI00
aa(lp304
I234378
aF300.5121739130434
aF246.964
ag274
aS'nimbussanl'
p305
aS'#000000'
p306
aF12.0
aI0
aI01
aI01
aI00
aI00
aI00
aI00
aI00
aI00
aa(lp307
I234378
aF318.77808695652163
aF246.964
ag274
aS'nimbussanl'
p308
aS'#000000'
p309
aF12.0
aI0
aI01
aI00
aI00
aI00
aI00
aI00
aI00
aI00
aa(lp310
I234378
aF405.1076521739129
aF246.964
ag274
aS'nimbussanl'
p311
aS'#000000'
p312
aF12.0
aI0
aI00
aI00
aI00
aI00
aI00
aI00
aI00
aI00
aa(lp313
I60220
aF61.3
aF264.364
aVp1
p314
aS'nimbussanl'
p315
aS'#000000'
p316
aF12.0
aI0
aI01
aI00
aI00
aI00
aI00
aI00
aI00
aI00
aa(lp317
I135639
aF116.828
aF264.364
ag314
aS'nimbussanl'
p318
aS'#000000'
p319
aF12.0
aI0
aI00
aI00
aI00
aI00
aI00
aI00
aI00
aI00
aa(lp320
I163414
aF128.7336
aF264.364
ag314
aS'nimbussanl'
p321
aS'#000000'
p322
aF12.0
aI0
aI00
aI00
aI00
aI00
aI00
aI00
aI00
aI00
aa(lp323
I234378
aF173.356
aF264.364
ag314
aS'nimbussanl'
p324
aS'#000000'
p325
aF12.0
aI0
aI00
aI00
aI00
aI00
aI00
aI00
aI00
aI00
aa(lp326
I190806
aF223.4312
aF264.364
ag314
aS'nimbussanl'
p327
aS'#000000'
p328
aF12.0
aI0
aI00
aI00
aI00
aI00
aI00
aI00
aI00
aI00
aa(lp329
I199937
aF240.78959999999998
aF264.364
ag314
aS'nimbussanl'
p330
aS'#000000'
p331
aF12.0
aI0
aI00
aI00
aI00
aI00
aI00
aI00
aI00
aI00
aa(lp332
I70210
aF301.7704
aF264.364
ag314
aS'nimbussanl'
p333
aS'#000000'
p334
aF12.0
aI0
aI00
aI00
aI00
aI00
aI00
aI00
aI00
aI00
aa(lp335
I165584
aF330.0344
aF264.364
ag314
aS'nimbussanl'
p336
aS'#000000'
p337
aF12.0
aI0
aI00
aI00
aI00
aI00
aI00
aI00
aI00
aI00
aa(lp338
I211716
aF61.3
aF280.364
aVp1
p339
aS'nimbussanl'
p340
aS'#000000'
p341
aF12.0
aI0
aI01
aI00
aI00
aI00
aI00
aI00
aI00
aI00
aa(lp342
I13397
aF114.47999999999999
aF280.364
ag339
aS'nimbussanl'
p343
aS'#000000'
p344
aF12.0
aI0
aI00
aI00
aI00
aI00
aI00
aI00
aI00
aI00
aa(lp345
I89480
aF131.134
aF280.364
ag339
aS'nimbussanl'
p346
aS'#000000'
p347
aF12.0
aI0
aI00
aI00
aI00
aI00
aI00
aI00
aI00
aI00
aa(lp348
I143306
aF142.57
aF280.364
ag339
aS'nimbussanl'
p349
aS'#000000'
p350
aF12.0
aI0
aI00
aI00
aI00
aI00
aI00
aI00
aI00
aI00
aa(lp351
I194354
aF180.096
aF280.364
ag339
aS'nimbussanl'
p352
aS'#000000'
p353
aF12.0
aI0
aI00
aI00
aI00
aI00
aI00
aI00
aI00
aI00
aa(lp354
I234378
aF196.75
aF280.364
ag339
aS'nimbussanl'
p355
aS'#000000'
p356
aF12.0
aI0
aI00
aI00
aI00
aI00
aI00
aI00
aI00
aI00
aa(lp357
I85218
aF229.058
aF280.364
ag339
aS'nimbussanl'
p358
aS'#000000'
p359
aF12.0
aI0
aI00
aI00
aI00
aI00
aI00
aI00
aI00
aI00
aa(lp360
I89480
aF219.712
aF280.364
ag339
aS'nimbussanl'
p361
aS'#000000'
p362
aF12.0
aI0
aI00
aI00
aI00
aI00
aI00
aI00
aI00
aI00
aa(lp363
I2028
aF257.148
aF280.364
ag339
aS'nimbussanl'
p364
aS'#000000'
p365
aF12.0
aI0
aI00
aI00
aI00
aI00
aI00
aI00
aI00
aI00
aa(lp366
I80364
aF284.238
aF280.364
ag339
aS'nimbussanl'
p367
aS'#000000'
p368
aF12.0
aI0
aI00
aI00
aI00
aI00
aI00
aI00
aI00
aI00
aa(lp369
I234378
aF300.892
aF280.364
ag339
aS'nimbussanl'
p370
aS'#000000'
p371
aF12.0
aI0
aI00
aI00
aI00
aI00
aI00
aI00
aI00
aI00
aa(lp372
I118076
aF61.3
aF295.864
aVp1
p373
aS'nimbussanl'
p374
aS'#000000'
p375
aF12.0
aI0
aI01
aI00
aI00
aI00
aI00
aI00
aI00
aI00
aa(lp376
I204905
aF77.978
aF295.864
ag373
aS'nimbussanl'
p377
aS'#000000'
p378
aF12.0
aI0
aI00
aI00
aI00
aI00
aI00
aI00
aI00
aI00
aa(lp379
I150251
aF94.65599999999999
aF295.864
ag373
aS'nimbussanl'
p380
aS'#000000'
p381
aF12.0
aI0
aI00
aI00
aI00
aI00
aI00
aI00
aI00
aI00
aa(lp382
I131049
aF121.78599999999999
aF295.864
ag373
aS'nimbussanl'
p383
aS'#000000'
p384
aF12.0
aI0
aI00
aI00
aI00
aI00
aI00
aI00
aI00
aI00
aa(lp385
I25931
aF143.69
aF295.864
ag373
aS'nimbussanl'
p386
aS'#000000'
p387
aF12.0
aI0
aI00
aI00
aI00
aI00
aI00
aI00
aI00
aI00
aa(lp388
I190806
aF176.046
aF295.864
ag373
aS'nimbussanl'
p389
aS'#000000'
p390
aF12.0
aI0
aI00
aI00
aI00
aI00
aI00
aI00
aI00
aI00
aa(lp391
I234378
aF192.724
aF295.864
ag373
aS'nimbussanl'
p392
aS'#000000'
p393
aF12.0
aI0
aI00
aI00
aI00
aI00
aI00
aI00
aI00
aI00
aa(lp394
I89480
aF261.662
aF295.864
ag373
aS'nimbussanl'
p395
aS'#000000'
p396
aF12.0
aI0
aI00
aI00
aI00
aI00
aI00
aI00
aI00
aI00
aa(lp397
I194354
aF273.114
aF295.864
ag373
aS'nimbussanl'
p398
aS'#000000'
p399
aF12.0
aI0
aI00
aI00
aI00
aI00
aI00
aI00
aI00
aI00
aa(lp400
I177958
aF289.792
aF295.864
ag373
aS'nimbussanl'
p401
aS'#000000'
p402
aF12.0
aI0
aI00
aI00
aI00
aI00
aI00
aI00
aI00
aI00
aa(lp403
I165938
aF43.3
aF342.258
aVp1
p404
aS'nimbussanl'
p405
aS'#000000'
p406
aF14.0
aI0
aI01
aI00
aI00
aI00
aI00
aI00
aI00
aI00
aa(lp407
I60220
aF121.643
aF342.258
ag404
aS'nimbussanl'
p408
aS'#000000'
p409
aF14.0
aI0
aI01
aI00
aI00
aI00
aI00
aI00
aI00
aI00
aa(lp410
I234378
aF186.09550000000002
aF342.258
ag404
aS'nimbussanl'
p411
aS'#000000'
p412
aF14.0
aI0
aI00
aI00
aI00
aI00
aI00
aI00
aI00
aI00
aa(lp413
I21716
aF43.3
aF376.952
aVp1
p414
aS'nimbussanl'
p415
aS'#000000'
p416
aF12.0
aI1
aI01
aI00
aI00
aI00
aI00
aI00
aI00
aI00
aa(lp417
I100815
aF67.56642424242423
aF376.952
ag414
aS'nimbussanl'
p418
aS'#000000'
p419
aF12.0
aI1
aI01
aI00
aI00
aI00
aI00
aI00
aI00
aI00
aa(lp420
I231432
aF121.91587878787878
aF376.952
ag414
aS'nimbussanl'
p421
aS'#000000'
p422
aF12.0
aI1
aI01
aI00
aI00
aI00
aI00
aI00
aI00
aI00
aa(lp423
I188021
aF169.44872727272727
aF376.952
ag414
aS'nimbussanl'
p424
aS'#000000'
p425
aF12.0
aI1
aI01
aI00
aI00
aI00
aI00
aI00
aI00
aI00
aa(lp426
I182190
aF43.3
aF392.717
aVp1
p427
aS'nimbussanl'
p428
aS'#00007f'
p429
aF11.0
aI0
aI01
aI00
aI00
aI00
aI00
aI00
aI00
aI00
aa(lp430
I234378
aF78.02328571428572
aF392.717
ag427
aS'nimbussanl'
p431
aS'#00007f'
p432
aF11.0
aI0
aI01
aI00
aI00
aI00
aI00
aI00
aI00
aI00
aa(lp433
I234378
aF117.56418367346939
aF392.717
ag427
aS'nimbussanl'
p434
aS'#00007f'
p435
aF11.0
aI0
aI00
aI00
aI00
aI00
aI00
aI00
aI00
aI00
aa(lp436
I234378
aF122.38179591836735
aF392.717
ag427
aS'nimbussanl'
p437
aS'#00007f'
p438
aF11.0
aI0
aI01
aI00
aI00
aI00
aI00
aI00
aI00
aI00
aa(lp439
I131049
aF152.2874693877551
aF392.717
ag427
aS'nimbussanl'
p440
aS'#00007f'
p441
aF11.0
aI0
aI00
aI00
aI00
aI00
aI00
aI00
aI00
aI00
aa(lp442
I234378
aF172.55791836734693
aF392.717
ag427
aS'nimbussanl'
p443
aS'#00007f'
p444
aF11.0
aI0
aI01
aI00
aI00
aI00
aI00
aI00
aI00
aI00
aa(lp445
I234378
aF192.82836734693876
aF392.717
ag427
aS'nimbussanl'
p446
aS'#00007f'
p447
aF11.0
aI0
aI01
aI00
aI00
aI00
aI00
aI00
aI00
aI00
aa(lp448
I85218
aF217.91642857142855
aF392.717
ag427
aS'nimbussanl'
p449
aS'#00007f'
p450
aF11.0
aI0
aI00
aI00
aI00
aI00
aI00
aI00
aI00
aI00
aa(lp451
I234378
aF233.36926530612243
aF392.717
ag427
aS'nimbussanl'
p452
aS'#00007f'
p453
aF11.0
aI0
aI01
aI01
aI00
aI00
aI00
aI00
aI00
aI00
aa(lp454
I234378
aF247.8221020408163
aF392.717
ag427
aS'nimbussanl'
p455
aS'#00007f'
p456
aF11.0
aI0
aI00
aI00
aI00
aI00
aI00
aI00
aI00
aI00
aa(lp457
I234378
aF43.3
aF406.531
aVp1
p458
aS'nimbussanl'
p459
aS'#000000'
p460
aF11.0
aI1
aI01
aI00
aI00
aI00
aI00
aI00
aI00
aI01
aa(lp461
I234378
aF60.34225806451613
aF406.531
ag458
aS'nimbussanl'
p462
aS'#000000'
p463
aF11.0
aI1
aI00
aI00
aI01
aI01
aI01
aI00
aI00
aI00
aa(lp464
I234378
aF84.73193548387097
aF406.531
ag458
aS'nimbussanl'
p465
aS'#000000'
p466
aF11.0
aI1
aI01
aI00
aI00
aI00
aI00
aI00
aI00
aI01
aa(lp467
I234378
aF101.7741935483871
aF406.531
ag458
aS'nimbussanl'
p468
aS'#000000'
p469
aF11.0
aI1
aI00
aI00
aI01
aI01
aI01
aI00
aI00
aI00
aa(lp470
I234378
aF126.16387096774194
aF406.531
ag458
aS'nimbussanl'
p471
aS'#000000'
p472
aF11.0
aI1
aI01
aI00
aI00
aI00
aI00
aI00
aI00
aI00
aa(lp473
I98566
aF43.3
aF432.731
aVp1
p474
aS'nimbussanl'
p475
aS'#000000'
p476
aF11.0
aI1
aI01
aI00
aI00
aI00
aI00
aI00
aI00
aI00
aa(lp477
I194354
aF70.19052631578947
aF432.731
ag474
aS'nimbussanl'
p478
aS'#000000'
p479
aF11.0
aI1
aI00
aI00
aI00
aI00
aI00
aI00
aI00
aI00
aa(lp480
I177958
aF86.72484210526315
aF432.731
ag474
aS'nimbussanl'
p481
aS'#000000'
p482
aF11.0
aI1
aI01
aI00
aI00
aI00
aI00
aI00
aI00
aI00
aa(lp483
I234378
aF123.97157894736841
aF432.731
ag474
aS'nimbussanl'
p484
aS'#000000'
p485
aF11.0
aI1
aI00
aI00
aI00
aI00
aI00
aI00
aI00
aI00
aa(lp486
I231432
aF43.3
aF446.917
aVp1
p487
aS'nimbussanl'
p488
aS'#000000'
p489
aF11.0
aI0
aI01
aI00
aI00
aI00
aI00
aI00
aI00
aI00
aa(lp490
I188021
aF85.34247422680411
aF446.917
ag487
aS'nimbussanl'
p491
aS'#000000'
p492
aF11.0
aI0
aI01
aI00
aI00
aI00
aI00
aI00
aI00
aI00
aa(lp493
I22474
aF127.38494845360825
aF446.917
ag487
aS'nimbussanl'
p494
aS'#000000'
p495
aF11.0
aI0
aI00
aI00
aI00
aI00
aI00
aI00
aI00
aI00
aa(lp496
I194354
aF138.64556701030926
aF446.917
ag487
aS'nimbussanl'
p497
aS'#000000'
p498
aF11.0
aI0
aI00
aI00
aI00
aI00
aI00
aI00
aI00
aI00
aa(lp499
I83693
aF155.0364948453608
aF446.917
ag487
aS'nimbussanl'
p500
aS'#000000'
p501
aF11.0
aI0
aI00
aI00
aI00
aI00
aI00
aI00
aI00
aI00
aa(lp502
I17350
aF186.8183505154639
aF446.917
ag487
aS'nimbussanl'
p503
aS'#000000'
p504
aF11.0
aI0
aI00
aI00
aI00
aI00
aI00
aI00
aI00
aI00
aa(lp505
I35885
aF203.20927835051543
aF446.917
ag487
aS'nimbussanl'
p506
aS'#000000'
p507
aF11.0
aI0
aI00
aI00
aI00
aI00
aI00
aI00
aI00
aI00
aa(lp508
I223466
aF229.86082474226802
aF446.917
ag487
aS'nimbussanl'
p509
aS'#000000'
p510
aF11.0
aI0
aI01
aI00
aI00
aI00
aI00
aI00
aI00
aI00
aa(lp511
I231432
aF216.7729896907216
aF446.917
ag487
aS'nimbussanl'
p512
aS'#000000'
p513
aF11.0
aI0
aI01
aI00
aI00
aI00
aI00
aI00
aI00
aI00
aa(lp514
I85218
aF308.81546391752573
aF446.917
ag487
aS'nimbussanl'
p515
aS'#000000'
p516
aF11.0
aI0
aI00
aI00
aI00
aI00
aI00
aI00
aI00
aI00
aa(lp517
I153177
aF325.2063917525773
aF446.917
ag487
aS'nimbussanl'
p518
aS'#000000'
p519
aF11.0
aI0
aI01
aI00
aI00
aI00
aI00
aI00
aI00
aI00
aa(lp520
I156028
aF377.5094845360825
aF446.917
ag487
aS'nimbussanl'
p521
aS'#000000'
p522
aF11.0
aI0
aI01
aI00
aI00
aI00
aI00
aI00
aI00
aI00
aa(lp523
I1629
aF399.0307216494845
aF446.917
ag487
aS'nimbussanl'
p524
aS'#000000'
p525
aF11.0
aI0
aI00
aI00
aI00
aI00
aI00
aI00
aI00
aI00
aa(lp526
I173426
aF425.6822680412371
aF446.917
ag487
aS'nimbussanl'
p527
aS'#000000'
p528
aF11.0
aI0
aI00
aI00
aI00
aI00
aI00
aI00
aI00
aI00
aa(lp529
I85218
aF432.7247422680412
aF446.917
ag487
aS'nimbussanl'
p530
aS'#000000'
p531
aF11.0
aI0
aI00
aI00
aI00
aI00
aI00
aI00
aI00
aI00
aa(lp532
I234378
aF43.3
aF460.517
aVp1
p533
aS'nimbussanl'
p534
aS'#000000'
p535
aF11.0
aI0
aI00
aI00
aI00
aI00
aI00
aI00
aI00
aI00
aa(lp536
I192651
aF90.31334375
aF460.517
ag533
aS'nimbussanl'
p537
aS'#000000'
p538
aF11.0
aI0
aI00
aI00
aI00
aI00
aI00
aI00
aI00
aI00
aa(lp539
I182190
aF101.53853125
aF460.517
ag533
aS'nimbussanl'
p540
aS'#000000'
p541
aF11.0
aI0
aI01
aI00
aI00
aI00
aI00
aI00
aI00
aI00
aa(lp542
I234378
aF138.3266875
aF460.517
ag533
aS'nimbussanl'
p543
aS'#000000'
p544
aF11.0
aI0
aI01
aI00
aI00
aI00
aI00
aI00
aI00
aI00
aa(lp545
I234378
aF180.2274375
aF460.517
ag533
aS'nimbussanl'
p546
aS'#000000'
p547
aF11.0
aI0
aI00
aI00
aI00
aI00
aI00
aI00
aI00
aI00
aa(lp548
I89480
aF206.79040625000002
aF460.517
ag533
aS'nimbussanl'
p549
aS'#000000'
p550
aF11.0
aI0
aI00
aI00
aI00
aI00
aI00
aI00
aI00
aI00
aa(lp551
I87713
aF218.01559375000002
aF460.517
ag533
aS'nimbussanl'
p552
aS'#000000'
p553
aF11.0
aI0
aI00
aI00
aI00
aI00
aI00
aI00
aI00
aI00
aa(lp554
I234378
aF254.80375000000004
aF460.517
ag533
aS'nimbussanl'
p555
aS'#000000'
p556
aF11.0
aI0
aI01
aI01
aI00
aI00
aI00
aI00
aI00
aI00
aa(lp557
I234378
aF270.14153125
aF460.517
ag533
aS'nimbussanl'
p558
aS'#000000'
p559
aF11.0
aI0
aI00
aI00
aI00
aI00
aI00
aI00
aI00
aI00
aa(lp560
I234378
aF276.254125
aF460.517
ag533
aS'nimbussanl'
p561
aS'#000000'
p562
aF11.0
aI0
aI01
aI01
aI00
aI00
aI00
aI00
aI00
aI00
aa(lp563
I234378
aF287.4793125
aF460.517
ag533
aS'nimbussanl'
p564
aS'#000000'
p565
aF11.0
aI0
aI00
aI00
aI00
aI00
aI00
aI00
aI00
aI00
aa(lp566
I89480
aF284.9296875
aF460.517
ag533
aS'nimbussanl'
p567
aS'#000000'
p568
aF11.0
aI0
aI00
aI00
aI00
aI00
aI00
aI00
aI00
aI00
aa(lp569
I179418
aF320.154875
aF460.517
ag533
aS'nimbussanl'
p570
aS'#000000'
p571
aF11.0
aI0
aI00
aI00
aI00
aI00
aI00
aI00
aI00
aI00
aa(lp572
I41890
aF356.94303125
aF460.517
ag533
aS'nimbussanl'
p573
aS'#000000'
p574
aF11.0
aI0
aI00
aI00
aI00
aI00
aI00
aI00
aI00
aI00
aa(lp575
I234378
aF373.28081249999997
aF460.517
ag533
aS'nimbussanl'
p576
aS'#000000'
p577
aF11.0
aI0
aI00
aI00
aI00
aI00
aI00
aI00
aI00
aI00
aa(lp578
I234378
aF415.1815625
aF460.517
ag533
aS'nimbussanl'
p579
aS'#000000'
p580
aF11.0
aI0
aI00
aI00
aI00
aI00
aI00
aI00
aI00
aI00
aa(lp581
I192651
aF378.19490625
aF460.517
ag533
aS'nimbussanl'
p582
aS'#000000'
p583
aF11.0
aI0
aI00
aI00
aI00
aI00
aI00
aI00
aI00
aI00
aa(lp584
I234378
aF43.3
aF474.217
aVp1
p585
aS'nimbussanl'
p586
aS'#000000'
p587
aF11.0
aI0
aI01
aI01
aI00
aI00
aI00
aI00
aI00
aI00
aa(lp588
I135639
aF59.65869565217391
aF474.217
ag585
aS'nimbussanl'
p589
aS'#000000'
p590
aF11.0
aI0
aI00
aI00
aI00
aI00
aI00
aI00
aI00
aI00
aa(lp591
I112491
aF70.89782608695651
aF474.217
ag585
aS'nimbussanl'
p592
aS'#000000'
p593
aF11.0
aI0
aI00
aI00
aI00
aI00
aI00
aI00
aI00
aI00
aa(lp594
I234378
aF97.49565217391304
aF474.217
ag585
aS'nimbussanl'
p595
aS'#000000'
p596
aF11.0
aI0
aI00
aI00
aI00
aI00
aI00
aI00
aI00
aI00
aa(lp597
I234378
aF143.5717391304348
aF474.217
ag585
aS'nimbussanl'
p598
aS'#000000'
p599
aF11.0
aI0
aI00
aI00
aI00
aI00
aI00
aI00
aI00
aI00
aa(lp600
I234378
aF43.3
aF487.831
aVp1
p601
aS'nimbussanl'
p602
aS'#000000'
p603
aF11.0
aI1
aI01
aI00
aI00
aI00
aI00
aI00
aI00
aI00
aa(lp604
I234378
aF73.03916666666666
aF487.831
ag601
aS'nimbussanl'
p605
aS'#000000'
p606
aF11.0
aI1
aI01
aI00
aI00
aI00
aI00
aI00
aI00
aI00
aa(lp607
I204810
aF79.3
aF502.031
aVp1
p608
aS'nimbussanl'
p609
aS'#000000'
p610
aF11.0
aI1
aI01
aI00
aI00
aI00
aI00
aI00
aI00
aI00
aa(lp611
I68032
aF118.20224999999999
aF502.031
ag608
aS'nimbussanl'
p612
aS'#000000'
p613
aF11.0
aI1
aI00
aI00
aI00
aI00
aI00
aI00
aI00
aI00
aa(lp614
I135639
aF179.76292857142857
aF502.031
ag608
aS'nimbussanl'
p615
aS'#000000'
p616
aF11.0
aI1
aI00
aI00
aI00
aI00
aI00
aI00
aI00
aI00
aa(lp617
I21716
aF191.59214285714285
aF502.031
ag608
aS'nimbussanl'
p618
aS'#000000'
p619
aF11.0
aI1
aI01
aI00
aI00
aI00
aI00
aI00
aI00
aI00
aa(lp620
I204810
aF79.3
aF516.417
aVp1
p621
aS'nimbussanl'
p622
aS'#000000'
p623
aF11.0
aI0
aI01
aI00
aI00
aI00
aI00
aI00
aI00
aI00
aa(lp624
I134924
aF116.79442857142857
aF516.417
ag621
aS'nimbussanl'
p625
aS'#000000'
p626
aF11.0
aI0
aI00
aI00
aI00
aI00
aI00
aI00
aI00
aI00
aa(lp627
I190806
aF143.8618775510204
aF516.417
ag621
aS'nimbussanl'
p628
aS'#000000'
p629
aF11.0
aI0
aI00
aI00
aI00
aI00
aI00
aI00
aI00
aI00
aa(lp630
I234378
aF160.5023469387755
aF516.417
ag621
aS'nimbussanl'
p631
aS'#000000'
p632
aF11.0
aI0
aI01
aI01
aI00
aI00
aI00
aI00
aI00
aI00
aa(lp633
I234378
aF176.1428163265306
aF516.417
ag621
aS'nimbussanl'
p634
aS'#000000'
p635
aF11.0
aI0
aI00
aI00
aI00
aI00
aI00
aI00
aI00
aI00
aa(lp636
I234378
aF182.35630612244898
aF516.417
ag621
aS'nimbussanl'
p637
aS'#000000'
p638
aF11.0
aI0
aI00
aI00
aI00
aI00
aI00
aI00
aI00
aI00
aa(lp639
I234378
aF230.2777142857143
aF516.417
ag621
aS'nimbussanl'
p640
aS'#000000'
p641
aF11.0
aI0
aI01
aI00
aI00
aI00
aI00
aI00
aI00
aI00
aa(lp642
I16331
aF272.98563265306126
aF516.417
ag621
aS'nimbussanl'
p643
aS'#000000'
p644
aF11.0
aI0
aI00
aI00
aI00
aI00
aI00
aI00
aI00
aI00
aa(lp645
I36088
aF284.412612244898
aF516.417
ag621
aS'nimbussanl'
p646
aS'#000000'
p647
aF11.0
aI0
aI00
aI00
aI00
aI00
aI00
aI00
aI00
aI00
aa(lp648
I221291
aF79.3
aF530.331
aVp1
p649
aS'nimbussanl'
p650
aS'#000000'
p651
aF11.0
aI1
aI01
aI00
aI00
aI00
aI00
aI00
aI00
aI00
aa(lp652
I166558
aF101.02959999999999
aF530.331
ag649
aS'nimbussanl'
p653
aS'#000000'
p654
aF11.0
aI1
aI00
aI00
aI00
aI00
aI00
aI00
aI00
aI00
aa(lp655
I89480
aF143.48879999999997
aF530.331
ag649
aS'nimbussanl'
p656
aS'#000000'
p657
aF11.0
aI1
aI00
aI00
aI00
aI00
aI00
aI00
aI00
aI00
aa(lp658
I143306
aF154.85359999999997
aF530.331
ag649
aS'nimbussanl'
p659
aS'#000000'
p660
aF11.0
aI1
aI00
aI00
aI00
aI00
aI00
aI00
aI00
aI00
aa(lp661
I184171
aF192.13039999999995
aF530.331
ag649
aS'nimbussanl'
p662
aS'#000000'
p663
aF11.0
aI1
aI00
aI00
aI00
aI00
aI00
aI00
aI00
aI00
aa(lp664
I144489
aF250.13679999999994
aF530.331
ag649
aS'nimbussanl'
p665
aS'#000000'
p666
aF11.0
aI1
aI00
aI00
aI00
aI00
aI00
aI00
aI00
aI00
aa(lp667
I34356
aF261.50159999999994
aF530.331
ag649
aS'nimbussanl'
p668
aS'#000000'
p669
aF11.0
aI1
aI00
aI00
aI00
aI00
aI00
aI00
aI00
aI00
aa(lp670
I234378
aF288.4135999999999
aF530.331
ag649
aS'nimbussanl'
p671
aS'#000000'
p672
aF11.0
aI1
aI00
aI00
aI00
aI00
aI00
aI00
aI00
aI00
aa(lp673
I85218
aF341.23759999999993
aF530.331
ag649
aS'nimbussanl'
p674
aS'#000000'
p675
aF11.0
aI1
aI00
aI00
aI00
aI00
aI00
aI00
aI00
aI00
aa(lp676
I234378
aF357.7847999999999
aF530.331
ag649
aS'nimbussanl'
p677
aS'#000000'
p678
aF11.0
aI1
aI00
aI00
aI00
aI00
aI00
aI00
aI00
aI00
aa(lp679
I234378
aF395.0615999999999
aF530.331
ag649
aS'nimbussanl'
p680
aS'#000000'
p681
aF11.0
aI1
aI00
aI00
aI00
aI00
aI00
aI00
aI00
aI00
aa(lp682
I117435
aF79.3
aF544.431
aVp1
p683
aS'nimbussanl'
p684
aS'#000000'
p685
aF11.0
aI1
aI01
aI00
aI00
aI00
aI00
aI00
aI00
aI00
aa(lp686
I110092
aF126.91140909090909
aF544.431
ag683
aS'nimbussanl'
p687
aS'#000000'
p688
aF11.0
aI1
aI00
aI00
aI00
aI00
aI00
aI00
aI00
aI00
aa(lp689
I120066
aF158.98568181818183
aF544.431
ag683
aS'nimbussanl'
p690
aS'#000000'
p691
aF11.0
aI1
aI00
aI00
aI00
aI00
aI00
aI00
aI00
aI00
aa(lp692
I190806
aF206.59709090909092
aF544.431
ag683
aS'nimbussanl'
p693
aS'#000000'
p694
aF11.0
aI1
aI00
aI00
aI00
aI00
aI00
aI00
aI00
aI00
aa(lp695
I110092
aF202.1342272727273
aF544.431
ag683
aS'nimbussanl'
p696
aS'#000000'
p697
aF11.0
aI1
aI00
aI00
aI00
aI00
aI00
aI00
aI00
aI00
aa(lp698
I184171
aF255.20850000000002
aF544.431
ag683
aS'nimbussanl'
p699
aS'#000000'
p700
aF11.0
aI1
aI00
aI00
aI00
aI00
aI00
aI00
aI00
aI00
aa(lp701
I212148
aF313.178
aF544.431
ag683
aS'nimbussanl'
p702
aS'#000000'
p703
aF11.0
aI1
aI00
aI00
aI00
aI00
aI00
aI00
aI00
aI00
aa(lp704
I34356
aF340.07322727272725
aF544.431
ag683
aS'nimbussanl'
p705
aS'#000000'
p706
aF11.0
aI1
aI00
aI00
aI00
aI00
aI00
aI00
aI00
aI00
aa(lp707
I104859
aF366.9684545454545
aF544.431
ag683
aS'nimbussanl'
p708
aS'#000000'
p709
aF11.0
aI1
aI00
aI00
aI00
aI00
aI00
aI00
aI00
aI00
aa(lp710
I113826
aF79.3
aF558.631
aVp1
p711
aS'nimbussanl'
p712
aS'#000000'
p713
aF11.0
aI1
aI01
aI00
aI00
aI00
aI00
aI00
aI00
aI00
aa(lp714
I112275
aF118.48747058823528
aF558.631
ag711
aS'nimbussanl'
p715
aS'#000000'
p716
aF11.0
aI1
aI01
aI00
aI00
aI00
aI00
aI00
aI00
aI00
aa(lp717
I121847
aF141.30888235294117
aF558.631
ag711
aS'nimbussanl'
p718
aS'#000000'
p719
aF11.0
aI1
aI00
aI00
aI00
aI00
aI00
aI00
aI00
aI00
aa(lp720
I234378
aF164.13029411764705
aF558.631
ag711
aS'nimbussanl'
p721
aS'#000000'
p722
aF11.0
aI1
aI00
aI00
aI00
aI00
aI00
aI00
aI00
aI00
aa(lp723
I169745
aF192.4070588235294
aF558.631
ag711
aS'nimbussanl'
p724
aS'#000000'
p725
aF11.0
aI1
aI00
aI00
aI00
aI00
aI00
aI00
aI00
aI00
aa(lp726
I234378
aF215.2284705882353
aF558.631
ag711
aS'nimbussanl'
p727
aS'#000000'
p728
aF11.0
aI1
aI00
aI00
aI00
aI00
aI00
aI00
aI00
aI00
aa(lp729
I115769
aF254.4159411764706
aF558.631
ag711
aS'nimbussanl'
p730
aS'#000000'
p731
aF11.0
aI1
aI00
aI00
aI00
aI00
aI00
aI00
aI00
aI00
aa(lp732
I89480
aF304.5141176470588
aF558.631
ag711
aS'nimbussanl'
p733
aS'#000000'
p734
aF11.0
aI1
aI00
aI00
aI00
aI00
aI00
aI00
aI00
aI00
aa(lp735
I123861
aF316.42482352941175
aF558.631
ag711
aS'nimbussanl'
p736
aS'#000000'
p737
aF11.0
aI1
aI00
aI00
aI00
aI00
aI00
aI00
aI00
aI00
aa(lp738
I182190
aF339.24623529411764
aF558.631
ag711
aS'nimbussanl'
p739
aS'#000000'
p740
aF11.0
aI1
aI01
aI00
aI00
aI00
aI00
aI00
aI00
aI00
aa(lp741
I16936
aF378.4337058823529
aF558.631
ag711
aS'nimbussanl'
p742
aS'#000000'
p743
aF11.0
aI1
aI00
aI00
aI00
aI00
aI00
aI00
aI00
aI00
aa(lp744
I159419
aF428.5318823529411
aF558.631
ag711
aS'nimbussanl'
p745
aS'#000000'
p746
aF11.0
aI1
aI00
aI00
aI00
aI00
aI00
aI00
aI00
aI00
aa(lp747
I144489
aF451.353294117647
aF558.631
ag711
aS'nimbussanl'
p748
aS'#000000'
p749
aF11.0
aI1
aI00
aI00
aI00
aI00
aI00
aI00
aI00
aI00
aa(lp750
I234378
aF463.26399999999995
aF558.631
ag711
aS'nimbussanl'
p751
aS'#000000'
p752
aF11.0
aI1
aI00
aI00
aI01
aI01
aI01
aI00
aI00
aI00
aa(lp753
I234378
aF79.3
aF572.731
aVp1
p754
aS'nimbussanl'
p755
aS'#000000'
p756
aF11.0
aI1
aI00
aI00
aI00
aI00
aI00
aI00
aI00
aI00
aa(lp757
I195166
aF339.5
aF599.412
aVp1
p758
aS'nimbusromno9l'
p759
aS'#000000'
p760
aF12.0
aI0
aI01
aI00
aI00
aI00
aI00
aI00
aI00
aI00
aa(lp761
I84662
aF77.9
aF599.412
aVp1
p762
aS'nimbusromno9l'
p763
aS'#000000'
p764
aF12.0
aI0
aI01
aI00
aI00
aI00
aI00
aI00
aI00
aI00
aa(lp765
I21716
aF102.73831578947369
aF599.412
ag762
aS'nimbusromno9l'
p766
aS'#000000'
p767
aF12.0
aI0
aI01
aI00
aI00
aI00
aI00
aI00
aI00
aI00
aa(lp768
I234378
aF126.57663157894737
aF599.412
ag762
aS'nimbusromno9l'
p769
aS'#000000'
p770
aF12.0
aI0
aI00
aI00
aI00
aI00
aI00
aI00
aI00
aI00
aa(lp771
I234378
aF132.53621052631578
aF599.412
ag762
aS'nimbusromno9l'
p772
aS'#000000'
p773
aF12.0
aI0
aI01
aI01
aI00
aI00
aI00
aI00
aI00
aI00
aa(lp774
I234378
aF146.41494736842105
aF599.412
ag762
aS'nimbusromno9l'
p775
aS'#000000'
p776
aF12.0
aI0
aI00
aI00
aI00
aI00
aI00
aI00
aI00
aI00
aa(lp777
I234378
aF156.37452631578947
aF599.412
ag762
aS'nimbusromno9l'
p778
aS'#000000'
p779
aF12.0
aI0
aI01
aI01
aI00
aI00
aI00
aI00
aI00
aI00
aa(lp780
I234378
aF171.21284210526315
aF599.412
ag762
aS'nimbusromno9l'
p781
aS'#000000'
p782
aF12.0
aI0
aI00
aI00
aI00
aI00
aI00
aI00
aI00
aI00
aa(lp783
I234378
aF339.5
aF614.412
aVp1
p784
aS'nimbusromno9l'
p785
aS'#000000'
p786
aF12.0
aI0
aI01
aI00
aI00
aI00
aI00
aI00
aI00
aI00
aa(lp787
I234378
aF77.9
aF614.412
aVp1
p788
aS'nimbusromno9l'
p789
aS'#000000'
p790
aF12.0
aI0
aI01
aI00
aI00
aI00
aI00
aI00
aI00
aI00
aa(lp791
I234378
aF339.5
aF629.312
aVp1
p792
aS'nimbusromno9l'
p793
aS'#000000'
p794
aF12.0
aI0
aI01
aI00
aI00
aI00
aI00
aI00
aI00
aI00
aa(lp795
I223319
aF77.9
aF629.312
aVp1
p796
aS'nimbusromno9l'
p797
aS'#000000'
p798
aF12.0
aI0
aI01
aI00
aI00
aI00
aI00
aI00
aI00
aI00
aa(lp799
I234378
aF113.82718181818183
aF629.312
ag796
aS'nimbusromno9l'
p800
aS'#000000'
p801
aF12.0
aI0
aI00
aI00
aI00
aI00
aI00
aI00
aI00
aI00
aa(lp802
I234378
aF119.95963636363638
aF629.312
ag796
aS'nimbusromno9l'
p803
aS'#000000'
p804
aF12.0
aI0
aI01
aI00
aI00
aI00
aI00
aI00
aI00
aI00
aa(lp805
I234378
aF151.01927272727275
aF629.312
ag796
aS'nimbusromno9l'
p806
aS'#000000'
p807
aF12.0
aI0
aI00
aI00
aI00
aI00
aI00
aI00
aI00
aI00
aa(lp808
I156867
aF167.1517272727273
aF629.312
ag796
aS'nimbusromno9l'
p809
aS'#000000'
p810
aF12.0
aI0
aI01
aI00
aI00
aI00
aI00
aI00
aI00
aI00
aa(lp811
I234378
aF188.21136363636367
aF629.312
ag796
aS'nimbusromno9l'
p812
aS'#000000'
p813
aF12.0
aI0
aI00
aI00
aI00
aI00
aI00
aI00
aI00
aI00
aa(lp814
I216500
aF214.34381818181822
aF629.312
ag796
aS'nimbusromno9l'
p815
aS'#000000'
p816
aF12.0
aI0
aI01
aI01
aI00
aI00
aI00
aI00
aI00
aI00
aa(lp817
I234378
aF204.74118181818187
aF629.312
ag796
aS'nimbusromno9l'
p818
aS'#000000'
p819
aF12.0
aI0
aI00
aI00
aI00
aI00
aI00
aI00
aI00
aI00
aa(lp820
I234378
aF234.87363636363642
aF629.312
ag796
aS'nimbusromno9l'
p821
aS'#000000'
p822
aF12.0
aI0
aI01
aI00
aI00
aI00
aI00
aI00
aI00
aI00
aa(lp823
I234378
aF229.53590909090917
aF629.312
ag796
aS'nimbusromno9l'
p824
aS'#000000'
p825
aF12.0
aI0
aI00
aI00
aI00
aI00
aI00
aI00
aI00
aI00
aa(lp826
I234378
aF265.6683636363637
aF629.312
ag796
aS'nimbusromno9l'
p827
aS'#000000'
p828
aF12.0
aI0
aI01
aI00
aI00
aI00
aI00
aI00
aI00
aI00
aa(lp829
I82213
aF339.5
aF644.312
aVp1
p830
aS'nimbusromno9l'
p831
aS'#000000'
p832
aF12.0
aI0
aI01
aI00
aI00
aI00
aI00
aI00
aI00
aI00
aa(lp833
I207716
aF388.992
aF644.312
ag830
aS'nimbusromno9l'
p834
aS'#000000'
p835
aF12.0
aI0
aI01
aI00
aI00
aI00
aI00
aI00
aI00
aI00
aa(lp836
I234378
aF77.9
aF644.312
aVp1
p837
aS'nimbusromno9l'
p838
aS'#000000'
p839
aF12.0
aI0
aI01
aI00
aI00
aI00
aI00
aI00
aI00
aI00
aa(lp840
I234378
aF118.19
aF644.312
ag837
aS'nimbusromno9l'
p841
aS'#000000'
p842
aF12.0
aI0
aI00
aI00
aI00
aI00
aI00
aI00
aI00
aI00
aa(lp843
I234378
aF124.94571428571429
aF644.312
ag837
aS'nimbusromno9l'
p844
aS'#000000'
p845
aF12.0
aI0
aI01
aI00
aI00
aI00
aI00
aI00
aI00
aI00
aa(lp846
I29568
aF43.3
aF707.452
aVp1
p847
aS'nimbussanl'
p848
aS'#00007f'
p849
aF12.0
aI1
aI01
aI00
aI00
aI00
aI00
aI00
aI00
aI00
aa(lp850
I223466
aF105.27560975609757
aF707.452
ag847
aS'nimbussanl'
p851
aS'#00007f'
p852
aF12.0
aI1
aI01
aI00
aI00
aI00
aI00
aI00
aI00
aI00
aa(lp853
I85218
aF147.55853658536586
aF707.452
ag847
aS'nimbussanl'
p854
aS'#00007f'
p855
aF12.0
aI1
aI00
aI00
aI00
aI00
aI00
aI00
aI00
aI00
aa(lp856
I231432
aF166.25121951219512
aF707.452
ag847
aS'nimbussanl'
p857
aS'#00007f'
p858
aF12.0
aI1
aI01
aI00
aI00
aI00
aI00
aI00
aI00
aI00
aa(lp859
I95887
aF214.43170731707318
aF707.452
ag847
aS'nimbussanl'
p860
aS'#00007f'
p861
aF12.0
aI1
aI01
aI00
aI00
aI00
aI00
aI00
aI00
aI00
aa(lp862
I182190
aF43.3
aF723.217
aVp1
p863
aS'nimbussanl'
p864
aS'#00007f'
p865
aF11.0
aI0
aI01
aI00
aI00
aI00
aI00
aI00
aI00
aI00
aa(lp866
I234378
aF77.38148780487805
aF723.217
ag863
aS'nimbussanl'
p867
aS'#00007f'
p868
aF11.0
aI0
aI01
aI00
aI00
aI00
aI00
aI00
aI00
aI00
aa(lp869
I234378
aF116.18890243902439
aF723.217
ag863
aS'nimbussanl'
p870
aS'#00007f'
p871
aF11.0
aI0
aI00
aI00
aI00
aI00
aI00
aI00
aI00
aI00
aa(lp872
I234378
aF120.91482926829268
aF723.217
ag863
aS'nimbussanl'
p873
aS'#00007f'
p874
aF11.0
aI0
aI01
aI00
aI00
aI00
aI00
aI00
aI00
aI00
aa(lp875
I131049
aF150.27039024390243
aF723.217
ag863
aS'nimbussanl'
p876
aS'#00007f'
p877
aF11.0
aI0
aI00
aI00
aI00
aI00
aI00
aI00
aI00
aI00
aa(lp878
I234378
aF170.1740975609756
aF723.217
ag863
aS'nimbussanl'
p879
aS'#00007f'
p880
aF11.0
aI0
aI01
aI00
aI00
aI00
aI00
aI00
aI00
aI00
aa(lp881
I234378
aF190.07780487804877
aF723.217
ag863
aS'nimbussanl'
p882
aS'#00007f'
p883
aF11.0
aI0
aI01
aI00
aI00
aI00
aI00
aI00
aI00
aI00
aa(lp884
I234378
aF213.70743902439023
aF723.217
ag863
aS'nimbussanl'
p885
aS'#00007f'
p886
aF11.0
aI0
aI00
aI00
aI00
aI00
aI00
aI00
aI00
aI00
aa(lp887
I234378
aF43.3
aF737.031
aVp1
p888
aS'nimbussanl'
p889
aS'#000000'
p890
aF11.0
aI1
aI01
aI00
aI00
aI00
aI00
aI00
aI00
aI01
aa(lp891
I234378
aF60.866
aF737.031
ag888
aS'nimbussanl'
p892
aS'#000000'
p893
aF11.0
aI1
aI00
aI00
aI01
aI01
aI01
aI00
aI00
aI00
aa(lp894
I234378
aF85.954
aF737.031
ag888
aS'nimbussanl'
p895
aS'#000000'
p896
aF11.0
aI1
aI01
aI00
aI00
aI00
aI00
aI00
aI00
aI01
aa(lp897
I234378
aF103.52
aF737.031
ag888
aS'nimbussanl'
p898
aS'#000000'
p899
aF11.0
aI1
aI00
aI00
aI01
aI01
aI01
aI00
aI00
aI00
aa(lp900
I234378
aF128.608
aF737.031
ag888
aS'nimbussanl'
p901
aS'#000000'
p902
aF11.0
aI1
aI01
aI00
aI00
aI00
aI00
aI00
aI00
aI00
aa(lp903
I98566
aF43.3
aF763.231
aVp1
p904
aS'nimbussanl'
p905
aS'#000000'
p906
aF11.0
aI1
aI01
aI00
aI00
aI00
aI00
aI00
aI00
aI00
aa(lp907
I194354
aF70.19052631578947
aF763.231
ag904
aS'nimbussanl'
p908
aS'#000000'
p909
aF11.0
aI1
aI00
aI00
aI00
aI00
aI00
aI00
aI00
aI00
aa(lp910
I177958
aF86.72484210526315
aF763.231
ag904
aS'nimbussanl'
p911
aS'#000000'
p912
aF11.0
aI1
aI01
aI00
aI00
aI00
aI00
aI00
aI00
aI00
aa(lp913
I234378
aF123.97157894736841
aF763.231
ag904
aS'nimbussanl'
p914
aS'#000000'
p915
aF11.0
aI1
aI00
aI00
aI00
aI00
aI00
aI00
aI00
aI00
aa(lp916
I234378
aF43.3
aF43.217
aVp2
p917
aS'nimbussanl'
p918
aS'#000000'
p919
aF11.0
aI0
aI01
aI01
aI00
aI00
aI00
aI00
aI00
aI00
aa(lp920
I22474
aF59.860350515463914
aF43.217
ag917
aS'nimbussanl'
p921
aS'#000000'
p922
aF11.0
aI0
aI00
aI00
aI00
aI00
aI00
aI00
aI00
aI00
aa(lp923
I176802
aF71.2339175257732
aF43.217
ag917
aS'nimbussanl'
p924
aS'#000000'
p925
aF11.0
aI0
aI00
aI00
aI00
aI00
aI00
aI00
aI00
aI00
aa(lp926
I144489
aF87.7942680412371
aF43.217
ag917
aS'nimbussanl'
p927
aS'#000000'
p928
aF11.0
aI0
aI00
aI00
aI00
aI00
aI00
aI00
aI00
aI00
aa(lp929
I194354
aF99.16783505154638
aF43.217
ag917
aS'nimbussanl'
p930
aS'#000000'
p931
aF11.0
aI0
aI00
aI00
aI00
aI00
aI00
aI00
aI00
aI00
aa(lp932
I214224
aF115.72818556701029
aF43.217
ag917
aS'nimbussanl'
p933
aS'#000000'
p934
aF11.0
aI0
aI00
aI00
aI00
aI00
aI00
aI00
aI00
aI00
aa(lp935
I145583
aF137.47531958762883
aF43.217
ag917
aS'nimbussanl'
p936
aS'#000000'
p937
aF11.0
aI0
aI00
aI00
aI00
aI00
aI00
aI00
aI00
aI00
aa(lp938
I85218
aF169.59602061855668
aF43.217
ag917
aS'nimbussanl'
p939
aS'#000000'
p940
aF11.0
aI0
aI00
aI00
aI00
aI00
aI00
aI00
aI00
aI00
aa(lp941
I6380
aF186.1563711340206
aF43.217
ag917
aS'nimbussanl'
p942
aS'#000000'
p943
aF11.0
aI0
aI00
aI00
aI00
aI00
aI00
aI00
aI00
aI00
aa(lp944
I223466
aF223.46385567010307
aF43.217
ag917
aS'nimbussanl'
p945
aS'#000000'
p946
aF11.0
aI0
aI01
aI00
aI00
aI00
aI00
aI00
aI00
aI00
aa(lp947
I231432
aF260.7713402061855
aF43.217
ag917
aS'nimbussanl'
p948
aS'#000000'
p949
aF11.0
aI0
aI01
aI00
aI00
aI00
aI00
aI00
aI00
aI00
aa(lp950
I85218
aF274.2656082474226
aF43.217
ag917
aS'nimbussanl'
p951
aS'#000000'
p952
aF11.0
aI0
aI00
aI00
aI00
aI00
aI00
aI00
aI00
aI00
aa(lp953
I153177
aF319.82595876288656
aF43.217
ag917
aS'nimbussanl'
p954
aS'#000000'
p955
aF11.0
aI0
aI01
aI00
aI00
aI00
aI00
aI00
aI00
aI00
aa(lp956
I156028
aF372.693793814433
aF43.217
ag917
aS'nimbussanl'
p957
aS'#000000'
p958
aF11.0
aI0
aI01
aI00
aI00
aI00
aI00
aI00
aI00
aI00
aa(lp959
I206996
aF394.4409278350515
aF43.217
ag917
aS'nimbussanl'
p960
aS'#000000'
p961
aF11.0
aI0
aI00
aI00
aI00
aI00
aI00
aI00
aI00
aI00
aa(lp962
I11987
aF442.1219793814433
aF43.217
ag917
aS'nimbussanl'
p963
aS'#000000'
p964
aF11.0
aI0
aI00
aI00
aI00
aI00
aI00
aI00
aI00
aI00
aa(lp965
I135639
aF469.0558969072165
aF43.217
ag917
aS'nimbussanl'
p966
aS'#000000'
p967
aF11.0
aI0
aI00
aI00
aI00
aI00
aI00
aI00
aI00
aI00
aa(lp968
I224218
aF43.3
aF56.917
aVp2
p969
aS'nimbussanl'
p970
aS'#000000'
p971
aF11.0
aI0
aI00
aI00
aI00
aI00
aI00
aI00
aI00
aI00
aa(lp972
I85218
aF75.35802173913044
aF56.917
ag969
aS'nimbussanl'
p973
aS'#000000'
p974
aF11.0
aI0
aI00
aI00
aI00
aI00
aI00
aI00
aI00
aI00
aa(lp975
I22474
aF91.88703260869565
aF56.917
ag969
aS'nimbussanl'
p976
aS'#000000'
p977
aF11.0
aI0
aI00
aI00
aI00
aI00
aI00
aI00
aI00
aI00
aa(lp978
I25729
aF103.23970652173912
aF56.917
ag969
aS'nimbussanl'
p979
aS'#000000'
p980
aF11.0
aI0
aI00
aI00
aI00
aI00
aI00
aI00
aI00
aI00
aa(lp981
I192651
aF124.94505434782607
aF56.917
ag969
aS'nimbussanl'
p982
aS'#000000'
p983
aF11.0
aI0
aI00
aI00
aI00
aI00
aI00
aI00
aI00
aI00
aa(lp984
I234378
aF136.29772826086955
aF56.917
ag969
aS'nimbussanl'
p985
aS'#000000'
p986
aF11.0
aI0
aI00
aI00
aI00
aI00
aI00
aI00
aI00
aI00
aa(lp987
I144489
aF183.88476086956518
aF56.917
ag969
aS'nimbussanl'
p988
aS'#000000'
p989
aF11.0
aI0
aI00
aI00
aI00
aI00
aI00
aI00
aI00
aI00
aa(lp990
I166001
aF195.23743478260866
aF56.917
ag969
aS'nimbussanl'
p991
aS'#000000'
p992
aF11.0
aI0
aI00
aI00
aI00
aI00
aI00
aI00
aI00
aI00
aa(lp993
I234378
aF232.47179347826085
aF56.917
ag969
aS'nimbussanl'
p994
aS'#000000'
p995
aF11.0
aI0
aI00
aI00
aI00
aI00
aI00
aI00
aI00
aI00
aa(lp996
I234378
aF280.0588260869565
aF56.917
ag969
aS'nimbussanl'
p997
aS'#000000'
p998
aF11.0
aI0
aI00
aI00
aI00
aI00
aI00
aI00
aI00
aI00
aa(lp999
I234378
aF326.6458586956522
aF56.917
ag969
aS'nimbussanl'
p1000
aS'#000000'
p1001
aF11.0
aI0
aI00
aI00
aI00
aI00
aI00
aI00
aI00
aI00
aa(lp1002
I234378
aF332.82219565217395
aF56.917
ag969
aS'nimbussanl'
p1003
aS'#000000'
p1004
aF11.0
aI0
aI01
aI01
aI00
aI00
aI00
aI00
aI00
aI00
aa(lp1005
I234378
aF349.3512065217392
aF56.917
ag969
aS'nimbussanl'
p1006
aS'#000000'
p1007
aF11.0
aI0
aI00
aI00
aI00
aI00
aI00
aI00
aI00
aI00
aa(lp1008
I166593
aF315.7619021739131
aF56.917
ag969
aS'nimbussanl'
p1009
aS'#000000'
p1010
aF11.0
aI0
aI00
aI00
aI00
aI00
aI00
aI00
aI00
aI00
aa(lp1011
I114905
aF376.93823913043485
aF56.917
ag969
aS'nimbussanl'
p1012
aS'#000000'
p1013
aF11.0
aI0
aI00
aI00
aI00
aI00
aI00
aI00
aI00
aI00
aa(lp1014
I71826
aF419.6435869565218
aF56.917
ag969
aS'nimbussanl'
p1015
aS'#000000'
p1016
aF11.0
aI0
aI00
aI00
aI00
aI00
aI00
aI00
aI00
aI00
aa(lp1017
I144489
aF388.5252717391305
aF56.917
ag969
aS'nimbussanl'
p1018
aS'#000000'
p1019
aF11.0
aI0
aI00
aI00
aI00
aI00
aI00
aI00
aI00
aI00
aa(lp1020
I234378
aF43.3
aF70.517
aVp2
p1021
aS'nimbussanl'
p1022
aS'#000000'
p1023
aF11.0
aI0
aI00
aI00
aI00
aI00
aI00
aI00
aI00
aI00
aa(lp1024
I190806
aF81.96725925925927
aF70.517
ag1021
aS'nimbussanl'
p1025
aS'#000000'
p1026
aF11.0
aI0
aI00
aI00
aI00
aI00
aI00
aI00
aI00
aI00
aa(lp1027
I41890
aF97.09248148148149
aF70.517
ag1021
aS'nimbussanl'
p1028
aS'#000000'
p1029
aF11.0
aI0
aI00
aI00
aI00
aI00
aI00
aI00
aI00
aI00
aa(lp1030
I234378
aF112.2177037037037
aF70.517
ag1021
aS'nimbussanl'
p1031
aS'#000000'
p1032
aF11.0
aI0
aI00
aI00
aI00
aI00
aI00
aI00
aI00
aI00
aa(lp1033
I144489
aF146.17655555555555
aF70.517
ag1021
aS'nimbussanl'
p1034
aS'#000000'
p1035
aF11.0
aI0
aI00
aI00
aI00
aI00
aI00
aI00
aI00
aI00
aa(lp1036
I182190
aF156.59337037037037
aF70.517
ag1021
aS'nimbussanl'
p1037
aS'#000000'
p1038
aF11.0
aI0
aI01
aI00
aI00
aI00
aI00
aI00
aI00
aI00
aa(lp1039
I113211
aF190.5522222222222
aF70.517
ag1021
aS'nimbussanl'
p1040
aS'#000000'
p1041
aF11.0
aI0
aI00
aI00
aI00
aI00
aI00
aI00
aI00
aI00
aa(lp1042
I234378
aF223.51107407407406
aF70.517
ag1021
aS'nimbussanl'
p1043
aS'#000000'
p1044
aF11.0
aI0
aI00
aI00
aI00
aI00
aI00
aI00
aI00
aI00
aa(lp1045
I37736
aF229.21948148148147
aF70.517
ag1021
aS'nimbussanl'
p1046
aS'#000000'
p1047
aF11.0
aI0
aI00
aI00
aI00
aI00
aI00
aI00
aI00
aI00
aa(lp1048
I234378
aF260.59514814814816
aF70.517
ag1021
aS'nimbussanl'
p1049
aS'#000000'
p1050
aF11.0
aI0
aI00
aI00
aI00
aI00
aI00
aI00
aI00
aI00
aa(lp1051
I234378
aF277.3035555555556
aF70.517
ag1021
aS'nimbussanl'
p1052
aS'#000000'
p1053
aF11.0
aI0
aI00
aI00
aI00
aI00
aI00
aI00
aI00
aI00
aa(lp1054
I234378
aF314.97081481481484
aF70.517
ag1021
aS'nimbussanl'
p1055
aS'#000000'
p1056
aF11.0
aI0
aI00
aI00
aI00
aI00
aI00
aI00
aI00
aI00
aa(lp1057
I234378
aF319.6792222222223
aF70.517
ag1021
aS'nimbussanl'
p1058
aS'#000000'
p1059
aF11.0
aI0
aI01
aI01
aI00
aI00
aI00
aI00
aI00
aI00
aa(lp1060
I234378
aF308.8044444444445
aF70.517
ag1021
aS'nimbussanl'
p1061
aS'#000000'
p1062
aF11.0
aI0
aI00
aI00
aI00
aI00
aI00
aI00
aI00
aI00
aa(lp1063
I85218
aF339.51285185185196
aF70.517
ag1021
aS'nimbussanl'
p1064
aS'#000000'
p1065
aF11.0
aI0
aI00
aI00
aI00
aI00
aI00
aI00
aI00
aI00
aa(lp1066
I73571
aF354.6380740740742
aF70.517
ag1021
aS'nimbussanl'
p1067
aS'#000000'
p1068
aF11.0
aI0
aI00
aI00
aI00
aI00
aI00
aI00
aI00
aI00
aa(lp1069
I40544
aF398.0137407407409
aF70.517
ag1021
aS'nimbussanl'
p1070
aS'#000000'
p1071
aF11.0
aI0
aI00
aI00
aI00
aI00
aI00
aI00
aI00
aI00
aa(lp1072
I85218
aF417.3894074074076
aF70.517
ag1021
aS'nimbussanl'
p1073
aS'#000000'
p1074
aF11.0
aI0
aI00
aI00
aI00
aI00
aI00
aI00
aI00
aI00
aa(lp1075
I164454
aF456.51462962962984
aF70.517
ag1021
aS'nimbussanl'
p1076
aS'#000000'
p1077
aF11.0
aI0
aI00
aI00
aI00
aI00
aI00
aI00
aI00
aI00
aa(lp1078
I234378
aF43.3
aF84.217
aVp2
p1079
aS'nimbussanl'
p1080
aS'#000000'
p1081
aF11.0
aI0
aI00
aI00
aI00
aI00
aI00
aI00
aI00
aI00
aa(lp1082
I234378
aF78.7994623655914
aF84.217
ag1079
aS'nimbussanl'
p1083
aS'#000000'
p1084
aF11.0
aI0
aI00
aI00
aI00
aI00
aI00
aI00
aI00
aI00
aa(lp1085
I46827
aF106.15591397849462
aF84.217
ag1079
aS'nimbussanl'
p1086
aS'#000000'
p1087
aF11.0
aI0
aI00
aI00
aI00
aI00
aI00
aI00
aI00
aI00
aa(lp1088
I90895
aF154.7268817204301
aF84.217
ag1079
aS'nimbussanl'
p1089
aS'#000000'
p1090
aF11.0
aI0
aI00
aI00
aI00
aI00
aI00
aI00
aI00
aI00
aa(lp1091
I234378
aF218.797311827957
aF84.217
ag1079
aS'nimbussanl'
p1092
aS'#000000'
p1093
aF11.0
aI0
aI00
aI00
aI00
aI00
aI00
aI00
aI00
aI00
aa(lp1094
I223466
aF224.72580645161293
aF84.217
ag1079
aS'nimbussanl'
p1095
aS'#000000'
p1096
aF11.0
aI0
aI00
aI00
aI00
aI00
aI00
aI00
aI00
aI00
aa(lp1097
I234378
aF260.2252688172043
aF84.217
ag1079
aS'nimbussanl'
p1098
aS'#000000'
p1099
aF11.0
aI0
aI00
aI00
aI00
aI00
aI00
aI00
aI00
aI00
aa(lp1100
I234378
aF281.65322580645164
aF84.217
ag1079
aS'nimbussanl'
p1101
aS'#000000'
p1102
aF11.0
aI0
aI00
aI00
aI00
aI00
aI00
aI00
aI00
aI00
aa(lp1103
I85218
aF305.58172043010757
aF84.217
ag1079
aS'nimbussanl'
p1104
aS'#000000'
p1105
aF11.0
aI0
aI00
aI00
aI00
aI00
aI00
aI00
aI00
aI00
aa(lp1106
I231432
aF321.36720430107533
aF84.217
ag1079
aS'nimbussanl'
p1107
aS'#000000'
p1108
aF11.0
aI0
aI00
aI00
aI00
aI00
aI00
aI00
aI00
aI00
aa(lp1109
I85218
aF348.79516129032265
aF84.217
ag1079
aS'nimbussanl'
p1110
aS'#000000'
p1111
aF11.0
aI0
aI00
aI00
aI00
aI00
aI00
aI00
aI00
aI00
aa(lp1112
I125702
aF377.5806451612904
aF84.217
ag1079
aS'nimbussanl'
p1113
aS'#000000'
p1114
aF11.0
aI0
aI00
aI00
aI00
aI00
aI00
aI00
aI00
aI00
aa(lp1115
I153177
aF408.1516129032259
aF84.217
ag1079
aS'nimbussanl'
p1116
aS'#000000'
p1117
aF11.0
aI0
aI00
aI00
aI00
aI00
aI00
aI00
aI00
aI00
aa(lp1118
I234378
aF457.43655913978506
aF84.217
ag1079
aS'nimbussanl'
p1119
aS'#000000'
p1120
aF11.0
aI0
aI00
aI00
aI00
aI00
aI00
aI00
aI00
aI00
aa(lp1121
I234378
aF43.3
aF97.831
aVp2
p1122
aS'nimbussanl'
p1123
aS'#000000'
p1124
aF11.0
aI1
aI01
aI00
aI00
aI00
aI00
aI00
aI00
aI00
aa(lp1125
I234378
aF73.03916666666666
aF97.831
ag1122
aS'nimbussanl'
p1126
aS'#000000'
p1127
aF11.0
aI1
aI01
aI00
aI00
aI00
aI00
aI00
aI00
aI00
aa(lp1128
I204810
aF79.3
aF112.031
aVp2
p1129
aS'nimbussanl'
p1130
aS'#000000'
p1131
aF11.0
aI1
aI01
aI00
aI00
aI00
aI00
aI00
aI00
aI00
aa(lp1132
I68032
aF118.00575
aF112.031
ag1129
aS'nimbussanl'
p1133
aS'#000000'
p1134
aF11.0
aI1
aI00
aI00
aI00
aI00
aI00
aI00
aI00
aI00
aa(lp1135
I85218
aF178.25764285714286
aF112.031
ag1129
aS'nimbussanl'
p1136
aS'#000000'
p1137
aF11.0
aI1
aI00
aI00
aI00
aI00
aI00
aI00
aI00
aI00
aa(lp1138
I166268
aF195.41725
aF112.031
ag1129
aS'nimbussanl'
p1139
aS'#000000'
p1140
aF11.0
aI1
aI00
aI00
aI00
aI00
aI00
aI00
aI00
aI00
aa(lp1141
I135639
aF255.66914285714284
aF112.031
ag1129
aS'nimbussanl'
p1142
aS'#000000'
p1143
aF11.0
aI1
aI00
aI00
aI00
aI00
aI00
aI00
aI00
aI00
aa(lp1144
I84662
aF267.4422142857143
aF112.031
ag1129
aS'nimbussanl'
p1145
aS'#000000'
p1146
aF11.0
aI1
aI01
aI00
aI00
aI00
aI00
aI00
aI00
aI00
aa(lp1147
I21716
aF289.9883571428571
aF112.031
ag1129
aS'nimbussanl'
p1148
aS'#000000'
p1149
aF11.0
aI1
aI01
aI00
aI00
aI00
aI00
aI00
aI00
aI00
aa(lp1150
I89480
aF312.5345
aF112.031
ag1129
aS'nimbussanl'
p1151
aS'#000000'
p1152
aF11.0
aI1
aI00
aI00
aI00
aI00
aI00
aI00
aI00
aI00
aa(lp1153
I123861
aF324.3075714285714
aF112.031
ag1129
aS'nimbussanl'
p1154
aS'#000000'
p1155
aF11.0
aI1
aI00
aI00
aI00
aI00
aI00
aI00
aI00
aI00
aa(lp1156
I194354
aF346.85371428571426
aF112.031
ag1129
aS'nimbussanl'
p1157
aS'#000000'
p1158
aF11.0
aI1
aI00
aI00
aI00
aI00
aI00
aI00
aI00
aI00
aa(lp1159
I178305
aF364.01332142857143
aF112.031
ag1129
aS'nimbussanl'
p1160
aS'#000000'
p1161
aF11.0
aI1
aI00
aI00
aI00
aI00
aI00
aI00
aI00
aI00
aa(lp1162
I234378
aF402.71907142857145
aF112.031
ag1129
aS'nimbussanl'
p1163
aS'#000000'
p1164
aF11.0
aI1
aI00
aI00
aI00
aI00
aI00
aI00
aI00
aI00
aa(lp1165
I144489
aF468.3575
aF112.031
ag1129
aS'nimbussanl'
p1166
aS'#000000'
p1167
aF11.0
aI1
aI00
aI00
aI00
aI00
aI00
aI00
aI00
aI00
aa(lp1168
I174268
aF79.3
aF126.117
aVp2
p1169
aS'nimbussanl'
p1170
aS'#000000'
p1171
aF11.0
aI0
aI00
aI00
aI00
aI00
aI00
aI00
aI00
aI00
aa(lp1172
I234378
aF117.36694444444444
aF126.117
ag1169
aS'nimbussanl'
p1173
aS'#000000'
p1174
aF11.0
aI0
aI00
aI00
aI00
aI00
aI00
aI00
aI00
aI00
aa(lp1175
I234378
aF165.02444444444444
aF126.117
ag1169
aS'nimbussanl'
p1176
aS'#000000'
p1177
aF11.0
aI0
aI00
aI00
aI00
aI00
aI00
aI00
aI00
aI00
aa(lp1178
I153278
aF79.3
aF139.831
aVp2
p1179
aS'nimbussanl'
p1180
aS'#000000'
p1181
aF11.0
aI1
aI01
aI00
aI00
aI00
aI00
aI00
aI00
aI00
aa(lp1182
I166558
aF96.61110714285714
aF139.831
ag1179
aS'nimbussanl'
p1183
aS'#000000'
p1184
aF11.0
aI1
aI00
aI00
aI00
aI00
aI00
aI00
aI00
aI00
aa(lp1185
I85218
aF141.10739285714286
aF139.831
ag1179
aS'nimbussanl'
p1186
aS'#000000'
p1187
aF11.0
aI1
aI00
aI00
aI00
aI00
aI00
aI00
aI00
aI00
aa(lp1188
I31703
aF158.4185
aF139.831
ag1179
aS'nimbussanl'
p1189
aS'#000000'
p1190
aF11.0
aI1
aI01
aI00
aI00
aI00
aI00
aI00
aI00
aI00
aa(lp1191
I135639
aF188.04071428571427
aF139.831
ag1179
aS'nimbussanl'
p1192
aS'#000000'
p1193
aF11.0
aI1
aI00
aI00
aI00
aI00
aI00
aI00
aI00
aI00
aa(lp1194
I234378
aF203.9147857142857
aF139.831
ag1179
aS'nimbussanl'
p1195
aS'#000000'
p1196
aF11.0
aI1
aI01
aI01
aI00
aI00
aI00
aI00
aI00
aI00
aa(lp1197
I234378
aF220.22589285714284
aF139.831
ag1179
aS'nimbussanl'
p1198
aS'#000000'
p1199
aF11.0
aI1
aI00
aI00
aI00
aI00
aI00
aI00
aI00
aI00
aa(lp1200
I21716
aF226.66292857142855
aF139.831
ag1179
aS'nimbussanl'
p1201
aS'#000000'
p1202
aF11.0
aI1
aI01
aI00
aI00
aI00
aI00
aI00
aI00
aI00
aa(lp1203
I234378
aF249.4110714285714
aF139.831
ag1179
aS'nimbussanl'
p1204
aS'#000000'
p1205
aF11.0
aI1
aI01
aI00
aI00
aI00
aI00
aI00
aI00
aI00
aa(lp1206
I85218
aF256.4703214285714
aF139.831
ag1179
aS'nimbussanl'
p1207
aS'#000000'
p1208
aF11.0
aI1
aI00
aI00
aI00
aI00
aI00
aI00
aI00
aI00
aa(lp1209
I34861
aF305.7814285714286
aF139.831
ag1179
aS'nimbussanl'
p1210
aS'#000000'
p1211
aF11.0
aI1
aI01
aI00
aI00
aI00
aI00
aI00
aI00
aI00
aa(lp1212
I234378
aF338.40364285714287
aF139.831
ag1179
aS'nimbussanl'
p1213
aS'#000000'
p1214
aF11.0
aI1
aI00
aI00
aI00
aI00
aI00
aI00
aI00
aI00
aa(lp1215
I234378
aF79.3
aF153.931
aVp2
p1216
aS'nimbussanl'
p1217
aS'#000000'
p1218
aF11.0
aI1
aI01
aI00
aI00
aI00
aI00
aI00
aI00
aI00
aa(lp1219
I234378
aF140.1036129032258
aF153.931
ag1216
aS'nimbussanl'
p1220
aS'#000000'
p1221
aF11.0
aI1
aI00
aI00
aI00
aI00
aI00
aI00
aI00
aI00
aa(lp1222
I234378
aF205.89086021505375
aF153.931
ag1216
aS'nimbussanl'
p1223
aS'#000000'
p1224
aF11.0
aI1
aI00
aI00
aI00
aI00
aI00
aI00
aI00
aI00
aa(lp1225
I89480
aF243.71083870967743
aF153.931
ag1216
aS'nimbussanl'
p1226
aS'#000000'
p1227
aF11.0
aI1
aI00
aI00
aI00
aI00
aI00
aI00
aI00
aI00
aa(lp1228
I216314
aF272.6781075268817
aF153.931
ag1216
aS'nimbussanl'
p1229
aS'#000000'
p1230
aF11.0
aI1
aI00
aI00
aI00
aI00
aI00
aI00
aI00
aI00
aa(lp1231
I125801
aF308.5635483870968
aF153.931
ag1216
aS'nimbussanl'
p1232
aS'#000000'
p1233
aF11.0
aI1
aI00
aI00
aI00
aI00
aI00
aI00
aI00
aI00
aa(lp1234
I179872
aF334.48172043010754
aF153.931
ag1216
aS'nimbussanl'
p1235
aS'#000000'
p1236
aF11.0
aI1
aI00
aI00
aI00
aI00
aI00
aI00
aI00
aI00
aa(lp1237
I234378
aF355.41625806451617
aF153.931
ag1216
aS'nimbussanl'
p1238
aS'#000000'
p1239
aF11.0
aI1
aI00
aI00
aI00
aI00
aI00
aI00
aI00
aI00
aa(lp1240
I144503
aF401.2689677419355
aF153.931
ag1216
aS'nimbussanl'
p1241
aS'#000000'
p1242
aF11.0
aI1
aI00
aI00
aI00
aI00
aI00
aI00
aI00
aI00
aa(lp1243
I89480
aF359.2362365591398
aF153.931
ag1216
aS'nimbussanl'
p1244
aS'#000000'
p1245
aF11.0
aI1
aI00
aI00
aI00
aI00
aI00
aI00
aI00
aI00
aa(lp1246
I230148
aF423.2035053763441
aF153.931
ag1216
aS'nimbussanl'
p1247
aS'#000000'
p1248
aF11.0
aI1
aI00
aI00
aI00
aI00
aI00
aI00
aI00
aI00
aa(lp1249
I149270
aF454.105311827957
aF153.931
ag1216
aS'nimbussanl'
p1250
aS'#000000'
p1251
aF11.0
aI1
aI00
aI00
aI00
aI00
aI00
aI00
aI00
aI00
aa(lp1252
I74911
aF79.3
aF168.117
aVp2
p1253
aS'nimbussanl'
p1254
aS'#000000'
p1255
aF11.0
aI0
aI00
aI00
aI00
aI00
aI00
aI00
aI00
aI00
aa(lp1256
I234378
aF131.94508333333332
aF168.117
ag1253
aS'nimbussanl'
p1257
aS'#000000'
p1258
aF11.0
aI0
aI00
aI00
aI00
aI00
aI00
aI00
aI00
aI00
aa(lp1259
I166558
aF79.3
aF181.731
aVp2
p1260
aS'nimbussanl'
p1261
aS'#000000'
p1262
aF11.0
aI1
aI01
aI00
aI00
aI00
aI00
aI00
aI00
aI00
aa(lp1263
I144489
aF120.68275324675324
aF181.731
ag1260
aS'nimbussanl'
p1264
aS'#000000'
p1265
aF11.0
aI1
aI00
aI00
aI00
aI00
aI00
aI00
aI00
aI00
aa(lp1266
I234378
aF131.77844155844156
aF181.731
ag1260
aS'nimbussanl'
p1267
aS'#000000'
p1268
aF11.0
aI1
aI00
aI00
aI00
aI00
aI00
aI00
aI00
aI00
aa(lp1269
I234378
aF147.921974025974
aF181.731
ag1260
aS'nimbussanl'
p1270
aS'#000000'
p1271
aF11.0
aI1
aI00
aI00
aI00
aI00
aI00
aI00
aI00
aI00
aa(lp1272
I131049
aF184.2568831168831
aF181.731
ag1260
aS'nimbussanl'
p1273
aS'#000000'
p1274
aF11.0
aI1
aI00
aI00
aI00
aI00
aI00
aI00
aI00
aI00
aa(lp1275
I19147
aF205.44825974025972
aF181.731
ag1260
aS'nimbussanl'
p1276
aS'#000000'
p1277
aF11.0
aI1
aI00
aI00
aI00
aI00
aI00
aI00
aI00
aI00
aa(lp1278
I234378
aF256.9267012987013
aF181.731
ag1260
aS'nimbussanl'
p1279
aS'#000000'
p1280
aF11.0
aI1
aI00
aI00
aI00
aI00
aI00
aI00
aI00
aI00
aa(lp1281
I190806
aF283.16592207792206
aF181.731
ag1260
aS'nimbussanl'
p1282
aS'#000000'
p1283
aF11.0
aI1
aI00
aI00
aI00
aI00
aI00
aI00
aI00
aI00
aa(lp1284
I104512
aF299.3094545454545
aF181.731
ag1260
aS'nimbussanl'
p1285
aS'#000000'
p1286
aF11.0
aI1
aI00
aI00
aI00
aI00
aI00
aI00
aI00
aI00
aa(lp1287
I77716
aF315.45298701298697
aF181.731
ag1260
aS'nimbussanl'
p1288
aS'#000000'
p1289
aF11.0
aI1
aI00
aI00
aI00
aI00
aI00
aI00
aI00
aI00
aa(lp1290
I169745
aF382.07496103896096
aF181.731
ag1260
aS'nimbussanl'
p1291
aS'#000000'
p1292
aF11.0
aI1
aI00
aI00
aI00
aI00
aI00
aI00
aI00
aI00
aa(lp1293
I234378
aF403.2663376623376
aF181.731
ag1260
aS'nimbussanl'
p1294
aS'#000000'
p1295
aF11.0
aI1
aI01
aI01
aI00
aI00
aI00
aI00
aI00
aI00
aa(lp1296
I234378
aF418.40987012987006
aF181.731
ag1260
aS'nimbussanl'
p1297
aS'#000000'
p1298
aF11.0
aI1
aI00
aI00
aI00
aI00
aI00
aI00
aI00
aI00
aa(lp1299
I21716
aF79.3
aF196.217
aVp2
p1300
aS'nimbussanl'
p1301
aS'#000000'
p1302
aF11.0
aI0
aI01
aI00
aI00
aI00
aI00
aI00
aI00
aI00
aa(lp1303
I221291
aF100.95037209302325
aF196.217
ag1300
aS'nimbussanl'
p1304
aS'#000000'
p1305
aF11.0
aI0
aI01
aI00
aI00
aI00
aI00
aI00
aI00
aI00
aa(lp1306
I166558
aF122.60074418604651
aF196.217
ag1300
aS'nimbussanl'
p1307
aS'#000000'
p1308
aF11.0
aI0
aI00
aI00
aI00
aI00
aI00
aI00
aI00
aI00
aa(lp1309
I89480
aF164.901488372093
aF196.217
ag1300
aS'nimbussanl'
p1310
aS'#000000'
p1311
aF11.0
aI0
aI00
aI00
aI00
aI00
aI00
aI00
aI00
aI00
aa(lp1312
I143306
aF176.22667441860463
aF196.217
ag1300
aS'nimbussanl'
p1313
aS'#000000'
p1314
aF11.0
aI0
aI00
aI00
aI00
aI00
aI00
aI00
aI00
aI00
aa(lp1315
I184171
aF213.36482558139534
aF196.217
ag1300
aS'nimbussanl'
p1316
aS'#000000'
p1317
aF11.0
aI0
aI00
aI00
aI00
aI00
aI00
aI00
aI00
aI00
aa(lp1318
I144489
aF271.1533488372093
aF196.217
ag1300
aS'nimbussanl'
p1319
aS'#000000'
p1320
aF11.0
aI0
aI00
aI00
aI00
aI00
aI00
aI00
aI00
aI00
aa(lp1321
I34356
aF282.47853488372095
aF196.217
ag1300
aS'nimbussanl'
p1322
aS'#000000'
p1323
aF11.0
aI0
aI00
aI00
aI00
aI00
aI00
aI00
aI00
aI00
aa(lp1324
I234378
aF309.29150000000004
aF196.217
ag1300
aS'nimbussanl'
p1325
aS'#000000'
p1326
aF11.0
aI0
aI00
aI00
aI00
aI00
aI00
aI00
aI00
aI00
aa(lp1327
I85218
aF361.9174302325582
aF196.217
ag1300
aS'nimbussanl'
p1328
aS'#000000'
p1329
aF11.0
aI0
aI00
aI00
aI00
aI00
aI00
aI00
aI00
aI00
aa(lp1330
I234378
aF378.40520930232566
aF196.217
ag1300
aS'nimbussanl'
p1331
aS'#000000'
p1332
aF11.0
aI0
aI00
aI00
aI00
aI00
aI00
aI00
aI00
aI00
aa(lp1333
I52573
aF415.54336046511634
aF196.217
ag1300
aS'nimbussanl'
p1334
aS'#000000'
p1335
aF11.0
aI0
aI00
aI00
aI00
aI00
aI00
aI00
aI00
aI00
aa(lp1336
I234378
aF447.5189186046512
aF196.217
ag1300
aS'nimbussanl'
p1337
aS'#000000'
p1338
aF11.0
aI0
aI00
aI00
aI00
aI00
aI00
aI00
aI00
aI00
aa(lp1339
I117435
aF79.3
aF210.031
aVp2
p1340
aS'nimbussanl'
p1341
aS'#000000'
p1342
aF11.0
aI1
aI01
aI00
aI00
aI00
aI00
aI00
aI00
aI00
aa(lp1343
I110092
aF126.91140909090909
aF210.031
ag1340
aS'nimbussanl'
p1344
aS'#000000'
p1345
aF11.0
aI1
aI00
aI00
aI00
aI00
aI00
aI00
aI00
aI00
aa(lp1346
I120066
aF158.98568181818183
aF210.031
ag1340
aS'nimbussanl'
p1347
aS'#000000'
p1348
aF11.0
aI1
aI00
aI00
aI00
aI00
aI00
aI00
aI00
aI00
aa(lp1349
I190806
aF206.59709090909092
aF210.031
ag1340
aS'nimbussanl'
p1350
aS'#000000'
p1351
aF11.0
aI1
aI00
aI00
aI00
aI00
aI00
aI00
aI00
aI00
aa(lp1352
I110092
aF202.1342272727273
aF210.031
ag1340
aS'nimbussanl'
p1353
aS'#000000'
p1354
aF11.0
aI1
aI00
aI00
aI00
aI00
aI00
aI00
aI00
aI00
aa(lp1355
I184171
aF255.20850000000002
aF210.031
ag1340
aS'nimbussanl'
p1356
aS'#000000'
p1357
aF11.0
aI1
aI00
aI00
aI00
aI00
aI00
aI00
aI00
aI00
aa(lp1358
I212148
aF313.178
aF210.031
ag1340
aS'nimbussanl'
p1359
aS'#000000'
p1360
aF11.0
aI1
aI00
aI00
aI00
aI00
aI00
aI00
aI00
aI00
aa(lp1361
I34356
aF340.07322727272725
aF210.031
ag1340
aS'nimbussanl'
p1362
aS'#000000'
p1363
aF11.0
aI1
aI00
aI00
aI00
aI00
aI00
aI00
aI00
aI00
aa(lp1364
I104859
aF366.9684545454545
aF210.031
ag1340
aS'nimbussanl'
p1365
aS'#000000'
p1366
aF11.0
aI1
aI00
aI00
aI00
aI00
aI00
aI00
aI00
aI00
aa(lp1367
I234378
aF79.3
aF224.231
aVp2
p1368
aS'nimbussanl'
p1369
aS'#000000'
p1370
aF11.0
aI1
aI01
aI00
aI00
aI00
aI00
aI00
aI00
aI00
aa(lp1371
I80364
aF131.204
aF224.231
ag1368
aS'nimbussanl'
p1372
aS'#000000'
p1373
aF11.0
aI1
aI00
aI00
aI00
aI00
aI00
aI00
aI00
aI00
aa(lp1374
I234378
aF149.172
aF224.231
ag1368
aS'nimbussanl'
p1375
aS'#000000'
p1376
aF11.0
aI1
aI00
aI00
aI00
aI00
aI00
aI00
aI00
aI00
aa(lp1377
I234378
aF200.076
aF224.231
ag1368
aS'nimbussanl'
p1378
aS'#000000'
p1379
aF11.0
aI1
aI00
aI00
aI00
aI00
aI00
aI00
aI00
aI00
aa(lp1380
I195166
aF339.5
aF275.012
aVp2
p1381
aS'nimbusromno9l'
p1382
aS'#000000'
p1383
aF12.0
aI0
aI01
aI00
aI00
aI00
aI00
aI00
aI00
aI00
aa(lp1384
I21716
aF77.9
aF275.012
aVp2
p1385
aS'nimbusromno9l'
p1386
aS'#000000'
p1387
aF12.0
aI0
aI01
aI00
aI00
aI00
aI00
aI00
aI00
aI00
aa(lp1388
I234378
aF339.5
aF289.912
aVp2
p1389
aS'nimbusromno9l'
p1390
aS'#000000'
p1391
aF12.0
aI0
aI01
aI00
aI00
aI00
aI00
aI00
aI00
aI00
aa(lp1392
I234378
aF77.9
aF289.912
aVp2
p1393
aS'nimbusromno9l'
p1394
aS'#000000'
p1395
aF12.0
aI0
aI01
aI00
aI00
aI00
aI00
aI00
aI00
aI00
aa(lp1396
I234378
aF339.5
aF304.912
aVp2
p1397
aS'nimbusromno9l'
p1398
aS'#000000'
p1399
aF12.0
aI0
aI01
aI00
aI00
aI00
aI00
aI00
aI00
aI00
aa(lp1400
I223319
aF77.9
aF304.912
aVp2
p1401
aS'nimbusromno9l'
p1402
aS'#000000'
p1403
aF12.0
aI0
aI01
aI00
aI00
aI00
aI00
aI00
aI00
aI00
aa(lp1404
I234378
aF112.57476923076923
aF304.912
ag1401
aS'nimbusromno9l'
p1405
aS'#000000'
p1406
aF12.0
aI0
aI00
aI00
aI00
aI00
aI00
aI00
aI00
aI00
aa(lp1407
I234378
aF118.52830769230769
aF304.912
ag1401
aS'nimbusromno9l'
p1408
aS'#000000'
p1409
aF12.0
aI0
aI01
aI00
aI00
aI00
aI00
aI00
aI00
aI00
aa(lp1410
I234378
aF148.15661538461538
aF304.912
ag1401
aS'nimbusromno9l'
p1411
aS'#000000'
p1412
aF12.0
aI0
aI00
aI00
aI00
aI00
aI00
aI00
aI00
aI00
aa(lp1413
I156867
aF164.11015384615385
aF304.912
ag1401
aS'nimbusromno9l'
p1414
aS'#000000'
p1415
aF12.0
aI0
aI01
aI00
aI00
aI00
aI00
aI00
aI00
aI00
aa(lp1416
I234378
aF183.73846153846154
aF304.912
ag1401
aS'nimbusromno9l'
p1417
aS'#000000'
p1418
aF12.0
aI0
aI00
aI00
aI00
aI00
aI00
aI00
aI00
aI00
aa(lp1419
I234378
aF209.692
aF304.912
ag1401
aS'nimbusromno9l'
p1420
aS'#000000'
p1421
aF12.0
aI0
aI01
aI00
aI00
aI00
aI00
aI00
aI00
aI00
aa(lp1422
I82213
aF339.5
aF319.812
aVp2
p1423
aS'nimbusromno9l'
p1424
aS'#000000'
p1425
aF12.0
aI0
aI01
aI00
aI00
aI00
aI00
aI00
aI00
aI00
aa(lp1426
I207716
aF388.992
aF319.812
ag1423
aS'nimbusromno9l'
p1427
aS'#000000'
p1428
aF12.0
aI0
aI01
aI00
aI00
aI00
aI00
aI00
aI00
aI00
aa(lp1429
I234378
aF77.9
aF319.812
aVp2
p1430
aS'nimbusromno9l'
p1431
aS'#000000'
p1432
aF12.0
aI0
aI01
aI00
aI00
aI00
aI00
aI00
aI00
aI00
aa(lp1433
I234378
aF114.39617391304348
aF319.812
ag1430
aS'nimbusromno9l'
p1434
aS'#000000'
p1435
aF12.0
aI0
aI00
aI00
aI00
aI00
aI00
aI00
aI00
aI00
aa(lp1436
I234378
aF120.60991304347827
aF319.812
ag1430
aS'nimbusromno9l'
p1437
aS'#000000'
p1438
aF12.0
aI0
aI01
aI00
aI00
aI00
aI00
aI00
aI00
aI00
aa(lp1439
I234378
aF139.67860869565217
aF319.812
ag1430
aS'nimbusromno9l'
p1440
aS'#000000'
p1441
aF12.0
aI0
aI00
aI00
aI00
aI00
aI00
aI00
aI00
aI00
aa(lp1442
I234378
aF152.89234782608696
aF319.812
ag1430
aS'nimbusromno9l'
p1443
aS'#000000'
p1444
aF12.0
aI0
aI01
aI00
aI00
aI00
aI00
aI00
aI00
aI00
aa(lp1445
I55966
aF43.3
aF358.852
aVp2
p1446
aS'nimbussanl'
p1447
aS'#00007f'
p1448
aF12.0
aI1
aI01
aI00
aI00
aI00
aI00
aI00
aI00
aI00
aa(lp1449
I132100
aF82.39318918918919
aF358.852
ag1446
aS'nimbussanl'
p1450
aS'#00007f'
p1451
aF12.0
aI1
aI01
aI00
aI00
aI00
aI00
aI00
aI00
aI00
aa(lp1452
I234378
aF135.1841081081081
aF358.852
ag1446
aS'nimbussanl'
p1453
aS'#00007f'
p1454
aF12.0
aI1
aI01
aI01
aI00
aI00
aI00
aI00
aI00
aI00
aa(lp1455
I234378
aF155.23070270270267
aF358.852
ag1446
aS'nimbussanl'
p1456
aS'#00007f'
p1457
aF12.0
aI1
aI01
aI00
aI00
aI00
aI00
aI00
aI00
aI00
aa(lp1458
I68032
aF219.71935135135132
aF358.852
ag1446
aS'nimbussanl'
p1459
aS'#00007f'
p1460
aF12.0
aI1
aI00
aI00
aI00
aI00
aI00
aI00
aI00
aI00
aa(lp1461
I35885
aF290.55686486486485
aF358.852
ag1446
aS'nimbussanl'
p1462
aS'#00007f'
p1463
aF12.0
aI1
aI00
aI00
aI00
aI00
aI00
aI00
aI00
aI00
aa(lp1464
I144483
aF323.3011891891892
aF358.852
ag1446
aS'nimbussanl'
p1465
aS'#00007f'
p1466
aF12.0
aI1
aI00
aI00
aI00
aI00
aI00
aI00
aI00
aI00
aa(lp1467
I234378
aF336.9989189189189
aF358.852
ag1446
aS'nimbussanl'
p1468
aS'#00007f'
p1469
aF12.0
aI1
aI01
aI01
aI00
aI00
aI00
aI00
aI00
aI00
aa(lp1470
I234378
aF362.39437837837835
aF358.852
ag1446
aS'nimbussanl'
p1471
aS'#00007f'
p1472
aF12.0
aI1
aI00
aI00
aI00
aI00
aI00
aI00
aI00
aI00
aa(lp1473
I234378
aF368.7432432432432
aF358.852
ag1446
aS'nimbussanl'
p1474
aS'#00007f'
p1475
aF12.0
aI1
aI01
aI01
aI00
aI00
aI00
aI00
aI00
aI00
aa(lp1476
I154254
aF388.7898378378378
aF358.852
ag1446
aS'nimbussanl'
p1477
aS'#00007f'
p1478
aF12.0
aI1
aI01
aI00
aI00
aI00
aI00
aI00
aI00
aI00
aa(lp1479
I234378
aF43.3
aF374.317
aVp2
p1480
aS'nimbussanl'
p1481
aS'#00007f'
p1482
aF11.0
aI0
aI01
aI00
aI00
aI00
aI00
aI00
aI00
aI00
aa(lp1483
I234378
aF88.32453846153845
aF374.317
ag1480
aS'nimbussanl'
p1484
aS'#00007f'
p1485
aF11.0
aI0
aI01
aI00
aI00
aI00
aI00
aI00
aI00
aI00
aa(lp1486
I234378
aF43.3
aF388.031
aVp2
p1487
aS'nimbussanl'
p1488
aS'#000000'
p1489
aF11.0
aI1
aI01
aI00
aI00
aI00
aI00
aI00
aI00
aI01
aa(lp1490
I234378
aF60.473749999999995
aF388.031
ag1487
aS'nimbussanl'
p1491
aS'#000000'
p1492
aF11.0
aI1
aI00
aI00
aI01
aI01
aI01
aI00
aI00
aI00
aa(lp1493
I234378
aF85.03875
aF388.031
ag1487
aS'nimbussanl'
p1494
aS'#000000'
p1495
aF11.0
aI1
aI01
aI00
aI00
aI00
aI00
aI00
aI00
aI01
aa(lp1496
I234378
aF102.21249999999999
aF388.031
ag1487
aS'nimbussanl'
p1497
aS'#000000'
p1498
aF11.0
aI1
aI00
aI00
aI01
aI01
aI01
aI00
aI00
aI00
aa(lp1499
I234378
aF126.77749999999999
aF388.031
ag1487
aS'nimbussanl'
p1500
aS'#000000'
p1501
aF11.0
aI1
aI01
aI00
aI00
aI00
aI00
aI00
aI00
aI00
aa(lp1502
I234378
aF183.69
aF388.031
ag1487
aS'nimbussanl'
p1503
aS'#000000'
p1504
aF11.0
aI1
aI01
aI00
aI00
aI00
aI00
aI00
aI00
aI00
aa(lp1505
I177958
aF79.3
aF414.517
aVp2
p1506
aS'nimbussanl'
p1507
aS'#000000'
p1508
aF11.0
aI0
aI01
aI00
aI00
aI00
aI00
aI00
aI00
aI00
aa(lp1509
I205671
aF115.26048387096773
aF414.517
ag1506
aS'nimbussanl'
p1510
aS'#000000'
p1511
aF11.0
aI0
aI01
aI00
aI00
aI00
aI00
aI00
aI00
aI00
aa(lp1512
I234378
aF141.23225806451612
aF414.517
ag1506
aS'nimbussanl'
p1513
aS'#000000'
p1514
aF11.0
aI0
aI00
aI00
aI00
aI00
aI00
aI00
aI00
aI00
aa(lp1515
I68032
aF182.18709677419355
aF414.517
ag1506
aS'nimbussanl'
p1516
aS'#000000'
p1517
aF11.0
aI0
aI01
aI00
aI00
aI00
aI00
aI00
aI00
aI00
aa(lp1518
I144489
aF238.125
aF414.517
ag1506
aS'nimbussanl'
p1519
aS'#000000'
p1520
aF11.0
aI0
aI00
aI00
aI00
aI00
aI00
aI00
aI00
aI00
aa(lp1521
I114954
aF249.11370967741937
aF414.517
ag1506
aS'nimbussanl'
p1522
aS'#000000'
p1523
aF11.0
aI0
aI00
aI00
aI00
aI00
aI00
aI00
aI00
aI00
aa(lp1524
I211167
aF290.06854838709677
aF414.517
ag1506
aS'nimbussanl'
p1525
aS'#000000'
p1526
aF11.0
aI0
aI01
aI00
aI00
aI00
aI00
aI00
aI00
aI00
aa(lp1527
I200115
aF311.0459677419355
aF414.517
ag1506
aS'nimbussanl'
p1528
aS'#000000'
p1529
aF11.0
aI0
aI00
aI00
aI00
aI00
aI00
aI00
aI00
aI00
aa(lp1530
I234378
aF371.97822580645163
aF414.517
ag1506
aS'nimbussanl'
p1531
aS'#000000'
p1532
aF11.0
aI0
aI01
aI00
aI00
aI00
aI00
aI00
aI00
aI00
aa(lp1533
I10716
aF432.91048387096777
aF414.517
ag1506
aS'nimbussanl'
p1534
aS'#000000'
p1535
aF11.0
aI0
aI00
aI00
aI00
aI00
aI00
aI00
aI00
aI00
aa(lp1536
I82416
aF453.8879032258065
aF414.517
ag1506
aS'nimbussanl'
p1537
aS'#000000'
p1538
aF11.0
aI0
aI01
aI00
aI00
aI00
aI00
aI00
aI00
aI00
aa(lp1539
I234378
aF498.8370967741936
aF414.517
ag1506
aS'nimbussanl'
p1540
aS'#000000'
p1541
aF11.0
aI0
aI00
aI00
aI00
aI00
aI00
aI00
aI00
aI00
aa(lp1542
I234378
aF79.3
aF428.317
aVp2
p1543
aS'nimbussanl'
p1544
aS'#000000'
p1545
aF11.0
aI0
aI01
aI01
aI00
aI00
aI00
aI00
aI00
aI00
aa(lp1546
I234378
aF94.95824615384615
aF428.317
ag1543
aS'nimbussanl'
p1547
aS'#000000'
p1548
aF11.0
aI0
aI00
aI00
aI00
aI00
aI00
aI00
aI00
aI00
aa(lp1549
I169566
aF101.17766153846154
aF428.317
ag1543
aS'nimbussanl'
p1550
aS'#000000'
p1551
aF11.0
aI0
aI01
aI00
aI00
aI00
aI00
aI00
aI00
aI00
aa(lp1552
I194002
aF138.71356923076922
aF428.317
ag1543
aS'nimbussanl'
p1553
aS'#000000'
p1554
aF11.0
aI0
aI01
aI00
aI00
aI00
aI00
aI00
aI00
aI00
aa(lp1555
I234378
aF145.59123076923078
aF428.317
ag1543
aS'nimbussanl'
p1556
aS'#000000'
p1557
aF11.0
aI0
aI00
aI00
aI00
aI00
aI00
aI00
aI00
aI00
aa(lp1558
I169566
aF151.81064615384616
aF428.317
ag1543
aS'nimbussanl'
p1559
aS'#000000'
p1560
aF11.0
aI0
aI01
aI00
aI00
aI00
aI00
aI00
aI00
aI00
aa(lp1561
I234378
aF203.34655384615385
aF428.317
ag1543
aS'nimbussanl'
p1562
aS'#000000'
p1563
aF11.0
aI0
aI01
aI00
aI00
aI00
aI00
aI00
aI00
aI00
aa(lp1564
I234378
aF196.22421538461538
aF428.317
ag1543
aS'nimbussanl'
p1565
aS'#000000'
p1566
aF11.0
aI0
aI00
aI00
aI00
aI00
aI00
aI00
aI00
aI00
aa(lp1567
I116999
aF230.44363076923077
aF428.317
ag1543
aS'nimbussanl'
p1568
aS'#000000'
p1569
aF11.0
aI0
aI01
aI00
aI00
aI00
aI00
aI00
aI00
aI00
aa(lp1570
I234378
aF262.7601230769231
aF428.317
ag1543
aS'nimbussanl'
p1571
aS'#000000'
p1572
aF11.0
aI0
aI01
aI00
aI00
aI00
aI00
aI00
aI00
aI00
aa(lp1573
I234378
aF267.9542769230769
aF428.317
ag1543
aS'nimbussanl'
p1574
aS'#000000'
p1575
aF11.0
aI0
aI00
aI00
aI00
aI00
aI00
aI00
aI00
aI00
aa(lp1576
I234378
aF321.1736923076923
aF428.317
ag1543
aS'nimbussanl'
p1577
aS'#000000'
p1578
aF11.0
aI0
aI01
aI01
aI00
aI00
aI00
aI00
aI00
aI00
aa(lp1579
I15045
aF337.83193846153847
aF428.317
ag1543
aS'nimbussanl'
p1580
aS'#000000'
p1581
aF11.0
aI0
aI01
aI00
aI00
aI00
aI00
aI00
aI00
aI00
aa(lp1582
I234378
aF359.7096
aF428.317
ag1543
aS'nimbussanl'
p1583
aS'#000000'
p1584
aF11.0
aI0
aI00
aI00
aI00
aI00
aI00
aI00
aI00
aI00
aa(lp1585
I234378
aF375.3678461538462
aF428.317
ag1543
aS'nimbussanl'
p1586
aS'#000000'
p1587
aF11.0
aI0
aI00
aI00
aI00
aI00
aI00
aI00
aI00
aI00
aa(lp1588
I234378
aF79.3
aF442.317
aVp2
p1589
aS'nimbussanl'
p1590
aS'#000000'
p1591
aF11.0
aI0
aI01
aI00
aI00
aI00
aI00
aI00
aI00
aI00
aa(lp1592
I130950
aF160.0991489361702
aF442.317
ag1589
aS'nimbussanl'
p1593
aS'#000000'
p1594
aF11.0
aI0
aI00
aI00
aI00
aI00
aI00
aI00
aI00
aI00
aa(lp1595
I203832
aF196.01127659574468
aF442.317
ag1589
aS'nimbussanl'
p1596
aS'#000000'
p1597
aF11.0
aI0
aI00
aI00
aI00
aI00
aI00
aI00
aI00
aI00
aa(lp1598
I12459
aF211.9736170212766
aF442.317
ag1589
aS'nimbussanl'
p1599
aS'#000000'
p1600
aF11.0
aI0
aI00
aI00
aI00
aI00
aI00
aI00
aI00
aI00
aa(lp1601
I166558
aF232.92340425531916
aF442.317
ag1589
aS'nimbussanl'
p1602
aS'#000000'
p1603
aF11.0
aI0
aI00
aI00
aI00
aI00
aI00
aI00
aI00
aI00
aa(lp1604
I234378
aF273.8229787234043
aF442.317
ag1589
aS'nimbussanl'
p1605
aS'#000000'
p1606
aF11.0
aI0
aI00
aI00
aI00
aI00
aI00
aI00
aI00
aI00
aa(lp1607
I144690
aF279.8104255319149
aF442.317
ag1589
aS'nimbussanl'
p1608
aS'#000000'
p1609
aF11.0
aI0
aI00
aI00
aI00
aI00
aI00
aI00
aI00
aI00
aa(lp1610
I85218
aF310.73510638297876
aF442.317
ag1589
aS'nimbussanl'
p1611
aS'#000000'
p1612
aF11.0
aI0
aI00
aI00
aI00
aI00
aI00
aI00
aI00
aI00
aa(lp1613
I68032
aF326.6974468085107
aF442.317
ag1589
aS'nimbussanl'
p1614
aS'#000000'
p1615
aF11.0
aI0
aI00
aI00
aI00
aI00
aI00
aI00
aI00
aI00
aa(lp1616
I144489
aF382.5593617021277
aF442.317
ag1589
aS'nimbussanl'
p1617
aS'#000000'
p1618
aF11.0
aI0
aI00
aI00
aI00
aI00
aI00
aI00
aI00
aI00
aa(lp1619
I232734
aF393.534255319149
aF442.317
ag1589
aS'nimbussanl'
p1620
aS'#000000'
p1621
aF11.0
aI0
aI00
aI00
aI00
aI00
aI00
aI00
aI00
aI00
aa(lp1622
I169566
aF424.45893617021284
aF442.317
ag1589
aS'nimbussanl'
p1623
aS'#000000'
p1624
aF11.0
aI0
aI00
aI00
aI00
aI00
aI00
aI00
aI00
aI00
aa(lp1625
I131049
aF460.3710638297873
aF442.317
ag1589
aS'nimbussanl'
p1626
aS'#000000'
p1627
aF11.0
aI0
aI00
aI00
aI00
aI00
aI00
aI00
aI00
aI00
aa(lp1628
I234378
aF481.3208510638299
aF442.317
ag1589
aS'nimbussanl'
p1629
aS'#000000'
p1630
aF11.0
aI0
aI01
aI01
aI00
aI00
aI00
aI00
aI00
aI00
aa(lp1631
I234378
aF79.3
aF456.417
aVp2
p1632
aS'nimbussanl'
p1633
aS'#000000'
p1634
aF11.0
aI0
aI01
aI00
aI00
aI00
aI00
aI00
aI00
aI00
aa(lp1635
I144489
aF115.30298876404494
aF456.417
ag1632
aS'nimbussanl'
p1636
aS'#000000'
p1637
aF11.0
aI0
aI00
aI00
aI00
aI00
aI00
aI00
aI00
aI00
aa(lp1638
I140882
aF126.3038426966292
aF456.417
ag1632
aS'nimbussanl'
p1639
aS'#000000'
p1640
aF11.0
aI0
aI00
aI00
aI00
aI00
aI00
aI00
aI00
aI00
aa(lp1641
I226160
aF157.306404494382
aF456.417
ag1632
aS'nimbussanl'
p1642
aS'#000000'
p1643
aF11.0
aI0
aI00
aI00
aI00
aI00
aI00
aI00
aI00
aI00
aa(lp1644
I46177
aF193.30939325842695
aF456.417
ag1632
aS'nimbussanl'
p1645
aS'#000000'
p1646
aF11.0
aI0
aI00
aI00
aI00
aI00
aI00
aI00
aI00
aI00
aa(lp1647
I140548
aF219.31152808988762
aF456.417
ag1632
aS'nimbussanl'
p1648
aS'#000000'
p1649
aF11.0
aI0
aI00
aI00
aI00
aI00
aI00
aI00
aI00
aI00
aa(lp1650
I89480
aF265.31537078651684
aF456.417
ag1632
aS'nimbussanl'
p1651
aS'#000000'
p1652
aF11.0
aI0
aI00
aI00
aI00
aI00
aI00
aI00
aI00
aI00
aa(lp1653
I194354
aF276.3162247191011
aF456.417
ag1632
aS'nimbussanl'
p1654
aS'#000000'
p1655
aF11.0
aI0
aI00
aI00
aI00
aI00
aI00
aI00
aI00
aI00
aa(lp1656
I234378
aF292.31750561797753
aF456.417
ag1632
aS'nimbussanl'
p1657
aS'#000000'
p1658
aF11.0
aI0
aI01
aI01
aI00
aI00
aI00
aI00
aI00
aI00
aa(lp1659
I79642
aF308.31878651685395
aF456.417
ag1632
aS'nimbussanl'
p1660
aS'#000000'
p1661
aF11.0
aI0
aI00
aI00
aI00
aI00
aI00
aI00
aI00
aI00
aa(lp1662
I85218
aF329.3204943820225
aF456.417
ag1632
aS'nimbussanl'
p1663
aS'#000000'
p1664
aF11.0
aI0
aI00
aI00
aI00
aI00
aI00
aI00
aI00
aI00
aa(lp1665
I234378
aF345.3217752808989
aF456.417
ag1632
aS'nimbussanl'
p1666
aS'#000000'
p1667
aF11.0
aI0
aI00
aI00
aI00
aI00
aI00
aI00
aI00
aI00
aa(lp1668
I194354
aF364.32561797752817
aF456.417
ag1632
aS'nimbussanl'
p1669
aS'#000000'
p1670
aF11.0
aI0
aI00
aI00
aI00
aI00
aI00
aI00
aI00
aI00
aa(lp1671
I234378
aF407.3268988764046
aF456.417
ag1632
aS'nimbussanl'
p1672
aS'#000000'
p1673
aF11.0
aI0
aI00
aI00
aI00
aI00
aI00
aI00
aI00
aI00
aa(lp1674
I89480
aF397.3294606741574
aF456.417
ag1632
aS'nimbussanl'
p1675
aS'#000000'
p1676
aF11.0
aI0
aI00
aI00
aI00
aI00
aI00
aI00
aI00
aI00
aa(lp1677
I194354
aF408.3303146067417
aF456.417
ag1632
aS'nimbussanl'
p1678
aS'#000000'
p1679
aF11.0
aI0
aI00
aI00
aI00
aI00
aI00
aI00
aI00
aI00
aa(lp1680
I174268
aF79.3
aF470.617
aVp2
p1681
aS'nimbussanl'
p1682
aS'#000000'
p1683
aF11.0
aI0
aI00
aI00
aI00
aI00
aI00
aI00
aI00
aI00
aa(lp1684
I234378
aF114.19475675675676
aF470.617
ag1681
aS'nimbussanl'
p1685
aS'#000000'
p1686
aF11.0
aI0
aI00
aI00
aI00
aI00
aI00
aI00
aI00
aI00
aa(lp1687
I151713
aF153.93162162162162
aF470.617
ag1681
aS'nimbussanl'
p1688
aS'#000000'
p1689
aF11.0
aI0
aI00
aI00
aI00
aI00
aI00
aI00
aI00
aI00
aa(lp1690
I89480
aF198.51059459459458
aF470.617
ag1681
aS'nimbussanl'
p1691
aS'#000000'
p1692
aF11.0
aI0
aI00
aI00
aI00
aI00
aI00
aI00
aI00
aI00
aa(lp1693
I234378
aF209.1948108108108
aF470.617
ag1681
aS'nimbussanl'
p1694
aS'#000000'
p1695
aF11.0
aI0
aI00
aI00
aI00
aI00
aI00
aI00
aI00
aI00
aa(lp1696
I234378
aF238.24745945945944
aF470.617
ag1681
aS'nimbussanl'
p1697
aS'#000000'
p1698
aF11.0
aI0
aI00
aI00
aI00
aI00
aI00
aI00
aI00
aI00
aa(lp1699
I16475
aF79.3
aF484.717
aVp2
p1700
aS'nimbussanl'
p1701
aS'#000000'
p1702
aF11.0
aI0
aI01
aI00
aI00
aI00
aI00
aI00
aI00
aI00
aa(lp1703
I125078
aF133.38039215686274
aF484.717
ag1700
aS'nimbussanl'
p1704
aS'#000000'
p1705
aF11.0
aI0
aI00
aI00
aI00
aI00
aI00
aI00
aI00
aI00
aa(lp1706
I169745
aF171.53666666666666
aF484.717
ag1700
aS'nimbussanl'
p1707
aS'#000000'
p1708
aF11.0
aI0
aI00
aI00
aI00
aI00
aI00
aI00
aI00
aI00
aa(lp1709
I234378
aF193.76882352941175
aF484.717
ag1700
aS'nimbussanl'
p1710
aS'#000000'
p1711
aF11.0
aI0
aI01
aI01
aI00
aI00
aI00
aI00
aI00
aI00
aa(lp1712
I102717
aF216.00098039215683
aF484.717
ag1700
aS'nimbussanl'
p1713
aS'#000000'
p1714
aF11.0
aI0
aI01
aI01
aI00
aI00
aI00
aI00
aI00
aI00
aa(lp1715
I85218
aF232.92509803921564
aF484.717
ag1700
aS'nimbussanl'
p1716
aS'#000000'
p1717
aF11.0
aI0
aI00
aI00
aI00
aI00
aI00
aI00
aI00
aI00
aa(lp1718
I234378
aF249.84921568627448
aF484.717
ag1700
aS'nimbussanl'
p1719
aS'#000000'
p1720
aF11.0
aI0
aI01
aI01
aI00
aI00
aI00
aI00
aI00
aI00
aa(lp1721
I121847
aF236.7733333333333
aF484.717
ag1700
aS'nimbussanl'
p1722
aS'#000000'
p1723
aF11.0
aI0
aI00
aI00
aI00
aI00
aI00
aI00
aI00
aI00
aa(lp1724
I35425
aF289.0054901960784
aF484.717
ag1700
aS'nimbussanl'
p1725
aS'#000000'
p1726
aF11.0
aI0
aI00
aI00
aI00
aI00
aI00
aI00
aI00
aI00
aa(lp1727
I195166
aF339.5
aF499.112
aVp2
p1728
aS'nimbusromno9l'
p1729
aS'#000000'
p1730
aF12.0
aI0
aI01
aI00
aI00
aI00
aI00
aI00
aI00
aI00
aa(lp1731
I21716
aF77.9
aF499.112
aVp2
p1732
aS'nimbusromno9l'
p1733
aS'#000000'
p1734
aF12.0
aI0
aI01
aI00
aI00
aI00
aI00
aI00
aI00
aI00
aa(lp1735
I234378
aF102.09200000000001
aF499.112
ag1732
aS'nimbusromno9l'
p1736
aS'#000000'
p1737
aF12.0
aI0
aI00
aI00
aI00
aI00
aI00
aI00
aI00
aI00
aa(lp1738
I234378
aF109.14000000000001
aF499.112
ag1732
aS'nimbusromno9l'
p1739
aS'#000000'
p1740
aF12.0
aI0
aI01
aI01
aI01
aI00
aI00
aI00
aI00
aI00
aa(lp1741
I234378
aF134.33200000000002
aF499.112
ag1732
aS'nimbusromno9l'
p1742
aS'#000000'
p1743
aF12.0
aI0
aI01
aI01
aI00
aI00
aI00
aI00
aI00
aI00
aa(lp1744
I234378
aF339.5
aF514.012
aVp2
p1745
aS'nimbusromno9l'
p1746
aS'#000000'
p1747
aF12.0
aI0
aI01
aI00
aI00
aI00
aI00
aI00
aI00
aI00
aa(lp1748
I234378
aF77.9
aF514.012
aVp2
p1749
aS'nimbusromno9l'
p1750
aS'#000000'
p1751
aF12.0
aI0
aI01
aI00
aI00
aI00
aI00
aI00
aI00
aI00
aa(lp1752
I234378
aF339.5
aF529.012
aVp2
p1753
aS'nimbusromno9l'
p1754
aS'#000000'
p1755
aF12.0
aI0
aI01
aI00
aI00
aI00
aI00
aI00
aI00
aI00
aa(lp1756
I223319
aF77.9
aF529.012
aVp2
p1757
aS'nimbusromno9l'
p1758
aS'#000000'
p1759
aF12.0
aI0
aI01
aI00
aI00
aI00
aI00
aI00
aI00
aI00
aa(lp1760
I234378
aF114.07600000000001
aF529.012
ag1757
aS'nimbusromno9l'
p1761
aS'#000000'
p1762
aF12.0
aI0
aI00
aI00
aI00
aI00
aI00
aI00
aI00
aI00
aa(lp1763
I234378
aF120.24400000000001
aF529.012
ag1757
aS'nimbusromno9l'
p1764
aS'#000000'
p1765
aF12.0
aI0
aI01
aI01
aI00
aI00
aI00
aI00
aI00
aI00
aa(lp1766
I234378
aF130.74800000000002
aF529.012
ag1757
aS'nimbusromno9l'
p1767
aS'#000000'
p1768
aF12.0
aI0
aI00
aI00
aI00
aI00
aI00
aI00
aI00
aI00
aa(lp1769
I234378
aF141.91600000000003
aF529.012
ag1757
aS'nimbusromno9l'
p1770
aS'#000000'
p1771
aF12.0
aI0
aI01
aI00
aI00
aI00
aI00
aI00
aI00
aI00
aa(lp1772
I234378
aF184.93200000000002
aF529.012
ag1757
aS'nimbusromno9l'
p1773
aS'#000000'
p1774
aF12.0
aI0
aI00
aI00
aI00
aI00
aI00
aI00
aI00
aI00
aa(lp1775
I82213
aF339.5
aF543.912
aVp2
p1776
aS'nimbusromno9l'
p1777
aS'#000000'
p1778
aF12.0
aI0
aI01
aI00
aI00
aI00
aI00
aI00
aI00
aI00
aa(lp1779
I207716
aF388.992
aF543.912
ag1776
aS'nimbusromno9l'
p1780
aS'#000000'
p1781
aF12.0
aI0
aI01
aI00
aI00
aI00
aI00
aI00
aI00
aI00
aa(lp1782
I234378
aF77.9
aF543.912
aVp2
p1783
aS'nimbusromno9l'
p1784
aS'#000000'
p1785
aF12.0
aI0
aI01
aI00
aI00
aI00
aI00
aI00
aI00
aI00
aa(lp1786
I234378
aF116.904
aF543.912
ag1783
aS'nimbusromno9l'
p1787
aS'#000000'
p1788
aF12.0
aI0
aI00
aI00
aI00
aI00
aI00
aI00
aI00
aI00
aa(lp1789
I234378
aF123.476
aF543.912
ag1783
aS'nimbusromno9l'
p1790
aS'#000000'
p1791
aF12.0
aI0
aI01
aI00
aI00
aI00
aI00
aI00
aI00
aI00
aa(lp1792
I234378
aF144.336
aF543.912
ag1783
aS'nimbusromno9l'
p1793
aS'#000000'
p1794
aF12.0
aI0
aI00
aI00
aI00
aI00
aI00
aI00
aI00
aI00
aa(lp1795
I132100
aF43.3
aF595.052
aVp2
p1796
aS'nimbussanl'
p1797
aS'#00007f'
p1798
aF12.0
aI1
aI01
aI00
aI00
aI00
aI00
aI00
aI00
aI00
aa(lp1799
I176160
aF95.97466666666666
aF595.052
ag1796
aS'nimbussanl'
p1800
aS'#00007f'
p1801
aF12.0
aI1
aI01
aI01
aI00
aI00
aI00
aI00
aI00
aI00
aa(lp1802
I234378
aF122.312
aF595.052
ag1796
aS'nimbussanl'
p1803
aS'#00007f'
p1804
aF12.0
aI1
aI00
aI00
aI00
aI00
aI00
aI00
aI00
aI00
aa(lp1805
I234378
aF128.64633333333333
aF595.052
ag1796
aS'nimbussanl'
p1806
aS'#00007f'
p1807
aF12.0
aI1
aI01
aI00
aI00
aI00
aI00
aI00
aI00
aI00
aa(lp1808
I234378
aF172.98666666666668
aF595.052
ag1796
aS'nimbussanl'
p1809
aS'#00007f'
p1810
aF12.0
aI1
aI00
aI00
aI00
aI00
aI00
aI00
aI00
aI00
aa(lp1811
I234378
aF43.3
aF610.517
aVp2
p1812
aS'nimbussanl'
p1813
aS'#00007f'
p1814
aF11.0
aI0
aI01
aI00
aI00
aI00
aI00
aI00
aI00
aI00
aa(lp1815
I234378
aF88.32453846153845
aF610.517
ag1812
aS'nimbussanl'
p1816
aS'#00007f'
p1817
aF11.0
aI0
aI01
aI00
aI00
aI00
aI00
aI00
aI00
aI00
aa(lp1818
I37510
aF43.3
aF624.131
aVp2
p1819
aS'nimbussanl'
p1820
aS'#000000'
p1821
aF11.0
aI1
aI01
aI00
aI00
aI00
aI00
aI00
aI00
aI01
aa(lp1822
I234378
aF60.69035483870967
aF624.131
ag1819
aS'nimbussanl'
p1823
aS'#000000'
p1824
aF11.0
aI1
aI00
aI00
aI01
aI01
aI01
aI00
aI00
aI00
aa(lp1825
I27216
aF85.54416129032258
aF624.131
ag1819
aS'nimbussanl'
p1826
aS'#000000'
p1827
aF11.0
aI1
aI01
aI00
aI00
aI00
aI00
aI00
aI00
aI01
aa(lp1828
I234378
aF91.93451612903226
aF624.131
ag1819
aS'nimbussanl'
p1829
aS'#000000'
p1830
aF11.0
aI1
aI00
aI00
aI01
aI01
aI01
aI00
aI00
aI00
aa(lp1831
I234378
aF127.78832258064516
aF624.131
ag1819
aS'nimbussanl'
p1832
aS'#000000'
p1833
aF11.0
aI1
aI01
aI00
aI00
aI00
aI00
aI00
aI00
aI00
aa(lp1834
I21716
aF79.3
aF650.617
aVp2
p1835
aS'nimbussanl'
p1836
aS'#000000'
p1837
aF11.0
aI0
aI01
aI00
aI00
aI00
aI00
aI00
aI00
aI00
aa(lp1838
I234378
aF100.0060975609756
aF650.617
ag1835
aS'nimbussanl'
p1839
aS'#000000'
p1840
aF11.0
aI0
aI01
aI01
aI00
aI00
aI00
aI00
aI00
aI00
aa(lp1841
I68032
aF115.78567073170731
aF650.617
ag1835
aS'nimbussanl'
p1842
aS'#000000'
p1843
aF11.0
aI0
aI00
aI00
aI00
aI00
aI00
aI00
aI00
aI00
aa(lp1844
I190806
aF170.97743902439024
aF650.617
ag1835
aS'nimbussanl'
p1845
aS'#000000'
p1846
aF11.0
aI0
aI00
aI00
aI00
aI00
aI00
aI00
aI00
aI00
aa(lp1847
I234378
aF186.75701219512194
aF650.617
ag1835
aS'nimbussanl'
p1848
aS'#000000'
p1849
aF11.0
aI0
aI00
aI00
aI00
aI00
aI00
aI00
aI00
aI00
aa(lp1850
I169745
aF241.94878048780487
aF650.617
ag1835
aS'nimbussanl'
p1851
aS'#000000'
p1852
aF11.0
aI0
aI00
aI00
aI00
aI00
aI00
aI00
aI00
aI00
aa(lp1853
I166593
aF221.65487804878046
aF650.617
ag1835
aS'nimbussanl'
p1854
aS'#000000'
p1855
aF11.0
aI0
aI00
aI00
aI00
aI00
aI00
aI00
aI00
aI00
aa(lp1856
I48000
aF268.5814024390244
aF650.617
ag1835
aS'nimbussanl'
p1857
aS'#000000'
p1858
aF11.0
aI0
aI00
aI00
aI00
aI00
aI00
aI00
aI00
aI00
aa(lp1859
I166084
aF308.9935975609756
aF650.617
ag1835
aS'nimbussanl'
p1860
aS'#000000'
p1861
aF11.0
aI0
aI00
aI00
aI00
aI00
aI00
aI00
aI00
aI00
aa(lp1862
I19963
aF349.40579268292686
aF650.617
ag1835
aS'nimbussanl'
p1863
aS'#000000'
p1864
aF11.0
aI0
aI00
aI00
aI00
aI00
aI00
aI00
aI00
aI00
aa(lp1865
I190806
aF335.8914634146342
aF650.617
ag1835
aS'nimbussanl'
p1866
aS'#000000'
p1867
aF11.0
aI0
aI00
aI00
aI00
aI00
aI00
aI00
aI00
aI00
aa(lp1868
I234378
aF400.67103658536587
aF650.617
ag1835
aS'nimbussanl'
p1869
aS'#000000'
p1870
aF11.0
aI0
aI00
aI00
aI00
aI00
aI00
aI00
aI00
aI00
aa(lp1871
I234378
aF435.1567073170732
aF650.617
ag1835
aS'nimbussanl'
p1872
aS'#000000'
p1873
aF11.0
aI0
aI00
aI00
aI00
aI00
aI00
aI00
aI00
aI00
aa(lp1874
I234378
aF79.3
aF664.817
aVp2
p1875
aS'nimbussanl'
p1876
aS'#000000'
p1877
aF11.0
aI0
aI01
aI00
aI00
aI00
aI00
aI00
aI00
aI00
aa(lp1878
I234378
aF160.8376
aF664.817
ag1875
aS'nimbussanl'
p1879
aS'#000000'
p1880
aF11.0
aI0
aI00
aI00
aI00
aI00
aI00
aI00
aI00
aI00
aa(lp1881
I234378
aF202.1064
aF664.817
ag1875
aS'nimbussanl'
p1882
aS'#000000'
p1883
aF11.0
aI0
aI01
aI00
aI00
aI00
aI00
aI00
aI00
aI00
aa(lp1884
I16329
aF263.5096
aF664.817
ag1875
aS'nimbussanl'
p1885
aS'#000000'
p1886
aF11.0
aI0
aI00
aI00
aI00
aI00
aI00
aI00
aI00
aI00
aa(lp1887
I77790
aF274.5768
aF664.817
ag1875
aS'nimbussanl'
p1888
aS'#000000'
p1889
aF11.0
aI0
aI00
aI00
aI00
aI00
aI00
aI00
aI00
aI00
aa(lp1890
I80364
aF315.8456
aF664.817
ag1875
aS'nimbussanl'
p1891
aS'#000000'
p1892
aF11.0
aI0
aI00
aI00
aI00
aI00
aI00
aI00
aI00
aI00
aa(lp1893
I144509
aF331.9464
aF664.817
ag1875
aS'nimbussanl'
p1894
aS'#000000'
p1895
aF11.0
aI0
aI00
aI00
aI00
aI00
aI00
aI00
aI00
aI00
aa(lp1896
I212682
aF398.3832
aF664.817
ag1875
aS'nimbussanl'
p1897
aS'#000000'
p1898
aF11.0
aI0
aI00
aI00
aI00
aI00
aI00
aI00
aI00
aI00
aa(lp1899
I135639
aF378.652
aF664.817
ag1875
aS'nimbussanl'
p1900
aS'#000000'
p1901
aF11.0
aI0
aI00
aI00
aI00
aI00
aI00
aI00
aI00
aI00
aa(lp1902
I234378
aF450.7192
aF664.817
ag1875
aS'nimbussanl'
p1903
aS'#000000'
p1904
aF11.0
aI0
aI01
aI01
aI01
aI00
aI00
aI00
aI00
aI00
aa(lp1905
I159843
aF79.3
aF678.917
aVp2
p1906
aS'nimbussanl'
p1907
aS'#000000'
p1908
aF11.0
aI0
aI01
aI00
aI00
aI00
aI00
aI00
aI00
aI00
aa(lp1909
I132957
aF139.5982168674699
aF678.917
ag1906
aS'nimbussanl'
p1910
aS'#000000'
p1911
aF11.0
aI0
aI00
aI00
aI00
aI00
aI00
aI00
aI00
aI00
aa(lp1912
I54866
aF160.3642891566265
aF678.917
ag1906
aS'nimbussanl'
p1913
aS'#000000'
p1914
aF11.0
aI0
aI00
aI00
aI00
aI00
aI00
aI00
aI00
aI00
aa(lp1915
I150646
aF181.13036144578314
aF678.917
ag1906
aS'nimbussanl'
p1916
aS'#000000'
p1917
aF11.0
aI0
aI01
aI00
aI00
aI00
aI00
aI00
aI00
aI00
aa(lp1918
I195665
aF192.01339759036145
aF678.917
ag1906
aS'nimbussanl'
p1919
aS'#000000'
p1920
aF11.0
aI0
aI01
aI00
aI00
aI00
aI00
aI00
aI00
aI00
aa(lp1921
I85218
aF202.89643373493976
aF678.917
ag1906
aS'nimbussanl'
p1922
aS'#000000'
p1923
aF11.0
aI0
aI00
aI00
aI00
aI00
aI00
aI00
aI00
aI00
aa(lp1924
I234378
aF218.72098795180725
aF678.917
ag1906
aS'nimbussanl'
p1925
aS'#000000'
p1926
aF11.0
aI0
aI01
aI00
aI00
aI00
aI00
aI00
aI00
aI00
aa(lp1927
I131049
aF264.19465060240964
aF678.917
ag1906
aS'nimbussanl'
p1928
aS'#000000'
p1929
aF11.0
aI0
aI00
aI00
aI00
aI00
aI00
aI00
aI00
aI00
aa(lp1930
I108443
aF284.96072289156626
aF678.917
ag1906
aS'nimbussanl'
p1931
aS'#000000'
p1932
aF11.0
aI0
aI00
aI00
aI00
aI00
aI00
aI00
aI00
aI00
aa(lp1933
I89480
aF297.60983132530123
aF678.917
ag1906
aS'nimbussanl'
p1934
aS'#000000'
p1935
aF11.0
aI0
aI00
aI00
aI00
aI00
aI00
aI00
aI00
aI00
aa(lp1936
I166084
aF326.49286746987957
aF678.917
ag1906
aS'nimbussanl'
p1937
aS'#000000'
p1938
aF11.0
aI0
aI00
aI00
aI00
aI00
aI00
aI00
aI00
aI00
aa(lp1939
I19963
aF367.0250120481928
aF678.917
ag1906
aS'nimbussanl'
p1940
aS'#000000'
p1941
aF11.0
aI0
aI00
aI00
aI00
aI00
aI00
aI00
aI00
aI00
aa(lp1942
I85218
aF356.6156385542169
aF678.917
ag1906
aS'nimbussanl'
p1943
aS'#000000'
p1944
aF11.0
aI0
aI00
aI00
aI00
aI00
aI00
aI00
aI00
aI00
aa(lp1945
I199810
aF418.44019277108436
aF678.917
ag1906
aS'nimbussanl'
p1946
aS'#000000'
p1947
aF11.0
aI0
aI00
aI00
aI00
aI00
aI00
aI00
aI00
aI00
aa(lp1948
I234378
aF79.3
aF693.117
aVp2
p1949
aS'nimbussanl'
p1950
aS'#000000'
p1951
aF11.0
aI0
aI01
aI00
aI00
aI00
aI00
aI00
aI00
aI00
aa(lp1952
I234378
aF147.06946774193548
aF693.117
ag1949
aS'nimbussanl'
p1953
aS'#000000'
p1954
aF11.0
aI0
aI01
aI01
aI00
aI00
aI00
aI00
aI00
aI00
aa(lp1955
I85218
aF163.4778064516129
aF693.117
ag1949
aS'nimbussanl'
p1956
aS'#000000'
p1957
aF11.0
aI0
aI00
aI00
aI00
aI00
aI00
aI00
aI00
aI00
aa(lp1958
I234378
aF179.88614516129033
aF693.117
ag1949
aS'nimbussanl'
p1959
aS'#000000'
p1960
aF11.0
aI0
aI01
aI01
aI00
aI00
aI00
aI00
aI00
aI00
aa(lp1961
I234378
aF196.29448387096775
aF693.117
ag1949
aS'nimbussanl'
p1962
aS'#000000'
p1963
aF11.0
aI0
aI00
aI00
aI00
aI00
aI00
aI00
aI00
aI00
aa(lp1964
I6594
aF269.20006451612903
aF693.117
ag1949
aS'nimbussanl'
p1965
aS'#000000'
p1966
aF11.0
aI0
aI00
aI00
aI00
aI00
aI00
aI00
aI00
aI00
aa(lp1967
I213740
aF301.0167419354839
aF693.117
ag1949
aS'nimbussanl'
p1968
aS'#000000'
p1969
aF11.0
aI0
aI00
aI00
aI00
aI00
aI00
aI00
aI00
aI00
aa(lp1970
I72784
aF322.5611935483871
aF693.117
ag1949
aS'nimbussanl'
p1971
aS'#000000'
p1972
aF11.0
aI0
aI00
aI00
aI00
aI00
aI00
aI00
aI00
aI00
aa(lp1973
I234378
aF363.65009677419357
aF693.117
ag1949
aS'nimbussanl'
p1974
aS'#000000'
p1975
aF11.0
aI0
aI00
aI00
aI00
aI00
aI00
aI00
aI00
aI00
aa(lp1976
I93656
aF79.3
aF707.217
aVp2
p1977
aS'nimbussanl'
p1978
aS'#000000'
p1979
aF11.0
aI0
aI01
aI00
aI00
aI00
aI00
aI00
aI00
aI00
aa(lp1980
I85218
aF132.22820895522386
aF707.217
ag1977
aS'nimbussanl'
p1981
aS'#000000'
p1982
aF11.0
aI0
aI00
aI00
aI00
aI00
aI00
aI00
aI00
aI00
aa(lp1983
I234378
aF148.806671641791
aF707.217
ag1977
aS'nimbussanl'
p1984
aS'#000000'
p1985
aF11.0
aI0
aI00
aI00
aI00
aI00
aI00
aI00
aI00
aI00
aa(lp1986
I194354
aF201.7348805970149
aF707.217
ag1977
aS'nimbussanl'
p1987
aS'#000000'
p1988
aF11.0
aI0
aI00
aI00
aI00
aI00
aI00
aI00
aI00
aI00
aa(lp1989
I132957
aF218.31334328358207
aF707.217
ag1977
aS'nimbussanl'
p1990
aS'#000000'
p1991
aF11.0
aI0
aI00
aI00
aI00
aI00
aI00
aI00
aI00
aI00
aa(lp1992
I234378
aF240.08462686567162
aF707.217
ag1977
aS'nimbussanl'
p1993
aS'#000000'
p1994
aF11.0
aI0
aI00
aI00
aI00
aI00
aI00
aI00
aI00
aI00
aa(lp1995
I25729
aF282.6271940298507
aF707.217
ag1977
aS'nimbussanl'
p1996
aS'#000000'
p1997
aF11.0
aI0
aI00
aI00
aI00
aI00
aI00
aI00
aI00
aI00
aa(lp1998
I190806
aF304.3984776119403
aF707.217
ag1977
aS'nimbussanl'
p1999
aS'#000000'
p2000
aF11.0
aI0
aI00
aI00
aI00
aI00
aI00
aI00
aI00
aI00
aa(lp2001
I144509
aF320.97694029850743
aF707.217
ag1977
aS'nimbussanl'
p2002
aS'#000000'
p2003
aF11.0
aI0
aI00
aI00
aI00
aI00
aI00
aI00
aI00
aI00
aa(lp2004
I234378
aF388.4836119402985
aF707.217
ag1977
aS'nimbussanl'
p2005
aS'#000000'
p2006
aF11.0
aI0
aI00
aI00
aI00
aI00
aI00
aI00
aI00
aI00
aa(lp2007
I113826
aF79.3
aF721.417
aVp2
p2008
aS'nimbussanl'
p2009
aS'#000000'
p2010
aF11.0
aI0
aI01
aI00
aI00
aI00
aI00
aI00
aI00
aI00
aa(lp2011
I213286
aF114.5958
aF721.417
ag2008
aS'nimbussanl'
p2012
aS'#000000'
p2013
aF11.0
aI0
aI00
aI00
aI00
aI00
aI00
aI00
aI00
aI00
aa(lp2014
I234378
aF159.6904
aF721.417
ag2008
aS'nimbussanl'
p2015
aS'#000000'
p2016
aF11.0
aI0
aI00
aI00
aI00
aI00
aI00
aI00
aI00
aI00
aa(lp2017
I135639
aF184.6844
aF721.417
ag2008
aS'nimbussanl'
p2018
aS'#000000'
p2019
aF11.0
aI0
aI00
aI00
aI00
aI00
aI00
aI00
aI00
aI00
aa(lp2020
I164851
aF220.4832
aF721.417
ag2008
aS'nimbussanl'
p2021
aS'#000000'
p2022
aF11.0
aI0
aI00
aI00
aI00
aI00
aI00
aI00
aI00
aI00
aa(lp2023
I89480
aF245.98020000000002
aF721.417
ag2008
aS'nimbussanl'
p2024
aS'#000000'
p2025
aF11.0
aI0
aI00
aI00
aI00
aI00
aI00
aI00
aI00
aI00
aa(lp2026
I31142
aF256.779
aF721.417
ag2008
aS'nimbussanl'
p2027
aS'#000000'
p2028
aF11.0
aI0
aI00
aI00
aI00
aI00
aI00
aI00
aI00
aI00
aa(lp2029
I55660
aF287.17539999999997
aF721.417
ag2008
aS'nimbussanl'
p2030
aS'#000000'
p2031
aF11.0
aI0
aI00
aI00
aI00
aI00
aI00
aI00
aI00
aI00
aa(lp2032
I131630
aF317.57179999999994
aF721.417
ag2008
aS'nimbussanl'
p2033
aS'#000000'
p2034
aF11.0
aI0
aI00
aI00
aI00
aI00
aI00
aI00
aI00
aI00
aa(lp2035
I132100
aF43.3
aF747.252
aVp2
p2036
aS'nimbussanl'
p2037
aS'#00007f'
p2038
aF12.0
aI1
aI01
aI00
aI00
aI00
aI00
aI00
aI00
aI00
aa(lp2039
I199434
aF90.4513725490196
aF747.252
ag2036
aS'nimbussanl'
p2040
aS'#00007f'
p2041
aF12.0
aI1
aI01
aI00
aI00
aI00
aI00
aI00
aI00
aI00
aa(lp2042
I58156
aF119.67098039215685
aF747.252
ag2036
aS'nimbussanl'
p2043
aS'#00007f'
p2044
aF12.0
aI1
aI01
aI00
aI00
aI00
aI00
aI00
aI00
aI00
aa(lp2045
I190806
aF148.8905882352941
aF747.252
ag2036
aS'nimbussanl'
p2046
aS'#00007f'
p2047
aF12.0
aI1
aI00
aI00
aI00
aI00
aI00
aI00
aI00
aI00
aa(lp2048
I108443
aF166.82235294117646
aF747.252
ag2036
aS'nimbussanl'
p2049
aS'#00007f'
p2050
aF12.0
aI1
aI01
aI00
aI00
aI00
aI00
aI00
aI00
aI00
aa(lp2051
I234378
aF201.68588235294118
aF747.252
ag2036
aS'nimbussanl'
p2052
aS'#00007f'
p2053
aF12.0
aI1
aI00
aI00
aI00
aI00
aI00
aI00
aI00
aI00
aa(lp2054
I206869
aF207.32980392156864
aF747.252
ag2036
aS'nimbussanl'
p2055
aS'#00007f'
p2056
aF12.0
aI1
aI01
aI00
aI00
aI00
aI00
aI00
aI00
aI00
aa(lp2057
I177958
aF253.48117647058825
aF747.252
ag2036
aS'nimbussanl'
p2058
aS'#00007f'
p2059
aF12.0
aI1
aI01
aI00
aI00
aI00
aI00
aI00
aI00
aI00
aa(lp2060
I234378
aF292.9886274509804
aF747.252
ag2036
aS'nimbussanl'
p2061
aS'#00007f'
p2062
aF12.0
aI1
aI00
aI00
aI00
aI00
aI00
aI00
aI00
aI00
aa(lp2063
I234378
aF43.3
aF762.717
aVp2
p2064
aS'nimbussanl'
p2065
aS'#00007f'
p2066
aF11.0
aI0
aI01
aI00
aI00
aI00
aI00
aI00
aI00
aI00
aa(lp2067
I234378
aF88.32453846153845
aF762.717
ag2064
aS'nimbussanl'
p2068
aS'#00007f'
p2069
aF11.0
aI0
aI01
aI00
aI00
aI00
aI00
aI00
aI00
aI00
aa(lp2070
I61519
aF43.3
aF776.431
aVp2
p2071
aS'nimbussanl'
p2072
aS'#000000'
p2073
aF11.0
aI1
aI01
aI00
aI00
aI00
aI00
aI00
aI00
aI01
aa(lp2074
I234378
aF60.633935483870964
aF776.431
ag2071
aS'nimbussanl'
p2075
aS'#000000'
p2076
aF11.0
aI1
aI00
aI00
aI01
aI01
aI01
aI00
aI00
aI00
aa(lp2077
I234378
aF85.41251612903226
aF776.431
ag2071
aS'nimbussanl'
p2078
aS'#000000'
p2079
aF11.0
aI1
aI01
aI00
aI00
aI00
aI00
aI00
aI00
aI01
aa(lp2080
I234378
aF91.74645161290323
aF776.431
ag2071
aS'nimbussanl'
p2081
aS'#000000'
p2082
aF11.0
aI1
aI00
aI00
aI01
aI01
aI01
aI00
aI00
aI00
aa(lp2083
I234378
aF127.52503225806451
aF776.431
ag2071
aS'nimbussanl'
p2084
aS'#000000'
p2085
aF11.0
aI1
aI01
aI00
aI00
aI00
aI00
aI00
aI00
aI00
aa(lp2086
I234378
aF79.3
aF55.617
aVp3
p2087
aS'nimbussanl'
p2088
aS'#000000'
p2089
aF11.0
aI0
aI01
aI00
aI00
aI00
aI00
aI00
aI00
aI00
aa(lp2090
I166593
aF113.42784615384615
aF55.617
ag2087
aS'nimbussanl'
p2091
aS'#000000'
p2092
aF11.0
aI0
aI00
aI00
aI00
aI00
aI00
aI00
aI00
aI00
aa(lp2093
I199434
aF125.31882692307691
aF55.617
ag2087
aS'nimbussanl'
p2094
aS'#000000'
p2095
aF11.0
aI0
aI00
aI00
aI00
aI00
aI00
aI00
aI00
aI00
aa(lp2096
I58156
aF150.77373076923075
aF55.617
ag2087
aS'nimbussanl'
p2097
aS'#000000'
p2098
aF11.0
aI0
aI00
aI00
aI00
aI00
aI00
aI00
aI00
aI00
aa(lp2099
I123665
aF176.2286346153846
aF55.617
ag2087
aS'nimbussanl'
p2100
aS'#000000'
p2101
aF11.0
aI0
aI00
aI00
aI00
aI00
aI00
aI00
aI00
aI00
aa(lp2102
I190806
aF231.02942307692308
aF55.617
ag2087
aS'nimbussanl'
p2103
aS'#000000'
p2104
aF11.0
aI0
aI00
aI00
aI00
aI00
aI00
aI00
aI00
aI00
aa(lp2105
I108443
aF246.70236538461538
aF55.617
ag2087
aS'nimbussanl'
p2106
aS'#000000'
p2107
aF11.0
aI0
aI00
aI00
aI00
aI00
aI00
aI00
aI00
aI00
aa(lp2108
I234378
aF277.04825
aF55.617
ag2087
aS'nimbussanl'
p2109
aS'#000000'
p2110
aF11.0
aI0
aI00
aI00
aI00
aI00
aI00
aI00
aI00
aI00
aa(lp2111
I11472
aF79.3
aF69.717
aVp3
p2112
aS'nimbussanl'
p2113
aS'#000000'
p2114
aF11.0
aI0
aI01
aI00
aI00
aI00
aI00
aI00
aI00
aI00
aa(lp2115
I137949
aF122.98249999999999
aF69.717
ag2112
aS'nimbussanl'
p2116
aS'#000000'
p2117
aF11.0
aI0
aI00
aI00
aI00
aI00
aI00
aI00
aI00
aI00
aa(lp2118
I221858
aF142.9525
aF69.717
ag2112
aS'nimbussanl'
p2119
aS'#000000'
p2120
aF11.0
aI0
aI00
aI00
aI00
aI00
aI00
aI00
aI00
aI00
aa(lp2121
I89480
aF186.635
aF69.717
ag2112
aS'nimbussanl'
p2122
aS'#000000'
p2123
aF11.0
aI0
aI00
aI00
aI00
aI00
aI00
aI00
aI00
aI00
aa(lp2124
I104386
aF197.12
aF69.717
ag2112
aS'nimbussanl'
p2125
aS'#000000'
p2126
aF11.0
aI0
aI00
aI00
aI00
aI00
aI00
aI00
aI00
aI00
aa(lp2127
I234378
aF226.575
aF69.717
ag2112
aS'nimbussanl'
p2128
aS'#000000'
p2129
aF11.0
aI0
aI00
aI00
aI00
aI00
aI00
aI00
aI00
aI00
aa(lp2130
I234378
aF255.02999999999997
aF69.717
ag2112
aS'nimbussanl'
p2131
aS'#000000'
p2132
aF11.0
aI0
aI00
aI00
aI00
aI00
aI00
aI00
aI00
aI00
aa(lp2133
I69727
aF260.7725
aF69.717
ag2112
aS'nimbussanl'
p2134
aS'#000000'
p2135
aF11.0
aI0
aI00
aI00
aI00
aI00
aI00
aI00
aI00
aI00
aa(lp2136
I234378
aF281.22749999999996
aF69.717
ag2112
aS'nimbussanl'
p2137
aS'#000000'
p2138
aF11.0
aI0
aI00
aI00
aI00
aI00
aI00
aI00
aI00
aI00
aa(lp2139
I340
aF294.96999999999997
aF69.717
ag2112
aS'nimbussanl'
p2140
aS'#000000'
p2141
aF11.0
aI0
aI00
aI00
aI00
aI00
aI00
aI00
aI00
aI00
aa(lp2142
I85218
aF314.93999999999994
aF69.717
ag2112
aS'nimbussanl'
p2143
aS'#000000'
p2144
aF11.0
aI0
aI00
aI00
aI00
aI00
aI00
aI00
aI00
aI00
aa(lp2145
I234378
aF330.16749999999996
aF69.717
ag2112
aS'nimbussanl'
p2146
aS'#000000'
p2147
aF11.0
aI0
aI00
aI00
aI00
aI00
aI00
aI00
aI00
aI00
aa(lp2148
I59524
aF79.3
aF83.917
aVp3
p2149
aS'nimbussanl'
p2150
aS'#000000'
p2151
aF11.0
aI0
aI01
aI00
aI00
aI00
aI00
aI00
aI00
aI00
aa(lp2152
I194354
aF110.67434782608694
aF83.917
ag2149
aS'nimbussanl'
p2153
aS'#000000'
p2154
aF11.0
aI0
aI00
aI00
aI00
aI00
aI00
aI00
aI00
aI00
aa(lp2155
I191731
aF126.86152173913042
aF83.917
ag2149
aS'nimbussanl'
p2156
aS'#000000'
p2157
aF11.0
aI0
aI00
aI00
aI00
aI00
aI00
aI00
aI00
aI00
aa(lp2158
I135639
aF139.17347826086956
aF83.917
ag2149
aS'nimbussanl'
p2159
aS'#000000'
p2160
aF11.0
aI0
aI00
aI00
aI00
aI00
aI00
aI00
aI00
aI00
aa(lp2161
I230164
aF164.2982608695652
aF83.917
ag2149
aS'nimbussanl'
p2162
aS'#000000'
p2163
aF11.0
aI0
aI00
aI00
aI00
aI00
aI00
aI00
aI00
aI00
aa(lp2164
I90159
aF185.54782608695652
aF83.917
ag2149
aS'nimbussanl'
p2165
aS'#000000'
p2166
aF11.0
aI0
aI00
aI00
aI00
aI00
aI00
aI00
aI00
aI00
aa(lp2167
I89480
aF216.92217391304348
aF83.917
ag2149
aS'nimbussanl'
p2168
aS'#000000'
p2169
aF11.0
aI0
aI00
aI00
aI00
aI00
aI00
aI00
aI00
aI00
aa(lp2170
I183541
aF228.04695652173913
aF83.917
ag2149
aS'nimbussanl'
p2171
aS'#000000'
p2172
aF11.0
aI0
aI00
aI00
aI00
aI00
aI00
aI00
aI00
aI00
aa(lp2173
I55660
aF249.29652173913044
aF83.917
ag2149
aS'nimbussanl'
p2174
aS'#000000'
p2175
aF11.0
aI0
aI00
aI00
aI00
aI00
aI00
aI00
aI00
aI00
aa(lp2176
I93656
aF79.3
aF98.017
aVp3
p2177
aS'nimbussanl'
p2178
aS'#000000'
p2179
aF11.0
aI0
aI01
aI00
aI00
aI00
aI00
aI00
aI00
aI00
aa(lp2180
I194354
aF129.35721518987341
aF98.017
ag2177
aS'nimbussanl'
p2181
aS'#000000'
p2182
aF11.0
aI0
aI00
aI00
aI00
aI00
aI00
aI00
aI00
aI00
aa(lp2183
I162640
aF145.07437974683543
aF98.017
ag2177
aS'nimbussanl'
p2184
aS'#000000'
p2185
aF11.0
aI0
aI00
aI00
aI00
aI00
aI00
aI00
aI00
aI00
aa(lp2186
I99285
aF170.60298734177215
aF98.017
ag2177
aS'nimbussanl'
p2187
aS'#000000'
p2188
aF11.0
aI0
aI00
aI00
aI00
aI00
aI00
aI00
aI00
aI00
aa(lp2189
I70817
aF196.13159493670886
aF98.017
ag2177
aS'nimbussanl'
p2190
aS'#000000'
p2191
aF11.0
aI0
aI00
aI00
aI00
aI00
aI00
aI00
aI00
aI00
aa(lp2192
I234378
aF231.47164556962025
aF98.017
ag2177
aS'nimbussanl'
p2193
aS'#000000'
p2194
aF11.0
aI0
aI00
aI00
aI00
aI00
aI00
aI00
aI00
aI00
aa(lp2195
I194354
aF234.81169620253166
aF98.017
ag2177
aS'nimbussanl'
p2196
aS'#000000'
p2197
aF11.0
aI0
aI00
aI00
aI00
aI00
aI00
aI00
aI00
aI00
aa(lp2198
I162640
aF250.52886075949368
aF98.017
ag2177
aS'nimbussanl'
p2199
aS'#000000'
p2200
aF11.0
aI0
aI00
aI00
aI00
aI00
aI00
aI00
aI00
aI00
aa(lp2201
I74911
aF308.0574683544304
aF98.017
ag2177
aS'nimbussanl'
p2202
aS'#000000'
p2203
aF11.0
aI0
aI00
aI00
aI00
aI00
aI00
aI00
aI00
aI00
aa(lp2204
I89480
aF334.02040506329115
aF98.017
ag2177
aS'nimbussanl'
p2205
aS'#000000'
p2206
aF11.0
aI0
aI00
aI00
aI00
aI00
aI00
aI00
aI00
aI00
aa(lp2207
I183541
aF373.83184810126585
aF98.017
ag2177
aS'nimbussanl'
p2208
aS'#000000'
p2209
aF11.0
aI0
aI00
aI00
aI00
aI00
aI00
aI00
aI00
aI00
aa(lp2210
I55660
aF394.4547341772152
aF98.017
ag2177
aS'nimbussanl'
p2211
aS'#000000'
p2212
aF11.0
aI0
aI00
aI00
aI00
aI00
aI00
aI00
aI00
aI00
aa(lp2213
I144509
aF79.3
aF112.217
aVp3
p2214
aS'nimbussanl'
p2215
aS'#000000'
p2216
aF11.0
aI0
aI01
aI00
aI00
aI00
aI00
aI00
aI00
aI00
aa(lp2217
I169745
aF145.7847741935484
aF112.217
ag2214
aS'nimbussanl'
p2218
aS'#000000'
p2219
aF11.0
aI0
aI00
aI00
aI00
aI00
aI00
aI00
aI00
aI00
aa(lp2220
I166593
aF155.93393548387098
aF112.217
ag2214
aS'nimbussanl'
p2221
aS'#000000'
p2222
aF11.0
aI0
aI00
aI00
aI00
aI00
aI00
aI00
aI00
aI00
aa(lp2223
I96642
aF172.97122580645163
aF112.217
ag2214
aS'nimbussanl'
p2224
aS'#000000'
p2225
aF11.0
aI0
aI00
aI00
aI00
aI00
aI00
aI00
aI00
aI00
aa(lp2226
I89480
aF204.1949677419355
aF112.217
ag2214
aS'nimbussanl'
p2227
aS'#000000'
p2228
aF11.0
aI0
aI00
aI00
aI00
aI00
aI00
aI00
aI00
aI00
aa(lp2229
I233948
aF215.2695483870968
aF112.217
ag2214
aS'nimbussanl'
p2230
aS'#000000'
p2231
aF11.0
aI0
aI00
aI00
aI00
aI00
aI00
aI00
aI00
aI00
aa(lp2232
I194354
aF251.5305806451613
aF112.217
ag2214
aS'nimbussanl'
p2233
aS'#000000'
p2234
aF11.0
aI0
aI00
aI00
aI00
aI00
aI00
aI00
aI00
aI00
aa(lp2235
I191731
aF267.64245161290324
aF112.217
ag2214
aS'nimbussanl'
p2236
aS'#000000'
p2237
aF11.0
aI0
aI00
aI00
aI00
aI00
aI00
aI00
aI00
aI00
aa(lp2238
I89480
aF272.82890322580647
aF112.217
ag2214
aS'nimbussanl'
p2239
aS'#000000'
p2240
aF11.0
aI0
aI00
aI00
aI00
aI00
aI00
aI00
aI00
aI00
aa(lp2241
I234378
aF304.90348387096776
aF112.217
ag2214
aS'nimbussanl'
p2242
aS'#000000'
p2243
aF11.0
aI0
aI00
aI00
aI00
aI00
aI00
aI00
aI00
aI00
aa(lp2244
I90159
aF321.0153548387097
aF112.217
ag2214
aS'nimbussanl'
p2245
aS'#000000'
p2246
aF11.0
aI0
aI00
aI00
aI00
aI00
aI00
aI00
aI00
aI00
aa(lp2247
I121976
aF79.3
aF126.317
aVp3
p2248
aS'nimbussanl'
p2249
aS'#000000'
p2250
aF11.0
aI0
aI01
aI00
aI00
aI00
aI00
aI00
aI00
aI00
aa(lp2251
I194354
aF119.11331034482758
aF126.317
ag2248
aS'nimbussanl'
p2252
aS'#000000'
p2253
aF11.0
aI0
aI00
aI00
aI00
aI00
aI00
aI00
aI00
aI00
aa(lp2254
I191731
aF136.74758620689656
aF126.317
ag2248
aS'nimbussanl'
p2255
aS'#000000'
p2256
aF11.0
aI0
aI00
aI00
aI00
aI00
aI00
aI00
aI00
aI00
aa(lp2257
I184870
aF165.47137931034484
aF126.317
ag2248
aS'nimbussanl'
p2258
aS'#000000'
p2259
aF11.0
aI0
aI00
aI00
aI00
aI00
aI00
aI00
aI00
aI00
aa(lp2260
I234378
aF205.28468965517243
aF126.317
ag2248
aS'nimbussanl'
p2261
aS'#000000'
p2262
aF11.0
aI0
aI01
aI01
aI00
aI00
aI00
aI00
aI00
aI00
aa(lp2263
I195166
aF339.5
aF140.712
aVp3
p2264
aS'nimbusromno9l'
p2265
aS'#000000'
p2266
aF12.0
aI0
aI01
aI00
aI00
aI00
aI00
aI00
aI00
aI00
aa(lp2267
I234378
aF77.9
aF140.712
aVp3
p2268
aS'nimbusromno9l'
p2269
aS'#000000'
p2270
aF12.0
aI0
aI01
aI01
aI01
aI00
aI00
aI00
aI00
aI00
aa(lp2271
I234378
aF107.58600000000001
aF140.712
ag2268
aS'nimbusromno9l'
p2272
aS'#000000'
p2273
aF12.0
aI0
aI01
aI01
aI00
aI00
aI00
aI00
aI00
aI00
aa(lp2274
I234378
aF339.5
aF155.612
aVp3
p2275
aS'nimbusromno9l'
p2276
aS'#000000'
p2277
aF12.0
aI0
aI01
aI00
aI00
aI00
aI00
aI00
aI00
aI00
aa(lp2278
I234378
aF77.9
aF155.612
aVp3
p2279
aS'nimbusromno9l'
p2280
aS'#000000'
p2281
aF12.0
aI0
aI01
aI00
aI00
aI00
aI00
aI00
aI00
aI00
aa(lp2282
I234378
aF117.56577777777778
aF155.612
ag2279
aS'nimbusromno9l'
p2283
aS'#000000'
p2284
aF12.0
aI0
aI00
aI00
aI00
aI00
aI00
aI00
aI00
aI00
aa(lp2285
I48000
aF124.524
aF155.612
ag2279
aS'nimbusromno9l'
p2286
aS'#000000'
p2287
aF12.0
aI0
aI01
aI00
aI00
aI00
aI00
aI00
aI00
aI00
aa(lp2288
I234378
aF165.18977777777778
aF155.612
ag2279
aS'nimbusromno9l'
p2289
aS'#000000'
p2290
aF12.0
aI0
aI01
aI00
aI00
aI00
aI00
aI00
aI00
aI00
aa(lp2291
I124531
aF43.3
aF291.094
aVp3
p2292
aS'nimbussanl'
p2293
aS'#656565'
p2294
aF14.0
aI0
aI01
aI00
aI00
aI00
aI00
aI00
aI00
aI00
aa(lp2295
I234378
aF102.78459999999998
aF291.094
ag2292
aS'nimbussanl'
p2296
aS'#656565'
p2297
aF14.0
aI0
aI00
aI00
aI00
aI00
aI00
aI00
aI00
aI00
aa(lp2298
I234378
aF43.4
aF321.164
aVp3
p2299
aS'nimbussanl'
p2300
aS'#000000'
p2301
aF12.0
aI0
aI00
aI00
aI01
aI01
aI00
aI00
aI00
aI00
aa(lp2302
I234378
aF48.41
aF321.164
ag2299
aS'nimbussanl'
p2303
aS'#000000'
p2304
aF12.0
aI0
aI00
aI00
aI00
aI00
aI00
aI00
aI00
aI00
aa(lp2305
I27780
aF61.3
aF320.852
aVp3
p2306
aS'nimbussanl'
p2307
aS'#000000'
p2308
aF12.0
aI1
aI01
aI01
aI00
aI00
aI00
aI00
aI00
aI00
aa(lp2309
I234378
aF67.01634567901235
aF320.852
ag2306
aS'nimbussanl'
p2310
aS'#000000'
p2311
aF12.0
aI1
aI00
aI00
aI00
aI00
aI00
aI00
aI00
aI00
aa(lp2312
I234378
aF72.7326913580247
aF320.852
ag2306
aS'nimbussanl'
p2313
aS'#000000'
p2314
aF12.0
aI1
aI00
aI00
aI00
aI00
aI00
aI00
aI00
aI00
aa(lp2315
I85218
aF159.47787654320987
aF320.852
ag2306
aS'nimbussanl'
p2316
aS'#000000'
p2317
aF12.0
aI1
aI00
aI00
aI00
aI00
aI00
aI00
aI00
aI00
aa(lp2318
I144509
aF177.6269135802469
aF320.852
ag2306
aS'nimbussanl'
p2319
aS'#000000'
p2320
aF12.0
aI1
aI01
aI00
aI00
aI00
aI00
aI00
aI00
aI00
aa(lp2321
I199937
aF252.9394074074074
aF320.852
ag2306
aS'nimbussanl'
p2322
aS'#000000'
p2323
aF12.0
aI1
aI01
aI00
aI00
aI00
aI00
aI00
aI00
aI00
aa(lp2324
I131049
aF317.8192098765432
aF320.852
ag2306
aS'nimbussanl'
p2325
aS'#000000'
p2326
aF12.0
aI1
aI00
aI00
aI00
aI00
aI00
aI00
aI00
aI00
aa(lp2327
I234378
aF341.6845925925926
aF320.852
ag2306
aS'nimbussanl'
p2328
aS'#000000'
p2329
aF12.0
aI1
aI01
aI01
aI00
aI00
aI00
aI00
aI00
aI00
aa(lp2330
I41479
aF359.8336296296296
aF320.852
ag2306
aS'nimbussanl'
p2331
aS'#000000'
p2332
aF12.0
aI1
aI01
aI00
aI00
aI00
aI00
aI00
aI00
aI00
aa(lp2333
I144489
aF400.84804938271606
aF320.852
ag2306
aS'nimbussanl'
p2334
aS'#000000'
p2335
aF12.0
aI1
aI00
aI00
aI00
aI00
aI00
aI00
aI00
aI00
aa(lp2336
I199937
aF380.2807407407407
aF320.852
ag2306
aS'nimbussanl'
p2337
aS'#000000'
p2338
aF12.0
aI1
aI01
aI00
aI00
aI00
aI00
aI00
aI00
aI00
aa(lp2339
I234378
aF476.16054320987655
aF320.852
ag2306
aS'nimbussanl'
p2340
aS'#000000'
p2341
aF12.0
aI1
aI00
aI00
aI00
aI00
aI00
aI00
aI00
aI00
aa(lp2342
I234378
aF61.3
aF336.264
aVp3
p2343
aS'nimbussanl'
p2344
aS'#000000'
p2345
aF12.0
aI0
aI01
aI00
aI00
aI00
aI00
aI00
aI00
aI00
aa(lp2346
I153079
aF93.608
aF336.264
ag2343
aS'nimbussanl'
p2347
aS'#000000'
p2348
aF12.0
aI0
aI01
aI00
aI00
aI00
aI00
aI00
aI00
aI00
aa(lp2349
I234378
aF145.788
aF336.264
ag2343
aS'nimbussanl'
p2350
aS'#000000'
p2351
aF12.0
aI0
aI00
aI00
aI00
aI00
aI00
aI00
aI00
aI00
aa(lp2352
I234378
aF61.3
aF351.464
aVp3
p2353
aS'nimbussanl'
p2354
aS'#000000'
p2355
aF12.0
aI0
aI00
aI00
aI00
aI00
aI00
aI00
aI00
aI00
aa(lp2356
I234378
aF129.70693333333332
aF351.464
ag2353
aS'nimbussanl'
p2357
aS'#000000'
p2358
aF12.0
aI0
aI00
aI00
aI01
aI01
aI01
aI00
aI00
aI00
aa(lp2359
I234378
aF146.55866666666665
aF351.464
ag2353
aS'nimbussanl'
p2360
aS'#000000'
p2361
aF12.0
aI0
aI00
aI00
aI00
aI00
aI00
aI00
aI00
aI00
aa(lp2362
I234378
aF154.98453333333333
aF351.464
ag2353
aS'nimbussanl'
p2363
aS'#000000'
p2364
aF12.0
aI0
aI00
aI00
aI01
aI01
aI00
aI00
aI00
aI00
aa(lp2365
I234378
aF166.4104
aF351.464
ag2353
aS'nimbussanl'
p2366
aS'#000000'
p2367
aF12.0
aI0
aI00
aI00
aI00
aI00
aI00
aI00
aI00
aI00
aa(lp2368
I234378
aF174.8362666666667
aF351.464
ag2353
aS'nimbussanl'
p2369
aS'#000000'
p2370
aF12.0
aI0
aI00
aI00
aI01
aI01
aI01
aI00
aI00
aI00
aa(lp2371
I234378
aF210.53973333333334
aF351.464
ag2353
aS'nimbussanl'
p2372
aS'#000000'
p2373
aF12.0
aI0
aI00
aI00
aI01
aI01
aI01
aI00
aI00
aI00
aa(lp2374
I234378
aF244.2432
aF351.464
ag2353
aS'nimbussanl'
p2375
aS'#000000'
p2376
aF12.0
aI0
aI00
aI00
aI00
aI00
aI00
aI00
aI00
aI00
aa(lp2377
I234378
aF43.4
aF366.864
aVp3
p2378
aS'nimbussanl'
p2379
aS'#000000'
p2380
aF12.0
aI0
aI00
aI00
aI01
aI01
aI00
aI00
aI00
aI00
aa(lp2381
I234378
aF48.41
aF366.864
ag2378
aS'nimbussanl'
p2382
aS'#000000'
p2383
aF12.0
aI0
aI00
aI00
aI00
aI00
aI00
aI00
aI00
aI00
aa(lp2384
I234378
aF61.3
aF366.552
aVp3
p2385
aS'nimbussanl'
p2386
aS'#000000'
p2387
aF12.0
aI1
aI01
aI01
aI00
aI00
aI00
aI00
aI00
aI00
aa(lp2388
I234378
aF78.25288888888889
aF366.552
ag2385
aS'nimbussanl'
p2389
aS'#000000'
p2390
aF12.0
aI1
aI00
aI00
aI00
aI00
aI00
aI00
aI00
aI00
aa(lp2391
I70647
aF84.90385185185185
aF366.552
ag2385
aS'nimbussanl'
p2392
aS'#000000'
p2393
aF12.0
aI1
aI01
aI00
aI00
aI00
aI00
aI00
aI00
aI00
aa(lp2394
I150812
aF114.15866666666668
aF366.552
ag2385
aS'nimbussanl'
p2395
aS'#000000'
p2396
aF12.0
aI1
aI01
aI00
aI00
aI00
aI00
aI00
aI00
aI00
aa(lp2397
I144489
aF143.41348148148148
aF366.552
ag2385
aS'nimbussanl'
p2398
aS'#000000'
p2399
aF12.0
aI1
aI00
aI00
aI00
aI00
aI00
aI00
aI00
aI00
aa(lp2400
I13387
aF155.7154074074074
aF366.552
ag2385
aS'nimbussanl'
p2401
aS'#000000'
p2402
aF12.0
aI1
aI01
aI00
aI00
aI00
aI00
aI00
aI00
aI00
aa(lp2403
I96401
aF190.6211851851852
aF366.552
ag2385
aS'nimbussanl'
p2404
aS'#000000'
p2405
aF12.0
aI1
aI01
aI00
aI00
aI00
aI00
aI00
aI00
aI00
aa(lp2406
I124531
aF242.47985185185186
aF366.552
ag2385
aS'nimbussanl'
p2407
aS'#000000'
p2408
aF12.0
aI1
aI01
aI00
aI00
aI00
aI00
aI00
aI00
aI00
aa(lp2409
I234378
aF250.33851851851853
aF366.552
ag2385
aS'nimbussanl'
p2410
aS'#000000'
p2411
aF12.0
aI1
aI00
aI00
aI00
aI00
aI00
aI00
aI00
aI00
aa(lp2412
I234378
aF299.98948148148145
aF366.552
ag2385
aS'nimbussanl'
p2413
aS'#000000'
p2414
aF12.0
aI1
aI01
aI00
aI00
aI00
aI00
aI00
aI00
aI00
aa(lp2415
I234378
aF79.3
aF382.364
aVp3
p2416
aS'nimbussanl'
p2417
aS'#000000'
p2418
aF12.0
aI0
aI00
aI00
aI00
aI00
aI00
aI00
aI00
aI00
aa(lp2419
I234378
aF142.58055172413793
aF382.364
ag2416
aS'nimbussanl'
p2420
aS'#000000'
p2421
aF12.0
aI0
aI00
aI00
aI00
aI00
aI00
aI00
aI00
aI00
aa(lp2422
I234378
aF151.49062068965517
aF382.364
ag2416
aS'nimbussanl'
p2423
aS'#000000'
p2424
aF12.0
aI0
aI00
aI00
aI01
aI01
aI01
aI00
aI00
aI00
aa(lp2425
I234378
aF167.31075862068965
aF382.364
ag2416
aS'nimbussanl'
p2426
aS'#000000'
p2427
aF12.0
aI0
aI00
aI00
aI00
aI00
aI00
aI00
aI00
aI00
aa(lp2428
I234378
aF175.2208275862069
aF382.364
ag2416
aS'nimbussanl'
p2429
aS'#000000'
p2430
aF12.0
aI0
aI00
aI00
aI01
aI01
aI01
aI00
aI00
aI00
aa(lp2431
I234378
aF192.04096551724137
aF382.364
ag2416
aS'nimbussanl'
p2432
aS'#000000'
p2433
aF12.0
aI0
aI00
aI00
aI00
aI00
aI00
aI00
aI00
aI00
aa(lp2434
I234378
aF199.95103448275862
aF382.364
ag2416
aS'nimbussanl'
p2435
aS'#000000'
p2436
aF12.0
aI0
aI00
aI00
aI01
aI01
aI01
aI00
aI00
aI00
aa(lp2437
I234378
aF233.59131034482758
aF382.364
ag2416
aS'nimbussanl'
p2438
aS'#000000'
p2439
aF12.0
aI0
aI00
aI00
aI01
aI01
aI01
aI00
aI00
aI00
aa(lp2440
I234378
aF265.23158620689657
aF382.364
ag2416
aS'nimbussanl'
p2441
aS'#000000'
p2442
aF12.0
aI0
aI00
aI00
aI00
aI00
aI00
aI00
aI00
aI00
aa(lp2443
I234378
aF43.4
aF397.764
aVp3
p2444
aS'nimbussanl'
p2445
aS'#000000'
p2446
aF12.0
aI0
aI00
aI00
aI01
aI01
aI00
aI00
aI00
aI00
aa(lp2447
I234378
aF48.41
aF397.764
ag2444
aS'nimbussanl'
p2448
aS'#000000'
p2449
aF12.0
aI0
aI00
aI00
aI00
aI00
aI00
aI00
aI00
aI00
aa(lp2450
I234378
aF61.3
aF397.452
aVp3
p2451
aS'nimbussanl'
p2452
aS'#000000'
p2453
aF12.0
aI1
aI01
aI01
aI00
aI00
aI00
aI00
aI00
aI00
aa(lp2454
I234378
aF84.124
aF397.452
ag2451
aS'nimbussanl'
p2455
aS'#000000'
p2456
aF12.0
aI1
aI00
aI00
aI00
aI00
aI00
aI00
aI00
aI00
aa(lp2457
I70647
aF90.83
aF397.452
ag2451
aS'nimbussanl'
p2458
aS'#000000'
p2459
aF12.0
aI1
aI01
aI00
aI00
aI00
aI00
aI00
aI00
aI00
aa(lp2460
I150812
aF120.36
aF397.452
ag2451
aS'nimbussanl'
p2461
aS'#000000'
p2462
aF12.0
aI1
aI01
aI00
aI00
aI00
aI00
aI00
aI00
aI00
aa(lp2463
I144489
aF149.89
aF397.452
ag2451
aS'nimbussanl'
p2464
aS'#000000'
p2465
aF12.0
aI1
aI00
aI00
aI00
aI00
aI00
aI00
aI00
aI00
aa(lp2466
I96401
aF162.302
aF397.452
ag2451
aS'nimbussanl'
p2467
aS'#000000'
p2468
aF12.0
aI1
aI01
aI00
aI00
aI00
aI00
aI00
aI00
aI00
aa(lp2469
I124531
aF214.656
aF397.452
ag2451
aS'nimbussanl'
p2470
aS'#000000'
p2471
aF12.0
aI1
aI01
aI00
aI00
aI00
aI00
aI00
aI00
aI00
aa(lp2472
I234378
aF230.01
aF397.452
ag2451
aS'nimbussanl'
p2473
aS'#000000'
p2474
aF12.0
aI1
aI00
aI00
aI00
aI00
aI00
aI00
aI00
aI00
aa(lp2475
I234378
aF272.716
aF397.452
ag2451
aS'nimbussanl'
p2476
aS'#000000'
p2477
aF12.0
aI1
aI01
aI00
aI00
aI00
aI00
aI00
aI00
aI00
aa(lp2478
I234378
aF79.3
aF413.264
aVp3
p2479
aS'nimbussanl'
p2480
aS'#000000'
p2481
aF12.0
aI0
aI00
aI00
aI00
aI00
aI00
aI00
aI00
aI00
aa(lp2482
I234378
aF149.172
aF413.264
ag2479
aS'nimbussanl'
p2483
aS'#000000'
p2484
aF12.0
aI0
aI00
aI00
aI00
aI00
aI00
aI00
aI00
aI00
aa(lp2485
I234378
aF158.906
aF413.264
ag2479
aS'nimbussanl'
p2486
aS'#000000'
p2487
aF12.0
aI0
aI00
aI00
aI01
aI01
aI01
aI00
aI00
aI00
aa(lp2488
I234378
aF176.374
aF413.264
ag2479
aS'nimbussanl'
p2489
aS'#000000'
p2490
aF12.0
aI0
aI00
aI00
aI00
aI00
aI00
aI00
aI00
aI00
aa(lp2491
I234378
aF185.108
aF413.264
ag2479
aS'nimbussanl'
p2492
aS'#000000'
p2493
aF12.0
aI0
aI00
aI00
aI01
aI01
aI00
aI00
aI00
aI00
aa(lp2494
I234378
aF194.842
aF413.264
ag2479
aS'nimbussanl'
p2495
aS'#000000'
p2496
aF12.0
aI0
aI00
aI00
aI00
aI00
aI00
aI00
aI00
aI00
aa(lp2497
I234378
aF203.57600000000002
aF413.264
ag2479
aS'nimbussanl'
p2498
aS'#000000'
p2499
aF12.0
aI0
aI00
aI00
aI01
aI01
aI01
aI00
aI00
aI00
aa(lp2500
I234378
aF238.51200000000003
aF413.264
ag2479
aS'nimbussanl'
p2501
aS'#000000'
p2502
aF12.0
aI0
aI00
aI00
aI00
aI00
aI00
aI00
aI00
aI00
aa(lp2503
I7520
aF43.3
aF452.458
aVp3
p2504
aS'nimbussanl'
p2505
aS'#000000'
p2506
aF14.0
aI0
aI01
aI00
aI00
aI00
aI00
aI00
aI00
aI00
aa(lp2507
I234378
aF92.93435294117647
aF452.458
ag2504
aS'nimbussanl'
p2508
aS'#000000'
p2509
aF14.0
aI0
aI00
aI00
aI00
aI00
aI00
aI00
aI00
aI00
aa(lp2510
I234378
aF135.4894117647059
aF452.458
ag2504
aS'nimbussanl'
p2511
aS'#000000'
p2512
aF14.0
aI0
aI00
aI00
aI00
aI00
aI00
aI00
aI00
aI00
aa(lp2513
I132955
aF43.3
aF481.917
aVp3
p2514
aS'nimbussanl'
p2515
aS'#000000'
p2516
aF11.0
aI0
aI01
aI00
aI00
aI00
aI00
aI00
aI00
aI00
aa(lp2517
I144489
aF63.49971428571428
aF481.917
ag2514
aS'nimbussanl'
p2518
aS'#000000'
p2519
aF11.0
aI0
aI00
aI00
aI00
aI00
aI00
aI00
aI00
aI00
aa(lp2520
I132529
aF74.09957142857142
aF481.917
ag2514
aS'nimbussanl'
p2521
aS'#000000'
p2522
aF11.0
aI0
aI01
aI00
aI00
aI00
aI00
aI00
aI00
aI00
aa(lp2523
I234378
aF98.09921428571428
aF481.917
ag2514
aS'nimbussanl'
p2524
aS'#000000'
p2525
aF11.0
aI0
aI00
aI00
aI00
aI00
aI00
aI00
aI00
aI00
aa(lp2526
I234378
aF151.3
aF481.917
aVp3
p2527
aS'nimbussanl'
p2528
aS'#000000'
p2529
aF11.0
aI0
aI00
aI00
aI01
aI01
aI01
aI00
aI00
aI00
aa(lp2530
I89483
aF163.6
aF481.901
aVp3
p2531
aS'nimbussanl'
p2532
aS'#000000'
p2533
aF6.4
aI0
aI00
aI00
aI00
aI00
aI00
aI00
aI00
aI00
aa(lp2534
I58238
aF168.9
aF481.917
aVp3
p2535
aS'nimbussanl'
p2536
aS'#000000'
p2537
aF11.0
aI0
aI01
aI00
aI00
aI00
aI00
aI00
aI00
aI01
aa(lp2538
I234378
aF194.09022222222222
aF481.917
ag2535
aS'nimbussanl'
p2539
aS'#000000'
p2540
aF11.0
aI0
aI00
aI00
aI01
aI01
aI01
aI00
aI00
aI00
aa(lp2541
I184294
aF43.3
aF495.517
aVp3
p2542
aS'nimbussanl'
p2543
aS'#000000'
p2544
aF11.0
aI0
aI01
aI00
aI00
aI00
aI00
aI00
aI00
aI00
aa(lp2545
I234378
aF93.10158333333334
aF495.517
ag2542
aS'nimbussanl'
p2546
aS'#000000'
p2547
aF11.0
aI0
aI00
aI00
aI00
aI00
aI00
aI00
aI00
aI00
aa(lp2548
I163796
aF151.3
aF495.517
aVp3
p2549
aS'nimbussanl'
p2550
aS'#000000'
p2551
aF11.0
aI0
aI01
aI00
aI00
aI00
aI00
aI00
aI00
aI00
aa(lp2552
I16871
aF43.3
aF509.217
aVp3
p2553
aS'nimbussanl'
p2554
aS'#000000'
p2555
aF11.0
aI0
aI01
aI00
aI00
aI00
aI00
aI00
aI00
aI00
aa(lp2556
I234378
aF59.77525
aF509.217
ag2553
aS'nimbussanl'
p2557
aS'#000000'
p2558
aF11.0
aI0
aI00
aI00
aI00
aI00
aI00
aI00
aI00
aI00
aa(lp2559
I104428
aF151.3
aF509.217
aVp3
p2560
aS'nimbussanl'
p2561
aS'#000000'
p2562
aF11.0
aI0
aI01
aI00
aI00
aI00
aI00
aI00
aI00
aI00
aa(lp2563
I212271
aF43.3
aF522.817
aVp3
p2564
aS'nimbussanl'
p2565
aS'#000000'
p2566
aF11.0
aI0
aI01
aI00
aI00
aI00
aI00
aI00
aI00
aI00
aa(lp2567
I12510
aF77.06606666666666
aF522.817
ag2564
aS'nimbussanl'
p2568
aS'#000000'
p2569
aF11.0
aI0
aI01
aI00
aI00
aI00
aI00
aI00
aI00
aI00
aa(lp2570
I234378
aF105.15126666666666
aF522.817
ag2564
aS'nimbussanl'
p2571
aS'#000000'
p2572
aF11.0
aI0
aI00
aI00
aI00
aI00
aI00
aI00
aI00
aI00
aa(lp2573
I97834
aF151.3
aF522.817
aVp3
p2574
aS'nimbussanl'
p2575
aS'#000000'
p2576
aF11.0
aI0
aI01
aI00
aI00
aI00
aI00
aI00
aI00
aI00
aa(lp2577
I234378
aF43.3
aF536.517
aVp3
p2578
aS'nimbussanl'
p2579
aS'#000000'
p2580
aF11.0
aI0
aI01
aI00
aI00
aI00
aI00
aI00
aI00
aI00
aa(lp2581
I234378
aF115.3
aF536.517
aVp3
p2582
aS'nimbussanl'
p2583
aS'#000000'
p2584
aF11.0
aI0
aI00
aI00
aI00
aI00
aI00
aI00
aI00
aI00
aa(lp2585
I58002
aF151.3
aF536.517
aVp3
p2586
aS'nimbussanl'
p2587
aS'#000000'
p2588
aF11.0
aI0
aI01
aI00
aI00
aI00
aI00
aI00
aI00
aI00
aa(lp2589
I234378
aF186.72616000000002
aF536.517
ag2586
aS'nimbussanl'
p2590
aS'#000000'
p2591
aF11.0
aI0
aI00
aI00
aI00
aI00
aI00
aI00
aI00
aI00
aa(lp2592
I144532
aF192.78704000000002
aF536.517
ag2586
aS'nimbussanl'
p2593
aS'#000000'
p2594
aF11.0
aI0
aI01
aI00
aI00
aI00
aI00
aI00
aI00
aI00
aa(lp2595
I234378
aF211.09144000000003
aF536.517
ag2586
aS'nimbussanl'
p2596
aS'#000000'
p2597
aF11.0
aI0
aI00
aI00
aI00
aI00
aI00
aI00
aI00
aI00
aa(lp2598
I98778
aF224.15232000000003
aF536.517
ag2586
aS'nimbussanl'
p2599
aS'#000000'
p2600
aF11.0
aI0
aI01
aI00
aI00
aI00
aI00
aI00
aI00
aI00
aa(lp2601
I1
aI1
aI1
aI1
aI1
aI1
aI0
aI0
aI0
aI0
aI0
aI0
aI0
aI0
aI0
aI0
aI0
aI1
aI1
aI1
aI1
aI0
aI0
aI0
aI0
aI0
aI0
aI0
aI0
aI0
aI0
aI0
aI0
aI0
aI0
aI0
aI0
aI0
aI0
aI0
aI0
aI0
aI0
aI0
aI0
aI0
aI0
aI0
aI0
aI0
aI0
aI0
aI0
aI0
aI0
aI0
aI0
aI0
aI0
aI0
aI0
aI0
aI0
aI0
aI0
aI0
aI0
aI0
aI0
aI0
aI0
aI0
aI0
aI0
aI0
aI0
aI0
aI0
aI0
aI0
aI0
aI0
aI0
aI0
aI0
aI0
aI0
aI0
aI0
aI0
aI0
aI0
aI0
aI0
aI0
aI0
aI0
aI0
aI0
aI0
aI0
aI0
aI0
aI0
aI0
aI0
aI0
aI0
aI0
aI0
aI0
aI0
aI0
aI0
aI0
aI0
aI0
aI0
aI0
aI0
aI0
aI0
aI0
aI0
aI0
aI0
aI0
aI0
aI1
aI1
aI1
aI0
aI0
aI0
aI0
aI0
aI0
aI0
aI0
aI0
aI0
aI0
aI0
aI0
aI0
aI0
aI0
aI0
aI0
aI0
aI0
aI0
aI0
aI0
aI0
aI0
aI0
aI0
aI0
aI0
aI0
aI0
aI0
aI0
aI0
aI0
aI0
aI0
aI0
aI0
aI0
aI0
aI0
aI0
aI0
aI0
aI0
aI0
aI0
aI0
aI0
aI0
aI0
aI0
aI0
aI0
aI0
aI0
aI0
aI0
aI0
aI0
aI0
aI0
aI0
aI0
aI0
aI0
aI0
aI0
aI0
aI0
aI0
aI0
aI0
aI0
aI0
aI0
aI0
aI0
aI0
aI0
aI0
aI0
aI0
aI0
aI0
aI0
aI0
aI0
aI0
aI0
aI0
aI0
aI0
aI0
aI0
aI0
aI0
aI0
aI0
aI0
aI0
aI0
aI0
aI0
aI0
aI0
aI0
aI0
aI0
aI0
aI0
aI0
aI0
aI0
aI0
aI0
aI0
aI0
aI0
aI0
aI0
aI0
aI0
aI0
aI0
aI0
aI0
aI0
aI0
aI0
aI0
aI0
aI0
aI0
aI0
aI0
aI0
aI0
aI0
aI0
aI0
aI0
aI0
aI0
aI0
aI0
aI0
aI0
aI0
aI0
aI0
aI0
aI0
aI0
aI0
aI0
aI0
aI0
aI0
aI0
aI0
aI0
aI0
aI0
aI0
aI0
aI0
aI0
aI0
aI0
aI0
aI0
aI0
aI0
aI0
aI0
aI0
aI0
aI0
aI0
aI0
aI0
aI0
aI0
aI0
aI0
aI0
aI0
aI0
aI0
aI0
aI0
aI0
aI0
aI0
aI0
aI0
aI0
aI0
aI0
aI0
aI0
aI0
aI0
aI0
aI0
aI0
aI0
aI0
aI0
aI0
aI0
aI0
aI0
aI0
aI0
aI0
aI0
aI0
aI0
aI0
aI0
aI0
aI0
aI0
aI0
aI0
aI0
aI0
aI0
aI0
aI0
aI0
aI0
aI0
aI0
aI0
aI0
aI0
aI0
aI0
aI0
aI0
aI0
aI0
aI0
aI0
aI0
aI0
aI0
aI0
aI0
aI0
aI0
aI0
aI0
aI0
aI0
aI0
aI0
aI0
aI0
aI0
aI0
aI0
aI0
aI0
aI0
aI0
aI0
aI0
aI0
aI0
aI0
aI0
aI0
aI0
aI0
aI0
aI0
aI0
aI0
aI0
aI0
aI0
aI0
aI0
aI0
aI0
aI0
aI0
aI0
aI0
aI0
aI0
aI0
aI0
aI0
aI0
aI0
aI0
aI0
aI0
aI0
aI0
aI0
aI0
aI0
aI0
aI0
aI0
aI0
aI0
aI0
aI0
aI0
aI0
aI0
aI0
aI0
aI0
aI0
aI0
aI0
aI0
aI0
aI0
aI0
aI0
aI0
aI0
aI0
aI0
aI0
aI0
aI0
aI0
aI0
aI0
aI0
aI0
aI0
aI0
aI0
aI0
aI0
aI0
aI0
aI0
aI0
aI0
aI0
aI0
aI0
aI0
aI0
aI0
aI0
aI0
aI0
aI0
aI0
aI0
aI0
aI0
aI0
aI0
aI0
aI0
aI0
aI0
aI0
aI0
aI0
aI0
aI0
aI0
aI0
aI0
aI0
aI0
aI0
aI0
aI0
aI0
aI0
aI0
aI0
aI0
aI0
aI0
aI0
aI0
aI0
aI0
aI0
aI0
aI0
aI0
aI0
aI0
aI0
aI0
aI0
aI0
aI0
aI0
aI0
aI0
aI0
aI0
aI0
aI0
aI0
aI0
aI0
aI0
aI0
aI0
aI0
aI0
aI0
aI0
aI0
aI0
aI0
aI0
aI0
aI0
aI0
aI0
aI0
aI0
aI0
aI0
aI0
aI0
aI0
aI0
aI0
aI0
aI0
aI0
aI0
aI0
aI0
aI0
aI0
aI0
aI0
aI0
aI0
aI0
aI0
aI0
aI0
aI0
aI0
aI0
aI0
aI0
aI0
aI0
aI0
aI0
aI0
aI0
aI0
aI0
aI0
aI0
aI0
aI0
aI0
aI0
aI0
aI0
aI0
aI0
aI0
aI0
aI0
aI0
aI0
aI0
aI0
aI0
aI0
aI0
aI0
aI0
aI0
aI0
aI0
aI0
aI0
aI0
aI0
aI0
aI0
aI0
aI0
aI0
aI0
aI0
aI0
aI0
aI0
aI0
aI0
aI0
aI0
aI0
aI0
aI0
aI0
aI0
aI0
aI0
aI0
aI0
aI0
aI0
aI0
aI0
aI0
aI0
aI0
aI0
aI0
aI0
aI0
aI0
aI0
aI0
aI0
aI0
aI0
aI0
aI0
aI0
aI0
aI0
aI0
aI0
aI0
aI0
aI0
aI0
aI0
aI0
aI0
aI0
aI0
aI0
aI0
aI0
aI0
aI0
aI0
aI0
aI0
aI0
aI0
aI0
aI0
aI0
aI0
aI0
aI0
aI0
aI0
aI0
aI0
aI0
aI0
aI0
aI0
aI0
aI0
aI0
aI0
aI0
aI0
aI0
aI0
aI0
aI0
aI0
aI0
aI0
aI0
aI0
aI0
aI0
aI0
aI1
aI1
aI0
aI0
aI0
aI0
aI0
aI0
aI0
aI0
aI0
aI0
aI0
aI0
aI0
aI0
aI0
aI0
aI0
aI0
aI0
aI0
aI0
aI0
aI0
aI0
aI0
aI0
aI0
aI0
aI0
aI0
aI0
aI0
aI0
aI0
aI0
aI0
aI0
aI0
aI0
aI0
aI0
aI0
aI0
aI0
aI0
aI0
aI0
aI0
aI0
aI0
aI0
aI0
aI0
aI0
aI0
aI0
aI0
aI0
aI0
aI0
aI0
aI0
aI0
aI0
aI0
aI1
aI1
aI1
aI0
aI0
aI0
aI0
aI0
aI0
aI0
aI0
aI0
aI0
aI0
aI0
aI0
aI0
aI0
aI0
aI0
aI0
aI0
aI0
aI0
aI0
aI0
aI0
aI0
atp2602
.