((lp0
(lp1
I234378
aF217.1
aF91.264
aVp1
p2
aS'dejavusans'
p3
aS'#000000'
p4
aF12.0
aI1
aI01
aI00
aI00
aI00
aI00
aI00
aI00
aI00
aa(lp5
I222769
aF293.756
aF91.264
aVp1
p6
aS'dejavusans'
p7
aS'#000000'
p8
aF12.0
aI1
aI01
aI00
aI00
aI00
aI00
aI00
aI00
aI00
aa(lp9
I234378
aF366.908
aF91.264
aVp1
p10
aS'dejavusans'
p11
aS'#000000'
p12
aF12.0
aI1
aI01
aI00
aI00
aI00
aI00
aI00
aI00
aI00
aa(lp13
I234378
aF259.7
aF105.32
aVp1
p14
aS'dejavusans'
p15
aS'#000000'
p16
aF10.0
aI0
aI01
aI00
aI00
aI00
aI00
aI00
aI00
aI00
aa(lp17
I234378
aF270.14
aF105.32
ag14
aS'dejavusans'
p18
aS'#000000'
p19
aF10.0
aI0
aI00
aI00
aI00
aI00
aI00
aI00
aI00
aI00
aa(lp20
I234378
aF285.37
aF105.32
aVp1
p21
aS'dejavusans'
p22
aS'#000000'
p23
aF10.0
aI0
aI00
aI00
aI01
aI01
aI01
aI00
aI00
aI00
aa(lp24
I234378
aF316.87454545454545
aF105.32
ag21
aS'dejavusans'
p25
aS'#000000'
p26
aF10.0
aI0
aI00
aI00
aI01
aI01
aI01
aI00
aI00
aI00
aa(lp27
I165938
aF72.1
aF137.12
aVp1
p28
aS'dejavusans'
p29
aS'#000000'
p30
aF10.0
aI1
aI01
aI01
aI00
aI00
aI00
aI00
aI00
aI00
aa(lp31
I23021
aF161.47
aF137.12
aVp1
p32
aS'dejavusans'
p33
aS'#000000'
p34
aF10.0
aI1
aI01
aI01
aI00
aI00
aI00
aI00
aI00
aI00
aa(lp35
I2691
aF72.1
aF154.72
aVp1
p36
aS'dejavusans'
p37
aS'#000000'
p38
aF10.0
aI1
aI01
aI00
aI00
aI00
aI00
aI00
aI00
aI00
aa(lp39
I121293
aF96.99
aF154.72
aVp1
p40
aS'dejavusans'
p41
aS'#000000'
p42
aF10.0
aI1
aI01
aI00
aI00
aI00
aI00
aI00
aI00
aI00
aa(lp43
I21716
aF149.05
aF154.72
aVp1
p44
aS'dejavusans'
p45
aS'#000000'
p46
aF10.0
aI1
aI01
aI00
aI00
aI00
aI00
aI00
aI00
aI00
aa(lp47
I150037
aF176.33
aF154.72
aVp1
p48
aS'dejavusans'
p49
aS'#000000'
p50
aF10.0
aI1
aI01
aI00
aI00
aI00
aI00
aI00
aI00
aI00
aa(lp51
I169745
aF250.09
aF154.72
aVp1
p52
aS'dejavusans'
p53
aS'#000000'
p54
aF10.0
aI0
aI00
aI00
aI00
aI00
aI00
aI00
aI00
aI00
aa(lp55
I60220
aF274.37
aF154.72
aVp1
p56
aS'dejavusans'
p57
aS'#000000'
p58
aF10.0
aI0
aI00
aI00
aI00
aI00
aI00
aI00
aI00
aI00
aa(lp59
I135639
aF332.92
aF154.72
aVp1
p60
aS'dejavusans'
p61
aS'#000000'
p62
aF10.0
aI0
aI00
aI00
aI00
aI00
aI00
aI00
aI00
aI00
aa(lp63
I25931
aF345.2
aF154.72
aVp1
p64
aS'dejavusans'
p65
aS'#000000'
p66
aF10.0
aI0
aI01
aI00
aI00
aI00
aI00
aI00
aI00
aI00
aa(lp67
I96642
aF377.26
aF154.72
aVp1
p68
aS'dejavusans'
p69
aS'#000000'
p70
aF10.0
aI0
aI01
aI00
aI00
aI00
aI00
aI00
aI00
aI00
aa(lp71
I85218
aF413.23
aF154.72
aVp1
p72
aS'dejavusans'
p73
aS'#000000'
p74
aF10.0
aI0
aI00
aI00
aI00
aI00
aI00
aI00
aI00
aI00
aa(lp75
I17350
aF435.21
aF154.72
aVp1
p76
aS'dejavusans'
p77
aS'#000000'
p78
aF10.0
aI0
aI01
aI00
aI00
aI00
aI00
aI00
aI00
aI00
aa(lp79
I35885
aF454.7133333333333
aF154.72
ag76
aS'dejavusans'
p80
aS'#000000'
p81
aF10.0
aI0
aI00
aI00
aI00
aI00
aI00
aI00
aI00
aI00
aa(lp82
I234378
aF72.1
aF166.42
aVp1
p83
aS'dejavusans'
p84
aS'#000000'
p85
aF10.0
aI0
aI01
aI00
aI00
aI00
aI00
aI00
aI00
aI00
aa(lp86
I234378
aF134.24153846153845
aF166.42
ag83
aS'dejavusans'
p87
aS'#000000'
p88
aF10.0
aI0
aI00
aI00
aI00
aI00
aI00
aI00
aI00
aI00
aa(lp89
I166593
aF142.63
aF166.42
aVp1
p90
aS'dejavusans'
p91
aS'#000000'
p92
aF10.0
aI0
aI01
aI01
aI00
aI00
aI00
aI00
aI00
aI00
aa(lp93
I210461
aF152.62
aF166.42
aVp1
p94
aS'dejavusans'
p95
aS'#000000'
p96
aF10.0
aI0
aI00
aI00
aI00
aI00
aI00
aI00
aI00
aI00
aa(lp97
I155968
aF181.7
aF166.42
aVp1
p98
aS'dejavusans'
p99
aS'#000000'
p100
aF10.0
aI0
aI01
aI00
aI00
aI00
aI00
aI00
aI00
aI00
aa(lp101
I197390
aF215.97
aF166.42
aVp1
p102
aS'dejavusans'
p103
aS'#000000'
p104
aF10.0
aI0
aI00
aI00
aI00
aI00
aI00
aI00
aI00
aI00
aa(lp105
I234378
aF268.82454545454544
aF166.42
ag102
aS'dejavusans'
p106
aS'#000000'
p107
aF10.0
aI0
aI00
aI00
aI00
aI00
aI00
aI00
aI00
aI00
aa(lp108
I234378
aF108.1
aF184.68
aVp1
p109
aS'nimbusromno9l'
p110
aS'#000000'
p111
aF12.0
aI0
aI00
aI00
aI01
aI01
aI00
aI00
aI00
aI00
aa(lp112
I234378
aF115.23631168831169
aF184.68
ag109
aS'nimbusromno9l'
p113
aS'#000000'
p114
aF12.0
aI0
aI00
aI00
aI00
aI00
aI00
aI00
aI00
aI00
aa(lp115
I144489
aF141.91787012987012
aF184.68
ag109
aS'nimbusromno9l'
p116
aS'#000000'
p117
aF12.0
aI0
aI00
aI00
aI00
aI00
aI00
aI00
aI00
aI00
aa(lp118
I60220
aF153.1904935064935
aF184.68
ag109
aS'nimbusromno9l'
p119
aS'#000000'
p120
aF12.0
aI0
aI00
aI00
aI00
aI00
aI00
aI00
aI00
aI00
aa(lp121
I135639
aF205.55361038961038
aF184.68
ag109
aS'nimbusromno9l'
p122
aS'#000000'
p123
aF12.0
aI0
aI00
aI00
aI00
aI00
aI00
aI00
aI00
aI00
aa(lp124
I21716
aF216.82623376623377
aF184.68
ag109
aS'nimbusromno9l'
p125
aS'#000000'
p126
aF12.0
aI0
aI01
aI00
aI00
aI00
aI00
aI00
aI00
aI00
aa(lp127
I234378
aF237.3714805194805
aF184.68
ag109
aS'nimbusromno9l'
p128
aS'#000000'
p129
aF12.0
aI0
aI00
aI00
aI00
aI00
aI00
aI00
aI00
aI00
aa(lp130
I234378
aF242.5077922077922
aF184.68
ag109
aS'nimbusromno9l'
p131
aS'#000000'
p132
aF12.0
aI0
aI01
aI01
aI01
aI00
aI00
aI00
aI00
aI00
aa(lp133
I234378
aF264.05303896103896
aF184.68
ag109
aS'nimbusromno9l'
p134
aS'#000000'
p135
aF12.0
aI0
aI00
aI00
aI00
aI00
aI00
aI00
aI00
aI00
aa(lp136
I148996
aF328.6887792207792
aF184.68
ag109
aS'nimbusromno9l'
p137
aS'#000000'
p138
aF12.0
aI0
aI01
aI00
aI00
aI00
aI00
aI00
aI00
aI00
aa(lp139
I234378
aF359.50664935064935
aF184.68
ag109
aS'nimbusromno9l'
p140
aS'#000000'
p141
aF12.0
aI0
aI00
aI00
aI00
aI00
aI00
aI00
aI00
aI00
aa(lp142
I234378
aF365.64296103896106
aF184.68
ag109
aS'nimbusromno9l'
p143
aS'#000000'
p144
aF12.0
aI0
aI01
aI00
aI00
aI00
aI00
aI00
aI00
aI00
aa(lp145
I234378
aF388.4608311688312
aF184.68
ag109
aS'nimbusromno9l'
p146
aS'#000000'
p147
aF12.0
aI0
aI00
aI00
aI00
aI00
aI00
aI00
aI00
aI00
aa(lp148
I176767
aF402.5971428571429
aF184.68
ag109
aS'nimbusromno9l'
p149
aS'#000000'
p150
aF12.0
aI0
aI01
aI00
aI00
aI00
aI00
aI00
aI00
aI00
aa(lp151
I234378
aF448.8239480519481
aF184.68
ag109
aS'nimbusromno9l'
p152
aS'#000000'
p153
aF12.0
aI0
aI00
aI00
aI00
aI00
aI00
aI00
aI00
aI00
aa(lp154
I195547
aF108.1
aF203.12
aVp1
p155
aS'dejavusans'
p156
aS'#000000'
p157
aF10.0
aI1
aI01
aI00
aI00
aI00
aI00
aI00
aI00
aI00
aa(lp158
I47770
aF149.66
aF203.12
aVp1
p159
aS'dejavusans'
p160
aS'#000000'
p161
aF10.0
aI1
aI00
aI00
aI00
aI00
aI00
aI00
aI00
aI00
aa(lp162
I85218
aF207.92
aF203.12
aVp1
p163
aS'dejavusans'
p164
aS'#000000'
p165
aF10.0
aI1
aI00
aI00
aI00
aI00
aI00
aI00
aI00
aI00
aa(lp166
I3609
aF232.4
aF203.12
aVp1
p167
aS'dejavusans'
p168
aS'#000000'
p169
aF10.0
aI1
aI00
aI00
aI00
aI00
aI00
aI00
aI00
aI00
aa(lp170
I234378
aF282.65
aF203.12
aVp1
p171
aS'dejavusans'
p172
aS'#000000'
p173
aF10.0
aI1
aI00
aI00
aI00
aI00
aI00
aI00
aI00
aI00
aa(lp174
I234378
aF326.52
aF203.12
aVp1
p175
aS'dejavusans'
p176
aS'#000000'
p177
aF10.0
aI1
aI00
aI00
aI00
aI00
aI00
aI00
aI00
aI00
aa(lp178
I234378
aF370.48499999999996
aF203.12
ag175
aS'dejavusans'
p179
aS'#000000'
p180
aF10.0
aI1
aI00
aI00
aI00
aI00
aI00
aI00
aI00
aI00
aa(lp181
I128359
aF108.1
aF218.82
aVp1
p182
aS'dejavusans'
p183
aS'#000000'
p184
aF10.0
aI1
aI01
aI00
aI00
aI00
aI00
aI00
aI00
aI00
aa(lp185
I234378
aF163.06
aF218.82
aVp1
p186
aS'dejavusans'
p187
aS'#000000'
p188
aF10.0
aI1
aI00
aI00
aI00
aI00
aI00
aI00
aI00
aI00
aa(lp189
I234378
aF258.61
aF218.82
aVp1
p190
aS'dejavusans'
p191
aS'#000000'
p192
aF10.0
aI1
aI00
aI00
aI00
aI00
aI00
aI00
aI00
aI00
aa(lp193
I234378
aF286.52714285714285
aF218.82
ag190
aS'dejavusans'
p194
aS'#000000'
p195
aF10.0
aI1
aI00
aI00
aI00
aI00
aI00
aI00
aI00
aI00
aa(lp196
I137307
aF108.1
aF234.42
aVp1
p197
aS'dejavusans'
p198
aS'#000000'
p199
aF10.0
aI1
aI01
aI00
aI00
aI00
aI00
aI00
aI00
aI00
aa(lp200
I172883
aF136.98
aF234.42
aVp1
p201
aS'dejavusans'
p202
aS'#000000'
p203
aF10.0
aI1
aI00
aI00
aI00
aI00
aI00
aI00
aI00
aI00
aa(lp204
I135639
aF170.75
aF234.42
aVp1
p205
aS'dejavusans'
p206
aS'#000000'
p207
aF10.0
aI1
aI00
aI00
aI00
aI00
aI00
aI00
aI00
aI00
aa(lp208
I177216
aF184.74
aF234.42
aVp1
p209
aS'dejavusans'
p210
aS'#000000'
p211
aF10.0
aI1
aI00
aI00
aI00
aI00
aI00
aI00
aI00
aI00
aa(lp212
I85218
aF234.91
aF234.42
aVp1
p213
aS'dejavusans'
p214
aS'#000000'
p215
aF10.0
aI1
aI00
aI00
aI00
aI00
aI00
aI00
aI00
aI00
aa(lp216
I234378
aF259.39
aF234.42
aVp1
p217
aS'dejavusans'
p218
aS'#000000'
p219
aF10.0
aI1
aI00
aI00
aI00
aI00
aI00
aI00
aI00
aI00
aa(lp220
I85235
aF293.66
aF234.42
aVp1
p221
aS'dejavusans'
p222
aS'#000000'
p223
aF10.0
aI1
aI00
aI00
aI00
aI00
aI00
aI00
aI00
aI00
aa(lp224
I43052
aF317.45
aF234.42
aVp1
p225
aS'dejavusans'
p226
aS'#000000'
p227
aF10.0
aI1
aI00
aI00
aI00
aI00
aI00
aI00
aI00
aI00
aa(lp228
I234378
aF376.85
aF234.42
ag225
aS'dejavusans'
p229
aS'#000000'
p230
aF10.0
aI1
aI00
aI00
aI00
aI00
aI00
aI00
aI00
aI00
aa(lp231
I234378
aF72.1
aF255.72
aVp1
p232
aS'dejavusans'
p233
aS'#000000'
p234
aF10.0
aI1
aI01
aI01
aI00
aI00
aI00
aI00
aI00
aI00
aa(lp235
I23021
aF114.17
aF255.72
aVp1
p236
aS'dejavusans'
p237
aS'#000000'
p238
aF10.0
aI1
aI01
aI01
aI00
aI00
aI00
aI00
aI00
aI00
aa(lp239
I234378
aF72.1
aF273.42
aVp1
p240
aS'dejavusans'
p241
aS'#000000'
p242
aF10.0
aI1
aI01
aI00
aI00
aI00
aI00
aI00
aI00
aI00
aa(lp243
I234378
aF130.726
aF273.42
ag240
aS'dejavusans'
p244
aS'#000000'
p245
aF10.0
aI1
aI00
aI00
aI00
aI00
aI00
aI00
aI00
aI00
aa(lp246
I234378
aF140.49
aF273.42
aVp1
p247
aS'dejavusans'
p248
aS'#000000'
p249
aF10.0
aI0
aI01
aI00
aI00
aI00
aI00
aI00
aI00
aI00
aa(lp250
I234378
aF188.71727272727273
aF273.42
ag247
aS'dejavusans'
p251
aS'#000000'
p252
aF10.0
aI0
aI00
aI00
aI00
aI00
aI00
aI00
aI00
aI00
aa(lp253
I21716
aF196.86
aF273.42
aVp1
p254
aS'dejavusans'
p255
aS'#000000'
p256
aF10.0
aI0
aI01
aI00
aI00
aI00
aI00
aI00
aI00
aI00
aa(lp257
I234378
aF216.26800000000003
aF273.42
ag254
aS'dejavusans'
p258
aS'#000000'
p259
aF10.0
aI0
aI00
aI00
aI00
aI00
aI00
aI00
aI00
aI00
aa(lp260
I234378
aF224.33
aF273.42
aVp1
p261
aS'dejavusans'
p262
aS'#000000'
p263
aF10.0
aI0
aI01
aI01
aI01
aI00
aI00
aI00
aI00
aI00
aa(lp264
I234378
aF245.12555555555556
aF273.42
ag261
aS'dejavusans'
p265
aS'#000000'
p266
aF10.0
aI0
aI01
aI01
aI00
aI00
aI00
aI00
aI00
aI00
aa(lp267
I234378
aF259.97222222222223
aF273.42
ag261
aS'dejavusans'
p268
aS'#000000'
p269
aF10.0
aI0
aI00
aI00
aI00
aI00
aI00
aI00
aI00
aI00
aa(lp270
I234378
aF272.08
aF273.42
aVp1
p271
aS'dejavusans'
p272
aS'#000000'
p273
aF10.0
aI0
aI01
aI00
aI00
aI00
aI00
aI00
aI00
aI00
aa(lp274
I234378
aF310.88
aF273.42
ag271
aS'dejavusans'
p275
aS'#000000'
p276
aF10.0
aI0
aI00
aI00
aI00
aI00
aI00
aI00
aI00
aI00
aa(lp277
I234378
aF318.94
aF273.42
aVp1
p278
aS'dejavusans'
p279
aS'#000000'
p280
aF10.0
aI0
aI01
aI01
aI00
aI00
aI00
aI00
aI00
aI00
aa(lp281
I234378
aF336.1525
aF273.42
ag278
aS'dejavusans'
p282
aS'#000000'
p283
aF10.0
aI0
aI00
aI00
aI00
aI00
aI00
aI00
aI00
aI00
aa(lp284
I234378
aF345.1
aF273.42
aVp1
p285
aS'dejavusans'
p286
aS'#000000'
p287
aF10.0
aI0
aI01
aI00
aI00
aI00
aI00
aI00
aI00
aI00
aa(lp288
I234378
aF364.908
aF273.42
ag285
aS'dejavusans'
p289
aS'#000000'
p290
aF10.0
aI0
aI00
aI00
aI00
aI00
aI00
aI00
aI00
aI00
aa(lp291
I234378
aF72.1
aF285.02
aVp1
p292
aS'dejavusans'
p293
aS'#000000'
p294
aF10.0
aI1
aI01
aI00
aI00
aI00
aI00
aI00
aI00
aI00
aa(lp295
I234378
aF138.13636363636363
aF285.02
ag292
aS'dejavusans'
p296
aS'#000000'
p297
aF10.0
aI1
aI00
aI00
aI00
aI00
aI00
aI00
aI00
aI00
aa(lp298
I234378
aF147.99
aF285.02
aVp1
p299
aS'dejavusans'
p300
aS'#000000'
p301
aF10.0
aI0
aI01
aI00
aI00
aI00
aI00
aI00
aI00
aI00
aa(lp302
I234378
aF176.1642857142857
aF285.02
ag299
aS'dejavusans'
p303
aS'#000000'
p304
aF10.0
aI0
aI00
aI00
aI00
aI00
aI00
aI00
aI00
aI00
aa(lp305
I176767
aF184.17
aF285.02
aVp1
p306
aS'dejavusans'
p307
aS'#000000'
p308
aF10.0
aI0
aI01
aI00
aI00
aI00
aI00
aI00
aI00
aI00
aa(lp309
I234378
aF231.27599999999998
aF285.02
ag306
aS'dejavusans'
p310
aS'#000000'
p311
aF10.0
aI0
aI00
aI00
aI00
aI00
aI00
aI00
aI00
aI00
aa(lp312
I148996
aF239.72
aF285.02
aVp1
p313
aS'dejavusans'
p314
aS'#000000'
p315
aF10.0
aI0
aI01
aI00
aI00
aI00
aI00
aI00
aI00
aI00
aa(lp316
I234378
aF269.9428571428571
aF285.02
ag313
aS'dejavusans'
p317
aS'#000000'
p318
aF10.0
aI0
aI00
aI00
aI00
aI00
aI00
aI00
aI00
aI00
aa(lp319
I234378
aF72.1
aF296.72
aVp1
p320
aS'dejavusans'
p321
aS'#000000'
p322
aF10.0
aI1
aI01
aI00
aI00
aI00
aI00
aI00
aI00
aI00
aa(lp323
I234378
aF128.926
aF296.72
ag320
aS'dejavusans'
p324
aS'#000000'
p325
aF10.0
aI1
aI00
aI00
aI00
aI00
aI00
aI00
aI00
aI00
aa(lp326
I45445
aF138.49
aF296.72
aVp1
p327
aS'dejavusans'
p328
aS'#000000'
p329
aF10.0
aI0
aI01
aI00
aI00
aI00
aI00
aI00
aI00
aI00
aa(lp330
I234378
aF169.03857142857143
aF296.72
ag327
aS'dejavusans'
p331
aS'#000000'
p332
aF10.0
aI0
aI00
aI00
aI00
aI00
aI00
aI00
aI00
aI00
aa(lp333
I234378
aF177.34
aF296.72
aVp1
p334
aS'dejavusans'
p335
aS'#000000'
p336
aF10.0
aI0
aI01
aI01
aI00
aI00
aI00
aI00
aI00
aI00
aa(lp337
I234378
aF208.715
aF296.72
ag334
aS'dejavusans'
p338
aS'#000000'
p339
aF10.0
aI0
aI00
aI00
aI00
aI00
aI00
aI00
aI00
aI00
aa(lp340
I234378
aF218.2
aF296.72
aVp1
p341
aS'dejavusans'
p342
aS'#000000'
p343
aF10.0
aI0
aI01
aI00
aI00
aI00
aI00
aI00
aI00
aI00
aa(lp344
I234378
aF258.6088888888889
aF296.72
ag341
aS'dejavusans'
p345
aS'#000000'
p346
aF10.0
aI0
aI00
aI00
aI00
aI00
aI00
aI00
aI00
aI00
aa(lp347
I17350
aF72.1
aF308.32
aVp1
p348
aS'dejavusans'
p349
aS'#000000'
p350
aF10.0
aI1
aI01
aI00
aI00
aI00
aI00
aI00
aI00
aI00
aa(lp351
I234378
aF100.17
aF308.32
aVp1
p352
aS'dejavusans'
p353
aS'#000000'
p354
aF10.0
aI1
aI01
aI00
aI00
aI00
aI00
aI00
aI00
aI00
aa(lp355
I234378
aF168.97
aF308.32
ag352
aS'dejavusans'
p356
aS'#000000'
p357
aF10.0
aI1
aI00
aI00
aI00
aI00
aI00
aI00
aI00
aI00
aa(lp358
I234378
aF174.70333333333332
aF308.32
ag352
aS'dejavusans'
p359
aS'#000000'
p360
aF10.0
aI1
aI01
aI00
aI00
aI00
aI00
aI00
aI00
aI00
aa(lp361
I234378
aF214.83666666666664
aF308.32
ag352
aS'dejavusans'
p362
aS'#000000'
p363
aF10.0
aI1
aI00
aI00
aI00
aI00
aI00
aI00
aI00
aI00
aa(lp364
I77592
aF223.89
aF308.32
aVp1
p365
aS'dejavusans'
p366
aS'#000000'
p367
aF10.0
aI0
aI01
aI00
aI00
aI00
aI00
aI00
aI00
aI00
aa(lp368
I110786
aF264.36
aF308.32
aVp1
p369
aS'dejavusans'
p370
aS'#000000'
p371
aF10.0
aI0
aI01
aI00
aI00
aI00
aI00
aI00
aI00
aI00
aa(lp372
I234378
aF297.66857142857145
aF308.32
ag369
aS'dejavusans'
p373
aS'#000000'
p374
aF10.0
aI0
aI00
aI00
aI00
aI00
aI00
aI00
aI00
aI00
aa(lp375
I234378
aF306.53
aF308.32
aVp1
p376
aS'dejavusans'
p377
aS'#000000'
p378
aF10.0
aI0
aI01
aI00
aI00
aI00
aI00
aI00
aI00
aI00
aa(lp379
I234378
aF359.486
aF308.32
ag376
aS'dejavusans'
p380
aS'#000000'
p381
aF10.0
aI0
aI00
aI00
aI00
aI00
aI00
aI00
aI00
aI00
aa(lp382
I234378
aF368.68
aF308.32
aVp1
p383
aS'dejavusans'
p384
aS'#000000'
p385
aF10.0
aI0
aI01
aI00
aI00
aI00
aI00
aI00
aI00
aI00
aa(lp386
I234378
aF411.64
aF308.32
ag383
aS'dejavusans'
p387
aS'#000000'
p388
aF10.0
aI0
aI00
aI00
aI00
aI00
aI00
aI00
aI00
aI00
aa(lp389
I234378
aF420.32
aF308.32
aVp1
p390
aS'dejavusans'
p391
aS'#000000'
p392
aF10.0
aI0
aI01
aI00
aI00
aI00
aI00
aI00
aI00
aI00
aa(lp393
I234378
aF444.87
aF308.32
ag390
aS'dejavusans'
p394
aS'#000000'
p395
aF10.0
aI0
aI00
aI00
aI00
aI00
aI00
aI00
aI00
aI00
aa(lp396
I234378
aF72.1
aF320.02
aVp1
p397
aS'dejavusans'
p398
aS'#000000'
p399
aF10.0
aI1
aI01
aI00
aI00
aI00
aI00
aI00
aI00
aI00
aa(lp400
I234378
aF99.23333333333332
aF320.02
ag397
aS'dejavusans'
p401
aS'#000000'
p402
aF10.0
aI1
aI00
aI00
aI00
aI00
aI00
aI00
aI00
aI00
aa(lp403
I55029
aF108.2
aF320.02
aVp1
p404
aS'dejavusans'
p405
aS'#000000'
p406
aF10.0
aI0
aI01
aI01
aI00
aI00
aI00
aI00
aI00
aI00
aa(lp407
I234378
aF126.3275
aF320.02
ag404
aS'dejavusans'
p408
aS'#000000'
p409
aF10.0
aI0
aI00
aI00
aI00
aI00
aI00
aI00
aI00
aI00
aa(lp410
I234378
aF135.68
aF320.02
aVp1
p411
aS'dejavusans'
p412
aS'#000000'
p413
aF10.0
aI0
aI01
aI01
aI00
aI00
aI00
aI00
aI00
aI00
aa(lp414
I100815
aF158.56
aF320.02
aVp1
p415
aS'dejavusans'
p416
aS'#000000'
p417
aF10.0
aI0
aI01
aI00
aI00
aI00
aI00
aI00
aI00
aI00
aa(lp418
I234378
aF207.64600000000002
aF320.02
ag415
aS'dejavusans'
p419
aS'#000000'
p420
aF10.0
aI0
aI00
aI00
aI00
aI00
aI00
aI00
aI00
aI00
aa(lp421
I223319
aF216.31
aF320.02
aVp1
p422
aS'dejavusans'
p423
aS'#000000'
p424
aF10.0
aI0
aI01
aI00
aI00
aI00
aI00
aI00
aI00
aI00
aa(lp425
I234378
aF249.76125
aF320.02
ag422
aS'dejavusans'
p426
aS'#000000'
p427
aF10.0
aI0
aI00
aI00
aI00
aI00
aI00
aI00
aI00
aI00
aa(lp428
I199183
aF257.89
aF320.02
aVp1
p429
aS'dejavusans'
p430
aS'#000000'
p431
aF10.0
aI0
aI01
aI00
aI00
aI00
aI00
aI00
aI00
aI00
aa(lp432
I234378
aF299.77
aF320.02
aVp1
p433
aS'dejavusans'
p434
aS'#000000'
p435
aF10.0
aI0
aI01
aI01
aI00
aI00
aI00
aI00
aI00
aI00
aa(lp436
I234378
aF317.59
aF320.02
ag433
aS'dejavusans'
p437
aS'#000000'
p438
aF10.0
aI0
aI00
aI00
aI00
aI00
aI00
aI00
aI00
aI00
aa(lp439
I234378
aF326.84
aF320.02
aVp1
p440
aS'dejavusans'
p441
aS'#000000'
p442
aF10.0
aI0
aI01
aI01
aI00
aI00
aI00
aI00
aI00
aI00
aa(lp443
I3672
aF351.51
aF320.02
aVp1
p444
aS'dejavusans'
p445
aS'#000000'
p446
aF10.0
aI0
aI01
aI00
aI00
aI00
aI00
aI00
aI00
aI00
aa(lp447
I25931
aF397.06
aF320.02
aVp1
p448
aS'dejavusans'
p449
aS'#000000'
p450
aF10.0
aI0
aI01
aI00
aI00
aI00
aI00
aI00
aI00
aI00
aa(lp451
I234378
aF424.52285714285716
aF320.02
ag448
aS'dejavusans'
p452
aS'#000000'
p453
aF10.0
aI0
aI00
aI00
aI00
aI00
aI00
aI00
aI00
aI00
aa(lp454
I203338
aF72.1
aF331.62
aVp1
p455
aS'dejavusans'
p456
aS'#000000'
p457
aF10.0
aI1
aI01
aI00
aI00
aI00
aI00
aI00
aI00
aI00
aa(lp458
I234378
aF124.56
aF331.62
aVp1
p459
aS'dejavusans'
p460
aS'#000000'
p461
aF10.0
aI1
aI01
aI00
aI00
aI00
aI00
aI00
aI00
aI00
aa(lp462
I234378
aF175.91
aF331.62
aVp1
p463
aS'dejavusans'
p464
aS'#000000'
p465
aF10.0
aI1
aI01
aI00
aI00
aI00
aI00
aI00
aI00
aI00
aa(lp466
I234378
aF246.82999999999998
aF331.62
ag463
aS'dejavusans'
p467
aS'#000000'
p468
aF10.0
aI1
aI00
aI00
aI00
aI00
aI00
aI00
aI00
aI00
aa(lp469
I54779
aF256.09
aF331.62
aVp1
p470
aS'dejavusans'
p471
aS'#000000'
p472
aF10.0
aI0
aI01
aI00
aI00
aI00
aI00
aI00
aI00
aI00
aa(lp473
I156204
aF290.27
aF331.62
aVp1
p474
aS'dejavusans'
p475
aS'#000000'
p476
aF10.0
aI0
aI00
aI00
aI00
aI00
aI00
aI00
aI00
aI00
aa(lp477
I234378
aF306.67249999999996
aF331.62
ag474
aS'dejavusans'
p478
aS'#000000'
p479
aF10.0
aI0
aI00
aI00
aI00
aI00
aI00
aI00
aI00
aI00
aa(lp480
I234378
aF315.36
aF331.62
aVp1
p481
aS'dejavusans'
p482
aS'#000000'
p483
aF10.0
aI0
aI01
aI01
aI00
aI00
aI00
aI00
aI00
aI00
aa(lp484
I234378
aF333.105
aF331.62
ag481
aS'dejavusans'
p485
aS'#000000'
p486
aF10.0
aI0
aI00
aI00
aI00
aI00
aI00
aI00
aI00
aI00
aa(lp487
I234378
aF342.33
aF331.62
aVp1
p488
aS'dejavusans'
p489
aS'#000000'
p490
aF10.0
aI0
aI01
aI00
aI00
aI00
aI00
aI00
aI00
aI00
aa(lp491
I234378
aF373.5728571428571
aF331.62
ag488
aS'dejavusans'
p492
aS'#000000'
p493
aF10.0
aI0
aI00
aI00
aI00
aI00
aI00
aI00
aI00
aI00
aa(lp494
I17350
aF381.9
aF331.62
aVp1
p495
aS'dejavusans'
p496
aS'#000000'
p497
aF10.0
aI0
aI01
aI00
aI00
aI00
aI00
aI00
aI00
aI00
aa(lp498
I234378
aF406.88
aF331.62
aVp1
p499
aS'dejavusans'
p500
aS'#000000'
p501
aF10.0
aI0
aI00
aI00
aI00
aI00
aI00
aI00
aI00
aI00
aa(lp502
I85218
aF451.04
aF331.62
aVp1
p503
aS'dejavusans'
p504
aS'#000000'
p505
aF10.0
aI0
aI00
aI00
aI00
aI00
aI00
aI00
aI00
aI00
aa(lp506
I165851
aF473.02
aF331.62
aVp1
p507
aS'dejavusans'
p508
aS'#000000'
p509
aF10.0
aI0
aI01
aI00
aI00
aI00
aI00
aI00
aI00
aI00
aa(lp510
I234378
aF515.09
aF331.62
aVp1
p511
aS'dejavusans'
p512
aS'#000000'
p513
aF10.0
aI0
aI01
aI01
aI00
aI00
aI00
aI00
aI00
aI00
aa(lp514
I234378
aF523.33
aF331.62
ag511
aS'dejavusans'
p515
aS'#000000'
p516
aF10.0
aI0
aI00
aI00
aI00
aI00
aI00
aI00
aI00
aI00
aa(lp517
I60220
aF72.1
aF349.32
aVp1
p518
aS'dejavusans'
p519
aS'#000000'
p520
aF10.0
aI1
aI01
aI01
aI00
aI00
aI00
aI00
aI00
aI00
aa(lp521
I234378
aF145.06
aF349.32
aVp1
p522
aS'dejavusans'
p523
aS'#000000'
p524
aF10.0
aI1
aI01
aI01
aI00
aI00
aI00
aI00
aI00
aI00
aa(lp525
I58095
aF72.1
aF366.92
aVp1
p526
aS'dejavusans'
p527
aS'#000000'
p528
aF10.0
aI1
aI01
aI01
aI00
aI00
aI00
aI00
aI00
aI00
aa(lp529
I19068
aF97.78
aF366.92
aVp1
p530
aS'dejavusans'
p531
aS'#000000'
p532
aF10.0
aI1
aI01
aI00
aI00
aI00
aI00
aI00
aI00
aI00
aa(lp533
I85988
aF72.1
aF384.62
aVp1
p534
aS'dejavusans'
p535
aS'#000000'
p536
aF10.0
aI1
aI01
aI00
aI00
aI00
aI00
aI00
aI00
aI01
aa(lp537
I234378
aF136.6
aF384.62
aVp1
p538
aS'dejavusans'
p539
aS'#000000'
p540
aF10.0
aI1
aI00
aI00
aI01
aI01
aI01
aI00
aI00
aI00
aa(lp541
I102117
aF175.7
aF384.62
aVp1
p542
aS'dejavusans'
p543
aS'#000000'
p544
aF10.0
aI1
aI01
aI01
aI00
aI00
aI00
aI00
aI00
aI00
aa(lp545
I234378
aF72.1
aF396.22
aVp1
p546
aS'dejavusans'
p547
aS'#000000'
p548
aF10.0
aI1
aI01
aI00
aI00
aI00
aI00
aI00
aI00
aI00
aa(lp549
I48604
aF122.4
aF396.22
aVp1
p550
aS'dejavusans'
p551
aS'#000000'
p552
aF10.0
aI1
aI01
aI00
aI00
aI00
aI00
aI00
aI00
aI00
aa(lp553
I177958
aF72.1
aF415.42
aVp1
p554
aS'dejavusans'
p555
aS'#000000'
p556
aF10.0
aI1
aI01
aI01
aI00
aI00
aI00
aI00
aI00
aI00
aa(lp557
I127485
aF123.88
aF415.42
aVp1
p558
aS'dejavusans'
p559
aS'#000000'
p560
aF10.0
aI1
aI01
aI01
aI00
aI00
aI00
aI00
aI00
aI00
aa(lp561
I177958
aF72.1
aF433.02
aVp1
p562
aS'dejavusans'
p563
aS'#000000'
p564
aF10.0
aI1
aI01
aI00
aI00
aI00
aI00
aI00
aI00
aI00
aa(lp565
I234378
aF109.97874999999999
aF433.02
ag562
aS'dejavusans'
p566
aS'#000000'
p567
aF10.0
aI1
aI00
aI00
aI00
aI00
aI00
aI00
aI00
aI00
aa(lp568
I17057
aF118.79
aF433.02
aVp1
p569
aS'dejavusans'
p570
aS'#000000'
p571
aF10.0
aI1
aI01
aI00
aI00
aI00
aI00
aI00
aI00
aI00
aa(lp572
I234378
aF169.49
aF433.02
aVp1
p573
aS'dejavusans'
p574
aS'#000000'
p575
aF10.0
aI1
aI01
aI00
aI00
aI00
aI00
aI00
aI00
aI00
aa(lp576
I25931
aF72.1
aF444.72
aVp1
p577
aS'dejavusans'
p578
aS'#000000'
p579
aF10.0
aI1
aI01
aI00
aI00
aI00
aI00
aI00
aI00
aI00
aa(lp580
I234378
aF103.11999999999999
aF444.72
ag577
aS'dejavusans'
p581
aS'#000000'
p582
aF10.0
aI1
aI00
aI00
aI00
aI00
aI00
aI00
aI00
aI00
aa(lp583
I234378
aF111.8
aF444.72
aVp1
p584
aS'dejavusans'
p585
aS'#000000'
p586
aF10.0
aI0
aI01
aI00
aI00
aI00
aI00
aI00
aI00
aI00
aa(lp587
I188984
aF129.6075
aF444.72
ag584
aS'dejavusans'
p588
aS'#000000'
p589
aF10.0
aI0
aI00
aI00
aI00
aI00
aI00
aI00
aI00
aI00
aa(lp590
I234378
aF159.7
aF444.72
aVp1
p591
aS'dejavusans'
p592
aS'#000000'
p593
aF10.0
aI0
aI01
aI01
aI00
aI00
aI00
aI00
aI00
aI00
aa(lp594
I234378
aF177.14499999999998
aF444.72
ag591
aS'dejavusans'
p595
aS'#000000'
p596
aF10.0
aI0
aI00
aI00
aI00
aI00
aI00
aI00
aI00
aI00
aa(lp597
I120031
aF72.1
aF456.32
aVp1
p598
aS'dejavusans'
p599
aS'#000000'
p600
aF10.0
aI1
aI01
aI00
aI00
aI00
aI00
aI00
aI00
aI00
aa(lp601
I234378
aF119.36222222222221
aF456.32
ag598
aS'dejavusans'
p602
aS'#000000'
p603
aF10.0
aI1
aI00
aI00
aI00
aI00
aI00
aI00
aI00
aI00
aa(lp604
I19232
aF128.59
aF456.32
aVp1
p605
aS'dejavusans'
p606
aS'#000000'
p607
aF10.0
aI0
aI01
aI00
aI00
aI00
aI00
aI00
aI00
aI01
aa(lp608
I234378
aF183.55
aF456.32
aVp1
p609
aS'dejavusans'
p610
aS'#000000'
p611
aF10.0
aI0
aI00
aI00
aI01
aI01
aI01
aI00
aI00
aI00
aa(lp612
I102117
aF220.31
aF456.32
aVp1
p613
aS'dejavusans'
p614
aS'#000000'
p615
aF10.0
aI0
aI01
aI00
aI00
aI00
aI00
aI00
aI00
aI00
aa(lp616
I66756
aF72.1
aF479.62
aVp1
p617
aS'dejavusans'
p618
aS'#000000'
p619
aF10.0
aI1
aI01
aI00
aI00
aI00
aI00
aI00
aI00
aI00
aa(lp620
I234378
aF130.73
aF479.62
ag617
aS'dejavusans'
p621
aS'#000000'
p622
aF10.0
aI1
aI00
aI00
aI00
aI00
aI00
aI00
aI00
aI00
aa(lp623
I17057
aF137.06
aF479.62
ag617
aS'dejavusans'
p624
aS'#000000'
p625
aF10.0
aI1
aI01
aI00
aI00
aI00
aI00
aI00
aI00
aI00
aa(lp626
I234378
aF187.0
aF479.62
aVp1
p627
aS'dejavusans'
p628
aS'#000000'
p629
aF10.0
aI0
aI01
aI00
aI00
aI00
aI00
aI00
aI00
aI00
aa(lp630
I123665
aF225.19
aF479.62
aVp1
p631
aS'dejavusans'
p632
aS'#000000'
p633
aF10.0
aI0
aI00
aI00
aI00
aI00
aI00
aI00
aI00
aI00
aa(lp634
I22474
aF282.29
aF479.62
aVp1
p635
aS'dejavusans'
p636
aS'#000000'
p637
aF10.0
aI0
aI00
aI00
aI00
aI00
aI00
aI00
aI00
aI00
aa(lp638
I25729
aF293.19
aF479.62
aVp1
p639
aS'dejavusans'
p640
aS'#000000'
p641
aF10.0
aI0
aI00
aI00
aI00
aI00
aI00
aI00
aI00
aI00
aa(lp642
I190806
aF319.89
aF479.62
aVp1
p643
aS'dejavusans'
p644
aS'#000000'
p645
aF10.0
aI0
aI00
aI00
aI00
aI00
aI00
aI00
aI00
aI00
aa(lp646
I234378
aF336.39
aF479.62
aVp1
p647
aS'dejavusans'
p648
aS'#000000'
p649
aF10.0
aI0
aI00
aI00
aI00
aI00
aI00
aI00
aI00
aI00
aa(lp650
I174268
aF379.68
aF479.62
aVp1
p651
aS'dejavusans'
p652
aS'#000000'
p653
aF10.0
aI0
aI00
aI00
aI00
aI00
aI00
aI00
aI00
aI00
aa(lp654
I234378
aF418.68
aF479.62
aVp1
p655
aS'dejavusans'
p656
aS'#000000'
p657
aF10.0
aI0
aI00
aI00
aI00
aI00
aI00
aI00
aI00
aI00
aa(lp658
I190806
aF445.88
aF479.62
aVp1
p659
aS'dejavusans'
p660
aS'#000000'
p661
aF10.0
aI0
aI00
aI00
aI00
aI00
aI00
aI00
aI00
aI00
aa(lp662
I234378
aF462.38
aF479.62
aVp1
p663
aS'dejavusans'
p664
aS'#000000'
p665
aF10.0
aI0
aI00
aI00
aI00
aI00
aI00
aI00
aI00
aI00
aa(lp666
I85218
aF505.68
aF479.62
aVp1
p667
aS'dejavusans'
p668
aS'#000000'
p669
aF10.0
aI0
aI00
aI00
aI00
aI00
aI00
aI00
aI00
aI00
aa(lp670
I234378
aF72.1
aF491.32
aVp1
p671
aS'dejavusans'
p672
aS'#000000'
p673
aF10.0
aI0
aI00
aI00
aI00
aI00
aI00
aI00
aI00
aI00
aa(lp674
I52532
aF114.3
aF491.32
aVp1
p675
aS'dejavusans'
p676
aS'#000000'
p677
aF10.0
aI0
aI00
aI00
aI00
aI00
aI00
aI00
aI00
aI00
aa(lp678
I73167
aF159.0
aF491.32
aVp1
p679
aS'dejavusans'
p680
aS'#000000'
p681
aF10.0
aI0
aI00
aI00
aI00
aI00
aI00
aI00
aI00
aI00
aa(lp682
I218768
aF186.8
aF491.32
aVp1
p683
aS'dejavusans'
p684
aS'#000000'
p685
aF10.0
aI0
aI00
aI00
aI00
aI00
aI00
aI00
aI00
aI00
aa(lp686
I74911
aF224.5
aF491.32
aVp1
p687
aS'dejavusans'
p688
aS'#000000'
p689
aF10.0
aI0
aI00
aI00
aI00
aI00
aI00
aI00
aI00
aI00
aa(lp690
I234378
aF279.1975
aF491.32
ag687
aS'dejavusans'
p691
aS'#000000'
p692
aF10.0
aI0
aI00
aI00
aI00
aI00
aI00
aI00
aI00
aI00
aa(lp693
I46544
aF287.29
aF491.32
aVp1
p694
aS'dejavusans'
p695
aS'#000000'
p696
aF10.0
aI0
aI01
aI00
aI00
aI00
aI00
aI00
aI00
aI00
aa(lp697
I177958
aF310.39
aF491.32
aVp1
p698
aS'dejavusans'
p699
aS'#000000'
p700
aF10.0
aI0
aI00
aI00
aI00
aI00
aI00
aI00
aI00
aI00
aa(lp701
I234378
aF347.49
aF491.32
aVp1
p702
aS'dejavusans'
p703
aS'#000000'
p704
aF10.0
aI0
aI00
aI00
aI00
aI00
aI00
aI00
aI00
aI00
aa(lp705
I135639
aF373.99
aF491.32
aVp1
p706
aS'dejavusans'
p707
aS'#000000'
p708
aF10.0
aI0
aI00
aI00
aI00
aI00
aI00
aI00
aI00
aI00
aa(lp709
I204911
aF385.99
aF491.32
aVp1
p710
aS'dejavusans'
p711
aS'#000000'
p712
aF10.0
aI0
aI00
aI00
aI00
aI00
aI00
aI00
aI00
aI00
aa(lp713
I234378
aF397.862
aF491.32
ag710
aS'dejavusans'
p714
aS'#000000'
p715
aF10.0
aI0
aI00
aI00
aI00
aI00
aI00
aI00
aI00
aI00
aa(lp716
I194354
aF470.58
aF491.32
aVp1
p717
aS'dejavusans'
p718
aS'#000000'
p719
aF10.0
aI0
aI00
aI00
aI00
aI00
aI00
aI00
aI00
aI00
aa(lp720
I12248
aF489.78
aF491.32
aVp1
p721
aS'dejavusans'
p722
aS'#000000'
p723
aF10.0
aI0
aI00
aI00
aI00
aI00
aI00
aI00
aI00
aI00
aa(lp724
I123665
aF72.1
aF502.92
aVp1
p725
aS'dejavusans'
p726
aS'#000000'
p727
aF10.0
aI0
aI00
aI00
aI00
aI00
aI00
aI00
aI00
aI00
aa(lp728
I234378
aF129.29
aF502.92
aVp1
p729
aS'dejavusans'
p730
aS'#000000'
p731
aF10.0
aI0
aI00
aI00
aI00
aI00
aI00
aI00
aI00
aI00
aa(lp732
I80364
aF158.89
aF502.92
aVp1
p733
aS'dejavusans'
p734
aS'#000000'
p735
aF10.0
aI0
aI00
aI00
aI00
aI00
aI00
aI00
aI00
aI00
aa(lp736
I234378
aF182.29
aF502.92
aVp1
p737
aS'dejavusans'
p738
aS'#000000'
p739
aF10.0
aI0
aI00
aI00
aI00
aI00
aI00
aI00
aI00
aI00
aa(lp740
I89480
aF247.89
aF502.92
aVp1
p741
aS'dejavusans'
p742
aS'#000000'
p743
aF10.0
aI0
aI00
aI00
aI00
aI00
aI00
aI00
aI00
aI00
aa(lp744
I143306
aF260.79
aF502.92
aVp1
p745
aS'dejavusans'
p746
aS'#000000'
p747
aF10.0
aI0
aI00
aI00
aI00
aI00
aI00
aI00
aI00
aI00
aa(lp748
I194354
aF304.08
aF502.92
aVp1
p749
aS'dejavusans'
p750
aS'#000000'
p751
aF10.0
aI0
aI00
aI00
aI00
aI00
aI00
aI00
aI00
aI00
aa(lp752
I35109
aF323.27
aF502.92
aVp1
p753
aS'dejavusans'
p754
aS'#000000'
p755
aF10.0
aI0
aI00
aI00
aI00
aI00
aI00
aI00
aI00
aI00
aa(lp756
I85218
aF346.77
aF502.92
aVp1
p757
aS'dejavusans'
p758
aS'#000000'
p759
aF10.0
aI0
aI00
aI00
aI00
aI00
aI00
aI00
aI00
aI00
aa(lp760
I42222
aF368.37
aF502.92
aVp1
p761
aS'dejavusans'
p762
aS'#000000'
p763
aF10.0
aI0
aI00
aI00
aI00
aI00
aI00
aI00
aI00
aI00
aa(lp764
I144489
aF389.67
aF502.92
aVp1
p765
aS'dejavusans'
p766
aS'#000000'
p767
aF10.0
aI0
aI00
aI00
aI00
aI00
aI00
aI00
aI00
aI00
aa(lp768
I194354
aF402.17
aF502.92
aVp1
p769
aS'dejavusans'
p770
aS'#000000'
p771
aF10.0
aI0
aI00
aI00
aI00
aI00
aI00
aI00
aI00
aI00
aa(lp772
I12248
aF421.37
aF502.92
aVp1
p773
aS'dejavusans'
p774
aS'#000000'
p775
aF10.0
aI0
aI00
aI00
aI00
aI00
aI00
aI00
aI00
aI00
aa(lp776
I123665
aF456.67
aF502.92
aVp1
p777
aS'dejavusans'
p778
aS'#000000'
p779
aF10.0
aI0
aI00
aI00
aI00
aI00
aI00
aI00
aI00
aI00
aa(lp780
I234378
aF508.9841666666667
aF502.92
ag777
aS'dejavusans'
p781
aS'#000000'
p782
aF10.0
aI0
aI00
aI00
aI00
aI00
aI00
aI00
aI00
aI00
aa(lp783
I234378
aF72.1
aF526.22
aVp1
p784
aS'dejavusans'
p785
aS'#000000'
p786
aF10.0
aI1
aI01
aI00
aI00
aI00
aI00
aI00
aI00
aI00
aa(lp787
I234378
aF114.4
aF526.22
aVp1
p788
aS'dejavusans'
p789
aS'#000000'
p790
aF10.0
aI1
aI01
aI00
aI00
aI00
aI00
aI00
aI00
aI00
aa(lp791
I234378
aF200.6964705882353
aF526.22
ag788
aS'dejavusans'
p792
aS'#000000'
p793
aF10.0
aI1
aI00
aI00
aI00
aI00
aI00
aI00
aI00
aI00
aa(lp794
I105322
aF108.1
aF549.52
aVp1
p795
aS'dejavusans'
p796
aS'#000000'
p797
aF10.0
aI0
aI01
aI00
aI00
aI00
aI00
aI00
aI00
aI00
aa(lp798
I135639
aF152.9
aF549.52
aVp1
p799
aS'dejavusans'
p800
aS'#000000'
p801
aF10.0
aI0
aI00
aI00
aI00
aI00
aI00
aI00
aI00
aI00
aa(lp802
I190926
aF164.9
aF549.52
aVp1
p803
aS'dejavusans'
p804
aS'#000000'
p805
aF10.0
aI0
aI00
aI00
aI00
aI00
aI00
aI00
aI00
aI00
aa(lp806
I234378
aF196.1
aF549.52
aVp1
p807
aS'dejavusans'
p808
aS'#000000'
p809
aF10.0
aI0
aI00
aI00
aI00
aI00
aI00
aI00
aI00
aI00
aa(lp810
I234378
aF241.79
aF549.52
aVp1
p811
aS'dejavusans'
p812
aS'#000000'
p813
aF10.0
aI0
aI00
aI00
aI00
aI00
aI00
aI00
aI00
aI00
aa(lp814
I25784
aF108.1
aF561.92
aVp1
p815
aS'dejavusans'
p816
aS'#000000'
p817
aF10.0
aI0
aI01
aI00
aI00
aI00
aI00
aI00
aI00
aI00
aa(lp818
I166593
aF150.0
aF561.92
aVp1
p819
aS'dejavusans'
p820
aS'#000000'
p821
aF10.0
aI0
aI00
aI00
aI00
aI00
aI00
aI00
aI00
aI00
aa(lp822
I210461
aF159.1
aF561.92
aVp1
p823
aS'dejavusans'
p824
aS'#000000'
p825
aF10.0
aI0
aI00
aI00
aI00
aI00
aI00
aI00
aI00
aI00
aa(lp826
I144489
aF187.7
aF561.92
aVp1
p827
aS'dejavusans'
p828
aS'#000000'
p829
aF10.0
aI0
aI00
aI00
aI00
aI00
aI00
aI00
aI00
aI00
aa(lp830
I76457
aF200.2
aF561.92
aVp1
p831
aS'dejavusans'
p832
aS'#000000'
p833
aF10.0
aI0
aI00
aI00
aI00
aI00
aI00
aI00
aI00
aI00
aa(lp834
I234378
aF229.19
aF561.92
aVp1
p835
aS'dejavusans'
p836
aS'#000000'
p837
aF10.0
aI0
aI00
aI00
aI00
aI00
aI00
aI00
aI00
aI00
aa(lp838
I202216
aF108.1
aF574.32
aVp1
p839
aS'dejavusans'
p840
aS'#000000'
p841
aF10.0
aI0
aI01
aI00
aI00
aI00
aI00
aI00
aI00
aI00
aa(lp842
I166558
aF174.39
aF574.32
aVp1
p843
aS'dejavusans'
p844
aS'#000000'
p845
aF10.0
aI0
aI00
aI00
aI00
aI00
aI00
aI00
aI00
aI00
aa(lp846
I85218
aF217.19
aF574.32
aVp1
p847
aS'dejavusans'
p848
aS'#000000'
p849
aF10.0
aI0
aI00
aI00
aI00
aI00
aI00
aI00
aI00
aI00
aa(lp850
I68032
aF238.79
aF574.32
aVp1
p851
aS'dejavusans'
p852
aS'#000000'
p853
aF10.0
aI0
aI00
aI00
aI00
aI00
aI00
aI00
aI00
aI00
aa(lp854
I234378
aF301.00416666666666
aF574.32
ag851
aS'dejavusans'
p855
aS'#000000'
p856
aF10.0
aI0
aI00
aI00
aI00
aI00
aI00
aI00
aI00
aI00
aa(lp857
I112275
aF108.1
aF586.72
aVp1
p858
aS'dejavusans'
p859
aS'#000000'
p860
aF10.0
aI0
aI01
aI00
aI00
aI00
aI00
aI00
aI00
aI00
aa(lp861
I125078
aF131.2
aF586.72
aVp1
p862
aS'dejavusans'
p863
aS'#000000'
p864
aF10.0
aI0
aI00
aI00
aI00
aI00
aI00
aI00
aI00
aI00
aa(lp865
I85218
aF168.2
aF586.72
aVp1
p866
aS'dejavusans'
p867
aS'#000000'
p868
aF10.0
aI0
aI00
aI00
aI00
aI00
aI00
aI00
aI00
aI00
aa(lp869
I147316
aF189.8
aF586.72
aVp1
p870
aS'dejavusans'
p871
aS'#000000'
p872
aF10.0
aI0
aI00
aI00
aI00
aI00
aI00
aI00
aI00
aI00
aa(lp873
I234378
aF230.6
aF586.72
aVp1
p874
aS'dejavusans'
p875
aS'#000000'
p876
aF10.0
aI0
aI00
aI00
aI00
aI00
aI00
aI00
aI00
aI00
aa(lp877
I234378
aF273.4818181818182
aF586.72
ag874
aS'dejavusans'
p878
aS'#000000'
p879
aF10.0
aI0
aI00
aI00
aI00
aI00
aI00
aI00
aI00
aI00
aa(lp880
I234378
aF72.1
aF622.42
aVp1
p881
aS'dejavusans'
p882
aS'#000000'
p883
aF10.0
aI1
aI01
aI00
aI00
aI00
aI00
aI00
aI00
aI00
aa(lp884
I25729
aF125.59
aF622.42
aVp1
p885
aS'dejavusans'
p886
aS'#000000'
p887
aF10.0
aI1
aI01
aI00
aI00
aI00
aI00
aI00
aI00
aI00
aa(lp888
I234378
aF150.446
aF622.42
ag885
aS'dejavusans'
p889
aS'#000000'
p890
aF10.0
aI1
aI00
aI00
aI00
aI00
aI00
aI00
aI00
aI00
aa(lp891
I21716
aF159.7
aF622.42
aVp1
p892
aS'dejavusans'
p893
aS'#000000'
p894
aF10.0
aI0
aI01
aI00
aI00
aI00
aI00
aI00
aI00
aI00
aa(lp895
I234378
aF178.71599999999998
aF622.42
ag892
aS'dejavusans'
p896
aS'#000000'
p897
aF10.0
aI0
aI00
aI00
aI00
aI00
aI00
aI00
aI00
aI00
aa(lp898
I165851
aF186.49
aF622.42
aVp1
p899
aS'dejavusans'
p900
aS'#000000'
p901
aF10.0
aI0
aI01
aI00
aI00
aI00
aI00
aI00
aI00
aI00
aa(lp902
I234378
aF227.79
aF622.42
aVp1
p903
aS'dejavusans'
p904
aS'#000000'
p905
aF10.0
aI0
aI01
aI01
aI00
aI00
aI00
aI00
aI00
aI00
aa(lp906
I234378
aF235.97
aF622.42
ag903
aS'dejavusans'
p907
aS'#000000'
p908
aF10.0
aI0
aI00
aI00
aI00
aI00
aI00
aI00
aI00
aI00
aa(lp909
I89217
aF242.99
aF622.42
aVp1
p910
aS'dejavusans'
p911
aS'#000000'
p912
aF10.0
aI0
aI01
aI00
aI00
aI00
aI00
aI00
aI00
aI00
aa(lp913
I234378
aF267.49
aF622.42
aVp1
p914
aS'dejavusans'
p915
aS'#000000'
p916
aF10.0
aI0
aI00
aI00
aI00
aI00
aI00
aI00
aI00
aI00
aa(lp917
I234378
aF306.04111111111115
aF622.42
ag914
aS'dejavusans'
p918
aS'#000000'
p919
aF10.0
aI0
aI00
aI00
aI00
aI00
aI00
aI00
aI00
aI00
aa(lp920
I234378
aF313.89
aF622.42
aVp1
p921
aS'dejavusans'
p922
aS'#000000'
p923
aF10.0
aI0
aI01
aI00
aI00
aI00
aI00
aI00
aI00
aI00
aa(lp924
I234378
aF352.6188888888889
aF622.42
ag921
aS'dejavusans'
p925
aS'#000000'
p926
aF10.0
aI0
aI00
aI00
aI00
aI00
aI00
aI00
aI00
aI00
aa(lp927
I223319
aF360.49
aF622.42
aVp1
p928
aS'dejavusans'
p929
aS'#000000'
p930
aF10.0
aI0
aI01
aI00
aI00
aI00
aI00
aI00
aI00
aI00
aa(lp931
I177958
aF72.1
aF657.42
aVp1
p932
aS'dejavusans'
p933
aS'#000000'
p934
aF10.0
aI1
aI01
aI00
aI00
aI00
aI00
aI00
aI00
aI00
aa(lp935
I234378
aF109.97874999999999
aF657.42
ag932
aS'dejavusans'
p936
aS'#000000'
p937
aF10.0
aI1
aI00
aI00
aI00
aI00
aI00
aI00
aI00
aI00
aa(lp938
I234378
aF118.79
aF657.42
aVp1
p939
aS'dejavusans'
p940
aS'#000000'
p941
aF10.0
aI1
aI01
aI01
aI00
aI00
aI00
aI00
aI00
aI00
aa(lp942
I234378
aF153.79
aF657.42
aVp1
p943
aS'dejavusans'
p944
aS'#000000'
p945
aF10.0
aI1
aI01
aI00
aI00
aI00
aI00
aI00
aI00
aI00
aa(lp946
I154743
aF192.98
aF657.42
aVp1
p947
aS'dejavusans'
p948
aS'#000000'
p949
aF10.0
aI1
aI01
aI00
aI00
aI00
aI00
aI00
aI00
aI00
aa(lp950
I213740
aF221.68
aF657.42
aVp1
p951
aS'dejavusans'
p952
aS'#000000'
p953
aF10.0
aI1
aI00
aI00
aI00
aI00
aI00
aI00
aI00
aI00
aa(lp954
I25931
aF72.1
aF669.02
aVp1
p955
aS'dejavusans'
p956
aS'#000000'
p957
aF10.0
aI1
aI01
aI00
aI00
aI00
aI00
aI00
aI00
aI00
aa(lp958
I234378
aF103.11999999999999
aF669.02
ag955
aS'dejavusans'
p959
aS'#000000'
p960
aF10.0
aI1
aI00
aI00
aI00
aI00
aI00
aI00
aI00
aI00
aa(lp961
I234378
aF111.8
aF669.02
aVp1
p962
aS'dejavusans'
p963
aS'#000000'
p964
aF10.0
aI0
aI01
aI00
aI00
aI00
aI00
aI00
aI00
aI00
aa(lp965
I188984
aF129.195
aF669.02
ag962
aS'dejavusans'
p966
aS'#000000'
p967
aF10.0
aI0
aI01
aI00
aI00
aI00
aI00
aI00
aI00
aI00
aa(lp968
I234378
aF158.6
aF669.02
aVp1
p969
aS'dejavusans'
p970
aS'#000000'
p971
aF10.0
aI0
aI01
aI01
aI00
aI00
aI00
aI00
aI00
aI00
aa(lp972
I234378
aF175.9775
aF669.02
ag969
aS'dejavusans'
p973
aS'#000000'
p974
aF10.0
aI0
aI00
aI00
aI00
aI00
aI00
aI00
aI00
aI00
aa(lp975
I120031
aF72.1
aF680.72
aVp1
p976
aS'dejavusans'
p977
aS'#000000'
p978
aF10.0
aI1
aI01
aI00
aI00
aI00
aI00
aI00
aI00
aI00
aa(lp979
I234378
aF119.36222222222221
aF680.72
ag976
aS'dejavusans'
p980
aS'#000000'
p981
aF10.0
aI1
aI00
aI00
aI00
aI00
aI00
aI00
aI00
aI00
aa(lp982
I58238
aF128.59
aF680.72
aVp1
p983
aS'dejavusans'
p984
aS'#000000'
p985
aF10.0
aI0
aI01
aI00
aI00
aI00
aI00
aI00
aI00
aI01
aa(lp986
I234378
aF153.56
aF680.72
aVp1
p987
aS'dejavusans'
p988
aS'#000000'
p989
aF10.0
aI0
aI00
aI00
aI01
aI01
aI01
aI00
aI00
aI00
aa(lp990
I234378
aF190.23
aF680.72
aVp1
p991
aS'dejavusans'
p992
aS'#000000'
p993
aF10.0
aI0
aI01
aI00
aI00
aI00
aI00
aI00
aI00
aI01
aa(lp994
I234378
aF212.91
aF680.72
aVp1
p995
aS'dejavusans'
p996
aS'#000000'
p997
aF10.0
aI0
aI00
aI00
aI01
aI01
aI01
aI00
aI00
aI00
aa(lp998
I234378
aF72.1
aF79.27
aVp2
p999
aS'nimbussanl'
p1000
aS'#000000'
p1001
aF10.0
aI0
aI01
aI00
aI00
aI00
aI00
aI00
aI00
aI00
aa(lp1002
I222769
aF117.2375
aF79.27
ag999
aS'nimbussanl'
p1003
aS'#000000'
p1004
aF10.0
aI0
aI01
aI00
aI00
aI00
aI00
aI00
aI00
aI00
aa(lp1005
I234378
aF162.375
aF79.27
ag999
aS'nimbussanl'
p1006
aS'#000000'
p1007
aF10.0
aI0
aI01
aI00
aI00
aI00
aI00
aI00
aI00
aI00
aa(lp1008
I234378
aF413.2
aF79.56
aVp2
p1009
aS'nimbusromno9l'
p1010
aS'#000000'
p1011
aF10.0
aI0
aI00
aI00
aI01
aI01
aI01
aI00
aI00
aI00
aa(lp1012
I234378
aF427.17
aF79.56
ag1009
aS'nimbusromno9l'
p1013
aS'#000000'
p1014
aF10.0
aI0
aI00
aI00
aI01
aI01
aI01
aI00
aI00
aI00
aa(lp1015
I66756
aF72.1
aF105.82
aVp2
p1016
aS'dejavusans'
p1017
aS'#000000'
p1018
aF10.0
aI1
aI01
aI00
aI00
aI00
aI00
aI00
aI00
aI00
aa(lp1019
I234378
aF131.740625
aF105.82
ag1016
aS'dejavusans'
p1020
aS'#000000'
p1021
aF10.0
aI1
aI00
aI00
aI00
aI00
aI00
aI00
aI00
aI00
aa(lp1022
I234378
aF138.1625
aF105.82
ag1016
aS'dejavusans'
p1023
aS'#000000'
p1024
aF10.0
aI1
aI01
aI01
aI00
aI00
aI00
aI00
aI00
aI00
aa(lp1025
I234378
aF161.8
aF105.82
aVp2
p1026
aS'dejavusans'
p1027
aS'#000000'
p1028
aF10.0
aI0
aI01
aI01
aI01
aI00
aI00
aI00
aI00
aI00
aa(lp1029
I234378
aF177.9
aF105.82
aVp2
p1030
aS'dejavusans'
p1031
aS'#000000'
p1032
aF10.0
aI0
aI00
aI00
aI00
aI00
aI00
aI00
aI00
aI00
aa(lp1033
I234378
aF182.97857142857143
aF105.82
ag1030
aS'dejavusans'
p1034
aS'#000000'
p1035
aF10.0
aI0
aI01
aI00
aI00
aI00
aI00
aI00
aI00
aI00
aa(lp1036
I154743
aF216.4
aF105.82
aVp2
p1037
aS'dejavusans'
p1038
aS'#000000'
p1039
aF10.0
aI0
aI01
aI00
aI00
aI00
aI00
aI00
aI00
aI00
aa(lp1040
I213740
aF241.9
aF105.82
aVp2
p1041
aS'dejavusans'
p1042
aS'#000000'
p1043
aF10.0
aI0
aI01
aI00
aI00
aI00
aI00
aI00
aI00
aI00
aa(lp1044
I234378
aF258.06
aF105.82
ag1041
aS'dejavusans'
p1045
aS'#000000'
p1046
aF10.0
aI0
aI00
aI00
aI00
aI00
aI00
aI00
aI00
aI00
aa(lp1047
I123665
aF265.1
aF105.82
aVp2
p1048
aS'dejavusans'
p1049
aS'#000000'
p1050
aF10.0
aI0
aI00
aI00
aI00
aI00
aI00
aI00
aI00
aI00
aa(lp1051
I22474
aF322.2
aF105.82
aVp2
p1052
aS'dejavusans'
p1053
aS'#000000'
p1054
aF10.0
aI0
aI00
aI00
aI00
aI00
aI00
aI00
aI00
aI00
aa(lp1055
I11472
aF333.1
aF105.82
aVp2
p1056
aS'dejavusans'
p1057
aS'#000000'
p1058
aF10.0
aI0
aI00
aI00
aI00
aI00
aI00
aI00
aI00
aI00
aa(lp1059
I234378
aF382.1
aF105.82
aVp2
p1060
aS'dejavusans'
p1061
aS'#000000'
p1062
aF10.0
aI0
aI00
aI00
aI00
aI00
aI00
aI00
aI00
aI00
aa(lp1063
I10716
aF425.7
aF105.82
aVp2
p1064
aS'dejavusans'
p1065
aS'#000000'
p1066
aF10.0
aI0
aI00
aI00
aI00
aI00
aI00
aI00
aI00
aI00
aa(lp1067
I154743
aF445.5
aF105.82
aVp2
p1068
aS'dejavusans'
p1069
aS'#000000'
p1070
aF10.0
aI0
aI01
aI00
aI00
aI00
aI00
aI00
aI00
aI00
aa(lp1071
I8059
aF470.9
aF105.82
aVp2
p1072
aS'dejavusans'
p1073
aS'#000000'
p1074
aF10.0
aI0
aI00
aI00
aI00
aI00
aI00
aI00
aI00
aI00
aa(lp1075
I85218
aF514.0
aF105.82
aVp2
p1076
aS'dejavusans'
p1077
aS'#000000'
p1078
aF10.0
aI0
aI00
aI00
aI00
aI00
aI00
aI00
aI00
aI00
aa(lp1079
I20593
aF72.1
aF117.42
aVp2
p1080
aS'dejavusans'
p1081
aS'#000000'
p1082
aF10.0
aI0
aI00
aI00
aI00
aI00
aI00
aI00
aI00
aI00
aa(lp1083
I190806
aF139.59
aF117.42
aVp2
p1084
aS'dejavusans'
p1085
aS'#000000'
p1086
aF10.0
aI0
aI00
aI00
aI00
aI00
aI00
aI00
aI00
aI00
aa(lp1087
I234378
aF156.09
aF117.42
aVp2
p1088
aS'dejavusans'
p1089
aS'#000000'
p1090
aF10.0
aI0
aI01
aI00
aI00
aI00
aI00
aI00
aI00
aI00
aa(lp1091
I234378
aF200.58
aF117.42
aVp2
p1092
aS'dejavusans'
p1093
aS'#000000'
p1094
aF10.0
aI0
aI01
aI01
aI00
aI00
aI00
aI00
aI00
aI00
aa(lp1095
I234378
aF231.58
aF117.42
aVp2
p1096
aS'dejavusans'
p1097
aS'#000000'
p1098
aF10.0
aI0
aI01
aI00
aI00
aI00
aI00
aI00
aI00
aI00
aa(lp1099
I234378
aF256.7216666666667
aF117.42
ag1096
aS'dejavusans'
p1100
aS'#000000'
p1101
aF10.0
aI0
aI00
aI00
aI00
aI00
aI00
aI00
aI00
aI00
aa(lp1102
I184870
aF264.87
aF117.42
aVp2
p1103
aS'dejavusans'
p1104
aS'#000000'
p1105
aF10.0
aI0
aI01
aI00
aI00
aI00
aI00
aI00
aI00
aI00
aa(lp1106
I46544
aF308.76
aF117.42
aVp2
p1107
aS'dejavusans'
p1108
aS'#000000'
p1109
aF10.0
aI0
aI00
aI00
aI00
aI00
aI00
aI00
aI00
aI00
aa(lp1110
I123665
aF329.66
aF117.42
aVp2
p1111
aS'dejavusans'
p1112
aS'#000000'
p1113
aF10.0
aI0
aI00
aI00
aI00
aI00
aI00
aI00
aI00
aI00
aa(lp1114
I234378
aF386.76
aF117.42
aVp2
p1115
aS'dejavusans'
p1116
aS'#000000'
p1117
aF10.0
aI0
aI01
aI00
aI00
aI00
aI00
aI00
aI00
aI00
aa(lp1118
I188984
aF404.1925
aF117.42
ag1115
aS'dejavusans'
p1119
aS'#000000'
p1120
aF10.0
aI0
aI01
aI00
aI00
aI00
aI00
aI00
aI00
aI00
aa(lp1121
I154743
aF433.56
aF117.42
aVp2
p1122
aS'dejavusans'
p1123
aS'#000000'
p1124
aF10.0
aI0
aI01
aI00
aI00
aI00
aI00
aI00
aI00
aI00
aa(lp1125
I213740
aF459.06
aF117.42
aVp2
p1126
aS'dejavusans'
p1127
aS'#000000'
p1128
aF10.0
aI0
aI01
aI00
aI00
aI00
aI00
aI00
aI00
aI00
aa(lp1129
I138783
aF478.46
aF117.42
aVp2
p1130
aS'dejavusans'
p1131
aS'#000000'
p1132
aF10.0
aI0
aI00
aI00
aI00
aI00
aI00
aI00
aI00
aI00
aa(lp1133
I61195
aF72.1
aF129.12
aVp2
p1134
aS'dejavusans'
p1135
aS'#000000'
p1136
aF10.0
aI0
aI00
aI00
aI00
aI00
aI00
aI00
aI00
aI00
aa(lp1137
I85218
aF112.9
aF129.12
aVp2
p1138
aS'dejavusans'
p1139
aS'#000000'
p1140
aF10.0
aI0
aI00
aI00
aI00
aI00
aI00
aI00
aI00
aI00
aa(lp1141
I234378
aF134.5
aF129.12
aVp2
p1142
aS'dejavusans'
p1143
aS'#000000'
p1144
aF10.0
aI0
aI00
aI00
aI00
aI00
aI00
aI00
aI00
aI00
aa(lp1145
I194354
aF177.4
aF129.12
aVp2
p1146
aS'dejavusans'
p1147
aS'#000000'
p1148
aF10.0
aI0
aI00
aI00
aI00
aI00
aI00
aI00
aI00
aI00
aa(lp1149
I234378
aF196.6
aF129.12
aVp2
p1150
aS'dejavusans'
p1151
aS'#000000'
p1152
aF10.0
aI0
aI00
aI00
aI00
aI00
aI00
aI00
aI00
aI00
aa(lp1153
I190806
aF225.3
aF129.12
aVp2
p1154
aS'dejavusans'
p1155
aS'#000000'
p1156
aF10.0
aI0
aI00
aI00
aI00
aI00
aI00
aI00
aI00
aI00
aa(lp1157
I154743
aF241.9
aF129.12
aVp2
p1158
aS'dejavusans'
p1159
aS'#000000'
p1160
aF10.0
aI0
aI00
aI00
aI00
aI00
aI00
aI00
aI00
aI00
aa(lp1161
I213740
aF267.1
aF129.12
aVp2
p1162
aS'dejavusans'
p1163
aS'#000000'
p1164
aF10.0
aI0
aI00
aI00
aI00
aI00
aI00
aI00
aI00
aI00
aa(lp1165
I84932
aF285.0
aF129.12
aVp2
p1166
aS'dejavusans'
p1167
aS'#000000'
p1168
aF10.0
aI0
aI00
aI00
aI00
aI00
aI00
aI00
aI00
aI00
aa(lp1169
I38577
aF303.99
aF129.12
aVp2
p1170
aS'dejavusans'
p1171
aS'#000000'
p1172
aF10.0
aI0
aI00
aI00
aI00
aI00
aI00
aI00
aI00
aI00
aa(lp1173
I234378
aF326.12600000000003
aF129.12
ag1170
aS'dejavusans'
p1174
aS'#000000'
p1175
aF10.0
aI0
aI00
aI00
aI00
aI00
aI00
aI00
aI00
aI00
aa(lp1176
I194354
aF337.69
aF129.12
aVp2
p1177
aS'dejavusans'
p1178
aS'#000000'
p1179
aF10.0
aI0
aI01
aI00
aI00
aI00
aI00
aI00
aI00
aI00
aa(lp1180
I166245
aF359.09
aF129.12
aVp2
p1181
aS'dejavusans'
p1182
aS'#000000'
p1183
aF10.0
aI0
aI00
aI00
aI00
aI00
aI00
aI00
aI00
aI00
aa(lp1184
I61195
aF404.99
aF129.12
aVp2
p1185
aS'dejavusans'
p1186
aS'#000000'
p1187
aF10.0
aI0
aI00
aI00
aI00
aI00
aI00
aI00
aI00
aI00
aa(lp1188
I207716
aF445.79
aF129.12
aVp2
p1189
aS'dejavusans'
p1190
aS'#000000'
p1191
aF10.0
aI0
aI00
aI00
aI00
aI00
aI00
aI00
aI00
aI00
aa(lp1192
I234378
aF484.39
aF129.12
aVp2
p1193
aS'dejavusans'
p1194
aS'#000000'
p1195
aF10.0
aI0
aI01
aI00
aI00
aI00
aI00
aI00
aI00
aI00
aa(lp1196
I22474
aF72.1
aF140.72
aVp2
p1197
aS'dejavusans'
p1198
aS'#000000'
p1199
aF10.0
aI0
aI00
aI00
aI00
aI00
aI00
aI00
aI00
aI00
aa(lp1200
I1629
aF83.0
aF140.72
aVp2
p1201
aS'dejavusans'
p1202
aS'#000000'
p1203
aF10.0
aI0
aI00
aI00
aI00
aI00
aI00
aI00
aI00
aI00
aa(lp1204
I25729
aF113.5
aF140.72
aVp2
p1205
aS'dejavusans'
p1206
aS'#000000'
p1207
aF10.0
aI0
aI00
aI00
aI00
aI00
aI00
aI00
aI00
aI00
aa(lp1208
I190806
aF140.3
aF140.72
aVp2
p1209
aS'dejavusans'
p1210
aS'#000000'
p1211
aF10.0
aI0
aI00
aI00
aI00
aI00
aI00
aI00
aI00
aI00
aa(lp1212
I154743
aF156.8
aF140.72
aVp2
p1213
aS'dejavusans'
p1214
aS'#000000'
p1215
aF10.0
aI0
aI00
aI00
aI00
aI00
aI00
aI00
aI00
aI00
aa(lp1216
I138783
aF182.0
aF140.72
aVp2
p1217
aS'dejavusans'
p1218
aS'#000000'
p1219
aF10.0
aI0
aI00
aI00
aI00
aI00
aI00
aI00
aI00
aI00
aa(lp1220
I61195
aF227.99
aF140.72
aVp2
p1221
aS'dejavusans'
p1222
aS'#000000'
p1223
aF10.0
aI0
aI00
aI00
aI00
aI00
aI00
aI00
aI00
aI00
aa(lp1224
I234378
aF263.66375
aF140.72
ag1221
aS'dejavusans'
p1225
aS'#000000'
p1226
aF10.0
aI0
aI00
aI00
aI00
aI00
aI00
aI00
aI00
aI00
aa(lp1227
I234378
aF72.1
aF164.02
aVp2
p1228
aS'dejavusans'
p1229
aS'#000000'
p1230
aF10.0
aI1
aI01
aI00
aI00
aI00
aI00
aI00
aI00
aI00
aa(lp1231
I234378
aF114.4
aF164.02
aVp2
p1232
aS'dejavusans'
p1233
aS'#000000'
p1234
aF10.0
aI1
aI01
aI00
aI00
aI00
aI00
aI00
aI00
aI00
aa(lp1235
I234378
aF200.6964705882353
aF164.02
ag1232
aS'dejavusans'
p1236
aS'#000000'
p1237
aF10.0
aI1
aI00
aI00
aI00
aI00
aI00
aI00
aI00
aI00
aa(lp1238
I105322
aF108.1
aF175.72
aVp2
p1239
aS'dejavusans'
p1240
aS'#000000'
p1241
aF10.0
aI0
aI01
aI00
aI00
aI00
aI00
aI00
aI00
aI00
aa(lp1242
I135639
aF152.9
aF175.72
aVp2
p1243
aS'dejavusans'
p1244
aS'#000000'
p1245
aF10.0
aI0
aI00
aI00
aI00
aI00
aI00
aI00
aI00
aI00
aa(lp1246
I190926
aF164.9
aF175.72
aVp2
p1247
aS'dejavusans'
p1248
aS'#000000'
p1249
aF10.0
aI0
aI00
aI00
aI00
aI00
aI00
aI00
aI00
aI00
aa(lp1250
I234378
aF196.1
aF175.72
aVp2
p1251
aS'dejavusans'
p1252
aS'#000000'
p1253
aF10.0
aI0
aI00
aI00
aI00
aI00
aI00
aI00
aI00
aI00
aa(lp1254
I234378
aF241.79
aF175.72
aVp2
p1255
aS'dejavusans'
p1256
aS'#000000'
p1257
aF10.0
aI0
aI00
aI00
aI00
aI00
aI00
aI00
aI00
aI00
aa(lp1258
I202216
aF108.1
aF188.12
aVp2
p1259
aS'dejavusans'
p1260
aS'#000000'
p1261
aF10.0
aI0
aI01
aI00
aI00
aI00
aI00
aI00
aI00
aI00
aa(lp1262
I166558
aF174.39
aF188.12
aVp2
p1263
aS'dejavusans'
p1264
aS'#000000'
p1265
aF10.0
aI0
aI00
aI00
aI00
aI00
aI00
aI00
aI00
aI00
aa(lp1266
I85218
aF217.19
aF188.12
aVp2
p1267
aS'dejavusans'
p1268
aS'#000000'
p1269
aF10.0
aI0
aI00
aI00
aI00
aI00
aI00
aI00
aI00
aI00
aa(lp1270
I68032
aF238.79
aF188.12
aVp2
p1271
aS'dejavusans'
p1272
aS'#000000'
p1273
aF10.0
aI0
aI00
aI00
aI00
aI00
aI00
aI00
aI00
aI00
aa(lp1274
I234378
aF301.00416666666666
aF188.12
ag1271
aS'dejavusans'
p1275
aS'#000000'
p1276
aF10.0
aI0
aI00
aI00
aI00
aI00
aI00
aI00
aI00
aI00
aa(lp1277
I112275
aF108.1
aF200.52
aVp2
p1278
aS'dejavusans'
p1279
aS'#000000'
p1280
aF10.0
aI0
aI01
aI00
aI00
aI00
aI00
aI00
aI00
aI00
aa(lp1281
I125078
aF131.2
aF200.52
aVp2
p1282
aS'dejavusans'
p1283
aS'#000000'
p1284
aF10.0
aI0
aI00
aI00
aI00
aI00
aI00
aI00
aI00
aI00
aa(lp1285
I85218
aF168.2
aF200.52
aVp2
p1286
aS'dejavusans'
p1287
aS'#000000'
p1288
aF10.0
aI0
aI00
aI00
aI00
aI00
aI00
aI00
aI00
aI00
aa(lp1289
I147316
aF189.8
aF200.52
aVp2
p1290
aS'dejavusans'
p1291
aS'#000000'
p1292
aF10.0
aI0
aI00
aI00
aI00
aI00
aI00
aI00
aI00
aI00
aa(lp1293
I234378
aF230.6
aF200.52
aVp2
p1294
aS'dejavusans'
p1295
aS'#000000'
p1296
aF10.0
aI0
aI00
aI00
aI00
aI00
aI00
aI00
aI00
aI00
aa(lp1297
I234378
aF273.4818181818182
aF200.52
ag1294
aS'dejavusans'
p1298
aS'#000000'
p1299
aF10.0
aI0
aI00
aI00
aI00
aI00
aI00
aI00
aI00
aI00
aa(lp1300
I234378
aF72.1
aF236.22
aVp2
p1301
aS'dejavusans'
p1302
aS'#000000'
p1303
aF10.0
aI1
aI01
aI00
aI00
aI00
aI00
aI00
aI00
aI00
aa(lp1304
I25729
aF125.59
aF236.22
aVp2
p1305
aS'dejavusans'
p1306
aS'#000000'
p1307
aF10.0
aI1
aI01
aI00
aI00
aI00
aI00
aI00
aI00
aI00
aa(lp1308
I234378
aF150.446
aF236.22
ag1305
aS'dejavusans'
p1309
aS'#000000'
p1310
aF10.0
aI1
aI00
aI00
aI00
aI00
aI00
aI00
aI00
aI00
aa(lp1311
I21716
aF159.7
aF236.22
aVp2
p1312
aS'dejavusans'
p1313
aS'#000000'
p1314
aF10.0
aI0
aI01
aI00
aI00
aI00
aI00
aI00
aI00
aI00
aa(lp1315
I234378
aF178.71599999999998
aF236.22
ag1312
aS'dejavusans'
p1316
aS'#000000'
p1317
aF10.0
aI0
aI00
aI00
aI00
aI00
aI00
aI00
aI00
aI00
aa(lp1318
I234378
aF186.49
aF236.22
aVp2
p1319
aS'dejavusans'
p1320
aS'#000000'
p1321
aF10.0
aI0
aI01
aI01
aI00
aI00
aI00
aI00
aI00
aI00
aa(lp1322
I234378
aF200.1175
aF236.22
ag1319
aS'dejavusans'
p1323
aS'#000000'
p1324
aF10.0
aI0
aI00
aI00
aI00
aI00
aI00
aI00
aI00
aI00
aa(lp1325
I234378
aF207.69
aF236.22
aVp2
p1326
aS'dejavusans'
p1327
aS'#000000'
p1328
aF10.0
aI0
aI01
aI00
aI00
aI00
aI00
aI00
aI00
aI00
aa(lp1329
I234378
aF235.35
aF236.22
ag1326
aS'dejavusans'
p1330
aS'#000000'
p1331
aF10.0
aI0
aI00
aI00
aI00
aI00
aI00
aI00
aI00
aI00
aa(lp1332
I148996
aF243.08
aF236.22
aVp2
p1333
aS'dejavusans'
p1334
aS'#000000'
p1335
aF10.0
aI0
aI01
aI00
aI00
aI00
aI00
aI00
aI00
aI00
aa(lp1336
I234378
aF272.8828571428572
aF236.22
ag1333
aS'dejavusans'
p1337
aS'#000000'
p1338
aF10.0
aI0
aI00
aI00
aI00
aI00
aI00
aI00
aI00
aI00
aa(lp1339
I176767
aF280.97
aF236.22
aVp2
p1340
aS'dejavusans'
p1341
aS'#000000'
p1342
aF10.0
aI0
aI01
aI00
aI00
aI00
aI00
aI00
aI00
aI00
aa(lp1343
I234378
aF327.20300000000003
aF236.22
ag1340
aS'dejavusans'
p1344
aS'#000000'
p1345
aF10.0
aI0
aI00
aI00
aI00
aI00
aI00
aI00
aI00
aI00
aa(lp1346
I234378
aF335.46
aF236.22
aVp2
p1347
aS'dejavusans'
p1348
aS'#000000'
p1349
aF10.0
aI0
aI01
aI00
aI00
aI00
aI00
aI00
aI00
aI00
aa(lp1350
I234378
aF388.71299999999997
aF236.22
ag1347
aS'dejavusans'
p1351
aS'#000000'
p1352
aF10.0
aI0
aI00
aI00
aI00
aI00
aI00
aI00
aI00
aI00
aa(lp1353
I199183
aF397.65
aF236.22
aVp2
p1354
aS'dejavusans'
p1355
aS'#000000'
p1356
aF10.0
aI0
aI01
aI00
aI00
aI00
aI00
aI00
aI00
aI00
aa(lp1357
I234378
aF438.75
aF236.22
aVp2
p1358
aS'dejavusans'
p1359
aS'#000000'
p1360
aF10.0
aI0
aI01
aI01
aI00
aI00
aI00
aI00
aI00
aI00
aa(lp1361
I190806
aF462.8
aF236.22
aVp2
p1362
aS'dejavusans'
p1363
aS'#000000'
p1364
aF10.0
aI0
aI00
aI00
aI00
aI00
aI00
aI00
aI00
aI00
aa(lp1365
I194179
aF479.3
aF236.22
aVp2
p1366
aS'dejavusans'
p1367
aS'#000000'
p1368
aF10.0
aI0
aI00
aI00
aI00
aI00
aI00
aI00
aI00
aI00
aa(lp1369
I177958
aF72.1
aF259.52
aVp2
p1370
aS'dejavusans'
p1371
aS'#000000'
p1372
aF10.0
aI1
aI01
aI00
aI00
aI00
aI00
aI00
aI00
aI00
aa(lp1373
I234378
aF109.97874999999999
aF259.52
ag1370
aS'dejavusans'
p1374
aS'#000000'
p1375
aF10.0
aI1
aI00
aI00
aI00
aI00
aI00
aI00
aI00
aI00
aa(lp1376
I59734
aF118.79
aF259.52
aVp2
p1377
aS'dejavusans'
p1378
aS'#000000'
p1379
aF10.0
aI1
aI01
aI01
aI00
aI00
aI00
aI00
aI00
aI00
aa(lp1380
I234378
aF127.2475
aF259.52
ag1377
aS'dejavusans'
p1381
aS'#000000'
p1382
aF10.0
aI1
aI01
aI01
aI00
aI00
aI00
aI00
aI00
aI00
aa(lp1383
I234378
aF151.99
aF259.52
aVp2
p1384
aS'dejavusans'
p1385
aS'#000000'
p1386
aF10.0
aI1
aI01
aI00
aI00
aI00
aI00
aI00
aI00
aI00
aa(lp1387
I136661
aF226.49
aF259.52
aVp2
p1388
aS'dejavusans'
p1389
aS'#000000'
p1390
aF10.0
aI1
aI01
aI00
aI00
aI00
aI00
aI00
aI00
aI00
aa(lp1391
I25931
aF72.1
aF271.12
aVp2
p1392
aS'dejavusans'
p1393
aS'#000000'
p1394
aF10.0
aI1
aI01
aI00
aI00
aI00
aI00
aI00
aI00
aI00
aa(lp1395
I234378
aF103.11999999999999
aF271.12
ag1392
aS'dejavusans'
p1396
aS'#000000'
p1397
aF10.0
aI1
aI00
aI00
aI00
aI00
aI00
aI00
aI00
aI00
aa(lp1398
I151732
aF111.8
aF271.12
aVp2
p1399
aS'dejavusans'
p1400
aS'#000000'
p1401
aF10.0
aI0
aI01
aI01
aI00
aI00
aI00
aI00
aI00
aI00
aa(lp1402
I234378
aF139.525
aF271.12
ag1399
aS'dejavusans'
p1403
aS'#000000'
p1404
aF10.0
aI0
aI00
aI00
aI00
aI00
aI00
aI00
aI00
aI00
aa(lp1405
I120031
aF72.1
aF282.82
aVp2
p1406
aS'dejavusans'
p1407
aS'#000000'
p1408
aF10.0
aI1
aI01
aI00
aI00
aI00
aI00
aI00
aI00
aI00
aa(lp1409
I234378
aF119.36222222222221
aF282.82
ag1406
aS'dejavusans'
p1410
aS'#000000'
p1411
aF10.0
aI1
aI00
aI00
aI00
aI00
aI00
aI00
aI00
aI00
aa(lp1412
I20708
aF128.59
aF282.82
aVp2
p1413
aS'dejavusans'
p1414
aS'#000000'
p1415
aF10.0
aI0
aI01
aI00
aI00
aI00
aI00
aI00
aI00
aI01
aa(lp1416
I234378
aF162.26
aF282.82
aVp2
p1417
aS'dejavusans'
p1418
aS'#000000'
p1419
aF10.0
aI0
aI00
aI00
aI01
aI01
aI01
aI00
aI00
aI00
aa(lp1420
I37515
aF198.93
aF282.82
aVp2
p1421
aS'dejavusans'
p1422
aS'#000000'
p1423
aF10.0
aI0
aI01
aI00
aI00
aI00
aI00
aI00
aI00
aI01
aa(lp1424
I234378
aF222.81
aF282.82
aVp2
p1425
aS'dejavusans'
p1426
aS'#000000'
p1427
aF10.0
aI0
aI00
aI00
aI01
aI01
aI01
aI00
aI00
aI00
aa(lp1428
I66756
aF72.1
aF306.12
aVp2
p1429
aS'dejavusans'
p1430
aS'#000000'
p1431
aF10.0
aI1
aI01
aI00
aI00
aI00
aI00
aI00
aI00
aI00
aa(lp1432
I234378
aF134.0575
aF306.12
ag1429
aS'dejavusans'
p1433
aS'#000000'
p1434
aF10.0
aI1
aI00
aI00
aI00
aI00
aI00
aI00
aI00
aI00
aa(lp1435
I194354
aF142.8
aF306.12
aVp2
p1436
aS'dejavusans'
p1437
aS'#000000'
p1438
aF10.0
aI0
aI01
aI00
aI00
aI00
aI00
aI00
aI00
aI00
aa(lp1439
I177958
aF164.1
aF306.12
aVp2
p1440
aS'dejavusans'
p1441
aS'#000000'
p1442
aF10.0
aI0
aI00
aI00
aI00
aI00
aI00
aI00
aI00
aI00
aa(lp1443
I22474
aF201.2
aF306.12
aVp2
p1444
aS'dejavusans'
p1445
aS'#000000'
p1446
aF10.0
aI0
aI00
aI00
aI00
aI00
aI00
aI00
aI00
aI00
aa(lp1447
I98566
aF212.1
aF306.12
aVp2
p1448
aS'dejavusans'
p1449
aS'#000000'
p1450
aF10.0
aI0
aI00
aI00
aI00
aI00
aI00
aI00
aI00
aI00
aa(lp1451
I234378
aF243.5
aF306.12
aVp2
p1452
aS'dejavusans'
p1453
aS'#000000'
p1454
aF10.0
aI0
aI00
aI00
aI00
aI00
aI00
aI00
aI00
aI00
aa(lp1455
I204917
aF300.79
aF306.12
aVp2
p1456
aS'dejavusans'
p1457
aS'#000000'
p1458
aF10.0
aI0
aI00
aI00
aI00
aI00
aI00
aI00
aI00
aI00
aa(lp1459
I109339
aF332.48
aF306.12
aVp2
p1460
aS'dejavusans'
p1461
aS'#000000'
p1462
aF10.0
aI0
aI00
aI00
aI00
aI00
aI00
aI00
aI00
aI00
aa(lp1463
I234378
aF387.08
aF306.12
aVp2
p1464
aS'dejavusans'
p1465
aS'#000000'
p1466
aF10.0
aI0
aI00
aI00
aI00
aI00
aI00
aI00
aI00
aI00
aa(lp1467
I234378
aF452.68
aF306.12
aVp2
p1468
aS'dejavusans'
p1469
aS'#000000'
p1470
aF10.0
aI0
aI00
aI00
aI00
aI00
aI00
aI00
aI00
aI00
aa(lp1471
I10716
aF489.68
aF306.12
aVp2
p1472
aS'dejavusans'
p1473
aS'#000000'
p1474
aF10.0
aI0
aI00
aI00
aI00
aI00
aI00
aI00
aI00
aI00
aa(lp1475
I234378
aF72.1
aF317.72
aVp2
p1476
aS'dejavusans'
p1477
aS'#000000'
p1478
aF10.0
aI0
aI00
aI00
aI00
aI00
aI00
aI00
aI00
aI00
aa(lp1479
I85218
aF107.1
aF317.72
aVp2
p1480
aS'dejavusans'
p1481
aS'#000000'
p1482
aF10.0
aI0
aI00
aI00
aI00
aI00
aI00
aI00
aI00
aI00
aa(lp1483
I234378
aF128.69
aF317.72
aVp2
p1484
aS'dejavusans'
p1485
aS'#000000'
p1486
aF10.0
aI0
aI00
aI00
aI00
aI00
aI00
aI00
aI00
aI00
aa(lp1487
I234378
aF166.88555555555556
aF317.72
ag1484
aS'dejavusans'
p1488
aS'#000000'
p1489
aF10.0
aI0
aI00
aI00
aI00
aI00
aI00
aI00
aI00
aI00
aa(lp1490
I46544
aF174.8
aF317.72
aVp2
p1491
aS'dejavusans'
p1492
aS'#000000'
p1493
aF10.0
aI0
aI01
aI00
aI00
aI00
aI00
aI00
aI00
aI00
aa(lp1494
I123665
aF198.38
aF317.72
aVp2
p1495
aS'dejavusans'
p1496
aS'#000000'
p1497
aF10.0
aI0
aI00
aI00
aI00
aI00
aI00
aI00
aI00
aI00
aa(lp1498
I234378
aF256.62
aF317.72
aVp2
p1499
aS'dejavusans'
p1500
aS'#000000'
p1501
aF10.0
aI0
aI00
aI00
aI00
aI00
aI00
aI00
aI00
aI00
aa(lp1502
I108443
aF286.59
aF317.72
aVp2
p1503
aS'dejavusans'
p1504
aS'#000000'
p1505
aF10.0
aI0
aI00
aI00
aI00
aI00
aI00
aI00
aI00
aI00
aa(lp1506
I234378
aF323.65
aF317.72
aVp2
p1507
aS'dejavusans'
p1508
aS'#000000'
p1509
aF10.0
aI0
aI00
aI00
aI00
aI00
aI00
aI00
aI00
aI00
aa(lp1510
I89480
aF353.83
aF317.72
aVp2
p1511
aS'dejavusans'
p1512
aS'#000000'
p1513
aF10.0
aI0
aI00
aI00
aI00
aI00
aI00
aI00
aI00
aI00
aa(lp1514
I141000
aF367.02
aF317.72
aVp2
p1515
aS'dejavusans'
p1516
aS'#000000'
p1517
aF10.0
aI0
aI00
aI00
aI00
aI00
aI00
aI00
aI00
aI00
aa(lp1518
I190806
aF403.38
aF317.72
aVp2
p1519
aS'dejavusans'
p1520
aS'#000000'
p1521
aF10.0
aI0
aI00
aI00
aI00
aI00
aI00
aI00
aI00
aI00
aa(lp1522
I206996
aF420.27
aF317.72
aVp2
p1523
aS'dejavusans'
p1524
aS'#000000'
p1525
aF10.0
aI0
aI00
aI00
aI00
aI00
aI00
aI00
aI00
aI00
aa(lp1526
I234378
aF468.52
aF317.72
aVp2
p1527
aS'dejavusans'
p1528
aS'#000000'
p1529
aF10.0
aI0
aI00
aI00
aI00
aI00
aI00
aI00
aI00
aI00
aa(lp1530
I234378
aF524.7290909090909
aF317.72
ag1527
aS'dejavusans'
p1531
aS'#000000'
p1532
aF10.0
aI0
aI00
aI00
aI00
aI00
aI00
aI00
aI00
aI00
aa(lp1533
I85218
aF72.1
aF329.42
aVp2
p1534
aS'dejavusans'
p1535
aS'#000000'
p1536
aF10.0
aI0
aI00
aI00
aI00
aI00
aI00
aI00
aI00
aI00
aa(lp1537
I175531
aF94.08
aF329.42
aVp2
p1538
aS'dejavusans'
p1539
aS'#000000'
p1540
aF10.0
aI0
aI00
aI00
aI00
aI00
aI00
aI00
aI00
aI00
aa(lp1541
I194354
aF121.66
aF329.42
aVp2
p1542
aS'dejavusans'
p1543
aS'#000000'
p1544
aF10.0
aI0
aI00
aI00
aI00
aI00
aI00
aI00
aI00
aI00
aa(lp1545
I234378
aF141.24
aF329.42
aVp2
p1546
aS'dejavusans'
p1547
aS'#000000'
p1548
aF10.0
aI0
aI00
aI00
aI00
aI00
aI00
aI00
aI00
aI00
aa(lp1549
I169745
aF203.09
aF329.42
aVp2
p1550
aS'dejavusans'
p1551
aS'#000000'
p1552
aF10.0
aI0
aI00
aI00
aI00
aI00
aI00
aI00
aI00
aI00
aa(lp1553
I218852
aF227.46
aF329.42
aVp2
p1554
aS'dejavusans'
p1555
aS'#000000'
p1556
aF10.0
aI0
aI00
aI00
aI00
aI00
aI00
aI00
aI00
aI00
aa(lp1557
I7520
aF253.84
aF329.42
aVp2
p1558
aS'dejavusans'
p1559
aS'#000000'
p1560
aF10.0
aI0
aI00
aI00
aI00
aI00
aI00
aI00
aI00
aI00
aa(lp1561
I234378
aF300.21
aF329.42
aVp2
p1562
aS'dejavusans'
p1563
aS'#000000'
p1564
aF10.0
aI0
aI00
aI00
aI00
aI00
aI00
aI00
aI00
aI00
aa(lp1565
I234378
aF357.33666666666664
aF329.42
ag1562
aS'dejavusans'
p1566
aS'#000000'
p1567
aF10.0
aI0
aI00
aI00
aI00
aI00
aI00
aI00
aI00
aI00
aa(lp1568
I41890
aF77.8
aF347.02
aVp2
p1569
aS'dejavusans'
p1570
aS'#000000'
p1571
aF10.0
aI0
aI01
aI00
aI00
aI00
aI00
aI00
aI00
aI00
aa(lp1572
I194354
aF95.38
aF347.02
aVp2
p1573
aS'dejavusans'
p1574
aS'#000000'
p1575
aF10.0
aI0
aI00
aI00
aI00
aI00
aI00
aI00
aI00
aI00
aa(lp1576
I234378
aF116.96
aF347.02
aVp2
p1577
aS'dejavusans'
p1578
aS'#000000'
p1579
aF10.0
aI0
aI00
aI00
aI00
aI00
aI00
aI00
aI00
aI00
aa(lp1580
I10716
aF159.84
aF347.02
aVp2
p1581
aS'dejavusans'
p1582
aS'#000000'
p1583
aF10.0
aI0
aI00
aI00
aI00
aI00
aI00
aI00
aI00
aI00
aa(lp1584
I234378
aF182.12
aF347.02
aVp2
p1585
aS'dejavusans'
p1586
aS'#000000'
p1587
aF10.0
aI0
aI01
aI00
aI00
aI00
aI00
aI00
aI00
aI00
aa(lp1588
I234378
aF210.03714285714287
aF347.02
ag1585
aS'dejavusans'
p1589
aS'#000000'
p1590
aF10.0
aI0
aI00
aI00
aI00
aI00
aI00
aI00
aI00
aI00
aa(lp1591
I234378
aF220.2
aF347.02
aVp2
p1592
aS'dejavusans'
p1593
aS'#000000'
p1594
aF10.0
aI0
aI01
aI00
aI00
aI00
aI00
aI00
aI00
aI00
aa(lp1595
I234378
aF248.3742857142857
aF347.02
ag1592
aS'dejavusans'
p1596
aS'#000000'
p1597
aF10.0
aI0
aI00
aI00
aI00
aI00
aI00
aI00
aI00
aI00
aa(lp1598
I234378
aF258.58
aF347.02
aVp2
p1599
aS'dejavusans'
p1600
aS'#000000'
p1601
aF10.0
aI0
aI01
aI00
aI00
aI00
aI00
aI00
aI00
aI00
aa(lp1602
I234378
aF303.76
aF347.02
aVp2
p1603
aS'dejavusans'
p1604
aS'#000000'
p1605
aF10.0
aI0
aI00
aI00
aI00
aI00
aI00
aI00
aI00
aI00
aa(lp1606
I234378
aF317.6125
aF347.02
ag1603
aS'dejavusans'
p1607
aS'#000000'
p1608
aF10.0
aI0
aI00
aI00
aI00
aI00
aI00
aI00
aI00
aI00
aa(lp1609
I135639
aF327.64
aF347.02
aVp2
p1610
aS'dejavusans'
p1611
aS'#000000'
p1612
aF10.0
aI0
aI00
aI00
aI00
aI00
aI00
aI00
aI00
aI00
aa(lp1613
I228218
aF342.02
aF347.02
aVp2
p1614
aS'dejavusans'
p1615
aS'#000000'
p1616
aF10.0
aI0
aI00
aI00
aI00
aI00
aI00
aI00
aI00
aI00
aa(lp1617
I234378
aF374.8
aF347.02
aVp2
p1618
aS'dejavusans'
p1619
aS'#000000'
p1620
aF10.0
aI0
aI00
aI00
aI00
aI00
aI00
aI00
aI00
aI00
aa(lp1621
I208573
aF438.08
aF347.02
aVp2
p1622
aS'dejavusans'
p1623
aS'#000000'
p1624
aF10.0
aI0
aI00
aI00
aI00
aI00
aI00
aI00
aI00
aI00
aa(lp1625
I192638
aF472.86
aF347.02
aVp2
p1626
aS'dejavusans'
p1627
aS'#000000'
p1628
aF10.0
aI0
aI00
aI00
aI00
aI00
aI00
aI00
aI00
aI00
aa(lp1629
I234378
aF490.64
aF347.02
aVp2
p1630
aS'dejavusans'
p1631
aS'#000000'
p1632
aF10.0
aI0
aI00
aI00
aI00
aI00
aI00
aI00
aI00
aI00
aa(lp1633
I8030
aF72.1
aF358.72
aVp2
p1634
aS'dejavusans'
p1635
aS'#000000'
p1636
aF10.0
aI0
aI00
aI00
aI00
aI00
aI00
aI00
aI00
aI00
aa(lp1637
I169745
aF142.68
aF358.72
aVp2
p1638
aS'dejavusans'
p1639
aS'#000000'
p1640
aF10.0
aI0
aI00
aI00
aI00
aI00
aI00
aI00
aI00
aI00
aa(lp1641
I194354
aF167.16
aF358.72
aVp2
p1642
aS'dejavusans'
p1643
aS'#000000'
p1644
aF10.0
aI0
aI00
aI00
aI00
aI00
aI00
aI00
aI00
aI00
aa(lp1645
I234378
aF186.94
aF358.72
aVp2
p1646
aS'dejavusans'
p1647
aS'#000000'
p1648
aF10.0
aI0
aI00
aI00
aI00
aI00
aI00
aI00
aI00
aI00
aa(lp1649
I101862
aF248.72
aF358.72
aVp2
p1650
aS'dejavusans'
p1651
aS'#000000'
p1652
aF10.0
aI0
aI00
aI00
aI00
aI00
aI00
aI00
aI00
aI00
aa(lp1653
I192651
aF267.4
aF358.72
aVp2
p1654
aS'dejavusans'
p1655
aS'#000000'
p1656
aF10.0
aI0
aI00
aI00
aI00
aI00
aI00
aI00
aI00
aI00
aa(lp1657
I194354
aF283.08
aF358.72
aVp2
p1658
aS'dejavusans'
p1659
aS'#000000'
p1660
aF10.0
aI0
aI00
aI00
aI00
aI00
aI00
aI00
aI00
aI00
aa(lp1661
I234378
aF302.86
aF358.72
aVp2
p1662
aS'dejavusans'
p1663
aS'#000000'
p1664
aF10.0
aI0
aI00
aI00
aI00
aI00
aI00
aI00
aI00
aI00
aa(lp1665
I49373
aF333.04
aF358.72
aVp2
p1666
aS'dejavusans'
p1667
aS'#000000'
p1668
aF10.0
aI0
aI00
aI00
aI00
aI00
aI00
aI00
aI00
aI00
aa(lp1669
I55486
aF361.42
aF358.72
aVp2
p1670
aS'dejavusans'
p1671
aS'#000000'
p1672
aF10.0
aI0
aI00
aI00
aI00
aI00
aI00
aI00
aI00
aI00
aa(lp1673
I135639
aF388.25125
aF358.72
ag1670
aS'dejavusans'
p1674
aS'#000000'
p1675
aF10.0
aI0
aI00
aI00
aI00
aI00
aI00
aI00
aI00
aI00
aa(lp1676
I89480
aF406.3
aF358.72
aVp2
p1677
aS'dejavusans'
p1678
aS'#000000'
p1679
aF10.0
aI0
aI00
aI00
aI00
aI00
aI00
aI00
aI00
aI00
aa(lp1680
I194354
aF419.78
aF358.72
aVp2
p1681
aS'dejavusans'
p1682
aS'#000000'
p1683
aF10.0
aI0
aI00
aI00
aI00
aI00
aI00
aI00
aI00
aI00
aa(lp1684
I136661
aF439.56
aF358.72
aVp2
p1685
aS'dejavusans'
p1686
aS'#000000'
p1687
aF10.0
aI0
aI00
aI00
aI00
aI00
aI00
aI00
aI00
aI00
aa(lp1688
I85218
aF472.04
aF358.72
aVp2
p1689
aS'dejavusans'
p1690
aS'#000000'
p1691
aF10.0
aI0
aI00
aI00
aI00
aI00
aI00
aI00
aI00
aI00
aa(lp1692
I208573
aF494.22
aF358.72
aVp2
p1693
aS'dejavusans'
p1694
aS'#000000'
p1695
aF10.0
aI0
aI00
aI00
aI00
aI00
aI00
aI00
aI00
aI00
aa(lp1696
I192638
aF527.1
aF358.72
aVp2
p1697
aS'dejavusans'
p1698
aS'#000000'
p1699
aF10.0
aI0
aI00
aI00
aI00
aI00
aI00
aI00
aI00
aI00
aa(lp1700
I173762
aF72.1
aF370.32
aVp2
p1701
aS'dejavusans'
p1702
aS'#000000'
p1703
aF10.0
aI0
aI00
aI00
aI00
aI00
aI00
aI00
aI00
aI00
aa(lp1704
I3432
aF118.8
aF370.32
aVp2
p1705
aS'dejavusans'
p1706
aS'#000000'
p1707
aF10.0
aI0
aI00
aI00
aI00
aI00
aI00
aI00
aI00
aI00
aa(lp1708
I49373
aF134.6
aF370.32
aVp2
p1709
aS'dejavusans'
p1710
aS'#000000'
p1711
aF10.0
aI0
aI00
aI00
aI00
aI00
aI00
aI00
aI00
aI00
aa(lp1712
I234378
aF162.39
aF370.32
aVp2
p1713
aS'dejavusans'
p1714
aS'#000000'
p1715
aF10.0
aI0
aI00
aI00
aI00
aI00
aI00
aI00
aI00
aI00
aa(lp1716
I234378
aF204.67444444444442
aF370.32
ag1713
aS'dejavusans'
p1717
aS'#000000'
p1718
aF10.0
aI0
aI00
aI00
aI00
aI00
aI00
aI00
aI00
aI00
aa(lp1719
I203338
aF72.1
aF388.02
aVp2
p1720
aS'dejavusans'
p1721
aS'#000000'
p1722
aF10.0
aI0
aI01
aI00
aI00
aI00
aI00
aI00
aI00
aI00
aa(lp1723
I46544
aF118.68
aF388.02
aVp2
p1724
aS'dejavusans'
p1725
aS'#000000'
p1726
aF10.0
aI0
aI00
aI00
aI00
aI00
aI00
aI00
aI00
aI00
aa(lp1727
I123665
aF140.66
aF388.02
aVp2
p1728
aS'dejavusans'
p1729
aS'#000000'
p1730
aF10.0
aI0
aI00
aI00
aI00
aI00
aI00
aI00
aI00
aI00
aa(lp1731
I209115
aF198.84
aF388.02
aVp2
p1732
aS'dejavusans'
p1733
aS'#000000'
p1734
aF10.0
aI0
aI00
aI00
aI00
aI00
aI00
aI00
aI00
aI00
aa(lp1735
I60534
aF222.12
aF388.02
aVp2
p1736
aS'dejavusans'
p1737
aS'#000000'
p1738
aF10.0
aI0
aI00
aI00
aI00
aI00
aI00
aI00
aI00
aI00
aa(lp1739
I234378
aF246.1
aF388.02
aVp2
p1740
aS'dejavusans'
p1741
aS'#000000'
p1742
aF10.0
aI0
aI00
aI00
aI00
aI00
aI00
aI00
aI00
aI00
aa(lp1743
I144483
aF301.58
aF388.02
aVp2
p1744
aS'dejavusans'
p1745
aS'#000000'
p1746
aF10.0
aI0
aI00
aI00
aI00
aI00
aI00
aI00
aI00
aI00
aa(lp1747
I108443
aF317.96
aF388.02
aVp2
p1748
aS'dejavusans'
p1749
aS'#000000'
p1750
aF10.0
aI0
aI00
aI00
aI00
aI00
aI00
aI00
aI00
aI00
aa(lp1751
I129342
aF355.34
aF388.02
aVp2
p1752
aS'dejavusans'
p1753
aS'#000000'
p1754
aF10.0
aI0
aI00
aI00
aI00
aI00
aI00
aI00
aI00
aI00
aa(lp1755
I190806
aF401.12
aF388.02
aVp2
p1756
aS'dejavusans'
p1757
aS'#000000'
p1758
aF10.0
aI0
aI00
aI00
aI00
aI00
aI00
aI00
aI00
aI00
aa(lp1759
I44367
aF418.7
aF388.02
aVp2
p1760
aS'dejavusans'
p1761
aS'#000000'
p1762
aF10.0
aI0
aI00
aI00
aI00
aI00
aI00
aI00
aI00
aI00
aa(lp1763
I181879
aF445.78
aF388.02
aVp2
p1764
aS'dejavusans'
p1765
aS'#000000'
p1766
aF10.0
aI0
aI00
aI00
aI00
aI00
aI00
aI00
aI00
aI00
aa(lp1767
I89480
aF509.56
aF388.02
aVp2
p1768
aS'dejavusans'
p1769
aS'#000000'
p1770
aF10.0
aI0
aI00
aI00
aI00
aI00
aI00
aI00
aI00
aI00
aa(lp1771
I194354
aF523.54
aF388.02
aVp2
p1772
aS'dejavusans'
p1773
aS'#000000'
p1774
aF10.0
aI0
aI00
aI00
aI00
aI00
aI00
aI00
aI00
aI00
aa(lp1775
I234378
aF72.1
aF399.62
aVp2
p1776
aS'dejavusans'
p1777
aS'#000000'
p1778
aF10.0
aI0
aI00
aI00
aI00
aI00
aI00
aI00
aI00
aI00
aa(lp1779
I234378
aF96.82499999999999
aF399.62
ag1776
aS'dejavusans'
p1780
aS'#000000'
p1781
aF10.0
aI0
aI00
aI00
aI00
aI00
aI00
aI00
aI00
aI00
aa(lp1782
I234378
aF72.1
aF417.32
aVp2
p1783
aS'dejavusans'
p1784
aS'#000000'
p1785
aF10.0
aI1
aI01
aI00
aI00
aI00
aI00
aI00
aI00
aI00
aa(lp1786
I234378
aF114.4
aF417.32
aVp2
p1787
aS'dejavusans'
p1788
aS'#000000'
p1789
aF10.0
aI1
aI01
aI00
aI00
aI00
aI00
aI00
aI00
aI00
aa(lp1790
I234378
aF200.6964705882353
aF417.32
ag1787
aS'dejavusans'
p1791
aS'#000000'
p1792
aF10.0
aI1
aI00
aI00
aI00
aI00
aI00
aI00
aI00
aI00
aa(lp1793
I105322
aF108.1
aF428.92
aVp2
p1794
aS'dejavusans'
p1795
aS'#000000'
p1796
aF10.0
aI0
aI01
aI00
aI00
aI00
aI00
aI00
aI00
aI00
aa(lp1797
I135639
aF152.9
aF428.92
aVp2
p1798
aS'dejavusans'
p1799
aS'#000000'
p1800
aF10.0
aI0
aI00
aI00
aI00
aI00
aI00
aI00
aI00
aI00
aa(lp1801
I234378
aF164.9
aF428.92
aVp2
p1802
aS'dejavusans'
p1803
aS'#000000'
p1804
aF10.0
aI0
aI00
aI00
aI00
aI00
aI00
aI00
aI00
aI00
aa(lp1805
I194354
aF222.3
aF428.92
aVp2
p1806
aS'dejavusans'
p1807
aS'#000000'
p1808
aF10.0
aI0
aI00
aI00
aI00
aI00
aI00
aI00
aI00
aI00
aa(lp1809
I151732
aF241.5
aF428.92
aVp2
p1810
aS'dejavusans'
p1811
aS'#000000'
p1812
aF10.0
aI0
aI01
aI00
aI00
aI00
aI00
aI00
aI00
aI00
aa(lp1813
I234378
aF270.6
aF428.92
aVp2
p1814
aS'dejavusans'
p1815
aS'#000000'
p1816
aF10.0
aI0
aI01
aI00
aI00
aI00
aI00
aI00
aI00
aI00
aa(lp1817
I234378
aF312.99
aF428.92
aVp2
p1818
aS'dejavusans'
p1819
aS'#000000'
p1820
aF10.0
aI0
aI01
aI01
aI00
aI00
aI00
aI00
aI00
aI00
aa(lp1821
I85218
aF333.69
aF428.92
aVp2
p1822
aS'dejavusans'
p1823
aS'#000000'
p1824
aF10.0
aI0
aI00
aI00
aI00
aI00
aI00
aI00
aI00
aI00
aa(lp1825
I174268
aF355.28
aF428.92
aVp2
p1826
aS'dejavusans'
p1827
aS'#000000'
p1828
aF10.0
aI0
aI00
aI00
aI00
aI00
aI00
aI00
aI00
aI00
aa(lp1829
I234378
aF394.28
aF428.92
aVp2
p1830
aS'dejavusans'
p1831
aS'#000000'
p1832
aF10.0
aI0
aI00
aI00
aI00
aI00
aI00
aI00
aI00
aI00
aa(lp1833
I234378
aF433.00888888888886
aF428.92
ag1830
aS'dejavusans'
p1834
aS'#000000'
p1835
aF10.0
aI0
aI00
aI00
aI00
aI00
aI00
aI00
aI00
aI00
aa(lp1836
I105322
aF108.1
aF441.32
aVp2
p1837
aS'dejavusans'
p1838
aS'#000000'
p1839
aF10.0
aI0
aI01
aI00
aI00
aI00
aI00
aI00
aI00
aI00
aa(lp1840
I135639
aF152.9
aF441.32
aVp2
p1841
aS'dejavusans'
p1842
aS'#000000'
p1843
aF10.0
aI0
aI00
aI00
aI00
aI00
aI00
aI00
aI00
aI00
aa(lp1844
I234378
aF164.9
aF441.32
aVp2
p1845
aS'dejavusans'
p1846
aS'#000000'
p1847
aF10.0
aI0
aI00
aI00
aI00
aI00
aI00
aI00
aI00
aI00
aa(lp1848
I174268
aF222.3
aF441.32
aVp2
p1849
aS'dejavusans'
p1850
aS'#000000'
p1851
aF10.0
aI0
aI00
aI00
aI00
aI00
aI00
aI00
aI00
aI00
aa(lp1852
I234378
aF261.2
aF441.32
aVp2
p1853
aS'dejavusans'
p1854
aS'#000000'
p1855
aF10.0
aI0
aI00
aI00
aI00
aI00
aI00
aI00
aI00
aI00
aa(lp1856
I190806
aF307.8
aF441.32
aVp2
p1857
aS'dejavusans'
p1858
aS'#000000'
p1859
aF10.0
aI0
aI00
aI00
aI00
aI00
aI00
aI00
aI00
aI00
aa(lp1860
I234378
aF324.4
aF441.32
aVp2
p1861
aS'dejavusans'
p1862
aS'#000000'
p1863
aF10.0
aI0
aI00
aI00
aI00
aI00
aI00
aI00
aI00
aI00
aa(lp1864
I10716
aF364.8
aF441.32
aVp2
p1865
aS'dejavusans'
p1866
aS'#000000'
p1867
aF10.0
aI0
aI00
aI00
aI00
aI00
aI00
aI00
aI00
aI00
aa(lp1868
I75739
aF384.6
aF441.32
aVp2
p1869
aS'dejavusans'
p1870
aS'#000000'
p1871
aF10.0
aI0
aI01
aI01
aI00
aI00
aI00
aI00
aI00
aI00
aa(lp1872
I234378
aF401.45250000000004
aF441.32
ag1869
aS'dejavusans'
p1873
aS'#000000'
p1874
aF10.0
aI0
aI00
aI00
aI00
aI00
aI00
aI00
aI00
aI00
aa(lp1875
I234378
aF410.0
aF441.32
aVp2
p1876
aS'dejavusans'
p1877
aS'#000000'
p1878
aF10.0
aI0
aI01
aI00
aI00
aI00
aI00
aI00
aI00
aI00
aa(lp1879
I234378
aF452.39
aF441.32
aVp2
p1880
aS'dejavusans'
p1881
aS'#000000'
p1882
aF10.0
aI0
aI00
aI00
aI00
aI00
aI00
aI00
aI00
aI00
aa(lp1883
I234378
aF466.16749999999996
aF441.32
ag1880
aS'dejavusans'
p1884
aS'#000000'
p1885
aF10.0
aI0
aI00
aI00
aI00
aI00
aI00
aI00
aI00
aI00
aa(lp1886
I125458
aF108.1
aF453.72
aVp2
p1887
aS'dejavusans'
p1888
aS'#000000'
p1889
aF10.0
aI0
aI01
aI00
aI00
aI00
aI00
aI00
aI00
aI00
aa(lp1890
I144483
aF148.1
aF453.72
aVp2
p1891
aS'dejavusans'
p1892
aS'#000000'
p1893
aF10.0
aI0
aI00
aI00
aI00
aI00
aI00
aI00
aI00
aI00
aa(lp1894
I234378
aF163.4
aF453.72
aVp2
p1895
aS'dejavusans'
p1896
aS'#000000'
p1897
aF10.0
aI0
aI00
aI00
aI00
aI00
aI00
aI00
aI00
aI00
aa(lp1898
I89217
aF220.69
aF453.72
aVp2
p1899
aS'dejavusans'
p1900
aS'#000000'
p1901
aF10.0
aI0
aI01
aI00
aI00
aI00
aI00
aI00
aI00
aI00
aa(lp1902
I234378
aF245.19
aF453.72
aVp2
p1903
aS'dejavusans'
p1904
aS'#000000'
p1905
aF10.0
aI0
aI01
aI00
aI00
aI00
aI00
aI00
aI00
aI00
aa(lp1906
I234378
aF301.59
aF453.72
aVp2
p1907
aS'dejavusans'
p1908
aS'#000000'
p1909
aF10.0
aI0
aI00
aI00
aI00
aI00
aI00
aI00
aI00
aI00
aa(lp1910
I148996
aF331.19
aF453.72
aVp2
p1911
aS'dejavusans'
p1912
aS'#000000'
p1913
aF10.0
aI0
aI01
aI00
aI00
aI00
aI00
aI00
aI00
aI00
aa(lp1914
I234378
aF365.89
aF453.72
aVp2
p1915
aS'dejavusans'
p1916
aS'#000000'
p1917
aF10.0
aI0
aI00
aI00
aI01
aI01
aI00
aI00
aI00
aI00
aa(lp1918
I89480
aF375.19
aF453.72
aVp2
p1919
aS'dejavusans'
p1920
aS'#000000'
p1921
aF10.0
aI0
aI00
aI00
aI00
aI00
aI00
aI00
aI00
aI00
aa(lp1922
I139252
aF388.19
aF453.72
aVp2
p1923
aS'dejavusans'
p1924
aS'#000000'
p1925
aF10.0
aI0
aI00
aI00
aI00
aI00
aI00
aI00
aI00
aI00
aa(lp1926
I174268
aF426.28
aF453.72
aVp2
p1927
aS'dejavusans'
p1928
aS'#000000'
p1929
aF10.0
aI0
aI00
aI00
aI00
aI00
aI00
aI00
aI00
aI00
aa(lp1930
I234378
aF465.28
aF453.72
aVp2
p1931
aS'dejavusans'
p1932
aS'#000000'
p1933
aF10.0
aI0
aI00
aI00
aI00
aI00
aI00
aI00
aI00
aI00
aa(lp1934
I234378
aF503.8311111111111
aF453.72
ag1931
aS'dejavusans'
p1935
aS'#000000'
p1936
aF10.0
aI0
aI00
aI00
aI00
aI00
aI00
aI00
aI00
aI00
aa(lp1937
I234378
aF108.1
aF466.12
aVp2
p1938
aS'dejavusans'
p1939
aS'#000000'
p1940
aF10.0
aI0
aI01
aI00
aI00
aI00
aI00
aI00
aI00
aI00
aa(lp1941
I39932
aF129.8
aF466.12
aVp2
p1942
aS'dejavusans'
p1943
aS'#000000'
p1944
aF10.0
aI0
aI00
aI00
aI00
aI00
aI00
aI00
aI00
aI00
aa(lp1945
I166593
aF157.4
aF466.12
aVp2
p1946
aS'dejavusans'
p1947
aS'#000000'
p1948
aF10.0
aI0
aI00
aI00
aI00
aI00
aI00
aI00
aI00
aI00
aa(lp1949
I38609
aF166.5
aF466.12
aVp2
p1950
aS'dejavusans'
p1951
aS'#000000'
p1952
aF10.0
aI0
aI00
aI00
aI00
aI00
aI00
aI00
aI00
aI00
aa(lp1953
I144489
aF189.7
aF466.12
aVp2
p1954
aS'dejavusans'
p1955
aS'#000000'
p1956
aF10.0
aI0
aI00
aI00
aI00
aI00
aI00
aI00
aI00
aI00
aa(lp1957
I108443
aF202.2
aF466.12
aVp2
p1958
aS'dejavusans'
p1959
aS'#000000'
p1960
aF10.0
aI0
aI00
aI00
aI00
aI00
aI00
aI00
aI00
aI00
aa(lp1961
I68032
aF238.6
aF466.12
aVp2
p1962
aS'dejavusans'
p1963
aS'#000000'
p1964
aF10.0
aI0
aI00
aI00
aI00
aI00
aI00
aI00
aI00
aI00
aa(lp1965
I144489
aF306.49
aF466.12
aVp2
p1966
aS'dejavusans'
p1967
aS'#000000'
p1968
aF10.0
aI0
aI00
aI00
aI00
aI00
aI00
aI00
aI00
aI00
aa(lp1969
I194354
aF318.99
aF466.12
aVp2
p1970
aS'dejavusans'
p1971
aS'#000000'
p1972
aF10.0
aI0
aI00
aI00
aI00
aI00
aI00
aI00
aI00
aI00
aa(lp1973
I177958
aF338.18
aF466.12
aVp2
p1974
aS'dejavusans'
p1975
aS'#000000'
p1976
aF10.0
aI0
aI00
aI00
aI00
aI00
aI00
aI00
aI00
aI00
aa(lp1977
I234378
aF375.28
aF466.12
aVp2
p1978
aS'dejavusans'
p1979
aS'#000000'
p1980
aF10.0
aI0
aI00
aI00
aI00
aI00
aI00
aI00
aI00
aI00
aa(lp1981
I234378
aF404.88
aF466.12
aVp2
p1982
aS'dejavusans'
p1983
aS'#000000'
p1984
aF10.0
aI0
aI01
aI00
aI00
aI00
aI00
aI00
aI00
aI00
aa(lp1985
I85218
aF439.18
aF466.12
aVp2
p1986
aS'dejavusans'
p1987
aS'#000000'
p1988
aF10.0
aI0
aI00
aI00
aI00
aI00
aI00
aI00
aI00
aI00
aa(lp1989
I54779
aF460.78
aF466.12
aVp2
p1990
aS'dejavusans'
p1991
aS'#000000'
p1992
aF10.0
aI0
aI01
aI00
aI00
aI00
aI00
aI00
aI00
aI00
aa(lp1993
I156204
aF494.27
aF466.12
aVp2
p1994
aS'dejavusans'
p1995
aS'#000000'
p1996
aF10.0
aI0
aI00
aI00
aI00
aI00
aI00
aI00
aI00
aI00
aa(lp1997
I234378
aF510.4475
aF466.12
ag1994
aS'dejavusans'
p1998
aS'#000000'
p1999
aF10.0
aI0
aI00
aI00
aI00
aI00
aI00
aI00
aI00
aI00
aa(lp2000
I60534
aF108.1
aF478.52
aVp2
p2001
aS'dejavusans'
p2002
aS'#000000'
p2003
aF10.0
aI0
aI01
aI00
aI00
aI00
aI00
aI00
aI00
aI00
aa(lp2004
I105322
aF131.7
aF478.52
aVp2
p2005
aS'dejavusans'
p2006
aS'#000000'
p2007
aF10.0
aI0
aI00
aI00
aI00
aI00
aI00
aI00
aI00
aI00
aa(lp2008
I135639
aF176.4
aF478.52
aVp2
p2009
aS'dejavusans'
p2010
aS'#000000'
p2011
aF10.0
aI0
aI00
aI00
aI00
aI00
aI00
aI00
aI00
aI00
aa(lp2012
I153278
aF188.4
aF478.52
aVp2
p2013
aS'dejavusans'
p2014
aS'#000000'
p2015
aF10.0
aI0
aI00
aI00
aI00
aI00
aI00
aI00
aI00
aI00
aa(lp2016
I234378
aF210.2
aF478.52
aVp2
p2017
aS'dejavusans'
p2018
aS'#000000'
p2019
aF10.0
aI0
aI00
aI00
aI00
aI00
aI00
aI00
aI00
aI00
aa(lp2020
I135639
aF236.0
aF478.52
aVp2
p2021
aS'dejavusans'
p2022
aS'#000000'
p2023
aF10.0
aI0
aI00
aI00
aI00
aI00
aI00
aI00
aI00
aI00
aa(lp2024
I49630
aF248.0
aF478.52
aVp2
p2025
aS'dejavusans'
p2026
aS'#000000'
p2027
aF10.0
aI0
aI00
aI00
aI00
aI00
aI00
aI00
aI00
aI00
aa(lp2028
I194354
aF273.4
aF478.52
aVp2
p2029
aS'dejavusans'
p2030
aS'#000000'
p2031
aF10.0
aI0
aI00
aI00
aI00
aI00
aI00
aI00
aI00
aI00
aa(lp2032
I17350
aF292.6
aF478.52
aVp2
p2033
aS'dejavusans'
p2034
aS'#000000'
p2035
aF10.0
aI0
aI00
aI00
aI00
aI00
aI00
aI00
aI00
aI00
aa(lp2036
I85218
aF316.1
aF478.52
aVp2
p2037
aS'dejavusans'
p2038
aS'#000000'
p2039
aF10.0
aI0
aI00
aI00
aI00
aI00
aI00
aI00
aI00
aI00
aa(lp2040
I108443
aF337.6
aF478.52
aVp2
p2041
aS'dejavusans'
p2042
aS'#000000'
p2043
aF10.0
aI0
aI00
aI00
aI00
aI00
aI00
aI00
aI00
aI00
aa(lp2044
I68032
aF373.99
aF478.52
aVp2
p2045
aS'dejavusans'
p2046
aS'#000000'
p2047
aF10.0
aI0
aI00
aI00
aI00
aI00
aI00
aI00
aI00
aI00
aa(lp2048
I234378
aF436.29583333333335
aF478.52
ag2045
aS'dejavusans'
p2049
aS'#000000'
p2050
aF10.0
aI0
aI00
aI00
aI00
aI00
aI00
aI00
aI00
aI00
aa(lp2051
I234378
aF72.1
aF502.62
aVp2
p2052
aS'dejavusans'
p2053
aS'#000000'
p2054
aF10.0
aI1
aI01
aI00
aI00
aI00
aI00
aI00
aI00
aI00
aa(lp2055
I25729
aF125.59
aF502.62
aVp2
p2056
aS'dejavusans'
p2057
aS'#000000'
p2058
aF10.0
aI1
aI01
aI00
aI00
aI00
aI00
aI00
aI00
aI00
aa(lp2059
I234378
aF150.446
aF502.62
ag2056
aS'dejavusans'
p2060
aS'#000000'
p2061
aF10.0
aI1
aI00
aI00
aI00
aI00
aI00
aI00
aI00
aI00
aa(lp2062
I21716
aF159.7
aF502.62
aVp2
p2063
aS'dejavusans'
p2064
aS'#000000'
p2065
aF10.0
aI0
aI01
aI00
aI00
aI00
aI00
aI00
aI00
aI00
aa(lp2066
I234378
aF178.71599999999998
aF502.62
ag2063
aS'dejavusans'
p2067
aS'#000000'
p2068
aF10.0
aI0
aI00
aI00
aI00
aI00
aI00
aI00
aI00
aI00
aa(lp2069
I234378
aF186.49
aF502.62
aVp2
p2070
aS'dejavusans'
p2071
aS'#000000'
p2072
aF10.0
aI0
aI01
aI01
aI00
aI00
aI00
aI00
aI00
aI00
aa(lp2073
I234378
aF200.1175
aF502.62
ag2070
aS'dejavusans'
p2074
aS'#000000'
p2075
aF10.0
aI0
aI00
aI00
aI00
aI00
aI00
aI00
aI00
aI00
aa(lp2076
I234378
aF207.69
aF502.62
aVp2
p2077
aS'dejavusans'
p2078
aS'#000000'
p2079
aF10.0
aI0
aI01
aI00
aI00
aI00
aI00
aI00
aI00
aI00
aa(lp2080
I234378
aF235.35
aF502.62
ag2077
aS'dejavusans'
p2081
aS'#000000'
p2082
aF10.0
aI0
aI00
aI00
aI00
aI00
aI00
aI00
aI00
aI00
aa(lp2083
I148996
aF243.08
aF502.62
aVp2
p2084
aS'dejavusans'
p2085
aS'#000000'
p2086
aF10.0
aI0
aI01
aI00
aI00
aI00
aI00
aI00
aI00
aI00
aa(lp2087
I234378
aF272.8828571428572
aF502.62
ag2084
aS'dejavusans'
p2088
aS'#000000'
p2089
aF10.0
aI0
aI00
aI00
aI00
aI00
aI00
aI00
aI00
aI00
aa(lp2090
I176767
aF280.97
aF502.62
aVp2
p2091
aS'dejavusans'
p2092
aS'#000000'
p2093
aF10.0
aI0
aI01
aI00
aI00
aI00
aI00
aI00
aI00
aI00
aa(lp2094
I234378
aF327.20300000000003
aF502.62
ag2091
aS'dejavusans'
p2095
aS'#000000'
p2096
aF10.0
aI0
aI00
aI00
aI00
aI00
aI00
aI00
aI00
aI00
aa(lp2097
I138615
aF335.46
aF502.62
aVp2
p2098
aS'dejavusans'
p2099
aS'#000000'
p2100
aF10.0
aI0
aI01
aI00
aI00
aI00
aI00
aI00
aI00
aI00
aa(lp2101
I234378
aF357.36
aF502.62
aVp2
p2102
aS'dejavusans'
p2103
aS'#000000'
p2104
aF10.0
aI0
aI01
aI00
aI00
aI00
aI00
aI00
aI00
aI00
aa(lp2105
I234378
aF399.64444444444445
aF502.62
ag2102
aS'dejavusans'
p2106
aS'#000000'
p2107
aF10.0
aI0
aI00
aI00
aI00
aI00
aI00
aI00
aI00
aI00
aa(lp2108
I234378
aF407.95
aF502.62
aVp2
p2109
aS'dejavusans'
p2110
aS'#000000'
p2111
aF10.0
aI0
aI01
aI01
aI00
aI00
aI00
aI00
aI00
aI00
aa(lp2112
I234378
aF435.2583333333333
aF502.62
ag2109
aS'dejavusans'
p2113
aS'#000000'
p2114
aF10.0
aI0
aI00
aI00
aI00
aI00
aI00
aI00
aI00
aI00
aa(lp2115
I45445
aF443.84
aF502.62
aVp2
p2116
aS'dejavusans'
p2117
aS'#000000'
p2118
aF10.0
aI0
aI01
aI00
aI00
aI00
aI00
aI00
aI00
aI00
aa(lp2119
I234378
aF473.9
aF502.62
ag2116
aS'dejavusans'
p2120
aS'#000000'
p2121
aF10.0
aI0
aI00
aI00
aI00
aI00
aI00
aI00
aI00
aI00
aa(lp2122
I199183
aF481.94
aF502.62
aVp2
p2123
aS'dejavusans'
p2124
aS'#000000'
p2125
aF10.0
aI0
aI01
aI00
aI00
aI00
aI00
aI00
aI00
aI00
aa(lp2126
I234378
aF72.1
aF514.22
aVp2
p2127
aS'dejavusans'
p2128
aS'#000000'
p2129
aF10.0
aI0
aI01
aI01
aI00
aI00
aI00
aI00
aI00
aI00
aa(lp2130
I190806
aF96.1
aF514.22
aVp2
p2131
aS'dejavusans'
p2132
aS'#000000'
p2133
aF10.0
aI0
aI00
aI00
aI00
aI00
aI00
aI00
aI00
aI00
aa(lp2134
I194179
aF112.6
aF514.22
aVp2
p2135
aS'dejavusans'
p2136
aS'#000000'
p2137
aF10.0
aI0
aI00
aI00
aI00
aI00
aI00
aI00
aI00
aI00
aa(lp2138
I226160
aF151.6
aF514.22
aVp2
p2139
aS'dejavusans'
p2140
aS'#000000'
p2141
aF10.0
aI0
aI00
aI00
aI00
aI00
aI00
aI00
aI00
aI00
aa(lp2142
I234378
aF184.03625
aF514.22
ag2139
aS'dejavusans'
p2143
aS'#000000'
p2144
aF10.0
aI0
aI00
aI00
aI00
aI00
aI00
aI00
aI00
aI00
aa(lp2145
I234378
aF191.69
aF514.22
aVp2
p2146
aS'dejavusans'
p2147
aS'#000000'
p2148
aF10.0
aI0
aI01
aI00
aI00
aI00
aI00
aI00
aI00
aI00
aa(lp2149
I234378
aF239.2188888888889
aF514.22
ag2146
aS'dejavusans'
p2150
aS'#000000'
p2151
aF10.0
aI0
aI00
aI00
aI00
aI00
aI00
aI00
aI00
aI00
aa(lp2152
I234378
aF248.28
aF514.22
aVp2
p2153
aS'dejavusans'
p2154
aS'#000000'
p2155
aF10.0
aI0
aI01
aI00
aI00
aI00
aI00
aI00
aI00
aI00
aa(lp2156
I234378
aF276.45428571428573
aF514.22
ag2153
aS'dejavusans'
p2157
aS'#000000'
p2158
aF10.0
aI0
aI00
aI00
aI00
aI00
aI00
aI00
aI00
aI00
aa(lp2159
I180646
aF72.1
aF549.22
aVp2
p2160
aS'dejavusans'
p2161
aS'#000000'
p2162
aF10.0
aI1
aI01
aI00
aI00
aI00
aI00
aI00
aI00
aI00
aa(lp2163
I174854
aF112.8
aF549.22
aVp2
p2164
aS'dejavusans'
p2165
aS'#000000'
p2166
aF10.0
aI1
aI01
aI00
aI00
aI00
aI00
aI00
aI00
aI00
aa(lp2167
I234378
aF159.5
aF549.22
aVp2
p2168
aS'dejavusans'
p2169
aS'#000000'
p2170
aF10.0
aI1
aI01
aI00
aI01
aI00
aI00
aI00
aI00
aI00
aa(lp2171
I234378
aF200.91666666666669
aF549.22
ag2168
aS'dejavusans'
p2172
aS'#000000'
p2173
aF10.0
aI1
aI00
aI00
aI00
aI00
aI00
aI00
aI00
aI00
aa(lp2174
I234378
aF206.83333333333334
aF549.22
ag2168
aS'dejavusans'
p2175
aS'#000000'
p2176
aF10.0
aI1
aI00
aI00
aI01
aI01
aI00
aI00
aI00
aI00
aa(lp2177
I234378
aF216.1
aF549.22
aVp2
p2178
aS'dejavusans'
p2179
aS'#000000'
p2180
aF10.0
aI1
aI00
aI00
aI00
aI00
aI00
aI00
aI00
aI00
aa(lp2181
I122576
aF222.0725
aF549.22
ag2178
aS'dejavusans'
p2182
aS'#000000'
p2183
aF10.0
aI1
aI01
aI00
aI00
aI00
aI00
aI00
aI00
aI00
aa(lp2184
I234378
aF267.29
aF549.22
aVp2
p2185
aS'dejavusans'
p2186
aS'#000000'
p2187
aF10.0
aI1
aI00
aI00
aI01
aI01
aI01
aI00
aI00
aI00
aa(lp2188
I192846
aF291.19
aF549.22
aVp2
p2189
aS'dejavusans'
p2190
aS'#000000'
p2191
aF10.0
aI1
aI01
aI00
aI00
aI00
aI00
aI00
aI00
aI00
aa(lp2192
I2006
aF343.59
aF549.22
aVp2
p2193
aS'dejavusans'
p2194
aS'#000000'
p2195
aF10.0
aI1
aI01
aI00
aI00
aI00
aI00
aI00
aI00
aI00
aa(lp2196
I234378
aF392.56374999999997
aF549.22
ag2193
aS'dejavusans'
p2197
aS'#000000'
p2198
aF10.0
aI1
aI00
aI00
aI00
aI00
aI00
aI00
aI00
aI00
aa(lp2199
I234378
aF72.1
aF560.82
aVp2
p2200
aS'dejavusans'
p2201
aS'#000000'
p2202
aF10.0
aI0
aI00
aI00
aI00
aI00
aI00
aI00
aI00
aI00
aa(lp2203
I131472
aF76.54333333333332
aF560.82
ag2200
aS'dejavusans'
p2204
aS'#000000'
p2205
aF10.0
aI0
aI01
aI00
aI00
aI00
aI00
aI00
aI00
aI01
aa(lp2206
I234378
aF102.07
aF560.82
aVp2
p2207
aS'dejavusans'
p2208
aS'#000000'
p2209
aF10.0
aI0
aI00
aI00
aI01
aI01
aI01
aI00
aI00
aI00
aa(lp2210
I20708
aF126.78999999999999
aF560.82
ag2207
aS'dejavusans'
p2211
aS'#000000'
p2212
aF10.0
aI0
aI01
aI00
aI00
aI00
aI00
aI00
aI00
aI01
aa(lp2213
I234378
aF164.63
aF560.82
aVp2
p2214
aS'dejavusans'
p2215
aS'#000000'
p2216
aF10.0
aI0
aI00
aI00
aI01
aI01
aI01
aI00
aI00
aI00
aa(lp2217
I234378
aF188.126
aF560.82
ag2214
aS'dejavusans'
p2218
aS'#000000'
p2219
aF10.0
aI0
aI00
aI00
aI00
aI00
aI00
aI00
aI00
aI00
aa(lp2220
I180646
aF72.1
aF578.52
aVp2
p2221
aS'dejavusans'
p2222
aS'#000000'
p2223
aF10.0
aI0
aI01
aI00
aI00
aI00
aI00
aI00
aI00
aI00
aa(lp2224
I174854
aF107.8
aF578.52
aVp2
p2225
aS'dejavusans'
p2226
aS'#000000'
p2227
aF10.0
aI0
aI01
aI00
aI00
aI00
aI00
aI00
aI00
aI00
aa(lp2228
I234378
aF149.2
aF578.52
aVp2
p2229
aS'dejavusans'
p2230
aS'#000000'
p2231
aF10.0
aI0
aI01
aI00
aI00
aI00
aI00
aI00
aI00
aI00
aa(lp2232
I22474
aF183.9
aF578.52
aVp2
p2233
aS'dejavusans'
p2234
aS'#000000'
p2235
aF10.0
aI0
aI00
aI00
aI00
aI00
aI00
aI00
aI00
aI00
aa(lp2236
I166593
aF194.8
aF578.52
aVp2
p2237
aS'dejavusans'
p2238
aS'#000000'
p2239
aF10.0
aI0
aI00
aI00
aI00
aI00
aI00
aI00
aI00
aI00
aa(lp2240
I19068
aF203.9
aF578.52
aVp2
p2241
aS'dejavusans'
p2242
aS'#000000'
p2243
aF10.0
aI0
aI00
aI00
aI00
aI00
aI00
aI00
aI00
aI00
aa(lp2244
I123665
aF236.89
aF578.52
aVp2
p2245
aS'dejavusans'
p2246
aS'#000000'
p2247
aF10.0
aI0
aI00
aI00
aI00
aI00
aI00
aI00
aI00
aI00
aa(lp2248
I218914
aF293.99
aF578.52
aVp2
p2249
aS'dejavusans'
p2250
aS'#000000'
p2251
aF10.0
aI0
aI00
aI00
aI00
aI00
aI00
aI00
aI00
aI00
aa(lp2252
I33705
aF325.69
aF578.52
aVp2
p2253
aS'dejavusans'
p2254
aS'#000000'
p2255
aF10.0
aI0
aI00
aI00
aI00
aI00
aI00
aI00
aI00
aI00
aa(lp2256
I192638
aF346.39
aF578.52
aVp2
p2257
aS'dejavusans'
p2258
aS'#000000'
p2259
aF10.0
aI0
aI00
aI00
aI00
aI00
aI00
aI00
aI00
aI00
aa(lp2260
I25729
aF361.79
aF578.52
aVp2
p2261
aS'dejavusans'
p2262
aS'#000000'
p2263
aF10.0
aI0
aI00
aI00
aI00
aI00
aI00
aI00
aI00
aI00
aa(lp2264
I89480
aF388.49
aF578.52
aVp2
p2265
aS'dejavusans'
p2266
aS'#000000'
p2267
aF10.0
aI0
aI00
aI00
aI00
aI00
aI00
aI00
aI00
aI00
aa(lp2268
I24205
aF401.49
aF578.52
aVp2
p2269
aS'dejavusans'
p2270
aS'#000000'
p2271
aF10.0
aI0
aI00
aI00
aI00
aI00
aI00
aI00
aI00
aI00
aa(lp2272
I234378
aF435.69
aF578.52
aVp2
p2273
aS'dejavusans'
p2274
aS'#000000'
p2275
aF10.0
aI0
aI00
aI00
aI00
aI00
aI00
aI00
aI00
aI00
aa(lp2276
I234378
aF489.89
aF578.52
aVp2
p2277
aS'dejavusans'
p2278
aS'#000000'
p2279
aF10.0
aI0
aI00
aI00
aI00
aI00
aI00
aI00
aI00
aI00
aa(lp2280
I234378
aF72.1
aF590.12
aVp2
p2281
aS'dejavusans'
p2282
aS'#000000'
p2283
aF10.0
aI0
aI00
aI00
aI01
aI01
aI01
aI00
aI00
aI00
aa(lp2284
I234378
aF83.44399999999999
aF590.12
ag2281
aS'dejavusans'
p2285
aS'#000000'
p2286
aF10.0
aI0
aI00
aI00
aI00
aI00
aI00
aI00
aI00
aI00
aa(lp2287
I234378
aF89.11599999999999
aF590.12
ag2281
aS'dejavusans'
p2288
aS'#000000'
p2289
aF10.0
aI0
aI00
aI00
aI01
aI01
aI01
aI00
aI00
aI00
aa(lp2290
I39311
aF103.5
aF590.12
aVp2
p2291
aS'dejavusans'
p2292
aS'#000000'
p2293
aF10.0
aI0
aI00
aI00
aI00
aI00
aI00
aI00
aI00
aI00
aa(lp2294
I234378
aF145.69
aF590.12
aVp2
p2295
aS'dejavusans'
p2296
aS'#000000'
p2297
aF10.0
aI0
aI00
aI00
aI00
aI00
aI00
aI00
aI00
aI00
aa(lp2298
I234378
aF186.52625
aF590.12
ag2295
aS'dejavusans'
p2299
aS'#000000'
p2300
aF10.0
aI0
aI00
aI00
aI00
aI00
aI00
aI00
aI00
aI00
aa(lp2301
I46544
aF72.1
aF601.82
aVp2
p2302
aS'dejavusans'
p2303
aS'#000000'
p2304
aF10.0
aI0
aI01
aI00
aI00
aI00
aI00
aI00
aI00
aI00
aa(lp2305
I177958
aF95.2
aF601.82
aVp2
p2306
aS'dejavusans'
p2307
aS'#000000'
p2308
aF10.0
aI0
aI00
aI00
aI00
aI00
aI00
aI00
aI00
aI00
aa(lp2309
I209115
aF132.3
aF601.82
aVp2
p2310
aS'dejavusans'
p2311
aS'#000000'
p2312
aF10.0
aI0
aI00
aI00
aI00
aI00
aI00
aI00
aI00
aI00
aa(lp2313
I234378
aF154.6
aF601.82
aVp2
p2314
aS'dejavusans'
p2315
aS'#000000'
p2316
aF10.0
aI0
aI00
aI00
aI00
aI00
aI00
aI00
aI00
aI00
aa(lp2317
I144489
aF207.89
aF601.82
aVp2
p2318
aS'dejavusans'
p2319
aS'#000000'
p2320
aF10.0
aI0
aI00
aI00
aI00
aI00
aI00
aI00
aI00
aI00
aa(lp2321
I194354
aF220.39
aF601.82
aVp2
p2322
aS'dejavusans'
p2323
aS'#000000'
p2324
aF10.0
aI0
aI00
aI00
aI00
aI00
aI00
aI00
aI00
aI00
aa(lp2325
I180646
aF239.59
aF601.82
aVp2
p2326
aS'dejavusans'
p2327
aS'#000000'
p2328
aF10.0
aI0
aI00
aI00
aI00
aI00
aI00
aI00
aI00
aI00
aa(lp2329
I174854
aF275.09
aF601.82
aVp2
p2330
aS'dejavusans'
p2331
aS'#000000'
p2332
aF10.0
aI0
aI00
aI00
aI00
aI00
aI00
aI00
aI00
aI00
aa(lp2333
I234378
aF316.09
aF601.82
aVp2
p2334
aS'dejavusans'
p2335
aS'#000000'
p2336
aF10.0
aI0
aI00
aI00
aI00
aI00
aI00
aI00
aI00
aI00
aa(lp2337
I207716
aF349.09
aF601.82
aVp2
p2338
aS'dejavusans'
p2339
aS'#000000'
p2340
aF10.0
aI0
aI00
aI00
aI00
aI00
aI00
aI00
aI00
aI00
aa(lp2341
I131049
aF387.69
aF601.82
aVp2
p2342
aS'dejavusans'
p2343
aS'#000000'
p2344
aF10.0
aI0
aI00
aI00
aI00
aI00
aI00
aI00
aI00
aI00
aa(lp2345
I234378
aF413.58
aF601.82
aVp2
p2346
aS'dejavusans'
p2347
aS'#000000'
p2348
aF10.0
aI0
aI00
aI00
aI01
aI01
aI00
aI00
aI00
aI00
aa(lp2349
I234378
aF418.8
aF601.82
ag2346
aS'dejavusans'
p2350
aS'#000000'
p2351
aF10.0
aI0
aI00
aI00
aI00
aI00
aI00
aI00
aI00
aI00
aa(lp2352
I234378
aF424.02000000000004
aF601.82
ag2346
aS'dejavusans'
p2353
aS'#000000'
p2354
aF10.0
aI0
aI00
aI00
aI01
aI01
aI00
aI00
aI00
aI00
aa(lp2355
I89480
aF432.28
aF601.82
aVp2
p2356
aS'dejavusans'
p2357
aS'#000000'
p2358
aF10.0
aI0
aI00
aI00
aI00
aI00
aI00
aI00
aI00
aI00
aa(lp2359
I234378
aF445.18
aF601.82
aVp2
p2360
aS'dejavusans'
p2361
aS'#000000'
p2362
aF10.0
aI0
aI00
aI00
aI01
aI01
aI00
aI00
aI00
aI00
aa(lp2363
I234378
aF450.40000000000003
aF601.82
ag2360
aS'dejavusans'
p2364
aS'#000000'
p2365
aF10.0
aI0
aI00
aI00
aI00
aI00
aI00
aI00
aI00
aI00
aa(lp2366
I234378
aF455.62000000000006
aF601.82
ag2360
aS'dejavusans'
p2367
aS'#000000'
p2368
aF10.0
aI0
aI00
aI00
aI01
aI01
aI00
aI00
aI00
aI00
aa(lp2369
I85218
aF463.88
aF601.82
aVp2
p2370
aS'dejavusans'
p2371
aS'#000000'
p2372
aF10.0
aI0
aI00
aI00
aI00
aI00
aI00
aI00
aI00
aI00
aa(lp2373
I194354
aF485.48
aF601.82
aVp2
p2374
aS'dejavusans'
p2375
aS'#000000'
p2376
aF10.0
aI0
aI00
aI00
aI00
aI00
aI00
aI00
aI00
aI00
aa(lp2377
I144690
aF504.68
aF601.82
aVp2
p2378
aS'dejavusans'
p2379
aS'#000000'
p2380
aF10.0
aI0
aI00
aI00
aI00
aI00
aI00
aI00
aI00
aI00
aa(lp2381
I234378
aF72.1
aF613.42
aVp2
p2382
aS'dejavusans'
p2383
aS'#000000'
p2384
aF10.0
aI0
aI00
aI00
aI00
aI00
aI00
aI00
aI00
aI00
aa(lp2385
I89480
aF120.89
aF613.42
aVp2
p2386
aS'dejavusans'
p2387
aS'#000000'
p2388
aF10.0
aI0
aI00
aI00
aI00
aI00
aI00
aI00
aI00
aI00
aa(lp2389
I71080
aF133.79
aF613.42
aVp2
p2390
aS'dejavusans'
p2391
aS'#000000'
p2392
aF10.0
aI0
aI00
aI00
aI00
aI00
aI00
aI00
aI00
aI00
aa(lp2393
I194354
aF193.38
aF613.42
aVp2
p2394
aS'dejavusans'
p2395
aS'#000000'
p2396
aF10.0
aI0
aI00
aI00
aI00
aI00
aI00
aI00
aI00
aI00
aa(lp2397
I85991
aF212.57
aF613.42
aVp2
p2398
aS'dejavusans'
p2399
aS'#000000'
p2400
aF10.0
aI0
aI00
aI00
aI00
aI00
aI00
aI00
aI00
aI00
aa(lp2401
I169899
aF253.17
aF613.42
aVp2
p2402
aS'dejavusans'
p2403
aS'#000000'
p2404
aF10.0
aI0
aI00
aI00
aI00
aI00
aI00
aI00
aI00
aI00
aa(lp2405
I234378
aF288.87
aF613.42
aVp2
p2406
aS'dejavusans'
p2407
aS'#000000'
p2408
aF10.0
aI0
aI00
aI00
aI00
aI00
aI00
aI00
aI00
aI00
aa(lp2409
I131049
aF357.66
aF613.42
aVp2
p2410
aS'dejavusans'
p2411
aS'#000000'
p2412
aF10.0
aI0
aI00
aI00
aI00
aI00
aI00
aI00
aI00
aI00
aa(lp2413
I194354
aF383.55
aF613.42
aVp2
p2414
aS'dejavusans'
p2415
aS'#000000'
p2416
aF10.0
aI0
aI00
aI00
aI00
aI00
aI00
aI00
aI00
aI00
aa(lp2417
I166245
aF402.74
aF613.42
aVp2
p2418
aS'dejavusans'
p2419
aS'#000000'
p2420
aF10.0
aI0
aI00
aI00
aI00
aI00
aI00
aI00
aI00
aI00
aa(lp2421
I234378
aF448.64
aF613.42
aVp2
p2422
aS'dejavusans'
p2423
aS'#000000'
p2424
aF10.0
aI0
aI00
aI00
aI00
aI00
aI00
aI00
aI00
aI00
aa(lp2425
I144483
aF490.14
aF613.42
aVp2
p2426
aS'dejavusans'
p2427
aS'#000000'
p2428
aF10.0
aI0
aI00
aI00
aI00
aI00
aI00
aI00
aI00
aI00
aa(lp2429
I234378
aF505.54
aF613.42
aVp2
p2430
aS'dejavusans'
p2431
aS'#000000'
p2432
aF10.0
aI0
aI00
aI00
aI00
aI00
aI00
aI00
aI00
aI00
aa(lp2433
I190806
aF72.1
aF625.12
aVp2
p2434
aS'dejavusans'
p2435
aS'#000000'
p2436
aF10.0
aI0
aI00
aI00
aI00
aI00
aI00
aI00
aI00
aI00
aa(lp2437
I233934
aF88.6
aF625.12
aVp2
p2438
aS'dejavusans'
p2439
aS'#000000'
p2440
aF10.0
aI0
aI00
aI00
aI00
aI00
aI00
aI00
aI00
aI00
aa(lp2441
I24317
aF147.49
aF625.12
aVp2
p2442
aS'dejavusans'
p2443
aS'#000000'
p2444
aF10.0
aI0
aI00
aI00
aI00
aI00
aI00
aI00
aI00
aI00
aa(lp2445
I234378
aF194.89300000000003
aF625.12
ag2442
aS'dejavusans'
p2446
aS'#000000'
p2447
aF10.0
aI0
aI00
aI00
aI00
aI00
aI00
aI00
aI00
aI00
aa(lp2448
I234378
aF203.28
aF625.12
aVp2
p2449
aS'dejavusans'
p2450
aS'#000000'
p2451
aF10.0
aI0
aI00
aI00
aI00
aI00
aI00
aI00
aI00
aI00
aa(lp2452
I144483
aF229.98
aF625.12
aVp2
p2453
aS'dejavusans'
p2454
aS'#000000'
p2455
aF10.0
aI0
aI00
aI00
aI00
aI00
aI00
aI00
aI00
aI00
aa(lp2456
I234378
aF245.28
aF625.12
aVp2
p2457
aS'dejavusans'
p2458
aS'#000000'
p2459
aF10.0
aI0
aI00
aI00
aI00
aI00
aI00
aI00
aI00
aI00
aa(lp2460
I85218
aF291.27
aF625.12
aVp2
p2461
aS'dejavusans'
p2462
aS'#000000'
p2463
aF10.0
aI0
aI00
aI00
aI00
aI00
aI00
aI00
aI00
aI00
aa(lp2464
I234378
aF312.87
aF625.12
aVp2
p2465
aS'dejavusans'
p2466
aS'#000000'
p2467
aF10.0
aI0
aI00
aI00
aI00
aI00
aI00
aI00
aI00
aI00
aa(lp2468
I85218
aF356.17
aF625.12
aVp2
p2469
aS'dejavusans'
p2470
aS'#000000'
p2471
aF10.0
aI0
aI00
aI00
aI00
aI00
aI00
aI00
aI00
aI00
aa(lp2472
I166084
aF377.77
aF625.12
aVp2
p2473
aS'dejavusans'
p2474
aS'#000000'
p2475
aF10.0
aI0
aI00
aI00
aI00
aI00
aI00
aI00
aI00
aI00
aa(lp2476
I234378
aF421.16
aF625.12
aVp2
p2477
aS'dejavusans'
p2478
aS'#000000'
p2479
aF10.0
aI0
aI00
aI00
aI00
aI00
aI00
aI00
aI00
aI00
aa(lp2480
I190806
aF447.86
aF625.12
aVp2
p2481
aS'dejavusans'
p2482
aS'#000000'
p2483
aF10.0
aI0
aI00
aI00
aI00
aI00
aI00
aI00
aI00
aI00
aa(lp2484
I234378
aF464.36
aF625.12
aVp2
p2485
aS'dejavusans'
p2486
aS'#000000'
p2487
aF10.0
aI0
aI00
aI00
aI00
aI00
aI00
aI00
aI00
aI00
aa(lp2488
I131630
aF72.1
aF636.72
aVp2
p2489
aS'dejavusans'
p2490
aS'#000000'
p2491
aF10.0
aI0
aI00
aI00
aI00
aI00
aI00
aI00
aI00
aI00
aa(lp2492
I234378
aF99.40833333333333
aF636.72
ag2489
aS'dejavusans'
p2493
aS'#000000'
p2494
aF10.0
aI0
aI00
aI00
aI00
aI00
aI00
aI00
aI00
aI00
aa(lp2495
I234378
aF72.1
aF660.02
aVp2
p2496
aS'dejavusans'
p2497
aS'#000000'
p2498
aF10.0
aI1
aI01
aI00
aI00
aI00
aI00
aI00
aI00
aI00
aa(lp2499
I85218
aF105.7
aF660.02
aVp2
p2500
aS'dejavusans'
p2501
aS'#000000'
p2502
aF10.0
aI1
aI00
aI00
aI00
aI00
aI00
aI00
aI00
aI00
aa(lp2503
I234378
aF129.79
aF660.02
aVp2
p2504
aS'dejavusans'
p2505
aS'#000000'
p2506
aF10.0
aI1
aI01
aI00
aI00
aI00
aI00
aI00
aI00
aI00
aa(lp2507
I234378
aF216.18058823529412
aF660.02
ag2504
aS'dejavusans'
p2508
aS'#000000'
p2509
aF10.0
aI1
aI00
aI00
aI00
aI00
aI00
aI00
aI00
aI00
aa(lp2510
I16331
aF72.1
aF685.72
aVp2
p2511
aS'dejavusans'
p2512
aS'#000000'
p2513
aF10.0
aI0
aI01
aI00
aI00
aI00
aI00
aI00
aI00
aI00
aa(lp2514
I166593
aF87.1
aF685.72
aVp2
p2515
aS'dejavusans'
p2516
aS'#000000'
p2517
aF10.0
aI0
aI00
aI00
aI00
aI00
aI00
aI00
aI00
aI00
aa(lp2518
I146209
aF96.2
aF685.72
aVp2
p2519
aS'dejavusans'
p2520
aS'#000000'
p2521
aF10.0
aI0
aI00
aI00
aI00
aI00
aI00
aI00
aI00
aI00
aa(lp2522
I144489
aF140.9
aF685.72
aVp2
p2523
aS'dejavusans'
p2524
aS'#000000'
p2525
aF10.0
aI0
aI00
aI00
aI00
aI00
aI00
aI00
aI00
aI00
aa(lp2526
I68032
aF153.4
aF685.72
aVp2
p2527
aS'dejavusans'
p2528
aS'#000000'
p2529
aF10.0
aI0
aI00
aI00
aI00
aI00
aI00
aI00
aI00
aI00
aa(lp2530
I210461
aF221.3
aF685.72
aVp2
p2531
aS'dejavusans'
p2532
aS'#000000'
p2533
aF10.0
aI0
aI00
aI00
aI00
aI00
aI00
aI00
aI00
aI00
aa(lp2534
I234378
aF244.23600000000002
aF685.72
ag2531
aS'dejavusans'
p2535
aS'#000000'
p2536
aF10.0
aI0
aI00
aI00
aI00
aI00
aI00
aI00
aI00
aI00
aa(lp2537
I197030
aF253.0
aF685.72
aVp2
p2538
aS'dejavusans'
p2539
aS'#000000'
p2540
aF10.0
aI0
aI01
aI01
aI00
aI00
aI00
aI00
aI00
aI00
aa(lp2541
I16326
aF258.9
aF685.72
aVp2
p2542
aS'dejavusans'
p2543
aS'#000000'
p2544
aF10.0
aI0
aI00
aI00
aI00
aI00
aI00
aI00
aI00
aI00
aa(lp2545
I105322
aF277.7
aF685.72
aVp2
p2546
aS'dejavusans'
p2547
aS'#000000'
p2548
aF10.0
aI0
aI00
aI00
aI00
aI00
aI00
aI00
aI00
aI00
aa(lp2549
I135639
aF322.3
aF685.72
aVp2
p2550
aS'dejavusans'
p2551
aS'#000000'
p2552
aF10.0
aI0
aI00
aI00
aI00
aI00
aI00
aI00
aI00
aI00
aa(lp2553
I194354
aF334.3
aF685.72
aVp2
p2554
aS'dejavusans'
p2555
aS'#000000'
p2556
aF10.0
aI0
aI00
aI00
aI00
aI00
aI00
aI00
aI00
aI00
aa(lp2557
I1109
aF353.5
aF685.72
aVp2
p2558
aS'dejavusans'
p2559
aS'#000000'
p2560
aF10.0
aI0
aI00
aI00
aI00
aI00
aI00
aI00
aI00
aI00
aa(lp2561
I111798
aF108.1
aF712.12
aVp2
p2562
aS'dejavusans'
p2563
aS'#000000'
p2564
aF10.0
aI0
aI01
aI00
aI00
aI00
aI00
aI00
aI00
aI00
aa(lp2565
I194354
aF183.6
aF712.12
aVp2
p2566
aS'dejavusans'
p2567
aS'#000000'
p2568
aF10.0
aI0
aI00
aI00
aI00
aI00
aI00
aI00
aI00
aI00
aa(lp2569
I234378
aF202.8
aF712.12
aVp2
p2570
aS'dejavusans'
p2571
aS'#000000'
p2572
aF10.0
aI0
aI00
aI00
aI00
aI00
aI00
aI00
aI00
aI00
aa(lp2573
I94749
aF484.1
aF725.72
aVp2
p2574
aS'dejavusans'
p2575
aS'#000000'
p2576
aF10.0
aI0
aI01
aI00
aI00
aI00
aI00
aI00
aI00
aI00
aa(lp2577
I234378
aF511.5
aF725.72
aVp2
p2578
aS'dejavusans'
p2579
aS'#000000'
p2580
aF10.0
aI0
aI00
aI00
aI01
aI01
aI00
aI00
aI00
aI00
aa(lp2581
I144489
aF520.99
aF725.72
aVp2
p2582
aS'dejavusans'
p2583
aS'#000000'
p2584
aF10.0
aI0
aI00
aI00
aI00
aI00
aI00
aI00
aI00
aI00
aa(lp2585
I234378
aF533.8
aF725.72
aVp2
p2586
aS'dejavusans'
p2587
aS'#000000'
p2588
aF10.0
aI0
aI00
aI00
aI01
aI01
aI00
aI00
aI00
aI00
aa(lp2589
I234378
aF72.1
aF79.27
aVp3
p2590
aS'nimbussanl'
p2591
aS'#000000'
p2592
aF10.0
aI0
aI01
aI00
aI00
aI00
aI00
aI00
aI00
aI00
aa(lp2593
I222769
aF117.2375
aF79.27
ag2590
aS'nimbussanl'
p2594
aS'#000000'
p2595
aF10.0
aI0
aI01
aI00
aI00
aI00
aI00
aI00
aI00
aI00
aa(lp2596
I234378
aF162.375
aF79.27
ag2590
aS'nimbussanl'
p2597
aS'#000000'
p2598
aF10.0
aI0
aI01
aI00
aI00
aI00
aI00
aI00
aI00
aI00
aa(lp2599
I234378
aF413.2
aF79.56
aVp3
p2600
aS'nimbusromno9l'
p2601
aS'#000000'
p2602
aF10.0
aI0
aI00
aI00
aI01
aI01
aI01
aI00
aI00
aI00
aa(lp2603
I234378
aF427.17
aF79.56
ag2600
aS'nimbusromno9l'
p2604
aS'#000000'
p2605
aF10.0
aI0
aI00
aI00
aI01
aI01
aI01
aI00
aI00
aI00
aa(lp2606
I234378
aF108.1
aF106.62
aVp3
p2607
aS'dejavusans'
p2608
aS'#000000'
p2609
aF10.0
aI0
aI01
aI00
aI00
aI00
aI00
aI00
aI00
aI00
aa(lp2610
I85218
aF145.5
aF106.62
aVp3
p2611
aS'dejavusans'
p2612
aS'#000000'
p2613
aF10.0
aI0
aI00
aI00
aI00
aI00
aI00
aI00
aI00
aI00
aa(lp2614
I112275
aF167.1
aF106.62
aVp3
p2615
aS'dejavusans'
p2616
aS'#000000'
p2617
aF10.0
aI0
aI00
aI00
aI00
aI00
aI00
aI00
aI00
aI00
aa(lp2618
I125078
aF189.2
aF106.62
aVp3
p2619
aS'dejavusans'
p2620
aS'#000000'
p2621
aF10.0
aI0
aI00
aI00
aI00
aI00
aI00
aI00
aI00
aI00
aa(lp2622
I234378
aF221.54874999999998
aF106.62
ag2619
aS'dejavusans'
p2623
aS'#000000'
p2624
aF10.0
aI0
aI00
aI00
aI00
aI00
aI00
aI00
aI00
aI00
aa(lp2625
I104819
aF108.1
aF119.62
aVp3
p2626
aS'dejavusans'
p2627
aS'#000000'
p2628
aF10.0
aI0
aI01
aI00
aI00
aI00
aI00
aI00
aI00
aI00
aa(lp2629
I144489
aF167.89
aF119.62
aVp3
p2630
aS'dejavusans'
p2631
aS'#000000'
p2632
aF10.0
aI0
aI00
aI00
aI00
aI00
aI00
aI00
aI00
aI00
aa(lp2633
I121847
aF180.39
aF119.62
aVp3
p2634
aS'dejavusans'
p2635
aS'#000000'
p2636
aF10.0
aI0
aI00
aI00
aI00
aI00
aI00
aI00
aI00
aI00
aa(lp2637
I234378
aF202.19
aF119.62
aVp3
p2638
aS'dejavusans'
p2639
aS'#000000'
p2640
aF10.0
aI0
aI00
aI00
aI00
aI00
aI00
aI00
aI00
aI00
aa(lp2641
I190806
aF232.99
aF119.62
aVp3
p2642
aS'dejavusans'
p2643
aS'#000000'
p2644
aF10.0
aI0
aI00
aI00
aI00
aI00
aI00
aI00
aI00
aI00
aa(lp2645
I194354
aF249.49
aF119.62
aVp3
p2646
aS'dejavusans'
p2647
aS'#000000'
p2648
aF10.0
aI0
aI00
aI00
aI00
aI00
aI00
aI00
aI00
aI00
aa(lp2649
I68032
aF268.69
aF119.62
aVp3
p2650
aS'dejavusans'
p2651
aS'#000000'
p2652
aF10.0
aI0
aI00
aI00
aI00
aI00
aI00
aI00
aI00
aI00
aa(lp2653
I38577
aF336.69
aF119.62
aVp3
p2654
aS'dejavusans'
p2655
aS'#000000'
p2656
aF10.0
aI0
aI00
aI00
aI00
aI00
aI00
aI00
aI00
aI00
aa(lp2657
I234378
aF358.826
aF119.62
ag2654
aS'dejavusans'
p2658
aS'#000000'
p2659
aF10.0
aI0
aI00
aI00
aI00
aI00
aI00
aI00
aI00
aI00
aa(lp2660
I62688
aF108.1
aF132.72
aVp3
p2661
aS'dejavusans'
p2662
aS'#000000'
p2663
aF10.0
aI0
aI01
aI00
aI00
aI00
aI00
aI00
aI00
aI00
aa(lp2664
I56042
aF132.9
aF132.72
aVp3
p2665
aS'dejavusans'
p2666
aS'#000000'
p2667
aF10.0
aI0
aI01
aI00
aI00
aI00
aI00
aI00
aI00
aI00
aa(lp2668
I234378
aF164.84571428571428
aF132.72
ag2665
aS'dejavusans'
p2669
aS'#000000'
p2670
aF10.0
aI0
aI00
aI00
aI00
aI00
aI00
aI00
aI00
aI00
aa(lp2671
I112275
aF108.1
aF145.72
aVp3
p2672
aS'dejavusans'
p2673
aS'#000000'
p2674
aF10.0
aI0
aI01
aI00
aI00
aI00
aI00
aI00
aI00
aI00
aa(lp2675
I125078
aF131.2
aF145.72
aVp3
p2676
aS'dejavusans'
p2677
aS'#000000'
p2678
aF10.0
aI0
aI00
aI00
aI00
aI00
aI00
aI00
aI00
aI00
aa(lp2679
I144489
aF168.2
aF145.72
aVp3
p2680
aS'dejavusans'
p2681
aS'#000000'
p2682
aF10.0
aI0
aI00
aI00
aI00
aI00
aI00
aI00
aI00
aI00
aa(lp2683
I194354
aF180.7
aF145.72
aVp3
p2684
aS'dejavusans'
p2685
aS'#000000'
p2686
aF10.0
aI0
aI00
aI00
aI00
aI00
aI00
aI00
aI00
aI00
aa(lp2687
I123665
aF199.9
aF145.72
aVp3
p2688
aS'dejavusans'
p2689
aS'#000000'
p2690
aF10.0
aI0
aI00
aI00
aI00
aI00
aI00
aI00
aI00
aI00
aa(lp2691
I234378
aF72.1
aF169.62
aVp3
p2692
aS'dejavusans'
p2693
aS'#000000'
p2694
aF10.0
aI1
aI01
aI00
aI00
aI00
aI00
aI00
aI00
aI00
aa(lp2695
I25729
aF125.59
aF169.62
aVp3
p2696
aS'dejavusans'
p2697
aS'#000000'
p2698
aF10.0
aI1
aI01
aI00
aI00
aI00
aI00
aI00
aI00
aI00
aa(lp2699
I234378
aF150.446
aF169.62
ag2696
aS'dejavusans'
p2700
aS'#000000'
p2701
aF10.0
aI1
aI00
aI00
aI00
aI00
aI00
aI00
aI00
aI00
aa(lp2702
I21716
aF159.7
aF169.62
aVp3
p2703
aS'dejavusans'
p2704
aS'#000000'
p2705
aF10.0
aI0
aI01
aI00
aI00
aI00
aI00
aI00
aI00
aI00
aa(lp2706
I234378
aF178.71599999999998
aF169.62
ag2703
aS'dejavusans'
p2707
aS'#000000'
p2708
aF10.0
aI0
aI00
aI00
aI00
aI00
aI00
aI00
aI00
aI00
aa(lp2709
I234378
aF186.49
aF169.62
aVp3
p2710
aS'dejavusans'
p2711
aS'#000000'
p2712
aF10.0
aI0
aI01
aI01
aI00
aI00
aI00
aI00
aI00
aI00
aa(lp2713
I234378
aF200.1175
aF169.62
ag2710
aS'dejavusans'
p2714
aS'#000000'
p2715
aF10.0
aI0
aI00
aI00
aI00
aI00
aI00
aI00
aI00
aI00
aa(lp2716
I223319
aF207.69
aF169.62
aVp3
p2717
aS'dejavusans'
p2718
aS'#000000'
p2719
aF10.0
aI0
aI00
aI00
aI00
aI00
aI00
aI00
aI00
aI00
aa(lp2720
I234378
aF244.99
aF169.62
aVp3
p2721
aS'dejavusans'
p2722
aS'#000000'
p2723
aF10.0
aI0
aI00
aI00
aI01
aI01
aI00
aI00
aI00
aI00
aa(lp2724
I234378
aF249.66833333333335
aF169.62
ag2721
aS'dejavusans'
p2725
aS'#000000'
p2726
aF10.0
aI0
aI00
aI00
aI00
aI00
aI00
aI00
aI00
aI00
aa(lp2727
I234378
aF254.3466666666667
aF169.62
ag2721
aS'dejavusans'
p2728
aS'#000000'
p2729
aF10.0
aI0
aI00
aI00
aI01
aI01
aI00
aI00
aI00
aI00
aa(lp2730
I234378
aF257.02500000000003
aF169.62
ag2721
aS'dejavusans'
p2731
aS'#000000'
p2732
aF10.0
aI0
aI00
aI00
aI00
aI00
aI00
aI00
aI00
aI00
aa(lp2733
I234378
aF261.7033333333334
aF169.62
ag2721
aS'dejavusans'
p2734
aS'#000000'
p2735
aF10.0
aI0
aI00
aI00
aI01
aI01
aI00
aI00
aI00
aI00
aa(lp2736
I234378
aF268.3816666666667
aF169.62
ag2721
aS'dejavusans'
p2737
aS'#000000'
p2738
aF10.0
aI0
aI00
aI00
aI00
aI00
aI00
aI00
aI00
aI00
aa(lp2739
I138615
aF276.09
aF169.62
aVp3
p2740
aS'dejavusans'
p2741
aS'#000000'
p2742
aF10.0
aI0
aI01
aI00
aI00
aI00
aI00
aI00
aI00
aI00
aa(lp2743
I234378
aF297.99
aF169.62
aVp3
p2744
aS'dejavusans'
p2745
aS'#000000'
p2746
aF10.0
aI0
aI01
aI00
aI00
aI00
aI00
aI00
aI00
aI00
aa(lp2747
I234378
aF345.58
aF169.62
aVp3
p2748
aS'dejavusans'
p2749
aS'#000000'
p2750
aF10.0
aI0
aI00
aI00
aI01
aI01
aI00
aI00
aI00
aI00
aa(lp2751
I234378
aF350.2475
aF169.62
ag2748
aS'dejavusans'
p2752
aS'#000000'
p2753
aF10.0
aI0
aI00
aI00
aI00
aI00
aI00
aI00
aI00
aI00
aa(lp2754
I234378
aF354.915
aF169.62
ag2748
aS'dejavusans'
p2755
aS'#000000'
p2756
aF10.0
aI0
aI00
aI00
aI01
aI01
aI00
aI00
aI00
aI00
aa(lp2757
I234378
aF359.58250000000004
aF169.62
ag2748
aS'dejavusans'
p2758
aS'#000000'
p2759
aF10.0
aI0
aI00
aI00
aI00
aI00
aI00
aI00
aI00
aI00
aa(lp2760
I234378
aF367.28
aF169.62
aVp3
p2761
aS'dejavusans'
p2762
aS'#000000'
p2763
aF10.0
aI0
aI01
aI00
aI00
aI00
aI00
aI00
aI00
aI00
aa(lp2764
I234378
aF406.00888888888886
aF169.62
ag2761
aS'dejavusans'
p2765
aS'#000000'
p2766
aF10.0
aI0
aI00
aI00
aI00
aI00
aI00
aI00
aI00
aI00
aa(lp2767
I199183
aF413.97
aF169.62
aVp3
p2768
aS'dejavusans'
p2769
aS'#000000'
p2770
aF10.0
aI0
aI01
aI00
aI00
aI00
aI00
aI00
aI00
aI00
aa(lp2771
I234378
aF454.97
aF169.62
aVp3
p2772
aS'dejavusans'
p2773
aS'#000000'
p2774
aF10.0
aI0
aI01
aI01
aI00
aI00
aI00
aI00
aI00
aI00
aa(lp2775
I190806
aF479.0
aF169.62
aVp3
p2776
aS'dejavusans'
p2777
aS'#000000'
p2778
aF10.0
aI0
aI00
aI00
aI00
aI00
aI00
aI00
aI00
aI00
aa(lp2779
I194179
aF495.5
aF169.62
aVp3
p2780
aS'dejavusans'
p2781
aS'#000000'
p2782
aF10.0
aI0
aI00
aI00
aI00
aI00
aI00
aI00
aI00
aI00
aa(lp2783
I226160
aF72.1
aF181.32
aVp3
p2784
aS'dejavusans'
p2785
aS'#000000'
p2786
aF10.0
aI0
aI00
aI00
aI00
aI00
aI00
aI00
aI00
aI00
aa(lp2787
I234378
aF104.53625
aF181.32
ag2784
aS'dejavusans'
p2788
aS'#000000'
p2789
aF10.0
aI0
aI00
aI00
aI00
aI00
aI00
aI00
aI00
aI00
aa(lp2790
I234378
aF112.19
aF181.32
aVp3
p2791
aS'dejavusans'
p2792
aS'#000000'
p2793
aF10.0
aI0
aI01
aI00
aI00
aI00
aI00
aI00
aI00
aI00
aa(lp2794
I234378
aF152.8881818181818
aF181.32
ag2791
aS'dejavusans'
p2795
aS'#000000'
p2796
aF10.0
aI0
aI00
aI00
aI00
aI00
aI00
aI00
aI00
aI00
aa(lp2797
I234378
aF157.97545454545454
aF181.32
ag2791
aS'dejavusans'
p2798
aS'#000000'
p2799
aF10.0
aI0
aI01
aI01
aI00
aI00
aI00
aI00
aI00
aI00
aa(lp2800
I234378
aF171.19
aF181.32
aVp3
p2801
aS'dejavusans'
p2802
aS'#000000'
p2803
aF10.0
aI0
aI01
aI00
aI00
aI00
aI00
aI00
aI00
aI00
aa(lp2804
I234378
aF210.043
aF181.32
ag2801
aS'dejavusans'
p2805
aS'#000000'
p2806
aF10.0
aI0
aI00
aI00
aI00
aI00
aI00
aI00
aI00
aI00
aa(lp2807
I234378
aF72.1
aF204.62
aVp3
p2808
aS'dejavusans'
p2809
aS'#000000'
p2810
aF10.0
aI1
aI01
aI01
aI00
aI00
aI00
aI00
aI00
aI00
aa(lp2811
I3878
aF97.29
aF204.62
aVp3
p2812
aS'dejavusans'
p2813
aS'#000000'
p2814
aF10.0
aI1
aI01
aI00
aI00
aI00
aI00
aI00
aI00
aI00
aa(lp2815
I147316
aF161.19
aF204.62
aVp3
p2816
aS'dejavusans'
p2817
aS'#000000'
p2818
aF10.0
aI1
aI01
aI00
aI00
aI00
aI00
aI00
aI00
aI00
aa(lp2819
I166268
aF221.09
aF204.62
aVp3
p2820
aS'dejavusans'
p2821
aS'#000000'
p2822
aF10.0
aI1
aI01
aI00
aI00
aI00
aI00
aI00
aI00
aI00
aa(lp2823
I234378
aF300.08
aF204.62
aVp3
p2824
aS'dejavusans'
p2825
aS'#000000'
p2826
aF10.0
aI1
aI00
aI00
aI00
aI00
aI00
aI00
aI00
aI00
aa(lp2827
I122576
aF306.0525
aF204.62
ag2824
aS'dejavusans'
p2828
aS'#000000'
p2829
aF10.0
aI1
aI01
aI00
aI00
aI00
aI00
aI00
aI00
aI00
aa(lp2830
I234378
aF351.27
aF204.62
aVp3
p2831
aS'dejavusans'
p2832
aS'#000000'
p2833
aF10.0
aI1
aI00
aI00
aI01
aI01
aI01
aI00
aI00
aI00
aa(lp2834
I145064
aF375.17
aF204.62
aVp3
p2835
aS'dejavusans'
p2836
aS'#000000'
p2837
aF10.0
aI1
aI01
aI00
aI00
aI00
aI00
aI00
aI00
aI00
aa(lp2838
I2006
aF417.37
aF204.62
aVp3
p2839
aS'dejavusans'
p2840
aS'#000000'
p2841
aF10.0
aI1
aI01
aI00
aI00
aI00
aI00
aI00
aI00
aI00
aa(lp2842
I234378
aF466.34375
aF204.62
ag2839
aS'dejavusans'
p2843
aS'#000000'
p2844
aF10.0
aI1
aI00
aI00
aI00
aI00
aI00
aI00
aI00
aI00
aa(lp2845
I234378
aF72.1
aF216.22
aVp3
p2846
aS'dejavusans'
p2847
aS'#000000'
p2848
aF10.0
aI0
aI00
aI00
aI00
aI00
aI00
aI00
aI00
aI00
aa(lp2849
I234378
aF77.7825
aF216.22
ag2846
aS'dejavusans'
p2850
aS'#000000'
p2851
aF10.0
aI0
aI01
aI00
aI00
aI00
aI00
aI00
aI00
aI01
aa(lp2852
I234378
aF98.07
aF216.22
aVp3
p2853
aS'dejavusans'
p2854
aS'#000000'
p2855
aF10.0
aI0
aI00
aI00
aI01
aI01
aI01
aI00
aI00
aI00
aa(lp2856
I20708
aF122.78999999999999
aF216.22
ag2853
aS'dejavusans'
p2857
aS'#000000'
p2858
aF10.0
aI0
aI01
aI00
aI00
aI00
aI00
aI00
aI00
aI01
aa(lp2859
I234378
aF160.63
aF216.22
aVp3
p2860
aS'dejavusans'
p2861
aS'#000000'
p2862
aF10.0
aI0
aI00
aI00
aI01
aI01
aI01
aI00
aI00
aI00
aa(lp2863
I234378
aF184.126
aF216.22
ag2860
aS'dejavusans'
p2864
aS'#000000'
p2865
aF10.0
aI0
aI00
aI00
aI00
aI00
aI00
aI00
aI00
aI00
aa(lp2866
I194354
aF72.1
aF241.92
aVp3
p2867
aS'dejavusans'
p2868
aS'#000000'
p2869
aF10.0
aI0
aI01
aI00
aI00
aI00
aI00
aI00
aI00
aI00
aa(lp2870
I120218
aF95.78
aF241.92
aVp3
p2871
aS'dejavusans'
p2872
aS'#000000'
p2873
aF10.0
aI0
aI01
aI00
aI00
aI00
aI00
aI00
aI00
aI00
aa(lp2874
I187900
aF148.96
aF241.92
aVp3
p2875
aS'dejavusans'
p2876
aS'#000000'
p2877
aF10.0
aI0
aI01
aI00
aI00
aI00
aI00
aI00
aI00
aI00
aa(lp2878
I207716
aF196.54
aF241.92
aVp3
p2879
aS'dejavusans'
p2880
aS'#000000'
p2881
aF10.0
aI0
aI01
aI00
aI00
aI00
aI00
aI00
aI00
aI00
aa(lp2882
I234378
aF238.52
aF241.92
aVp3
p2883
aS'dejavusans'
p2884
aS'#000000'
p2885
aF10.0
aI0
aI00
aI00
aI00
aI00
aI00
aI00
aI00
aI00
aa(lp2886
I234378
aF244.06
aF241.92
ag2883
aS'dejavusans'
p2887
aS'#000000'
p2888
aF10.0
aI0
aI01
aI01
aI00
aI00
aI00
aI00
aI00
aI00
aa(lp2889
I234378
aF260.68
aF241.92
ag2883
aS'dejavusans'
p2890
aS'#000000'
p2891
aF10.0
aI0
aI00
aI00
aI00
aI00
aI00
aI00
aI00
aI00
aa(lp2892
I234378
aF271.5
aF241.92
aVp3
p2893
aS'dejavusans'
p2894
aS'#000000'
p2895
aF10.0
aI0
aI00
aI00
aI00
aI00
aI00
aI00
aI00
aI00
aa(lp2896
I187900
aF319.68
aF241.92
aVp3
p2897
aS'dejavusans'
p2898
aS'#000000'
p2899
aF10.0
aI0
aI00
aI00
aI00
aI00
aI00
aI00
aI00
aI00
aa(lp2900
I18717
aF365.76
aF241.92
aVp3
p2901
aS'dejavusans'
p2902
aS'#000000'
p2903
aF10.0
aI0
aI00
aI00
aI00
aI00
aI00
aI00
aI00
aI00
aa(lp2904
I234378
aF419.72416666666663
aF241.92
ag2901
aS'dejavusans'
p2905
aS'#000000'
p2906
aF10.0
aI0
aI00
aI00
aI00
aI00
aI00
aI00
aI00
aI00
aa(lp2907
I2555
aF430.04
aF241.92
aVp3
p2908
aS'dejavusans'
p2909
aS'#000000'
p2910
aF10.0
aI0
aI00
aI00
aI00
aI00
aI00
aI00
aI00
aI00
aa(lp2911
I234378
aF475.82300000000004
aF241.92
ag2908
aS'dejavusans'
p2912
aS'#000000'
p2913
aF10.0
aI0
aI00
aI00
aI00
aI00
aI00
aI00
aI00
aI00
aa(lp2914
I234378
aF486.32
aF241.92
aVp3
p2915
aS'dejavusans'
p2916
aS'#000000'
p2917
aF10.0
aI0
aI00
aI00
aI00
aI00
aI00
aI00
aI00
aI00
aa(lp2918
I85218
aF72.1
aF253.52
aVp3
p2919
aS'dejavusans'
p2920
aS'#000000'
p2921
aF10.0
aI0
aI00
aI00
aI00
aI00
aI00
aI00
aI00
aI00
aa(lp2922
I16475
aF95.48
aF253.52
aVp3
p2923
aS'dejavusans'
p2924
aS'#000000'
p2925
aF10.0
aI0
aI00
aI00
aI00
aI00
aI00
aI00
aI00
aI00
aa(lp2926
I190806
aF156.76
aF253.52
aVp3
p2927
aS'dejavusans'
p2928
aS'#000000'
p2929
aF10.0
aI0
aI00
aI00
aI00
aI00
aI00
aI00
aI00
aI00
aa(lp2930
I194354
aF175.04
aF253.52
aVp3
p2931
aS'dejavusans'
p2932
aS'#000000'
p2933
aF10.0
aI0
aI00
aI00
aI00
aI00
aI00
aI00
aI00
aI00
aa(lp2934
I234378
aF196.02
aF253.52
aVp3
p2935
aS'dejavusans'
p2936
aS'#000000'
p2937
aF10.0
aI0
aI00
aI00
aI00
aI00
aI00
aI00
aI00
aI00
aa(lp2938
I152900
aF234.6
aF253.52
aVp3
p2939
aS'dejavusans'
p2940
aS'#000000'
p2941
aF10.0
aI0
aI00
aI00
aI00
aI00
aI00
aI00
aI00
aI00
aa(lp2942
I85218
aF296.78
aF253.52
aVp3
p2943
aS'dejavusans'
p2944
aS'#000000'
p2945
aF10.0
aI0
aI00
aI00
aI00
aI00
aI00
aI00
aI00
aI00
aa(lp2946
I229860
aF320.16
aF253.52
aVp3
p2947
aS'dejavusans'
p2948
aS'#000000'
p2949
aF10.0
aI0
aI00
aI00
aI00
aI00
aI00
aI00
aI00
aI00
aa(lp2950
I156202
aF370.74
aF253.52
aVp3
p2951
aS'dejavusans'
p2952
aS'#000000'
p2953
aF10.0
aI0
aI00
aI00
aI00
aI00
aI00
aI00
aI00
aI00
aa(lp2954
I234378
aF392.92
aF253.52
aVp3
p2955
aS'dejavusans'
p2956
aS'#000000'
p2957
aF10.0
aI0
aI00
aI00
aI00
aI00
aI00
aI00
aI00
aI00
aa(lp2958
I144489
aF449.2
aF253.52
aVp3
p2959
aS'dejavusans'
p2960
aS'#000000'
p2961
aF10.0
aI0
aI00
aI00
aI00
aI00
aI00
aI00
aI00
aI00
aa(lp2962
I194354
aF463.48
aF253.52
aVp3
p2963
aS'dejavusans'
p2964
aS'#000000'
p2965
aF10.0
aI0
aI00
aI00
aI00
aI00
aI00
aI00
aI00
aI00
aa(lp2966
I25931
aF484.46
aF253.52
aVp3
p2967
aS'dejavusans'
p2968
aS'#000000'
p2969
aF10.0
aI0
aI00
aI00
aI00
aI00
aI00
aI00
aI00
aI00
aa(lp2970
I234378
aF510.1485714285714
aF253.52
ag2967
aS'dejavusans'
p2971
aS'#000000'
p2972
aF10.0
aI0
aI00
aI00
aI00
aI00
aI00
aI00
aI00
aI00
aa(lp2973
I46544
aF519.24
aF253.52
aVp3
p2974
aS'dejavusans'
p2975
aS'#000000'
p2976
aF10.0
aI0
aI01
aI00
aI00
aI00
aI00
aI00
aI00
aI00
aa(lp2977
I234378
aF72.1
aF265.22
aVp3
p2978
aS'dejavusans'
p2979
aS'#000000'
p2980
aF10.0
aI0
aI00
aI00
aI00
aI00
aI00
aI00
aI00
aI00
aa(lp2981
I137307
aF110.2
aF265.22
aVp3
p2982
aS'dejavusans'
p2983
aS'#000000'
p2984
aF10.0
aI0
aI00
aI00
aI00
aI00
aI00
aI00
aI00
aI00
aa(lp2985
I26147
aF135.0
aF265.22
aVp3
p2986
aS'dejavusans'
p2987
aS'#000000'
p2988
aF10.0
aI0
aI00
aI00
aI00
aI00
aI00
aI00
aI00
aI00
aa(lp2989
I205190
aF179.7
aF265.22
aVp3
p2990
aS'dejavusans'
p2991
aS'#000000'
p2992
aF10.0
aI0
aI00
aI00
aI00
aI00
aI00
aI00
aI00
aI00
aa(lp2993
I135639
aF205.79
aF265.22
aVp3
p2994
aS'dejavusans'
p2995
aS'#000000'
p2996
aF10.0
aI0
aI00
aI00
aI00
aI00
aI00
aI00
aI00
aI00
aa(lp2997
I234378
aF217.79
aF265.22
aVp3
p2998
aS'dejavusans'
p2999
aS'#000000'
p3000
aF10.0
aI0
aI00
aI00
aI00
aI00
aI00
aI00
aI00
aI00
aa(lp3001
I194354
aF264.88
aF265.22
aVp3
p3002
aS'dejavusans'
p3003
aS'#000000'
p3004
aF10.0
aI0
aI00
aI00
aI00
aI00
aI00
aI00
aI00
aI00
aa(lp3005
I114985
aF284.07
aF265.22
aVp3
p3006
aS'dejavusans'
p3007
aS'#000000'
p3008
aF10.0
aI0
aI00
aI00
aI00
aI00
aI00
aI00
aI00
aI00
aa(lp3009
I234378
aF328.07
aF265.22
aVp3
p3010
aS'dejavusans'
p3011
aS'#000000'
p3012
aF10.0
aI0
aI00
aI00
aI00
aI00
aI00
aI00
aI00
aI00
aa(lp3013
I85218
aF368.87
aF265.22
aVp3
p3014
aS'dejavusans'
p3015
aS'#000000'
p3016
aF10.0
aI0
aI00
aI00
aI00
aI00
aI00
aI00
aI00
aI00
aa(lp3017
I87604
aF390.46
aF265.22
aVp3
p3018
aS'dejavusans'
p3019
aS'#000000'
p3020
aF10.0
aI0
aI00
aI00
aI00
aI00
aI00
aI00
aI00
aI00
aa(lp3021
I27356
aF423.06
aF265.22
aVp3
p3022
aS'dejavusans'
p3023
aS'#000000'
p3024
aF10.0
aI0
aI00
aI00
aI00
aI00
aI00
aI00
aI00
aI00
aa(lp3025
I190806
aF445.96
aF265.22
aVp3
p3026
aS'dejavusans'
p3027
aS'#000000'
p3028
aF10.0
aI0
aI00
aI00
aI00
aI00
aI00
aI00
aI00
aI00
aa(lp3029
I196036
aF462.56
aF265.22
aVp3
p3030
aS'dejavusans'
p3031
aS'#000000'
p3032
aF10.0
aI0
aI00
aI00
aI00
aI00
aI00
aI00
aI00
aI00
aa(lp3033
I120218
aF489.26
aF265.22
aVp3
p3034
aS'dejavusans'
p3035
aS'#000000'
p3036
aF10.0
aI0
aI00
aI00
aI00
aI00
aI00
aI00
aI00
aI00
aa(lp3037
I234378
aF532.3355555555555
aF265.22
ag3034
aS'dejavusans'
p3038
aS'#000000'
p3039
aF10.0
aI0
aI00
aI00
aI00
aI00
aI00
aI00
aI00
aI00
aa(lp3040
I194354
aF72.1
aF290.82
aVp3
p3041
aS'dejavusans'
p3042
aS'#000000'
p3043
aF10.0
aI0
aI01
aI00
aI00
aI00
aI00
aI00
aI00
aI00
aa(lp3044
I177958
aF94.78
aF290.82
aVp3
p3045
aS'dejavusans'
p3046
aS'#000000'
p3047
aF10.0
aI0
aI00
aI00
aI00
aI00
aI00
aI00
aI00
aI00
aa(lp3048
I59734
aF128.60222222222222
aF290.82
ag3045
aS'dejavusans'
p3049
aS'#000000'
p3050
aF10.0
aI0
aI00
aI00
aI00
aI00
aI00
aI00
aI00
aI00
aa(lp3051
I205671
aF141.26
aF290.82
aVp3
p3052
aS'dejavusans'
p3053
aS'#000000'
p3054
aF10.0
aI0
aI00
aI00
aI00
aI00
aI00
aI00
aI00
aI00
aa(lp3055
I234378
aF174.34
aF290.82
aVp3
p3056
aS'dejavusans'
p3057
aS'#000000'
p3058
aF10.0
aI0
aI00
aI00
aI00
aI00
aI00
aI00
aI00
aI00
aa(lp3059
I31703
aF219.32
aF290.82
aVp3
p3060
aS'dejavusans'
p3061
aS'#000000'
p3062
aF10.0
aI0
aI00
aI00
aI00
aI00
aI00
aI00
aI00
aI00
aa(lp3063
I194354
aF250.7
aF290.82
aVp3
p3064
aS'dejavusans'
p3065
aS'#000000'
p3066
aF10.0
aI0
aI00
aI00
aI00
aI00
aI00
aI00
aI00
aI00
aa(lp3067
I234378
aF271.08
aF290.82
aVp3
p3068
aS'dejavusans'
p3069
aS'#000000'
p3070
aF10.0
aI0
aI00
aI00
aI00
aI00
aI00
aI00
aI00
aI00
aa(lp3071
I234378
aF305.66
aF290.82
aVp3
p3072
aS'dejavusans'
p3073
aS'#000000'
p3074
aF10.0
aI0
aI00
aI00
aI00
aI00
aI00
aI00
aI00
aI00
aa(lp3075
I192651
aF352.24
aF290.82
aVp3
p3076
aS'dejavusans'
p3077
aS'#000000'
p3078
aF10.0
aI0
aI00
aI00
aI00
aI00
aI00
aI00
aI00
aI00
aa(lp3079
I194354
aF368.62
aF290.82
aVp3
p3080
aS'dejavusans'
p3081
aS'#000000'
p3082
aF10.0
aI0
aI00
aI00
aI00
aI00
aI00
aI00
aI00
aI00
aa(lp3083
I234378
aF389.0
aF290.82
aVp3
p3084
aS'dejavusans'
p3085
aS'#000000'
p3086
aF10.0
aI0
aI00
aI00
aI00
aI00
aI00
aI00
aI00
aI00
aa(lp3087
I85218
aF425.28
aF290.82
aVp3
p3088
aS'dejavusans'
p3089
aS'#000000'
p3090
aF10.0
aI0
aI00
aI00
aI00
aI00
aI00
aI00
aI00
aI00
aa(lp3091
I83126
aF448.16
aF290.82
aVp3
p3092
aS'dejavusans'
p3093
aS'#000000'
p3094
aF10.0
aI0
aI00
aI00
aI00
aI00
aI00
aI00
aI00
aI00
aa(lp3095
I144489
aF530.24
aF290.82
aVp3
p3096
aS'dejavusans'
p3097
aS'#000000'
p3098
aF10.0
aI0
aI00
aI00
aI00
aI00
aI00
aI00
aI00
aI00
aa(lp3099
I194354
aF72.1
aF302.52
aVp3
p3100
aS'dejavusans'
p3101
aS'#000000'
p3102
aF10.0
aI0
aI00
aI00
aI00
aI00
aI00
aI00
aI00
aI00
aa(lp3103
I19160
aF91.3
aF302.52
aVp3
p3104
aS'dejavusans'
p3105
aS'#000000'
p3106
aF10.0
aI0
aI00
aI00
aI00
aI00
aI00
aI00
aI00
aI00
aa(lp3107
I234378
aF130.59
aF302.52
aVp3
p3108
aS'dejavusans'
p3109
aS'#000000'
p3110
aF10.0
aI0
aI00
aI00
aI00
aI00
aI00
aI00
aI00
aI00
aa(lp3111
I85218
aF176.09
aF302.52
aVp3
p3112
aS'dejavusans'
p3113
aS'#000000'
p3114
aF10.0
aI0
aI00
aI00
aI00
aI00
aI00
aI00
aI00
aI00
aa(lp3115
I234378
aF197.69
aF302.52
aVp3
p3116
aS'dejavusans'
p3117
aS'#000000'
p3118
aF10.0
aI0
aI00
aI00
aI00
aI00
aI00
aI00
aI00
aI00
aa(lp3119
I16331
aF273.89
aF302.52
aVp3
p3120
aS'dejavusans'
p3121
aS'#000000'
p3122
aF10.0
aI0
aI00
aI00
aI00
aI00
aI00
aI00
aI00
aI00
aa(lp3123
I170899
aF288.09
aF302.52
aVp3
p3124
aS'dejavusans'
p3125
aS'#000000'
p3126
aF10.0
aI0
aI00
aI00
aI00
aI00
aI00
aI00
aI00
aI00
aa(lp3127
I192651
aF331.39
aF302.52
aVp3
p3128
aS'dejavusans'
p3129
aS'#000000'
p3130
aF10.0
aI0
aI00
aI00
aI00
aI00
aI00
aI00
aI00
aI00
aa(lp3131
I194354
aF346.59
aF302.52
aVp3
p3132
aS'dejavusans'
p3133
aS'#000000'
p3134
aF10.0
aI0
aI00
aI00
aI00
aI00
aI00
aI00
aI00
aI00
aa(lp3135
I25931
aF365.79
aF302.52
aVp3
p3136
aS'dejavusans'
p3137
aS'#000000'
p3138
aF10.0
aI0
aI00
aI00
aI00
aI00
aI00
aI00
aI00
aI00
aa(lp3139
I234378
aF391.47857142857146
aF302.52
ag3136
aS'dejavusans'
p3140
aS'#000000'
p3141
aF10.0
aI0
aI00
aI00
aI00
aI00
aI00
aI00
aI00
aI00
aa(lp3142
I234378
aF72.1
aF328.12
aVp3
p3143
aS'dejavusans'
p3144
aS'#000000'
p3145
aF10.0
aI1
aI01
aI00
aI00
aI00
aI00
aI00
aI00
aI00
aa(lp3146
I85218
aF105.7
aF328.12
aVp3
p3147
aS'dejavusans'
p3148
aS'#000000'
p3149
aF10.0
aI1
aI00
aI00
aI00
aI00
aI00
aI00
aI00
aI00
aa(lp3150
I234378
aF129.79
aF328.12
aVp3
p3151
aS'dejavusans'
p3152
aS'#000000'
p3153
aF10.0
aI1
aI01
aI00
aI00
aI00
aI00
aI00
aI00
aI00
aa(lp3154
I234378
aF216.18058823529412
aF328.12
ag3151
aS'dejavusans'
p3155
aS'#000000'
p3156
aF10.0
aI1
aI00
aI00
aI00
aI00
aI00
aI00
aI00
aI00
aa(lp3157
I16331
aF72.1
aF353.82
aVp3
p3158
aS'dejavusans'
p3159
aS'#000000'
p3160
aF10.0
aI0
aI01
aI00
aI00
aI00
aI00
aI00
aI00
aI00
aa(lp3161
I166593
aF87.1
aF353.82
aVp3
p3162
aS'dejavusans'
p3163
aS'#000000'
p3164
aF10.0
aI0
aI00
aI00
aI00
aI00
aI00
aI00
aI00
aI00
aa(lp3165
I146209
aF96.2
aF353.82
aVp3
p3166
aS'dejavusans'
p3167
aS'#000000'
p3168
aF10.0
aI0
aI00
aI00
aI00
aI00
aI00
aI00
aI00
aI00
aa(lp3169
I144489
aF140.9
aF353.82
aVp3
p3170
aS'dejavusans'
p3171
aS'#000000'
p3172
aF10.0
aI0
aI00
aI00
aI00
aI00
aI00
aI00
aI00
aI00
aa(lp3173
I194354
aF153.4
aF353.82
aVp3
p3174
aS'dejavusans'
p3175
aS'#000000'
p3176
aF10.0
aI0
aI00
aI00
aI00
aI00
aI00
aI00
aI00
aI00
aa(lp3177
I20593
aF172.6
aF353.82
aVp3
p3178
aS'dejavusans'
p3179
aS'#000000'
p3180
aF10.0
aI0
aI00
aI00
aI00
aI00
aI00
aI00
aI00
aI00
aa(lp3181
I85218
aF240.09
aF353.82
aVp3
p3182
aS'dejavusans'
p3183
aS'#000000'
p3184
aF10.0
aI0
aI00
aI00
aI00
aI00
aI00
aI00
aI00
aI00
aa(lp3185
I166268
aF261.69
aF353.82
aVp3
p3186
aS'dejavusans'
p3187
aS'#000000'
p3188
aF10.0
aI0
aI00
aI00
aI00
aI00
aI00
aI00
aI00
aI00
aa(lp3189
I210461
aF332.68
aF353.82
aVp3
p3190
aS'dejavusans'
p3191
aS'#000000'
p3192
aF10.0
aI0
aI00
aI00
aI00
aI00
aI00
aI00
aI00
aI00
aa(lp3193
I234378
aF355.616
aF353.82
ag3190
aS'dejavusans'
p3194
aS'#000000'
p3195
aF10.0
aI0
aI00
aI00
aI00
aI00
aI00
aI00
aI00
aI00
aa(lp3196
I197030
aF364.37
aF353.82
aVp3
p3197
aS'dejavusans'
p3198
aS'#000000'
p3199
aF10.0
aI0
aI01
aI01
aI00
aI00
aI00
aI00
aI00
aI00
aa(lp3200
I209115
aF370.37
aF353.82
aVp3
p3201
aS'dejavusans'
p3202
aS'#000000'
p3203
aF10.0
aI0
aI00
aI00
aI00
aI00
aI00
aI00
aI00
aI00
aa(lp3204
I105322
aF392.57
aF353.82
aVp3
p3205
aS'dejavusans'
p3206
aS'#000000'
p3207
aF10.0
aI0
aI00
aI00
aI00
aI00
aI00
aI00
aI00
aI00
aa(lp3208
I135639
aF437.27
aF353.82
aVp3
p3209
aS'dejavusans'
p3210
aS'#000000'
p3211
aF10.0
aI0
aI00
aI00
aI00
aI00
aI00
aI00
aI00
aI00
aa(lp3212
I194354
aF449.17
aF353.82
aVp3
p3213
aS'dejavusans'
p3214
aS'#000000'
p3215
aF10.0
aI0
aI00
aI00
aI00
aI00
aI00
aI00
aI00
aI00
aa(lp3216
I1109
aF468.36
aF353.82
aVp3
p3217
aS'dejavusans'
p3218
aS'#000000'
p3219
aF10.0
aI0
aI00
aI00
aI00
aI00
aI00
aI00
aI00
aI00
aa(lp3220
I166558
aF108.1
aF380.22
aVp3
p3221
aS'dejavusans'
p3222
aS'#000000'
p3223
aF10.0
aI0
aI01
aI00
aI00
aI00
aI00
aI00
aI00
aI00
aa(lp3224
I144489
aF151.6
aF380.22
aVp3
p3225
aS'dejavusans'
p3226
aS'#000000'
p3227
aF10.0
aI0
aI00
aI00
aI00
aI00
aI00
aI00
aI00
aI00
aa(lp3228
I234378
aF164.1
aF380.22
aVp3
p3229
aS'dejavusans'
p3230
aS'#000000'
p3231
aF10.0
aI0
aI00
aI00
aI00
aI00
aI00
aI00
aI00
aI00
aa(lp3232
I85218
aF197.5
aF380.22
aVp3
p3233
aS'dejavusans'
p3234
aS'#000000'
p3235
aF10.0
aI0
aI00
aI00
aI00
aI00
aI00
aI00
aI00
aI00
aa(lp3236
I83126
aF219.1
aF380.22
aVp3
p3237
aS'dejavusans'
p3238
aS'#000000'
p3239
aF10.0
aI0
aI00
aI00
aI00
aI00
aI00
aI00
aI00
aI00
aa(lp3240
I144489
aF299.99
aF380.22
aVp3
p3241
aS'dejavusans'
p3242
aS'#000000'
p3243
aF10.0
aI0
aI00
aI00
aI00
aI00
aI00
aI00
aI00
aI00
aa(lp3244
I218852
aF312.49
aF380.22
aVp3
p3245
aS'dejavusans'
p3246
aS'#000000'
p3247
aF10.0
aI0
aI00
aI00
aI00
aI00
aI00
aI00
aI00
aI00
aa(lp3248
I234378
aF338.39
aF380.22
aVp3
p3249
aS'dejavusans'
p3250
aS'#000000'
p3251
aF10.0
aI0
aI00
aI00
aI00
aI00
aI00
aI00
aI00
aI00
aa(lp3252
I234378
aF359.9483333333333
aF380.22
ag3249
aS'dejavusans'
p3253
aS'#000000'
p3254
aF10.0
aI0
aI00
aI00
aI00
aI00
aI00
aI00
aI00
aI00
aa(lp3255
I234378
aF108.1
aF393.32
aVp3
p3256
aS'dejavusans'
p3257
aS'#000000'
p3258
aF10.0
aI0
aI01
aI00
aI00
aI00
aI00
aI00
aI00
aI00
aa(lp3259
I96295
aF179.49
aF393.32
aVp3
p3260
aS'dejavusans'
p3261
aS'#000000'
p3262
aF10.0
aI0
aI00
aI00
aI00
aI00
aI00
aI00
aI00
aI00
aa(lp3263
I190806
aF230.18
aF393.32
aVp3
p3264
aS'dejavusans'
p3265
aS'#000000'
p3266
aF10.0
aI0
aI00
aI00
aI00
aI00
aI00
aI00
aI00
aI00
aa(lp3267
I19160
aF246.68
aF393.32
aVp3
p3268
aS'dejavusans'
p3269
aS'#000000'
p3270
aF10.0
aI0
aI00
aI00
aI00
aI00
aI00
aI00
aI00
aI00
aa(lp3271
I234378
aF285.97
aF393.32
aVp3
p3272
aS'dejavusans'
p3273
aS'#000000'
p3274
aF10.0
aI0
aI00
aI00
aI00
aI00
aI00
aI00
aI00
aI00
aa(lp3275
I85218
aF331.47
aF393.32
aVp3
p3276
aS'dejavusans'
p3277
aS'#000000'
p3278
aF10.0
aI0
aI00
aI00
aI00
aI00
aI00
aI00
aI00
aI00
aa(lp3279
I234378
aF352.97
aF393.32
aVp3
p3280
aS'dejavusans'
p3281
aS'#000000'
p3282
aF10.0
aI0
aI00
aI00
aI00
aI00
aI00
aI00
aI00
aI00
aa(lp3283
I234378
aF381.65857142857146
aF393.32
ag3280
aS'dejavusans'
p3284
aS'#000000'
p3285
aF10.0
aI0
aI00
aI00
aI00
aI00
aI00
aI00
aI00
aI00
aa(lp3286
I234378
aF108.1
aF406.32
aVp3
p3287
aS'dejavusans'
p3288
aS'#000000'
p3289
aF10.0
aI0
aI01
aI00
aI00
aI00
aI00
aI00
aI00
aI00
aa(lp3290
I85218
aF145.5
aF406.32
aVp3
p3291
aS'dejavusans'
p3292
aS'#000000'
p3293
aF10.0
aI0
aI00
aI00
aI00
aI00
aI00
aI00
aI00
aI00
aa(lp3294
I112275
aF167.1
aF406.32
aVp3
p3295
aS'dejavusans'
p3296
aS'#000000'
p3297
aF10.0
aI0
aI00
aI00
aI00
aI00
aI00
aI00
aI00
aI00
aa(lp3298
I125078
aF189.2
aF406.32
aVp3
p3299
aS'dejavusans'
p3300
aS'#000000'
p3301
aF10.0
aI0
aI00
aI00
aI00
aI00
aI00
aI00
aI00
aI00
aa(lp3302
I234378
aF221.54874999999998
aF406.32
ag3299
aS'dejavusans'
p3303
aS'#000000'
p3304
aF10.0
aI0
aI00
aI00
aI00
aI00
aI00
aI00
aI00
aI00
aa(lp3305
I104819
aF108.1
aF419.42
aVp3
p3306
aS'dejavusans'
p3307
aS'#000000'
p3308
aF10.0
aI0
aI01
aI00
aI00
aI00
aI00
aI00
aI00
aI00
aa(lp3309
I144489
aF167.89
aF419.42
aVp3
p3310
aS'dejavusans'
p3311
aS'#000000'
p3312
aF10.0
aI0
aI00
aI00
aI00
aI00
aI00
aI00
aI00
aI00
aa(lp3313
I121847
aF180.39
aF419.42
aVp3
p3314
aS'dejavusans'
p3315
aS'#000000'
p3316
aF10.0
aI0
aI00
aI00
aI00
aI00
aI00
aI00
aI00
aI00
aa(lp3317
I234378
aF202.19
aF419.42
aVp3
p3318
aS'dejavusans'
p3319
aS'#000000'
p3320
aF10.0
aI0
aI00
aI00
aI00
aI00
aI00
aI00
aI00
aI00
aa(lp3321
I190806
aF232.99
aF419.42
aVp3
p3322
aS'dejavusans'
p3323
aS'#000000'
p3324
aF10.0
aI0
aI00
aI00
aI00
aI00
aI00
aI00
aI00
aI00
aa(lp3325
I194354
aF249.49
aF419.42
aVp3
p3326
aS'dejavusans'
p3327
aS'#000000'
p3328
aF10.0
aI0
aI00
aI00
aI00
aI00
aI00
aI00
aI00
aI00
aa(lp3329
I19160
aF268.69
aF419.42
aVp3
p3330
aS'dejavusans'
p3331
aS'#000000'
p3332
aF10.0
aI0
aI00
aI00
aI00
aI00
aI00
aI00
aI00
aI00
aa(lp3333
I234378
aF307.98
aF419.42
aVp3
p3334
aS'dejavusans'
p3335
aS'#000000'
p3336
aF10.0
aI0
aI00
aI00
aI00
aI00
aI00
aI00
aI00
aI00
aa(lp3337
I85218
aF353.48
aF419.42
aVp3
p3338
aS'dejavusans'
p3339
aS'#000000'
p3340
aF10.0
aI0
aI00
aI00
aI00
aI00
aI00
aI00
aI00
aI00
aa(lp3341
I234378
aF375.08
aF419.42
aVp3
p3342
aS'dejavusans'
p3343
aS'#000000'
p3344
aF10.0
aI0
aI00
aI00
aI00
aI00
aI00
aI00
aI00
aI00
aa(lp3345
I234378
aF409.44124999999997
aF419.42
ag3342
aS'dejavusans'
p3346
aS'#000000'
p3347
aF10.0
aI0
aI00
aI00
aI00
aI00
aI00
aI00
aI00
aI00
aa(lp3348
I56042
aF108.1
aF432.42
aVp3
p3349
aS'dejavusans'
p3350
aS'#000000'
p3351
aF10.0
aI0
aI01
aI00
aI00
aI00
aI00
aI00
aI00
aI00
aa(lp3352
I144489
aF146.3
aF432.42
aVp3
p3353
aS'dejavusans'
p3354
aS'#000000'
p3355
aF10.0
aI0
aI00
aI00
aI00
aI00
aI00
aI00
aI00
aI00
aa(lp3356
I221291
aF158.8
aF432.42
aVp3
p3357
aS'dejavusans'
p3358
aS'#000000'
p3359
aF10.0
aI0
aI00
aI00
aI00
aI00
aI00
aI00
aI00
aI00
aa(lp3360
I38577
aF185.6
aF432.42
aVp3
p3361
aS'dejavusans'
p3362
aS'#000000'
p3363
aF10.0
aI0
aI00
aI00
aI00
aI00
aI00
aI00
aI00
aI00
aa(lp3364
I192651
aF213.2
aF432.42
aVp3
p3365
aS'dejavusans'
p3366
aS'#000000'
p3367
aF10.0
aI0
aI00
aI00
aI00
aI00
aI00
aI00
aI00
aI00
aa(lp3368
I177271
aF228.3
aF432.42
aVp3
p3369
aS'dejavusans'
p3370
aS'#000000'
p3371
aF10.0
aI0
aI00
aI00
aI00
aI00
aI00
aI00
aI00
aI00
aa(lp3372
I210461
aF257.6
aF432.42
aVp3
p3373
aS'dejavusans'
p3374
aS'#000000'
p3375
aF10.0
aI0
aI00
aI00
aI00
aI00
aI00
aI00
aI00
aI00
aa(lp3376
I234378
aF286.2
aF432.42
aVp3
p3377
aS'dejavusans'
p3378
aS'#000000'
p3379
aF10.0
aI0
aI00
aI00
aI00
aI00
aI00
aI00
aI00
aI00
aa(lp3380
I215357
aF108.1
aF445.52
aVp3
p3381
aS'dejavusans'
p3382
aS'#000000'
p3383
aF10.0
aI0
aI01
aI00
aI00
aI00
aI00
aI00
aI00
aI00
aa(lp3384
I125078
aF164.9
aF445.52
aVp3
p3385
aS'dejavusans'
p3386
aS'#000000'
p3387
aF10.0
aI0
aI00
aI00
aI00
aI00
aI00
aI00
aI00
aI00
aa(lp3388
I144489
aF201.9
aF445.52
aVp3
p3389
aS'dejavusans'
p3390
aS'#000000'
p3391
aF10.0
aI0
aI00
aI00
aI00
aI00
aI00
aI00
aI00
aI00
aa(lp3392
I194354
aF214.4
aF445.52
aVp3
p3393
aS'dejavusans'
p3394
aS'#000000'
p3395
aF10.0
aI0
aI00
aI00
aI00
aI00
aI00
aI00
aI00
aI00
aa(lp3396
I123665
aF233.59
aF445.52
aVp3
p3397
aS'dejavusans'
p3398
aS'#000000'
p3399
aF10.0
aI0
aI00
aI00
aI00
aI00
aI00
aI00
aI00
aI00
aa(lp3400
I234378
aF72.1
aF469.42
aVp3
p3401
aS'dejavusans'
p3402
aS'#000000'
p3403
aF10.0
aI1
aI01
aI00
aI00
aI00
aI00
aI00
aI00
aI00
aa(lp3404
I25729
aF125.59
aF469.42
aVp3
p3405
aS'dejavusans'
p3406
aS'#000000'
p3407
aF10.0
aI1
aI01
aI00
aI00
aI00
aI00
aI00
aI00
aI00
aa(lp3408
I234378
aF150.446
aF469.42
ag3405
aS'dejavusans'
p3409
aS'#000000'
p3410
aF10.0
aI1
aI00
aI00
aI00
aI00
aI00
aI00
aI00
aI00
aa(lp3411
I21716
aF159.7
aF469.42
aVp3
p3412
aS'dejavusans'
p3413
aS'#000000'
p3414
aF10.0
aI0
aI01
aI00
aI00
aI00
aI00
aI00
aI00
aI00
aa(lp3415
I234378
aF178.71599999999998
aF469.42
ag3412
aS'dejavusans'
p3416
aS'#000000'
p3417
aF10.0
aI0
aI00
aI00
aI00
aI00
aI00
aI00
aI00
aI00
aa(lp3418
I234378
aF186.49
aF469.42
aVp3
p3419
aS'dejavusans'
p3420
aS'#000000'
p3421
aF10.0
aI0
aI01
aI01
aI00
aI00
aI00
aI00
aI00
aI00
aa(lp3422
I234378
aF200.1175
aF469.42
ag3419
aS'dejavusans'
p3423
aS'#000000'
p3424
aF10.0
aI0
aI00
aI00
aI00
aI00
aI00
aI00
aI00
aI00
aa(lp3425
I234378
aF207.69
aF469.42
aVp3
p3426
aS'dejavusans'
p3427
aS'#000000'
p3428
aF10.0
aI0
aI01
aI00
aI00
aI00
aI00
aI00
aI00
aI00
aa(lp3429
I234378
aF235.35
aF469.42
ag3426
aS'dejavusans'
p3430
aS'#000000'
p3431
aF10.0
aI0
aI00
aI00
aI00
aI00
aI00
aI00
aI00
aI00
aa(lp3432
I223319
aF243.08
aF469.42
aVp3
p3433
aS'dejavusans'
p3434
aS'#000000'
p3435
aF10.0
aI0
aI00
aI00
aI00
aI00
aI00
aI00
aI00
aI00
aa(lp3436
I234378
aF280.38
aF469.42
aVp3
p3437
aS'dejavusans'
p3438
aS'#000000'
p3439
aF10.0
aI0
aI00
aI00
aI01
aI01
aI00
aI00
aI00
aI00
aa(lp3440
I234378
aF285.05833333333334
aF469.42
ag3437
aS'dejavusans'
p3441
aS'#000000'
p3442
aF10.0
aI0
aI00
aI00
aI00
aI00
aI00
aI00
aI00
aI00
aa(lp3443
I234378
aF289.7366666666667
aF469.42
ag3437
aS'dejavusans'
p3444
aS'#000000'
p3445
aF10.0
aI0
aI00
aI00
aI01
aI01
aI00
aI00
aI00
aI00
aa(lp3446
I234378
aF292.415
aF469.42
ag3437
aS'dejavusans'
p3447
aS'#000000'
p3448
aF10.0
aI0
aI00
aI00
aI00
aI00
aI00
aI00
aI00
aI00
aa(lp3449
I234378
aF297.09333333333336
aF469.42
ag3437
aS'dejavusans'
p3450
aS'#000000'
p3451
aF10.0
aI0
aI00
aI00
aI01
aI01
aI00
aI00
aI00
aI00
aa(lp3452
I234378
aF303.7716666666667
aF469.42
ag3437
aS'dejavusans'
p3453
aS'#000000'
p3454
aF10.0
aI0
aI00
aI00
aI00
aI00
aI00
aI00
aI00
aI00
aa(lp3455
I138615
aF311.48
aF469.42
aVp3
p3456
aS'dejavusans'
p3457
aS'#000000'
p3458
aF10.0
aI0
aI01
aI00
aI00
aI00
aI00
aI00
aI00
aI00
aa(lp3459
I234378
aF333.38
aF469.42
aVp3
p3460
aS'dejavusans'
p3461
aS'#000000'
p3462
aF10.0
aI0
aI01
aI00
aI00
aI00
aI00
aI00
aI00
aI00
aa(lp3463
I234378
aF380.97
aF469.42
aVp3
p3464
aS'dejavusans'
p3465
aS'#000000'
p3466
aF10.0
aI0
aI00
aI00
aI01
aI01
aI00
aI00
aI00
aI00
aa(lp3467
I234378
aF385.6625
aF469.42
ag3464
aS'dejavusans'
p3468
aS'#000000'
p3469
aF10.0
aI0
aI00
aI00
aI00
aI00
aI00
aI00
aI00
aI00
aa(lp3470
I234378
aF390.355
aF469.42
ag3464
aS'dejavusans'
p3471
aS'#000000'
p3472
aF10.0
aI0
aI00
aI00
aI01
aI01
aI00
aI00
aI00
aI00
aa(lp3473
I234378
aF395.0475
aF469.42
ag3464
aS'dejavusans'
p3474
aS'#000000'
p3475
aF10.0
aI0
aI00
aI00
aI00
aI00
aI00
aI00
aI00
aI00
aa(lp3476
I45445
aF402.67
aF469.42
aVp3
p3477
aS'dejavusans'
p3478
aS'#000000'
p3479
aF10.0
aI0
aI01
aI00
aI00
aI00
aI00
aI00
aI00
aI00
aa(lp3480
I234378
aF437.67
aF469.42
aVp3
p3481
aS'dejavusans'
p3482
aS'#000000'
p3483
aF10.0
aI0
aI00
aI00
aI01
aI00
aI00
aI00
aI00
aI00
aa(lp3484
I234378
aF445.7166666666667
aF469.42
ag3481
aS'dejavusans'
p3485
aS'#000000'
p3486
aF10.0
aI0
aI00
aI00
aI00
aI00
aI00
aI00
aI00
aI00
aa(lp3487
I234378
aF452.77
aF469.42
aVp3
p3488
aS'dejavusans'
p3489
aS'#000000'
p3490
aF10.0
aI0
aI01
aI00
aI00
aI00
aI00
aI00
aI00
aI00
aa(lp3491
I190806
aF491.27
aF469.42
aVp3
p3492
aS'dejavusans'
p3493
aS'#000000'
p3494
aF10.0
aI0
aI00
aI00
aI00
aI00
aI00
aI00
aI00
aI00
aa(lp3495
I40515
aF507.77
aF469.42
aVp3
p3496
aS'dejavusans'
p3497
aS'#000000'
p3498
aF10.0
aI0
aI00
aI00
aI00
aI00
aI00
aI00
aI00
aI00
aa(lp3499
I224923
aF72.1
aF481.02
aVp3
p3500
aS'dejavusans'
p3501
aS'#000000'
p3502
aF10.0
aI0
aI00
aI00
aI00
aI00
aI00
aI00
aI00
aI00
aa(lp3503
I234378
aF123.43636363636364
aF481.02
ag3500
aS'dejavusans'
p3504
aS'#000000'
p3505
aF10.0
aI0
aI00
aI00
aI00
aI00
aI00
aI00
aI00
aI00
aa(lp3506
I234378
aF131.69
aF481.02
aVp3
p3507
aS'dejavusans'
p3508
aS'#000000'
p3509
aF10.0
aI0
aI01
aI01
aI00
aI00
aI00
aI00
aI00
aI00
aa(lp3510
I3672
aF155.99
aF481.02
aVp3
p3511
aS'dejavusans'
p3512
aS'#000000'
p3513
aF10.0
aI0
aI01
aI00
aI00
aI00
aI00
aI00
aI00
aI00
aa(lp3514
I25931
aF200.59
aF481.02
aVp3
p3515
aS'dejavusans'
p3516
aS'#000000'
p3517
aF10.0
aI0
aI01
aI00
aI00
aI00
aI00
aI00
aI00
aI00
aa(lp3518
I85218
aF231.99
aF481.02
aVp3
p3519
aS'dejavusans'
p3520
aS'#000000'
p3521
aF10.0
aI0
aI00
aI00
aI00
aI00
aI00
aI00
aI00
aI00
aa(lp3522
I199183
aF253.59
aF481.02
aVp3
p3523
aS'dejavusans'
p3524
aS'#000000'
p3525
aF10.0
aI0
aI01
aI00
aI00
aI00
aI00
aI00
aI00
aI00
aa(lp3526
I234378
aF294.69
aF481.02
aVp3
p3527
aS'dejavusans'
p3528
aS'#000000'
p3529
aF10.0
aI0
aI01
aI01
aI00
aI00
aI00
aI00
aI00
aI00
aa(lp3530
I190806
aF318.7
aF481.02
aVp3
p3531
aS'dejavusans'
p3532
aS'#000000'
p3533
aF10.0
aI0
aI00
aI00
aI00
aI00
aI00
aI00
aI00
aI00
aa(lp3534
I194179
aF335.2
aF481.02
aVp3
p3535
aS'dejavusans'
p3536
aS'#000000'
p3537
aF10.0
aI0
aI00
aI00
aI00
aI00
aI00
aI00
aI00
aI00
aa(lp3538
I226160
aF374.2
aF481.02
aVp3
p3539
aS'dejavusans'
p3540
aS'#000000'
p3541
aF10.0
aI0
aI00
aI00
aI00
aI00
aI00
aI00
aI00
aI00
aa(lp3542
I234378
aF406.54875
aF481.02
ag3539
aS'dejavusans'
p3543
aS'#000000'
p3544
aF10.0
aI0
aI00
aI00
aI00
aI00
aI00
aI00
aI00
aI00
aa(lp3545
I234378
aF414.29
aF481.02
aVp3
p3546
aS'dejavusans'
p3547
aS'#000000'
p3548
aF10.0
aI0
aI01
aI00
aI00
aI00
aI00
aI00
aI00
aI00
aa(lp3549
I234378
aF451.24111111111114
aF481.02
ag3546
aS'dejavusans'
p3550
aS'#000000'
p3551
aF10.0
aI0
aI00
aI00
aI00
aI00
aI00
aI00
aI00
aI00
aa(lp3552
I85218
aF458.89
aF481.02
aVp3
p3553
aS'dejavusans'
p3554
aS'#000000'
p3555
aF10.0
aI0
aI00
aI00
aI00
aI00
aI00
aI00
aI00
aI00
aa(lp3556
I234378
aF480.49
aF481.02
aVp3
p3557
aS'dejavusans'
p3558
aS'#000000'
p3559
aF10.0
aI0
aI01
aI01
aI00
aI00
aI00
aI00
aI00
aI00
aa(lp3560
I234378
aF502.386
aF481.02
ag3557
aS'dejavusans'
p3561
aS'#000000'
p3562
aF10.0
aI0
aI00
aI00
aI00
aI00
aI00
aI00
aI00
aI00
aa(lp3563
I234378
aF72.1
aF516.02
aVp3
p3564
aS'dejavusans'
p3565
aS'#000000'
p3566
aF10.0
aI1
aI00
aI01
aI01
aI00
aI00
aI00
aI00
aI00
aa(lp3567
I185304
aF89.5
aF516.02
aVp3
p3568
aS'dejavusans'
p3569
aS'#000000'
p3570
aF10.0
aI1
aI01
aI00
aI00
aI00
aI00
aI00
aI00
aI00
aa(lp3571
I95887
aF117.3
aF516.02
aVp3
p3572
aS'dejavusans'
p3573
aS'#000000'
p3574
aF10.0
aI1
aI01
aI00
aI00
aI00
aI00
aI00
aI00
aI00
aa(lp3575
I234378
aF72.1
aF527.62
aVp3
p3576
aS'dejavusans'
p3577
aS'#000000'
p3578
aF10.0
aI0
aI00
aI00
aI00
aI00
aI00
aI00
aI00
aI00
aa(lp3579
I37515
aF78.22749999999999
aF527.62
ag3576
aS'dejavusans'
p3580
aS'#000000'
p3581
aF10.0
aI0
aI01
aI00
aI00
aI00
aI00
aI00
aI00
aI01
aa(lp3582
I234378
aF99.88
aF527.62
aVp3
p3583
aS'dejavusans'
p3584
aS'#000000'
p3585
aF10.0
aI0
aI00
aI00
aI01
aI01
aI01
aI00
aI00
aI00
aa(lp3586
I8694
aF136.64
aF527.62
aVp3
p3587
aS'dejavusans'
p3588
aS'#000000'
p3589
aF10.0
aI0
aI01
aI00
aI00
aI00
aI00
aI00
aI00
aI01
aa(lp3590
I234378
aF174.73
aF527.62
aVp3
p3591
aS'dejavusans'
p3592
aS'#000000'
p3593
aF10.0
aI0
aI00
aI00
aI01
aI01
aI01
aI00
aI00
aI00
aa(lp3594
I234378
aF198.226
aF527.62
ag3591
aS'dejavusans'
p3595
aS'#000000'
p3596
aF10.0
aI0
aI00
aI00
aI00
aI00
aI00
aI00
aI00
aI00
aa(lp3597
I46544
aF72.1
aF545.32
aVp3
p3598
aS'dejavusans'
p3599
aS'#000000'
p3600
aF10.0
aI0
aI01
aI00
aI00
aI00
aI00
aI00
aI00
aI00
aa(lp3601
I177958
aF96.87
aF545.32
aVp3
p3602
aS'dejavusans'
p3603
aS'#000000'
p3604
aF10.0
aI0
aI00
aI00
aI00
aI00
aI00
aI00
aI00
aI00
aa(lp3605
I209115
aF135.82
aF545.32
aVp3
p3606
aS'dejavusans'
p3607
aS'#000000'
p3608
aF10.0
aI0
aI00
aI00
aI00
aI00
aI00
aI00
aI00
aI00
aa(lp3609
I41890
aF159.59
aF545.32
aVp3
p3610
aS'dejavusans'
p3611
aS'#000000'
p3612
aF10.0
aI0
aI00
aI00
aI00
aI00
aI00
aI00
aI00
aI00
aa(lp3613
I98566
aF175.56
aF545.32
aVp3
p3614
aS'dejavusans'
p3615
aS'#000000'
p3616
aF10.0
aI0
aI00
aI00
aI00
aI00
aI00
aI00
aI00
aI00
aa(lp3617
I144690
aF208.73
aF545.32
aVp3
p3618
aS'dejavusans'
p3619
aS'#000000'
p3620
aF10.0
aI0
aI00
aI00
aI00
aI00
aI00
aI00
aI00
aI00
aa(lp3621
I234378
aF239.80142857142857
aF545.32
ag3618
aS'dejavusans'
p3622
aS'#000000'
p3623
aF10.0
aI0
aI00
aI00
aI00
aI00
aI00
aI00
aI00
aI00
aa(lp3624
I68032
aF249.39
aF545.32
aVp3
p3625
aS'dejavusans'
p3626
aS'#000000'
p3627
aF10.0
aI0
aI00
aI00
aI00
aI00
aI00
aI00
aI00
aI00
aa(lp3628
I234378
aF312.585
aF545.32
ag3625
aS'dejavusans'
p3629
aS'#000000'
p3630
aF10.0
aI0
aI00
aI00
aI00
aI00
aI00
aI00
aI00
aI00
aa(lp3631
I20593
aF322.84
aF545.32
aVp3
p3632
aS'dejavusans'
p3633
aS'#000000'
p3634
aF10.0
aI0
aI00
aI00
aI00
aI00
aI00
aI00
aI00
aI00
aa(lp3635
I147316
aF404.67
aF545.32
aVp3
p3636
aS'dejavusans'
p3637
aS'#000000'
p3638
aF10.0
aI0
aI00
aI00
aI00
aI00
aI00
aI00
aI00
aI00
aa(lp3639
I144489
aF447.44
aF545.32
aVp3
p3640
aS'dejavusans'
p3641
aS'#000000'
p3642
aF10.0
aI0
aI00
aI00
aI00
aI00
aI00
aI00
aI00
aI00
aa(lp3643
I17350
aF461.32
aF545.32
aVp3
p3644
aS'dejavusans'
p3645
aS'#000000'
p3646
aF10.0
aI0
aI00
aI00
aI00
aI00
aI00
aI00
aI00
aI00
aa(lp3647
I35885
aF486.28
aF545.32
aVp3
p3648
aS'dejavusans'
p3649
aS'#000000'
p3650
aF10.0
aI0
aI00
aI00
aI00
aI00
aI00
aI00
aI00
aI00
aa(lp3651
I156028
aF520.75
aF545.32
aVp3
p3652
aS'dejavusans'
p3653
aS'#000000'
p3654
aF10.0
aI0
aI00
aI00
aI00
aI00
aI00
aI00
aI00
aI00
aa(lp3655
I234378
aF72.1
aF556.92
aVp3
p3656
aS'dejavusans'
p3657
aS'#000000'
p3658
aF10.0
aI0
aI00
aI01
aI01
aI00
aI00
aI00
aI00
aI00
aa(lp3659
I185304
aF93.86
aF556.92
aVp3
p3660
aS'dejavusans'
p3661
aS'#000000'
p3662
aF10.0
aI0
aI01
aI00
aI00
aI00
aI00
aI00
aI00
aI00
aa(lp3663
I95887
aF119.24
aF556.92
aVp3
p3664
aS'dejavusans'
p3665
aS'#000000'
p3666
aF10.0
aI0
aI01
aI00
aI00
aI00
aI00
aI00
aI00
aI00
aa(lp3667
I190806
aF172.49
aF556.92
aVp3
p3668
aS'dejavusans'
p3669
aS'#000000'
p3670
aF10.0
aI0
aI00
aI00
aI00
aI00
aI00
aI00
aI00
aI00
aa(lp3671
I194354
aF190.17
aF556.92
aVp3
p3672
aS'dejavusans'
p3673
aS'#000000'
p3674
aF10.0
aI0
aI00
aI00
aI00
aI00
aI00
aI00
aI00
aI00
aa(lp3675
I234378
aF210.45
aF556.92
aVp3
p3676
aS'dejavusans'
p3677
aS'#000000'
p3678
aF10.0
aI0
aI01
aI00
aI00
aI00
aI00
aI00
aI00
aI00
aa(lp3679
I166245
aF252.49
aF556.92
aVp3
p3680
aS'dejavusans'
p3681
aS'#000000'
p3682
aF10.0
aI0
aI01
aI00
aI00
aI00
aI00
aI00
aI00
aI00
aa(lp3683
I68032
aF300.44
aF556.92
aVp3
p3684
aS'dejavusans'
p3685
aS'#000000'
p3686
aF10.0
aI0
aI01
aI00
aI00
aI00
aI00
aI00
aI00
aI00
aa(lp3687
I210461
aF371.58
aF556.92
aVp3
p3688
aS'dejavusans'
p3689
aS'#000000'
p3690
aF10.0
aI0
aI00
aI00
aI00
aI00
aI00
aI00
aI00
aI00
aa(lp3691
I234378
aF394.748
aF556.92
ag3688
aS'dejavusans'
p3692
aS'#000000'
p3693
aF10.0
aI0
aI00
aI00
aI00
aI00
aI00
aI00
aI00
aI00
aa(lp3694
I194354
aF404.55
aF556.92
aVp3
p3695
aS'dejavusans'
p3696
aS'#000000'
p3697
aF10.0
aI0
aI01
aI00
aI00
aI00
aI00
aI00
aI00
aI00
aa(lp3698
I123665
aF426.93
aF556.92
aVp3
p3699
aS'dejavusans'
p3700
aS'#000000'
p3701
aF10.0
aI0
aI00
aI00
aI00
aI00
aI00
aI00
aI00
aI00
aa(lp3702
I209115
aF485.97
aF556.92
aVp3
p3703
aS'dejavusans'
p3704
aS'#000000'
p3705
aF10.0
aI0
aI00
aI00
aI00
aI00
aI00
aI00
aI00
aI00
aa(lp3706
I35885
aF509.34
aF556.92
aVp3
p3707
aS'dejavusans'
p3708
aS'#000000'
p3709
aF10.0
aI0
aI00
aI00
aI00
aI00
aI00
aI00
aI00
aI00
aa(lp3710
I144483
aF72.1
aF568.62
aVp3
p3711
aS'dejavusans'
p3712
aS'#000000'
p3713
aF10.0
aI0
aI00
aI00
aI00
aI00
aI00
aI00
aI00
aI00
aa(lp3714
I234378
aF87.78
aF568.62
aVp3
p3715
aS'dejavusans'
p3716
aS'#000000'
p3717
aF10.0
aI0
aI00
aI00
aI00
aI00
aI00
aI00
aI00
aI00
aa(lp3718
I85218
aF119.66
aF568.62
aVp3
p3719
aS'dejavusans'
p3720
aS'#000000'
p3721
aF10.0
aI0
aI00
aI00
aI00
aI00
aI00
aI00
aI00
aI00
aa(lp3722
I176767
aF141.55
aF568.62
aVp3
p3723
aS'dejavusans'
p3724
aS'#000000'
p3725
aF10.0
aI0
aI00
aI00
aI00
aI00
aI00
aI00
aI00
aI00
aa(lp3726
I115769
aF192.81
aF568.62
aVp3
p3727
aS'dejavusans'
p3728
aS'#000000'
p3729
aF10.0
aI0
aI00
aI00
aI00
aI00
aI00
aI00
aI00
aI00
aa(lp3730
I234378
aF244.056
aF568.62
ag3727
aS'dejavusans'
p3731
aS'#000000'
p3732
aF10.0
aI0
aI00
aI00
aI00
aI00
aI00
aI00
aI00
aI00
aa(lp3733
I234378
aF72.1
aF586.22
aVp3
p3734
aS'dejavusans'
p3735
aS'#000000'
p3736
aF10.0
aI1
aI01
aI00
aI00
aI00
aI00
aI00
aI00
aI00
aa(lp3737
I234378
aF118.46
aF586.22
aVp3
p3738
aS'dejavusans'
p3739
aS'#000000'
p3740
aF10.0
aI1
aI01
aI00
aI00
aI00
aI00
aI00
aI00
aI00
aa(lp3741
I234378
aF206.1870588235294
aF586.22
ag3738
aS'dejavusans'
p3742
aS'#000000'
p3743
aF10.0
aI1
aI00
aI00
aI00
aI00
aI00
aI00
aI00
aI00
aa(lp3744
I16331
aF72.1
aF597.92
aVp3
p3745
aS'dejavusans'
p3746
aS'#000000'
p3747
aF10.0
aI0
aI01
aI00
aI00
aI00
aI00
aI00
aI00
aI00
aa(lp3748
I194354
aF87.1
aF597.92
aVp3
p3749
aS'dejavusans'
p3750
aS'#000000'
p3751
aF10.0
aI0
aI00
aI00
aI00
aI00
aI00
aI00
aI00
aI00
aa(lp3752
I231013
aF106.2
aF597.92
aVp3
p3753
aS'dejavusans'
p3754
aS'#000000'
p3755
aF10.0
aI0
aI00
aI00
aI00
aI00
aI00
aI00
aI00
aI00
aa(lp3756
I210461
aF126.5
aF597.92
aVp3
p3757
aS'dejavusans'
p3758
aS'#000000'
p3759
aF10.0
aI0
aI00
aI00
aI00
aI00
aI00
aI00
aI00
aI00
aa(lp3760
I146209
aF155.1
aF597.92
aVp3
p3761
aS'dejavusans'
p3762
aS'#000000'
p3763
aF10.0
aI0
aI00
aI00
aI00
aI00
aI00
aI00
aI00
aI00
aa(lp3764
I234378
aF193.4742857142857
aF597.92
ag3761
aS'dejavusans'
p3765
aS'#000000'
p3766
aF10.0
aI0
aI00
aI00
aI00
aI00
aI00
aI00
aI00
aI00
aa(lp3767
I197030
aF202.89
aF597.92
aVp3
p3768
aS'dejavusans'
p3769
aS'#000000'
p3770
aF10.0
aI0
aI01
aI01
aI00
aI00
aI00
aI00
aI00
aI00
aa(lp3771
I209115
aF208.89
aF597.92
aVp3
p3772
aS'dejavusans'
p3773
aS'#000000'
p3774
aF10.0
aI0
aI00
aI00
aI00
aI00
aI00
aI00
aI00
aI00
aa(lp3775
I105322
aF231.09
aF597.92
aVp3
p3776
aS'dejavusans'
p3777
aS'#000000'
p3778
aF10.0
aI0
aI00
aI00
aI00
aI00
aI00
aI00
aI00
aI00
aa(lp3779
I135639
aF275.79
aF597.92
aVp3
p3780
aS'dejavusans'
p3781
aS'#000000'
p3782
aF10.0
aI0
aI00
aI00
aI00
aI00
aI00
aI00
aI00
aI00
aa(lp3783
I194354
aF287.69
aF597.92
aVp3
p3784
aS'dejavusans'
p3785
aS'#000000'
p3786
aF10.0
aI0
aI00
aI00
aI00
aI00
aI00
aI00
aI00
aI00
aa(lp3787
I1109
aF306.88
aF597.92
aVp3
p3788
aS'dejavusans'
p3789
aS'#000000'
p3790
aF10.0
aI0
aI00
aI00
aI00
aI00
aI00
aI00
aI00
aI00
aa(lp3791
I234378
aF354.08
aF597.92
aVp3
p3792
aS'dejavusans'
p3793
aS'#000000'
p3794
aF10.0
aI0
aI00
aI00
aI00
aI00
aI00
aI00
aI00
aI00
aa(lp3795
I234378
aF396.96181818181816
aF597.92
ag3792
aS'dejavusans'
p3796
aS'#000000'
p3797
aF10.0
aI0
aI00
aI00
aI00
aI00
aI00
aI00
aI00
aI00
aa(lp3798
I144690
aF108.1
aF610.32
aVp3
p3799
aS'dejavusans'
p3800
aS'#000000'
p3801
aF10.0
aI0
aI01
aI00
aI00
aI00
aI00
aI00
aI00
aI00
aa(lp3802
I144489
aF145.1
aF610.32
aVp3
p3803
aS'dejavusans'
p3804
aS'#000000'
p3805
aF10.0
aI0
aI00
aI00
aI00
aI00
aI00
aI00
aI00
aI00
aa(lp3806
I17350
aF157.6
aF610.32
aVp3
p3807
aS'dejavusans'
p3808
aS'#000000'
p3809
aF10.0
aI0
aI00
aI00
aI00
aI00
aI00
aI00
aI00
aI00
aa(lp3810
I234378
aF181.1
aF610.32
aVp3
p3811
aS'dejavusans'
p3812
aS'#000000'
p3813
aF10.0
aI0
aI00
aI00
aI00
aI00
aI00
aI00
aI00
aI00
aa(lp3814
I234378
aF224.6
aF610.32
aVp3
p3815
aS'dejavusans'
p3816
aS'#000000'
p3817
aF10.0
aI0
aI00
aI00
aI00
aI00
aI00
aI00
aI00
aI00
aa(lp3818
I101280
aF273.29
aF610.32
aVp3
p3819
aS'dejavusans'
p3820
aS'#000000'
p3821
aF10.0
aI0
aI00
aI00
aI00
aI00
aI00
aI00
aI00
aI00
aa(lp3822
I234378
aF301.6357142857143
aF610.32
ag3819
aS'dejavusans'
p3823
aS'#000000'
p3824
aF10.0
aI0
aI00
aI00
aI00
aI00
aI00
aI00
aI00
aI00
aa(lp3825
I68032
aF108.1
aF623.42
aVp3
p3826
aS'dejavusans'
p3827
aS'#000000'
p3828
aF10.0
aI0
aI01
aI00
aI00
aI00
aI00
aI00
aI00
aI00
aa(lp3829
I144489
aF177.4
aF623.42
aVp3
p3830
aS'dejavusans'
p3831
aS'#000000'
p3832
aF10.0
aI0
aI00
aI00
aI00
aI00
aI00
aI00
aI00
aI00
aa(lp3833
I186242
aF189.9
aF623.42
aVp3
p3834
aS'dejavusans'
p3835
aS'#000000'
p3836
aF10.0
aI0
aI00
aI00
aI00
aI00
aI00
aI00
aI00
aI00
aa(lp3837
I234378
aF211.875
aF623.42
ag3834
aS'dejavusans'
p3838
aS'#000000'
p3839
aF10.0
aI0
aI00
aI00
aI00
aI00
aI00
aI00
aI00
aI00
aa(lp3840
I141063
aF219.39
aF623.42
aVp3
p3841
aS'dejavusans'
p3842
aS'#000000'
p3843
aF10.0
aI0
aI00
aI00
aI00
aI00
aI00
aI00
aI00
aI00
aa(lp3844
I85218
aF255.99
aF623.42
aVp3
p3845
aS'dejavusans'
p3846
aS'#000000'
p3847
aF10.0
aI0
aI00
aI00
aI00
aI00
aI00
aI00
aI00
aI00
aa(lp3848
I234378
aF277.59
aF623.42
aVp3
p3849
aS'dejavusans'
p3850
aS'#000000'
p3851
aF10.0
aI0
aI00
aI00
aI00
aI00
aI00
aI00
aI00
aI00
aa(lp3852
I234378
aF322.19
aF623.42
aVp3
p3853
aS'dejavusans'
p3854
aS'#000000'
p3855
aF10.0
aI0
aI00
aI00
aI00
aI00
aI00
aI00
aI00
aI00
aa(lp3856
I144489
aF354.99
aF623.42
aVp3
p3857
aS'dejavusans'
p3858
aS'#000000'
p3859
aF10.0
aI0
aI00
aI00
aI00
aI00
aI00
aI00
aI00
aI00
aa(lp3860
I194354
aF367.49
aF623.42
aVp3
p3861
aS'dejavusans'
p3862
aS'#000000'
p3863
aF10.0
aI0
aI00
aI00
aI00
aI00
aI00
aI00
aI00
aI00
aa(lp3864
I123665
aF386.69
aF623.42
aVp3
p3865
aS'dejavusans'
p3866
aS'#000000'
p3867
aF10.0
aI0
aI00
aI00
aI00
aI00
aI00
aI00
aI00
aI00
aa(lp3868
I234378
aF439.00416666666666
aF623.42
ag3865
aS'dejavusans'
p3869
aS'#000000'
p3870
aF10.0
aI0
aI00
aI00
aI00
aI00
aI00
aI00
aI00
aI00
aa(lp3871
I185304
aF108.1
aF636.42
aVp3
p3872
aS'dejavusans'
p3873
aS'#000000'
p3874
aF10.0
aI0
aI01
aI00
aI00
aI00
aI00
aI00
aI00
aI00
aa(lp3875
I16126
aF132.39
aF636.42
aVp3
p3876
aS'dejavusans'
p3877
aS'#000000'
p3878
aF10.0
aI0
aI01
aI00
aI00
aI00
aI00
aI00
aI00
aI00
aa(lp3879
I234378
aF179.08999999999997
aF636.42
ag3876
aS'dejavusans'
p3880
aS'#000000'
p3881
aF10.0
aI0
aI00
aI00
aI00
aI00
aI00
aI00
aI00
aI00
aa(lp3882
I90127
aF108.1
aF649.52
aVp3
p3883
aS'dejavusans'
p3884
aS'#000000'
p3885
aF10.0
aI0
aI01
aI00
aI00
aI00
aI00
aI00
aI00
aI00
aa(lp3886
I190806
aF169.99
aF649.52
aVp3
p3887
aS'dejavusans'
p3888
aS'#000000'
p3889
aF10.0
aI0
aI00
aI00
aI00
aI00
aI00
aI00
aI00
aI00
aa(lp3890
I141687
aF186.49
aF649.52
aVp3
p3891
aS'dejavusans'
p3892
aS'#000000'
p3893
aF10.0
aI0
aI00
aI00
aI00
aI00
aI00
aI00
aI00
aI00
aa(lp3894
I234378
aF238.62083333333334
aF649.52
ag3891
aS'dejavusans'
p3895
aS'#000000'
p3896
aF10.0
aI0
aI00
aI00
aI00
aI00
aI00
aI00
aI00
aI00
aa(lp3897
I125078
aF246.48
aF649.52
aVp3
p3898
aS'dejavusans'
p3899
aS'#000000'
p3900
aF10.0
aI0
aI00
aI00
aI00
aI00
aI00
aI00
aI00
aI00
aa(lp3901
I142554
aF294.38
aF649.52
aVp3
p3902
aS'dejavusans'
p3903
aS'#000000'
p3904
aF10.0
aI0
aI00
aI00
aI00
aI00
aI00
aI00
aI00
aI00
aa(lp3905
I234378
aF350.62545454545455
aF649.52
ag3902
aS'dejavusans'
p3906
aS'#000000'
p3907
aF10.0
aI0
aI00
aI00
aI00
aI00
aI00
aI00
aI00
aI00
aa(lp3908
I209062
aF108.1
aF662.52
aVp3
p3909
aS'dejavusans'
p3910
aS'#000000'
p3911
aF10.0
aI0
aI01
aI00
aI00
aI00
aI00
aI00
aI00
aI00
aa(lp3912
I83126
aF131.69
aF662.52
aVp3
p3913
aS'dejavusans'
p3914
aS'#000000'
p3915
aF10.0
aI0
aI01
aI00
aI00
aI00
aI00
aI00
aI00
aI00
aa(lp3916
I147316
aF212.79
aF662.52
aVp3
p3917
aS'dejavusans'
p3918
aS'#000000'
p3919
aF10.0
aI0
aI00
aI00
aI00
aI00
aI00
aI00
aI00
aI00
aa(lp3920
I234378
aF248.46375
aF662.52
ag3917
aS'dejavusans'
p3921
aS'#000000'
p3922
aF10.0
aI0
aI00
aI00
aI00
aI00
aI00
aI00
aI00
aI00
aa(lp3923
I234378
aF72.1
aF686.42
aVp3
p3924
aS'dejavusans'
p3925
aS'#000000'
p3926
aF10.0
aI1
aI01
aI00
aI00
aI00
aI00
aI00
aI00
aI00
aa(lp3927
I25729
aF125.59
aF686.42
aVp3
p3928
aS'dejavusans'
p3929
aS'#000000'
p3930
aF10.0
aI1
aI01
aI00
aI00
aI00
aI00
aI00
aI00
aI00
aa(lp3931
I234378
aF150.446
aF686.42
ag3928
aS'dejavusans'
p3932
aS'#000000'
p3933
aF10.0
aI1
aI00
aI00
aI00
aI00
aI00
aI00
aI00
aI00
aa(lp3934
I21716
aF159.7
aF686.42
aVp3
p3935
aS'dejavusans'
p3936
aS'#000000'
p3937
aF10.0
aI0
aI01
aI00
aI00
aI00
aI00
aI00
aI00
aI00
aa(lp3938
I234378
aF178.71599999999998
aF686.42
ag3935
aS'dejavusans'
p3939
aS'#000000'
p3940
aF10.0
aI0
aI00
aI00
aI00
aI00
aI00
aI00
aI00
aI00
aa(lp3941
I234378
aF186.49
aF686.42
aVp3
p3942
aS'dejavusans'
p3943
aS'#000000'
p3944
aF10.0
aI0
aI01
aI01
aI01
aI00
aI00
aI00
aI00
aI00
aa(lp3945
I234378
aF211.19
aF686.42
aVp3
p3946
aS'dejavusans'
p3947
aS'#000000'
p3948
aF10.0
aI0
aI00
aI00
aI00
aI00
aI00
aI00
aI00
aI00
aa(lp3949
I234378
aF215.61124999999998
aF686.42
ag3946
aS'dejavusans'
p3950
aS'#000000'
p3951
aF10.0
aI0
aI01
aI00
aI00
aI00
aI00
aI00
aI00
aI00
aa(lp3952
I234378
aF235.13875
aF686.42
ag3946
aS'dejavusans'
p3953
aS'#000000'
p3954
aF10.0
aI0
aI00
aI00
aI00
aI00
aI00
aI00
aI00
aI00
aa(lp3955
I176767
aF249.58
aF686.42
aVp3
p3956
aS'dejavusans'
p3957
aS'#000000'
p3958
aF10.0
aI0
aI01
aI00
aI00
aI00
aI00
aI00
aI00
aI00
aa(lp3959
I234378
aF295.903
aF686.42
ag3956
aS'dejavusans'
p3960
aS'#000000'
p3961
aF10.0
aI0
aI00
aI00
aI00
aI00
aI00
aI00
aI00
aI00
aa(lp3962
I199183
aF304.07
aF686.42
aVp3
p3963
aS'dejavusans'
p3964
aS'#000000'
p3965
aF10.0
aI0
aI01
aI00
aI00
aI00
aI00
aI00
aI00
aI00
aa(lp3966
I234378
aF345.16
aF686.42
aVp3
p3967
aS'dejavusans'
p3968
aS'#000000'
p3969
aF10.0
aI0
aI01
aI01
aI00
aI00
aI00
aI00
aI00
aI00
aa(lp3970
I190806
aF369.2
aF686.42
aVp3
p3971
aS'dejavusans'
p3972
aS'#000000'
p3973
aF10.0
aI0
aI00
aI00
aI00
aI00
aI00
aI00
aI00
aI00
aa(lp3974
I194179
aF385.7
aF686.42
aVp3
p3975
aS'dejavusans'
p3976
aS'#000000'
p3977
aF10.0
aI0
aI00
aI00
aI00
aI00
aI00
aI00
aI00
aI00
aa(lp3978
I226160
aF424.7
aF686.42
aVp3
p3979
aS'dejavusans'
p3980
aS'#000000'
p3981
aF10.0
aI0
aI00
aI00
aI00
aI00
aI00
aI00
aI00
aI00
aa(lp3982
I234378
aF457.13625
aF686.42
ag3979
aS'dejavusans'
p3983
aS'#000000'
p3984
aF10.0
aI0
aI00
aI00
aI00
aI00
aI00
aI00
aI00
aI00
aa(lp3985
I234378
aF464.79
aF686.42
aVp3
p3986
aS'dejavusans'
p3987
aS'#000000'
p3988
aF10.0
aI0
aI01
aI00
aI00
aI00
aI00
aI00
aI00
aI00
aa(lp3989
I234378
aF501.74111111111114
aF686.42
ag3986
aS'dejavusans'
p3990
aS'#000000'
p3991
aF10.0
aI0
aI00
aI00
aI00
aI00
aI00
aI00
aI00
aI00
aa(lp3992
I234378
aF72.1
aF698.12
aVp3
p3993
aS'dejavusans'
p3994
aS'#000000'
p3995
aF10.0
aI0
aI01
aI00
aI00
aI00
aI00
aI00
aI00
aI00
aa(lp3996
I234378
aF119.09
aF698.12
aVp3
p3997
aS'dejavusans'
p3998
aS'#000000'
p3999
aF10.0
aI0
aI01
aI01
aI00
aI00
aI00
aI00
aI00
aI00
aa(lp4000
I234378
aF129.67000000000002
aF698.12
ag3997
aS'dejavusans'
p4001
aS'#000000'
p4002
aF10.0
aI0
aI00
aI00
aI00
aI00
aI00
aI00
aI00
aI00
aa(lp4003
I234378
aF137.99
aF698.12
aVp3
p4004
aS'dejavusans'
p4005
aS'#000000'
p4006
aF10.0
aI0
aI01
aI01
aI00
aI00
aI00
aI00
aI00
aI00
aa(lp4007
I234378
aF159.806
aF698.12
ag4004
aS'dejavusans'
p4008
aS'#000000'
p4009
aF10.0
aI0
aI00
aI00
aI00
aI00
aI00
aI00
aI00
aI00
aa(lp4010
I234378
aF168.29
aF698.12
aVp3
p4011
aS'dejavusans'
p4012
aS'#000000'
p4013
aF10.0
aI0
aI01
aI00
aI00
aI00
aI00
aI00
aI00
aI00
aa(lp4014
I234378
aF208.08555555555554
aF698.12
ag4011
aS'dejavusans'
p4015
aS'#000000'
p4016
aF10.0
aI0
aI00
aI00
aI00
aI00
aI00
aI00
aI00
aI00
aa(lp4017
I223319
aF216.18
aF698.12
aVp3
p4018
aS'dejavusans'
p4019
aS'#000000'
p4020
aF10.0
aI0
aI01
aI00
aI00
aI00
aI00
aI00
aI00
aI00
aa(lp4021
I234378
aF248.96625
aF698.12
ag4018
aS'dejavusans'
p4022
aS'#000000'
p4023
aF10.0
aI0
aI00
aI00
aI00
aI00
aI00
aI00
aI00
aI00
aa(lp4024
I234378
aF256.68
aF698.12
aVp3
p4025
aS'dejavusans'
p4026
aS'#000000'
p4027
aF10.0
aI0
aI00
aI00
aI00
aI00
aI00
aI00
aI00
aI00
aa(lp4028
I94749
aF484.1
aF725.72
aVp3
p4029
aS'dejavusans'
p4030
aS'#000000'
p4031
aF10.0
aI0
aI01
aI00
aI00
aI00
aI00
aI00
aI00
aI00
aa(lp4032
I234378
aF511.5
aF725.72
aVp3
p4033
aS'dejavusans'
p4034
aS'#000000'
p4035
aF10.0
aI0
aI00
aI00
aI01
aI01
aI00
aI00
aI00
aI00
aa(lp4036
I144489
aF520.99
aF725.72
aVp3
p4037
aS'dejavusans'
p4038
aS'#000000'
p4039
aF10.0
aI0
aI00
aI00
aI00
aI00
aI00
aI00
aI00
aI00
aa(lp4040
I234378
aF533.8
aF725.72
aVp3
p4041
aS'dejavusans'
p4042
aS'#000000'
p4043
aF10.0
aI0
aI00
aI00
aI01
aI01
aI00
aI00
aI00
aI00
aa(lp4044
I234378
aF72.1
aF79.27
aVp4
p4045
aS'nimbussanl'
p4046
aS'#000000'
p4047
aF10.0
aI0
aI01
aI00
aI00
aI00
aI00
aI00
aI00
aI00
aa(lp4048
I222769
aF117.2375
aF79.27
ag4045
aS'nimbussanl'
p4049
aS'#000000'
p4050
aF10.0
aI0
aI01
aI00
aI00
aI00
aI00
aI00
aI00
aI00
aa(lp4051
I234378
aF162.375
aF79.27
ag4045
aS'nimbussanl'
p4052
aS'#000000'
p4053
aF10.0
aI0
aI01
aI00
aI00
aI00
aI00
aI00
aI00
aI00
aa(lp4054
I234378
aF413.2
aF79.56
aVp4
p4055
aS'nimbusromno9l'
p4056
aS'#000000'
p4057
aF10.0
aI0
aI00
aI00
aI01
aI01
aI01
aI00
aI00
aI00
aa(lp4058
I234378
aF427.17
aF79.56
ag4055
aS'nimbusromno9l'
p4059
aS'#000000'
p4060
aF10.0
aI0
aI00
aI00
aI01
aI01
aI01
aI00
aI00
aI00
aa(lp4061
I234378
aF72.1
aF117.42
aVp4
p4062
aS'dejavusans'
p4063
aS'#000000'
p4064
aF10.0
aI1
aI01
aI00
aI00
aI00
aI00
aI00
aI00
aI00
aa(lp4065
I234378
aF104.49
aF117.42
aVp4
p4066
aS'dejavusans'
p4067
aS'#000000'
p4068
aF10.0
aI1
aI01
aI00
aI00
aI00
aI00
aI00
aI00
aI00
aa(lp4069
I234378
aF146.48
aF117.42
aVp4
p4070
aS'dejavusans'
p4071
aS'#000000'
p4072
aF10.0
aI1
aI00
aI00
aI00
aI00
aI00
aI00
aI00
aI00
aa(lp4073
I104617
aF152.46833333333333
aF117.42
ag4070
aS'dejavusans'
p4074
aS'#000000'
p4075
aF10.0
aI1
aI01
aI00
aI00
aI00
aI00
aI00
aI00
aI00
aa(lp4076
I198987
aF185.78
aF117.42
aVp4
p4077
aS'dejavusans'
p4078
aS'#000000'
p4079
aF10.0
aI1
aI01
aI00
aI00
aI00
aI00
aI00
aI00
aI00
aa(lp4080
I200115
aF218.98
aF117.42
aVp4
p4081
aS'dejavusans'
p4082
aS'#000000'
p4083
aF10.0
aI1
aI01
aI00
aI00
aI00
aI00
aI00
aI00
aI00
aa(lp4084
I135639
aF297.68
aF117.42
aVp4
p4085
aS'dejavusans'
p4086
aS'#000000'
p4087
aF10.0
aI1
aI00
aI00
aI00
aI00
aI00
aI00
aI00
aI00
aa(lp4088
I194354
aF311.38
aF117.42
aVp4
p4089
aS'dejavusans'
p4090
aS'#000000'
p4091
aF10.0
aI1
aI00
aI00
aI00
aI00
aI00
aI00
aI00
aI00
aa(lp4092
I31679
aF333.18
aF117.42
aVp4
p4093
aS'dejavusans'
p4094
aS'#000000'
p4095
aF10.0
aI1
aI01
aI01
aI00
aI00
aI00
aI00
aI00
aI00
aa(lp4096
I234378
aF346.29333333333335
aF117.42
ag4093
aS'dejavusans'
p4097
aS'#000000'
p4098
aF10.0
aI1
aI00
aI00
aI00
aI00
aI00
aI00
aI00
aI00
aa(lp4099
I234378
aF72.1
aF129.12
aVp4
p4100
aS'dejavusans'
p4101
aS'#000000'
p4102
aF10.0
aI0
aI00
aI00
aI00
aI00
aI00
aI00
aI00
aI00
aa(lp4103
I234378
aF77.7825
aF129.12
ag4100
aS'dejavusans'
p4104
aS'#000000'
p4105
aF10.0
aI0
aI01
aI00
aI00
aI00
aI00
aI00
aI00
aI01
aa(lp4106
I234378
aF98.07
aF129.12
aVp4
p4107
aS'dejavusans'
p4108
aS'#000000'
p4109
aF10.0
aI0
aI00
aI00
aI01
aI01
aI01
aI00
aI00
aI00
aa(lp4110
I131472
aF134.74
aF129.12
aVp4
p4111
aS'dejavusans'
p4112
aS'#000000'
p4113
aF10.0
aI0
aI01
aI00
aI00
aI00
aI00
aI00
aI00
aI01
aa(lp4114
I234378
aF160.81
aF129.12
aVp4
p4115
aS'dejavusans'
p4116
aS'#000000'
p4117
aF10.0
aI0
aI00
aI00
aI01
aI01
aI01
aI00
aI00
aI00
aa(lp4118
I234378
aF184.234
aF129.12
ag4115
aS'dejavusans'
p4119
aS'#000000'
p4120
aF10.0
aI0
aI00
aI00
aI00
aI00
aI00
aI00
aI00
aI00
aa(lp4121
I234378
aF72.1
aF146.72
aVp4
p4122
aS'dejavusans'
p4123
aS'#000000'
p4124
aF10.0
aI0
aI01
aI00
aI00
aI00
aI00
aI00
aI00
aI00
aa(lp4125
I234378
aF100.58
aF146.72
aVp4
p4126
aS'dejavusans'
p4127
aS'#000000'
p4128
aF10.0
aI0
aI01
aI00
aI00
aI00
aI00
aI00
aI00
aI00
aa(lp4129
I123665
aF137.63
aF146.72
aVp4
p4130
aS'dejavusans'
p4131
aS'#000000'
p4132
aF10.0
aI0
aI01
aI00
aI00
aI00
aI00
aI00
aI00
aI00
aa(lp4133
I209115
aF196.96
aF146.72
aVp4
p4134
aS'dejavusans'
p4135
aS'#000000'
p4136
aF10.0
aI0
aI00
aI00
aI00
aI00
aI00
aI00
aI00
aI00
aa(lp4137
I25729
aF219.93
aF146.72
aVp4
p4138
aS'dejavusans'
p4139
aS'#000000'
p4140
aF10.0
aI0
aI00
aI00
aI00
aI00
aI00
aI00
aI00
aI00
aa(lp4141
I190806
aF247.4
aF146.72
aVp4
p4142
aS'dejavusans'
p4143
aS'#000000'
p4144
aF10.0
aI0
aI00
aI00
aI00
aI00
aI00
aI00
aI00
aI00
aa(lp4145
I194354
aF264.58
aF146.72
aVp4
p4146
aS'dejavusans'
p4147
aS'#000000'
p4148
aF10.0
aI0
aI00
aI00
aI00
aI00
aI00
aI00
aI00
aI00
aa(lp4149
I234378
aF284.46
aF146.72
aVp4
p4150
aS'dejavusans'
p4151
aS'#000000'
p4152
aF10.0
aI0
aI00
aI00
aI00
aI00
aI00
aI00
aI00
aI00
aa(lp4153
I144489
aF322.11
aF146.72
aVp4
p4154
aS'dejavusans'
p4155
aS'#000000'
p4156
aF10.0
aI0
aI00
aI00
aI00
aI00
aI00
aI00
aI00
aI00
aa(lp4157
I174268
aF335.19
aF146.72
aVp4
p4158
aS'dejavusans'
p4159
aS'#000000'
p4160
aF10.0
aI0
aI00
aI00
aI00
aI00
aI00
aI00
aI00
aI00
aa(lp4161
I198987
aF375.16
aF146.72
aVp4
p4162
aS'dejavusans'
p4163
aS'#000000'
p4164
aF10.0
aI0
aI00
aI00
aI00
aI00
aI00
aI00
aI00
aI00
aa(lp4165
I234378
aF404.33
aF146.72
aVp4
p4166
aS'dejavusans'
p4167
aS'#000000'
p4168
aF10.0
aI0
aI00
aI00
aI00
aI00
aI00
aI00
aI00
aI00
aa(lp4169
I234378
aF433.51
aF146.72
aVp4
p4170
aS'dejavusans'
p4171
aS'#000000'
p4172
aF10.0
aI0
aI00
aI00
aI00
aI00
aI00
aI00
aI00
aI00
aa(lp4173
I192651
aF507.26
aF146.72
aVp4
p4174
aS'dejavusans'
p4175
aS'#000000'
p4176
aF10.0
aI0
aI00
aI00
aI00
aI00
aI00
aI00
aI00
aI00
aa(lp4177
I194354
aF522.94
aF146.72
aVp4
p4178
aS'dejavusans'
p4179
aS'#000000'
p4180
aF10.0
aI0
aI00
aI00
aI00
aI00
aI00
aI00
aI00
aI00
aa(lp4181
I25931
aF72.1
aF158.42
aVp4
p4182
aS'dejavusans'
p4183
aS'#000000'
p4184
aF10.0
aI0
aI01
aI00
aI00
aI00
aI00
aI00
aI00
aI00
aa(lp4185
I234378
aF99.56285714285714
aF158.42
ag4182
aS'dejavusans'
p4186
aS'#000000'
p4187
aF10.0
aI0
aI00
aI00
aI00
aI00
aI00
aI00
aI00
aI00
aa(lp4188
I194354
aF107.36
aF158.42
aVp4
p4189
aS'dejavusans'
p4190
aS'#000000'
p4191
aF10.0
aI0
aI01
aI00
aI00
aI00
aI00
aI00
aI00
aI00
aa(lp4192
I123665
aF129.14
aF158.42
aVp4
p4193
aS'dejavusans'
p4194
aS'#000000'
p4195
aF10.0
aI0
aI00
aI00
aI00
aI00
aI00
aI00
aI00
aI00
aa(lp4196
I209115
aF187.39
aF158.42
aVp4
p4197
aS'dejavusans'
p4198
aS'#000000'
p4199
aF10.0
aI0
aI00
aI00
aI00
aI00
aI00
aI00
aI00
aI00
aa(lp4200
I35885
aF210.07
aF158.42
aVp4
p4201
aS'dejavusans'
p4202
aS'#000000'
p4203
aF10.0
aI0
aI00
aI00
aI00
aI00
aI00
aI00
aI00
aI00
aa(lp4204
I144483
aF243.44
aF158.42
aVp4
p4205
aS'dejavusans'
p4206
aS'#000000'
p4207
aF10.0
aI0
aI00
aI00
aI00
aI00
aI00
aI00
aI00
aI00
aa(lp4208
I21716
aF259.03
aF158.42
aVp4
p4209
aS'dejavusans'
p4210
aS'#000000'
p4211
aF10.0
aI0
aI01
aI00
aI00
aI00
aI00
aI00
aI00
aI00
aa(lp4212
I24380
aF283.31
aF158.42
aVp4
p4213
aS'dejavusans'
p4214
aS'#000000'
p4215
aF10.0
aI0
aI01
aI00
aI00
aI00
aI00
aI00
aI00
aI00
aa(lp4216
I73167
aF302.19
aF158.42
aVp4
p4217
aS'dejavusans'
p4218
aS'#000000'
p4219
aF10.0
aI0
aI01
aI00
aI00
aI00
aI00
aI00
aI00
aI00
aa(lp4220
I115769
aF331.77
aF158.42
aVp4
p4221
aS'dejavusans'
p4222
aS'#000000'
p4223
aF10.0
aI0
aI01
aI00
aI00
aI00
aI00
aI00
aI00
aI00
aa(lp4224
I234378
aF384.366
aF158.42
ag4221
aS'dejavusans'
p4225
aS'#000000'
p4226
aF10.0
aI0
aI00
aI00
aI00
aI00
aI00
aI00
aI00
aI00
aa(lp4227
I46544
aF72.1
aF176.02
aVp4
p4228
aS'dejavusans'
p4229
aS'#000000'
p4230
aF10.0
aI0
aI01
aI00
aI00
aI00
aI00
aI00
aI00
aI00
aa(lp4231
I177958
aF95.68
aF176.02
aVp4
p4232
aS'dejavusans'
p4233
aS'#000000'
p4234
aF10.0
aI0
aI00
aI00
aI00
aI00
aI00
aI00
aI00
aI00
aa(lp4235
I209115
aF133.53
aF176.02
aVp4
p4236
aS'dejavusans'
p4237
aS'#000000'
p4238
aF10.0
aI0
aI00
aI00
aI00
aI00
aI00
aI00
aI00
aI00
aa(lp4239
I41890
aF156.21
aF176.02
aVp4
p4240
aS'dejavusans'
p4241
aS'#000000'
p4242
aF10.0
aI0
aI00
aI00
aI00
aI00
aI00
aI00
aI00
aI00
aa(lp4243
I98566
aF170.99
aF176.02
aVp4
p4244
aS'dejavusans'
p4245
aS'#000000'
p4246
aF10.0
aI0
aI00
aI00
aI00
aI00
aI00
aI00
aI00
aI00
aa(lp4247
I46680
aF203.06
aF176.02
aVp4
p4248
aS'dejavusans'
p4249
aS'#000000'
p4250
aF10.0
aI0
aI00
aI00
aI00
aI00
aI00
aI00
aI00
aI00
aa(lp4251
I147316
aF234.13
aF176.02
aVp4
p4252
aS'dejavusans'
p4253
aS'#000000'
p4254
aF10.0
aI0
aI00
aI00
aI00
aI00
aI00
aI00
aI00
aI00
aa(lp4255
I85218
aF275.71
aF176.02
aVp4
p4256
aS'dejavusans'
p4257
aS'#000000'
p4258
aF10.0
aI0
aI00
aI00
aI00
aI00
aI00
aI00
aI00
aI00
aa(lp4259
I20593
aF297.69
aF176.02
aVp4
p4260
aS'dejavusans'
p4261
aS'#000000'
p4262
aF10.0
aI0
aI00
aI00
aI00
aI00
aI00
aI00
aI00
aI00
aa(lp4263
I144489
aF366.25
aF176.02
aVp4
p4264
aS'dejavusans'
p4265
aS'#000000'
p4266
aF10.0
aI0
aI00
aI00
aI00
aI00
aI00
aI00
aI00
aI00
aa(lp4267
I194354
aF379.13
aF176.02
aVp4
p4268
aS'dejavusans'
p4269
aS'#000000'
p4270
aF10.0
aI0
aI00
aI00
aI00
aI00
aI00
aI00
aI00
aI00
aa(lp4271
I234378
aF398.62
aF176.02
aVp4
p4272
aS'dejavusans'
p4273
aS'#000000'
p4274
aF10.0
aI0
aI01
aI00
aI00
aI00
aI00
aI00
aI00
aI00
aa(lp4275
I234378
aF426.8
aF176.02
aVp4
p4276
aS'dejavusans'
p4277
aS'#000000'
p4278
aF10.0
aI0
aI01
aI00
aI00
aI00
aI00
aI00
aI00
aI00
aa(lp4279
I207716
aF463.56
aF176.02
aVp4
p4280
aS'dejavusans'
p4281
aS'#000000'
p4282
aF10.0
aI0
aI00
aI00
aI00
aI00
aI00
aI00
aI00
aI00
aa(lp4283
I234378
aF497.21142857142854
aF176.02
ag4280
aS'dejavusans'
p4284
aS'#000000'
p4285
aF10.0
aI0
aI00
aI00
aI00
aI00
aI00
aI00
aI00
aI00
aa(lp4286
I234378
aF72.1
aF193.72
aVp4
p4287
aS'dejavusans'
p4288
aS'#000000'
p4289
aF10.0
aI1
aI01
aI00
aI00
aI00
aI00
aI00
aI00
aI00
aa(lp4290
I234378
aF118.46
aF193.72
aVp4
p4291
aS'dejavusans'
p4292
aS'#000000'
p4293
aF10.0
aI1
aI01
aI00
aI00
aI00
aI00
aI00
aI00
aI00
aa(lp4294
I234378
aF206.1870588235294
aF193.72
ag4291
aS'dejavusans'
p4295
aS'#000000'
p4296
aF10.0
aI1
aI00
aI00
aI00
aI00
aI00
aI00
aI00
aI00
aa(lp4297
I234378
aF72.1
aF217.02
aVp4
p4298
aS'dejavusans'
p4299
aS'#000000'
p4300
aF10.0
aI1
aI01
aI00
aI00
aI00
aI00
aI00
aI00
aI00
aa(lp4301
I25729
aF125.59
aF217.02
aVp4
p4302
aS'dejavusans'
p4303
aS'#000000'
p4304
aF10.0
aI1
aI01
aI00
aI00
aI00
aI00
aI00
aI00
aI00
aa(lp4305
I234378
aF150.446
aF217.02
ag4302
aS'dejavusans'
p4306
aS'#000000'
p4307
aF10.0
aI1
aI00
aI00
aI00
aI00
aI00
aI00
aI00
aI00
aa(lp4308
I21716
aF159.7
aF217.02
aVp4
p4309
aS'dejavusans'
p4310
aS'#000000'
p4311
aF10.0
aI0
aI01
aI00
aI00
aI00
aI00
aI00
aI00
aI00
aa(lp4312
I234378
aF178.71599999999998
aF217.02
ag4309
aS'dejavusans'
p4313
aS'#000000'
p4314
aF10.0
aI0
aI00
aI00
aI00
aI00
aI00
aI00
aI00
aI00
aa(lp4315
I234378
aF186.49
aF217.02
aVp4
p4316
aS'dejavusans'
p4317
aS'#000000'
p4318
aF10.0
aI0
aI01
aI01
aI01
aI00
aI00
aI00
aI00
aI00
aa(lp4319
I234378
aF206.306
aF217.02
ag4316
aS'dejavusans'
p4320
aS'#000000'
p4321
aF10.0
aI0
aI00
aI00
aI00
aI00
aI00
aI00
aI00
aI00
aa(lp4322
I234378
aF214.19
aF217.02
aVp4
p4323
aS'dejavusans'
p4324
aS'#000000'
p4325
aF10.0
aI0
aI01
aI00
aI00
aI00
aI00
aI00
aI00
aI00
aa(lp4326
I234378
aF252.7411111111111
aF217.02
ag4323
aS'dejavusans'
p4327
aS'#000000'
p4328
aF10.0
aI0
aI00
aI00
aI00
aI00
aI00
aI00
aI00
aI00
aa(lp4329
I45445
aF260.59
aF217.02
aVp4
p4330
aS'dejavusans'
p4331
aS'#000000'
p4332
aF10.0
aI0
aI01
aI00
aI00
aI00
aI00
aI00
aI00
aI00
aa(lp4333
I234378
aF290.65
aF217.02
ag4330
aS'dejavusans'
p4334
aS'#000000'
p4335
aF10.0
aI0
aI00
aI00
aI00
aI00
aI00
aI00
aI00
aI00
aa(lp4336
I234378
aF298.69
aF217.02
aVp4
p4337
aS'dejavusans'
p4338
aS'#000000'
p4339
aF10.0
aI0
aI01
aI01
aI00
aI00
aI00
aI00
aI00
aI00
aa(lp4340
I234378
aF310.3671428571429
aF217.02
ag4337
aS'dejavusans'
p4341
aS'#000000'
p4342
aF10.0
aI0
aI01
aI01
aI00
aI00
aI00
aI00
aI00
aI00
aa(lp4343
I234378
aF326.3828571428572
aF217.02
ag4337
aS'dejavusans'
p4344
aS'#000000'
p4345
aF10.0
aI0
aI00
aI00
aI00
aI00
aI00
aI00
aI00
aI00
aa(lp4346
I199183
aF339.09
aF217.02
aVp4
p4347
aS'dejavusans'
p4348
aS'#000000'
p4349
aF10.0
aI0
aI01
aI00
aI00
aI00
aI00
aI00
aI00
aI00
aa(lp4350
I234378
aF380.19
aF217.02
aVp4
p4351
aS'dejavusans'
p4352
aS'#000000'
p4353
aF10.0
aI0
aI01
aI01
aI00
aI00
aI00
aI00
aI00
aI00
aa(lp4354
I190806
aF404.1
aF217.02
aVp4
p4355
aS'dejavusans'
p4356
aS'#000000'
p4357
aF10.0
aI0
aI00
aI00
aI00
aI00
aI00
aI00
aI00
aI00
aa(lp4358
I194179
aF420.6
aF217.02
aVp4
p4359
aS'dejavusans'
p4360
aS'#000000'
p4361
aF10.0
aI0
aI00
aI00
aI00
aI00
aI00
aI00
aI00
aI00
aa(lp4362
I226160
aF459.6
aF217.02
aVp4
p4363
aS'dejavusans'
p4364
aS'#000000'
p4365
aF10.0
aI0
aI00
aI00
aI00
aI00
aI00
aI00
aI00
aI00
aa(lp4366
I234378
aF492.03625
aF217.02
ag4363
aS'dejavusans'
p4367
aS'#000000'
p4368
aF10.0
aI0
aI00
aI00
aI00
aI00
aI00
aI00
aI00
aI00
aa(lp4369
I234378
aF72.1
aF228.62
aVp4
p4370
aS'dejavusans'
p4371
aS'#000000'
p4372
aF10.0
aI0
aI01
aI00
aI00
aI00
aI00
aI00
aI00
aI00
aa(lp4373
I234378
aF109.05111111111111
aF228.62
ag4370
aS'dejavusans'
p4374
aS'#000000'
p4375
aF10.0
aI0
aI00
aI00
aI00
aI00
aI00
aI00
aI00
aI00
aa(lp4376
I234378
aF116.69
aF228.62
aVp4
p4377
aS'dejavusans'
p4378
aS'#000000'
p4379
aF10.0
aI0
aI01
aI00
aI00
aI00
aI00
aI00
aI00
aI00
aa(lp4380
I234378
aF163.68
aF228.62
aVp4
p4381
aS'dejavusans'
p4382
aS'#000000'
p4383
aF10.0
aI0
aI01
aI01
aI00
aI00
aI00
aI00
aI00
aI00
aa(lp4384
I234378
aF174.26000000000002
aF228.62
ag4381
aS'dejavusans'
p4385
aS'#000000'
p4386
aF10.0
aI0
aI00
aI00
aI00
aI00
aI00
aI00
aI00
aI00
aa(lp4387
I234378
aF182.58
aF228.62
aVp4
p4388
aS'dejavusans'
p4389
aS'#000000'
p4390
aF10.0
aI0
aI01
aI01
aI00
aI00
aI00
aI00
aI00
aI00
aa(lp4391
I234378
aF204.39600000000002
aF228.62
ag4388
aS'dejavusans'
p4392
aS'#000000'
p4393
aF10.0
aI0
aI00
aI00
aI00
aI00
aI00
aI00
aI00
aI00
aa(lp4394
I234378
aF212.88
aF228.62
aVp4
p4395
aS'dejavusans'
p4396
aS'#000000'
p4397
aF10.0
aI0
aI01
aI00
aI00
aI00
aI00
aI00
aI00
aI00
aa(lp4398
I234378
aF252.67555555555555
aF228.62
ag4395
aS'dejavusans'
p4399
aS'#000000'
p4400
aF10.0
aI0
aI00
aI00
aI00
aI00
aI00
aI00
aI00
aI00
aa(lp4401
I124531
aF72.1
aF260.42
aVp4
p4402
aS'dejavusans'
p4403
aS'#000000'
p4404
aF10.0
aI1
aI01
aI01
aI00
aI00
aI00
aI00
aI00
aI00
aa(lp4405
I234378
aF133.912
aF260.42
ag4402
aS'dejavusans'
p4406
aS'#000000'
p4407
aF10.0
aI1
aI00
aI00
aI00
aI00
aI00
aI00
aI00
aI00
aa(lp4408
I103666
aF144.37
aF260.42
aVp4
p4409
aS'dejavusans'
p4410
aS'#000000'
p4411
aF10.0
aI1
aI01
aI01
aI00
aI00
aI00
aI00
aI00
aI00
aa(lp4412
I234378
aF214.63
aF260.42
aVp4
p4413
aS'dejavusans'
p4414
aS'#000000'
p4415
aF10.0
aI1
aI01
aI01
aI00
aI00
aI00
aI00
aI00
aI00
aa(lp4416
I24622
aF108.1
aF278.12
aVp4
p4417
aS'dejavusans'
p4418
aS'#000000'
p4419
aF10.0
aI0
aI01
aI00
aI00
aI00
aI00
aI00
aI00
aI00
aa(lp4420
I144489
aF157.44
aF278.12
aVp4
p4421
aS'dejavusans'
p4422
aS'#000000'
p4423
aF10.0
aI0
aI00
aI00
aI00
aI00
aI00
aI00
aI00
aI00
aa(lp4424
I43052
aF172.52
aF278.12
aVp4
p4425
aS'dejavusans'
p4426
aS'#000000'
p4427
aF10.0
aI0
aI01
aI00
aI00
aI00
aI00
aI00
aI00
aI00
aa(lp4428
I135639
aF233.86
aF278.12
aVp4
p4429
aS'dejavusans'
p4430
aS'#000000'
p4431
aF10.0
aI0
aI00
aI00
aI00
aI00
aI00
aI00
aI00
aI00
aa(lp4432
I24862
aF248.43
aF278.12
aVp4
p4433
aS'dejavusans'
p4434
aS'#000000'
p4435
aF10.0
aI0
aI01
aI00
aI00
aI00
aI00
aI00
aI00
aI00
aa(lp4436
I144509
aF321.45
aF278.12
aVp4
p4437
aS'dejavusans'
p4438
aS'#000000'
p4439
aF10.0
aI0
aI01
aI00
aI00
aI00
aI00
aI00
aI00
aI00
aa(lp4440
I199937
aF405.68
aF278.12
aVp4
p4441
aS'dejavusans'
p4442
aS'#000000'
p4443
aF10.0
aI0
aI01
aI00
aI00
aI00
aI00
aI00
aI00
aI00
aa(lp4444
I234378
aF463.4575
aF278.12
ag4441
aS'dejavusans'
p4445
aS'#000000'
p4446
aF10.0
aI0
aI00
aI00
aI00
aI00
aI00
aI00
aI00
aI00
aa(lp4447
I153079
aF474.22
aF278.12
aVp4
p4448
aS'dejavusans'
p4449
aS'#000000'
p4450
aF10.0
aI0
aI01
aI00
aI00
aI00
aI00
aI00
aI00
aI00
aa(lp4451
I144489
aF529.97
aF278.12
aVp4
p4452
aS'dejavusans'
p4453
aS'#000000'
p4454
aF10.0
aI0
aI00
aI00
aI00
aI00
aI00
aI00
aI00
aI00
aa(lp4455
I174006
aF108.1
aF290.52
aVp4
p4456
aS'dejavusans'
p4457
aS'#000000'
p4458
aF10.0
aI0
aI01
aI00
aI00
aI00
aI00
aI00
aI00
aI00
aa(lp4459
I234378
aF140.93875
aF290.52
ag4456
aS'dejavusans'
p4460
aS'#000000'
p4461
aF10.0
aI0
aI00
aI00
aI00
aI00
aI00
aI00
aI00
aI00
aa(lp4462
I234378
aF148.84
aF290.52
aVp4
p4463
aS'dejavusans'
p4464
aS'#000000'
p4465
aF10.0
aI0
aI00
aI00
aI01
aI01
aI01
aI00
aI00
aI00
aa(lp4466
I234378
aF108.1
aF302.12
aVp4
p4467
aS'dejavusans'
p4468
aS'#000000'
p4469
aF10.0
aI0
aI01
aI00
aI00
aI00
aI00
aI00
aI00
aI00
aa(lp4470
I103666
aF155.36
aF302.12
aVp4
p4471
aS'dejavusans'
p4472
aS'#000000'
p4473
aF10.0
aI0
aI00
aI00
aI00
aI00
aI00
aI00
aI00
aI00
aa(lp4474
I192651
aF197.22
aF302.12
aVp4
p4475
aS'dejavusans'
p4476
aS'#000000'
p4477
aF10.0
aI0
aI00
aI00
aI00
aI00
aI00
aI00
aI00
aI00
aa(lp4478
I31679
aF212.61
aF302.12
aVp4
p4479
aS'dejavusans'
p4480
aS'#000000'
p4481
aF10.0
aI0
aI01
aI01
aI00
aI00
aI00
aI00
aI00
aI00
aa(lp4482
I43052
aF229.49
aF302.12
aVp4
p4483
aS'dejavusans'
p4484
aS'#000000'
p4485
aF10.0
aI0
aI01
aI00
aI00
aI00
aI00
aI00
aI00
aI00
aa(lp4486
I234378
aF108.1
aF314.52
aVp4
p4487
aS'dejavusans'
p4488
aS'#000000'
p4489
aF10.0
aI0
aI01
aI00
aI00
aI00
aI00
aI00
aI00
aI00
aa(lp4490
I21716
aF149.65
aF314.52
aVp4
p4491
aS'dejavusans'
p4492
aS'#000000'
p4493
aF10.0
aI0
aI01
aI00
aI00
aI00
aI00
aI00
aI00
aI00
aa(lp4494
I70210
aF173.93
aF314.52
aVp4
p4495
aS'dejavusans'
p4496
aS'#000000'
p4497
aF10.0
aI0
aI01
aI00
aI00
aI00
aI00
aI00
aI00
aI00
aa(lp4498
I197030
aF198.43714285714287
aF314.52
ag4495
aS'dejavusans'
p4499
aS'#000000'
p4500
aF10.0
aI0
aI01
aI01
aI00
aI00
aI00
aI00
aI00
aI00
aa(lp4501
I2691
aF108.1
aF326.92
aVp4
p4502
aS'dejavusans'
p4503
aS'#000000'
p4504
aF10.0
aI1
aI01
aI00
aI00
aI00
aI00
aI00
aI00
aI00
aa(lp4505
I121293
aF132.99
aF326.92
aVp4
p4506
aS'dejavusans'
p4507
aS'#000000'
p4508
aF10.0
aI1
aI01
aI00
aI00
aI00
aI00
aI00
aI00
aI00
aa(lp4509
I21716
aF185.05
aF326.92
aVp4
p4510
aS'dejavusans'
p4511
aS'#000000'
p4512
aF10.0
aI1
aI01
aI00
aI00
aI00
aI00
aI00
aI00
aI00
aa(lp4513
I150037
aF212.33
aF326.92
aVp4
p4514
aS'dejavusans'
p4515
aS'#000000'
p4516
aF10.0
aI1
aI01
aI00
aI00
aI00
aI00
aI00
aI00
aI00
aa(lp4517
I109610
aF108.1
aF339.32
aVp4
p4518
aS'dejavusans'
p4519
aS'#000000'
p4520
aF10.0
aI0
aI01
aI00
aI00
aI00
aI00
aI00
aI00
aI00
aa(lp4521
I188659
aF131.34
aF339.32
ag4518
aS'dejavusans'
p4522
aS'#000000'
p4523
aF10.0
aI0
aI00
aI00
aI00
aI00
aI00
aI00
aI00
aI00
aa(lp4524
I234378
aF155.84
aF339.32
aVp4
p4525
aS'dejavusans'
p4526
aS'#000000'
p4527
aF10.0
aI0
aI00
aI00
aI00
aI00
aI00
aI00
aI00
aI00
aa(lp4528
I190806
aF223.67
aF339.32
aVp4
p4529
aS'dejavusans'
p4530
aS'#000000'
p4531
aF10.0
aI0
aI00
aI00
aI00
aI00
aI00
aI00
aI00
aI00
aa(lp4532
I21716
aF240.56
aF339.32
aVp4
p4533
aS'dejavusans'
p4534
aS'#000000'
p4535
aF10.0
aI0
aI01
aI00
aI00
aI00
aI00
aI00
aI00
aI00
aa(lp4536
I7520
aF72.1
aF360.22
aVp4
p4537
aS'dejavusans'
p4538
aS'#000000'
p4539
aF10.0
aI1
aI01
aI01
aI00
aI00
aI00
aI00
aI00
aI00
aa(lp4540
I234378
aF135.67
aF360.22
aVp4
p4541
aS'dejavusans'
p4542
aS'#000000'
p4543
aF10.0
aI1
aI01
aI01
aI00
aI00
aI00
aI00
aI00
aI00
aa(lp4544
I158577
aF72.1
aF390.27
aVp4
p4545
aS'nimbussanl'
p4546
aS'#000000'
p4547
aF10.0
aI0
aI01
aI00
aI00
aI00
aI00
aI00
aI00
aI00
aa(lp4548
I234378
aF180.1
aF390.27
aVp4
p4549
aS'nimbussanl'
p4550
aS'#000000'
p4551
aF10.0
aI0
aI01
aI00
aI00
aI00
aI00
aI00
aI00
aI00
aa(lp4552
I222769
aF225.2375
aF390.27
ag4549
aS'nimbussanl'
p4553
aS'#000000'
p4554
aF10.0
aI0
aI01
aI00
aI00
aI00
aI00
aI00
aI00
aI00
aa(lp4555
I234378
aF270.375
aF390.27
ag4549
aS'nimbussanl'
p4556
aS'#000000'
p4557
aF10.0
aI0
aI01
aI00
aI00
aI00
aI00
aI00
aI00
aI00
aa(lp4558
I132955
aF72.1
aF402.67
aVp4
p4559
aS'nimbussanl'
p4560
aS'#000000'
p4561
aF10.0
aI0
aI01
aI00
aI00
aI00
aI00
aI00
aI00
aI00
aa(lp4562
I144489
aF91.03846153846153
aF402.67
ag4559
aS'nimbussanl'
p4563
aS'#000000'
p4564
aF10.0
aI0
aI00
aI00
aI00
aI00
aI00
aI00
aI00
aI00
aa(lp4565
I132529
aF101.00769230769231
aF402.67
ag4559
aS'nimbussanl'
p4566
aS'#000000'
p4567
aF10.0
aI0
aI01
aI00
aI00
aI00
aI00
aI00
aI00
aI00
aa(lp4568
I234378
aF180.1
aF402.67
aVp4
p4569
aS'nimbussanl'
p4570
aS'#000000'
p4571
aF10.0
aI0
aI00
aI00
aI01
aI01
aI01
aI00
aI00
aI00
aa(lp4572
I234378
aF191.322
aF402.67
ag4569
aS'nimbussanl'
p4573
aS'#000000'
p4574
aF10.0
aI0
aI00
aI00
aI01
aI01
aI01
aI00
aI00
aI00
aa(lp4575
I234378
aF202.544
aF402.67
ag4569
aS'nimbussanl'
p4576
aS'#000000'
p4577
aF10.0
aI0
aI00
aI00
aI01
aI01
aI01
aI00
aI00
aI00
aa(lp4578
I234378
aF72.1
aF415.07
aVp4
p4579
aS'nimbussanl'
p4580
aS'#000000'
p4581
aF10.0
aI0
aI01
aI00
aI00
aI00
aI00
aI00
aI00
aI00
aa(lp4582
I22484
aF95.30624999999999
aF415.07
ag4579
aS'nimbussanl'
p4583
aS'#000000'
p4584
aF10.0
aI0
aI00
aI00
aI00
aI00
aI00
aI00
aI00
aI00
aa(lp4585
I234378
aF180.1
aF415.07
aVp4
p4586
aS'nimbussanl'
p4587
aS'#000000'
p4588
aF10.0
aI0
aI00
aI00
aI00
aI00
aI00
aI01
aI00
aI00
aa(lp4589
I28425
aF72.1
aF427.47
aVp4
p4590
aS'nimbussanl'
p4591
aS'#000000'
p4592
aF10.0
aI0
aI01
aI00
aI00
aI00
aI00
aI00
aI00
aI00
aa(lp4593
I118366
aF119.85235294117646
aF427.47
ag4590
aS'nimbussanl'
p4594
aS'#000000'
p4595
aF10.0
aI0
aI01
aI00
aI00
aI00
aI00
aI00
aI00
aI00
aa(lp4596
I71195
aF180.1
aF427.47
aVp4
p4597
aS'nimbussanl'
p4598
aS'#000000'
p4599
aF10.0
aI0
aI01
aI00
aI00
aI00
aI00
aI00
aI00
aI00
aa(lp4600
I234378
aF198.927027027027
aF427.47
ag4597
aS'nimbussanl'
p4601
aS'#000000'
p4602
aF10.0
aI0
aI01
aI01
aI01
aI00
aI00
aI00
aI00
aI00
aa(lp4603
I234378
aF216.75405405405405
aF427.47
ag4597
aS'nimbussanl'
p4604
aS'#000000'
p4605
aF10.0
aI0
aI00
aI00
aI00
aI00
aI00
aI00
aI00
aI00
aa(lp4606
I114177
aF222.2108108108108
aF427.47
ag4597
aS'nimbussanl'
p4607
aS'#000000'
p4608
aF10.0
aI0
aI01
aI00
aI00
aI00
aI00
aI00
aI00
aI00
aa(lp4609
I24416
aF263.3216216216216
aF427.47
ag4597
aS'nimbussanl'
p4610
aS'#000000'
p4611
aF10.0
aI0
aI01
aI00
aI00
aI00
aI00
aI00
aI00
aI00
aa(lp4612
I234378
aF272.06216216216217
aF427.47
ag4597
aS'nimbussanl'
p4613
aS'#000000'
p4614
aF10.0
aI0
aI00
aI00
aI00
aI00
aI00
aI00
aI00
aI00
aa(lp4615
I234378
aF295.5189189189189
aF427.47
ag4597
aS'nimbussanl'
p4616
aS'#000000'
p4617
aF10.0
aI0
aI01
aI00
aI00
aI00
aI00
aI00
aI00
aI00
aa(lp4618
I33301
aF72.1
aF439.87
aVp4
p4619
aS'nimbussanl'
p4620
aS'#000000'
p4621
aF10.0
aI0
aI01
aI00
aI00
aI00
aI00
aI00
aI00
aI00
aa(lp4622
I75081
aF109.475
aF439.87
ag4619
aS'nimbussanl'
p4623
aS'#000000'
p4624
aF10.0
aI0
aI01
aI00
aI00
aI00
aI00
aI00
aI00
aI00
aa(lp4625
I234378
aF180.1
aF439.87
aVp4
p4626
aS'nimbussanl'
p4627
aS'#000000'
p4628
aF10.0
aI0
aI00
aI00
aI01
aI01
aI01
aI00
aI00
aI00
aa(lp4629
I234378
aF191.64533333333333
aF439.87
ag4626
aS'nimbussanl'
p4630
aS'#000000'
p4631
aF10.0
aI0
aI00
aI00
aI01
aI01
aI01
aI00
aI00
aI00
aa(lp4632
I234378
aF219.00866666666667
aF439.87
ag4626
aS'nimbussanl'
p4633
aS'#000000'
p4634
aF10.0
aI0
aI00
aI00
aI01
aI01
aI01
aI00
aI00
aI00
aa(lp4635
I94749
aF484.1
aF725.72
aVp4
p4636
aS'dejavusans'
p4637
aS'#000000'
p4638
aF10.0
aI0
aI01
aI00
aI00
aI00
aI00
aI00
aI00
aI00
aa(lp4639
I234378
aF511.5
aF725.72
aVp4
p4640
aS'dejavusans'
p4641
aS'#000000'
p4642
aF10.0
aI0
aI00
aI00
aI01
aI01
aI00
aI00
aI00
aI00
aa(lp4643
I144489
aF520.99
aF725.72
aVp4
p4644
aS'dejavusans'
p4645
aS'#000000'
p4646
aF10.0
aI0
aI00
aI00
aI00
aI00
aI00
aI00
aI00
aI00
aa(lp4647
I234378
aF533.8
aF725.72
aVp4
p4648
aS'dejavusans'
p4649
aS'#000000'
p4650
aF10.0
aI0
aI00
aI00
aI01
aI01
aI00
aI00
aI00
aI00
aa(lp4651
I1
aI1
aI1
aI0
aI0
aI0
aI0
aI1
aI1
aI0
aI0
aI0
aI0
aI0
aI0
aI0
aI0
aI0
aI0
aI0
aI0
aI0
aI0
aI0
aI0
aI0
aI0
aI0
aI0
aI0
aI0
aI0
aI0
aI0
aI0
aI0
aI0
aI0
aI0
aI0
aI0
aI0
aI0
aI0
aI0
aI0
aI0
aI0
aI0
aI0
aI0
aI0
aI0
aI0
aI0
aI0
aI0
aI0
aI0
aI0
aI0
aI0
aI0
aI1
aI1
aI0
aI0
aI0
aI0
aI0
aI0
aI0
aI0
aI0
aI0
aI0
aI0
aI0
aI0
aI0
aI0
aI0
aI0
aI0
aI0
aI0
aI0
aI0
aI0
aI0
aI0
aI0
aI0
aI0
aI0
aI0
aI0
aI0
aI0
aI0
aI0
aI0
aI0
aI0
aI0
aI0
aI0
aI0
aI0
aI0
aI0
aI0
aI0
aI0
aI0
aI0
aI0
aI0
aI0
aI0
aI0
aI0
aI0
aI0
aI0
aI0
aI0
aI0
aI0
aI0
aI0
aI0
aI0
aI0
aI0
aI0
aI0
aI0
aI0
aI0
aI0
aI0
aI0
aI1
aI1
aI0
aI0
aI0
aI0
aI0
aI0
aI0
aI1
aI1
aI0
aI0
aI0
aI0
aI0
aI0
aI0
aI0
aI0
aI0
aI0
aI0
aI0
aI0
aI0
aI0
aI0
aI0
aI0
aI0
aI0
aI0
aI0
aI0
aI0
aI0
aI0
aI0
aI0
aI0
aI0
aI0
aI0
aI0
aI0
aI0
aI0
aI0
aI0
aI0
aI0
aI0
aI0
aI0
aI0
aI0
aI0
aI0
aI0
aI0
aI0
aI0
aI0
aI0
aI0
aI0
aI0
aI0
aI0
aI0
aI0
aI0
aI0
aI0
aI0
aI0
aI0
aI0
aI0
aI0
aI0
aI0
aI0
aI0
aI0
aI0
aI0
aI0
aI0
aI0
aI0
aI0
aI0
aI0
aI0
aI0
aI0
aI0
aI0
aI0
aI0
aI0
aI0
aI0
aI0
aI0
aI0
aI0
aI0
aI0
aI0
aI0
aI0
aI0
aI0
aI0
aI0
aI0
aI0
aI0
aI0
aI0
aI0
aI0
aI0
aI0
aI0
aI0
aI0
aI0
aI0
aI0
aI0
aI0
aI0
aI0
aI0
aI0
aI0
aI0
aI0
aI0
aI0
aI0
aI0
aI0
aI0
aI0
aI0
aI0
aI0
aI0
aI0
aI0
aI0
aI0
aI0
aI0
aI0
aI0
aI0
aI0
aI0
aI0
aI0
aI0
aI0
aI0
aI0
aI0
aI0
aI0
aI0
aI0
aI0
aI0
aI0
aI0
aI0
aI0
aI0
aI0
aI0
aI0
aI0
aI0
aI0
aI0
aI0
aI0
aI0
aI0
aI0
aI0
aI0
aI0
aI0
aI0
aI0
aI0
aI0
aI0
aI0
aI0
aI0
aI0
aI0
aI0
aI0
aI0
aI0
aI0
aI0
aI0
aI0
aI0
aI0
aI0
aI0
aI0
aI0
aI0
aI0
aI0
aI0
aI0
aI0
aI0
aI0
aI0
aI0
aI0
aI0
aI0
aI0
aI0
aI0
aI0
aI0
aI0
aI0
aI0
aI0
aI0
aI0
aI0
aI0
aI0
aI0
aI0
aI0
aI0
aI0
aI0
aI0
aI0
aI0
aI0
aI0
aI0
aI0
aI0
aI0
aI0
aI0
aI0
aI0
aI0
aI0
aI0
aI0
aI0
aI0
aI0
aI0
aI0
aI0
aI0
aI0
aI0
aI0
aI0
aI0
aI0
aI0
aI0
aI0
aI0
aI0
aI0
aI0
aI0
aI0
aI0
aI0
aI0
aI0
aI0
aI0
aI0
aI0
aI0
aI0
aI0
aI0
aI0
aI0
aI0
aI0
aI0
aI0
aI0
aI0
aI0
aI0
aI0
aI0
aI0
aI0
aI0
aI0
aI0
aI0
aI0
aI0
aI0
aI0
aI0
aI0
aI0
aI0
aI0
aI0
aI0
aI0
aI0
aI0
aI0
aI0
aI0
aI0
aI0
aI0
aI0
aI0
aI0
aI0
aI0
aI0
aI0
aI0
aI0
aI0
aI0
aI0
aI0
aI0
aI0
aI0
aI0
aI0
aI0
aI0
aI0
aI0
aI0
aI0
aI0
aI0
aI0
aI0
aI0
aI0
aI0
aI0
aI0
aI0
aI0
aI0
aI0
aI0
aI0
aI0
aI0
aI0
aI0
aI0
aI0
aI0
aI0
aI0
aI0
aI0
aI0
aI0
aI0
aI0
aI0
aI0
aI0
aI0
aI0
aI0
aI0
aI0
aI0
aI0
aI0
aI0
aI0
aI0
aI0
aI0
aI0
aI0
aI0
aI0
aI0
aI0
aI0
aI0
aI0
aI0
aI0
aI0
aI0
aI0
aI0
aI0
aI0
aI0
aI0
aI0
aI0
aI0
aI0
aI0
aI0
aI0
aI0
aI0
aI0
aI0
aI0
aI0
aI0
aI0
aI0
aI0
aI0
aI0
aI0
aI0
aI0
aI0
aI0
aI0
aI0
aI0
aI0
aI0
aI0
aI0
aI0
aI0
aI0
aI0
aI0
aI0
aI0
aI0
aI0
aI0
aI0
aI0
aI0
aI0
aI0
aI0
aI0
aI0
aI0
aI0
aI0
aI0
aI0
aI0
aI0
aI0
aI0
aI0
aI0
aI0
aI0
aI0
aI0
aI0
aI0
aI0
aI0
aI0
aI0
aI0
aI0
aI0
aI0
aI0
aI0
aI0
aI0
aI0
aI0
aI0
aI0
aI0
aI0
aI0
aI0
aI0
aI0
aI0
aI0
aI0
aI0
aI0
aI0
aI0
aI0
aI0
aI0
aI0
aI0
aI0
aI0
aI0
aI0
aI0
aI0
aI0
aI0
aI0
aI0
aI0
aI0
aI0
aI0
aI0
aI0
aI0
aI0
aI0
aI0
aI0
aI0
aI0
aI0
aI0
aI0
aI0
aI0
aI0
aI0
aI0
aI0
aI0
aI0
aI0
aI0
aI0
aI0
aI0
aI0
aI0
aI0
aI0
aI0
aI0
aI0
aI0
aI0
aI0
aI0
aI0
aI0
aI0
aI0
aI0
aI0
aI0
aI0
aI0
aI0
aI0
aI0
aI0
aI0
aI0
aI0
aI0
aI0
aI0
aI0
aI0
aI0
aI0
aI0
aI0
aI0
aI0
aI0
aI0
aI0
aI0
aI0
aI0
aI0
aI0
aI0
aI0
aI0
aI0
aI0
aI0
aI0
aI0
aI0
aI0
aI0
aI0
aI0
aI0
aI0
aI0
aI0
aI0
aI0
aI0
aI0
aI0
aI0
aI0
aI0
aI0
aI0
aI0
aI0
aI0
aI0
aI0
aI0
aI0
aI0
aI0
aI0
aI0
aI0
aI0
aI0
aI0
aI0
aI0
aI0
aI0
aI0
aI0
aI0
aI0
aI0
aI0
aI0
aI0
aI0
aI0
aI0
aI0
aI0
aI0
aI0
aI0
aI0
aI0
aI0
aI0
aI0
aI0
aI0
aI0
aI0
aI0
aI0
aI0
aI0
aI0
aI0
aI0
aI0
aI0
aI0
aI0
aI0
aI0
aI0
aI0
aI0
aI0
aI0
aI0
aI0
aI0
aI0
aI0
aI0
aI0
aI0
aI0
aI0
aI0
aI0
aI0
aI0
aI0
aI0
aI0
aI0
aI0
aI0
aI0
aI0
aI0
aI0
aI0
aI0
aI0
aI0
aI0
aI0
aI0
aI0
aI0
aI0
aI0
aI0
aI0
aI0
aI0
aI0
aI0
aI0
aI0
aI0
aI0
aI0
aI0
aI0
aI0
aI0
aI0
aI0
aI0
aI0
aI0
aI0
aI0
aI0
aI0
aI0
aI0
aI0
aI0
aI0
aI0
aI0
aI0
aI0
aI0
aI0
aI0
aI0
aI0
aI0
aI0
aI0
aI0
aI0
aI0
aI0
aI0
aI0
aI0
aI0
aI0
aI0
aI0
aI0
aI0
aI0
aI0
aI0
aI0
aI0
aI0
aI0
aI0
aI0
aI0
aI0
aI0
aI0
aI0
aI0
aI0
aI0
aI0
aI0
aI0
aI0
aI0
aI0
aI0
aI0
aI0
aI0
aI0
aI0
aI0
aI0
aI0
aI0
aI0
aI0
aI0
aI0
aI0
aI0
aI0
aI0
aI0
aI0
aI0
aI0
aI0
aI0
aI0
aI0
aI0
aI0
aI0
aI0
aI0
aI0
aI0
aI0
aI0
aI0
aI0
aI0
aI0
aI0
aI0
aI0
aI0
aI0
aI0
aI0
aI0
aI0
aI0
aI0
aI0
aI0
aI0
aI0
aI0
aI0
aI0
aI0
aI0
aI0
aI0
aI0
aI0
aI0
aI0
aI0
aI0
aI0
aI0
aI0
aI0
aI0
aI0
aI0
aI0
aI0
aI0
aI0
aI0
aI0
aI0
aI0
aI0
aI0
aI0
aI0
aI0
aI0
aI0
aI0
aI0
aI0
aI0
aI0
aI0
aI0
aI0
aI0
aI0
aI0
aI0
aI0
aI0
aI0
aI0
aI0
aI0
aI0
aI0
aI0
aI0
aI0
aI0
aI0
aI0
aI0
aI0
aI0
aI0
aI0
aI0
aI0
aI0
aI0
aI0
aI0
aI0
aI0
aI0
aI0
aI0
aI0
aI0
aI0
aI0
aI0
aI0
aI0
aI0
aI0
aI0
aI0
aI0
aI0
aI0
aI0
aI0
aI0
aI0
aI0
aI0
aI0
aI0
aI0
aI0
aI0
aI0
aI0
aI0
aI0
aI0
aI0
aI0
aI0
aI0
aI0
aI0
aI0
aI0
aI0
aI0
aI0
aI0
aI0
aI0
aI0
aI0
aI0
aI0
aI0
aI0
aI0
aI0
aI0
aI0
aI0
aI0
aI0
aI0
aI0
aI0
aI0
aI0
aI0
aI0
aI0
aI0
aI0
aI0
aI0
aI0
aI0
aI0
aI1
aI1
aI1
aI1
aI0
aI0
aI0
aI0
aI0
aI0
aI0
aI0
aI0
aI0
aI0
aI0
aI0
aI0
aI0
aI0
aI0
aI0
aI0
aI0
aI0
aI0
aI0
aI0
aI0
aI0
aI0
aI0
aI0
aI0
aI0
aI1
aI1
aI0
aI0
aI0
aI0
aI0
aI0
aI0
aI0
aI0
aI0
aI0
aI0
aI0
aI0
aI0
aI0
aI0
aI0
aI0
aI0
aI0
aI0
aI0
aI0
aI0
aI0
aI0
aI0
aI0
aI0
aI0
atp4652
.