((lp0
(lp1
I183172
aF261.4
aF81.396
aVp1
p2
aS'dejavusans'
p3
aS'#0000ff'
p4
aF18.0
aI1
aI01
aI00
aI00
aI00
aI00
aI00
aI00
aI00
aa(lp5
I234378
aF72.1
aF116.296
aVp1
p6
aS'dejavusans'
p7
aS'#000000'
p8
aF18.0
aI1
aI01
aI00
aI00
aI00
aI00
aI00
aI00
aI00
aa(lp9
I234378
aF127.108
aF116.296
aVp1
p10
aS'dejavusans'
p11
aS'#000000'
p12
aF18.0
aI1
aI01
aI00
aI00
aI00
aI00
aI00
aI00
aI00
aa(lp13
I27780
aF72.1
aF148.664
aVp1
p14
aS'dejavusans'
p15
aS'#000000'
p16
aF12.0
aI0
aI01
aI01
aI00
aI00
aI00
aI00
aI00
aI00
aa(lp17
I234378
aF79.646
aF148.664
ag14
aS'dejavusans'
p18
aS'#000000'
p19
aF12.0
aI0
aI00
aI00
aI01
aI01
aI01
aI00
aI00
aI00
aa(lp20
I234378
aF99.284
aF148.664
ag14
aS'dejavusans'
p21
aS'#000000'
p22
aF12.0
aI0
aI00
aI00
aI00
aI00
aI00
aI00
aI00
aI00
aa(lp23
I234378
aF115.18
aF148.664
aVp1
p24
aS'dejavusans'
p25
aS'#000000'
p26
aF12.0
aI0
aI01
aI00
aI00
aI00
aI00
aI00
aI00
aI00
aa(lp27
I234378
aF165.454
aF148.664
ag24
aS'dejavusans'
p28
aS'#000000'
p29
aF12.0
aI0
aI00
aI00
aI00
aI00
aI00
aI00
aI00
aI00
aa(lp30
I234378
aF174.844
aF148.664
aVp1
p31
aS'dejavusans'
p32
aS'#000000'
p33
aF12.0
aI0
aI01
aI00
aI00
aI00
aI00
aI00
aI00
aI00
aa(lp34
I234378
aF227.008
aF148.664
aVp1
p35
aS'dejavusans'
p36
aS'#000000'
p37
aF12.0
aI0
aI01
aI00
aI00
aI00
aI00
aI00
aI00
aI00
aa(lp38
I234378
aF254.238
aF148.664
ag35
aS'dejavusans'
p39
aS'#000000'
p40
aF12.0
aI0
aI00
aI00
aI00
aI00
aI00
aI00
aI00
aI00
aa(lp41
I108443
aF483.52
aF148.664
aVp1
p42
aS'dejavusans'
p43
aS'#000000'
p44
aF12.0
aI0
aI01
aI00
aI00
aI00
aI00
aI00
aI00
aI00
aa(lp45
I234378
aF520.6411428571429
aF148.664
ag42
aS'dejavusans'
p46
aS'#000000'
p47
aF12.0
aI0
aI00
aI00
aI00
aI00
aI00
aI00
aI00
aI00
aa(lp48
I234378
aF80.296
aF162.664
aVp1
p49
aS'dejavusans'
p50
aS'#000000'
p51
aF12.0
aI0
aI00
aI00
aI01
aI01
aI01
aI00
aI00
aI00
aa(lp52
I234378
aF109.384
aF162.664
aVp1
p53
aS'dejavusans'
p54
aS'#000000'
p55
aF12.0
aI0
aI00
aI00
aI01
aI01
aI01
aI00
aI00
aI00
aa(lp56
I234378
aF193.336
aF162.664
aVp1
p57
aS'dejavusans'
p58
aS'#000000'
p59
aF12.0
aI0
aI01
aI00
aI00
aI00
aI00
aI00
aI00
aI00
aa(lp60
I234378
aF234.916
aF162.664
aVp1
p61
aS'dejavusans'
p62
aS'#000000'
p63
aF12.0
aI0
aI00
aI00
aI01
aI01
aI01
aI00
aI00
aI00
aa(lp64
I64620
aF72.1
aF176.664
aVp1
p65
aS'dejavusans'
p66
aS'#000000'
p67
aF12.0
aI0
aI01
aI01
aI00
aI00
aI00
aI00
aI00
aI00
aa(lp68
I169404
aF79.04171428571428
aF176.664
ag65
aS'dejavusans'
p69
aS'#000000'
p70
aF12.0
aI0
aI00
aI00
aI00
aI00
aI00
aI00
aI00
aI00
aa(lp71
I234378
aF102.80857142857141
aF176.664
ag65
aS'dejavusans'
p72
aS'#000000'
p73
aF12.0
aI0
aI00
aI00
aI00
aI00
aI00
aI00
aI00
aI00
aa(lp74
I234378
aF117.6
aF176.664
aVp1
p75
aS'dejavusans'
p76
aS'#0000ff'
p77
aF12.0
aI0
aI00
aI00
aI00
aI00
aI00
aI01
aI00
aI00
aa(lp78
I60220
aF72.1
aF214.464
aVp1
p79
aS'dejavusans'
p80
aS'#000000'
p81
aF12.0
aI1
aI01
aI00
aI00
aI00
aI00
aI00
aI00
aI00
aa(lp82
I23021
aF150.952
aF214.464
aVp1
p83
aS'dejavusans'
p84
aS'#000000'
p85
aF12.0
aI1
aI01
aI00
aI00
aI00
aI00
aI00
aI00
aI00
aa(lp86
I234378
aF211.03300000000002
aF214.464
ag83
aS'dejavusans'
p87
aS'#000000'
p88
aF12.0
aI1
aI00
aI00
aI00
aI00
aI00
aI00
aI00
aI00
aa(lp89
I234378
aF108.1
aF246.264
aVp1
p90
aS'dejavusans'
p91
aS'#000000'
p92
aF12.0
aI0
aI00
aI00
aI01
aI01
aI00
aI00
aI00
aI00
aa(lp93
I234378
aF114.472
aF246.264
ag90
aS'dejavusans'
p94
aS'#000000'
p95
aF12.0
aI0
aI00
aI00
aI00
aI00
aI00
aI00
aI00
aI00
aa(lp96
I234378
aF120.844
aF246.264
ag90
aS'dejavusans'
p97
aS'#000000'
p98
aF12.0
aI0
aI00
aI00
aI01
aI01
aI00
aI00
aI00
aI00
aa(lp99
I234378
aF138.964
aF246.264
aVp1
p100
aS'dejavusans'
p101
aS'#000000'
p102
aF12.0
aI0
aI01
aI00
aI00
aI00
aI00
aI00
aI00
aI00
aa(lp103
I144489
aF182.32
aF246.264
aVp1
p104
aS'dejavusans'
p105
aS'#000000'
p106
aF12.0
aI0
aI00
aI00
aI00
aI00
aI00
aI00
aI00
aI00
aa(lp107
I111522
aF205.588
aF246.264
aVp1
p108
aS'dejavusans'
p109
aS'#000000'
p110
aF12.0
aI0
aI00
aI00
aI00
aI00
aI00
aI00
aI00
aI00
aa(lp111
I85218
aF275.332
aF246.264
aVp1
p112
aS'dejavusans'
p113
aS'#000000'
p114
aF12.0
aI0
aI00
aI00
aI00
aI00
aI00
aI00
aI00
aI00
aa(lp115
I208633
aF309.7
aF246.264
aVp1
p116
aS'dejavusans'
p117
aS'#000000'
p118
aF12.0
aI0
aI00
aI00
aI00
aI00
aI00
aI00
aI00
aI00
aa(lp119
I234378
aF383.812
aF246.264
aVp1
p120
aS'dejavusans'
p121
aS'#000000'
p122
aF12.0
aI0
aI00
aI00
aI00
aI00
aI00
aI00
aI00
aI00
aa(lp123
I144483
aF419.717
aF246.264
ag120
aS'dejavusans'
p124
aS'#000000'
p125
aF12.0
aI0
aI00
aI00
aI00
aI00
aI00
aI00
aI00
aI00
aa(lp126
I68032
aF451.444
aF246.264
aVp1
p127
aS'dejavusans'
p128
aS'#000000'
p129
aF12.0
aI0
aI00
aI00
aI00
aI00
aI00
aI00
aI00
aI00
aa(lp130
I60220
aF108.1
aF261.164
aVp1
p131
aS'dejavusans'
p132
aS'#000000'
p133
aF12.0
aI0
aI00
aI00
aI00
aI00
aI00
aI00
aI00
aI00
aa(lp134
I135639
aF188.128
aF261.164
aVp1
p135
aS'dejavusans'
p136
aS'#000000'
p137
aF12.0
aI0
aI00
aI00
aI00
aI00
aI00
aI00
aI00
aI00
aa(lp138
I84662
aF212.7
aF261.164
aVp1
p139
aS'dejavusans'
p140
aS'#000000'
p141
aF12.0
aI1
aI01
aI00
aI00
aI00
aI00
aI00
aI00
aI00
aa(lp142
I21716
aF257.748
aF261.164
aVp1
p143
aS'dejavusans'
p144
aS'#000000'
p145
aF12.0
aI1
aI01
aI00
aI00
aI00
aI00
aI00
aI00
aI00
aa(lp146
I234378
aF284.0904
aF261.164
ag143
aS'dejavusans'
p147
aS'#000000'
p148
aF12.0
aI1
aI00
aI00
aI00
aI00
aI00
aI00
aI00
aI00
aa(lp149
I234378
aF304.608
aF261.164
aVp1
p150
aS'dejavusans'
p151
aS'#000000'
p152
aF12.0
aI1
aI01
aI00
aI00
aI00
aI00
aI00
aI00
aI00
aa(lp153
I115769
aF392.856
aF261.164
aVp1
p154
aS'dejavusans'
p155
aS'#000000'
p156
aF12.0
aI1
aI00
aI00
aI00
aI00
aI00
aI00
aI00
aI00
aa(lp157
I234378
aF462.6132
aF261.164
ag154
aS'dejavusans'
p158
aS'#000000'
p159
aF12.0
aI1
aI00
aI00
aI00
aI00
aI00
aI00
aI00
aI00
aa(lp160
I144690
aF484.392
aF261.164
aVp1
p161
aS'dejavusans'
p162
aS'#000000'
p163
aF12.0
aI1
aI01
aI00
aI00
aI00
aI00
aI00
aI00
aI00
aa(lp164
I234378
aF108.1
aF275.164
aVp1
p165
aS'dejavusans'
p166
aS'#000000'
p167
aF12.0
aI1
aI01
aI00
aI00
aI00
aI00
aI00
aI00
aI00
aa(lp168
I234378
aF163.492
aF275.164
ag165
aS'dejavusans'
p169
aS'#000000'
p170
aF12.0
aI1
aI00
aI00
aI00
aI00
aI00
aI00
aI00
aI00
aa(lp171
I21716
aF196.9
aF275.164
aVp1
p172
aS'dejavusans'
p173
aS'#000000'
p174
aF12.0
aI1
aI01
aI01
aI00
aI00
aI00
aI00
aI00
aI00
aa(lp175
I234378
aF225.45466666666667
aF275.164
ag172
aS'dejavusans'
p176
aS'#000000'
p177
aF12.0
aI1
aI00
aI00
aI00
aI00
aI00
aI00
aI00
aI00
aa(lp178
I234378
aF232.59333333333333
aF275.164
ag172
aS'dejavusans'
p179
aS'#000000'
p180
aF12.0
aI1
aI01
aI01
aI01
aI00
aI00
aI00
aI00
aI00
aa(lp181
I234378
aF274.732
aF275.164
aVp1
p182
aS'dejavusans'
p183
aS'#000000'
p184
aF12.0
aI1
aI00
aI00
aI00
aI00
aI00
aI00
aI00
aI00
aa(lp185
I234378
aF281.78400000000005
aF275.164
ag182
aS'dejavusans'
p186
aS'#000000'
p187
aF12.0
aI1
aI01
aI01
aI00
aI00
aI00
aI00
aI00
aI00
aa(lp188
I234378
aF309.9920000000001
aF275.164
ag182
aS'dejavusans'
p189
aS'#000000'
p190
aF12.0
aI1
aI00
aI00
aI00
aI00
aI00
aI00
aI00
aI00
aa(lp191
I234378
aF330.676
aF275.164
aVp1
p192
aS'dejavusans'
p193
aS'#000000'
p194
aF12.0
aI1
aI01
aI01
aI00
aI00
aI00
aI00
aI00
aI00
aa(lp195
I234378
aF348.784
aF275.164
ag192
aS'dejavusans'
p196
aS'#000000'
p197
aF12.0
aI1
aI00
aI00
aI00
aI00
aI00
aI00
aI00
aI00
aa(lp198
I234378
aF368.452
aF275.164
aVp1
p199
aS'dejavusans'
p200
aS'#000000'
p201
aF12.0
aI1
aI01
aI00
aI00
aI00
aI00
aI00
aI00
aI00
aa(lp202
I234378
aF420.9448
aF275.164
ag199
aS'dejavusans'
p203
aS'#000000'
p204
aF12.0
aI1
aI00
aI00
aI00
aI00
aI00
aI00
aI00
aI00
aa(lp205
I234378
aF427.5064
aF275.164
ag199
aS'dejavusans'
p206
aS'#000000'
p207
aF12.0
aI1
aI00
aI00
aI00
aI00
aI00
aI00
aI00
aI00
aa(lp208
I148996
aF447.7
aF275.164
aVp1
p209
aS'dejavusans'
p210
aS'#000000'
p211
aF12.0
aI1
aI01
aI00
aI00
aI00
aI00
aI00
aI00
aI00
aa(lp212
I85218
aF505.684
aF275.164
aVp1
p213
aS'dejavusans'
p214
aS'#000000'
p215
aF12.0
aI1
aI00
aI00
aI00
aI00
aI00
aI00
aI00
aI00
aa(lp216
I176767
aF108.1
aF289.164
aVp1
p217
aS'dejavusans'
p218
aS'#000000'
p219
aF12.0
aI1
aI01
aI00
aI00
aI00
aI00
aI00
aI00
aI00
aa(lp220
I234378
aF179.56
aF289.164
aVp1
p221
aS'dejavusans'
p222
aS'#000000'
p223
aF12.0
aI1
aI00
aI00
aI00
aI00
aI00
aI00
aI00
aI00
aa(lp224
I234378
aF256.5672727272727
aF289.164
ag221
aS'dejavusans'
p225
aS'#000000'
p226
aF12.0
aI1
aI00
aI00
aI00
aI00
aI00
aI00
aI00
aI00
aa(lp227
I234378
aF268.492
aF289.164
aVp1
p228
aS'dejavusans'
p229
aS'#000000'
p230
aF12.0
aI1
aI01
aI00
aI00
aI00
aI00
aI00
aI00
aI00
aa(lp231
I234378
aF299.422
aF289.164
ag228
aS'dejavusans'
p232
aS'#000000'
p233
aF12.0
aI1
aI00
aI00
aI00
aI00
aI00
aI00
aI00
aI00
aa(lp234
I234378
aF309.748
aF289.164
aVp1
p235
aS'dejavusans'
p236
aS'#000000'
p237
aF12.0
aI1
aI01
aI00
aI00
aI00
aI00
aI00
aI00
aI00
aa(lp238
I234378
aF360.421
aF289.164
ag235
aS'dejavusans'
p239
aS'#000000'
p240
aF12.0
aI1
aI00
aI00
aI00
aI00
aI00
aI00
aI00
aI00
aa(lp241
I234378
aF371.8
aF289.164
aVp1
p242
aS'dejavusans'
p243
aS'#000000'
p244
aF12.0
aI1
aI01
aI00
aI00
aI00
aI00
aI00
aI00
aI00
aa(lp245
I234378
aF412.66
aF289.164
ag242
aS'dejavusans'
p246
aS'#000000'
p247
aF12.0
aI1
aI00
aI00
aI00
aI00
aI00
aI00
aI00
aI00
aa(lp248
I228990
aF108.1
aF303.164
aVp1
p249
aS'dejavusans'
p250
aS'#000000'
p251
aF12.0
aI0
aI01
aI00
aI00
aI00
aI00
aI00
aI00
aI00
aa(lp252
I127763
aF150.652
aF303.164
aVp1
p253
aS'dejavusans'
p254
aS'#000000'
p255
aF12.0
aI0
aI00
aI00
aI00
aI00
aI00
aI00
aI00
aI00
aa(lp256
I144489
aF226.6
aF303.164
aVp1
p257
aS'dejavusans'
p258
aS'#000000'
p259
aF12.0
aI0
aI00
aI00
aI00
aI00
aI00
aI00
aI00
aI00
aa(lp260
I234378
aF249.3
aF303.164
aVp1
p261
aS'dejavusans'
p262
aS'#000000'
p263
aF12.0
aI1
aI01
aI00
aI00
aI00
aI00
aI00
aI00
aI00
aa(lp264
I85218
aF360.984
aF303.164
aVp1
p265
aS'dejavusans'
p266
aS'#000000'
p267
aF12.0
aI0
aI00
aI00
aI00
aI00
aI00
aI00
aI00
aI00
aa(lp268
I132957
aF394.6
aF303.164
aVp1
p269
aS'dejavusans'
p270
aS'#000000'
p271
aF12.0
aI1
aI01
aI00
aI00
aI00
aI00
aI00
aI00
aI00
aa(lp272
I234378
aF437.752
aF303.164
aVp1
p273
aS'dejavusans'
p274
aS'#000000'
p275
aF12.0
aI1
aI01
aI00
aI00
aI00
aI00
aI00
aI00
aI00
aa(lp276
I234378
aF108.1
aF318.064
aVp1
p277
aS'dejavusans'
p278
aS'#000000'
p279
aF12.0
aI1
aI01
aI00
aI00
aI00
aI00
aI00
aI00
aI00
aa(lp280
I234378
aF179.01272727272726
aF318.064
ag277
aS'dejavusans'
p281
aS'#000000'
p282
aF12.0
aI1
aI00
aI00
aI00
aI00
aI00
aI00
aI00
aI00
aa(lp283
I163337
aF108.1
aF332.064
aVp1
p284
aS'dejavusans'
p285
aS'#000000'
p286
aF12.0
aI0
aI01
aI00
aI00
aI00
aI00
aI00
aI00
aI00
aa(lp287
I145512
aF175.324
aF332.064
aVp1
p288
aS'dejavusans'
p289
aS'#000000'
p290
aF12.0
aI0
aI00
aI00
aI00
aI00
aI00
aI00
aI00
aI00
aa(lp291
I169745
aF251.26
aF332.064
aVp1
p292
aS'dejavusans'
p293
aS'#000000'
p294
aF12.0
aI0
aI00
aI00
aI00
aI00
aI00
aI00
aI00
aI00
aa(lp295
I234378
aF288.8
aF332.064
aVp1
p296
aS'dejavusans'
p297
aS'#000000'
p298
aF12.0
aI1
aI01
aI00
aI00
aI00
aI00
aI00
aI00
aI00
aa(lp299
I234378
aF382.736
aF332.064
aVp1
p300
aS'dejavusans'
p301
aS'#000000'
p302
aF12.0
aI1
aI01
aI00
aI00
aI00
aI00
aI00
aI00
aI00
aa(lp303
I83140
aF482.276
aF332.064
aVp1
p304
aS'dejavusans'
p305
aS'#000000'
p306
aF12.0
aI1
aI01
aI00
aI00
aI00
aI00
aI00
aI00
aI00
aa(lp307
I40036
aF108.1
aF346.964
aVp1
p308
aS'dejavusans'
p309
aS'#000000'
p310
aF12.0
aI1
aI01
aI00
aI00
aI00
aI00
aI00
aI00
aI00
aa(lp311
I16331
aF162.804
aF346.964
aVp1
p312
aS'dejavusans'
p313
aS'#000000'
p314
aF12.0
aI0
aI00
aI00
aI00
aI00
aI00
aI00
aI00
aI00
aa(lp315
I166593
aF180.192
aF346.964
aVp1
p316
aS'dejavusans'
p317
aS'#000000'
p318
aF12.0
aI0
aI00
aI00
aI00
aI00
aI00
aI00
aI00
aI00
aa(lp319
I234378
aF191.4
aF346.964
aVp1
p320
aS'dejavusans'
p321
aS'#000000'
p322
aF12.0
aI1
aI01
aI00
aI00
aI00
aI00
aI00
aI00
aI00
aa(lp323
I132100
aF256.56
aF346.964
aVp1
p324
aS'dejavusans'
p325
aS'#000000'
p326
aF12.0
aI1
aI01
aI00
aI00
aI00
aI00
aI00
aI00
aI00
aa(lp327
I135639
aF321.0
aF346.964
aVp1
p328
aS'dejavusans'
p329
aS'#000000'
p330
aF12.0
aI0
aI00
aI00
aI00
aI00
aI00
aI00
aI00
aI00
aa(lp331
I234378
aF335.7
aF346.964
aVp1
p332
aS'dejavusans'
p333
aS'#000000'
p334
aF12.0
aI0
aI01
aI00
aI00
aI00
aI00
aI00
aI00
aI00
aa(lp335
I234378
aF393.8904
aF346.964
ag332
aS'dejavusans'
p336
aS'#000000'
p337
aF12.0
aI0
aI00
aI00
aI00
aI00
aI00
aI00
aI00
aI00
aa(lp338
I16329
aF108.1
aF360.964
aVp1
p339
aS'dejavusans'
p340
aS'#000000'
p341
aF12.0
aI0
aI01
aI00
aI00
aI00
aI00
aI00
aI00
aI00
aa(lp342
I59292
aF129.172
aF360.964
aVp1
p343
aS'dejavusans'
p344
aS'#000000'
p345
aF12.0
aI0
aI00
aI00
aI00
aI00
aI00
aI00
aI00
aI00
aa(lp346
I165938
aF217.072
aF360.964
aVp1
p347
aS'dejavusans'
p348
aS'#000000'
p349
aF12.0
aI0
aI00
aI00
aI00
aI00
aI00
aI00
aI00
aI00
aa(lp350
I135639
aF294.988
aF360.964
aVp1
p351
aS'dejavusans'
p352
aS'#000000'
p353
aF12.0
aI0
aI00
aI00
aI00
aI00
aI00
aI00
aI00
aI00
aa(lp354
I41890
aF311.164
aF360.964
aVp1
p355
aS'dejavusans'
p356
aS'#000000'
p357
aF12.0
aI0
aI00
aI00
aI00
aI00
aI00
aI00
aI00
aI00
aa(lp358
I113201
aF330.424
aF360.964
aVp1
p359
aS'dejavusans'
p360
aS'#000000'
p361
aF12.0
aI0
aI00
aI00
aI00
aI00
aI00
aI00
aI00
aI00
aa(lp362
I144489
aF378.064
aF360.964
aVp1
p363
aS'dejavusans'
p364
aS'#000000'
p365
aF12.0
aI0
aI00
aI00
aI00
aI00
aI00
aI00
aI00
aI00
aa(lp366
I234378
aF394.84
aF360.964
aVp1
p367
aS'dejavusans'
p368
aS'#000000'
p369
aF12.0
aI0
aI00
aI00
aI00
aI00
aI00
aI00
aI00
aI00
aa(lp370
I68032
aF451.588
aF360.964
aVp1
p371
aS'dejavusans'
p372
aS'#000000'
p373
aF12.0
aI0
aI00
aI00
aI00
aI00
aI00
aI00
aI00
aI00
aa(lp374
I197030
aF108.1
aF375.864
aVp1
p375
aS'dejavusans'
p376
aS'#000000'
p377
aF12.0
aI0
aI00
aI00
aI00
aI00
aI00
aI00
aI00
aI00
aa(lp378
I234378
aF112.675
aF375.864
ag375
aS'dejavusans'
p379
aS'#000000'
p380
aF12.0
aI0
aI00
aI00
aI00
aI00
aI00
aI00
aI00
aI00
aa(lp381
I64620
aF117.25
aF375.864
ag375
aS'dejavusans'
p382
aS'#000000'
p383
aF12.0
aI0
aI00
aI00
aI00
aI00
aI00
aI00
aI00
aI00
aa(lp384
I234378
aF119.825
aF375.864
ag375
aS'dejavusans'
p385
aS'#000000'
p386
aF12.0
aI0
aI00
aI00
aI00
aI00
aI00
aI00
aI00
aI00
aa(lp387
I117435
aF130.288
aF375.864
aVp1
p388
aS'dejavusans'
p389
aS'#000000'
p390
aF12.0
aI0
aI00
aI00
aI00
aI00
aI00
aI00
aI00
aI00
aa(lp391
I234378
aF186.1456
aF375.864
ag388
aS'dejavusans'
p392
aS'#000000'
p393
aF12.0
aI0
aI00
aI00
aI00
aI00
aI00
aI00
aI00
aI00
aa(lp394
I234378
aF196.24
aF375.864
aVp1
p395
aS'dejavusans'
p396
aS'#000000'
p397
aF12.0
aI0
aI00
aI00
aI00
aI00
aI00
aI00
aI00
aI00
aa(lp398
I234378
aF233.84457142857144
aF375.864
ag395
aS'dejavusans'
p399
aS'#000000'
p400
aF12.0
aI0
aI00
aI00
aI00
aI00
aI00
aI00
aI00
aI00
aa(lp401
I125078
aF243.916
aF375.864
aVp1
p402
aS'dejavusans'
p403
aS'#000000'
p404
aF12.0
aI0
aI00
aI00
aI00
aI00
aI00
aI00
aI00
aI00
aa(lp405
I234378
aF283.627
aF375.864
ag402
aS'dejavusans'
p406
aS'#000000'
p407
aF12.0
aI0
aI00
aI00
aI00
aI00
aI00
aI00
aI00
aI00
aa(lp408
I83126
aF293.188
aF375.864
aVp1
p409
aS'dejavusans'
p410
aS'#000000'
p411
aF12.0
aI0
aI00
aI00
aI00
aI00
aI00
aI00
aI00
aI00
aa(lp412
I234378
aF385.3528
aF375.864
ag409
aS'dejavusans'
p413
aS'#000000'
p414
aF12.0
aI0
aI00
aI00
aI00
aI00
aI00
aI00
aI00
aI00
aa(lp415
I195671
aF395.824
aF375.864
aVp1
p416
aS'dejavusans'
p417
aS'#000000'
p418
aF12.0
aI0
aI00
aI00
aI00
aI00
aI00
aI00
aI00
aI00
aa(lp419
I234378
aF483.6965714285715
aF375.864
ag416
aS'dejavusans'
p420
aS'#000000'
p421
aF12.0
aI0
aI00
aI00
aI00
aI00
aI00
aI00
aI00
aI00
aa(lp422
I224530
aF108.1
aF389.864
aVp1
p423
aS'dejavusans'
p424
aS'#000000'
p425
aF12.0
aI0
aI01
aI00
aI00
aI00
aI00
aI00
aI00
aI00
aa(lp426
I184566
aF184.432
aF389.864
aVp1
p427
aS'dejavusans'
p428
aS'#000000'
p429
aF12.0
aI0
aI00
aI00
aI00
aI00
aI00
aI00
aI00
aI00
aa(lp430
I135639
aF229.576
aF389.864
aVp1
p431
aS'dejavusans'
p432
aS'#000000'
p433
aF12.0
aI0
aI00
aI00
aI00
aI00
aI00
aI00
aI00
aI00
aa(lp434
I234378
aF247.552
aF389.864
aVp1
p435
aS'dejavusans'
p436
aS'#000000'
p437
aF12.0
aI0
aI00
aI00
aI00
aI00
aI00
aI00
aI00
aI00
aa(lp438
I234378
aF339.55449999999996
aF389.864
ag435
aS'dejavusans'
p439
aS'#000000'
p440
aF12.0
aI0
aI00
aI00
aI00
aI00
aI00
aI00
aI00
aI00
aa(lp441
I123583
aF352.756
aF389.864
aVp1
p442
aS'dejavusans'
p443
aS'#000000'
p444
aF12.0
aI0
aI00
aI00
aI00
aI00
aI00
aI00
aI00
aI00
aa(lp445
I212148
aF407.308
aF389.864
aVp1
p446
aS'dejavusans'
p447
aS'#000000'
p448
aF12.0
aI0
aI00
aI00
aI00
aI00
aI00
aI00
aI00
aI00
aa(lp449
I179107
aF449.464
aF389.864
aVp1
p450
aS'dejavusans'
p451
aS'#000000'
p452
aF12.0
aI0
aI00
aI00
aI00
aI00
aI00
aI00
aI00
aI00
aa(lp453
I85218
aF508.204
aF389.864
aVp1
p454
aS'dejavusans'
p455
aS'#000000'
p456
aF12.0
aI0
aI00
aI00
aI00
aI00
aI00
aI00
aI00
aI00
aa(lp457
I125458
aF108.1
aF404.764
aVp1
p458
aS'dejavusans'
p459
aS'#000000'
p460
aF12.0
aI0
aI00
aI00
aI00
aI00
aI00
aI00
aI00
aI00
aa(lp461
I169745
aF155.572
aF404.764
aVp1
p462
aS'dejavusans'
p463
aS'#000000'
p464
aF12.0
aI0
aI00
aI00
aI00
aI00
aI00
aI00
aI00
aI00
aa(lp465
I61237
aF184.78
aF404.764
aVp1
p466
aS'dejavusans'
p467
aS'#000000'
p468
aF12.0
aI0
aI00
aI00
aI00
aI00
aI00
aI00
aI00
aI00
aa(lp469
I149270
aF226.348
aF404.764
aVp1
p470
aS'dejavusans'
p471
aS'#000000'
p472
aF12.0
aI0
aI00
aI00
aI00
aI00
aI00
aI00
aI00
aI00
aa(lp473
I234378
aF284.608
aF404.764
aVp1
p474
aS'dejavusans'
p475
aS'#000000'
p476
aF12.0
aI0
aI00
aI00
aI00
aI00
aI00
aI00
aI00
aI00
aa(lp477
I234378
aF345.218
aF404.764
ag474
aS'dejavusans'
p478
aS'#000000'
p479
aF12.0
aI0
aI00
aI00
aI00
aI00
aI00
aI00
aI00
aI00
aa(lp480
I177828
aF108.1
aF418.764
aVp1
p481
aS'dejavusans'
p482
aS'#000000'
p483
aF12.0
aI0
aI01
aI00
aI00
aI00
aI00
aI00
aI00
aI00
aa(lp484
I234378
aF134.084
aF418.764
ag481
aS'dejavusans'
p485
aS'#000000'
p486
aF12.0
aI0
aI00
aI00
aI00
aI00
aI00
aI00
aI00
aI00
aa(lp487
I85218
aF199.912
aF418.764
aVp1
p488
aS'dejavusans'
p489
aS'#000000'
p490
aF12.0
aI0
aI00
aI00
aI00
aI00
aI00
aI00
aI00
aI00
aa(lp491
I75129
aF226.876
aF418.764
aVp1
p492
aS'dejavusans'
p493
aS'#000000'
p494
aF12.0
aI0
aI00
aI00
aI00
aI00
aI00
aI00
aI00
aI00
aa(lp495
I89480
aF300.712
aF418.764
aVp1
p496
aS'dejavusans'
p497
aS'#000000'
p498
aF12.0
aI0
aI00
aI00
aI00
aI00
aI00
aI00
aI00
aI00
aa(lp499
I101862
aF317.092
aF418.764
aVp1
p500
aS'dejavusans'
p501
aS'#000000'
p502
aF12.0
aI0
aI00
aI00
aI00
aI00
aI00
aI00
aI00
aI00
aa(lp503
I85218
aF339.856
aF418.764
aVp1
p504
aS'dejavusans'
p505
aS'#000000'
p506
aF12.0
aI0
aI00
aI00
aI00
aI00
aI00
aI00
aI00
aI00
aa(lp507
I158472
aF366.832
aF418.764
aVp1
p508
aS'dejavusans'
p509
aS'#000000'
p510
aF12.0
aI0
aI00
aI00
aI00
aI00
aI00
aI00
aI00
aI00
aa(lp511
I234378
aF417.976
aF418.764
aVp1
p512
aS'dejavusans'
p513
aS'#000000'
p514
aF12.0
aI0
aI00
aI00
aI00
aI00
aI00
aI00
aI00
aI00
aa(lp515
I234378
aF447.626
aF418.764
ag512
aS'dejavusans'
p516
aS'#000000'
p517
aF12.0
aI0
aI00
aI00
aI00
aI00
aI00
aI00
aI00
aI00
aa(lp518
I1109
aF458.032
aF418.764
aVp1
p519
aS'dejavusans'
p520
aS'#000000'
p521
aF12.0
aI0
aI00
aI00
aI00
aI00
aI00
aI00
aI00
aI00
aa(lp522
I41890
aF516.268
aF418.764
aVp1
p523
aS'dejavusans'
p524
aS'#000000'
p525
aF12.0
aI0
aI00
aI00
aI00
aI00
aI00
aI00
aI00
aI00
aa(lp526
I234378
aF108.1
aF433.664
aVp1
p527
aS'dejavusans'
p528
aS'#000000'
p529
aF12.0
aI0
aI00
aI00
aI00
aI00
aI00
aI00
aI00
aI00
aa(lp530
I184870
aF159.76
aF433.664
aVp1
p531
aS'dejavusans'
p532
aS'#000000'
p533
aF12.0
aI0
aI00
aI00
aI00
aI00
aI00
aI00
aI00
aI00
aa(lp534
I131941
aF210.736
aF433.664
aVp1
p535
aS'dejavusans'
p536
aS'#000000'
p537
aF12.0
aI0
aI00
aI00
aI00
aI00
aI00
aI00
aI00
aI00
aa(lp538
I199246
aF276.568
aF433.664
aVp1
p539
aS'dejavusans'
p540
aS'#000000'
p541
aF12.0
aI0
aI00
aI00
aI00
aI00
aI00
aI00
aI00
aI00
aa(lp542
I234378
aF340.888
aF433.664
ag539
aS'dejavusans'
p543
aS'#000000'
p544
aF12.0
aI0
aI00
aI00
aI00
aI00
aI00
aI00
aI00
aI00
aa(lp545
I128359
aF108.1
aF447.664
aVp1
p546
aS'dejavusans'
p547
aS'#000000'
p548
aF12.0
aI0
aI01
aI00
aI00
aI00
aI00
aI00
aI00
aI00
aa(lp549
I85993
aF166.744
aF447.664
aVp1
p550
aS'dejavusans'
p551
aS'#000000'
p552
aF12.0
aI0
aI00
aI00
aI00
aI00
aI00
aI00
aI00
aI00
aa(lp553
I85218
aF250.276
aF447.664
aVp1
p554
aS'dejavusans'
p555
aS'#000000'
p556
aF12.0
aI0
aI00
aI00
aI00
aI00
aI00
aI00
aI00
aI00
aa(lp557
I144509
aF276.652
aF447.664
aVp1
p558
aS'dejavusans'
p559
aS'#000000'
p560
aF12.0
aI0
aI00
aI00
aI00
aI00
aI00
aI00
aI00
aI00
aa(lp561
I234378
aF373.18
aF447.664
aVp1
p562
aS'dejavusans'
p563
aS'#000000'
p564
aF12.0
aI0
aI00
aI00
aI00
aI00
aI00
aI00
aI00
aI00
aa(lp565
I234378
aF401.62
aF447.664
ag562
aS'dejavusans'
p566
aS'#000000'
p567
aF12.0
aI0
aI00
aI00
aI00
aI00
aI00
aI00
aI00
aI00
aa(lp568
I75000
aF108.1
aF462.564
aVp1
p569
aS'dejavusans'
p570
aS'#000000'
p571
aF12.0
aI0
aI01
aI00
aI00
aI00
aI00
aI00
aI00
aI00
aa(lp572
I207153
aF153.976
aF462.564
aVp1
p573
aS'dejavusans'
p574
aS'#000000'
p575
aF12.0
aI0
aI00
aI00
aI00
aI00
aI00
aI00
aI00
aI00
aa(lp576
I89480
aF192.448
aF462.564
aVp1
p577
aS'dejavusans'
p578
aS'#000000'
p579
aF12.0
aI0
aI00
aI00
aI00
aI00
aI00
aI00
aI00
aI00
aa(lp580
I2028
aF208.336
aF462.564
aVp1
p581
aS'dejavusans'
p582
aS'#000000'
p583
aF12.0
aI0
aI00
aI00
aI00
aI00
aI00
aI00
aI00
aI00
aa(lp584
I80364
aF242.5
aF462.564
aVp1
p585
aS'dejavusans'
p586
aS'#000000'
p587
aF12.0
aI0
aI00
aI00
aI00
aI00
aI00
aI00
aI00
aI00
aa(lp588
I21716
aF271.096
aF462.564
aVp1
p589
aS'dejavusans'
p590
aS'#000000'
p591
aF12.0
aI0
aI01
aI00
aI00
aI00
aI00
aI00
aI00
aI00
aa(lp592
I234378
aF300.184
aF462.564
aVp1
p593
aS'dejavusans'
p594
aS'#000000'
p595
aF12.0
aI0
aI01
aI00
aI00
aI00
aI00
aI00
aI00
aI00
aa(lp596
I234378
aF374.8092307692308
aF462.564
ag593
aS'dejavusans'
p597
aS'#000000'
p598
aF12.0
aI0
aI00
aI00
aI00
aI00
aI00
aI00
aI00
aI00
aa(lp599
I54866
aF108.1
aF477.464
aVp1
p600
aS'dejavusans'
p601
aS'#000000'
p602
aF12.0
aI0
aI01
aI00
aI00
aI00
aI00
aI00
aI00
aI00
aa(lp603
I234378
aF150.256
aF477.464
aVp1
p604
aS'dejavusans'
p605
aS'#000000'
p606
aF12.0
aI0
aI00
aI00
aI01
aI01
aI00
aI00
aI00
aI00
aa(lp607
I91136
aF181.132
aF477.464
aVp1
p608
aS'dejavusans'
p609
aS'#000000'
p610
aF12.0
aI0
aI00
aI00
aI00
aI00
aI00
aI00
aI00
aI00
aa(lp611
I144489
aF221.08
aF477.464
aVp1
p612
aS'dejavusans'
p613
aS'#000000'
p614
aF12.0
aI0
aI00
aI00
aI00
aI00
aI00
aI00
aI00
aI00
aa(lp615
I63022
aF245.956
aF477.464
aVp1
p616
aS'dejavusans'
p617
aS'#000000'
p618
aF12.0
aI0
aI00
aI00
aI00
aI00
aI00
aI00
aI00
aI00
aa(lp619
I68032
aF305.308
aF477.464
aVp1
p620
aS'dejavusans'
p621
aS'#000000'
p622
aF12.0
aI0
aI00
aI00
aI00
aI00
aI00
aI00
aI00
aI00
aa(lp623
I60220
aF397.624
aF477.464
aVp1
p624
aS'dejavusans'
p625
aS'#000000'
p626
aF12.0
aI0
aI00
aI00
aI00
aI00
aI00
aI00
aI00
aI00
aa(lp627
I135639
aF477.352
aF477.464
aVp1
p628
aS'dejavusans'
p629
aS'#000000'
p630
aF12.0
aI0
aI00
aI00
aI00
aI00
aI00
aI00
aI00
aI00
aa(lp631
I51660
aF501.52
aF477.464
aVp1
p632
aS'dejavusans'
p633
aS'#000000'
p634
aF12.0
aI0
aI00
aI00
aI00
aI00
aI00
aI00
aI00
aI00
aa(lp635
I234378
aF108.1
aF492.364
aVp1
p636
aS'dejavusans'
p637
aS'#000000'
p638
aF12.0
aI0
aI00
aI00
aI00
aI00
aI00
aI00
aI00
aI00
aa(lp639
I234378
aF194.212
aF492.364
ag636
aS'dejavusans'
p640
aS'#000000'
p641
aF12.0
aI0
aI00
aI00
aI00
aI00
aI00
aI00
aI00
aI00
aa(lp642
I128359
aF108.1
aF506.364
aVp1
p643
aS'dejavusans'
p644
aS'#000000'
p645
aF12.0
aI0
aI01
aI00
aI00
aI00
aI00
aI00
aI00
aI00
aa(lp646
I111798
aF166.744
aF506.364
aVp1
p647
aS'dejavusans'
p648
aS'#000000'
p649
aF12.0
aI0
aI00
aI00
aI00
aI00
aI00
aI00
aI00
aI00
aa(lp650
I98566
aF257.68
aF506.364
aVp1
p651
aS'dejavusans'
p652
aS'#000000'
p653
aF12.0
aI0
aI00
aI00
aI00
aI00
aI00
aI00
aI00
aI00
aa(lp654
I51660
aF296.152
aF506.364
aVp1
p655
aS'dejavusans'
p656
aS'#000000'
p657
aF12.0
aI0
aI00
aI00
aI00
aI00
aI00
aI00
aI00
aI00
aa(lp658
I234378
aF328.936
aF506.364
aVp1
p659
aS'dejavusans'
p660
aS'#000000'
p661
aF12.0
aI0
aI00
aI00
aI00
aI00
aI00
aI00
aI00
aI00
aa(lp662
I234378
aF414.95885714285714
aF506.364
ag659
aS'dejavusans'
p663
aS'#000000'
p664
aF12.0
aI0
aI00
aI00
aI00
aI00
aI00
aI00
aI00
aI00
aa(lp665
I125458
aF108.1
aF521.264
aVp1
p666
aS'dejavusans'
p667
aS'#000000'
p668
aF12.0
aI0
aI01
aI00
aI00
aI00
aI00
aI00
aI00
aI00
aa(lp669
I144483
aF156.88
aF521.264
aVp1
p670
aS'dejavusans'
p671
aS'#000000'
p672
aF12.0
aI0
aI00
aI00
aI00
aI00
aI00
aI00
aI00
aI00
aa(lp673
I177449
aF175.66
aF521.264
aVp1
p674
aS'dejavusans'
p675
aS'#000000'
p676
aF12.0
aI0
aI00
aI00
aI00
aI00
aI00
aI00
aI00
aI00
aa(lp677
I89480
aF211.348
aF521.264
aVp1
p678
aS'dejavusans'
p679
aS'#000000'
p680
aF12.0
aI0
aI00
aI00
aI00
aI00
aI00
aI00
aI00
aI00
aa(lp681
I206505
aF227.248
aF521.264
aVp1
p682
aS'dejavusans'
p683
aS'#000000'
p684
aF12.0
aI0
aI00
aI00
aI00
aI00
aI00
aI00
aI00
aI00
aa(lp685
I112491
aF261.436
aF521.264
aVp1
p686
aS'dejavusans'
p687
aS'#000000'
p688
aF12.0
aI0
aI00
aI00
aI00
aI00
aI00
aI00
aI00
aI00
aa(lp689
I234378
aF296.2
aF521.264
aVp1
p690
aS'dejavusans'
p691
aS'#000000'
p692
aF12.0
aI0
aI00
aI00
aI00
aI00
aI00
aI00
aI00
aI00
aa(lp693
I234378
aF342.12
aF521.264
ag690
aS'dejavusans'
p694
aS'#000000'
p695
aF12.0
aI0
aI00
aI00
aI00
aI00
aI00
aI00
aI00
aI00
aa(lp696
I165938
aF72.1
aF561.764
aVp1
p697
aS'dejavusans'
p698
aS'#000000'
p699
aF12.0
aI1
aI01
aI00
aI00
aI00
aI00
aI00
aI00
aI00
aa(lp700
I167874
aF159.94
aF561.764
aVp1
p701
aS'dejavusans'
p702
aS'#000000'
p703
aF12.0
aI1
aI01
aI00
aI00
aI00
aI00
aI00
aI00
aI00
aa(lp704
I77936
aF209.104
aF561.764
aVp1
p705
aS'dejavusans'
p706
aS'#000000'
p707
aF12.0
aI1
aI01
aI00
aI00
aI00
aI00
aI00
aI00
aI00
aa(lp708
I234378
aF270.91240000000005
aF561.764
ag705
aS'dejavusans'
p709
aS'#000000'
p710
aF12.0
aI1
aI00
aI00
aI00
aI00
aI00
aI00
aI00
aI00
aa(lp711
I89480
aF72.1
aF594.764
aVp1
p712
aS'dejavusans'
p713
aS'#000000'
p714
aF12.0
aI0
aI01
aI00
aI00
aI00
aI00
aI00
aI00
aI00
aa(lp715
I18264
aF91.372
aF594.764
aVp1
p716
aS'dejavusans'
p717
aS'#000000'
p718
aF12.0
aI0
aI00
aI00
aI00
aI00
aI00
aI00
aI00
aI00
aa(lp719
I166593
aF137.908
aF594.764
aVp1
p720
aS'dejavusans'
p721
aS'#000000'
p722
aF12.0
aI0
aI00
aI00
aI00
aI00
aI00
aI00
aI00
aI00
aa(lp723
I230410
aF151.888
aF594.764
aVp1
p724
aS'dejavusans'
p725
aS'#000000'
p726
aF12.0
aI0
aI00
aI00
aI00
aI00
aI00
aI00
aI00
aI00
aa(lp727
I144489
aF206.032
aF594.764
aVp1
p728
aS'dejavusans'
p729
aS'#000000'
p730
aF12.0
aI0
aI00
aI00
aI00
aI00
aI00
aI00
aI00
aI00
aa(lp731
I149270
aF224.2
aF594.764
aVp1
p732
aS'dejavusans'
p733
aS'#000000'
p734
aF12.0
aI0
aI00
aI00
aI00
aI00
aI00
aI00
aI00
aI00
aa(lp735
I217975
aF285.328
aF594.764
aVp1
p736
aS'dejavusans'
p737
aS'#000000'
p738
aF12.0
aI0
aI00
aI00
aI00
aI00
aI00
aI00
aI00
aI00
aa(lp739
I169745
aF344.968
aF594.764
aVp1
p740
aS'dejavusans'
p741
aS'#000000'
p742
aF12.0
aI0
aI00
aI00
aI00
aI00
aI00
aI00
aI00
aI00
aa(lp743
I16329
aF377.056
aF594.764
aVp1
p744
aS'dejavusans'
p745
aS'#000000'
p746
aF12.0
aI0
aI00
aI00
aI00
aI00
aI00
aI00
aI00
aI00
aa(lp747
I229426
aF398.632
aF594.764
aVp1
p748
aS'dejavusans'
p749
aS'#000000'
p750
aF12.0
aI0
aI00
aI00
aI00
aI00
aI00
aI00
aI00
aI00
aa(lp751
I175989
aF479.848
aF594.764
aVp1
p752
aS'dejavusans'
p753
aS'#000000'
p754
aF12.0
aI0
aI00
aI00
aI00
aI00
aI00
aI00
aI00
aI00
aa(lp755
I113929
aF510.808
aF594.764
aVp1
p756
aS'dejavusans'
p757
aS'#000000'
p758
aF12.0
aI0
aI00
aI00
aI00
aI00
aI00
aI00
aI00
aI00
aa(lp759
I207511
aF72.1
aF608.764
aVp1
p760
aS'dejavusans'
p761
aS'#000000'
p762
aF12.0
aI0
aI00
aI00
aI00
aI00
aI00
aI00
aI00
aI00
aa(lp763
I219882
aF141.436
aF608.764
aVp1
p764
aS'dejavusans'
p765
aS'#000000'
p766
aF12.0
aI0
aI00
aI00
aI00
aI00
aI00
aI00
aI00
aI00
aa(lp767
I234378
aF171.4
aF608.764
aVp1
p768
aS'dejavusans'
p769
aS'#000000'
p770
aF12.0
aI0
aI00
aI00
aI00
aI00
aI00
aI00
aI00
aI00
aa(lp771
I234378
aF229.66
aF608.764
aVp1
p772
aS'dejavusans'
p773
aS'#000000'
p774
aF12.0
aI0
aI00
aI00
aI00
aI00
aI00
aI00
aI00
aI00
aa(lp775
I85218
aF308.896
aF608.764
aVp1
p776
aS'dejavusans'
p777
aS'#000000'
p778
aF12.0
aI0
aI00
aI00
aI00
aI00
aI00
aI00
aI00
aI00
aa(lp779
I146950
aF342.664
aF608.764
aVp1
p780
aS'dejavusans'
p781
aS'#000000'
p782
aF12.0
aI0
aI00
aI00
aI00
aI00
aI00
aI00
aI00
aI00
aa(lp783
I135639
aF418.696
aF608.764
aVp1
p784
aS'dejavusans'
p785
aS'#000000'
p786
aF12.0
aI0
aI00
aI00
aI00
aI00
aI00
aI00
aI00
aI00
aa(lp787
I219882
aF440.776
aF608.764
aVp1
p788
aS'dejavusans'
p789
aS'#000000'
p790
aF12.0
aI0
aI00
aI00
aI00
aI00
aI00
aI00
aI00
aI00
aa(lp791
I46422
aF470.644
aF608.764
aVp1
p792
aS'dejavusans'
p793
aS'#000000'
p794
aF12.0
aI0
aI00
aI00
aI00
aI00
aI00
aI00
aI00
aI00
aa(lp795
I68032
aF72.1
aF622.764
aVp1
p796
aS'dejavusans'
p797
aS'#000000'
p798
aF12.0
aI0
aI00
aI00
aI00
aI00
aI00
aI00
aI00
aI00
aa(lp799
I234378
aF148.132
aF622.764
ag796
aS'dejavusans'
p800
aS'#000000'
p801
aF12.0
aI0
aI00
aI00
aI00
aI00
aI00
aI00
aI00
aI00
aa(lp802
I149270
aF72.1
aF660.064
aVp1
p803
aS'dejavusans'
p804
aS'#000000'
p805
aF12.0
aI1
aI01
aI00
aI00
aI00
aI00
aI00
aI00
aI00
aa(lp806
I234378
aF138.664
aF660.064
aVp1
p807
aS'dejavusans'
p808
aS'#000000'
p809
aF12.0
aI1
aI01
aI00
aI00
aI00
aI00
aI00
aI00
aI00
aa(lp810
I234378
aF200.27799999999996
aF660.064
ag807
aS'dejavusans'
p811
aS'#000000'
p812
aF12.0
aI1
aI00
aI00
aI00
aI00
aI00
aI00
aI00
aI00
aa(lp813
I82213
aF120.9
aF687.664
aVp1
p814
aS'dejavusans'
p815
aS'#000000'
p816
aF12.0
aI0
aI01
aI00
aI00
aI00
aI00
aI00
aI00
aI00
aa(lp817
I207716
aF184.668
aF687.664
aVp1
p818
aS'dejavusans'
p819
aS'#000000'
p820
aF12.0
aI0
aI01
aI00
aI00
aI00
aI00
aI00
aI00
aI00
aa(lp821
I234378
aF256.4
aF687.664
aVp1
p822
aS'dejavusans'
p823
aS'#000000'
p824
aF12.0
aI0
aI00
aI00
aI00
aI00
aI00
aI00
aI00
aI00
aa(lp825
I234378
aF275.5
aF687.664
aVp1
p826
aS'dejavusans'
p827
aS'#000000'
p828
aF12.0
aI0
aI01
aI00
aI00
aI00
aI00
aI00
aI00
aI00
aa(lp829
I234378
aF305.56
aF687.664
ag826
aS'dejavusans'
p830
aS'#000000'
p831
aF12.0
aI0
aI00
aI00
aI00
aI00
aI00
aI00
aI00
aI00
aa(lp832
I234378
aF315.46
aF687.664
aVp1
p833
aS'dejavusans'
p834
aS'#000000'
p835
aF12.0
aI0
aI01
aI00
aI01
aI00
aI00
aI00
aI00
aI00
aa(lp836
I234378
aF120.9
aF701.864
aVp1
p837
aS'dejavusans'
p838
aS'#000000'
p839
aF12.0
aI0
aI01
aI00
aI00
aI00
aI00
aI00
aI00
aI00
aa(lp840
I234378
aF256.4
aF701.864
aVp1
p841
aS'dejavusans'
p842
aS'#000000'
p843
aF12.0
aI0
aI00
aI00
aI00
aI00
aI00
aI00
aI00
aI00
aa(lp844
I84662
aF275.5
aF701.864
aVp1
p845
aS'dejavusans'
p846
aS'#000000'
p847
aF12.0
aI0
aI01
aI00
aI00
aI00
aI00
aI00
aI00
aI00
aa(lp848
I21716
aF307.072
aF701.864
aVp1
p849
aS'dejavusans'
p850
aS'#000000'
p851
aF12.0
aI0
aI01
aI00
aI00
aI00
aI00
aI00
aI00
aI00
aa(lp852
I234378
aF330.4192
aF701.864
ag849
aS'dejavusans'
p853
aS'#000000'
p854
aF12.0
aI0
aI00
aI00
aI00
aI00
aI00
aI00
aI00
aI00
aa(lp855
I234378
aF340.06
aF701.864
aVp1
p856
aS'dejavusans'
p857
aS'#000000'
p858
aF12.0
aI0
aI01
aI00
aI00
aI00
aI00
aI00
aI00
aI00
aa(lp859
I234378
aF413.2
aF701.864
aVp1
p860
aS'dejavusans'
p861
aS'#000000'
p862
aF12.0
aI0
aI01
aI01
aI00
aI00
aI00
aI00
aI00
aI00
aa(lp863
I234378
aF430.291
aF701.864
ag860
aS'dejavusans'
p864
aS'#000000'
p865
aF12.0
aI0
aI00
aI00
aI00
aI00
aI00
aI00
aI00
aI00
aa(lp866
I21716
aF439.792
aF701.864
aVp1
p867
aS'dejavusans'
p868
aS'#000000'
p869
aF12.0
aI0
aI01
aI01
aI00
aI00
aI00
aI00
aI00
aI00
aa(lp870
I234378
aF465.0133333333333
aF701.864
ag867
aS'dejavusans'
p871
aS'#000000'
p872
aF12.0
aI0
aI00
aI00
aI00
aI00
aI00
aI00
aI00
aI00
aa(lp873
I234378
aF471.3186666666667
aF701.864
ag867
aS'dejavusans'
p874
aS'#000000'
p875
aF12.0
aI0
aI01
aI01
aI01
aI00
aI00
aI00
aI00
aI00
aa(lp876
I234378
aF120.9
aF72.064
aVp2
p877
aS'dejavusans'
p878
aS'#000000'
p879
aF12.0
aI0
aI01
aI00
aI00
aI00
aI00
aI00
aI00
aI00
aa(lp880
I234378
aF134.088
aF88.164
aVp2
p881
aS'dejavusans'
p882
aS'#000000'
p883
aF12.0
aI0
aI01
aI00
aI00
aI00
aI00
aI00
aI00
aI00
aa(lp884
I234378
aF275.5
aF72.064
aVp2
p885
aS'dejavusans'
p886
aS'#000000'
p887
aF12.0
aI0
aI00
aI00
aI00
aI00
aI00
aI00
aI00
aI00
aa(lp888
I234378
aF281.778
aF72.064
ag885
aS'dejavusans'
p889
aS'#000000'
p890
aF12.0
aI0
aI01
aI01
aI00
aI00
aI00
aI00
aI00
aI00
aa(lp891
I234378
aF306.89000000000004
aF72.064
ag885
aS'dejavusans'
p892
aS'#000000'
p893
aF12.0
aI0
aI00
aI00
aI00
aI00
aI00
aI00
aI00
aI00
aa(lp894
I234378
aF316.972
aF72.064
aVp2
p895
aS'dejavusans'
p896
aS'#000000'
p897
aF12.0
aI0
aI01
aI01
aI00
aI00
aI00
aI00
aI00
aI00
aa(lp898
I234378
aF333.62199999999996
aF72.064
ag895
aS'dejavusans'
p899
aS'#000000'
p900
aF12.0
aI0
aI00
aI00
aI00
aI00
aI00
aI00
aI00
aI00
aa(lp901
I234378
aF342.976
aF72.064
aVp2
p902
aS'dejavusans'
p903
aS'#000000'
p904
aF12.0
aI0
aI01
aI00
aI00
aI00
aI00
aI00
aI00
aI00
aa(lp905
I234378
aF388.7104
aF72.064
ag902
aS'dejavusans'
p906
aS'#000000'
p907
aF12.0
aI0
aI00
aI00
aI00
aI00
aI00
aI00
aI00
aI00
aa(lp908
I234378
aF394.42719999999997
aF72.064
ag902
aS'dejavusans'
p909
aS'#000000'
p910
aF12.0
aI0
aI00
aI00
aI00
aI00
aI00
aI00
aI00
aI00
aa(lp911
I89217
aF404.032
aF72.064
aVp2
p912
aS'dejavusans'
p913
aS'#000000'
p914
aF12.0
aI0
aI01
aI01
aI00
aI00
aI00
aI00
aI00
aI00
aa(lp915
I85218
aF438.7
aF72.064
aVp2
p916
aS'dejavusans'
p917
aS'#000000'
p918
aF12.0
aI0
aI00
aI00
aI00
aI00
aI00
aI00
aI00
aI00
aa(lp919
I106895
aF465.076
aF72.064
aVp2
p920
aS'dejavusans'
p921
aS'#000000'
p922
aF12.0
aI0
aI01
aI01
aI00
aI00
aI00
aI00
aI00
aI00
aa(lp923
I35885
aF275.5
aF88.164
aVp2
p924
aS'dejavusans'
p925
aS'#000000'
p926
aF12.0
aI0
aI00
aI00
aI00
aI00
aI00
aI00
aI00
aI00
aa(lp927
I17350
aF315.556
aF88.164
aVp2
p928
aS'dejavusans'
p929
aS'#000000'
p930
aF12.0
aI0
aI01
aI00
aI00
aI00
aI00
aI00
aI00
aI00
aa(lp931
I234378
aF345.448
aF88.164
aVp2
p932
aS'dejavusans'
p933
aS'#000000'
p934
aF12.0
aI0
aI01
aI00
aI00
aI00
aI00
aI00
aI00
aI00
aa(lp935
I234378
aF393.7573333333333
aF88.164
ag932
aS'dejavusans'
p936
aS'#000000'
p937
aF12.0
aI0
aI00
aI00
aI00
aI00
aI00
aI00
aI00
aI00
aa(lp938
I234378
aF403.684
aF88.164
aVp2
p939
aS'dejavusans'
p940
aS'#000000'
p941
aF12.0
aI0
aI00
aI00
aI01
aI00
aI00
aI00
aI00
aI00
aa(lp942
I234378
aF431.17400000000004
aF88.164
ag939
aS'dejavusans'
p943
aS'#000000'
p944
aF12.0
aI0
aI00
aI00
aI00
aI00
aI00
aI00
aI00
aI00
aa(lp945
I234378
aF440.56
aF88.164
aVp2
p946
aS'dejavusans'
p947
aS'#000000'
p948
aF12.0
aI0
aI01
aI01
aI00
aI00
aI00
aI00
aI00
aI00
aa(lp949
I234378
aF120.9
aF102.164
aVp2
p950
aS'dejavusans'
p951
aS'#000000'
p952
aF12.0
aI0
aI01
aI00
aI00
aI00
aI00
aI00
aI00
aI00
aa(lp953
I234378
aF256.4
aF102.164
aVp2
p954
aS'dejavusans'
p955
aS'#000000'
p956
aF12.0
aI0
aI00
aI00
aI00
aI00
aI00
aI00
aI00
aI00
aa(lp957
I234378
aF275.5
aF102.164
aVp2
p958
aS'dejavusans'
p959
aS'#000000'
p960
aF12.0
aI0
aI01
aI00
aI00
aI00
aI00
aI00
aI00
aI00
aa(lp961
I234378
aF320.464
aF102.164
aVp2
p962
aS'dejavusans'
p963
aS'#000000'
p964
aF12.0
aI0
aI00
aI00
aI01
aI01
aI00
aI00
aI00
aI00
aa(lp965
I234378
aF326.836
aF102.164
ag962
aS'dejavusans'
p966
aS'#000000'
p967
aF12.0
aI0
aI00
aI00
aI00
aI00
aI00
aI00
aI00
aI00
aa(lp968
I234378
aF333.208
aF102.164
ag962
aS'dejavusans'
p969
aS'#000000'
p970
aF12.0
aI0
aI00
aI00
aI01
aI01
aI00
aI00
aI00
aI00
aa(lp971
I139096
aF120.9
aF116.364
aVp2
p972
aS'dejavusans'
p973
aS'#000000'
p974
aF12.0
aI0
aI01
aI00
aI00
aI00
aI00
aI00
aI00
aI00
aa(lp975
I234378
aF169.08
aF116.364
aVp2
p976
aS'dejavusans'
p977
aS'#000000'
p978
aF12.0
aI0
aI01
aI00
aI00
aI00
aI00
aI00
aI00
aI00
aa(lp979
I234378
aF256.4
aF116.364
aVp2
p980
aS'dejavusans'
p981
aS'#000000'
p982
aF12.0
aI0
aI00
aI00
aI00
aI00
aI00
aI00
aI00
aI00
aa(lp983
I234378
aF275.5
aF116.364
aVp2
p984
aS'dejavusans'
p985
aS'#000000'
p986
aF12.0
aI0
aI01
aI01
aI00
aI00
aI00
aI00
aI00
aI00
aa(lp987
I234378
aF305.2408
aF116.364
ag984
aS'dejavusans'
p988
aS'#000000'
p989
aF12.0
aI0
aI00
aI00
aI00
aI00
aI00
aI00
aI00
aI00
aa(lp990
I234378
aF316.564
aF116.364
aVp2
p991
aS'dejavusans'
p992
aS'#000000'
p993
aF12.0
aI0
aI01
aI01
aI00
aI00
aI00
aI00
aI00
aI00
aa(lp994
I234378
aF337.03900000000004
aF116.364
ag991
aS'dejavusans'
p995
aS'#000000'
p996
aF12.0
aI0
aI00
aI00
aI00
aI00
aI00
aI00
aI00
aI00
aa(lp997
I234378
aF347.752
aF116.364
aVp2
p998
aS'dejavusans'
p999
aS'#000000'
p1000
aF12.0
aI0
aI01
aI01
aI00
aI00
aI00
aI00
aI00
aI00
aa(lp1001
I234378
aF369.487
aF116.364
ag998
aS'dejavusans'
p1002
aS'#000000'
p1003
aF12.0
aI0
aI00
aI00
aI00
aI00
aI00
aI00
aI00
aI00
aa(lp1004
I234378
aF380.62
aF116.364
aVp2
p1005
aS'dejavusans'
p1006
aS'#000000'
p1007
aF12.0
aI0
aI01
aI01
aI00
aI00
aI00
aI00
aI00
aI00
aa(lp1008
I234378
aF407.2504
aF116.364
ag1005
aS'dejavusans'
p1009
aS'#000000'
p1010
aF12.0
aI0
aI00
aI00
aI00
aI00
aI00
aI00
aI00
aI00
aa(lp1011
I21716
aF417.796
aF116.364
aVp2
p1012
aS'dejavusans'
p1013
aS'#000000'
p1014
aF12.0
aI0
aI01
aI00
aI00
aI00
aI00
aI00
aI00
aI00
aa(lp1015
I115862
aF446.884
aF116.364
aVp2
p1016
aS'dejavusans'
p1017
aS'#000000'
p1018
aF12.0
aI0
aI01
aI00
aI00
aI00
aI00
aI00
aI00
aI00
aa(lp1019
I234378
aF479.95257142857145
aF116.364
ag1016
aS'dejavusans'
p1020
aS'#000000'
p1021
aF12.0
aI0
aI00
aI00
aI00
aI00
aI00
aI00
aI00
aI00
aa(lp1022
I234378
aF275.5
aF132.464
aVp2
p1023
aS'dejavusans'
p1024
aS'#000000'
p1025
aF12.0
aI0
aI01
aI00
aI00
aI00
aI00
aI00
aI00
aI00
aa(lp1026
I234378
aF313.012
aF132.464
ag1023
aS'dejavusans'
p1027
aS'#000000'
p1028
aF12.0
aI0
aI00
aI00
aI00
aI00
aI00
aI00
aI00
aI00
aa(lp1029
I234378
aF323.152
aF132.464
aVp2
p1030
aS'dejavusans'
p1031
aS'#000000'
p1032
aF12.0
aI0
aI01
aI01
aI00
aI00
aI00
aI00
aI00
aI00
aa(lp1033
I123665
aF120.9
aF146.464
aVp2
p1034
aS'dejavusans'
p1035
aS'#000000'
p1036
aF12.0
aI0
aI01
aI00
aI00
aI00
aI00
aI00
aI00
aI00
aa(lp1037
I234378
aF192.13600000000002
aF146.464
ag1034
aS'dejavusans'
p1038
aS'#000000'
p1039
aF12.0
aI0
aI00
aI00
aI00
aI00
aI00
aI00
aI00
aI00
aa(lp1040
I17350
aF198.61200000000002
aF146.464
ag1034
aS'dejavusans'
p1041
aS'#000000'
p1042
aF12.0
aI0
aI01
aI00
aI00
aI00
aI00
aI00
aI00
aI00
aa(lp1043
I234378
aF120.9
aF162.864
aVp2
p1044
aS'dejavusans'
p1045
aS'#000000'
p1046
aF12.0
aI0
aI01
aI00
aI00
aI00
aI00
aI00
aI00
aI00
aa(lp1047
I234378
aF256.4
aF146.464
aVp2
p1048
aS'dejavusans'
p1049
aS'#000000'
p1050
aF12.0
aI0
aI00
aI00
aI00
aI00
aI00
aI00
aI00
aI00
aa(lp1051
I77592
aF275.5
aF146.464
aVp2
p1052
aS'dejavusans'
p1053
aS'#000000'
p1054
aF12.0
aI0
aI01
aI00
aI00
aI00
aI00
aI00
aI00
aI00
aa(lp1055
I110786
aF324.064
aF146.464
aVp2
p1056
aS'dejavusans'
p1057
aS'#000000'
p1058
aF12.0
aI0
aI01
aI00
aI00
aI00
aI00
aI00
aI00
aI00
aa(lp1059
I234378
aF370.84
aF146.464
aVp2
p1060
aS'dejavusans'
p1061
aS'#000000'
p1062
aF12.0
aI0
aI00
aI00
aI01
aI01
aI00
aI00
aI00
aI00
aa(lp1063
I234378
aF377.18399999999997
aF146.464
ag1060
aS'dejavusans'
p1064
aS'#000000'
p1065
aF12.0
aI0
aI00
aI00
aI00
aI00
aI00
aI00
aI00
aI00
aa(lp1066
I234378
aF383.52799999999996
aF146.464
ag1060
aS'dejavusans'
p1067
aS'#000000'
p1068
aF12.0
aI0
aI00
aI00
aI01
aI01
aI00
aI00
aI00
aI00
aa(lp1069
I68032
aF120.9
aF176.864
aVp2
p1070
aS'dejavusans'
p1071
aS'#000000'
p1072
aF12.0
aI0
aI01
aI00
aI00
aI00
aI00
aI00
aI00
aI00
aa(lp1073
I234378
aF205.44
aF176.864
aVp2
p1074
aS'dejavusans'
p1075
aS'#000000'
p1076
aF12.0
aI0
aI01
aI00
aI00
aI00
aI00
aI00
aI00
aI00
aa(lp1077
I234378
aF256.4
aF176.864
aVp2
p1078
aS'dejavusans'
p1079
aS'#000000'
p1080
aF12.0
aI0
aI00
aI00
aI00
aI00
aI00
aI00
aI00
aI00
aa(lp1081
I223319
aF275.5
aF176.864
aVp2
p1082
aS'dejavusans'
p1083
aS'#000000'
p1084
aF12.0
aI0
aI01
aI00
aI00
aI00
aI00
aI00
aI00
aI00
aa(lp1085
I234378
aF321.352
aF176.864
aVp2
p1086
aS'dejavusans'
p1087
aS'#000000'
p1088
aF12.0
aI0
aI00
aI00
aI00
aI00
aI00
aI00
aI00
aI00
aa(lp1089
I234378
aF327.14799999999997
aF176.864
ag1086
aS'dejavusans'
p1090
aS'#000000'
p1091
aF12.0
aI0
aI01
aI00
aI00
aI00
aI00
aI00
aI00
aI00
aa(lp1092
I234378
aF361.924
aF176.864
ag1086
aS'dejavusans'
p1093
aS'#000000'
p1094
aF12.0
aI0
aI00
aI00
aI00
aI00
aI00
aI00
aI00
aI00
aa(lp1095
I208154
aF371.608
aF176.864
aVp2
p1096
aS'dejavusans'
p1097
aS'#000000'
p1098
aF12.0
aI0
aI01
aI00
aI00
aI00
aI00
aI00
aI00
aI00
aa(lp1099
I234378
aF397.8352
aF176.864
ag1096
aS'dejavusans'
p1100
aS'#000000'
p1101
aF12.0
aI0
aI00
aI00
aI00
aI00
aI00
aI00
aI00
aI00
aa(lp1102
I52487
aF408.196
aF176.864
aVp2
p1103
aS'dejavusans'
p1104
aS'#000000'
p1105
aF12.0
aI0
aI01
aI00
aI00
aI00
aI00
aI00
aI00
aI00
aa(lp1106
I234378
aF440.872
aF176.864
aVp2
p1107
aS'dejavusans'
p1108
aS'#000000'
p1109
aF12.0
aI0
aI00
aI00
aI00
aI00
aI00
aI00
aI00
aI00
aa(lp1110
I234378
aF479.01733333333334
aF176.864
ag1107
aS'dejavusans'
p1111
aS'#000000'
p1112
aF12.0
aI0
aI00
aI00
aI00
aI00
aI00
aI00
aI00
aI00
aa(lp1113
I234378
aF484.4666666666667
aF176.864
ag1107
aS'dejavusans'
p1114
aS'#000000'
p1115
aF12.0
aI0
aI00
aI00
aI00
aI00
aI00
aI00
aI00
aI00
aa(lp1116
I166176
aF275.5
aF192.964
aVp2
p1117
aS'dejavusans'
p1118
aS'#000000'
p1119
aF12.0
aI0
aI01
aI00
aI00
aI00
aI00
aI00
aI00
aI00
aa(lp1120
I234378
aF346.036
aF192.964
aVp2
p1121
aS'dejavusans'
p1122
aS'#000000'
p1123
aF12.0
aI0
aI00
aI00
aI00
aI00
aI00
aI00
aI00
aI00
aa(lp1124
I234378
aF352.364
aF192.964
ag1121
aS'dejavusans'
p1125
aS'#000000'
p1126
aF12.0
aI0
aI01
aI01
aI00
aI00
aI00
aI00
aI00
aI00
aa(lp1127
I234378
aF371.34799999999996
aF192.964
ag1121
aS'dejavusans'
p1128
aS'#000000'
p1129
aF12.0
aI0
aI00
aI00
aI00
aI00
aI00
aI00
aI00
aI00
aa(lp1130
I234378
aF377.67599999999993
aF192.964
ag1121
aS'dejavusans'
p1131
aS'#000000'
p1132
aF12.0
aI0
aI00
aI00
aI00
aI00
aI00
aI00
aI00
aI00
aa(lp1133
I234378
aF387.808
aF192.964
aVp2
p1134
aS'dejavusans'
p1135
aS'#000000'
p1136
aF12.0
aI0
aI01
aI01
aI00
aI00
aI00
aI00
aI00
aI00
aa(lp1137
I234378
aF414.796
aF192.964
aVp2
p1138
aS'dejavusans'
p1139
aS'#000000'
p1140
aF12.0
aI0
aI00
aI00
aI00
aI00
aI00
aI00
aI00
aI00
aa(lp1141
I51660
aF420.53999999999996
aF192.964
ag1138
aS'dejavusans'
p1142
aS'#000000'
p1143
aF12.0
aI0
aI01
aI00
aI00
aI00
aI00
aI00
aI00
aI00
aa(lp1144
I35885
aF453.172
aF192.964
aVp2
p1145
aS'dejavusans'
p1146
aS'#000000'
p1147
aF12.0
aI0
aI00
aI00
aI00
aI00
aI00
aI00
aI00
aI00
aa(lp1148
I177958
aF275.5
aF209.064
aVp2
p1149
aS'dejavusans'
p1150
aS'#000000'
p1151
aF12.0
aI0
aI00
aI00
aI00
aI00
aI00
aI00
aI00
aI00
aa(lp1152
I153177
aF320.956
aF209.064
aVp2
p1153
aS'dejavusans'
p1154
aS'#000000'
p1155
aF12.0
aI0
aI00
aI00
aI00
aI00
aI00
aI00
aI00
aI00
aa(lp1156
I156028
aF405.112
aF209.064
aVp2
p1157
aS'dejavusans'
p1158
aS'#000000'
p1159
aF12.0
aI0
aI00
aI00
aI00
aI00
aI00
aI00
aI00
aI00
aa(lp1160
I234378
aF427.00960000000003
aF209.064
ag1157
aS'dejavusans'
p1161
aS'#000000'
p1162
aF12.0
aI0
aI00
aI00
aI00
aI00
aI00
aI00
aI00
aI00
aa(lp1163
I234378
aF436.3
aF209.064
aVp2
p1164
aS'dejavusans'
p1165
aS'#000000'
p1166
aF12.0
aI0
aI00
aI00
aI00
aI00
aI00
aI00
aI00
aI00
aa(lp1167
I234378
aF443.992
aF209.064
aVp2
p1168
aS'dejavusans'
p1169
aS'#000000'
p1170
aF12.0
aI0
aI01
aI00
aI00
aI00
aI00
aI00
aI00
aI00
aa(lp1171
I234378
aF275.5
aF225.164
aVp2
p1172
aS'dejavusans'
p1173
aS'#000000'
p1174
aF12.0
aI0
aI00
aI00
aI00
aI00
aI00
aI00
aI00
aI00
aa(lp1175
I177958
aF281.209
aF225.164
ag1172
aS'dejavusans'
p1176
aS'#000000'
p1177
aF12.0
aI0
aI01
aI00
aI00
aI00
aI00
aI00
aI00
aI00
aa(lp1178
I49053
aF325.06
aF225.164
aVp2
p1179
aS'dejavusans'
p1180
aS'#000000'
p1181
aF12.0
aI0
aI00
aI00
aI00
aI00
aI00
aI00
aI00
aI00
aa(lp1182
I156028
aF376.924
aF225.164
aVp2
p1183
aS'dejavusans'
p1184
aS'#000000'
p1185
aF12.0
aI0
aI00
aI00
aI00
aI00
aI00
aI00
aI00
aI00
aa(lp1186
I234378
aF398.7448
aF225.164
ag1183
aS'dejavusans'
p1187
aS'#000000'
p1188
aF12.0
aI0
aI00
aI00
aI00
aI00
aI00
aI00
aI00
aI00
aa(lp1189
I234378
aF120.9
aF239.164
aVp2
p1190
aS'dejavusans'
p1191
aS'#000000'
p1192
aF12.0
aI0
aI01
aI00
aI00
aI00
aI00
aI00
aI00
aI00
aa(lp1193
I144690
aF120.9
aF255.464
aVp2
p1194
aS'dejavusans'
p1195
aS'#000000'
p1196
aF12.0
aI0
aI01
aI00
aI00
aI00
aI00
aI00
aI00
aI00
aa(lp1197
I234378
aF166.08
aF255.464
aVp2
p1198
aS'dejavusans'
p1199
aS'#000000'
p1200
aF12.0
aI0
aI01
aI00
aI00
aI00
aI00
aI00
aI00
aI00
aa(lp1201
I234378
aF256.4
aF239.164
aVp2
p1202
aS'dejavusans'
p1203
aS'#000000'
p1204
aF12.0
aI0
aI00
aI00
aI00
aI00
aI00
aI00
aI00
aI00
aa(lp1205
I234378
aF256.4
aF255.264
aVp2
p1206
aS'dejavusans'
p1207
aS'#000000'
p1208
aF12.0
aI0
aI00
aI00
aI00
aI00
aI00
aI00
aI00
aI00
aa(lp1209
I148996
aF275.5
aF239.164
aVp2
p1210
aS'dejavusans'
p1211
aS'#000000'
p1212
aF12.0
aI0
aI01
aI00
aI00
aI00
aI00
aI00
aI00
aI00
aa(lp1213
I234378
aF311.9114285714286
aF239.164
ag1210
aS'dejavusans'
p1214
aS'#000000'
p1215
aF12.0
aI0
aI00
aI00
aI00
aI00
aI00
aI00
aI00
aI00
aa(lp1216
I176767
aF321.868
aF239.164
aVp2
p1217
aS'dejavusans'
p1218
aS'#000000'
p1219
aF12.0
aI0
aI01
aI00
aI00
aI00
aI00
aI00
aI00
aI00
aa(lp1220
I234378
aF378.4492
aF239.164
ag1217
aS'dejavusans'
p1221
aS'#000000'
p1222
aF12.0
aI0
aI00
aI00
aI00
aI00
aI00
aI00
aI00
aI00
aa(lp1223
I234378
aF388.54
aF239.164
aVp2
p1224
aS'dejavusans'
p1225
aS'#000000'
p1226
aF12.0
aI0
aI01
aI00
aI00
aI00
aI00
aI00
aI00
aI00
aa(lp1227
I38649
aF275.5
aF255.264
aVp2
p1228
aS'dejavusans'
p1229
aS'#000000'
p1230
aF12.0
aI0
aI01
aI01
aI00
aI00
aI00
aI00
aI00
aI00
aa(lp1231
I234378
aF297.8965
aF255.264
ag1228
aS'dejavusans'
p1232
aS'#000000'
p1233
aF12.0
aI0
aI00
aI00
aI00
aI00
aI00
aI00
aI00
aI00
aa(lp1234
I132957
aF305.362
aF255.264
ag1228
aS'dejavusans'
p1235
aS'#000000'
p1236
aF12.0
aI0
aI01
aI00
aI00
aI00
aI00
aI00
aI00
aI00
aa(lp1237
I68365
aF339.076
aF255.264
aVp2
p1238
aS'dejavusans'
p1239
aS'#000000'
p1240
aF12.0
aI0
aI01
aI00
aI00
aI00
aI00
aI00
aI00
aI00
aa(lp1241
I44084
aF383.944
aF255.264
aVp2
p1242
aS'dejavusans'
p1243
aS'#000000'
p1244
aF12.0
aI0
aI01
aI00
aI00
aI00
aI00
aI00
aI00
aI00
aa(lp1245
I234378
aF419.62
aF255.264
ag1242
aS'dejavusans'
p1246
aS'#000000'
p1247
aF12.0
aI0
aI00
aI00
aI00
aI00
aI00
aI00
aI00
aI00
aa(lp1248
I234378
aF425.56600000000003
aF255.264
ag1242
aS'dejavusans'
p1249
aS'#000000'
p1250
aF12.0
aI0
aI00
aI00
aI00
aI00
aI00
aI00
aI00
aI00
aa(lp1251
I234378
aF435.316
aF255.264
aVp2
p1252
aS'dejavusans'
p1253
aS'#000000'
p1254
aF12.0
aI0
aI01
aI01
aI00
aI00
aI00
aI00
aI00
aI00
aa(lp1255
I234378
aF458.40099999999995
aF255.264
ag1252
aS'dejavusans'
p1256
aS'#000000'
p1257
aF12.0
aI0
aI00
aI00
aI00
aI00
aI00
aI00
aI00
aI00
aa(lp1258
I186242
aF473.704
aF255.264
aVp2
p1259
aS'dejavusans'
p1260
aS'#000000'
p1261
aF12.0
aI0
aI01
aI00
aI00
aI00
aI00
aI00
aI00
aI00
aa(lp1262
I6981
aF275.5
aF271.364
aVp2
p1263
aS'dejavusans'
p1264
aS'#000000'
p1265
aF12.0
aI0
aI01
aI00
aI00
aI00
aI00
aI00
aI00
aI00
aa(lp1266
I144690
aF338.344
aF271.364
aVp2
p1267
aS'dejavusans'
p1268
aS'#000000'
p1269
aF12.0
aI0
aI01
aI00
aI00
aI00
aI00
aI00
aI00
aI00
aa(lp1270
I157010
aF383.524
aF271.364
aVp2
p1271
aS'dejavusans'
p1272
aS'#000000'
p1273
aF12.0
aI0
aI01
aI00
aI00
aI00
aI00
aI00
aI00
aI00
aa(lp1274
I234378
aF424.6315
aF271.364
ag1271
aS'dejavusans'
p1275
aS'#000000'
p1276
aF12.0
aI0
aI00
aI00
aI00
aI00
aI00
aI00
aI00
aI00
aa(lp1277
I20350
aF434.308
aF271.364
aVp2
p1278
aS'dejavusans'
p1279
aS'#000000'
p1280
aF12.0
aI0
aI01
aI00
aI00
aI00
aI00
aI00
aI00
aI00
aa(lp1281
I144690
aF275.5
aF287.464
aVp2
p1282
aS'dejavusans'
p1283
aS'#000000'
p1284
aF12.0
aI0
aI01
aI00
aI00
aI00
aI00
aI00
aI00
aI00
aa(lp1285
I157010
aF320.776
aF287.464
aVp2
p1286
aS'dejavusans'
p1287
aS'#000000'
p1288
aF12.0
aI0
aI01
aI00
aI00
aI00
aI00
aI00
aI00
aI00
aa(lp1289
I165938
aF72.1
aF317.564
aVp2
p1290
aS'dejavusans'
p1291
aS'#000000'
p1292
aF12.0
aI1
aI01
aI00
aI00
aI00
aI00
aI00
aI00
aI00
aa(lp1293
I60220
aF159.94
aF317.564
aVp2
p1294
aS'dejavusans'
p1295
aS'#000000'
p1296
aF12.0
aI1
aI01
aI00
aI00
aI00
aI00
aI00
aI00
aI00
aa(lp1297
I234378
aF232.08181818181816
aF317.564
ag1294
aS'dejavusans'
p1298
aS'#000000'
p1299
aF12.0
aI1
aI00
aI00
aI00
aI00
aI00
aI00
aI00
aI00
aa(lp1300
I234378
aF72.1
aF356.808
aVp2
p1301
aS'dejavusans'
p1302
aS'#000000'
p1303
aF14.0
aI1
aI01
aI00
aI00
aI00
aI00
aI00
aI00
aI00
aa(lp1304
I234378
aF172.298
aF356.808
aVp2
p1305
aS'dejavusans'
p1306
aS'#000000'
p1307
aF14.0
aI1
aI01
aI00
aI00
aI00
aI00
aI00
aI00
aI00
aa(lp1308
I234378
aF279.216
aF356.808
aVp2
p1309
aS'dejavusans'
p1310
aS'#000000'
p1311
aF14.0
aI1
aI01
aI00
aI00
aI00
aI00
aI00
aI00
aI00
aa(lp1312
I234378
aF302.757
aF356.808
ag1309
aS'dejavusans'
p1313
aS'#000000'
p1314
aF14.0
aI1
aI00
aI00
aI00
aI00
aI00
aI00
aI00
aI00
aa(lp1315
I234378
aF315.49
aF356.808
aVp2
p1316
aS'dejavusans'
p1317
aS'#000000'
p1318
aF14.0
aI1
aI01
aI00
aI00
aI00
aI00
aI00
aI00
aI00
aa(lp1319
I234378
aF338.6635
aF356.808
ag1316
aS'dejavusans'
p1320
aS'#000000'
p1321
aF14.0
aI1
aI00
aI00
aI00
aI00
aI00
aI00
aI00
aI00
aa(lp1322
I234378
aF72.1
aF373.092
aVp2
p1323
aS'dejavusans'
p1324
aS'#000000'
p1325
aF11.0
aI1
aI01
aI00
aI00
aI00
aI00
aI00
aI00
aI00
aa(lp1326
I132100
aF131.951
aF373.092
aVp2
p1327
aS'dejavusans'
p1328
aS'#000000'
p1329
aF11.0
aI1
aI01
aI00
aI00
aI00
aI00
aI00
aI00
aI00
aa(lp1330
I234378
aF183.08877777777778
aF373.092
ag1327
aS'dejavusans'
p1331
aS'#000000'
p1332
aF11.0
aI1
aI00
aI00
aI00
aI00
aI00
aI00
aI00
aI00
aa(lp1333
I234378
aF193.5
aF373.092
aVp2
p1334
aS'dejavusans'
p1335
aS'#000000'
p1336
aF11.0
aI0
aI00
aI00
aI01
aI01
aI00
aI00
aI00
aI00
aa(lp1337
I89483
aF200.5
aF373.061
aVp2
p1338
aS'dejavusans'
p1339
aS'#000000'
p1340
aF6.4
aI0
aI00
aI00
aI00
aI00
aI00
aI00
aI00
aI00
aa(lp1341
I234378
aF210.487
aF373.092
aVp2
p1342
aS'dejavusans'
p1343
aS'#000000'
p1344
aF11.0
aI0
aI01
aI00
aI00
aI00
aI00
aI00
aI00
aI01
aa(lp1345
I234378
aF235.248
aF373.092
aVp2
p1346
aS'dejavusans'
p1347
aS'#000000'
p1348
aF11.0
aI0
aI00
aI00
aI01
aI01
aI01
aI00
aI00
aI00
aa(lp1349
I36403
aF266.719
aF373.092
aVp2
p1350
aS'dejavusans'
p1351
aS'#000000'
p1352
aF11.0
aI0
aI00
aI00
aI00
aI00
aI00
aI00
aI00
aI00
aa(lp1353
I102117
aF283.692
aF373.092
aVp2
p1354
aS'dejavusans'
p1355
aS'#000000'
p1356
aF11.0
aI0
aI01
aI00
aI00
aI00
aI00
aI00
aI00
aI00
aa(lp1357
I234378
aF72.1
aF399.964
aVp2
p1358
aS'dejavusans'
p1359
aS'#000000'
p1360
aF12.0
aI1
aI00
aI00
aI01
aI01
aI00
aI00
aI00
aI00
aa(lp1361
I234378
aF78.568
aF399.964
ag1358
aS'dejavusans'
p1362
aS'#000000'
p1363
aF12.0
aI1
aI00
aI00
aI00
aI00
aI00
aI00
aI00
aI00
aa(lp1364
I234378
aF138.46
aF399.964
aVp2
p1365
aS'dejavusans'
p1366
aS'#000000'
p1367
aF12.0
aI1
aI01
aI01
aI00
aI00
aI00
aI00
aI00
aI00
aa(lp1368
I234378
aF218.716
aF399.964
aVp2
p1369
aS'dejavusans'
p1370
aS'#000000'
p1371
aF12.0
aI1
aI00
aI00
aI00
aI00
aI00
aI00
aI00
aI00
aa(lp1372
I149270
aF225.4924
aF399.964
ag1369
aS'dejavusans'
p1373
aS'#000000'
p1374
aF12.0
aI1
aI01
aI00
aI00
aI00
aI00
aI00
aI00
aI00
aa(lp1375
I144690
aF339.952
aF399.964
aVp2
p1376
aS'dejavusans'
p1377
aS'#000000'
p1378
aF12.0
aI1
aI01
aI00
aI00
aI00
aI00
aI00
aI00
aI00
aa(lp1379
I234378
aF439.804
aF399.964
aVp2
p1380
aS'dejavusans'
p1381
aS'#000000'
p1382
aF12.0
aI1
aI01
aI00
aI00
aI00
aI00
aI00
aI00
aI00
aa(lp1383
I234378
aF523.7449230769231
aF399.964
ag1380
aS'dejavusans'
p1384
aS'#000000'
p1385
aF12.0
aI1
aI00
aI00
aI00
aI00
aI00
aI00
aI00
aI00
aa(lp1386
I210461
aF72.1
aF413.964
aVp2
p1387
aS'dejavusans'
p1388
aS'#000000'
p1389
aF12.0
aI1
aI01
aI00
aI00
aI00
aI00
aI00
aI00
aI00
aa(lp1390
I340
aF111.58
aF413.964
aVp2
p1391
aS'dejavusans'
p1392
aS'#000000'
p1393
aF12.0
aI1
aI01
aI00
aI00
aI00
aI00
aI00
aI00
aI00
aa(lp1394
I234378
aF137.7304
aF413.964
ag1391
aS'dejavusans'
p1395
aS'#000000'
p1396
aF12.0
aI1
aI00
aI00
aI00
aI00
aI00
aI00
aI00
aI00
aa(lp1397
I234378
aF148.456
aF413.964
aVp2
p1398
aS'dejavusans'
p1399
aS'#000000'
p1400
aF12.0
aI1
aI00
aI00
aI01
aI01
aI00
aI00
aI00
aI00
aa(lp1401
I234378
aF72.1
aF454.692
aVp2
p1402
aS'dejavusans'
p1403
aS'#000000'
p1404
aF11.0
aI1
aI01
aI00
aI00
aI00
aI00
aI00
aI00
aI00
aa(lp1405
I234378
aF72.1
aF467.492
aVp2
p1406
aS'dejavusans'
p1407
aS'#000000'
p1408
aF11.0
aI1
aI01
aI00
aI00
aI00
aI00
aI00
aI00
aI00
aa(lp1409
I234378
aF150.112
aF467.492
ag1406
aS'dejavusans'
p1410
aS'#000000'
p1411
aF11.0
aI1
aI00
aI00
aI00
aI00
aI00
aI00
aI00
aI00
aa(lp1412
I84662
aF212.5
aF454.692
aVp2
p1413
aS'dejavusans'
p1414
aS'#000000'
p1415
aF11.0
aI0
aI01
aI00
aI00
aI00
aI00
aI00
aI00
aI00
aa(lp1416
I21716
aF245.566
aF454.692
aVp2
p1417
aS'dejavusans'
p1418
aS'#000000'
p1419
aF11.0
aI0
aI01
aI00
aI00
aI00
aI00
aI00
aI00
aI00
aa(lp1420
I234378
aF266.906
aF454.692
ag1417
aS'dejavusans'
p1421
aS'#000000'
p1422
aF11.0
aI0
aI00
aI00
aI00
aI00
aI00
aI00
aI00
aI00
aa(lp1423
I148996
aF280.029
aF454.692
aVp2
p1424
aS'dejavusans'
p1425
aS'#000000'
p1426
aF11.0
aI0
aI01
aI00
aI00
aI00
aI00
aI00
aI00
aI00
aa(lp1427
I234378
aF313.39671428571427
aF454.692
ag1424
aS'dejavusans'
p1428
aS'#000000'
p1429
aF11.0
aI0
aI00
aI00
aI00
aI00
aI00
aI00
aI00
aI00
aa(lp1430
I176767
aF326.647
aF454.692
aVp2
p1431
aS'dejavusans'
p1432
aS'#000000'
p1433
aF11.0
aI0
aI01
aI00
aI00
aI00
aI00
aI00
aI00
aI00
aa(lp1434
I234378
aF378.5032
aF454.692
ag1431
aS'dejavusans'
p1435
aS'#000000'
p1436
aF11.0
aI0
aI00
aI00
aI00
aI00
aI00
aI00
aI00
aI00
aa(lp1437
I234378
aF391.954
aF454.692
aVp2
p1438
aS'dejavusans'
p1439
aS'#000000'
p1440
aF11.0
aI0
aI01
aI00
aI00
aI00
aI00
aI00
aI00
aI00
aa(lp1441
I85218
aF425.207
aF454.692
aVp2
p1442
aS'dejavusans'
p1443
aS'#000000'
p1444
aF11.0
aI0
aI00
aI00
aI00
aI00
aI00
aI00
aI00
aI00
aa(lp1445
I234378
aF453.565
aF454.692
aVp2
p1446
aS'dejavusans'
p1447
aS'#000000'
p1448
aF11.0
aI0
aI01
aI00
aI00
aI00
aI00
aI00
aI00
aI00
aa(lp1449
I234378
aF504.011
aF454.692
aVp2
p1450
aS'dejavusans'
p1451
aS'#000000'
p1452
aF11.0
aI0
aI00
aI00
aI00
aI00
aI00
aI00
aI00
aI00
aa(lp1453
I112275
aF509.346
aF454.692
ag1450
aS'dejavusans'
p1454
aS'#000000'
p1455
aF11.0
aI0
aI01
aI00
aI00
aI00
aI00
aI00
aI00
aI00
aa(lp1456
I125078
aF212.5
aF467.492
aVp2
p1457
aS'dejavusans'
p1458
aS'#000000'
p1459
aF11.0
aI0
aI00
aI00
aI00
aI00
aI00
aI00
aI00
aI00
aa(lp1460
I115769
aF254.047
aF467.492
aVp2
p1461
aS'dejavusans'
p1462
aS'#000000'
p1463
aF11.0
aI0
aI00
aI00
aI00
aI00
aI00
aI00
aI00
aI00
aa(lp1464
I234378
aF308.884
aF467.492
ag1461
aS'dejavusans'
p1465
aS'#000000'
p1466
aF11.0
aI0
aI00
aI00
aI00
aI00
aI00
aI00
aI00
aI00
aa(lp1467
I234378
aF314.97700000000003
aF467.492
ag1461
aS'dejavusans'
p1468
aS'#000000'
p1469
aF11.0
aI0
aI00
aI00
aI00
aI00
aI00
aI00
aI00
aI00
aa(lp1470
I234378
aF324.557
aF467.492
aVp2
p1471
aS'dejavusans'
p1472
aS'#000000'
p1473
aF11.0
aI0
aI01
aI01
aI00
aI00
aI00
aI00
aI00
aI00
aa(lp1474
I234378
aF72.1
aF480.292
aVp2
p1475
aS'dejavusans'
p1476
aS'#000000'
p1477
aF11.0
aI1
aI01
aI00
aI00
aI00
aI00
aI00
aI00
aI00
aa(lp1478
I234378
aF107.355
aF480.292
aVp2
p1479
aS'dejavusans'
p1480
aS'#000000'
p1481
aF11.0
aI1
aI00
aI00
aI00
aI00
aI00
aI00
aI00
aI00
aa(lp1482
I234378
aF212.5
aF480.292
aVp2
p1483
aS'dejavusans'
p1484
aS'#000000'
p1485
aF11.0
aI0
aI01
aI01
aI00
aI00
aI00
aI00
aI00
aI00
aa(lp1486
I234378
aF237.976
aF480.292
aVp2
p1487
aS'dejavusans'
p1488
aS'#000000'
p1489
aF11.0
aI0
aI00
aI00
aI01
aI01
aI00
aI00
aI00
aI00
aa(lp1490
I234378
aF243.2175
aF480.292
ag1487
aS'dejavusans'
p1491
aS'#000000'
p1492
aF11.0
aI0
aI00
aI00
aI00
aI00
aI00
aI00
aI00
aI00
aa(lp1493
I234378
aF248.459
aF480.292
ag1487
aS'dejavusans'
p1494
aS'#000000'
p1495
aF11.0
aI0
aI00
aI00
aI01
aI01
aI00
aI00
aI00
aI00
aa(lp1496
I234378
aF253.7005
aF480.292
ag1487
aS'dejavusans'
p1497
aS'#000000'
p1498
aF11.0
aI0
aI00
aI00
aI00
aI00
aI00
aI00
aI00
aI00
aa(lp1499
I234378
aF265.542
aF480.292
aVp2
p1500
aS'dejavusans'
p1501
aS'#000000'
p1502
aF11.0
aI0
aI00
aI00
aI00
aI00
aI00
aI00
aI00
aI00
aa(lp1503
I234378
aF271.7944
aF480.292
ag1500
aS'dejavusans'
p1504
aS'#000000'
p1505
aF11.0
aI0
aI01
aI01
aI00
aI00
aI00
aI00
aI00
aI00
aa(lp1506
I234378
aF290.5516
aF480.292
ag1500
aS'dejavusans'
p1507
aS'#000000'
p1508
aF11.0
aI0
aI00
aI00
aI00
aI00
aI00
aI00
aI00
aI00
aa(lp1509
I166176
aF303.393
aF480.292
aVp2
p1510
aS'dejavusans'
p1511
aS'#000000'
p1512
aF11.0
aI0
aI01
aI00
aI00
aI00
aI00
aI00
aI00
aI00
aa(lp1513
I234378
aF362.12299999999993
aF480.292
ag1510
aS'dejavusans'
p1514
aS'#000000'
p1515
aF11.0
aI0
aI00
aI00
aI00
aI00
aI00
aI00
aI00
aI00
aa(lp1516
I234378
aF381.284
aF480.292
aVp2
p1517
aS'dejavusans'
p1518
aS'#000000'
p1519
aF11.0
aI0
aI01
aI00
aI00
aI00
aI00
aI00
aI00
aI00
aa(lp1520
I234378
aF414.504
aF480.292
ag1517
aS'dejavusans'
p1521
aS'#000000'
p1522
aF11.0
aI0
aI00
aI00
aI00
aI00
aI00
aI00
aI00
aI00
aa(lp1523
I234378
aF427.748
aF480.292
aVp2
p1524
aS'dejavusans'
p1525
aS'#000000'
p1526
aF11.0
aI0
aI01
aI00
aI00
aI00
aI00
aI00
aI00
aI00
aa(lp1527
I234378
aF462.13216666666665
aF480.292
ag1524
aS'dejavusans'
p1528
aS'#000000'
p1529
aF11.0
aI0
aI00
aI00
aI00
aI00
aI00
aI00
aI00
aI00
aa(lp1530
I234378
aF482.198
aF480.292
aVp2
p1531
aS'dejavusans'
p1532
aS'#000000'
p1533
aF11.0
aI0
aI01
aI01
aI01
aI00
aI00
aI00
aI00
aI00
aa(lp1534
I234378
aF504.077
aF480.292
aVp2
p1535
aS'dejavusans'
p1536
aS'#000000'
p1537
aF11.0
aI0
aI00
aI00
aI00
aI00
aI00
aI00
aI00
aI00
aa(lp1538
I135639
aF508.829
aF480.292
ag1535
aS'dejavusans'
p1539
aS'#000000'
p1540
aF11.0
aI0
aI00
aI00
aI00
aI00
aI00
aI00
aI00
aI00
aa(lp1541
I55660
aF212.5
aF493.092
aVp2
p1542
aS'dejavusans'
p1543
aS'#000000'
p1544
aF11.0
aI0
aI00
aI00
aI00
aI00
aI00
aI00
aI00
aI00
aa(lp1545
I234378
aF266.972
aF493.092
aVp2
p1546
aS'dejavusans'
p1547
aS'#000000'
p1548
aF11.0
aI0
aI01
aI00
aI00
aI00
aI00
aI00
aI00
aI00
aa(lp1549
I234378
aF315.152
aF493.092
ag1546
aS'dejavusans'
p1550
aS'#000000'
p1551
aF11.0
aI0
aI00
aI00
aI00
aI00
aI00
aI00
aI00
aI00
aa(lp1552
I234378
aF321.17449999999997
aF493.092
ag1546
aS'dejavusans'
p1553
aS'#000000'
p1554
aF11.0
aI0
aI00
aI00
aI00
aI00
aI00
aI00
aI00
aI00
aa(lp1555
I223319
aF335.678
aF493.092
aVp2
p1556
aS'dejavusans'
p1557
aS'#000000'
p1558
aF11.0
aI0
aI01
aI00
aI00
aI00
aI00
aI00
aI00
aI00
aa(lp1559
I234378
aF382.813
aF493.092
aVp2
p1560
aS'dejavusans'
p1561
aS'#000000'
p1562
aF11.0
aI0
aI00
aI00
aI00
aI00
aI00
aI00
aI00
aI00
aa(lp1563
I58235
aF388.44939999999997
aF493.092
ag1560
aS'dejavusans'
p1564
aS'#000000'
p1565
aF11.0
aI0
aI01
aI00
aI00
aI00
aI00
aI00
aI00
aI00
aa(lp1566
I85218
aF419.443
aF493.092
aVp2
p1567
aS'dejavusans'
p1568
aS'#000000'
p1569
aF11.0
aI0
aI00
aI00
aI00
aI00
aI00
aI00
aI00
aI00
aa(lp1570
I52487
aF448.714
aF493.092
aVp2
p1571
aS'dejavusans'
p1572
aS'#000000'
p1573
aF11.0
aI0
aI01
aI00
aI00
aI00
aI00
aI00
aI00
aI00
aa(lp1574
I234378
aF471.49133333333333
aF493.092
ag1571
aS'dejavusans'
p1575
aS'#000000'
p1576
aF11.0
aI0
aI00
aI00
aI00
aI00
aI00
aI00
aI00
aI00
aa(lp1577
I234378
aF477.18566666666663
aF493.092
ag1571
aS'dejavusans'
p1578
aS'#000000'
p1579
aF11.0
aI0
aI00
aI00
aI00
aI00
aI00
aI00
aI00
aI00
aa(lp1580
I234378
aF491.471
aF493.092
aVp2
p1581
aS'dejavusans'
p1582
aS'#000000'
p1583
aF11.0
aI0
aI01
aI00
aI00
aI00
aI00
aI00
aI00
aI00
aa(lp1584
I234378
aF212.5
aF505.892
aVp2
p1585
aS'dejavusans'
p1586
aS'#000000'
p1587
aF11.0
aI0
aI00
aI00
aI00
aI00
aI00
aI00
aI00
aI00
aa(lp1588
I81573
aF218.53
aF505.892
ag1585
aS'dejavusans'
p1589
aS'#000000'
p1590
aF11.0
aI0
aI01
aI00
aI00
aI00
aI00
aI00
aI00
aI00
aa(lp1591
I141687
aF288.29
aF505.892
aVp2
p1592
aS'dejavusans'
p1593
aS'#000000'
p1594
aF11.0
aI0
aI01
aI00
aI00
aI00
aI00
aI00
aI00
aI00
aa(lp1595
I234378
aF346.09076923076924
aF505.892
ag1592
aS'dejavusans'
p1596
aS'#000000'
p1597
aF11.0
aI0
aI00
aI00
aI00
aI00
aI00
aI00
aI00
aI00
aa(lp1598
I234378
aF351.3453846153846
aF505.892
ag1592
aS'dejavusans'
p1599
aS'#000000'
p1600
aF11.0
aI0
aI00
aI00
aI00
aI00
aI00
aI00
aI00
aI00
aa(lp1601
I1257
aF366.093
aF505.892
aVp2
p1602
aS'dejavusans'
p1603
aS'#000000'
p1604
aF11.0
aI0
aI01
aI00
aI00
aI00
aI00
aI00
aI00
aI00
aa(lp1605
I234378
aF407.431
aF505.892
aVp2
p1606
aS'dejavusans'
p1607
aS'#000000'
p1608
aF11.0
aI0
aI00
aI00
aI00
aI00
aI00
aI00
aI00
aI00
aa(lp1609
I183996
aF413.179875
aF505.892
ag1606
aS'dejavusans'
p1610
aS'#000000'
p1611
aF11.0
aI0
aI01
aI00
aI00
aI00
aI00
aI00
aI00
aI00
aa(lp1612
I177958
aF462.882
aF505.892
aVp2
p1613
aS'dejavusans'
p1614
aS'#000000'
p1615
aF11.0
aI0
aI01
aI00
aI00
aI00
aI00
aI00
aI00
aI00
aa(lp1616
I85218
aF509.94
aF505.892
aVp2
p1617
aS'dejavusans'
p1618
aS'#000000'
p1619
aF11.0
aI0
aI00
aI00
aI00
aI00
aI00
aI00
aI00
aI00
aa(lp1620
I221291
aF212.5
aF518.692
aVp2
p1621
aS'dejavusans'
p1622
aS'#000000'
p1623
aF11.0
aI0
aI01
aI00
aI00
aI00
aI00
aI00
aI00
aI00
aa(lp1624
I109247
aF244.059
aF518.692
aVp2
p1625
aS'dejavusans'
p1626
aS'#000000'
p1627
aF11.0
aI0
aI01
aI00
aI00
aI00
aI00
aI00
aI00
aI00
aa(lp1628
I234378
aF286.904
aF518.692
aVp2
p1629
aS'dejavusans'
p1630
aS'#000000'
p1631
aF11.0
aI0
aI00
aI00
aI00
aI00
aI00
aI00
aI00
aI00
aa(lp1632
I177958
aF72.1
aF557.164
aVp2
p1633
aS'dejavusans'
p1634
aS'#000000'
p1635
aF12.0
aI1
aI01
aI00
aI00
aI00
aI00
aI00
aI00
aI00
aa(lp1636
I92750
aF124.348
aF557.164
aVp2
p1637
aS'dejavusans'
p1638
aS'#000000'
p1639
aF12.0
aI1
aI01
aI00
aI00
aI00
aI00
aI00
aI00
aI00
aa(lp1640
I234378
aF184.764
aF557.164
ag1637
aS'dejavusans'
p1641
aS'#000000'
p1642
aF12.0
aI1
aI00
aI00
aI00
aI00
aI00
aI00
aI00
aI00
aa(lp1643
I234378
aF72.1
aF585.164
aVp2
p1644
aS'dejavusans'
p1645
aS'#000000'
p1646
aF12.0
aI0
aI01
aI01
aI00
aI00
aI00
aI00
aI00
aI00
aa(lp1647
I234378
aF103.372
aF585.164
aVp2
p1648
aS'dejavusans'
p1649
aS'#000000'
p1650
aF12.0
aI0
aI00
aI00
aI00
aI00
aI00
aI00
aI00
aI00
aa(lp1651
I190806
aF149.524
aF585.164
aVp2
p1652
aS'dejavusans'
p1653
aS'#000000'
p1654
aF12.0
aI0
aI00
aI00
aI00
aI00
aI00
aI00
aI00
aI00
aa(lp1655
I149270
aF172.396
aF585.164
aVp2
p1656
aS'dejavusans'
p1657
aS'#000000'
p1658
aF12.0
aI0
aI01
aI00
aI00
aI00
aI00
aI00
aI00
aI00
aa(lp1659
I144690
aF233.716
aF585.164
aVp2
p1660
aS'dejavusans'
p1661
aS'#000000'
p1662
aF12.0
aI0
aI01
aI00
aI00
aI00
aI00
aI00
aI00
aI00
aa(lp1663
I234378
aF281.476
aF585.164
aVp2
p1664
aS'dejavusans'
p1665
aS'#000000'
p1666
aF12.0
aI0
aI01
aI00
aI00
aI00
aI00
aI00
aI00
aI00
aa(lp1667
I234378
aF353.5203076923077
aF585.164
ag1664
aS'dejavusans'
p1668
aS'#000000'
p1669
aF12.0
aI0
aI00
aI00
aI00
aI00
aI00
aI00
aI00
aI00
aa(lp1670
I135639
aF365.896
aF585.164
aVp2
p1671
aS'dejavusans'
p1672
aS'#000000'
p1673
aF12.0
aI0
aI01
aI00
aI00
aI00
aI00
aI00
aI00
aI00
aa(lp1674
I166593
aF383.38
aF585.164
aVp2
p1675
aS'dejavusans'
p1676
aS'#000000'
p1677
aF12.0
aI0
aI00
aI00
aI00
aI00
aI00
aI00
aI00
aI00
aa(lp1678
I82939
aF397.06
aF585.164
aVp2
p1679
aS'dejavusans'
p1680
aS'#000000'
p1681
aF12.0
aI0
aI00
aI00
aI00
aI00
aI00
aI00
aI00
aI00
aa(lp1682
I234378
aF451.204
aF585.164
aVp2
p1683
aS'dejavusans'
p1684
aS'#000000'
p1685
aF12.0
aI0
aI01
aI01
aI00
aI00
aI00
aI00
aI00
aI00
aa(lp1686
I22474
aF482.476
aF585.164
aVp2
p1687
aS'dejavusans'
p1688
aS'#000000'
p1689
aF12.0
aI0
aI00
aI00
aI00
aI00
aI00
aI00
aI00
aI00
aa(lp1690
I176802
aF498.448
aF585.164
aVp2
p1691
aS'dejavusans'
p1692
aS'#000000'
p1693
aF12.0
aI0
aI01
aI00
aI00
aI00
aI00
aI00
aI00
aI00
aa(lp1694
I22320
aF72.1
aF599.164
aVp2
p1695
aS'dejavusans'
p1696
aS'#000000'
p1697
aF12.0
aI0
aI00
aI00
aI00
aI00
aI00
aI00
aI00
aI00
aa(lp1698
I190806
aF106.264
aF599.164
aVp2
p1699
aS'dejavusans'
p1700
aS'#000000'
p1701
aF12.0
aI0
aI00
aI00
aI00
aI00
aI00
aI00
aI00
aI00
aa(lp1702
I41890
aF130.936
aF599.164
aVp2
p1703
aS'dejavusans'
p1704
aS'#000000'
p1705
aF12.0
aI0
aI00
aI00
aI00
aI00
aI00
aI00
aI00
aI00
aa(lp1706
I78934
aF153.1
aF599.164
aVp2
p1707
aS'dejavusans'
p1708
aS'#000000'
p1709
aF12.0
aI0
aI00
aI00
aI00
aI00
aI00
aI00
aI00
aI00
aa(lp1710
I144489
aF186.76
aF599.164
aVp2
p1711
aS'dejavusans'
p1712
aS'#000000'
p1713
aF12.0
aI0
aI00
aI00
aI00
aI00
aI00
aI00
aI00
aI00
aa(lp1714
I149270
aF206.524
aF599.164
aVp2
p1715
aS'dejavusans'
p1716
aS'#000000'
p1717
aF12.0
aI0
aI01
aI00
aI00
aI00
aI00
aI00
aI00
aI00
aa(lp1718
I195671
aF270.34
aF599.164
aVp2
p1719
aS'dejavusans'
p1720
aS'#000000'
p1721
aF12.0
aI0
aI01
aI00
aI00
aI00
aI00
aI00
aI00
aI00
aa(lp1722
I234378
aF360.57546666666667
aF599.164
ag1719
aS'dejavusans'
p1723
aS'#000000'
p1724
aF12.0
aI0
aI00
aI00
aI00
aI00
aI00
aI00
aI00
aI00
aa(lp1725
I234378
aF381.476
aF599.164
aVp2
p1726
aS'dejavusans'
p1727
aS'#000000'
p1728
aF12.0
aI0
aI01
aI01
aI00
aI00
aI00
aI00
aI00
aI00
aa(lp1729
I209115
aF414.656
aF599.164
aVp2
p1730
aS'dejavusans'
p1731
aS'#000000'
p1732
aF12.0
aI0
aI00
aI00
aI00
aI00
aI00
aI00
aI00
aI00
aa(lp1733
I234378
aF446.216
aF599.164
aVp2
p1734
aS'dejavusans'
p1735
aS'#000000'
p1736
aF12.0
aI0
aI00
aI00
aI00
aI00
aI00
aI00
aI00
aI00
aa(lp1737
I89480
aF518.84
aF599.164
aVp2
p1738
aS'dejavusans'
p1739
aS'#000000'
p1740
aF12.0
aI0
aI00
aI00
aI00
aI00
aI00
aI00
aI00
aI00
aa(lp1741
I94650
aF72.1
aF613.164
aVp2
p1742
aS'dejavusans'
p1743
aS'#000000'
p1744
aF12.0
aI0
aI00
aI00
aI00
aI00
aI00
aI00
aI00
aI00
aa(lp1745
I149270
aF126.94
aF613.164
aVp2
p1746
aS'dejavusans'
p1747
aS'#000000'
p1748
aF12.0
aI0
aI00
aI00
aI00
aI00
aI00
aI00
aI00
aI00
aa(lp1749
I234378
aF190.276
aF613.164
aVp2
p1750
aS'dejavusans'
p1751
aS'#000000'
p1752
aF12.0
aI0
aI00
aI00
aI00
aI00
aI00
aI00
aI00
aI00
aa(lp1753
I175989
aF239.128
aF613.164
aVp2
p1754
aS'dejavusans'
p1755
aS'#000000'
p1756
aF12.0
aI0
aI00
aI00
aI00
aI00
aI00
aI00
aI00
aI00
aa(lp1757
I222594
aF272.392
aF613.164
aVp2
p1758
aS'dejavusans'
p1759
aS'#000000'
p1760
aF12.0
aI0
aI00
aI00
aI00
aI00
aI00
aI00
aI00
aI00
aa(lp1761
I234378
aF350.5
aF613.164
aVp2
p1762
aS'dejavusans'
p1763
aS'#000000'
p1764
aF12.0
aI0
aI00
aI00
aI00
aI00
aI00
aI00
aI00
aI00
aa(lp1765
I175989
aF413.14
aF613.164
aVp2
p1766
aS'dejavusans'
p1767
aS'#000000'
p1768
aF12.0
aI0
aI00
aI00
aI00
aI00
aI00
aI00
aI00
aI00
aa(lp1769
I84932
aF446.404
aF613.164
aVp2
p1770
aS'dejavusans'
p1771
aS'#000000'
p1772
aF12.0
aI0
aI00
aI00
aI00
aI00
aI00
aI00
aI00
aI00
aa(lp1773
I92669
aF474.664
aF613.164
aVp2
p1774
aS'dejavusans'
p1775
aS'#000000'
p1776
aF12.0
aI0
aI00
aI00
aI00
aI00
aI00
aI00
aI00
aI00
aa(lp1777
I135639
aF519.52
aF613.164
aVp2
p1778
aS'dejavusans'
p1779
aS'#000000'
p1780
aF12.0
aI0
aI00
aI00
aI00
aI00
aI00
aI00
aI00
aI00
aa(lp1781
I128944
aF72.1
aF627.164
aVp2
p1782
aS'dejavusans'
p1783
aS'#000000'
p1784
aF12.0
aI0
aI00
aI00
aI00
aI00
aI00
aI00
aI00
aI00
aa(lp1785
I234378
aF119.88666666666666
aF627.164
ag1782
aS'dejavusans'
p1786
aS'#000000'
p1787
aF12.0
aI0
aI00
aI00
aI00
aI00
aI00
aI00
aI00
aI00
aa(lp1788
I98184
aF133.132
aF627.164
aVp2
p1789
aS'dejavusans'
p1790
aS'#000000'
p1791
aF12.0
aI0
aI01
aI00
aI00
aI00
aI00
aI00
aI00
aI00
aa(lp1792
I63022
aF205.96
aF627.164
aVp2
p1793
aS'dejavusans'
p1794
aS'#000000'
p1795
aF12.0
aI0
aI00
aI00
aI00
aI00
aI00
aI00
aI00
aI00
aa(lp1796
I199937
aF259.408
aF627.164
aVp2
p1797
aS'dejavusans'
p1798
aS'#000000'
p1799
aF12.0
aI0
aI00
aI00
aI00
aI00
aI00
aI00
aI00
aI00
aa(lp1800
I210461
aF338.428
aF627.164
aVp2
p1801
aS'dejavusans'
p1802
aS'#000000'
p1803
aF12.0
aI0
aI00
aI00
aI00
aI00
aI00
aI00
aI00
aI00
aa(lp1804
I234378
aF376.9
aF627.164
aVp2
p1805
aS'dejavusans'
p1806
aS'#000000'
p1807
aF12.0
aI0
aI00
aI00
aI00
aI00
aI00
aI00
aI00
aI00
aa(lp1808
I109586
aF428.44
aF627.164
aVp2
p1809
aS'dejavusans'
p1810
aS'#000000'
p1811
aF12.0
aI0
aI00
aI00
aI00
aI00
aI00
aI00
aI00
aI00
aa(lp1812
I144489
aF477.7
aF627.164
aVp2
p1813
aS'dejavusans'
p1814
aS'#000000'
p1815
aF12.0
aI0
aI00
aI00
aI00
aI00
aI00
aI00
aI00
aI00
aa(lp1816
I234378
aF496.468
aF627.164
aVp2
p1817
aS'dejavusans'
p1818
aS'#000000'
p1819
aF12.0
aI0
aI00
aI00
aI00
aI00
aI00
aI00
aI00
aI00
aa(lp1820
I234378
aF72.1
aF641.164
aVp2
p1821
aS'dejavusans'
p1822
aS'#000000'
p1823
aF12.0
aI0
aI00
aI00
aI00
aI00
aI00
aI00
aI00
aI00
aa(lp1824
I149270
aF116.848
aF641.164
aVp2
p1825
aS'dejavusans'
p1826
aS'#000000'
p1827
aF12.0
aI0
aI00
aI00
aI00
aI00
aI00
aI00
aI00
aI00
aa(lp1828
I234378
aF175.48
aF641.164
aVp2
p1829
aS'dejavusans'
p1830
aS'#000000'
p1831
aF12.0
aI0
aI00
aI00
aI00
aI00
aI00
aI00
aI00
aI00
aa(lp1832
I135639
aF219.532
aF641.164
aVp2
p1833
aS'dejavusans'
p1834
aS'#000000'
p1835
aF12.0
aI0
aI00
aI00
aI00
aI00
aI00
aI00
aI00
aI00
aa(lp1836
I194354
aF234.712
aF641.164
aVp2
p1837
aS'dejavusans'
p1838
aS'#000000'
p1839
aF12.0
aI0
aI00
aI00
aI00
aI00
aI00
aI00
aI00
aI00
aa(lp1840
I234378
aF258.484
aF641.164
aVp2
p1841
aS'dejavusans'
p1842
aS'#000000'
p1843
aF12.0
aI0
aI00
aI00
aI00
aI00
aI00
aI00
aI00
aI00
aa(lp1844
I144489
aF296.836
aF641.164
aVp2
p1845
aS'dejavusans'
p1846
aS'#000000'
p1847
aF12.0
aI0
aI00
aI00
aI00
aI00
aI00
aI00
aI00
aI00
aa(lp1848
I234378
aF312.508
aF641.164
aVp2
p1849
aS'dejavusans'
p1850
aS'#000000'
p1851
aF12.0
aI0
aI00
aI00
aI00
aI00
aI00
aI00
aI00
aI00
aa(lp1852
I234378
aF368.18199999999996
aF641.164
ag1849
aS'dejavusans'
p1853
aS'#000000'
p1854
aF12.0
aI0
aI00
aI00
aI00
aI00
aI00
aI00
aI00
aI00
aa(lp1855
I140916
aF378.532
aF641.164
aVp2
p1856
aS'dejavusans'
p1857
aS'#000000'
p1858
aF12.0
aI0
aI01
aI00
aI00
aI00
aI00
aI00
aI00
aI00
aa(lp1859
I234378
aF418.588
aF641.164
aVp2
p1860
aS'dejavusans'
p1861
aS'#000000'
p1862
aF12.0
aI0
aI00
aI00
aI00
aI00
aI00
aI00
aI00
aI00
aa(lp1863
I230812
aF480.832
aF641.164
aVp2
p1864
aS'dejavusans'
p1865
aS'#000000'
p1866
aF12.0
aI0
aI00
aI00
aI00
aI00
aI00
aI00
aI00
aI00
aa(lp1867
I192638
aF515.176
aF641.164
aVp2
p1868
aS'dejavusans'
p1869
aS'#000000'
p1870
aF12.0
aI0
aI00
aI00
aI00
aI00
aI00
aI00
aI00
aI00
aa(lp1871
I234378
aF72.1
aF655.164
aVp2
p1872
aS'dejavusans'
p1873
aS'#000000'
p1874
aF12.0
aI0
aI00
aI00
aI00
aI00
aI00
aI00
aI00
aI00
aa(lp1875
I192651
aF135.736
aF655.164
aVp2
p1876
aS'dejavusans'
p1877
aS'#000000'
p1878
aF12.0
aI0
aI00
aI00
aI00
aI00
aI00
aI00
aI00
aI00
aa(lp1879
I234378
aF156.112
aF655.164
aVp2
p1880
aS'dejavusans'
p1881
aS'#000000'
p1882
aF12.0
aI0
aI00
aI00
aI00
aI00
aI00
aI00
aI00
aI00
aa(lp1883
I234378
aF192.184
aF655.164
aVp2
p1884
aS'dejavusans'
p1885
aS'#000000'
p1886
aF12.0
aI0
aI00
aI00
aI00
aI00
aI00
aI00
aI00
aI00
aa(lp1887
I89480
aF245.128
aF655.164
aVp2
p1888
aS'dejavusans'
p1889
aS'#000000'
p1890
aF12.0
aI0
aI00
aI00
aI00
aI00
aI00
aI00
aI00
aI00
aa(lp1891
I24205
aF262.816
aF655.164
aVp2
p1892
aS'dejavusans'
p1893
aS'#000000'
p1894
aF12.0
aI0
aI00
aI00
aI00
aI00
aI00
aI00
aI00
aI00
aa(lp1895
I166593
aF306.472
aF655.164
aVp2
p1896
aS'dejavusans'
p1897
aS'#000000'
p1898
aF12.0
aI0
aI00
aI00
aI00
aI00
aI00
aI00
aI00
aI00
aa(lp1899
I172782
aF319.456
aF655.164
aVp2
p1900
aS'dejavusans'
p1901
aS'#000000'
p1902
aF12.0
aI0
aI00
aI00
aI00
aI00
aI00
aI00
aI00
aI00
aa(lp1903
I228372
aF359.728
aF655.164
aVp2
p1904
aS'dejavusans'
p1905
aS'#000000'
p1906
aF12.0
aI0
aI00
aI00
aI00
aI00
aI00
aI00
aI00
aI00
aa(lp1907
I89480
aF417.268
aF655.164
aVp2
p1908
aS'dejavusans'
p1909
aS'#000000'
p1910
aF12.0
aI0
aI00
aI00
aI00
aI00
aI00
aI00
aI00
aI00
aa(lp1911
I120218
aF434.848
aF655.164
aVp2
p1912
aS'dejavusans'
p1913
aS'#000000'
p1914
aF12.0
aI0
aI00
aI00
aI00
aI00
aI00
aI00
aI00
aI00
aa(lp1915
I234378
aF487.43466666666666
aF655.164
ag1912
aS'dejavusans'
p1916
aS'#000000'
p1917
aF12.0
aI0
aI00
aI00
aI00
aI00
aI00
aI00
aI00
aI00
aa(lp1918
I187786
aF499.684
aF655.164
aVp2
p1919
aS'dejavusans'
p1920
aS'#000000'
p1921
aF12.0
aI0
aI01
aI00
aI00
aI00
aI00
aI00
aI00
aI00
aa(lp1922
I234378
aF72.1
aF669.164
aVp2
p1923
aS'dejavusans'
p1924
aS'#000000'
p1925
aF12.0
aI0
aI00
aI00
aI00
aI00
aI00
aI00
aI00
aI00
aa(lp1926
I208573
aF120.364
aF669.164
aVp2
p1927
aS'dejavusans'
p1928
aS'#000000'
p1929
aF12.0
aI0
aI00
aI00
aI00
aI00
aI00
aI00
aI00
aI00
aa(lp1930
I192638
aF163.432
aF669.164
aVp2
p1931
aS'dejavusans'
p1932
aS'#000000'
p1933
aF12.0
aI0
aI00
aI00
aI00
aI00
aI00
aI00
aI00
aI00
aa(lp1934
I25729
aF185.8
aF669.164
aVp2
p1935
aS'dejavusans'
p1936
aS'#000000'
p1937
aF12.0
aI0
aI00
aI00
aI00
aI00
aI00
aI00
aI00
aI00
aa(lp1938
I135639
aF221.956
aF669.164
aVp2
p1939
aS'dejavusans'
p1940
aS'#000000'
p1941
aF12.0
aI0
aI00
aI00
aI00
aI00
aI00
aI00
aI00
aI00
aa(lp1942
I164851
aF240.232
aF669.164
aVp2
p1943
aS'dejavusans'
p1944
aS'#000000'
p1945
aF12.0
aI0
aI00
aI00
aI00
aI00
aI00
aI00
aI00
aI00
aa(lp1946
I234378
aF279.496
aF669.164
aVp2
p1947
aS'dejavusans'
p1948
aS'#000000'
p1949
aF12.0
aI0
aI00
aI00
aI00
aI00
aI00
aI00
aI00
aI00
aa(lp1950
I101504
aF351.508
aF669.164
aVp2
p1951
aS'dejavusans'
p1952
aS'#000000'
p1953
aF12.0
aI0
aI00
aI00
aI00
aI00
aI00
aI00
aI00
aI00
aa(lp1954
I234378
aF387.772
aF669.164
aVp2
p1955
aS'dejavusans'
p1956
aS'#000000'
p1957
aF12.0
aI0
aI00
aI00
aI00
aI00
aI00
aI00
aI00
aI00
aa(lp1958
I192651
aF451.708
aF669.164
aVp2
p1959
aS'dejavusans'
p1960
aS'#000000'
p1961
aF12.0
aI0
aI00
aI00
aI00
aI00
aI00
aI00
aI00
aI00
aa(lp1962
I120218
aF473.788
aF669.164
aVp2
p1963
aS'dejavusans'
p1964
aS'#000000'
p1965
aF12.0
aI0
aI00
aI00
aI00
aI00
aI00
aI00
aI00
aI00
aa(lp1966
I157236
aF72.1
aF683.164
aVp2
p1967
aS'dejavusans'
p1968
aS'#000000'
p1969
aF12.0
aI0
aI00
aI00
aI00
aI00
aI00
aI00
aI00
aI00
aa(lp1970
I234378
aF123.20559999999999
aF683.164
ag1967
aS'dejavusans'
p1971
aS'#000000'
p1972
aF12.0
aI0
aI00
aI00
aI00
aI00
aI00
aI00
aI00
aI00
aa(lp1973
I234378
aF72.1
aF72.064
aVp3
p1974
aS'dejavusans'
p1975
aS'#000000'
p1976
aF12.0
aI1
aI01
aI00
aI00
aI00
aI00
aI00
aI00
aI00
aa(lp1977
I234378
aF127.756
aF72.064
aVp3
p1978
aS'dejavusans'
p1979
aS'#000000'
p1980
aF12.0
aI1
aI01
aI00
aI00
aI00
aI00
aI00
aI00
aI00
aa(lp1981
I234378
aF232.5804705882353
aF72.064
ag1978
aS'dejavusans'
p1982
aS'#000000'
p1983
aF12.0
aI1
aI00
aI00
aI00
aI00
aI00
aI00
aI00
aI00
aa(lp1984
I125458
aF108.1
aF100.064
aVp3
p1985
aS'dejavusans'
p1986
aS'#000000'
p1987
aF12.0
aI0
aI01
aI00
aI00
aI00
aI00
aI00
aI00
aI00
aa(lp1988
I144483
aF156.88
aF100.064
aVp3
p1989
aS'dejavusans'
p1990
aS'#000000'
p1991
aF12.0
aI0
aI00
aI00
aI00
aI00
aI00
aI00
aI00
aI00
aa(lp1992
I51660
aF175.66
aF100.064
aVp3
p1993
aS'dejavusans'
p1994
aS'#000000'
p1995
aF12.0
aI0
aI00
aI00
aI00
aI00
aI00
aI00
aI00
aI00
aa(lp1996
I35885
aF208.444
aF100.064
aVp3
p1997
aS'dejavusans'
p1998
aS'#000000'
p1999
aF12.0
aI0
aI00
aI00
aI00
aI00
aI00
aI00
aI00
aI00
aa(lp2000
I234378
aF248.416
aF100.064
aVp3
p2001
aS'dejavusans'
p2002
aS'#000000'
p2003
aF12.0
aI0
aI00
aI00
aI00
aI00
aI00
aI00
aI00
aI00
aa(lp2004
I85218
aF292.384
aF100.064
aVp3
p2005
aS'dejavusans'
p2006
aS'#000000'
p2007
aF12.0
aI0
aI00
aI00
aI00
aI00
aI00
aI00
aI00
aI00
aa(lp2008
I53202
aF318.772
aF100.064
aVp3
p2009
aS'dejavusans'
p2010
aS'#000000'
p2011
aF12.0
aI0
aI00
aI00
aI00
aI00
aI00
aI00
aI00
aI00
aa(lp2012
I63022
aF349.24
aF100.064
aVp3
p2013
aS'dejavusans'
p2014
aS'#000000'
p2015
aF12.0
aI0
aI00
aI00
aI00
aI00
aI00
aI00
aI00
aI00
aa(lp2016
I234378
aF399.112
aF100.064
aVp3
p2017
aS'dejavusans'
p2018
aS'#000000'
p2019
aF12.0
aI0
aI00
aI00
aI00
aI00
aI00
aI00
aI00
aI00
aa(lp2020
I234378
aF446.5466666666667
aF100.064
ag2017
aS'dejavusans'
p2021
aS'#000000'
p2022
aF12.0
aI0
aI00
aI00
aI00
aI00
aI00
aI00
aI00
aI00
aa(lp2023
I125458
aF108.1
aF114.964
aVp3
p2024
aS'dejavusans'
p2025
aS'#000000'
p2026
aF12.0
aI0
aI01
aI00
aI00
aI00
aI00
aI00
aI00
aI00
aa(lp2027
I144483
aF156.88
aF114.964
aVp3
p2028
aS'dejavusans'
p2029
aS'#000000'
p2030
aF12.0
aI0
aI00
aI00
aI00
aI00
aI00
aI00
aI00
aI00
aa(lp2031
I214386
aF175.66
aF114.964
aVp3
p2032
aS'dejavusans'
p2033
aS'#000000'
p2034
aF12.0
aI0
aI00
aI00
aI00
aI00
aI00
aI00
aI00
aI00
aa(lp2035
I85218
aF245.008
aF114.964
aVp3
p2036
aS'dejavusans'
p2037
aS'#000000'
p2038
aF12.0
aI0
aI00
aI00
aI00
aI00
aI00
aI00
aI00
aI00
aa(lp2039
I234378
aF271.396
aF114.964
aVp3
p2040
aS'dejavusans'
p2041
aS'#000000'
p2042
aF12.0
aI0
aI00
aI00
aI00
aI00
aI00
aI00
aI00
aI00
aa(lp2043
I106895
aF329.26
aF114.964
aVp3
p2044
aS'dejavusans'
p2045
aS'#000000'
p2046
aF12.0
aI0
aI01
aI01
aI00
aI00
aI00
aI00
aI00
aI00
aa(lp2047
I35885
aF365.344
aF114.964
aVp3
p2048
aS'dejavusans'
p2049
aS'#000000'
p2050
aF12.0
aI0
aI00
aI00
aI00
aI00
aI00
aI00
aI00
aI00
aa(lp2051
I17350
aF405.316
aF114.964
aVp3
p2052
aS'dejavusans'
p2053
aS'#000000'
p2054
aF12.0
aI0
aI00
aI00
aI00
aI00
aI00
aI00
aI00
aI00
aa(lp2055
I234378
aF433.912
aF114.964
aVp3
p2056
aS'dejavusans'
p2057
aS'#000000'
p2058
aF12.0
aI0
aI00
aI00
aI00
aI00
aI00
aI00
aI00
aI00
aa(lp2059
I234378
aF481.0586666666666
aF114.964
ag2056
aS'dejavusans'
p2060
aS'#000000'
p2061
aF12.0
aI0
aI00
aI00
aI00
aI00
aI00
aI00
aI00
aI00
aa(lp2062
I130791
aF108.1
aF129.864
aVp3
p2063
aS'dejavusans'
p2064
aS'#000000'
p2065
aF12.0
aI0
aI01
aI00
aI00
aI00
aI00
aI00
aI00
aI00
aa(lp2066
I3878
aF161.872
aF129.864
aVp3
p2067
aS'dejavusans'
p2068
aS'#000000'
p2069
aF12.0
aI0
aI00
aI00
aI00
aI00
aI00
aI00
aI00
aI00
aa(lp2070
I70210
aF230.032
aF129.864
aVp3
p2071
aS'dejavusans'
p2072
aS'#000000'
p2073
aF12.0
aI0
aI00
aI00
aI00
aI00
aI00
aI00
aI00
aI00
aa(lp2074
I234378
aF262.396
aF129.864
aVp3
p2075
aS'dejavusans'
p2076
aS'#000000'
p2077
aF12.0
aI0
aI00
aI00
aI00
aI00
aI00
aI00
aI00
aI00
aa(lp2078
I234378
aF297.4291428571429
aF129.864
ag2075
aS'dejavusans'
p2079
aS'#000000'
p2080
aF12.0
aI0
aI00
aI00
aI00
aI00
aI00
aI00
aI00
aI00
aa(lp2081
I130791
aF108.1
aF144.764
aVp3
p2082
aS'dejavusans'
p2083
aS'#000000'
p2084
aF12.0
aI0
aI01
aI00
aI00
aI00
aI00
aI00
aI00
aI00
aa(lp2085
I119502
aF161.872
aF144.764
aVp3
p2086
aS'dejavusans'
p2087
aS'#000000'
p2088
aF12.0
aI0
aI01
aI00
aI00
aI00
aI00
aI00
aI00
aI00
aa(lp2089
I85218
aF209.932
aF144.764
aVp3
p2090
aS'dejavusans'
p2091
aS'#000000'
p2092
aF12.0
aI0
aI00
aI00
aI00
aI00
aI00
aI00
aI00
aI00
aa(lp2093
I38649
aF236.32
aF144.764
aVp3
p2094
aS'dejavusans'
p2095
aS'#000000'
p2096
aF12.0
aI0
aI01
aI00
aI00
aI00
aI00
aI00
aI00
aI00
aa(lp2097
I56511
aF264.112
aF144.764
aVp3
p2098
aS'dejavusans'
p2099
aS'#000000'
p2100
aF12.0
aI0
aI00
aI00
aI00
aI00
aI00
aI00
aI00
aI00
aa(lp2101
I144489
aF297.988
aF144.764
aVp3
p2102
aS'dejavusans'
p2103
aS'#000000'
p2104
aF12.0
aI0
aI00
aI00
aI00
aI00
aI00
aI00
aI00
aI00
aa(lp2105
I123665
aF313.372
aF144.764
aVp3
p2106
aS'dejavusans'
p2107
aS'#000000'
p2108
aF12.0
aI0
aI00
aI00
aI00
aI00
aI00
aI00
aI00
aI00
aa(lp2109
I234378
aF377.414
aF144.764
ag2106
aS'dejavusans'
p2110
aS'#000000'
p2111
aF12.0
aI0
aI00
aI00
aI00
aI00
aI00
aI00
aI00
aI00
aa(lp2112
I138765
aF108.1
aF159.664
aVp3
p2113
aS'dejavusans'
p2114
aS'#000000'
p2115
aF12.0
aI0
aI01
aI00
aI00
aI00
aI00
aI00
aI00
aI00
aa(lp2116
I121847
aF155.896
aF159.664
aVp3
p2117
aS'dejavusans'
p2118
aS'#000000'
p2119
aF12.0
aI0
aI00
aI00
aI00
aI00
aI00
aI00
aI00
aI00
aa(lp2120
I234378
aF182.788
aF159.664
aVp3
p2121
aS'dejavusans'
p2122
aS'#000000'
p2123
aF12.0
aI0
aI00
aI00
aI00
aI00
aI00
aI00
aI00
aI00
aa(lp2124
I234378
aF220.432
aF159.664
aVp3
p2125
aS'dejavusans'
p2126
aS'#000000'
p2127
aF12.0
aI0
aI00
aI00
aI00
aI00
aI00
aI00
aI00
aI00
aa(lp2128
I234378
aF256.612
aF159.664
aVp3
p2129
aS'dejavusans'
p2130
aS'#000000'
p2131
aF12.0
aI0
aI01
aI00
aI00
aI00
aI00
aI00
aI00
aI00
aa(lp2132
I85218
aF288.388
aF159.664
aVp3
p2133
aS'dejavusans'
p2134
aS'#000000'
p2135
aF12.0
aI0
aI00
aI00
aI00
aI00
aI00
aI00
aI00
aI00
aa(lp2136
I234378
aF314.776
aF159.664
aVp3
p2137
aS'dejavusans'
p2138
aS'#000000'
p2139
aF12.0
aI0
aI01
aI00
aI00
aI00
aI00
aI00
aI00
aI00
aa(lp2140
I234378
aF365.14
aF159.664
aVp3
p2141
aS'dejavusans'
p2142
aS'#000000'
p2143
aF12.0
aI0
aI00
aI00
aI00
aI00
aI00
aI00
aI00
aI00
aa(lp2144
I234378
aF432.99454545454546
aF159.664
ag2141
aS'dejavusans'
p2145
aS'#000000'
p2146
aF12.0
aI0
aI00
aI00
aI00
aI00
aI00
aI00
aI00
aI00
aa(lp2147
I125458
aF108.1
aF174.564
aVp3
p2148
aS'dejavusans'
p2149
aS'#000000'
p2150
aF12.0
aI0
aI01
aI00
aI00
aI00
aI00
aI00
aI00
aI00
aa(lp2151
I144483
aF156.88
aF174.564
aVp3
p2152
aS'dejavusans'
p2153
aS'#000000'
p2154
aF12.0
aI0
aI00
aI00
aI00
aI00
aI00
aI00
aI00
aI00
aa(lp2155
I148996
aF175.66
aF174.564
aVp3
p2156
aS'dejavusans'
p2157
aS'#000000'
p2158
aF12.0
aI0
aI00
aI00
aI00
aI00
aI00
aI00
aI00
aI00
aa(lp2159
I85218
aF216.736
aF174.564
aVp3
p2160
aS'dejavusans'
p2161
aS'#000000'
p2162
aF12.0
aI0
aI00
aI00
aI00
aI00
aI00
aI00
aI00
aI00
aa(lp2163
I176767
aF243.124
aF174.564
aVp3
p2164
aS'dejavusans'
p2165
aS'#000000'
p2166
aF12.0
aI0
aI00
aI00
aI00
aI00
aI00
aI00
aI00
aI00
aa(lp2167
I141687
aF304.672
aF174.564
aVp3
p2168
aS'dejavusans'
p2169
aS'#000000'
p2170
aF12.0
aI0
aI00
aI00
aI00
aI00
aI00
aI00
aI00
aI00
aa(lp2171
I234378
aF368.45000000000005
aF174.564
ag2168
aS'dejavusans'
p2172
aS'#000000'
p2173
aF12.0
aI0
aI00
aI00
aI00
aI00
aI00
aI00
aI00
aI00
aa(lp2174
I234378
aF72.1
aF203.408
aVp3
p2175
aS'dejavusans'
p2176
aS'#000000'
p2177
aF14.0
aI1
aI01
aI01
aI00
aI00
aI00
aI00
aI00
aI00
aa(lp2178
I234378
aF144.648
aF203.408
aVp3
p2179
aS'dejavusans'
p2180
aS'#000000'
p2181
aF14.0
aI1
aI01
aI00
aI00
aI00
aI00
aI00
aI00
aI00
aa(lp2182
I234378
aF251.552
aF203.408
aVp3
p2183
aS'dejavusans'
p2184
aS'#000000'
p2185
aF14.0
aI1
aI01
aI00
aI00
aI00
aI00
aI00
aI00
aI00
aa(lp2186
I234378
aF275.03
aF203.408
ag2183
aS'dejavusans'
p2187
aS'#000000'
p2188
aF14.0
aI1
aI00
aI00
aI00
aI00
aI00
aI00
aI00
aI00
aa(lp2189
I234378
aF287.742
aF203.408
aVp3
p2190
aS'dejavusans'
p2191
aS'#000000'
p2192
aF14.0
aI1
aI01
aI00
aI00
aI00
aI00
aI00
aI00
aI00
aa(lp2193
I234378
aF310.9155
aF203.408
ag2190
aS'dejavusans'
p2194
aS'#000000'
p2195
aF14.0
aI1
aI00
aI00
aI00
aI00
aI00
aI00
aI00
aI00
aa(lp2196
I207716
aF72.1
aF219.692
aVp3
p2197
aS'dejavusans'
p2198
aS'#000000'
p2199
aF11.0
aI1
aI01
aI00
aI00
aI00
aI00
aI00
aI00
aI00
aa(lp2200
I132100
aF121.765
aF219.692
aVp3
p2201
aS'dejavusans'
p2202
aS'#000000'
p2203
aF11.0
aI1
aI01
aI00
aI00
aI00
aI00
aI00
aI00
aI00
aa(lp2204
I234378
aF172.9907777777778
aF219.692
ag2201
aS'dejavusans'
p2205
aS'#000000'
p2206
aF11.0
aI1
aI00
aI00
aI00
aI00
aI00
aI00
aI00
aI00
aa(lp2207
I234378
aF183.3
aF219.692
aVp3
p2208
aS'dejavusans'
p2209
aS'#000000'
p2210
aF11.0
aI0
aI00
aI00
aI01
aI01
aI01
aI00
aI00
aI00
aa(lp2211
I89483
aF197.3
aF219.661
aVp3
p2212
aS'dejavusans'
p2213
aS'#000000'
p2214
aF6.4
aI0
aI00
aI00
aI00
aI00
aI00
aI00
aI00
aI00
aa(lp2215
I234378
aF207.287
aF219.692
aVp3
p2216
aS'dejavusans'
p2217
aS'#000000'
p2218
aF11.0
aI0
aI01
aI00
aI01
aI00
aI00
aI00
aI00
aI00
aa(lp2219
I234378
aF258.228
aF219.692
aVp3
p2220
aS'dejavusans'
p2221
aS'#000000'
p2222
aF11.0
aI0
aI00
aI00
aI01
aI00
aI00
aI00
aI00
aI00
aa(lp2223
I89483
aF283.3
aF219.661
aVp3
p2224
aS'dejavusans'
p2225
aS'#000000'
p2226
aF6.4
aI0
aI00
aI00
aI00
aI00
aI00
aI00
aI00
aI00
aa(lp2227
I234378
aF293.287
aF219.692
aVp3
p2228
aS'dejavusans'
p2229
aS'#000000'
p2230
aF11.0
aI0
aI01
aI00
aI00
aI00
aI00
aI00
aI00
aI01
aa(lp2231
I234378
aF318.257
aF219.692
aVp3
p2232
aS'dejavusans'
p2233
aS'#000000'
p2234
aF11.0
aI0
aI00
aI00
aI01
aI01
aI01
aI00
aI00
aI00
aa(lp2235
I234378
aF72.1
aF245.364
aVp3
p2236
aS'dejavusans'
p2237
aS'#000000'
p2238
aF12.0
aI1
aI00
aI00
aI01
aI01
aI00
aI00
aI00
aI00
aa(lp2239
I234378
aF78.568
aF245.364
ag2236
aS'dejavusans'
p2240
aS'#000000'
p2241
aF12.0
aI1
aI00
aI00
aI00
aI00
aI00
aI00
aI00
aI00
aa(lp2242
I208065
aF249.268
aF245.364
aVp3
p2243
aS'dejavusans'
p2244
aS'#000000'
p2245
aF12.0
aI1
aI01
aI00
aI00
aI00
aI00
aI00
aI00
aI00
aa(lp2246
I174854
aF478.216
aF245.364
aVp3
p2247
aS'dejavusans'
p2248
aS'#000000'
p2249
aF12.0
aI1
aI01
aI00
aI00
aI00
aI00
aI00
aI00
aI00
aa(lp2250
I210461
aF72.1
aF259.364
aVp3
p2251
aS'dejavusans'
p2252
aS'#000000'
p2253
aF12.0
aI1
aI01
aI00
aI00
aI00
aI00
aI00
aI00
aI00
aa(lp2254
I340
aF111.58
aF259.364
aVp3
p2255
aS'dejavusans'
p2256
aS'#000000'
p2257
aF12.0
aI1
aI01
aI00
aI00
aI00
aI00
aI00
aI00
aI00
aa(lp2258
I234378
aF137.7304
aF259.364
ag2255
aS'dejavusans'
p2259
aS'#000000'
p2260
aF12.0
aI1
aI00
aI00
aI00
aI00
aI00
aI00
aI00
aI00
aa(lp2261
I234378
aF148.456
aF259.364
aVp3
p2262
aS'dejavusans'
p2263
aS'#000000'
p2264
aF12.0
aI1
aI00
aI00
aI01
aI01
aI00
aI00
aI00
aI00
aa(lp2265
I234378
aF72.1
aF287.292
aVp3
p2266
aS'dejavusans'
p2267
aS'#000000'
p2268
aF11.0
aI1
aI01
aI00
aI00
aI00
aI00
aI00
aI00
aI00
aa(lp2269
I234378
aF72.1
aF300.092
aVp3
p2270
aS'dejavusans'
p2271
aS'#000000'
p2272
aF11.0
aI1
aI01
aI00
aI00
aI00
aI00
aI00
aI00
aI00
aa(lp2273
I234378
aF150.112
aF300.092
ag2270
aS'dejavusans'
p2274
aS'#000000'
p2275
aF11.0
aI1
aI00
aI00
aI00
aI00
aI00
aI00
aI00
aI00
aa(lp2276
I84662
aF212.5
aF287.292
aVp3
p2277
aS'dejavusans'
p2278
aS'#000000'
p2279
aF11.0
aI0
aI01
aI00
aI00
aI00
aI00
aI00
aI00
aI00
aa(lp2280
I21716
aF244.972
aF287.292
aVp3
p2281
aS'dejavusans'
p2282
aS'#000000'
p2283
aF11.0
aI0
aI01
aI00
aI00
aI00
aI00
aI00
aI00
aI00
aa(lp2284
I234378
aF275.343
aF287.292
aVp3
p2285
aS'dejavusans'
p2286
aS'#000000'
p2287
aF11.0
aI0
aI00
aI00
aI00
aI00
aI00
aI00
aI00
aI00
aa(lp2288
I234378
aF280.52950000000004
aF287.292
ag2285
aS'dejavusans'
p2289
aS'#000000'
p2290
aF11.0
aI0
aI01
aI00
aI00
aI00
aI00
aI00
aI00
aI00
aa(lp2291
I234378
aF326.174
aF287.292
aVp3
p2292
aS'dejavusans'
p2293
aS'#000000'
p2294
aF11.0
aI0
aI01
aI00
aI00
aI00
aI00
aI00
aI00
aI00
aa(lp2295
I234378
aF379.1885
aF287.292
ag2292
aS'dejavusans'
p2296
aS'#000000'
p2297
aF11.0
aI0
aI00
aI00
aI00
aI00
aI00
aI00
aI00
aI00
aa(lp2298
I234378
aF392.174
aF287.292
aVp3
p2299
aS'dejavusans'
p2300
aS'#000000'
p2301
aF11.0
aI0
aI01
aI00
aI00
aI00
aI00
aI00
aI00
aI00
aa(lp2302
I21606
aF474.96
aF287.292
aVp3
p2303
aS'dejavusans'
p2304
aS'#000000'
p2305
aF11.0
aI0
aI01
aI00
aI00
aI00
aI00
aI00
aI00
aI00
aa(lp2306
I228643
aF212.5
aF300.092
aVp3
p2307
aS'dejavusans'
p2308
aS'#000000'
p2309
aF11.0
aI0
aI01
aI00
aI00
aI00
aI00
aI00
aI00
aI00
aa(lp2310
I234378
aF240.869
aF300.092
aVp3
p2311
aS'dejavusans'
p2312
aS'#000000'
p2313
aF11.0
aI0
aI00
aI00
aI00
aI00
aI00
aI00
aI00
aI00
aa(lp2314
I234378
aF244.7575
aF300.092
ag2311
aS'dejavusans'
p2315
aS'#000000'
p2316
aF11.0
aI0
aI00
aI00
aI00
aI00
aI00
aI00
aI00
aI00
aa(lp2317
I234378
aF253.937
aF300.092
aVp3
p2318
aS'dejavusans'
p2319
aS'#000000'
p2320
aF11.0
aI0
aI01
aI01
aI00
aI00
aI00
aI00
aI00
aI00
aa(lp2321
I234378
aF272.88725
aF300.092
ag2318
aS'dejavusans'
p2322
aS'#000000'
p2323
aF11.0
aI0
aI00
aI00
aI00
aI00
aI00
aI00
aI00
aI00
aa(lp2324
I234378
aF284.495
aF300.092
aVp3
p2325
aS'dejavusans'
p2326
aS'#000000'
p2327
aF11.0
aI0
aI01
aI01
aI00
aI00
aI00
aI00
aI00
aI00
aa(lp2328
I234378
aF308.6334
aF300.092
ag2325
aS'dejavusans'
p2329
aS'#000000'
p2330
aF11.0
aI0
aI00
aI00
aI00
aI00
aI00
aI00
aI00
aI00
aa(lp2331
I234378
aF319.959
aF300.092
aVp3
p2332
aS'dejavusans'
p2333
aS'#000000'
p2334
aF11.0
aI0
aI01
aI00
aI00
aI00
aI00
aI00
aI00
aI00
aa(lp2335
I234378
aF362.66833333333335
aF300.092
ag2332
aS'dejavusans'
p2336
aS'#000000'
p2337
aF11.0
aI0
aI00
aI00
aI00
aI00
aI00
aI00
aI00
aI00
aa(lp2338
I89217
aF378.688
aF300.092
aVp3
p2339
aS'dejavusans'
p2340
aS'#000000'
p2341
aF11.0
aI0
aI01
aI00
aI00
aI00
aI00
aI00
aI00
aI00
aa(lp2342
I85218
aF407.849
aF300.092
aVp3
p2343
aS'dejavusans'
p2344
aS'#000000'
p2345
aF11.0
aI0
aI00
aI00
aI00
aI00
aI00
aI00
aI00
aI00
aa(lp2346
I106895
aF433.809
aF300.092
aVp3
p2347
aS'dejavusans'
p2348
aS'#000000'
p2349
aF11.0
aI0
aI01
aI01
aI00
aI00
aI00
aI00
aI00
aI00
aa(lp2350
I35885
aF468.679
aF300.092
aVp3
p2351
aS'dejavusans'
p2352
aS'#000000'
p2353
aF11.0
aI0
aI00
aI00
aI00
aI00
aI00
aI00
aI00
aI00
aa(lp2354
I17350
aF507.124
aF300.092
aVp3
p2355
aS'dejavusans'
p2356
aS'#000000'
p2357
aF11.0
aI0
aI00
aI00
aI00
aI00
aI00
aI00
aI00
aI00
aa(lp2358
I234378
aF212.5
aF312.892
aVp3
p2359
aS'dejavusans'
p2360
aS'#000000'
p2361
aF11.0
aI0
aI00
aI00
aI00
aI00
aI00
aI00
aI00
aI00
aa(lp2362
I234378
aF72.1
aF325.692
aVp3
p2363
aS'dejavusans'
p2364
aS'#000000'
p2365
aF11.0
aI1
aI01
aI00
aI00
aI00
aI00
aI00
aI00
aI00
aa(lp2366
I234378
aF107.355
aF325.692
aVp3
p2367
aS'dejavusans'
p2368
aS'#000000'
p2369
aF11.0
aI1
aI00
aI00
aI00
aI00
aI00
aI00
aI00
aI00
aa(lp2370
I234378
aF212.5
aF325.692
aVp3
p2371
aS'dejavusans'
p2372
aS'#000000'
p2373
aF11.0
aI0
aI01
aI01
aI00
aI00
aI00
aI00
aI00
aI00
aa(lp2374
I234378
aF238.669
aF325.692
aVp3
p2375
aS'dejavusans'
p2376
aS'#000000'
p2377
aF11.0
aI0
aI00
aI00
aI01
aI01
aI00
aI00
aI00
aI00
aa(lp2378
I234378
aF243.9105
aF325.692
ag2375
aS'dejavusans'
p2379
aS'#000000'
p2380
aF11.0
aI0
aI00
aI00
aI00
aI00
aI00
aI00
aI00
aI00
aa(lp2381
I234378
aF249.15200000000002
aF325.692
ag2375
aS'dejavusans'
p2382
aS'#000000'
p2383
aF11.0
aI0
aI00
aI00
aI01
aI01
aI00
aI00
aI00
aI00
aa(lp2384
I234378
aF254.39350000000002
aF325.692
ag2375
aS'dejavusans'
p2385
aS'#000000'
p2386
aF11.0
aI0
aI00
aI00
aI00
aI00
aI00
aI00
aI00
aI00
aa(lp2387
I166176
aF266.829
aF325.692
aVp3
p2388
aS'dejavusans'
p2389
aS'#000000'
p2390
aF11.0
aI0
aI01
aI00
aI00
aI00
aI00
aI00
aI00
aI00
aa(lp2391
I234378
aF335.249
aF325.692
aVp3
p2392
aS'dejavusans'
p2393
aS'#000000'
p2394
aF11.0
aI0
aI00
aI00
aI00
aI00
aI00
aI00
aI00
aI00
aa(lp2395
I234378
aF341.0405
aF325.692
ag2392
aS'dejavusans'
p2396
aS'#000000'
p2397
aF11.0
aI0
aI01
aI01
aI00
aI00
aI00
aI00
aI00
aI00
aa(lp2398
I234378
aF358.415
aF325.692
ag2392
aS'dejavusans'
p2399
aS'#000000'
p2400
aF11.0
aI0
aI00
aI00
aI00
aI00
aI00
aI00
aI00
aI00
aa(lp2401
I234378
aF364.2065
aF325.692
ag2392
aS'dejavusans'
p2402
aS'#000000'
p2403
aF11.0
aI0
aI00
aI00
aI00
aI00
aI00
aI00
aI00
aI00
aa(lp2404
I234378
aF377.291
aF325.692
aVp3
p2405
aS'dejavusans'
p2406
aS'#000000'
p2407
aF11.0
aI0
aI01
aI00
aI00
aI00
aI00
aI00
aI00
aI00
aa(lp2408
I170895
aF434.546
aF325.692
aVp3
p2409
aS'dejavusans'
p2410
aS'#000000'
p2411
aF11.0
aI0
aI01
aI00
aI00
aI00
aI00
aI00
aI00
aI00
aa(lp2412
I12758
aF475.818
aF325.692
aVp3
p2413
aS'dejavusans'
p2414
aS'#000000'
p2415
aF11.0
aI0
aI01
aI00
aI00
aI00
aI00
aI00
aI00
aI00
aa(lp2416
I234378
aF524.4765
aF325.692
ag2413
aS'dejavusans'
p2417
aS'#000000'
p2418
aF11.0
aI0
aI00
aI00
aI00
aI00
aI00
aI00
aI00
aI00
aa(lp2419
I234378
aF212.5
aF338.492
aVp3
p2420
aS'dejavusans'
p2421
aS'#000000'
p2422
aF11.0
aI0
aI01
aI00
aI00
aI00
aI00
aI00
aI00
aI00
aa(lp2423
I234378
aF253.673
aF338.492
aVp3
p2424
aS'dejavusans'
p2425
aS'#000000'
p2426
aF11.0
aI0
aI00
aI00
aI01
aI01
aI00
aI00
aI00
aI00
aa(lp2427
I234378
aF258.9145
aF338.492
ag2424
aS'dejavusans'
p2428
aS'#000000'
p2429
aF11.0
aI0
aI00
aI00
aI00
aI00
aI00
aI00
aI00
aI00
aa(lp2430
I234378
aF264.15599999999995
aF338.492
ag2424
aS'dejavusans'
p2431
aS'#000000'
p2432
aF11.0
aI0
aI00
aI00
aI01
aI01
aI00
aI00
aI00
aI00
aa(lp2433
I234378
aF269.3974999999999
aF338.492
ag2424
aS'dejavusans'
p2434
aS'#000000'
p2435
aF11.0
aI0
aI00
aI00
aI00
aI00
aI00
aI00
aI00
aI00
aa(lp2436
I223319
aF278.126
aF338.492
aVp3
p2437
aS'dejavusans'
p2438
aS'#000000'
p2439
aF11.0
aI0
aI01
aI00
aI00
aI00
aI00
aI00
aI00
aI00
aa(lp2440
I58235
aF320.157
aF338.492
aVp3
p2441
aS'dejavusans'
p2442
aS'#000000'
p2443
aF11.0
aI0
aI01
aI00
aI00
aI00
aI00
aI00
aI00
aI00
aa(lp2444
I234378
aF342.0426
aF338.492
ag2441
aS'dejavusans'
p2445
aS'#000000'
p2446
aF11.0
aI0
aI00
aI00
aI00
aI00
aI00
aI00
aI00
aI00
aa(lp2447
I234378
aF351.1
aF338.492
aVp3
p2448
aS'dejavusans'
p2449
aS'#000000'
p2450
aF11.0
aI0
aI01
aI00
aI01
aI00
aI00
aI00
aI00
aI00
aa(lp2451
I177958
aF72.1
aF382.064
aVp3
p2452
aS'dejavusans'
p2453
aS'#000000'
p2454
aF12.0
aI1
aI01
aI00
aI00
aI00
aI00
aI00
aI00
aI00
aa(lp2455
I92750
aF124.348
aF382.064
aVp3
p2456
aS'dejavusans'
p2457
aS'#000000'
p2458
aF12.0
aI1
aI01
aI00
aI00
aI00
aI00
aI00
aI00
aI00
aa(lp2459
I234378
aF184.764
aF382.064
ag2456
aS'dejavusans'
p2460
aS'#000000'
p2461
aF12.0
aI1
aI00
aI00
aI00
aI00
aI00
aI00
aI00
aI00
aa(lp2462
I234378
aF72.1
aF408.864
aVp3
p2463
aS'dejavusans'
p2464
aS'#000000'
p2465
aF12.0
aI0
aI01
aI01
aI00
aI00
aI00
aI00
aI00
aI00
aa(lp2466
I208065
aF131.416
aF408.864
aVp3
p2467
aS'dejavusans'
p2468
aS'#000000'
p2469
aF12.0
aI0
aI01
aI00
aI00
aI00
aI00
aI00
aI00
aI00
aa(lp2470
I174854
aF195.268
aF408.864
aVp3
p2471
aS'dejavusans'
p2472
aS'#000000'
p2473
aF12.0
aI0
aI01
aI00
aI00
aI00
aI00
aI00
aI00
aI00
aa(lp2474
I234378
aF250.0
aF408.864
aVp3
p2475
aS'dejavusans'
p2476
aS'#000000'
p2477
aF12.0
aI0
aI00
aI00
aI00
aI00
aI00
aI00
aI00
aI00
aa(lp2478
I234378
aF256.3936
aF408.864
ag2475
aS'dejavusans'
p2479
aS'#000000'
p2480
aF12.0
aI0
aI01
aI01
aI00
aI00
aI00
aI00
aI00
aI00
aa(lp2481
I234378
aF275.57439999999997
aF408.864
ag2475
aS'dejavusans'
p2482
aS'#000000'
p2483
aF12.0
aI0
aI00
aI00
aI00
aI00
aI00
aI00
aI00
aI00
aa(lp2484
I22474
aF289.864
aF408.864
aVp3
p2485
aS'dejavusans'
p2486
aS'#000000'
p2487
aF12.0
aI0
aI00
aI00
aI00
aI00
aI00
aI00
aI00
aI00
aa(lp2488
I166593
aF307.336
aF408.864
aVp3
p2489
aS'dejavusans'
p2490
aS'#000000'
p2491
aF12.0
aI0
aI00
aI00
aI00
aI00
aI00
aI00
aI00
aI00
aa(lp2492
I137949
aF322.612
aF408.864
aVp3
p2493
aS'dejavusans'
p2494
aS'#000000'
p2495
aF12.0
aI0
aI00
aI00
aI00
aI00
aI00
aI00
aI00
aI00
aa(lp2496
I64666
aF346.7295384615385
aF408.864
ag2493
aS'dejavusans'
p2497
aS'#000000'
p2498
aF12.0
aI0
aI00
aI00
aI00
aI00
aI00
aI00
aI00
aI00
aa(lp2499
I208065
aF405.736
aF408.864
aVp3
p2500
aS'dejavusans'
p2501
aS'#000000'
p2502
aF12.0
aI0
aI00
aI00
aI00
aI00
aI00
aI00
aI00
aI00
aa(lp2503
I234378
aF470.584
aF408.864
aVp3
p2504
aS'dejavusans'
p2505
aS'#000000'
p2506
aF12.0
aI0
aI00
aI00
aI00
aI00
aI00
aI00
aI00
aI00
aa(lp2507
I14859
aF72.1
aF422.864
aVp3
p2508
aS'dejavusans'
p2509
aS'#000000'
p2510
aF12.0
aI0
aI00
aI00
aI00
aI00
aI00
aI00
aI00
aI00
aa(lp2511
I175989
aF129.448
aF422.864
aVp3
p2512
aS'dejavusans'
p2513
aS'#000000'
p2514
aF12.0
aI0
aI00
aI00
aI00
aI00
aI00
aI00
aI00
aI00
aa(lp2515
I234378
aF163.624
aF422.864
aVp3
p2516
aS'dejavusans'
p2517
aS'#000000'
p2518
aF12.0
aI0
aI00
aI00
aI00
aI00
aI00
aI00
aI00
aI00
aa(lp2519
I234378
aF210.784
aF422.864
aVp3
p2520
aS'dejavusans'
p2521
aS'#000000'
p2522
aF12.0
aI0
aI00
aI00
aI00
aI00
aI00
aI00
aI00
aI00
aa(lp2523
I89480
aF252.952
aF422.864
aVp3
p2524
aS'dejavusans'
p2525
aS'#000000'
p2526
aF12.0
aI0
aI00
aI00
aI00
aI00
aI00
aI00
aI00
aI00
aa(lp2527
I123814
aF274.84
aF422.864
aVp3
p2528
aS'dejavusans'
p2529
aS'#000000'
p2530
aF12.0
aI0
aI00
aI00
aI00
aI00
aI00
aI00
aI00
aI00
aa(lp2531
I218852
aF333.592
aF422.864
aVp3
p2532
aS'dejavusans'
p2533
aS'#000000'
p2534
aF12.0
aI0
aI00
aI00
aI00
aI00
aI00
aI00
aI00
aI00
aa(lp2535
I234378
aF371.368
aF422.864
aVp3
p2536
aS'dejavusans'
p2537
aS'#000000'
p2538
aF12.0
aI0
aI00
aI00
aI00
aI00
aI00
aI00
aI00
aI00
aa(lp2539
I211048
aF444.304
aF422.864
aVp3
p2540
aS'dejavusans'
p2541
aS'#000000'
p2542
aF12.0
aI0
aI00
aI00
aI00
aI00
aI00
aI00
aI00
aI00
aa(lp2543
I70817
aF72.1
aF436.864
aVp3
p2544
aS'dejavusans'
p2545
aS'#000000'
p2546
aF12.0
aI0
aI00
aI00
aI00
aI00
aI00
aI00
aI00
aI00
aa(lp2547
I234378
aF121.672
aF436.864
aVp3
p2548
aS'dejavusans'
p2549
aS'#000000'
p2550
aF12.0
aI0
aI00
aI00
aI00
aI00
aI00
aI00
aI00
aI00
aa(lp2551
I89480
aF166.72
aF436.864
aVp3
p2552
aS'dejavusans'
p2553
aS'#000000'
p2554
aF12.0
aI0
aI00
aI00
aI00
aI00
aI00
aI00
aI00
aI00
aa(lp2555
I95897
aF183.208
aF436.864
aVp3
p2556
aS'dejavusans'
p2557
aS'#000000'
p2558
aF12.0
aI0
aI00
aI00
aI00
aI00
aI00
aI00
aI00
aI00
aa(lp2559
I144483
aF232.852
aF436.864
aVp3
p2560
aS'dejavusans'
p2561
aS'#000000'
p2562
aF12.0
aI0
aI00
aI00
aI00
aI00
aI00
aI00
aI00
aI00
aa(lp2563
I234378
aF252.232
aF436.864
aVp3
p2564
aS'dejavusans'
p2565
aS'#000000'
p2566
aF12.0
aI0
aI00
aI00
aI00
aI00
aI00
aI00
aI00
aI00
aa(lp2567
I213751
aF310.768
aF436.864
aVp3
p2568
aS'dejavusans'
p2569
aS'#000000'
p2570
aF12.0
aI0
aI00
aI00
aI00
aI00
aI00
aI00
aI00
aI00
aa(lp2571
I234378
aF367.68399999999997
aF436.864
ag2568
aS'dejavusans'
p2572
aS'#000000'
p2573
aF12.0
aI0
aI00
aI00
aI00
aI00
aI00
aI00
aI00
aI00
aa(lp2574
I234378
aF378.484
aF436.864
aVp3
p2575
aS'dejavusans'
p2576
aS'#000000'
p2577
aF12.0
aI0
aI01
aI01
aI00
aI00
aI00
aI00
aI00
aI00
aa(lp2578
I234378
aF405.556
aF436.864
aVp3
p2579
aS'dejavusans'
p2580
aS'#000000'
p2581
aF12.0
aI0
aI00
aI00
aI00
aI00
aI00
aI00
aI00
aI00
aa(lp2582
I234378
aF480.976
aF436.864
aVp3
p2583
aS'dejavusans'
p2584
aS'#000000'
p2585
aF12.0
aI0
aI00
aI00
aI00
aI00
aI00
aI00
aI00
aI00
aa(lp2586
I10716
aF72.1
aF450.864
aVp3
p2587
aS'dejavusans'
p2588
aS'#000000'
p2589
aF12.0
aI0
aI00
aI00
aI00
aI00
aI00
aI00
aI00
aI00
aa(lp2590
I234378
aF98.764
aF450.864
aVp3
p2591
aS'dejavusans'
p2592
aS'#000000'
p2593
aF12.0
aI0
aI00
aI00
aI00
aI00
aI00
aI00
aI00
aI00
aa(lp2594
I81847
aF170.692
aF450.864
aVp3
p2595
aS'dejavusans'
p2596
aS'#000000'
p2597
aF12.0
aI0
aI00
aI00
aI00
aI00
aI00
aI00
aI00
aI00
aa(lp2598
I85218
aF263.908
aF450.864
aVp3
p2599
aS'dejavusans'
p2600
aS'#000000'
p2601
aF12.0
aI0
aI00
aI00
aI00
aI00
aI00
aI00
aI00
aI00
aa(lp2602
I207511
aF292.564
aF450.864
aVp3
p2603
aS'dejavusans'
p2604
aS'#000000'
p2605
aF12.0
aI0
aI00
aI00
aI00
aI00
aI00
aI00
aI00
aI00
aa(lp2606
I52993
aF356.908
aF450.864
aVp3
p2607
aS'dejavusans'
p2608
aS'#000000'
p2609
aF12.0
aI0
aI00
aI00
aI00
aI00
aI00
aI00
aI00
aI00
aa(lp2610
I45899
aF417.436
aF450.864
aVp3
p2611
aS'dejavusans'
p2612
aS'#000000'
p2613
aF12.0
aI0
aI00
aI00
aI00
aI00
aI00
aI00
aI00
aI00
aa(lp2614
I89480
aF460.888
aF450.864
aVp3
p2615
aS'dejavusans'
p2616
aS'#000000'
p2617
aF12.0
aI0
aI00
aI00
aI00
aI00
aI00
aI00
aI00
aI00
aa(lp2618
I124634
aF478.96
aF450.864
aVp3
p2619
aS'dejavusans'
p2620
aS'#000000'
p2621
aF12.0
aI0
aI00
aI00
aI00
aI00
aI00
aI00
aI00
aI00
aa(lp2622
I194354
aF72.1
aF464.864
aVp3
p2623
aS'dejavusans'
p2624
aS'#000000'
p2625
aF12.0
aI0
aI00
aI00
aI00
aI00
aI00
aI00
aI00
aI00
aa(lp2626
I231432
aF97.276
aF464.864
aVp3
p2627
aS'dejavusans'
p2628
aS'#000000'
p2629
aF12.0
aI0
aI00
aI00
aI00
aI00
aI00
aI00
aI00
aI00
aa(lp2630
I70210
aF150.724
aF464.864
aVp3
p2631
aS'dejavusans'
p2632
aS'#000000'
p2633
aF12.0
aI0
aI00
aI00
aI00
aI00
aI00
aI00
aI00
aI00
aa(lp2634
I190806
aF184.672
aF464.864
aVp3
p2635
aS'dejavusans'
p2636
aS'#000000'
p2637
aF12.0
aI0
aI00
aI00
aI00
aI00
aI00
aI00
aI00
aI00
aa(lp2638
I85235
aF206.632
aF464.864
aVp3
p2639
aS'dejavusans'
p2640
aS'#000000'
p2641
aF12.0
aI0
aI00
aI00
aI00
aI00
aI00
aI00
aI00
aI00
aa(lp2642
I81847
aF234.196
aF464.864
aVp3
p2643
aS'dejavusans'
p2644
aS'#000000'
p2645
aF12.0
aI0
aI00
aI00
aI00
aI00
aI00
aI00
aI00
aI00
aa(lp2646
I234378
aF319.092
aF464.864
ag2643
aS'dejavusans'
p2647
aS'#000000'
p2648
aF12.0
aI0
aI00
aI00
aI00
aI00
aI00
aI00
aI00
aI00
aa(lp2649
I135639
aF330.736
aF464.864
aVp3
p2650
aS'dejavusans'
p2651
aS'#000000'
p2652
aF12.0
aI0
aI01
aI00
aI00
aI00
aI00
aI00
aI00
aI00
aa(lp2653
I21512
aF347.416
aF464.864
aVp3
p2654
aS'dejavusans'
p2655
aS'#000000'
p2656
aF12.0
aI0
aI00
aI00
aI00
aI00
aI00
aI00
aI00
aI00
aa(lp2657
I89480
aF401.764
aF464.864
aVp3
p2658
aS'dejavusans'
p2659
aS'#000000'
p2660
aF12.0
aI0
aI00
aI00
aI00
aI00
aI00
aI00
aI00
aI00
aa(lp2661
I175989
aF419.344
aF464.864
aVp3
p2662
aS'dejavusans'
p2663
aS'#000000'
p2664
aF12.0
aI0
aI00
aI00
aI00
aI00
aI00
aI00
aI00
aI00
aa(lp2665
I234378
aF441.8272
aF464.864
ag2662
aS'dejavusans'
p2666
aS'#000000'
p2667
aF12.0
aI0
aI00
aI00
aI00
aI00
aI00
aI00
aI00
aI00
aa(lp2668
I234378
aF453.028
aF464.864
aVp3
p2669
aS'dejavusans'
p2670
aS'#000000'
p2671
aF12.0
aI0
aI01
aI01
aI00
aI00
aI00
aI00
aI00
aI00
aa(lp2672
I234378
aF481.204
aF464.864
aVp3
p2673
aS'dejavusans'
p2674
aS'#000000'
p2675
aF12.0
aI0
aI00
aI00
aI00
aI00
aI00
aI00
aI00
aI00
aa(lp2676
I49042
aF508.372
aF464.864
aVp3
p2677
aS'dejavusans'
p2678
aS'#000000'
p2679
aF12.0
aI0
aI00
aI00
aI00
aI00
aI00
aI00
aI00
aI00
aa(lp2680
I41232
aF72.1
aF478.864
aVp3
p2681
aS'dejavusans'
p2682
aS'#000000'
p2683
aF12.0
aI0
aI00
aI00
aI00
aI00
aI00
aI00
aI00
aI00
aa(lp2684
I61342
aF147.64
aF478.864
aVp3
p2685
aS'dejavusans'
p2686
aS'#000000'
p2687
aF12.0
aI0
aI00
aI00
aI00
aI00
aI00
aI00
aI00
aI00
aa(lp2688
I234378
aF178.42
aF478.864
aVp3
p2689
aS'dejavusans'
p2690
aS'#000000'
p2691
aF12.0
aI0
aI00
aI00
aI00
aI00
aI00
aI00
aI00
aI00
aa(lp2692
I8691
aF245.476
aF478.864
aVp3
p2693
aS'dejavusans'
p2694
aS'#000000'
p2695
aF12.0
aI0
aI00
aI00
aI00
aI00
aI00
aI00
aI00
aI00
aa(lp2696
I114954
aF287.656
aF478.864
aVp3
p2697
aS'dejavusans'
p2698
aS'#000000'
p2699
aF12.0
aI0
aI00
aI00
aI00
aI00
aI00
aI00
aI00
aI00
aa(lp2700
I106530
aF340.516
aF478.864
aVp3
p2701
aS'dejavusans'
p2702
aS'#000000'
p2703
aF12.0
aI0
aI00
aI00
aI00
aI00
aI00
aI00
aI00
aI00
aa(lp2704
I234378
aF380.776
aF478.864
aVp3
p2705
aS'dejavusans'
p2706
aS'#000000'
p2707
aF12.0
aI0
aI01
aI00
aI00
aI00
aI00
aI00
aI00
aI00
aa(lp2708
I144503
aF457.816
aF478.864
aVp3
p2709
aS'dejavusans'
p2710
aS'#000000'
p2711
aF12.0
aI0
aI00
aI00
aI00
aI00
aI00
aI00
aI00
aI00
aa(lp2712
I234378
aF473.908
aF478.864
aVp3
p2713
aS'dejavusans'
p2714
aS'#000000'
p2715
aF12.0
aI0
aI00
aI00
aI00
aI00
aI00
aI00
aI00
aI00
aa(lp2716
I234378
aF520.612
aF478.864
ag2713
aS'dejavusans'
p2717
aS'#000000'
p2718
aF12.0
aI0
aI00
aI00
aI00
aI00
aI00
aI00
aI00
aI00
aa(lp2719
I234378
aF72.1
aF516.164
aVp3
p2720
aS'dejavusans'
p2721
aS'#000000'
p2722
aF12.0
aI1
aI01
aI00
aI00
aI00
aI00
aI00
aI00
aI00
aa(lp2723
I234378
aF127.756
aF516.164
aVp3
p2724
aS'dejavusans'
p2725
aS'#000000'
p2726
aF12.0
aI1
aI01
aI00
aI00
aI00
aI00
aI00
aI00
aI00
aa(lp2727
I234378
aF232.5804705882353
aF516.164
ag2724
aS'dejavusans'
p2728
aS'#000000'
p2729
aF12.0
aI1
aI00
aI00
aI00
aI00
aI00
aI00
aI00
aI00
aa(lp2730
I234378
aF108.1
aF544.164
aVp3
p2731
aS'dejavusans'
p2732
aS'#000000'
p2733
aF12.0
aI0
aI01
aI00
aI00
aI00
aI00
aI00
aI00
aI00
aa(lp2734
I234378
aF176.248
aF544.164
aVp3
p2735
aS'dejavusans'
p2736
aS'#000000'
p2737
aF12.0
aI0
aI00
aI00
aI00
aI00
aI00
aI00
aI00
aI00
aa(lp2738
I190806
aF246.388
aF544.164
aVp3
p2739
aS'dejavusans'
p2740
aS'#000000'
p2741
aF12.0
aI0
aI00
aI00
aI00
aI00
aI00
aI00
aI00
aI00
aa(lp2742
I234378
aF266.752
aF544.164
aVp3
p2743
aS'dejavusans'
p2744
aS'#000000'
p2745
aF12.0
aI0
aI00
aI00
aI00
aI00
aI00
aI00
aI00
aI00
aa(lp2746
I208065
aF324.22
aF544.164
aVp3
p2747
aS'dejavusans'
p2748
aS'#000000'
p2749
aF12.0
aI0
aI00
aI00
aI00
aI00
aI00
aI00
aI00
aI00
aa(lp2750
I144483
aF384.988
aF544.164
aVp3
p2751
aS'dejavusans'
p2752
aS'#000000'
p2753
aF12.0
aI0
aI00
aI00
aI00
aI00
aI00
aI00
aI00
aI00
aa(lp2754
I52532
aF403.684
aF544.164
aVp3
p2755
aS'dejavusans'
p2756
aS'#000000'
p2757
aF12.0
aI0
aI00
aI00
aI00
aI00
aI00
aI00
aI00
aI00
aa(lp2758
I234378
aF458.452
aF544.164
aVp3
p2759
aS'dejavusans'
p2760
aS'#000000'
p2761
aF12.0
aI0
aI00
aI00
aI00
aI00
aI00
aI00
aI00
aI00
aa(lp2762
I234378
aF499.213
aF544.164
ag2759
aS'dejavusans'
p2763
aS'#000000'
p2764
aF12.0
aI0
aI00
aI00
aI00
aI00
aI00
aI00
aI00
aI00
aa(lp2765
I62551
aF108.1
aF559.064
aVp3
p2766
aS'dejavusans'
p2767
aS'#000000'
p2768
aF12.0
aI0
aI01
aI00
aI00
aI00
aI00
aI00
aI00
aI00
aa(lp2769
I38577
aF142.78
aF559.064
aVp3
p2770
aS'dejavusans'
p2771
aS'#000000'
p2772
aF12.0
aI0
aI00
aI00
aI00
aI00
aI00
aI00
aI00
aI00
aa(lp2773
I234378
aF176.56
aF559.064
aVp3
p2774
aS'dejavusans'
p2775
aS'#000000'
p2776
aF12.0
aI0
aI00
aI00
aI00
aI00
aI00
aI00
aI00
aI00
aa(lp2777
I185304
aF274.78
aF559.064
aVp3
p2778
aS'dejavusans'
p2779
aS'#000000'
p2780
aF12.0
aI0
aI00
aI00
aI00
aI00
aI00
aI00
aI00
aI00
aa(lp2781
I144483
aF303.76
aF559.064
aVp3
p2782
aS'dejavusans'
p2783
aS'#000000'
p2784
aF12.0
aI0
aI00
aI00
aI00
aI00
aI00
aI00
aI00
aI00
aa(lp2785
I3878
aF322.552
aF559.064
aVp3
p2786
aS'dejavusans'
p2787
aS'#000000'
p2788
aF12.0
aI0
aI00
aI00
aI00
aI00
aI00
aI00
aI00
aI00
aa(lp2789
I12878
aF390.796
aF559.064
aVp3
p2790
aS'dejavusans'
p2791
aS'#000000'
p2792
aF12.0
aI0
aI00
aI00
aI00
aI00
aI00
aI00
aI00
aI00
aa(lp2793
I234378
aF464.243
aF559.064
ag2790
aS'dejavusans'
p2794
aS'#000000'
p2795
aF12.0
aI0
aI00
aI00
aI00
aI00
aI00
aI00
aI00
aI00
aa(lp2796
I38577
aF108.1
aF573.964
aVp3
p2797
aS'dejavusans'
p2798
aS'#000000'
p2799
aF12.0
aI0
aI01
aI00
aI00
aI00
aI00
aI00
aI00
aI00
aa(lp2800
I26776
aF143.476
aF573.964
aVp3
p2801
aS'dejavusans'
p2802
aS'#000000'
p2803
aF12.0
aI0
aI01
aI01
aI00
aI00
aI00
aI00
aI00
aI00
aa(lp2804
I31575
aF168.856
aF573.964
aVp3
p2805
aS'dejavusans'
p2806
aS'#000000'
p2807
aF12.0
aI0
aI01
aI01
aI00
aI00
aI00
aI00
aI00
aI00
aa(lp2808
I185304
aF181.864
aF573.964
aVp3
p2809
aS'dejavusans'
p2810
aS'#000000'
p2811
aF12.0
aI0
aI00
aI00
aI00
aI00
aI00
aI00
aI00
aI00
aa(lp2812
I190806
aF210.94
aF573.964
aVp3
p2813
aS'dejavusans'
p2814
aS'#000000'
p2815
aF12.0
aI0
aI00
aI00
aI00
aI00
aI00
aI00
aI00
aI00
aa(lp2816
I52532
aF231.232
aF573.964
aVp3
p2817
aS'dejavusans'
p2818
aS'#000000'
p2819
aF12.0
aI0
aI00
aI00
aI00
aI00
aI00
aI00
aI00
aI00
aa(lp2820
I234378
aF285.988
aF573.964
aVp3
p2821
aS'dejavusans'
p2822
aS'#000000'
p2823
aF12.0
aI0
aI00
aI00
aI00
aI00
aI00
aI00
aI00
aI00
aa(lp2824
I234378
aF363.5486153846154
aF573.964
ag2821
aS'dejavusans'
p2825
aS'#000000'
p2826
aF12.0
aI0
aI00
aI00
aI00
aI00
aI00
aI00
aI00
aI00
aa(lp2827
I234378
aF108.1
aF588.864
aVp3
p2828
aS'dejavusans'
p2829
aS'#000000'
p2830
aF12.0
aI0
aI01
aI00
aI00
aI00
aI00
aI00
aI00
aI00
aa(lp2831
I234378
aF152.272
aF588.864
aVp3
p2832
aS'dejavusans'
p2833
aS'#000000'
p2834
aF12.0
aI0
aI00
aI00
aI00
aI00
aI00
aI00
aI00
aI00
aa(lp2835
I6594
aF193.132
aF588.864
aVp3
p2836
aS'dejavusans'
p2837
aS'#000000'
p2838
aF12.0
aI0
aI00
aI00
aI00
aI00
aI00
aI00
aI00
aI00
aa(lp2839
I125078
aF235.696
aF588.864
aVp3
p2840
aS'dejavusans'
p2841
aS'#000000'
p2842
aF12.0
aI0
aI00
aI00
aI00
aI00
aI00
aI00
aI00
aI00
aa(lp2843
I85218
aF281.08
aF588.864
aVp3
p2844
aS'dejavusans'
p2845
aS'#000000'
p2846
aF12.0
aI0
aI00
aI00
aI00
aI00
aI00
aI00
aI00
aI00
aa(lp2847
I3878
aF307.468
aF588.864
aVp3
p2848
aS'dejavusans'
p2849
aS'#000000'
p2850
aF12.0
aI0
aI00
aI00
aI00
aI00
aI00
aI00
aI00
aI00
aa(lp2851
I12878
aF375.628
aF588.864
aVp3
p2852
aS'dejavusans'
p2853
aS'#000000'
p2854
aF12.0
aI0
aI00
aI00
aI00
aI00
aI00
aI00
aI00
aI00
aa(lp2855
I234378
aF449.086
aF588.864
ag2852
aS'dejavusans'
p2856
aS'#000000'
p2857
aF12.0
aI0
aI00
aI00
aI00
aI00
aI00
aI00
aI00
aI00
aa(lp2858
I130791
aF108.1
aF603.764
aVp3
p2859
aS'dejavusans'
p2860
aS'#000000'
p2861
aF12.0
aI0
aI01
aI00
aI00
aI00
aI00
aI00
aI00
aI00
aa(lp2862
I199810
aF161.872
aF603.764
aVp3
p2863
aS'dejavusans'
p2864
aS'#000000'
p2865
aF12.0
aI0
aI00
aI00
aI00
aI00
aI00
aI00
aI00
aI00
aa(lp2866
I25691
aF190.55
aF603.764
ag2863
aS'dejavusans'
p2867
aS'#000000'
p2868
aF12.0
aI0
aI00
aI00
aI00
aI00
aI00
aI00
aI00
aI00
aa(lp2869
I43275
aF221.104
aF603.764
aVp3
p2870
aS'dejavusans'
p2871
aS'#000000'
p2872
aF12.0
aI0
aI00
aI00
aI00
aI00
aI00
aI00
aI00
aI00
aa(lp2873
I144489
aF269.776
aF603.764
aVp3
p2874
aS'dejavusans'
p2875
aS'#000000'
p2876
aF12.0
aI0
aI00
aI00
aI00
aI00
aI00
aI00
aI00
aI00
aa(lp2877
I63022
aF285.172
aF603.764
aVp3
p2878
aS'dejavusans'
p2879
aS'#000000'
p2880
aF12.0
aI0
aI00
aI00
aI00
aI00
aI00
aI00
aI00
aI00
aa(lp2881
I234378
aF328.8835
aF603.764
ag2878
aS'dejavusans'
p2882
aS'#000000'
p2883
aF12.0
aI0
aI00
aI00
aI00
aI00
aI00
aI00
aI00
aI00
aa(lp2884
I125458
aF108.1
aF618.664
aVp3
p2885
aS'dejavusans'
p2886
aS'#000000'
p2887
aF12.0
aI0
aI01
aI00
aI00
aI00
aI00
aI00
aI00
aI00
aa(lp2888
I162068
aF159.556
aF618.664
aVp3
p2889
aS'dejavusans'
p2890
aS'#000000'
p2891
aF12.0
aI0
aI00
aI00
aI00
aI00
aI00
aI00
aI00
aI00
aa(lp2892
I169745
aF199.312
aF618.664
aVp3
p2893
aS'dejavusans'
p2894
aS'#000000'
p2895
aF12.0
aI0
aI00
aI00
aI00
aI00
aI00
aI00
aI00
aI00
aa(lp2896
I210461
aF231.196
aF618.664
aVp3
p2897
aS'dejavusans'
p2898
aS'#000000'
p2899
aF12.0
aI0
aI00
aI00
aI00
aI00
aI00
aI00
aI00
aI00
aa(lp2900
I234378
aF268.852
aF618.664
aVp3
p2901
aS'dejavusans'
p2902
aS'#000000'
p2903
aF12.0
aI0
aI00
aI00
aI00
aI00
aI00
aI00
aI00
aI00
aa(lp2904
I190806
aF332.284
aF618.664
aVp3
p2905
aS'dejavusans'
p2906
aS'#000000'
p2907
aF12.0
aI0
aI00
aI00
aI00
aI00
aI00
aI00
aI00
aI00
aa(lp2908
I234378
aF355.252
aF618.664
aVp3
p2909
aS'dejavusans'
p2910
aS'#000000'
p2911
aF12.0
aI0
aI00
aI00
aI00
aI00
aI00
aI00
aI00
aI00
aa(lp2912
I80364
aF429.688
aF618.664
aVp3
p2913
aS'dejavusans'
p2914
aS'#000000'
p2915
aF12.0
aI0
aI00
aI00
aI00
aI00
aI00
aI00
aI00
aI00
aa(lp2916
I234378
aF461.044
aF618.664
aVp3
p2917
aS'dejavusans'
p2918
aS'#000000'
p2919
aF12.0
aI0
aI00
aI00
aI00
aI00
aI00
aI00
aI00
aI00
aa(lp2920
I16331
aF517.096
aF618.664
aVp3
p2921
aS'dejavusans'
p2922
aS'#000000'
p2923
aF12.0
aI0
aI00
aI00
aI00
aI00
aI00
aI00
aI00
aI00
aa(lp2924
I36088
aF108.1
aF633.564
aVp3
p2925
aS'dejavusans'
p2926
aS'#000000'
p2927
aF12.0
aI0
aI00
aI00
aI00
aI00
aI00
aI00
aI00
aI00
aa(lp2928
I16331
aF135.784
aF633.564
aVp3
p2929
aS'dejavusans'
p2930
aS'#000000'
p2931
aF12.0
aI0
aI00
aI00
aI00
aI00
aI00
aI00
aI00
aI00
aa(lp2932
I106582
aF153.184
aF633.564
aVp3
p2933
aS'dejavusans'
p2934
aS'#000000'
p2935
aF12.0
aI0
aI00
aI00
aI00
aI00
aI00
aI00
aI00
aI00
aa(lp2936
I234378
aF217.156
aF633.564
aVp3
p2937
aS'dejavusans'
p2938
aS'#000000'
p2939
aF12.0
aI0
aI00
aI00
aI00
aI00
aI00
aI00
aI00
aI00
aa(lp2940
I234378
aF268.036
aF633.564
aVp3
p2941
aS'dejavusans'
p2942
aS'#000000'
p2943
aF12.0
aI0
aI00
aI00
aI00
aI00
aI00
aI00
aI00
aI00
aa(lp2944
I63022
aF332.98
aF633.564
aVp3
p2945
aS'dejavusans'
p2946
aS'#000000'
p2947
aF12.0
aI0
aI00
aI00
aI00
aI00
aI00
aI00
aI00
aI00
aa(lp2948
I234378
aF376.62850000000003
aF633.564
ag2945
aS'dejavusans'
p2949
aS'#000000'
p2950
aF12.0
aI0
aI00
aI00
aI00
aI00
aI00
aI00
aI00
aI00
aa(lp2951
I31654
aF108.1
aF647.564
aVp3
p2952
aS'dejavusans'
p2953
aS'#000000'
p2954
aF12.0
aI0
aI01
aI00
aI00
aI00
aI00
aI00
aI00
aI00
aa(lp2955
I106895
aF166.828
aF647.564
aVp3
p2956
aS'dejavusans'
p2957
aS'#000000'
p2958
aF12.0
aI0
aI01
aI01
aI00
aI00
aI00
aI00
aI00
aI00
aa(lp2959
I35885
aF206.896
aF647.564
aVp3
p2960
aS'dejavusans'
p2961
aS'#000000'
p2962
aF12.0
aI0
aI00
aI00
aI00
aI00
aI00
aI00
aI00
aI00
aa(lp2963
I17350
aF250.948
aF647.564
aVp3
p2964
aS'dejavusans'
p2965
aS'#000000'
p2966
aF12.0
aI0
aI01
aI00
aI00
aI00
aI00
aI00
aI00
aI00
aa(lp2967
I234378
aF284.908
aF647.564
aVp3
p2968
aS'dejavusans'
p2969
aS'#000000'
p2970
aF12.0
aI0
aI01
aI00
aI00
aI00
aI00
aI00
aI00
aI00
aa(lp2971
I135639
aF343.348
aF647.564
aVp3
p2972
aS'dejavusans'
p2973
aS'#000000'
p2974
aF12.0
aI0
aI00
aI00
aI00
aI00
aI00
aI00
aI00
aI00
aa(lp2975
I199810
aF362.116
aF647.564
aVp3
p2976
aS'dejavusans'
p2977
aS'#000000'
p2978
aF12.0
aI0
aI00
aI00
aI00
aI00
aI00
aI00
aI00
aI00
aa(lp2979
I25691
aF390.84799999999996
aF647.564
ag2976
aS'dejavusans'
p2980
aS'#000000'
p2981
aF12.0
aI0
aI00
aI00
aI00
aI00
aI00
aI00
aI00
aI00
aa(lp2982
I43275
aF425.344
aF647.564
aVp3
p2983
aS'dejavusans'
p2984
aS'#000000'
p2985
aF12.0
aI0
aI00
aI00
aI00
aI00
aI00
aI00
aI00
aI00
aa(lp2986
I218914
aF478.192
aF647.564
aVp3
p2987
aS'dejavusans'
p2988
aS'#000000'
p2989
aF12.0
aI0
aI00
aI00
aI00
aI00
aI00
aI00
aI00
aI00
aa(lp2990
I22474
aF520.948
aF647.564
aVp3
p2991
aS'dejavusans'
p2992
aS'#000000'
p2993
aF12.0
aI0
aI00
aI00
aI00
aI00
aI00
aI00
aI00
aI00
aa(lp2994
I234378
aF108.1
aF662.464
aVp3
p2995
aS'dejavusans'
p2996
aS'#000000'
p2997
aF12.0
aI0
aI00
aI00
aI00
aI00
aI00
aI00
aI00
aI00
aa(lp2998
I192651
aF173.944
aF662.464
aVp3
p2999
aS'dejavusans'
p3000
aS'#000000'
p3001
aF12.0
aI0
aI00
aI00
aI00
aI00
aI00
aI00
aI00
aI00
aa(lp3002
I186242
aF192.532
aF662.464
aVp3
p3003
aS'dejavusans'
p3004
aS'#000000'
p3005
aF12.0
aI0
aI00
aI00
aI00
aI00
aI00
aI00
aI00
aI00
aa(lp3006
I25691
aF224.836
aF662.464
aVp3
p3007
aS'dejavusans'
p3008
aS'#000000'
p3009
aF12.0
aI0
aI00
aI00
aI00
aI00
aI00
aI00
aI00
aI00
aa(lp3010
I43275
aF251.32
aF662.464
aVp3
p3011
aS'dejavusans'
p3012
aS'#000000'
p3013
aF12.0
aI0
aI00
aI00
aI00
aI00
aI00
aI00
aI00
aI00
aa(lp3014
I234378
aF293.0388571428571
aF662.464
ag3011
aS'dejavusans'
p3015
aS'#000000'
p3016
aF12.0
aI0
aI00
aI00
aI00
aI00
aI00
aI00
aI00
aI00
aa(lp3017
I234378
aF72.1
aF72.008
aVp4
p3018
aS'dejavusans'
p3019
aS'#000000'
p3020
aF14.0
aI1
aI01
aI00
aI01
aI00
aI00
aI00
aI00
aI00
aa(lp3021
I234378
aF150.136
aF72.008
aVp4
p3022
aS'dejavusans'
p3023
aS'#000000'
p3024
aF14.0
aI1
aI01
aI00
aI00
aI00
aI00
aI00
aI00
aI00
aa(lp3025
I234378
aF256.942
aF72.008
aVp4
p3026
aS'dejavusans'
p3027
aS'#000000'
p3028
aF14.0
aI1
aI01
aI00
aI00
aI00
aI00
aI00
aI00
aI00
aa(lp3029
I234378
aF280.483
aF72.008
ag3026
aS'dejavusans'
p3030
aS'#000000'
p3031
aF14.0
aI1
aI00
aI00
aI00
aI00
aI00
aI00
aI00
aI00
aa(lp3032
I234378
aF293.216
aF72.008
aVp4
p3033
aS'dejavusans'
p3034
aS'#000000'
p3035
aF14.0
aI1
aI01
aI00
aI00
aI00
aI00
aI00
aI00
aI00
aa(lp3036
I234378
aF316.3895
aF72.008
ag3033
aS'dejavusans'
p3037
aS'#000000'
p3038
aF14.0
aI1
aI00
aI00
aI00
aI00
aI00
aI00
aI00
aI00
aa(lp3039
I234378
aF72.1
aF88.292
aVp4
p3040
aS'dejavusans'
p3041
aS'#000000'
p3042
aF11.0
aI1
aI01
aI00
aI00
aI00
aI00
aI00
aI00
aI00
aa(lp3043
I132100
aF131.951
aF88.292
aVp4
p3044
aS'dejavusans'
p3045
aS'#000000'
p3046
aF11.0
aI1
aI01
aI00
aI00
aI00
aI00
aI00
aI00
aI00
aa(lp3047
I108130
aF190.911
aF88.292
aVp4
p3048
aS'dejavusans'
p3049
aS'#000000'
p3050
aF11.0
aI1
aI01
aI00
aI00
aI00
aI00
aI00
aI00
aI00
aa(lp3051
I234378
aF233.94
aF88.292
ag3048
aS'dejavusans'
p3052
aS'#000000'
p3053
aF11.0
aI1
aI00
aI00
aI00
aI00
aI00
aI00
aI00
aI00
aa(lp3054
I234378
aF243.574
aF88.292
aVp4
p3055
aS'dejavusans'
p3056
aS'#000000'
p3057
aF11.0
aI0
aI00
aI00
aI01
aI01
aI00
aI00
aI00
aI00
aa(lp3058
I89483
aF250.6
aF88.2608
aVp4
p3059
aS'dejavusans'
p3060
aS'#000000'
p3061
aF6.4
aI0
aI00
aI00
aI00
aI00
aI00
aI00
aI00
aI00
aa(lp3062
I20708
aF257.1
aF88.292
aVp4
p3063
aS'dejavusans'
p3064
aS'#000000'
p3065
aF11.0
aI0
aI01
aI00
aI00
aI00
aI00
aI00
aI00
aI01
aa(lp3066
I234378
aF294.148
aF88.292
aVp4
p3067
aS'dejavusans'
p3068
aS'#000000'
p3069
aF11.0
aI0
aI00
aI00
aI01
aI00
aI00
aI00
aI00
aI00
aa(lp3070
I234378
aF347.2
aF88.2608
aVp4
p3071
aS'dejavusans'
p3072
aS'#000000'
p3073
aF6.4
aI0
aI00
aI00
aI00
aI00
aI00
aI00
aI00
aI00
aa(lp3074
I234378
aF358.787
aF88.292
aVp4
p3075
aS'dejavusans'
p3076
aS'#000000'
p3077
aF11.0
aI0
aI01
aI00
aI00
aI00
aI00
aI00
aI00
aI01
aa(lp3078
I234378
aF381.645
aF88.292
aVp4
p3079
aS'dejavusans'
p3080
aS'#000000'
p3081
aF11.0
aI0
aI00
aI00
aI01
aI01
aI01
aI00
aI00
aI00
aa(lp3082
I234378
aF72.1
aF113.964
aVp4
p3083
aS'dejavusans'
p3084
aS'#000000'
p3085
aF12.0
aI1
aI00
aI00
aI01
aI01
aI00
aI00
aI00
aI00
aa(lp3086
I234378
aF78.568
aF113.964
ag3083
aS'dejavusans'
p3087
aS'#000000'
p3088
aF12.0
aI1
aI00
aI00
aI00
aI00
aI00
aI00
aI00
aI00
aa(lp3089
I109070
aF93.364
aF113.964
aVp4
p3090
aS'dejavusans'
p3091
aS'#000000'
p3092
aF12.0
aI1
aI01
aI01
aI00
aI00
aI00
aI00
aI00
aI00
aa(lp3093
I87604
aF120.64
aF113.964
aVp4
p3094
aS'dejavusans'
p3095
aS'#000000'
p3096
aF12.0
aI1
aI01
aI00
aI00
aI00
aI00
aI00
aI00
aI00
aa(lp3097
I43275
aF167.524
aF113.964
aVp4
p3098
aS'dejavusans'
p3099
aS'#000000'
p3100
aF12.0
aI1
aI01
aI00
aI00
aI00
aI00
aI00
aI00
aI00
aa(lp3101
I210461
aF72.1
aF127.964
aVp4
p3102
aS'dejavusans'
p3103
aS'#000000'
p3104
aF12.0
aI1
aI01
aI00
aI00
aI00
aI00
aI00
aI00
aI00
aa(lp3105
I340
aF111.58
aF127.964
aVp4
p3106
aS'dejavusans'
p3107
aS'#000000'
p3108
aF12.0
aI1
aI00
aI00
aI00
aI00
aI00
aI00
aI00
aI00
aa(lp3109
I234378
aF136.5304
aF127.964
ag3106
aS'dejavusans'
p3110
aS'#000000'
p3111
aF12.0
aI1
aI00
aI00
aI00
aI00
aI00
aI00
aI00
aI00
aa(lp3112
I234378
aF146.956
aF127.964
aVp4
p3113
aS'dejavusans'
p3114
aS'#000000'
p3115
aF12.0
aI1
aI00
aI00
aI01
aI01
aI01
aI00
aI00
aI00
aa(lp3116
I234378
aF72.1
aF141.892
aVp4
p3117
aS'dejavusans'
p3118
aS'#000000'
p3119
aF11.0
aI1
aI01
aI00
aI00
aI00
aI00
aI00
aI00
aI00
aa(lp3120
I234378
aF72.1
aF154.692
aVp4
p3121
aS'dejavusans'
p3122
aS'#000000'
p3123
aF11.0
aI1
aI01
aI00
aI00
aI00
aI00
aI00
aI00
aI00
aa(lp3124
I234378
aF150.112
aF154.692
ag3121
aS'dejavusans'
p3125
aS'#000000'
p3126
aF11.0
aI1
aI00
aI00
aI00
aI00
aI00
aI00
aI00
aI00
aa(lp3127
I148996
aF235.0
aF141.964
aVp4
p3128
aS'dejavusans'
p3129
aS'#000000'
p3130
aF12.0
aI0
aI01
aI00
aI00
aI00
aI00
aI00
aI00
aI00
aa(lp3131
I85218
aF277.48
aF141.964
aVp4
p3132
aS'dejavusans'
p3133
aS'#000000'
p3134
aF12.0
aI0
aI00
aI00
aI00
aI00
aI00
aI00
aI00
aI00
aa(lp3135
I176767
aF303.868
aF141.964
aVp4
p3136
aS'dejavusans'
p3137
aS'#000000'
p3138
aF12.0
aI0
aI01
aI00
aI00
aI00
aI00
aI00
aI00
aI00
aa(lp3139
I234378
aF360.4492
aF141.964
ag3136
aS'dejavusans'
p3140
aS'#000000'
p3141
aF12.0
aI0
aI00
aI00
aI00
aI00
aI00
aI00
aI00
aI00
aa(lp3142
I234378
aF370.624
aF141.964
aVp4
p3143
aS'dejavusans'
p3144
aS'#000000'
p3145
aF12.0
aI0
aI01
aI01
aI00
aI00
aI00
aI00
aI00
aI00
aa(lp3146
I234378
aF391.23400000000004
aF141.964
ag3143
aS'dejavusans'
p3147
aS'#000000'
p3148
aF12.0
aI0
aI00
aI00
aI00
aI00
aI00
aI00
aI00
aI00
aa(lp3149
I84662
aF401.908
aF141.964
aVp4
p3150
aS'dejavusans'
p3151
aS'#000000'
p3152
aF12.0
aI0
aI01
aI00
aI00
aI00
aI00
aI00
aI00
aI00
aa(lp3153
I21716
aF433.48
aF141.964
aVp4
p3154
aS'dejavusans'
p3155
aS'#000000'
p3156
aF12.0
aI0
aI01
aI00
aI00
aI00
aI00
aI00
aI00
aI00
aa(lp3157
I234378
aF456.8272
aF141.964
ag3154
aS'dejavusans'
p3158
aS'#000000'
p3159
aF12.0
aI0
aI00
aI00
aI00
aI00
aI00
aI00
aI00
aI00
aa(lp3160
I234378
aF235.0
aF155.964
aVp4
p3161
aS'dejavusans'
p3162
aS'#000000'
p3163
aF12.0
aI0
aI01
aI00
aI00
aI00
aI00
aI00
aI00
aI00
aa(lp3164
I228643
aF304.336
aF155.964
aVp4
p3165
aS'dejavusans'
p3166
aS'#000000'
p3167
aF12.0
aI0
aI01
aI00
aI00
aI00
aI00
aI00
aI00
aI00
aa(lp3168
I234378
aF72.1
aF169.964
aVp4
p3169
aS'dejavusans'
p3170
aS'#000000'
p3171
aF12.0
aI1
aI01
aI00
aI00
aI00
aI00
aI00
aI00
aI00
aa(lp3172
I216500
aF235.0
aF169.964
aVp4
p3173
aS'dejavusans'
p3174
aS'#000000'
p3175
aF12.0
aI0
aI01
aI01
aI00
aI00
aI00
aI00
aI00
aI00
aa(lp3176
I234378
aF258.988
aF169.964
aVp4
p3177
aS'dejavusans'
p3178
aS'#000000'
p3179
aF12.0
aI0
aI00
aI00
aI00
aI00
aI00
aI00
aI00
aI00
aa(lp3180
I194179
aF265.0705
aF169.964
ag3177
aS'dejavusans'
p3181
aS'#000000'
p3182
aF12.0
aI0
aI01
aI00
aI00
aI00
aI00
aI00
aI00
aI00
aa(lp3183
I226160
aF311.548
aF169.964
aVp4
p3184
aS'dejavusans'
p3185
aS'#000000'
p3186
aF12.0
aI0
aI01
aI00
aI00
aI00
aI00
aI00
aI00
aI00
aa(lp3187
I207716
aF358.72
aF169.964
aVp4
p3188
aS'dejavusans'
p3189
aS'#000000'
p3190
aF12.0
aI0
aI01
aI00
aI00
aI00
aI00
aI00
aI00
aI00
aa(lp3191
I234378
aF398.581
aF169.964
ag3188
aS'dejavusans'
p3192
aS'#000000'
p3193
aF12.0
aI0
aI00
aI00
aI00
aI00
aI00
aI00
aI00
aI00
aa(lp3194
I234378
aF405.22450000000003
aF169.964
ag3188
aS'dejavusans'
p3195
aS'#000000'
p3196
aF12.0
aI0
aI00
aI00
aI00
aI00
aI00
aI00
aI00
aI00
aa(lp3197
I148996
aF415.756
aF169.964
aVp4
p3198
aS'dejavusans'
p3199
aS'#000000'
p3200
aF12.0
aI0
aI01
aI00
aI00
aI00
aI00
aI00
aI00
aI00
aa(lp3201
I185339
aF458.236
aF169.964
aVp4
p3202
aS'dejavusans'
p3203
aS'#000000'
p3204
aF12.0
aI0
aI01
aI00
aI00
aI00
aI00
aI00
aI00
aI00
aa(lp3205
I156028
aF503.2
aF169.964
aVp4
p3206
aS'dejavusans'
p3207
aS'#000000'
p3208
aF12.0
aI0
aI01
aI00
aI00
aI00
aI00
aI00
aI00
aI00
aa(lp3209
I35425
aF235.0
aF183.964
aVp4
p3210
aS'dejavusans'
p3211
aS'#000000'
p3212
aF12.0
aI0
aI01
aI00
aI00
aI00
aI00
aI00
aI00
aI00
aa(lp3213
I234378
aF269.392
aF183.964
aVp4
p3214
aS'dejavusans'
p3215
aS'#000000'
p3216
aF12.0
aI0
aI00
aI00
aI00
aI00
aI00
aI00
aI00
aI00
aa(lp3217
I234378
aF275.338
aF183.964
ag3214
aS'dejavusans'
p3218
aS'#000000'
p3219
aF12.0
aI0
aI01
aI01
aI00
aI00
aI00
aI00
aI00
aI00
aa(lp3220
I234378
aF293.17600000000004
aF183.964
ag3214
aS'dejavusans'
p3221
aS'#000000'
p3222
aF12.0
aI0
aI00
aI00
aI00
aI00
aI00
aI00
aI00
aI00
aa(lp3223
I234378
aF299.12200000000007
aF183.964
ag3214
aS'dejavusans'
p3224
aS'#000000'
p3225
aF12.0
aI0
aI00
aI00
aI00
aI00
aI00
aI00
aI00
aI00
aa(lp3226
I234378
aF308.956
aF183.964
aVp4
p3227
aS'dejavusans'
p3228
aS'#000000'
p3229
aF12.0
aI0
aI01
aI00
aI00
aI00
aI00
aI00
aI00
aI00
aa(lp3230
I177958
aF72.1
aF225.964
aVp4
p3231
aS'dejavusans'
p3232
aS'#000000'
p3233
aF12.0
aI1
aI01
aI00
aI00
aI00
aI00
aI00
aI00
aI00
aa(lp3234
I92750
aF124.348
aF225.964
aVp4
p3235
aS'dejavusans'
p3236
aS'#000000'
p3237
aF12.0
aI1
aI01
aI00
aI00
aI00
aI00
aI00
aI00
aI00
aa(lp3238
I234378
aF184.764
aF225.964
ag3235
aS'dejavusans'
p3239
aS'#000000'
p3240
aF12.0
aI1
aI00
aI00
aI00
aI00
aI00
aI00
aI00
aI00
aa(lp3241
I125458
aF72.1
aF253.964
aVp4
p3242
aS'dejavusans'
p3243
aS'#000000'
p3244
aF12.0
aI0
aI01
aI00
aI00
aI00
aI00
aI00
aI00
aI00
aa(lp3245
I144483
aF122.26
aF253.964
aVp4
p3246
aS'dejavusans'
p3247
aS'#000000'
p3248
aF12.0
aI0
aI00
aI00
aI00
aI00
aI00
aI00
aI00
aI00
aa(lp3249
I176802
aF142.432
aF253.964
aVp4
p3250
aS'dejavusans'
p3251
aS'#000000'
p3252
aF12.0
aI0
aI00
aI00
aI00
aI00
aI00
aI00
aI00
aI00
aa(lp3253
I43275
aF169.9
aF253.964
aVp4
p3254
aS'dejavusans'
p3255
aS'#000000'
p3256
aF12.0
aI0
aI00
aI00
aI00
aI00
aI00
aI00
aI00
aI00
aa(lp3257
I144489
aF220.048
aF253.964
aVp4
p3258
aS'dejavusans'
p3259
aS'#000000'
p3260
aF12.0
aI0
aI00
aI00
aI00
aI00
aI00
aI00
aI00
aI00
aa(lp3261
I109070
aF236.824
aF253.964
aVp4
p3262
aS'dejavusans'
p3263
aS'#000000'
p3264
aF12.0
aI0
aI01
aI01
aI00
aI00
aI00
aI00
aI00
aI00
aa(lp3265
I234378
aF262.204
aF253.964
aVp4
p3266
aS'dejavusans'
p3267
aS'#000000'
p3268
aF12.0
aI0
aI00
aI00
aI00
aI00
aI00
aI00
aI00
aI00
aa(lp3269
I87604
aF267.19
aF253.964
ag3266
aS'dejavusans'
p3270
aS'#000000'
p3271
aF12.0
aI0
aI01
aI00
aI00
aI00
aI00
aI00
aI00
aI00
aa(lp3272
I234378
aF302.092
aF253.964
ag3266
aS'dejavusans'
p3273
aS'#000000'
p3274
aF12.0
aI0
aI00
aI00
aI00
aI00
aI00
aI00
aI00
aI00
aa(lp3275
I234378
aF307.078
aF253.964
ag3266
aS'dejavusans'
p3276
aS'#000000'
p3277
aF12.0
aI0
aI00
aI00
aI00
aI00
aI00
aI00
aI00
aI00
aa(lp3278
I234378
aF317.332
aF253.964
aVp4
p3279
aS'dejavusans'
p3280
aS'#000000'
p3281
aF12.0
aI0
aI01
aI00
aI00
aI00
aI00
aI00
aI00
aI00
aa(lp3282
I25729
aF383.752
aF253.964
aVp4
p3283
aS'dejavusans'
p3284
aS'#000000'
p3285
aF12.0
aI0
aI00
aI00
aI00
aI00
aI00
aI00
aI00
aI00
aa(lp3286
I135639
aF417.808
aF253.964
aVp4
p3287
aS'dejavusans'
p3288
aS'#000000'
p3289
aF12.0
aI0
aI00
aI00
aI00
aI00
aI00
aI00
aI00
aI00
aa(lp3290
I46544
aF433.888
aF253.964
aVp4
p3291
aS'dejavusans'
p3292
aS'#000000'
p3293
aF12.0
aI0
aI00
aI00
aI00
aI00
aI00
aI00
aI00
aI00
aa(lp3294
I43275
aF460.96
aF253.964
aVp4
p3295
aS'dejavusans'
p3296
aS'#000000'
p3297
aF12.0
aI0
aI00
aI00
aI00
aI00
aI00
aI00
aI00
aI00
aa(lp3298
I84932
aF511.108
aF253.964
aVp4
p3299
aS'dejavusans'
p3300
aS'#000000'
p3301
aF12.0
aI0
aI00
aI00
aI00
aI00
aI00
aI00
aI00
aI00
aa(lp3302
I148996
aF72.1
aF267.964
aVp4
p3303
aS'dejavusans'
p3304
aS'#000000'
p3305
aF12.0
aI0
aI00
aI00
aI00
aI00
aI00
aI00
aI00
aI00
aa(lp3306
I234378
aF107.39028571428571
aF267.964
ag3303
aS'dejavusans'
p3307
aS'#000000'
p3308
aF12.0
aI0
aI00
aI00
aI00
aI00
aI00
aI00
aI00
aI00
aa(lp3309
I176767
aF118.636
aF267.964
aVp4
p3310
aS'dejavusans'
p3311
aS'#000000'
p3312
aF12.0
aI0
aI01
aI00
aI00
aI00
aI00
aI00
aI00
aI00
aa(lp3313
I234378
aF175.2172
aF267.964
ag3310
aS'dejavusans'
p3314
aS'#000000'
p3315
aF12.0
aI0
aI00
aI00
aI00
aI00
aI00
aI00
aI00
aI00
aa(lp3316
I234378
aF186.976
aF267.964
aVp4
p3317
aS'dejavusans'
p3318
aS'#000000'
p3319
aF12.0
aI0
aI01
aI01
aI00
aI00
aI00
aI00
aI00
aI00
aa(lp3320
I234378
aF203.554
aF267.964
ag3317
aS'dejavusans'
p3321
aS'#000000'
p3322
aF12.0
aI0
aI00
aI00
aI00
aI00
aI00
aI00
aI00
aI00
aa(lp3323
I234378
aF214.552
aF267.964
aVp4
p3324
aS'dejavusans'
p3325
aS'#000000'
p3326
aF12.0
aI0
aI01
aI00
aI00
aI00
aI00
aI00
aI00
aI00
aa(lp3327
I234378
aF238.3792
aF267.964
ag3324
aS'dejavusans'
p3328
aS'#000000'
p3329
aF12.0
aI0
aI00
aI00
aI00
aI00
aI00
aI00
aI00
aI00
aa(lp3330
I234378
aF249.7
aF267.964
aVp4
p3331
aS'dejavusans'
p3332
aS'#000000'
p3333
aF12.0
aI0
aI01
aI00
aI00
aI00
aI00
aI00
aI00
aI00
aa(lp3334
I234378
aF287.212
aF267.964
ag3331
aS'dejavusans'
p3335
aS'#000000'
p3336
aF12.0
aI0
aI00
aI00
aI00
aI00
aI00
aI00
aI00
aI00
aa(lp3337
I234378
aF298.936
aF267.964
aVp4
p3338
aS'dejavusans'
p3339
aS'#000000'
p3340
aF12.0
aI0
aI01
aI01
aI00
aI00
aI00
aI00
aI00
aI00
aa(lp3341
I234378
aF325.5664
aF267.964
ag3338
aS'dejavusans'
p3342
aS'#000000'
p3343
aF12.0
aI0
aI00
aI00
aI00
aI00
aI00
aI00
aI00
aI00
aa(lp3344
I234378
aF337.696
aF267.964
aVp4
p3345
aS'dejavusans'
p3346
aS'#000000'
p3347
aF12.0
aI0
aI01
aI00
aI00
aI00
aI00
aI00
aI00
aI00
aa(lp3348
I234378
aF378.35200000000003
aF267.964
ag3345
aS'dejavusans'
p3349
aS'#000000'
p3350
aF12.0
aI0
aI00
aI00
aI00
aI00
aI00
aI00
aI00
aI00
aa(lp3351
I77592
aF389.524
aF267.964
aVp4
p3352
aS'dejavusans'
p3353
aS'#000000'
p3354
aF12.0
aI0
aI01
aI00
aI00
aI00
aI00
aI00
aI00
aI00
aa(lp3355
I110786
aF439.66
aF267.964
aVp4
p3356
aS'dejavusans'
p3357
aS'#000000'
p3358
aF12.0
aI0
aI01
aI00
aI00
aI00
aI00
aI00
aI00
aI00
aa(lp3359
I234378
aF479.66114285714286
aF267.964
ag3356
aS'dejavusans'
p3360
aS'#000000'
p3361
aF12.0
aI0
aI00
aI00
aI00
aI00
aI00
aI00
aI00
aI00
aa(lp3362
I1257
aF491.8
aF267.964
aVp4
p3363
aS'dejavusans'
p3364
aS'#000000'
p3365
aF12.0
aI0
aI01
aI00
aI00
aI00
aI00
aI00
aI00
aI00
aa(lp3366
I234378
aF523.95
aF267.964
ag3363
aS'dejavusans'
p3367
aS'#000000'
p3368
aF12.0
aI0
aI00
aI00
aI00
aI00
aI00
aI00
aI00
aI00
aa(lp3369
I45445
aF72.1
aF281.964
aVp4
p3370
aS'dejavusans'
p3371
aS'#000000'
p3372
aF12.0
aI0
aI01
aI00
aI00
aI00
aI00
aI00
aI00
aI00
aa(lp3373
I234378
aF114.964
aF281.964
aVp4
p3374
aS'dejavusans'
p3375
aS'#000000'
p3376
aF12.0
aI0
aI00
aI00
aI01
aI00
aI00
aI00
aI00
aI00
aa(lp3377
I234378
aF134.908
aF281.964
ag3374
aS'dejavusans'
p3378
aS'#000000'
p3379
aF12.0
aI0
aI00
aI00
aI00
aI00
aI00
aI00
aI00
aI00
aa(lp3380
I87604
aF72.1
aF295.964
aVp4
p3381
aS'dejavusans'
p3382
aS'#000000'
p3383
aF12.0
aI0
aI01
aI00
aI00
aI00
aI00
aI00
aI00
aI00
aa(lp3384
I22474
aF114.532
aF295.964
aVp4
p3385
aS'dejavusans'
p3386
aS'#000000'
p3387
aF12.0
aI0
aI00
aI00
aI00
aI00
aI00
aI00
aI00
aI00
aa(lp3388
I166593
aF129.712
aF295.964
aVp4
p3389
aS'dejavusans'
p3390
aS'#000000'
p3391
aF12.0
aI0
aI00
aI00
aI00
aI00
aI00
aI00
aI00
aI00
aa(lp3392
I43275
aF142.792
aF295.964
aVp4
p3393
aS'dejavusans'
p3394
aS'#000000'
p3395
aF12.0
aI0
aI00
aI00
aI00
aI00
aI00
aI00
aI00
aI00
aa(lp3396
I218914
aF193.348
aF295.964
aVp4
p3397
aS'dejavusans'
p3398
aS'#000000'
p3399
aF12.0
aI0
aI00
aI00
aI00
aI00
aI00
aI00
aI00
aI00
aa(lp3400
I55730
aF233.92
aF295.964
aVp4
p3401
aS'dejavusans'
p3402
aS'#000000'
p3403
aF12.0
aI0
aI00
aI00
aI00
aI00
aI00
aI00
aI00
aI00
aa(lp3404
I89480
aF275.776
aF295.964
aVp4
p3405
aS'dejavusans'
p3406
aS'#000000'
p3407
aF12.0
aI0
aI00
aI00
aI00
aI00
aI00
aI00
aI00
aI00
aa(lp3408
I192638
aF293.56
aF295.964
aVp4
p3409
aS'dejavusans'
p3410
aS'#000000'
p3411
aF12.0
aI0
aI00
aI00
aI00
aI00
aI00
aI00
aI00
aI00
aa(lp3412
I191104
aF314.14
aF295.964
aVp4
p3413
aS'dejavusans'
p3414
aS'#000000'
p3415
aF12.0
aI0
aI00
aI00
aI00
aI00
aI00
aI00
aI00
aI00
aa(lp3416
I234378
aF358.204
aF295.964
aVp4
p3417
aS'dejavusans'
p3418
aS'#000000'
p3419
aF12.0
aI0
aI00
aI00
aI00
aI00
aI00
aI00
aI00
aI00
aa(lp3420
I169745
aF426.448
aF295.964
aVp4
p3421
aS'dejavusans'
p3422
aS'#000000'
p3423
aF12.0
aI0
aI00
aI00
aI00
aI00
aI00
aI00
aI00
aI00
aa(lp3424
I234378
aF457.54
aF295.964
aVp4
p3425
aS'dejavusans'
p3426
aS'#000000'
p3427
aF12.0
aI0
aI01
aI01
aI00
aI00
aI00
aI00
aI00
aI00
aa(lp3428
I234378
aF479.512
aF295.964
aVp4
p3429
aS'dejavusans'
p3430
aS'#000000'
p3431
aF12.0
aI0
aI01
aI01
aI00
aI00
aI00
aI00
aI00
aI00
aa(lp3432
I190806
aF513.676
aF295.964
aVp4
p3433
aS'dejavusans'
p3434
aS'#000000'
p3435
aF12.0
aI0
aI00
aI00
aI00
aI00
aI00
aI00
aI00
aI00
aa(lp3436
I11472
aF72.1
aF309.964
aVp4
p3437
aS'dejavusans'
p3438
aS'#000000'
p3439
aF12.0
aI0
aI00
aI00
aI00
aI00
aI00
aI00
aI00
aI00
aa(lp3440
I166593
aF132.424
aF309.964
aVp4
p3441
aS'dejavusans'
p3442
aS'#000000'
p3443
aF12.0
aI0
aI00
aI00
aI00
aI00
aI00
aI00
aI00
aI00
aa(lp3444
I162759
aF143.8
aF309.964
aVp4
p3445
aS'dejavusans'
p3446
aS'#000000'
p3447
aF12.0
aI0
aI00
aI00
aI00
aI00
aI00
aI00
aI00
aI00
aa(lp3448
I25691
aF203.932
aF309.964
aVp4
p3449
aS'dejavusans'
p3450
aS'#000000'
p3451
aF12.0
aI0
aI00
aI00
aI00
aI00
aI00
aI00
aI00
aI00
aa(lp3452
I89480
aF230.596
aF309.964
aVp4
p3453
aS'dejavusans'
p3454
aS'#000000'
p3455
aF12.0
aI0
aI00
aI00
aI00
aI00
aI00
aI00
aI00
aI00
aa(lp3456
I25691
aF246.772
aF309.964
aVp4
p3457
aS'dejavusans'
p3458
aS'#000000'
p3459
aF12.0
aI0
aI00
aI00
aI00
aI00
aI00
aI00
aI00
aI00
aa(lp3460
I14859
aF273.436
aF309.964
aVp4
p3461
aS'dejavusans'
p3462
aS'#000000'
p3463
aF12.0
aI0
aI00
aI00
aI00
aI00
aI00
aI00
aI00
aI00
aa(lp3464
I234378
aF319.00399999999996
aF309.964
ag3461
aS'dejavusans'
p3465
aS'#000000'
p3466
aF12.0
aI0
aI00
aI00
aI00
aI00
aI00
aI00
aI00
aI00
aa(lp3467
I87604
aF328.864
aF309.964
aVp4
p3468
aS'dejavusans'
p3469
aS'#000000'
p3470
aF12.0
aI0
aI01
aI00
aI00
aI00
aI00
aI00
aI00
aI00
aa(lp3471
I43275
aF369.712
aF309.964
aVp4
p3472
aS'dejavusans'
p3473
aS'#000000'
p3474
aF12.0
aI0
aI00
aI00
aI00
aI00
aI00
aI00
aI00
aI00
aa(lp3475
I22474
aF418.756
aF309.964
aVp4
p3476
aS'dejavusans'
p3477
aS'#000000'
p3478
aF12.0
aI0
aI00
aI00
aI00
aI00
aI00
aI00
aI00
aI00
aa(lp3479
I25729
aF432.424
aF309.964
aVp4
p3480
aS'dejavusans'
p3481
aS'#000000'
p3482
aF12.0
aI0
aI00
aI00
aI00
aI00
aI00
aI00
aI00
aI00
aa(lp3483
I89480
aF465.388
aF309.964
aVp4
p3484
aS'dejavusans'
p3485
aS'#000000'
p3486
aF12.0
aI0
aI00
aI00
aI00
aI00
aI00
aI00
aI00
aI00
aa(lp3487
I123814
aF481.468
aF309.964
aVp4
p3488
aS'dejavusans'
p3489
aS'#000000'
p3490
aF12.0
aI0
aI00
aI00
aI00
aI00
aI00
aI00
aI00
aI00
aa(lp3491
I141547
aF72.1
aF323.964
aVp4
p3492
aS'dejavusans'
p3493
aS'#000000'
p3494
aF12.0
aI0
aI01
aI00
aI00
aI00
aI00
aI00
aI00
aI00
aa(lp3495
I190806
aF94.66
aF323.964
aVp4
p3496
aS'dejavusans'
p3497
aS'#000000'
p3498
aF12.0
aI0
aI00
aI00
aI00
aI00
aI00
aI00
aI00
aI00
aa(lp3499
I228874
aF115.432
aF323.964
aVp4
p3500
aS'dejavusans'
p3501
aS'#000000'
p3502
aF12.0
aI0
aI00
aI00
aI00
aI00
aI00
aI00
aI00
aI00
aa(lp3503
I97637
aF177.472
aF323.964
aVp4
p3504
aS'dejavusans'
p3505
aS'#000000'
p3506
aF12.0
aI0
aI00
aI00
aI00
aI00
aI00
aI00
aI00
aI00
aa(lp3507
I234378
aF218.4826666666667
aF323.964
ag3504
aS'dejavusans'
p3508
aS'#000000'
p3509
aF12.0
aI0
aI00
aI00
aI00
aI00
aI00
aI00
aI00
aI00
aa(lp3510
I135639
aF224.34133333333335
aF323.964
ag3504
aS'dejavusans'
p3511
aS'#000000'
p3512
aF12.0
aI0
aI01
aI00
aI00
aI00
aI00
aI00
aI00
aI00
aa(lp3513
I97637
aF226.05866666666668
aF323.964
ag3504
aS'dejavusans'
p3514
aS'#000000'
p3515
aF12.0
aI0
aI00
aI00
aI00
aI00
aI00
aI00
aI00
aI00
aa(lp3516
I234378
aF287.308
aF323.964
aVp4
p3517
aS'dejavusans'
p3518
aS'#000000'
p3519
aF12.0
aI0
aI00
aI00
aI00
aI00
aI00
aI00
aI00
aI00
aa(lp3520
I131049
aF293.8024
aF323.964
ag3517
aS'dejavusans'
p3521
aS'#000000'
p3522
aF12.0
aI0
aI00
aI00
aI00
aI00
aI00
aI00
aI00
aI00
aa(lp3523
I132955
aF324.172
aF323.964
aVp4
p3524
aS'dejavusans'
p3525
aS'#000000'
p3526
aF12.0
aI0
aI00
aI00
aI00
aI00
aI00
aI00
aI00
aI00
aa(lp3527
I144489
aF355.54
aF323.964
aVp4
p3528
aS'dejavusans'
p3529
aS'#000000'
p3530
aF12.0
aI0
aI00
aI00
aI00
aI00
aI00
aI00
aI00
aI00
aa(lp3531
I84056
aF371.416
aF323.964
aVp4
p3532
aS'dejavusans'
p3533
aS'#000000'
p3534
aF12.0
aI0
aI00
aI00
aI00
aI00
aI00
aI00
aI00
aI00
aa(lp3535
I89480
aF397.288
aF323.964
aVp4
p3536
aS'dejavusans'
p3537
aS'#000000'
p3538
aF12.0
aI0
aI00
aI00
aI00
aI00
aI00
aI00
aI00
aI00
aa(lp3539
I25691
aF413.668
aF323.964
aVp4
p3540
aS'dejavusans'
p3541
aS'#000000'
p3542
aF12.0
aI0
aI00
aI00
aI00
aI00
aI00
aI00
aI00
aI00
aa(lp3543
I132955
aF440.536
aF323.964
aVp4
p3544
aS'dejavusans'
p3545
aS'#000000'
p3546
aF12.0
aI0
aI00
aI00
aI00
aI00
aI00
aI00
aI00
aI00
aa(lp3547
I140548
aF471.904
aF323.964
aVp4
p3548
aS'dejavusans'
p3549
aS'#000000'
p3550
aF12.0
aI0
aI00
aI00
aI00
aI00
aI00
aI00
aI00
aI00
aa(lp3551
I89480
aF72.1
aF337.964
aVp4
p3552
aS'dejavusans'
p3553
aS'#000000'
p3554
aF12.0
aI0
aI00
aI00
aI00
aI00
aI00
aI00
aI00
aI00
aa(lp3555
I233758
aF90.388
aF337.964
aVp4
p3556
aS'dejavusans'
p3557
aS'#000000'
p3558
aF12.0
aI0
aI00
aI00
aI00
aI00
aI00
aI00
aI00
aI00
aa(lp3559
I144489
aF149.632
aF337.964
aVp4
p3560
aS'dejavusans'
p3561
aS'#000000'
p3562
aF12.0
aI0
aI00
aI00
aI00
aI00
aI00
aI00
aI00
aI00
aa(lp3563
I97637
aF167.5
aF337.964
aVp4
p3564
aS'dejavusans'
p3565
aS'#000000'
p3566
aF12.0
aI0
aI00
aI00
aI00
aI00
aI00
aI00
aI00
aI00
aa(lp3567
I85218
aF216.46
aF337.964
aVp4
p3568
aS'dejavusans'
p3569
aS'#000000'
p3570
aF12.0
aI0
aI00
aI00
aI00
aI00
aI00
aI00
aI00
aI00
aa(lp3571
I119502
aF245.224
aF337.964
aVp4
p3572
aS'dejavusans'
p3573
aS'#000000'
p3574
aF12.0
aI0
aI00
aI00
aI00
aI00
aI00
aI00
aI00
aI00
aa(lp3575
I218914
aF294.376
aF337.964
aVp4
p3576
aS'dejavusans'
p3577
aS'#000000'
p3578
aF12.0
aI0
aI00
aI00
aI00
aI00
aI00
aI00
aI00
aI00
aa(lp3579
I117724
aF335.632
aF337.964
aVp4
p3580
aS'dejavusans'
p3581
aS'#000000'
p3582
aF12.0
aI0
aI00
aI00
aI00
aI00
aI00
aI00
aI00
aI00
aa(lp3583
I234378
aF349.048
aF337.964
ag3580
aS'dejavusans'
p3584
aS'#000000'
p3585
aF12.0
aI0
aI00
aI00
aI00
aI00
aI00
aI00
aI00
aI00
aa(lp3586
I129415
aF355.75600000000003
aF337.964
ag3580
aS'dejavusans'
p3587
aS'#000000'
p3588
aF12.0
aI0
aI00
aI00
aI00
aI00
aI00
aI00
aI00
aI00
aa(lp3589
I234378
aF382.084
aF337.964
aVp4
p3590
aS'dejavusans'
p3591
aS'#000000'
p3592
aF12.0
aI0
aI00
aI00
aI00
aI00
aI00
aI00
aI00
aI00
aa(lp3593
I141511
aF431.836
aF337.964
aVp4
p3594
aS'dejavusans'
p3595
aS'#000000'
p3596
aF12.0
aI0
aI00
aI00
aI00
aI00
aI00
aI00
aI00
aI00
aa(lp3597
I169745
aF504.784
aF337.964
aVp4
p3598
aS'dejavusans'
p3599
aS'#000000'
p3600
aF12.0
aI0
aI00
aI00
aI00
aI00
aI00
aI00
aI00
aI00
aa(lp3601
I234378
aF72.1
aF351.964
aVp4
p3602
aS'dejavusans'
p3603
aS'#000000'
p3604
aF12.0
aI0
aI00
aI00
aI00
aI00
aI00
aI00
aI00
aI00
aa(lp3605
I85218
aF118.156
aF351.964
aVp4
p3606
aS'dejavusans'
p3607
aS'#000000'
p3608
aF12.0
aI0
aI00
aI00
aI00
aI00
aI00
aI00
aI00
aI00
aa(lp3609
I207716
aF146.824
aF351.964
aVp4
p3610
aS'dejavusans'
p3611
aS'#000000'
p3612
aF12.0
aI0
aI00
aI00
aI00
aI00
aI00
aI00
aI00
aI00
aa(lp3613
I209115
aF196.276
aF351.964
aVp4
p3614
aS'dejavusans'
p3615
aS'#000000'
p3616
aF12.0
aI0
aI00
aI00
aI00
aI00
aI00
aI00
aI00
aI00
aa(lp3617
I173426
aF225.748
aF351.964
aVp4
p3618
aS'dejavusans'
p3619
aS'#000000'
p3620
aF12.0
aI0
aI00
aI00
aI00
aI00
aI00
aI00
aI00
aI00
aa(lp3621
I89480
aF286.684
aF351.964
aVp4
p3622
aS'dejavusans'
p3623
aS'#000000'
p3624
aF12.0
aI0
aI00
aI00
aI00
aI00
aI00
aI00
aI00
aI00
aa(lp3625
I229868
aF304.756
aF351.964
aVp4
p3626
aS'dejavusans'
p3627
aS'#000000'
p3628
aF12.0
aI0
aI00
aI00
aI00
aI00
aI00
aI00
aI00
aI00
aa(lp3629
I46378
aF325.828
aF351.964
aVp4
p3630
aS'dejavusans'
p3631
aS'#000000'
p3632
aF12.0
aI0
aI00
aI00
aI00
aI00
aI00
aI00
aI00
aI00
aa(lp3633
I127730
aF370.588
aF351.964
aVp4
p3634
aS'dejavusans'
p3635
aS'#000000'
p3636
aF12.0
aI0
aI00
aI00
aI00
aI00
aI00
aI00
aI00
aI00
aa(lp3637
I144503
aF430.024
aF351.964
aVp4
p3638
aS'dejavusans'
p3639
aS'#000000'
p3640
aF12.0
aI0
aI00
aI00
aI00
aI00
aI00
aI00
aI00
aI00
aa(lp3641
I60201
aF448.384
aF351.964
aVp4
p3642
aS'dejavusans'
p3643
aS'#000000'
p3644
aF12.0
aI0
aI00
aI00
aI00
aI00
aI00
aI00
aI00
aI00
aa(lp3645
I127730
aF472.936
aF351.964
aVp4
p3646
aS'dejavusans'
p3647
aS'#000000'
p3648
aF12.0
aI0
aI00
aI00
aI00
aI00
aI00
aI00
aI00
aI00
aa(lp3649
I234378
aF523.042
aF351.964
ag3646
aS'dejavusans'
p3650
aS'#000000'
p3651
aF12.0
aI0
aI00
aI00
aI00
aI00
aI00
aI00
aI00
aI00
aa(lp3652
I234378
aF72.1
aF365.964
aVp4
p3653
aS'dejavusans'
p3654
aS'#000000'
p3655
aF12.0
aI0
aI01
aI00
aI00
aI00
aI00
aI00
aI00
aI00
aa(lp3656
I140393
aF127.036
aF365.964
aVp4
p3657
aS'dejavusans'
p3658
aS'#000000'
p3659
aF12.0
aI0
aI00
aI00
aI00
aI00
aI00
aI00
aI00
aI00
aa(lp3660
I234378
aF160.708
aF365.964
aVp4
p3661
aS'dejavusans'
p3662
aS'#000000'
p3663
aF12.0
aI0
aI00
aI00
aI00
aI00
aI00
aI00
aI00
aI00
aa(lp3664
I15726
aF235.636
aF365.964
aVp4
p3665
aS'dejavusans'
p3666
aS'#000000'
p3667
aF12.0
aI0
aI00
aI00
aI00
aI00
aI00
aI00
aI00
aI00
aa(lp3668
I145945
aF263.02
aF365.964
aVp4
p3669
aS'dejavusans'
p3670
aS'#000000'
p3671
aF12.0
aI0
aI00
aI00
aI00
aI00
aI00
aI00
aI00
aI00
aa(lp3672
I234378
aF319.3545454545455
aF365.964
ag3669
aS'dejavusans'
p3673
aS'#000000'
p3674
aF12.0
aI0
aI00
aI00
aI00
aI00
aI00
aI00
aI00
aI00
aa(lp3675
I234378
aF329.464
aF365.964
aVp4
p3676
aS'dejavusans'
p3677
aS'#000000'
p3678
aF12.0
aI0
aI00
aI00
aI00
aI00
aI00
aI00
aI00
aI00
aa(lp3679
I234378
aF390.7
aF365.964
aVp4
p3680
aS'dejavusans'
p3681
aS'#000000'
p3682
aF12.0
aI0
aI00
aI00
aI00
aI00
aI00
aI00
aI00
aI00
aa(lp3683
I35885
aF413.776
aF365.964
aVp4
p3684
aS'dejavusans'
p3685
aS'#000000'
p3686
aF12.0
aI0
aI00
aI00
aI00
aI00
aI00
aI00
aI00
aI00
aa(lp3687
I144483
aF454.324
aF365.964
aVp4
p3688
aS'dejavusans'
p3689
aS'#000000'
p3690
aF12.0
aI0
aI00
aI00
aI00
aI00
aI00
aI00
aI00
aI00
aa(lp3691
I218914
aF473.704
aF365.964
aVp4
p3692
aS'dejavusans'
p3693
aS'#000000'
p3694
aF12.0
aI0
aI00
aI00
aI00
aI00
aI00
aI00
aI00
aI00
aa(lp3695
I141547
aF513.076
aF365.964
aVp4
p3696
aS'dejavusans'
p3697
aS'#000000'
p3698
aF12.0
aI0
aI00
aI00
aI00
aI00
aI00
aI00
aI00
aI00
aa(lp3699
I140393
aF72.1
aF379.964
aVp4
p3700
aS'dejavusans'
p3701
aS'#000000'
p3702
aF12.0
aI0
aI00
aI00
aI00
aI00
aI00
aI00
aI00
aI00
aa(lp3703
I234249
aF109.876
aF379.964
aVp4
p3704
aS'dejavusans'
p3705
aS'#000000'
p3706
aF12.0
aI0
aI00
aI00
aI00
aI00
aI00
aI00
aI00
aI00
aa(lp3707
I234378
aF161.428
aF379.964
aVp4
p3708
aS'dejavusans'
p3709
aS'#000000'
p3710
aF12.0
aI0
aI00
aI00
aI00
aI00
aI00
aI00
aI00
aI00
aa(lp3711
I234378
aF220.612
aF379.964
ag3708
aS'dejavusans'
p3712
aS'#000000'
p3713
aF12.0
aI0
aI00
aI00
aI00
aI00
aI00
aI00
aI00
aI00
aa(lp3714
I85218
aF235.756
aF379.964
aVp4
p3715
aS'dejavusans'
p3716
aS'#000000'
p3717
aF12.0
aI0
aI01
aI00
aI00
aI00
aI00
aI00
aI00
aI00
aa(lp3718
I60534
aF267.724
aF379.964
aVp4
p3719
aS'dejavusans'
p3720
aS'#000000'
p3721
aF12.0
aI0
aI00
aI00
aI00
aI00
aI00
aI00
aI00
aI00
aa(lp3722
I203110
aF300.484
aF379.964
aVp4
p3723
aS'dejavusans'
p3724
aS'#000000'
p3725
aF12.0
aI0
aI00
aI00
aI00
aI00
aI00
aI00
aI00
aI00
aa(lp3726
I141547
aF363.328
aF379.964
aVp4
p3727
aS'dejavusans'
p3728
aS'#000000'
p3729
aF12.0
aI0
aI00
aI00
aI00
aI00
aI00
aI00
aI00
aI00
aa(lp3730
I190806
aF389.488
aF379.964
aVp4
p3731
aS'dejavusans'
p3732
aS'#000000'
p3733
aF12.0
aI0
aI00
aI00
aI00
aI00
aI00
aI00
aI00
aI00
aa(lp3734
I229025
aF414.556
aF379.964
aVp4
p3735
aS'dejavusans'
p3736
aS'#000000'
p3737
aF12.0
aI0
aI00
aI00
aI00
aI00
aI00
aI00
aI00
aI00
aa(lp3738
I97637
aF433.15099999999995
aF379.964
ag3735
aS'dejavusans'
p3739
aS'#000000'
p3740
aF12.0
aI0
aI00
aI00
aI00
aI00
aI00
aI00
aI00
aI00
aa(lp3741
I234378
aF474.20599999999996
aF379.964
ag3735
aS'dejavusans'
p3742
aS'#000000'
p3743
aF12.0
aI0
aI00
aI00
aI00
aI00
aI00
aI00
aI00
aI00
aa(lp3744
I87604
aF493.612
aF379.964
aVp4
p3745
aS'dejavusans'
p3746
aS'#000000'
p3747
aF12.0
aI0
aI01
aI00
aI00
aI00
aI00
aI00
aI00
aI00
aa(lp3748
I141799
aF72.1
aF393.964
aVp4
p3749
aS'dejavusans'
p3750
aS'#000000'
p3751
aF12.0
aI0
aI00
aI00
aI00
aI00
aI00
aI00
aI00
aI00
aa(lp3752
I33705
aF150.832
aF393.964
aVp4
p3753
aS'dejavusans'
p3754
aS'#000000'
p3755
aF12.0
aI0
aI00
aI00
aI00
aI00
aI00
aI00
aI00
aI00
aa(lp3756
I192638
aF176.212
aF393.964
aVp4
p3757
aS'dejavusans'
p3758
aS'#000000'
p3759
aF12.0
aI0
aI00
aI00
aI00
aI00
aI00
aI00
aI00
aI00
aa(lp3760
I26424
aF195.004
aF393.964
aVp4
p3761
aS'dejavusans'
p3762
aS'#000000'
p3763
aF12.0
aI0
aI00
aI00
aI00
aI00
aI00
aI00
aI00
aI00
aa(lp3764
I220530
aF243.868
aF393.964
aVp4
p3765
aS'dejavusans'
p3766
aS'#000000'
p3767
aF12.0
aI0
aI00
aI00
aI00
aI00
aI00
aI00
aI00
aI00
aa(lp3768
I15726
aF291.724
aF393.964
aVp4
p3769
aS'dejavusans'
p3770
aS'#000000'
p3771
aF12.0
aI0
aI00
aI00
aI00
aI00
aI00
aI00
aI00
aI00
aa(lp3772
I118295
aF318.604
aF393.964
aVp4
p3773
aS'dejavusans'
p3774
aS'#000000'
p3775
aF12.0
aI0
aI00
aI00
aI00
aI00
aI00
aI00
aI00
aI00
aa(lp3776
I104617
aF350.392
aF393.964
aVp4
p3777
aS'dejavusans'
p3778
aS'#000000'
p3779
aF12.0
aI0
aI00
aI00
aI00
aI00
aI00
aI00
aI00
aI00
aa(lp3780
I234378
aF388.864
aF393.964
aVp4
p3781
aS'dejavusans'
p3782
aS'#000000'
p3783
aF12.0
aI0
aI00
aI00
aI00
aI00
aI00
aI00
aI00
aI00
aa(lp3784
I10716
aF444.904
aF393.964
aVp4
p3785
aS'dejavusans'
p3786
aS'#000000'
p3787
aF12.0
aI0
aI00
aI00
aI00
aI00
aI00
aI00
aI00
aI00
aa(lp3788
I234378
aF469.288
aF393.964
aVp4
p3789
aS'dejavusans'
p3790
aS'#000000'
p3791
aF12.0
aI0
aI01
aI01
aI00
aI00
aI00
aI00
aI00
aI00
aa(lp3792
I87604
aF489.772
aF393.964
aVp4
p3793
aS'dejavusans'
p3794
aS'#000000'
p3795
aF12.0
aI0
aI01
aI00
aI00
aI00
aI00
aI00
aI00
aI00
aa(lp3796
I234378
aF525.2725
aF393.964
ag3793
aS'dejavusans'
p3797
aS'#000000'
p3798
aF12.0
aI0
aI00
aI00
aI00
aI00
aI00
aI00
aI00
aI00
aa(lp3799
I234378
aF72.1
aF407.964
aVp4
p3800
aS'dejavusans'
p3801
aS'#000000'
p3802
aF12.0
aI0
aI01
aI01
aI00
aI00
aI00
aI00
aI00
aI00
aa(lp3803
I87604
aF86.692
aF407.964
aVp4
p3804
aS'dejavusans'
p3805
aS'#000000'
p3806
aF12.0
aI0
aI01
aI00
aI00
aI00
aI00
aI00
aI00
aI00
aa(lp3807
I234378
aF122.1925
aF407.964
ag3804
aS'dejavusans'
p3808
aS'#000000'
p3809
aF12.0
aI0
aI00
aI00
aI00
aI00
aI00
aI00
aI00
aI00
aa(lp3810
I85218
aF131.1
aF407.964
aVp4
p3811
aS'dejavusans'
p3812
aS'#000000'
p3813
aF12.0
aI0
aI00
aI00
aI00
aI00
aI00
aI00
aI00
aI00
aa(lp3814
I19362
aF157.488
aF407.964
aVp4
p3815
aS'dejavusans'
p3816
aS'#000000'
p3817
aF12.0
aI0
aI01
aI01
aI00
aI00
aI00
aI00
aI00
aI00
aa(lp3818
I87604
aF177.264
aF407.964
aVp4
p3819
aS'dejavusans'
p3820
aS'#000000'
p3821
aF12.0
aI0
aI01
aI00
aI00
aI00
aI00
aI00
aI00
aI00
aa(lp3822
I234378
aF212.6805
aF407.964
ag3819
aS'dejavusans'
p3823
aS'#000000'
p3824
aF12.0
aI0
aI00
aI00
aI00
aI00
aI00
aI00
aI00
aI00
aa(lp3825
I234378
aF72.1
aF435.964
aVp4
p3826
aS'dejavusans'
p3827
aS'#000000'
p3828
aF12.0
aI1
aI01
aI00
aI00
aI00
aI00
aI00
aI00
aI00
aa(lp3829
I234378
aF113.164
aF435.964
aVp4
p3830
aS'dejavusans'
p3831
aS'#000000'
p3832
aF12.0
aI1
aI01
aI00
aI00
aI00
aI00
aI00
aI00
aI00
aa(lp3833
I234378
aF221.40222222222224
aF435.964
ag3830
aS'dejavusans'
p3834
aS'#000000'
p3835
aF12.0
aI1
aI00
aI00
aI00
aI00
aI00
aI00
aI00
aI00
aa(lp3836
I79093
aF104.5
aF463.964
aVp4
p3837
aS'dejavusans'
p3838
aS'#000000'
p3839
aF12.0
aI0
aI01
aI00
aI00
aI00
aI00
aI00
aI00
aI00
aa(lp3840
I234378
aF181.444
aF463.964
aVp4
p3841
aS'dejavusans'
p3842
aS'#000000'
p3843
aF12.0
aI0
aI00
aI00
aI00
aI00
aI00
aI00
aI00
aI00
aa(lp3844
I68032
aF189.244
aF463.964
aVp4
p3845
aS'dejavusans'
p3846
aS'#000000'
p3847
aF12.0
aI0
aI01
aI00
aI00
aI00
aI00
aI00
aI00
aI00
aa(lp3848
I85218
aF273.868
aF463.964
aVp4
p3849
aS'dejavusans'
p3850
aS'#000000'
p3851
aF12.0
aI0
aI00
aI00
aI00
aI00
aI00
aI00
aI00
aI00
aa(lp3852
I56042
aF300.16
aF463.964
aVp4
p3853
aS'dejavusans'
p3854
aS'#000000'
p3855
aF12.0
aI0
aI01
aI00
aI00
aI00
aI00
aI00
aI00
aI00
aa(lp3856
I144489
aF346.828
aF463.964
aVp4
p3857
aS'dejavusans'
p3858
aS'#000000'
p3859
aF12.0
aI0
aI00
aI00
aI00
aI00
aI00
aI00
aI00
aI00
aa(lp3860
I221291
aF362.212
aF463.964
aVp4
p3861
aS'dejavusans'
p3862
aS'#000000'
p3863
aF12.0
aI0
aI01
aI00
aI00
aI00
aI00
aI00
aI00
aI00
aa(lp3864
I234378
aF389.7928
aF463.964
ag3861
aS'dejavusans'
p3865
aS'#000000'
p3866
aF12.0
aI0
aI00
aI00
aI00
aI00
aI00
aI00
aI00
aI00
aa(lp3867
I127387
aF104.5
aF478.864
aVp4
p3868
aS'dejavusans'
p3869
aS'#000000'
p3870
aF12.0
aI0
aI01
aI00
aI00
aI00
aI00
aI00
aI00
aI00
aa(lp3871
I121847
aF173.26
aF478.864
aVp4
p3872
aS'dejavusans'
p3873
aS'#000000'
p3874
aF12.0
aI0
aI00
aI00
aI00
aI00
aI00
aI00
aI00
aI00
aa(lp3875
I12459
aF200.14
aF478.864
aVp4
p3876
aS'dejavusans'
p3877
aS'#000000'
p3878
aF12.0
aI0
aI00
aI00
aI00
aI00
aI00
aI00
aI00
aI00
aa(lp3879
I234378
aF231.52
aF478.864
aVp4
p3880
aS'dejavusans'
p3881
aS'#000000'
p3882
aF12.0
aI0
aI00
aI00
aI00
aI00
aI00
aI00
aI00
aI00
aa(lp3883
I234378
aF267.7
aF478.864
aVp4
p3884
aS'dejavusans'
p3885
aS'#000000'
p3886
aF12.0
aI0
aI01
aI00
aI00
aI00
aI00
aI00
aI00
aI00
aa(lp3887
I234378
aF294.11
aF478.864
ag3884
aS'dejavusans'
p3888
aS'#000000'
p3889
aF12.0
aI0
aI00
aI00
aI00
aI00
aI00
aI00
aI00
aI00
aa(lp3890
I234378
aF104.5
aF493.764
aVp4
p3891
aS'dejavusans'
p3892
aS'#000000'
p3893
aF12.0
aI0
aI01
aI00
aI00
aI00
aI00
aI00
aI00
aI00
aa(lp3894
I85218
aF162.964
aF493.764
aVp4
p3895
aS'dejavusans'
p3896
aS'#000000'
p3897
aF12.0
aI0
aI00
aI00
aI00
aI00
aI00
aI00
aI00
aI00
aa(lp3898
I234378
aF189.352
aF493.764
aVp4
p3899
aS'dejavusans'
p3900
aS'#000000'
p3901
aF12.0
aI0
aI00
aI00
aI00
aI00
aI00
aI00
aI00
aI00
aa(lp3902
I194354
aF251.32
aF493.764
aVp4
p3903
aS'dejavusans'
p3904
aS'#000000'
p3905
aF12.0
aI0
aI00
aI00
aI00
aI00
aI00
aI00
aI00
aI00
aa(lp3906
I204011
aF274.816
aF493.764
aVp4
p3907
aS'dejavusans'
p3908
aS'#000000'
p3909
aF12.0
aI0
aI00
aI00
aI00
aI00
aI00
aI00
aI00
aI00
aa(lp3910
I234378
aF334.384
aF493.764
aVp4
p3911
aS'dejavusans'
p3912
aS'#000000'
p3913
aF12.0
aI0
aI00
aI00
aI00
aI00
aI00
aI00
aI00
aI00
aa(lp3914
I234378
aF382.47400000000005
aF493.764
ag3911
aS'dejavusans'
p3915
aS'#000000'
p3916
aF12.0
aI0
aI00
aI00
aI00
aI00
aI00
aI00
aI00
aI00
aa(lp3917
I234378
aF72.1
aF536.664
aVp4
p3918
aS'dejavusans'
p3919
aS'#000000'
p3920
aF12.0
aI1
aI01
aI00
aI00
aI00
aI00
aI00
aI00
aI00
aa(lp3921
I234378
aF164.35969230769228
aF536.664
ag3918
aS'dejavusans'
p3922
aS'#000000'
p3923
aF12.0
aI1
aI00
aI00
aI00
aI00
aI00
aI00
aI00
aI00
aa(lp3924
I234378
aF108.1
aF566.564
aVp4
p3925
aS'dejavusans'
p3926
aS'#000000'
p3927
aF12.0
aI0
aI01
aI00
aI00
aI00
aI00
aI00
aI00
aI00
aa(lp3928
I192651
aF173.956
aF566.564
aVp4
p3929
aS'dejavusans'
p3930
aS'#000000'
p3931
aF12.0
aI0
aI00
aI00
aI00
aI00
aI00
aI00
aI00
aI00
aa(lp3932
I188021
aF192.7
aF566.564
aVp4
p3933
aS'dejavusans'
p3934
aS'#000000'
p3935
aF12.0
aI1
aI01
aI00
aI00
aI00
aI00
aI00
aI00
aI00
aa(lp3936
I59734
aF247.5272
aF566.564
ag3933
aS'dejavusans'
p3937
aS'#000000'
p3938
aF12.0
aI1
aI00
aI00
aI00
aI00
aI00
aI00
aI00
aI00
aa(lp3939
I150251
aF264.22
aF566.564
aVp4
p3940
aS'dejavusans'
p3941
aS'#000000'
p3942
aF12.0
aI1
aI01
aI00
aI00
aI00
aI00
aI00
aI00
aI00
aa(lp3943
I135639
aF311.188
aF566.564
aVp4
p3944
aS'dejavusans'
p3945
aS'#000000'
p3946
aF12.0
aI0
aI00
aI00
aI00
aI00
aI00
aI00
aI00
aI00
aa(lp3947
I234378
aF326.2
aF566.564
aVp4
p3948
aS'dejavusans'
p3949
aS'#000000'
p3950
aF12.0
aI1
aI01
aI00
aI00
aI00
aI00
aI00
aI00
aI00
aa(lp3951
I234378
aF412.24
aF566.564
aVp4
p3952
aS'dejavusans'
p3953
aS'#000000'
p3954
aF12.0
aI1
aI01
aI00
aI00
aI00
aI00
aI00
aI00
aI00
aa(lp3955
I234378
aF503.884
aF566.564
aVp4
p3956
aS'dejavusans'
p3957
aS'#000000'
p3958
aF12.0
aI1
aI01
aI00
aI00
aI00
aI00
aI00
aI00
aI00
aa(lp3959
I234378
aF524.008
aF566.564
ag3956
aS'dejavusans'
p3960
aS'#000000'
p3961
aF12.0
aI1
aI00
aI00
aI00
aI00
aI00
aI00
aI00
aI00
aa(lp3962
I234378
aF108.1
aF581.464
aVp4
p3963
aS'dejavusans'
p3964
aS'#000000'
p3965
aF12.0
aI1
aI01
aI00
aI00
aI00
aI00
aI00
aI00
aI00
aa(lp3966
I190806
aF134.3
aF581.464
aVp4
p3967
aS'dejavusans'
p3968
aS'#000000'
p3969
aF12.0
aI0
aI00
aI00
aI00
aI00
aI00
aI00
aI00
aI00
aa(lp3970
I234378
aF154.6
aF581.464
aVp4
p3971
aS'dejavusans'
p3972
aS'#000000'
p3973
aF12.0
aI1
aI01
aI01
aI00
aI00
aI00
aI00
aI00
aI00
aa(lp3974
I234378
aF185.668
aF581.464
aVp4
p3975
aS'dejavusans'
p3976
aS'#000000'
p3977
aF12.0
aI1
aI00
aI00
aI00
aI00
aI00
aI00
aI00
aI00
aa(lp3978
I149270
aF192.4456
aF581.464
ag3975
aS'dejavusans'
p3979
aS'#000000'
p3980
aF12.0
aI1
aI01
aI00
aI00
aI00
aI00
aI00
aI00
aI00
aa(lp3981
I144690
aF257.632
aF581.464
aVp4
p3982
aS'dejavusans'
p3983
aS'#000000'
p3984
aF12.0
aI1
aI01
aI00
aI00
aI00
aI00
aI00
aI00
aI00
aa(lp3985
I178237
aF308.296
aF581.464
aVp4
p3986
aS'dejavusans'
p3987
aS'#000000'
p3988
aF12.0
aI1
aI01
aI00
aI00
aI00
aI00
aI00
aI00
aI00
aa(lp3989
I234378
aF385.076
aF581.464
ag3986
aS'dejavusans'
p3990
aS'#000000'
p3991
aF12.0
aI1
aI00
aI00
aI00
aI00
aI00
aI00
aI00
aI00
aa(lp3992
I177958
aF396.4
aF581.464
aVp4
p3993
aS'dejavusans'
p3994
aS'#000000'
p3995
aF12.0
aI0
aI00
aI00
aI00
aI00
aI00
aI00
aI00
aI00
aa(lp3996
I234378
aF436.10049999999995
aF581.464
ag3993
aS'dejavusans'
p3997
aS'#000000'
p3998
aF12.0
aI0
aI00
aI00
aI00
aI00
aI00
aI00
aI00
aI00
aa(lp3999
I234378
aF108.1
aF595.464
aVp4
p4000
aS'dejavusans'
p4001
aS'#000000'
p4002
aF12.0
aI0
aI01
aI00
aI00
aI00
aI00
aI00
aI00
aI00
aa(lp4003
I192651
aF164.26
aF595.464
aVp4
p4004
aS'dejavusans'
p4005
aS'#000000'
p4006
aF12.0
aI0
aI00
aI00
aI00
aI00
aI00
aI00
aI00
aI00
aa(lp4007
I229300
aF183.0
aF595.464
aVp4
p4008
aS'dejavusans'
p4009
aS'#000000'
p4010
aF12.0
aI1
aI01
aI00
aI00
aI00
aI00
aI00
aI00
aI00
aa(lp4011
I15102
aF234.432
aF595.464
aVp4
p4012
aS'dejavusans'
p4013
aS'#000000'
p4014
aF12.0
aI1
aI01
aI00
aI00
aI00
aI00
aI00
aI00
aI00
aa(lp4015
I210461
aF268.884
aF595.464
aVp4
p4016
aS'dejavusans'
p4017
aS'#000000'
p4018
aF12.0
aI1
aI01
aI00
aI00
aI00
aI00
aI00
aI00
aI00
aa(lp4019
I135639
aF308.7
aF595.464
aVp4
p4020
aS'dejavusans'
p4021
aS'#000000'
p4022
aF12.0
aI0
aI00
aI00
aI00
aI00
aI00
aI00
aI00
aI00
aa(lp4023
I234378
aF323.6
aF595.464
aVp4
p4024
aS'dejavusans'
p4025
aS'#000000'
p4026
aF12.0
aI1
aI01
aI01
aI00
aI00
aI00
aI00
aI00
aI00
aa(lp4027
I234378
aF385.82
aF595.464
aVp4
p4028
aS'dejavusans'
p4029
aS'#000000'
p4030
aF12.0
aI1
aI01
aI00
aI00
aI00
aI00
aI00
aI00
aI00
aa(lp4031
I234378
aF477.644
aF595.464
aVp4
p4032
aS'dejavusans'
p4033
aS'#000000'
p4034
aF12.0
aI1
aI01
aI00
aI00
aI00
aI00
aI00
aI00
aI00
aa(lp4035
I234378
aF497.76800000000003
aF595.464
ag4032
aS'dejavusans'
p4036
aS'#000000'
p4037
aF12.0
aI1
aI00
aI00
aI00
aI00
aI00
aI00
aI00
aI00
aa(lp4038
I234378
aF508.796
aF595.464
aVp4
p4039
aS'dejavusans'
p4040
aS'#000000'
p4041
aF12.0
aI1
aI01
aI00
aI00
aI00
aI00
aI00
aI00
aI00
aa(lp4042
I190806
aF108.1
aF610.364
aVp4
p4043
aS'dejavusans'
p4044
aS'#000000'
p4045
aF12.0
aI0
aI00
aI00
aI00
aI00
aI00
aI00
aI00
aI00
aa(lp4046
I234378
aF128.788
aF610.364
aVp4
p4047
aS'dejavusans'
p4048
aS'#000000'
p4049
aF12.0
aI1
aI01
aI01
aI00
aI00
aI00
aI00
aI00
aI00
aa(lp4050
I234378
aF159.748
aF610.364
aVp4
p4051
aS'dejavusans'
p4052
aS'#000000'
p4053
aF12.0
aI1
aI00
aI00
aI00
aI00
aI00
aI00
aI00
aI00
aa(lp4054
I208065
aF167.53066666666666
aF610.364
ag4051
aS'dejavusans'
p4055
aS'#000000'
p4056
aF12.0
aI1
aI01
aI00
aI00
aI00
aI00
aI00
aI00
aI00
aa(lp4057
I174854
aF234.088
aF610.364
aVp4
p4058
aS'dejavusans'
p4059
aS'#000000'
p4060
aF12.0
aI1
aI01
aI00
aI00
aI00
aI00
aI00
aI00
aI00
aa(lp4061
I234378
aF285.076
aF610.364
ag4058
aS'dejavusans'
p4062
aS'#000000'
p4063
aF12.0
aI1
aI00
aI00
aI00
aI00
aI00
aI00
aI00
aI00
aa(lp4064
I177958
aF296.7
aF610.364
aVp4
p4065
aS'dejavusans'
p4066
aS'#000000'
p4067
aF12.0
aI0
aI00
aI00
aI00
aI00
aI00
aI00
aI00
aI00
aa(lp4068
I234378
aF336.4285
aF610.364
ag4065
aS'dejavusans'
p4069
aS'#000000'
p4070
aF12.0
aI0
aI00
aI00
aI00
aI00
aI00
aI00
aI00
aI00
aa(lp4071
I234378
aF108.1
aF624.364
aVp4
p4072
aS'dejavusans'
p4073
aS'#000000'
p4074
aF12.0
aI0
aI01
aI00
aI00
aI00
aI00
aI00
aI00
aI00
aa(lp4075
I16331
aF166.456
aF624.364
aVp4
p4076
aS'dejavusans'
p4077
aS'#000000'
p4078
aF12.0
aI0
aI00
aI00
aI00
aI00
aI00
aI00
aI00
aI00
aa(lp4079
I211693
aF186.2
aF624.364
aVp4
p4080
aS'dejavusans'
p4081
aS'#000000'
p4082
aF12.0
aI1
aI01
aI00
aI00
aI00
aI00
aI00
aI00
aI00
aa(lp4083
I160909
aF253.256
aF624.364
aVp4
p4084
aS'dejavusans'
p4085
aS'#000000'
p4086
aF12.0
aI1
aI01
aI00
aI00
aI00
aI00
aI00
aI00
aI00
aa(lp4087
I234378
aF288.2
aF624.364
aVp4
p4088
aS'dejavusans'
p4089
aS'#000000'
p4090
aF12.0
aI0
aI00
aI00
aI00
aI00
aI00
aI00
aI00
aI00
aa(lp4091
I150251
aF295.164
aF624.364
ag4088
aS'dejavusans'
p4092
aS'#000000'
p4093
aF12.0
aI0
aI01
aI00
aI00
aI00
aI00
aI00
aI00
aI00
aa(lp4094
I233758
aF336.152
aF624.364
aVp4
p4095
aS'dejavusans'
p4096
aS'#000000'
p4097
aF12.0
aI0
aI01
aI00
aI00
aI00
aI00
aI00
aI00
aI00
aa(lp4098
I234378
aF388.99466666666666
aF624.364
ag4095
aS'dejavusans'
p4099
aS'#000000'
p4100
aF12.0
aI0
aI00
aI00
aI00
aI00
aI00
aI00
aI00
aI00
aa(lp4101
I190806
aF401.696
aF624.364
aVp4
p4102
aS'dejavusans'
p4103
aS'#000000'
p4104
aF12.0
aI0
aI00
aI00
aI00
aI00
aI00
aI00
aI00
aI00
aa(lp4105
I128359
aF424.256
aF624.364
aVp4
p4106
aS'dejavusans'
p4107
aS'#000000'
p4108
aF12.0
aI0
aI00
aI00
aI00
aI00
aI00
aI00
aI00
aI00
aa(lp4109
I51933
aF484.688
aF624.364
aVp4
p4110
aS'dejavusans'
p4111
aS'#000000'
p4112
aF12.0
aI0
aI00
aI00
aI00
aI00
aI00
aI00
aI00
aI00
aa(lp4113
I135639
aF519.86
aF624.364
aVp4
p4114
aS'dejavusans'
p4115
aS'#000000'
p4116
aF12.0
aI0
aI00
aI00
aI00
aI00
aI00
aI00
aI00
aI00
aa(lp4117
I234378
aF108.1
aF639.264
aVp4
p4118
aS'dejavusans'
p4119
aS'#000000'
p4120
aF12.0
aI1
aI01
aI01
aI00
aI00
aI00
aI00
aI00
aI00
aa(lp4121
I234378
aF174.22
aF639.264
aVp4
p4122
aS'dejavusans'
p4123
aS'#000000'
p4124
aF12.0
aI1
aI01
aI00
aI00
aI00
aI00
aI00
aI00
aI00
aa(lp4125
I234378
aF269.764
aF639.264
aVp4
p4126
aS'dejavusans'
p4127
aS'#000000'
p4128
aF12.0
aI1
aI01
aI00
aI00
aI00
aI00
aI00
aI00
aI00
aa(lp4129
I234378
aF289.88800000000003
aF639.264
ag4126
aS'dejavusans'
p4130
aS'#000000'
p4131
aF12.0
aI1
aI00
aI00
aI00
aI00
aI00
aI00
aI00
aI00
aa(lp4132
I234378
aF304.72
aF639.264
aVp4
p4133
aS'dejavusans'
p4134
aS'#000000'
p4135
aF12.0
aI1
aI01
aI00
aI00
aI00
aI00
aI00
aI00
aI00
aa(lp4136
I190806
aF335.2
aF639.264
aVp4
p4137
aS'dejavusans'
p4138
aS'#000000'
p4139
aF12.0
aI0
aI00
aI00
aI00
aI00
aI00
aI00
aI00
aI00
aa(lp4140
I234378
aF359.4
aF639.264
aVp4
p4141
aS'dejavusans'
p4142
aS'#000000'
p4143
aF12.0
aI1
aI01
aI01
aI00
aI00
aI00
aI00
aI00
aI00
aa(lp4144
I234378
aF394.356
aF639.264
aVp4
p4145
aS'dejavusans'
p4146
aS'#000000'
p4147
aF12.0
aI1
aI00
aI00
aI00
aI00
aI00
aI00
aI00
aI00
aa(lp4148
I208065
aF402.13733333333334
aF639.264
ag4145
aS'dejavusans'
p4149
aS'#000000'
p4150
aF12.0
aI1
aI01
aI00
aI00
aI00
aI00
aI00
aI00
aI00
aa(lp4151
I174854
aF472.584
aF639.264
aVp4
p4152
aS'dejavusans'
p4153
aS'#000000'
p4154
aF12.0
aI1
aI01
aI00
aI00
aI00
aI00
aI00
aI00
aI00
aa(lp4155
I234378
aF523.572
aF639.264
ag4152
aS'dejavusans'
p4156
aS'#000000'
p4157
aF12.0
aI1
aI00
aI00
aI00
aI00
aI00
aI00
aI00
aI00
aa(lp4158
I177958
aF108.1
aF653.264
aVp4
p4159
aS'dejavusans'
p4160
aS'#000000'
p4161
aF12.0
aI0
aI00
aI00
aI00
aI00
aI00
aI00
aI00
aI00
aa(lp4162
I234378
aF147.8005
aF653.264
ag4159
aS'dejavusans'
p4163
aS'#000000'
p4164
aF12.0
aI0
aI00
aI00
aI00
aI00
aI00
aI00
aI00
aI00
aa(lp4165
I234378
aF108.1
aF667.264
aVp4
p4166
aS'dejavusans'
p4167
aS'#000000'
p4168
aF12.0
aI0
aI01
aI00
aI00
aI00
aI00
aI00
aI00
aI00
aa(lp4169
I192651
aF168.556
aF667.264
aVp4
p4170
aS'dejavusans'
p4171
aS'#000000'
p4172
aF12.0
aI0
aI00
aI00
aI00
aI00
aI00
aI00
aI00
aI00
aa(lp4173
I15102
aF191.5
aF667.264
aVp4
p4174
aS'dejavusans'
p4175
aS'#000000'
p4176
aF12.0
aI1
aI01
aI00
aI00
aI00
aI00
aI00
aI00
aI00
aa(lp4177
I40515
aF230.272
aF667.264
aVp4
p4178
aS'dejavusans'
p4179
aS'#000000'
p4180
aF12.0
aI1
aI01
aI00
aI00
aI00
aI00
aI00
aI00
aI00
aa(lp4181
I135639
aF284.284
aF667.264
aVp4
p4182
aS'dejavusans'
p4183
aS'#000000'
p4184
aF12.0
aI0
aI00
aI00
aI00
aI00
aI00
aI00
aI00
aI00
aa(lp4185
I234378
aF303.6
aF667.264
aVp4
p4186
aS'dejavusans'
p4187
aS'#000000'
p4188
aF12.0
aI1
aI01
aI01
aI00
aI00
aI00
aI00
aI00
aI00
aa(lp4189
I234378
aF358.248
aF667.264
aVp4
p4190
aS'dejavusans'
p4191
aS'#000000'
p4192
aF12.0
aI1
aI00
aI00
aI00
aI00
aI00
aI00
aI00
aI00
aa(lp4193
I207986
aF366.168
aF667.264
ag4190
aS'dejavusans'
p4194
aS'#000000'
p4195
aF12.0
aI1
aI01
aI00
aI00
aI00
aI00
aI00
aI00
aI00
aa(lp4196
I27985
aF438.072
aF667.264
aVp4
p4197
aS'dejavusans'
p4198
aS'#000000'
p4199
aF12.0
aI1
aI01
aI00
aI00
aI00
aI00
aI00
aI00
aI00
aa(lp4200
I234378
aF502.59866666666665
aF667.264
ag4197
aS'dejavusans'
p4201
aS'#000000'
p4202
aF12.0
aI1
aI00
aI00
aI00
aI00
aI00
aI00
aI00
aI00
aa(lp4203
I234378
aF509.05133333333333
aF667.264
ag4197
aS'dejavusans'
p4204
aS'#000000'
p4205
aF12.0
aI1
aI00
aI00
aI00
aI00
aI00
aI00
aI00
aI00
aa(lp4206
I166593
aF523.772
aF667.264
aVp4
p4207
aS'dejavusans'
p4208
aS'#000000'
p4209
aF12.0
aI0
aI00
aI00
aI00
aI00
aI00
aI00
aI00
aI00
aa(lp4210
I41479
aF108.1
aF682.164
aVp4
p4211
aS'dejavusans'
p4212
aS'#000000'
p4213
aF12.0
aI0
aI00
aI00
aI00
aI00
aI00
aI00
aI00
aI00
aa(lp4214
I180978
aF154.864
aF682.164
aVp4
p4215
aS'dejavusans'
p4216
aS'#000000'
p4217
aF12.0
aI0
aI00
aI00
aI00
aI00
aI00
aI00
aI00
aI00
aa(lp4218
I234378
aF186.514
aF682.164
ag4215
aS'dejavusans'
p4219
aS'#000000'
p4220
aF12.0
aI0
aI00
aI00
aI00
aI00
aI00
aI00
aI00
aI00
aa(lp4221
I234378
aF108.1
aF72.064
aVp5
p4222
aS'dejavusans'
p4223
aS'#000000'
p4224
aF12.0
aI0
aI01
aI00
aI00
aI00
aI00
aI00
aI00
aI00
aa(lp4225
I192651
aF169.756
aF72.064
aVp5
p4226
aS'dejavusans'
p4227
aS'#000000'
p4228
aF12.0
aI0
aI00
aI00
aI00
aI00
aI00
aI00
aI00
aI00
aa(lp4229
I147842
aF193.828
aF72.064
aVp5
p4230
aS'dejavusans'
p4231
aS'#000000'
p4232
aF12.0
aI0
aI00
aI00
aI00
aI00
aI00
aI00
aI00
aI00
aa(lp4233
I204529
aF235.276
aF72.064
aVp5
p4234
aS'dejavusans'
p4235
aS'#000000'
p4236
aF12.0
aI0
aI00
aI00
aI00
aI00
aI00
aI00
aI00
aI00
aa(lp4237
I190806
aF305.116
aF72.064
aVp5
p4238
aS'dejavusans'
p4239
aS'#000000'
p4240
aF12.0
aI0
aI00
aI00
aI00
aI00
aI00
aI00
aI00
aI00
aa(lp4241
I234378
aF331.4
aF72.064
aVp5
p4242
aS'dejavusans'
p4243
aS'#000000'
p4244
aF12.0
aI1
aI01
aI00
aI00
aI00
aI00
aI00
aI00
aI00
aa(lp4245
I182656
aF384.86
aF72.064
aVp5
p4246
aS'dejavusans'
p4247
aS'#000000'
p4248
aF12.0
aI1
aI01
aI00
aI00
aI00
aI00
aI00
aI00
aI00
aa(lp4249
I153177
aF442.724
aF72.064
aVp5
p4250
aS'dejavusans'
p4251
aS'#000000'
p4252
aF12.0
aI1
aI01
aI00
aI00
aI00
aI00
aI00
aI00
aI00
aa(lp4253
I207716
aF108.1
aF86.964
aVp5
p4254
aS'dejavusans'
p4255
aS'#000000'
p4256
aF12.0
aI1
aI01
aI00
aI00
aI00
aI00
aI00
aI00
aI00
aa(lp4257
I177958
aF161.904
aF86.964
aVp5
p4258
aS'dejavusans'
p4259
aS'#000000'
p4260
aF12.0
aI0
aI00
aI00
aI00
aI00
aI00
aI00
aI00
aI00
aa(lp4261
I73051
aF207.372
aF86.964
aVp5
p4262
aS'dejavusans'
p4263
aS'#000000'
p4264
aF12.0
aI0
aI00
aI00
aI00
aI00
aI00
aI00
aI00
aI00
aa(lp4265
I192651
aF270.42
aF86.964
aVp5
p4266
aS'dejavusans'
p4267
aS'#000000'
p4268
aF12.0
aI0
aI00
aI00
aI00
aI00
aI00
aI00
aI00
aI00
aa(lp4269
I234378
aF289.0
aF86.964
aVp5
p4270
aS'dejavusans'
p4271
aS'#000000'
p4272
aF12.0
aI1
aI01
aI01
aI00
aI00
aI00
aI00
aI00
aI00
aa(lp4273
I135639
aF318.404
aF86.964
aVp5
p4274
aS'dejavusans'
p4275
aS'#000000'
p4276
aF12.0
aI0
aI00
aI00
aI00
aI00
aI00
aI00
aI00
aI00
aa(lp4277
I234378
aF333.188
aF86.964
aVp5
p4278
aS'dejavusans'
p4279
aS'#000000'
p4280
aF12.0
aI0
aI01
aI01
aI00
aI00
aI00
aI00
aI00
aI00
aa(lp4281
I234378
aF365.34
aF86.964
ag4278
aS'dejavusans'
p4282
aS'#000000'
p4283
aF12.0
aI0
aI00
aI00
aI01
aI01
aI01
aI00
aI00
aI00
aa(lp4284
I195863
aF407.144
aF86.964
aVp5
p4285
aS'dejavusans'
p4286
aS'#000000'
p4287
aF12.0
aI0
aI00
aI00
aI00
aI00
aI00
aI00
aI00
aI00
aa(lp4288
I234378
aF449.4695
aF86.964
ag4285
aS'dejavusans'
p4289
aS'#000000'
p4290
aF12.0
aI0
aI00
aI00
aI00
aI00
aI00
aI00
aI00
aI00
aa(lp4291
I234378
aF108.1
aF100.964
aVp5
p4292
aS'dejavusans'
p4293
aS'#000000'
p4294
aF12.0
aI0
aI01
aI00
aI00
aI00
aI00
aI00
aI00
aI00
aa(lp4295
I192651
aF169.06
aF100.964
aVp5
p4296
aS'dejavusans'
p4297
aS'#000000'
p4298
aF12.0
aI0
aI00
aI00
aI00
aI00
aI00
aI00
aI00
aI00
aa(lp4299
I147842
aF192.436
aF100.964
aVp5
p4300
aS'dejavusans'
p4301
aS'#000000'
p4302
aF12.0
aI0
aI00
aI00
aI00
aI00
aI00
aI00
aI00
aI00
aa(lp4303
I204529
aF233.188
aF100.964
aVp5
p4304
aS'dejavusans'
p4305
aS'#000000'
p4306
aF12.0
aI0
aI00
aI00
aI00
aI00
aI00
aI00
aI00
aI00
aa(lp4307
I190806
aF302.332
aF100.964
aVp5
p4308
aS'dejavusans'
p4309
aS'#000000'
p4310
aF12.0
aI0
aI00
aI00
aI00
aI00
aI00
aI00
aI00
aI00
aa(lp4311
I234378
aF328.0
aF100.964
aVp5
p4312
aS'dejavusans'
p4313
aS'#000000'
p4314
aF12.0
aI1
aI01
aI01
aI00
aI00
aI00
aI00
aI00
aI00
aa(lp4315
I153177
aF383.656
aF100.964
aVp5
p4316
aS'dejavusans'
p4317
aS'#000000'
p4318
aF12.0
aI1
aI01
aI00
aI00
aI00
aI00
aI00
aI00
aI00
aa(lp4319
I207716
aF480.976
aF100.964
aVp5
p4320
aS'dejavusans'
p4321
aS'#000000'
p4322
aF12.0
aI1
aI01
aI00
aI00
aI00
aI00
aI00
aI00
aI00
aa(lp4323
I177958
aF108.1
aF115.864
aVp5
p4324
aS'dejavusans'
p4325
aS'#000000'
p4326
aF12.0
aI0
aI00
aI00
aI00
aI00
aI00
aI00
aI00
aI00
aa(lp4327
I73051
aF153.556
aF115.864
aVp5
p4328
aS'dejavusans'
p4329
aS'#000000'
p4330
aF12.0
aI0
aI00
aI00
aI00
aI00
aI00
aI00
aI00
aI00
aa(lp4331
I192651
aF216.604
aF115.864
aVp5
p4332
aS'dejavusans'
p4333
aS'#000000'
p4334
aF12.0
aI0
aI00
aI00
aI00
aI00
aI00
aI00
aI00
aI00
aa(lp4335
I234378
aF235.2
aF115.864
aVp5
p4336
aS'dejavusans'
p4337
aS'#000000'
p4338
aF12.0
aI1
aI01
aI01
aI00
aI00
aI00
aI00
aI00
aI00
aa(lp4339
I135639
aF264.604
aF115.864
aVp5
p4340
aS'dejavusans'
p4341
aS'#000000'
p4342
aF12.0
aI0
aI00
aI00
aI00
aI00
aI00
aI00
aI00
aI00
aa(lp4343
I234378
aF279.388
aF115.864
aVp5
p4344
aS'dejavusans'
p4345
aS'#000000'
p4346
aF12.0
aI0
aI01
aI01
aI00
aI00
aI00
aI00
aI00
aI00
aa(lp4347
I234378
aF311.53999999999996
aF115.864
ag4344
aS'dejavusans'
p4348
aS'#000000'
p4349
aF12.0
aI0
aI00
aI00
aI01
aI01
aI01
aI00
aI00
aI00
aa(lp4350
I195863
aF353.344
aF115.864
aVp5
p4351
aS'dejavusans'
p4352
aS'#000000'
p4353
aF12.0
aI0
aI00
aI00
aI00
aI00
aI00
aI00
aI00
aI00
aa(lp4354
I234378
aF395.66949999999997
aF115.864
ag4351
aS'dejavusans'
p4355
aS'#000000'
p4356
aF12.0
aI0
aI00
aI00
aI00
aI00
aI00
aI00
aI00
aI00
aa(lp4357
I124531
aF72.1
aF153.164
aVp5
p4358
aS'dejavusans'
p4359
aS'#000000'
p4360
aF12.0
aI1
aI01
aI00
aI00
aI00
aI00
aI00
aI00
aI00
aa(lp4361
I23021
aF143.452
aF153.164
aVp5
p4362
aS'dejavusans'
p4363
aS'#000000'
p4364
aF12.0
aI1
aI01
aI00
aI00
aI00
aI00
aI00
aI00
aI00
aa(lp4365
I234378
aF203.6065
aF153.164
ag4362
aS'dejavusans'
p4366
aS'#000000'
p4367
aF12.0
aI1
aI00
aI00
aI00
aI00
aI00
aI00
aI00
aI00
aa(lp4368
I27780
aF108.1
aF185.664
aVp5
p4369
aS'dejavusans'
p4370
aS'#000000'
p4371
aF12.0
aI0
aI01
aI01
aI00
aI00
aI00
aI00
aI00
aI00
aa(lp4372
I234378
aF115.286
aF185.664
ag4369
aS'dejavusans'
p4373
aS'#000000'
p4374
aF12.0
aI0
aI00
aI00
aI00
aI00
aI00
aI00
aI00
aI00
aa(lp4375
I2737
aF122.47200000000001
aF185.664
ag4369
aS'dejavusans'
p4376
aS'#000000'
p4377
aF12.0
aI0
aI01
aI01
aI00
aI00
aI00
aI00
aI00
aI00
aa(lp4378
I234378
aF156.28
aF185.664
aVp5
p4379
aS'dejavusans'
p4380
aS'#000000'
p4381
aF12.0
aI0
aI00
aI00
aI00
aI00
aI00
aI00
aI00
aI00
aa(lp4382
I74911
aF162.221
aF185.664
ag4379
aS'dejavusans'
p4383
aS'#000000'
p4384
aF12.0
aI0
aI01
aI00
aI00
aI00
aI00
aI00
aI00
aI00
aa(lp4385
I43052
aF232.66
aF185.664
aVp5
p4386
aS'dejavusans'
p4387
aS'#000000'
p4388
aF12.0
aI0
aI01
aI00
aI00
aI00
aI00
aI00
aI00
aI00
aa(lp4389
I234378
aF295.73636363636365
aF185.664
ag4386
aS'dejavusans'
p4390
aS'#000000'
p4391
aF12.0
aI0
aI00
aI00
aI00
aI00
aI00
aI00
aI00
aI00
aa(lp4392
I131049
aF307.048
aF185.664
aVp5
p4393
aS'dejavusans'
p4394
aS'#000000'
p4395
aF12.0
aI0
aI00
aI00
aI00
aI00
aI00
aI00
aI00
aI00
aa(lp4396
I234378
aF339.992
aF185.664
aVp5
p4397
aS'dejavusans'
p4398
aS'#000000'
p4399
aF12.0
aI1
aI01
aI01
aI00
aI00
aI00
aI00
aI00
aI00
aa(lp4400
I234378
aF387.5222857142857
aF185.664
ag4397
aS'dejavusans'
p4401
aS'#000000'
p4402
aF12.0
aI1
aI00
aI00
aI00
aI00
aI00
aI00
aI00
aI00
aa(lp4403
I234378
aF400.772
aF185.664
aVp5
p4404
aS'dejavusans'
p4405
aS'#000000'
p4406
aF12.0
aI1
aI01
aI00
aI00
aI00
aI00
aI00
aI00
aI00
aa(lp4407
I234378
aF469.6
aF185.664
aVp5
p4408
aS'dejavusans'
p4409
aS'#000000'
p4410
aF12.0
aI0
aI00
aI00
aI00
aI00
aI00
aI00
aI00
aI00
aa(lp4411
I166593
aF476.05400000000003
aF185.664
ag4408
aS'dejavusans'
p4412
aS'#000000'
p4413
aF12.0
aI0
aI01
aI01
aI00
aI00
aI00
aI00
aI00
aI00
aa(lp4414
I234378
aF487.572
aF185.664
aVp5
p4415
aS'dejavusans'
p4416
aS'#000000'
p4417
aF12.0
aI0
aI01
aI00
aI00
aI00
aI00
aI00
aI00
aI00
aa(lp4418
I234378
aF512.5416
aF185.664
ag4415
aS'dejavusans'
p4419
aS'#000000'
p4420
aF12.0
aI0
aI00
aI00
aI00
aI00
aI00
aI00
aI00
aI00
aa(lp4421
I199937
aF108.1
aF200.564
aVp5
p4422
aS'dejavusans'
p4423
aS'#000000'
p4424
aF12.0
aI0
aI01
aI00
aI00
aI00
aI00
aI00
aI00
aI00
aa(lp4425
I41479
aF182.8
aF200.564
aVp5
p4426
aS'dejavusans'
p4427
aS'#000000'
p4428
aF12.0
aI0
aI01
aI00
aI00
aI00
aI00
aI00
aI00
aI00
aa(lp4429
I234378
aF224.50600000000003
aF200.564
ag4426
aS'dejavusans'
p4430
aS'#000000'
p4431
aF12.0
aI0
aI00
aI00
aI00
aI00
aI00
aI00
aI00
aI00
aa(lp4432
I212148
aF235.66
aF200.564
aVp5
p4433
aS'dejavusans'
p4434
aS'#000000'
p4435
aF12.0
aI0
aI00
aI00
aI00
aI00
aI00
aI00
aI00
aI00
aa(lp4436
I234378
aF275.3
aF200.564
aVp5
p4437
aS'dejavusans'
p4438
aS'#000000'
p4439
aF12.0
aI1
aI01
aI00
aI00
aI00
aI00
aI00
aI00
aI00
aa(lp4440
I149270
aF346.376
aF200.564
aVp5
p4441
aS'dejavusans'
p4442
aS'#000000'
p4443
aF12.0
aI1
aI01
aI00
aI00
aI00
aI00
aI00
aI00
aI00
aa(lp4444
I153079
aF412.256
aF200.564
aVp5
p4445
aS'dejavusans'
p4446
aS'#000000'
p4447
aF12.0
aI1
aI01
aI00
aI00
aI00
aI00
aI00
aI00
aI00
aa(lp4448
I234378
aF476.5723636363636
aF200.564
ag4445
aS'dejavusans'
p4449
aS'#000000'
p4450
aF12.0
aI1
aI00
aI00
aI00
aI00
aI00
aI00
aI00
aI00
aa(lp4451
I212610
aF488.5
aF200.564
aVp5
p4452
aS'dejavusans'
p4453
aS'#000000'
p4454
aF12.0
aI1
aI01
aI00
aI00
aI00
aI00
aI00
aI00
aI00
aa(lp4455
I169745
aF108.1
aF214.564
aVp5
p4456
aS'dejavusans'
p4457
aS'#000000'
p4458
aF12.0
aI0
aI00
aI00
aI00
aI00
aI00
aI00
aI00
aI00
aa(lp4459
I82769
aF136.204
aF214.564
aVp5
p4460
aS'dejavusans'
p4461
aS'#000000'
p4462
aF12.0
aI0
aI00
aI00
aI00
aI00
aI00
aI00
aI00
aI00
aa(lp4463
I234378
aF199.4
aF214.564
aVp5
p4464
aS'dejavusans'
p4465
aS'#000000'
p4466
aF12.0
aI1
aI00
aI00
aI01
aI01
aI01
aI00
aI00
aI00
aa(lp4467
I234378
aF215.668
aF214.564
ag4464
aS'dejavusans'
p4468
aS'#000000'
p4469
aF12.0
aI1
aI00
aI00
aI00
aI00
aI00
aI00
aI00
aI00
aa(lp4470
I234378
aF223.80200000000002
aF214.564
ag4464
aS'dejavusans'
p4471
aS'#000000'
p4472
aF12.0
aI1
aI00
aI00
aI01
aI01
aI01
aI00
aI00
aI00
aa(lp4473
I135639
aF252.1
aF214.564
aVp5
p4474
aS'dejavusans'
p4475
aS'#000000'
p4476
aF12.0
aI0
aI00
aI00
aI00
aI00
aI00
aI00
aI00
aI00
aa(lp4477
I234378
aF266.104
aF214.564
aVp5
p4478
aS'dejavusans'
p4479
aS'#000000'
p4480
aF12.0
aI0
aI00
aI00
aI01
aI01
aI01
aI00
aI00
aI00
aa(lp4481
I234378
aF293.5792
aF214.564
ag4478
aS'dejavusans'
p4482
aS'#000000'
p4483
aF12.0
aI0
aI00
aI00
aI00
aI00
aI00
aI00
aI00
aI00
aa(lp4484
I55966
aF108.1
aF231.564
aVp5
p4485
aS'dejavusans'
p4486
aS'#000000'
p4487
aF12.0
aI1
aI01
aI00
aI00
aI00
aI00
aI00
aI00
aI00
aa(lp4488
I96401
aF160.768
aF231.564
aVp5
p4489
aS'dejavusans'
p4490
aS'#000000'
p4491
aF12.0
aI1
aI01
aI00
aI00
aI00
aI00
aI00
aI00
aI00
aa(lp4492
I131049
aF240.4
aF231.564
aVp5
p4493
aS'dejavusans'
p4494
aS'#000000'
p4495
aF12.0
aI0
aI00
aI00
aI00
aI00
aI00
aI00
aI00
aI00
aa(lp4496
I234378
aF277.468
aF231.564
aVp5
p4497
aS'dejavusans'
p4498
aS'#000000'
p4499
aF12.0
aI0
aI01
aI00
aI00
aI00
aI00
aI00
aI00
aI00
aa(lp4500
I234378
aF315.052
aF231.564
aVp5
p4501
aS'dejavusans'
p4502
aS'#000000'
p4503
aF12.0
aI0
aI01
aI00
aI00
aI00
aI00
aI00
aI00
aI00
aa(lp4504
I234378
aF325.82000000000005
aF231.564
ag4501
aS'dejavusans'
p4505
aS'#000000'
p4506
aF12.0
aI0
aI00
aI00
aI00
aI00
aI00
aI00
aI00
aI00
aa(lp4507
I109144
aF341.08
aF231.564
aVp5
p4508
aS'dejavusans'
p4509
aS'#000000'
p4510
aF12.0
aI0
aI01
aI00
aI00
aI00
aI00
aI00
aI00
aI00
aa(lp4511
I234378
aF359.611
aF231.564
ag4508
aS'dejavusans'
p4512
aS'#000000'
p4513
aF12.0
aI0
aI00
aI00
aI00
aI00
aI00
aI00
aI00
aI00
aa(lp4514
I186485
aF375.664
aF231.564
aVp5
p4515
aS'dejavusans'
p4516
aS'#000000'
p4517
aF12.0
aI0
aI01
aI00
aI00
aI00
aI00
aI00
aI00
aI00
aa(lp4518
I60382
aF424.132
aF231.564
aVp5
p4519
aS'dejavusans'
p4520
aS'#000000'
p4521
aF12.0
aI0
aI01
aI00
aI00
aI00
aI00
aI00
aI00
aI00
aa(lp4522
I234378
aF485.92
aF231.564
aVp5
p4523
aS'dejavusans'
p4524
aS'#000000'
p4525
aF12.0
aI0
aI01
aI00
aI00
aI00
aI00
aI00
aI00
aI00
aa(lp4526
I234378
aF512.1664000000001
aF231.564
ag4523
aS'dejavusans'
p4527
aS'#000000'
p4528
aF12.0
aI0
aI00
aI00
aI00
aI00
aI00
aI00
aI00
aI00
aa(lp4529
I234378
aF108.1
aF246.464
aVp5
p4530
aS'dejavusans'
p4531
aS'#000000'
p4532
aF12.0
aI0
aI01
aI00
aI00
aI00
aI00
aI00
aI00
aI00
aa(lp4533
I234378
aF163.18
aF246.464
aVp5
p4534
aS'dejavusans'
p4535
aS'#000000'
p4536
aF12.0
aI0
aI00
aI00
aI00
aI00
aI00
aI00
aI00
aI00
aa(lp4537
I55036
aF168.27800000000002
aF246.464
ag4534
aS'dejavusans'
p4538
aS'#000000'
p4539
aF12.0
aI0
aI01
aI00
aI00
aI00
aI00
aI00
aI00
aI00
aa(lp4540
I234378
aF183.57200000000003
aF246.464
ag4534
aS'dejavusans'
p4541
aS'#000000'
p4542
aF12.0
aI0
aI00
aI00
aI00
aI00
aI00
aI00
aI00
aI00
aa(lp4543
I234378
aF188.67000000000004
aF246.464
ag4534
aS'dejavusans'
p4544
aS'#000000'
p4545
aF12.0
aI0
aI00
aI00
aI00
aI00
aI00
aI00
aI00
aI00
aa(lp4546
I234378
aF203.644
aF246.464
aVp5
p4547
aS'dejavusans'
p4548
aS'#000000'
p4549
aF12.0
aI0
aI00
aI00
aI00
aI00
aI00
aI00
aI00
aI00
aa(lp4550
I150812
aF212.32
aF246.464
aVp5
p4551
aS'dejavusans'
p4552
aS'#000000'
p4553
aF12.0
aI0
aI01
aI00
aI00
aI00
aI00
aI00
aI00
aI00
aa(lp4554
I144489
aF251.296
aF246.464
aVp5
p4555
aS'dejavusans'
p4556
aS'#000000'
p4557
aF12.0
aI0
aI00
aI00
aI00
aI00
aI00
aI00
aI00
aI00
aa(lp4558
I96401
aF267.472
aF246.464
aVp5
p4559
aS'dejavusans'
p4560
aS'#000000'
p4561
aF12.0
aI0
aI01
aI00
aI00
aI00
aI00
aI00
aI00
aI00
aa(lp4562
I124531
aF333.748
aF246.464
aVp5
p4563
aS'dejavusans'
p4564
aS'#000000'
p4565
aF12.0
aI0
aI01
aI00
aI00
aI00
aI00
aI00
aI00
aI00
aa(lp4566
I234378
aF388.9252
aF246.464
ag4563
aS'dejavusans'
p4567
aS'#000000'
p4568
aF12.0
aI0
aI00
aI00
aI00
aI00
aI00
aI00
aI00
aI00
aa(lp4569
I234378
aF399.928
aF246.464
aVp5
p4570
aS'dejavusans'
p4571
aS'#000000'
p4572
aF12.0
aI0
aI01
aI00
aI00
aI00
aI00
aI00
aI00
aI00
aa(lp4573
I135639
aF462.304
aF246.464
aVp5
p4574
aS'dejavusans'
p4575
aS'#000000'
p4576
aF12.0
aI0
aI00
aI00
aI00
aI00
aI00
aI00
aI00
aI00
aa(lp4577
I234378
aF477.772
aF246.464
aVp5
p4578
aS'dejavusans'
p4579
aS'#000000'
p4580
aF12.0
aI0
aI00
aI00
aI01
aI01
aI01
aI00
aI00
aI00
aa(lp4581
I125801
aF108.1
aF260.464
aVp5
p4582
aS'dejavusans'
p4583
aS'#000000'
p4584
aF12.0
aI0
aI01
aI00
aI00
aI00
aI00
aI00
aI00
aI00
aa(lp4585
I92191
aF135.688
aF260.464
aVp5
p4586
aS'dejavusans'
p4587
aS'#000000'
p4588
aF12.0
aI0
aI01
aI00
aI00
aI00
aI00
aI00
aI00
aI00
aa(lp4589
I169745
aF184.78
aF260.464
aVp5
p4590
aS'dejavusans'
p4591
aS'#000000'
p4592
aF12.0
aI0
aI00
aI00
aI00
aI00
aI00
aI00
aI00
aI00
aa(lp4593
I234378
aF213.1
aF260.464
aVp5
p4594
aS'dejavusans'
p4595
aS'#000000'
p4596
aF12.0
aI1
aI00
aI00
aI01
aI01
aI01
aI00
aI00
aI00
aa(lp4597
I234378
aF228.22685714285714
aF260.464
ag4594
aS'dejavusans'
p4598
aS'#000000'
p4599
aF12.0
aI1
aI00
aI00
aI00
aI00
aI00
aI00
aI00
aI00
aa(lp4600
I234378
aF235.79028571428572
aF260.464
ag4594
aS'dejavusans'
p4601
aS'#000000'
p4602
aF12.0
aI1
aI00
aI00
aI01
aI01
aI01
aI00
aI00
aI00
aa(lp4603
I234378
aF247.91714285714286
aF260.464
ag4594
aS'dejavusans'
p4604
aS'#000000'
p4605
aF12.0
aI1
aI00
aI00
aI00
aI00
aI00
aI00
aI00
aI00
aa(lp4606
I96401
aF108.1
aF277.464
aVp5
p4607
aS'dejavusans'
p4608
aS'#000000'
p4609
aF12.0
aI1
aI01
aI00
aI00
aI00
aI00
aI00
aI00
aI00
aa(lp4610
I131049
aF184.6
aF277.464
aVp5
p4611
aS'dejavusans'
p4612
aS'#000000'
p4613
aF12.0
aI0
aI00
aI00
aI00
aI00
aI00
aI00
aI00
aI00
aa(lp4614
I234378
aF217.552
aF277.464
aVp5
p4615
aS'dejavusans'
p4616
aS'#000000'
p4617
aF12.0
aI0
aI01
aI00
aI00
aI00
aI00
aI00
aI00
aI00
aa(lp4618
I234378
aF281.992
aF277.464
aVp5
p4619
aS'dejavusans'
p4620
aS'#000000'
p4621
aF12.0
aI0
aI01
aI00
aI00
aI00
aI00
aI00
aI00
aI00
aa(lp4622
I234378
aF292.12
aF277.464
ag4619
aS'dejavusans'
p4623
aS'#000000'
p4624
aF12.0
aI0
aI00
aI00
aI00
aI00
aI00
aI00
aI00
aI00
aa(lp4625
I109144
aF302.26
aF277.464
aVp5
p4626
aS'dejavusans'
p4627
aS'#000000'
p4628
aF12.0
aI0
aI01
aI00
aI00
aI00
aI00
aI00
aI00
aI00
aa(lp4629
I234378
aF321.295
aF277.464
ag4626
aS'dejavusans'
p4630
aS'#000000'
p4631
aF12.0
aI0
aI00
aI00
aI00
aI00
aI00
aI00
aI00
aI00
aa(lp4632
I186485
aF332.716
aF277.464
aVp5
p4633
aS'dejavusans'
p4634
aS'#000000'
p4635
aF12.0
aI0
aI01
aI00
aI00
aI00
aI00
aI00
aI00
aI00
aa(lp4636
I234378
aF370.05314285714286
aF277.464
ag4633
aS'dejavusans'
p4637
aS'#000000'
p4638
aF12.0
aI0
aI00
aI00
aI00
aI00
aI00
aI00
aI00
aI00
aa(lp4639
I234378
aF381.256
aF277.464
aVp5
p4640
aS'dejavusans'
p4641
aS'#000000'
p4642
aF12.0
aI0
aI01
aI00
aI00
aI00
aI00
aI00
aI00
aI00
aa(lp4643
I234378
aF438.22
aF277.464
aVp5
p4644
aS'dejavusans'
p4645
aS'#000000'
p4646
aF12.0
aI0
aI00
aI00
aI00
aI00
aI00
aI00
aI00
aI00
aa(lp4647
I55036
aF443.31828571428576
aF277.464
ag4644
aS'dejavusans'
p4648
aS'#000000'
p4649
aF12.0
aI0
aI01
aI00
aI00
aI00
aI00
aI00
aI00
aI00
aa(lp4650
I234378
aF458.6131428571429
aF277.464
ag4644
aS'dejavusans'
p4651
aS'#000000'
p4652
aF12.0
aI0
aI00
aI00
aI00
aI00
aI00
aI00
aI00
aI00
aa(lp4653
I234378
aF463.71142857142866
aF277.464
ag4644
aS'dejavusans'
p4654
aS'#000000'
p4655
aF12.0
aI0
aI00
aI00
aI00
aI00
aI00
aI00
aI00
aI00
aa(lp4656
I234378
aF468.8097142857144
aF277.464
ag4644
aS'dejavusans'
p4657
aS'#000000'
p4658
aF12.0
aI0
aI00
aI00
aI00
aI00
aI00
aI00
aI00
aI00
aa(lp4659
I150812
aF478.984
aF277.464
aVp5
p4660
aS'dejavusans'
p4661
aS'#000000'
p4662
aF12.0
aI0
aI01
aI00
aI00
aI00
aI00
aI00
aI00
aI00
aa(lp4663
I144489
aF519.232
aF277.464
aVp5
p4664
aS'dejavusans'
p4665
aS'#000000'
p4666
aF12.0
aI0
aI00
aI00
aI00
aI00
aI00
aI00
aI00
aI00
aa(lp4667
I96401
aF108.1
aF292.364
aVp5
p4668
aS'dejavusans'
p4669
aS'#000000'
p4670
aF12.0
aI0
aI01
aI00
aI00
aI00
aI00
aI00
aI00
aI00
aa(lp4671
I124531
aF175.444
aF292.364
aVp5
p4672
aS'dejavusans'
p4673
aS'#000000'
p4674
aF12.0
aI0
aI01
aI00
aI00
aI00
aI00
aI00
aI00
aI00
aa(lp4675
I234378
aF232.5544
aF292.364
ag4672
aS'dejavusans'
p4676
aS'#000000'
p4677
aF12.0
aI0
aI00
aI00
aI00
aI00
aI00
aI00
aI00
aI00
aa(lp4678
I234378
aF242.788
aF292.364
aVp5
p4679
aS'dejavusans'
p4680
aS'#000000'
p4681
aF12.0
aI0
aI01
aI00
aI00
aI00
aI00
aI00
aI00
aI00
aa(lp4682
I135639
aF306.16
aF292.364
aVp5
p4683
aS'dejavusans'
p4684
aS'#000000'
p4685
aF12.0
aI0
aI00
aI00
aI00
aI00
aI00
aI00
aI00
aI00
aa(lp4686
I234378
aF320.956
aF292.364
aVp5
p4687
aS'dejavusans'
p4688
aS'#000000'
p4689
aF12.0
aI0
aI00
aI00
aI01
aI01
aI01
aI00
aI00
aI00
aa(lp4690
I125801
aF365.128
aF292.364
aVp5
p4691
aS'dejavusans'
p4692
aS'#000000'
p4693
aF12.0
aI0
aI01
aI00
aI00
aI00
aI00
aI00
aI00
aI00
aa(lp4694
I92191
aF394.12
aF292.364
aVp5
p4695
aS'dejavusans'
p4696
aS'#000000'
p4697
aF12.0
aI0
aI01
aI00
aI00
aI00
aI00
aI00
aI00
aI00
aa(lp4698
I169745
aF445.492
aF292.364
aVp5
p4699
aS'dejavusans'
p4700
aS'#000000'
p4701
aF12.0
aI0
aI00
aI00
aI00
aI00
aI00
aI00
aI00
aI00
aa(lp4702
I234378
aF475.0
aF292.364
aVp5
p4703
aS'dejavusans'
p4704
aS'#000000'
p4705
aF12.0
aI1
aI00
aI00
aI01
aI01
aI01
aI00
aI00
aI00
aa(lp4706
I234378
aF490.54857142857145
aF292.364
ag4703
aS'dejavusans'
p4707
aS'#000000'
p4708
aF12.0
aI1
aI00
aI00
aI00
aI00
aI00
aI00
aI00
aI00
aa(lp4709
I234378
aF498.3228571428572
aF292.364
ag4703
aS'dejavusans'
p4710
aS'#000000'
p4711
aF12.0
aI1
aI00
aI00
aI01
aI01
aI01
aI00
aI00
aI00
aa(lp4712
I234378
aF510.8714285714286
aF292.364
ag4703
aS'dejavusans'
p4713
aS'#000000'
p4714
aF12.0
aI1
aI00
aI00
aI00
aI00
aI00
aI00
aI00
aI00
aa(lp4715
I7520
aF72.1
aF357.564
aVp5
p4716
aS'dejavusans'
p4717
aS'#000000'
p4718
aF12.0
aI1
aI01
aI00
aI00
aI00
aI00
aI00
aI00
aI00
aa(lp4719
I234378
aF135.244
aF357.564
aVp5
p4720
aS'dejavusans'
p4721
aS'#000000'
p4722
aF12.0
aI1
aI01
aI00
aI00
aI00
aI00
aI00
aI00
aI00
aa(lp4723
I234378
aF180.793
aF357.564
ag4720
aS'dejavusans'
p4724
aS'#000000'
p4725
aF12.0
aI1
aI00
aI00
aI00
aI00
aI00
aI00
aI00
aI00
aa(lp4726
I125482
aF126.3
aF390.064
aVp5
p4727
aS'dejavusans'
p4728
aS'#000000'
p4729
aF12.0
aI0
aI01
aI00
aI00
aI00
aI00
aI00
aI00
aI00
aa(lp4730
I59734
aF163.093
aF390.064
ag4727
aS'dejavusans'
p4731
aS'#000000'
p4732
aF12.0
aI0
aI00
aI00
aI00
aI00
aI00
aI00
aI00
aI00
aa(lp4733
I158577
aF177.876
aF390.064
aVp5
p4734
aS'dejavusans'
p4735
aS'#000000'
p4736
aF12.0
aI0
aI00
aI00
aI00
aI00
aI00
aI00
aI00
aI00
aa(lp4737
I234378
aF263.6
aF390.064
aVp5
p4738
aS'dejavusans'
p4739
aS'#000000'
p4740
aF12.0
aI0
aI00
aI00
aI00
aI00
aI00
aI00
aI00
aI00
aa(lp4741
I154788
aF284.6
aF390.064
aVp5
p4742
aS'dejavusans'
p4743
aS'#000000'
p4744
aF12.0
aI0
aI01
aI00
aI00
aI00
aI00
aI00
aI00
aI00
aa(lp4745
I234378
aF296.528
aF390.064
ag4742
aS'dejavusans'
p4746
aS'#000000'
p4747
aF12.0
aI0
aI00
aI00
aI00
aI00
aI00
aI00
aI00
aI00
aa(lp4748
I234378
aF306.38
aF390.064
aVp5
p4749
aS'dejavusans'
p4750
aS'#000000'
p4751
aF12.0
aI0
aI01
aI00
aI00
aI00
aI00
aI00
aI00
aI00
aa(lp4752
I234378
aF358.94
aF390.064
aVp5
p4753
aS'dejavusans'
p4754
aS'#000000'
p4755
aF12.0
aI0
aI01
aI00
aI00
aI00
aI00
aI00
aI00
aI00
aa(lp4756
I216352
aF126.3
aF404.264
aVp5
p4757
aS'dejavusans'
p4758
aS'#000000'
p4759
aF12.0
aI0
aI01
aI00
aI00
aI00
aI00
aI00
aI00
aI00
aa(lp4760
I59734
aF166.54
aF404.264
ag4757
aS'dejavusans'
p4761
aS'#000000'
p4762
aF12.0
aI0
aI00
aI00
aI00
aI00
aI00
aI00
aI00
aI00
aa(lp4763
I158577
aF182.472
aF404.264
aVp5
p4764
aS'dejavusans'
p4765
aS'#000000'
p4766
aF12.0
aI0
aI00
aI00
aI00
aI00
aI00
aI00
aI00
aI00
aa(lp4767
I234378
aF263.6
aF404.264
aVp5
p4768
aS'dejavusans'
p4769
aS'#000000'
p4770
aF12.0
aI0
aI00
aI00
aI00
aI00
aI00
aI00
aI00
aI00
aa(lp4771
I180562
aF284.6
aF404.264
aVp5
p4772
aS'dejavusans'
p4773
aS'#000000'
p4774
aF12.0
aI0
aI01
aI00
aI00
aI00
aI00
aI00
aI00
aI00
aa(lp4775
I234378
aF303.56300000000005
aF404.264
ag4772
aS'dejavusans'
p4776
aS'#000000'
p4777
aF12.0
aI0
aI00
aI00
aI00
aI00
aI00
aI00
aI00
aI00
aa(lp4778
I234378
aF313.688
aF404.264
aVp5
p4779
aS'dejavusans'
p4780
aS'#000000'
p4781
aF12.0
aI0
aI01
aI00
aI00
aI00
aI00
aI00
aI00
aI00
aa(lp4782
I234378
aF362.54
aF404.264
aVp5
p4783
aS'dejavusans'
p4784
aS'#000000'
p4785
aF12.0
aI0
aI01
aI00
aI00
aI00
aI00
aI00
aI00
aI00
aa(lp4786
I132955
aF126.3
aF418.564
aVp5
p4787
aS'dejavusans'
p4788
aS'#000000'
p4789
aF12.0
aI0
aI01
aI00
aI00
aI00
aI00
aI00
aI00
aI00
aa(lp4790
I144489
aF158.796
aF418.564
aVp5
p4791
aS'dejavusans'
p4792
aS'#000000'
p4793
aF12.0
aI0
aI00
aI00
aI00
aI00
aI00
aI00
aI00
aI00
aa(lp4794
I132529
aF174.18
aF418.564
aVp5
p4795
aS'dejavusans'
p4796
aS'#000000'
p4797
aF12.0
aI0
aI01
aI00
aI00
aI00
aI00
aI00
aI00
aI00
aa(lp4798
I234378
aF263.6
aF418.564
aVp5
p4799
aS'dejavusans'
p4800
aS'#000000'
p4801
aF12.0
aI0
aI00
aI00
aI00
aI00
aI00
aI00
aI00
aI00
aa(lp4802
I101893
aF284.6
aF418.564
aVp5
p4803
aS'dejavusans'
p4804
aS'#000000'
p4805
aF12.0
aI0
aI01
aI00
aI00
aI00
aI00
aI00
aI00
aI01
aa(lp4806
I234378
aF313.796
aF418.564
aVp5
p4807
aS'dejavusans'
p4808
aS'#000000'
p4809
aF12.0
aI0
aI00
aI00
aI01
aI01
aI01
aI00
aI00
aI00
aa(lp4810
I234378
aF326.46
aF418.564
ag4807
aS'dejavusans'
p4811
aS'#000000'
p4812
aF12.0
aI0
aI00
aI00
aI00
aI00
aI00
aI00
aI00
aI00
aa(lp4813
I234378
aF336.68
aF418.564
aVp5
p4814
aS'dejavusans'
p4815
aS'#000000'
p4816
aF12.0
aI0
aI00
aI00
aI01
aI01
aI01
aI00
aI00
aI00
aa(lp4817
I212271
aF126.3
aF432.764
aVp5
p4818
aS'dejavusans'
p4819
aS'#000000'
p4820
aF12.0
aI0
aI01
aI00
aI00
aI00
aI00
aI00
aI00
aI00
aa(lp4821
I12510
aF171.468
aF432.764
aVp5
p4822
aS'dejavusans'
p4823
aS'#000000'
p4824
aF12.0
aI0
aI01
aI00
aI00
aI00
aI00
aI00
aI00
aI00
aa(lp4825
I234378
aF263.6
aF432.764
aVp5
p4826
aS'dejavusans'
p4827
aS'#000000'
p4828
aF12.0
aI0
aI00
aI00
aI00
aI00
aI00
aI00
aI00
aI00
aa(lp4829
I118865
aF284.6
aF432.764
aVp5
p4830
aS'dejavusans'
p4831
aS'#000000'
p4832
aF12.0
aI0
aI01
aI00
aI00
aI00
aI00
aI00
aI00
aI00
aa(lp4833
I234378
aF126.3
aF447.064
aVp5
p4834
aS'dejavusans'
p4835
aS'#000000'
p4836
aF12.0
aI0
aI01
aI00
aI00
aI00
aI00
aI00
aI00
aI00
aa(lp4837
I136346
aF195.54
aF447.064
aVp5
p4838
aS'dejavusans'
p4839
aS'#000000'
p4840
aF12.0
aI0
aI01
aI00
aI00
aI00
aI00
aI00
aI00
aI00
aa(lp4841
I234378
aF263.6
aF447.064
aVp5
p4842
aS'dejavusans'
p4843
aS'#000000'
p4844
aF12.0
aI0
aI00
aI00
aI00
aI00
aI00
aI00
aI00
aI00
aa(lp4845
I58002
aF284.6
aF447.064
aVp5
p4846
aS'dejavusans'
p4847
aS'#000000'
p4848
aF12.0
aI0
aI01
aI00
aI00
aI00
aI00
aI00
aI00
aI00
aa(lp4849
I234378
aF325.781
aF447.064
ag4846
aS'dejavusans'
p4850
aS'#000000'
p4851
aF12.0
aI0
aI00
aI00
aI00
aI00
aI00
aI00
aI00
aI00
aa(lp4852
I144532
aF335.468
aF447.064
aVp5
p4853
aS'dejavusans'
p4854
aS'#000000'
p4855
aF12.0
aI0
aI01
aI00
aI00
aI00
aI00
aI00
aI00
aI00
aa(lp4856
I234378
aF126.3
aF461.264
aVp5
p4857
aS'dejavusans'
p4858
aS'#000000'
p4859
aF12.0
aI0
aI01
aI00
aI00
aI00
aI00
aI00
aI00
aI00
aa(lp4860
I234378
aF263.6
aF461.264
aVp5
p4861
aS'dejavusans'
p4862
aS'#000000'
p4863
aF12.0
aI0
aI00
aI00
aI00
aI00
aI00
aI00
aI00
aI00
aa(lp4864
I151713
aF284.6
aF461.264
aVp5
p4865
aS'dejavusans'
p4866
aS'#000000'
p4867
aF12.0
aI0
aI01
aI00
aI00
aI00
aI00
aI00
aI00
aI00
aa(lp4868
I89480
aF342.86
aF461.264
aVp5
p4869
aS'dejavusans'
p4870
aS'#000000'
p4871
aF12.0
aI0
aI00
aI00
aI00
aI00
aI00
aI00
aI00
aI00
aa(lp4872
I175717
aF358.76
aF461.264
aVp5
p4873
aS'dejavusans'
p4874
aS'#000000'
p4875
aF12.0
aI0
aI00
aI00
aI00
aI00
aI00
aI00
aI00
aI00
aa(lp4876
I28425
aF126.3
aF475.564
aVp5
p4877
aS'dejavusans'
p4878
aS'#000000'
p4879
aF12.0
aI0
aI01
aI00
aI00
aI00
aI00
aI00
aI00
aI00
aa(lp4880
I118366
aF195.252
aF475.564
aVp5
p4881
aS'dejavusans'
p4882
aS'#000000'
p4883
aF12.0
aI0
aI01
aI00
aI00
aI00
aI00
aI00
aI00
aI00
aa(lp4884
I234378
aF263.6
aF475.564
aVp5
p4885
aS'dejavusans'
p4886
aS'#000000'
p4887
aF12.0
aI0
aI00
aI00
aI00
aI00
aI00
aI00
aI00
aI00
aa(lp4888
I234378
aF284.6
aF475.564
aVp5
p4889
aS'dejavusans'
p4890
aS'#000000'
p4891
aF12.0
aI0
aI01
aI01
aI00
aI00
aI00
aI00
aI00
aI00
aa(lp4892
I201816
aF313.868
aF475.564
aVp5
p4893
aS'dejavusans'
p4894
aS'#000000'
p4895
aF12.0
aI0
aI01
aI00
aI00
aI00
aI00
aI00
aI00
aI00
aa(lp4896
I234378
aF327.124
aF475.564
ag4893
aS'dejavusans'
p4897
aS'#000000'
p4898
aF12.0
aI0
aI00
aI00
aI00
aI00
aI00
aI00
aI00
aI00
aa(lp4899
I234378
aF337.916
aF475.564
aVp5
p4900
aS'dejavusans'
p4901
aS'#000000'
p4902
aF12.0
aI0
aI00
aI00
aI01
aI01
aI01
aI00
aI00
aI00
aa(lp4903
I234378
aF350.644
aF475.564
ag4900
aS'dejavusans'
p4904
aS'#000000'
p4905
aF12.0
aI0
aI00
aI00
aI00
aI00
aI00
aI00
aI00
aI00
aa(lp4906
I234378
aF361.172
aF475.564
aVp5
p4907
aS'dejavusans'
p4908
aS'#000000'
p4909
aF12.0
aI0
aI01
aI00
aI00
aI00
aI00
aI00
aI00
aI00
aa(lp4910
I217236
aF414.416
aF475.564
aVp5
p4911
aS'dejavusans'
p4912
aS'#000000'
p4913
aF12.0
aI0
aI01
aI00
aI00
aI00
aI00
aI00
aI00
aI00
aa(lp4914
I234378
aF459.668
aF475.564
aVp5
p4915
aS'dejavusans'
p4916
aS'#000000'
p4917
aF12.0
aI0
aI01
aI00
aI00
aI00
aI00
aI00
aI00
aI00
aa(lp4918
I234378
aF494.624
aF475.564
aVp5
p4919
aS'dejavusans'
p4920
aS'#000000'
p4921
aF12.0
aI0
aI01
aI00
aI00
aI00
aI00
aI00
aI00
aI00
aa(lp4922
I234378
aF284.6
aF489.564
aVp5
p4923
aS'dejavusans'
p4924
aS'#000000'
p4925
aF12.0
aI0
aI01
aI00
aI00
aI00
aI00
aI00
aI00
aI00
aa(lp4926
I234378
aF347.96
aF489.564
aVp5
p4927
aS'dejavusans'
p4928
aS'#000000'
p4929
aF12.0
aI0
aI00
aI00
aI00
aI00
aI00
aI00
aI00
aI00
aa(lp4930
I55036
aF353.272
aF489.564
ag4927
aS'dejavusans'
p4931
aS'#000000'
p4932
aF12.0
aI0
aI01
aI00
aI00
aI00
aI00
aI00
aI00
aI00
aa(lp4933
I234378
aF369.20799999999997
aF489.564
ag4927
aS'dejavusans'
p4934
aS'#000000'
p4935
aF12.0
aI0
aI00
aI00
aI00
aI00
aI00
aI00
aI00
aI00
aa(lp4936
I234378
aF374.52
aF489.564
ag4927
aS'dejavusans'
p4937
aS'#000000'
p4938
aF12.0
aI0
aI00
aI00
aI00
aI00
aI00
aI00
aI00
aI00
aa(lp4939
I234378
aF428.576
aF531.564
aVp5
p4940
aS'dejavusans'
p4941
aS'#000000'
p4942
aF12.0
aI1
aI01
aI01
aI00
aI00
aI00
aI00
aI00
aI00
aa(lp4943
I234378
aF469.928
aF531.564
aVp5
p4944
aS'dejavusans'
p4945
aS'#000000'
p4946
aF12.0
aI1
aI01
aI01
aI00
aI00
aI00
aI00
aI00
aI00
aa(lp4947
I1
aI1
aI1
aI0
aI0
aI0
aI0
aI0
aI0
aI0
aI0
aI0
aI0
aI0
aI0
aI0
aI0
aI0
aI0
aI0
aI0
aI1
aI1
aI1
aI0
aI0
aI0
aI0
aI0
aI0
aI0
aI0
aI0
aI0
aI0
aI0
aI0
aI0
aI0
aI0
aI0
aI0
aI0
aI0
aI0
aI0
aI0
aI0
aI0
aI0
aI0
aI0
aI0
aI0
aI0
aI0
aI0
aI0
aI0
aI0
aI0
aI0
aI0
aI0
aI0
aI0
aI0
aI0
aI0
aI0
aI0
aI0
aI0
aI0
aI0
aI0
aI0
aI0
aI0
aI0
aI0
aI0
aI0
aI0
aI0
aI0
aI0
aI0
aI0
aI0
aI0
aI0
aI0
aI0
aI0
aI0
aI0
aI0
aI0
aI0
aI0
aI0
aI0
aI0
aI0
aI0
aI0
aI0
aI0
aI0
aI0
aI0
aI0
aI0
aI0
aI0
aI0
aI0
aI0
aI0
aI0
aI0
aI0
aI0
aI0
aI0
aI0
aI0
aI0
aI0
aI0
aI0
aI0
aI0
aI0
aI0
aI0
aI0
aI0
aI0
aI0
aI0
aI0
aI0
aI0
aI0
aI0
aI0
aI0
aI0
aI0
aI0
aI0
aI0
aI0
aI0
aI0
aI0
aI0
aI0
aI0
aI0
aI0
aI0
aI0
aI0
aI0
aI0
aI0
aI0
aI0
aI0
aI0
aI0
aI0
aI0
aI0
aI0
aI0
aI0
aI0
aI0
aI0
aI0
aI0
aI1
aI1
aI1
aI1
aI0
aI0
aI0
aI0
aI0
aI0
aI0
aI0
aI0
aI0
aI0
aI0
aI0
aI0
aI0
aI0
aI0
aI0
aI0
aI0
aI0
aI0
aI0
aI1
aI1
aI1
aI0
aI0
aI0
aI0
aI0
aI0
aI0
aI0
aI0
aI0
aI0
aI0
aI0
aI0
aI0
aI0
aI0
aI0
aI0
aI0
aI0
aI0
aI0
aI0
aI0
aI0
aI0
aI0
aI0
aI0
aI0
aI0
aI0
aI0
aI0
aI0
aI0
aI0
aI0
aI0
aI0
aI0
aI0
aI0
aI0
aI0
aI0
aI0
aI0
aI0
aI0
aI0
aI0
aI0
aI0
aI0
aI0
aI0
aI0
aI0
aI0
aI0
aI0
aI0
aI0
aI0
aI0
aI0
aI0
aI0
aI0
aI0
aI0
aI0
aI0
aI0
aI0
aI0
aI0
aI0
aI0
aI0
aI0
aI0
aI0
aI0
aI0
aI0
aI0
aI0
aI0
aI0
aI0
aI0
aI0
aI0
aI0
aI0
aI0
aI0
aI0
aI0
aI0
aI0
aI0
aI0
aI0
aI0
aI0
aI0
aI0
aI0
aI0
aI0
aI0
aI0
aI0
aI0
aI0
aI0
aI0
aI0
aI0
aI0
aI0
aI0
aI0
aI0
aI0
aI0
aI1
aI1
aI1
aI0
aI0
aI0
aI0
aI0
aI0
aI0
aI0
aI0
aI0
aI0
aI0
aI0
aI0
aI0
aI0
aI0
aI0
aI0
aI0
aI0
aI0
aI0
aI0
aI0
aI0
aI0
aI0
aI0
aI0
aI0
aI0
aI0
aI0
aI0
aI0
aI0
aI0
aI0
aI0
aI0
aI0
aI0
aI0
aI0
aI0
aI0
aI0
aI0
aI0
aI0
aI0
aI0
aI0
aI0
aI0
aI0
aI0
aI0
aI0
aI0
aI0
aI0
aI0
aI0
aI0
aI0
aI0
aI0
aI0
aI0
aI0
aI0
aI0
aI0
aI0
aI0
aI0
aI0
aI0
aI0
aI0
aI0
aI0
aI0
aI0
aI0
aI0
aI0
aI0
aI0
aI0
aI0
aI0
aI0
aI0
aI0
aI0
aI0
aI0
aI0
aI0
aI0
aI0
aI0
aI0
aI0
aI0
aI0
aI0
aI0
aI0
aI0
aI0
aI0
aI0
aI0
aI0
aI0
aI0
aI0
aI0
aI0
aI0
aI0
aI0
aI0
aI0
aI0
aI0
aI0
aI0
aI0
aI0
aI0
aI0
aI0
aI0
aI0
aI0
aI0
aI0
aI0
aI0
aI0
aI0
aI0
aI0
aI0
aI0
aI0
aI0
aI0
aI0
aI0
aI0
aI0
aI0
aI0
aI0
aI0
aI0
aI0
aI0
aI0
aI0
aI0
aI0
aI0
aI0
aI0
aI0
aI0
aI0
aI0
aI0
aI0
aI0
aI0
aI0
aI0
aI0
aI0
aI0
aI0
aI0
aI0
aI0
aI0
aI0
aI0
aI0
aI0
aI0
aI0
aI0
aI0
aI0
aI0
aI0
aI0
aI0
aI0
aI0
aI0
aI0
aI0
aI0
aI0
aI0
aI0
aI0
aI0
aI0
aI0
aI0
aI0
aI0
aI0
aI0
aI0
aI0
aI0
aI0
aI0
aI0
aI0
aI0
aI0
aI0
aI0
aI0
aI0
aI0
aI0
aI0
aI0
aI0
aI0
aI0
aI0
aI0
aI0
aI0
aI0
aI0
aI0
aI0
aI0
aI0
aI0
aI0
aI0
aI0
aI0
aI0
aI0
aI0
aI0
aI0
aI0
aI0
aI0
aI0
aI0
aI0
aI0
aI0
aI0
aI0
aI0
aI0
aI0
aI0
aI0
aI0
aI0
aI0
aI0
aI0
aI0
aI0
aI0
aI0
aI0
aI0
aI0
aI0
aI0
aI0
aI0
aI0
aI0
aI0
aI0
aI0
aI0
aI0
aI0
aI0
aI0
aI0
aI0
aI0
aI0
aI0
aI0
aI0
aI0
aI0
aI0
aI0
aI0
aI0
aI0
aI0
aI0
aI0
aI0
aI0
aI0
aI0
aI0
aI0
aI0
aI0
aI0
aI0
aI0
aI0
aI0
aI0
aI0
aI0
aI0
aI0
aI0
aI0
aI0
aI0
aI0
aI0
aI0
aI0
aI0
aI0
aI0
aI0
aI0
aI0
aI0
aI0
aI0
aI0
aI0
aI0
aI0
aI0
aI0
aI0
aI0
aI0
aI0
aI0
aI0
aI0
aI0
aI0
aI0
aI0
aI0
aI0
aI0
aI0
aI0
aI0
aI0
aI0
aI0
aI0
aI0
aI0
aI0
aI0
aI0
aI0
aI0
aI0
aI0
aI0
aI0
aI0
aI0
aI0
aI0
aI0
aI0
aI0
aI0
aI0
aI0
aI0
aI0
aI0
aI0
aI0
aI0
aI0
aI0
aI0
aI0
aI0
aI0
aI0
aI0
aI0
aI0
aI0
aI0
aI0
aI0
aI0
aI0
aI0
aI0
aI0
aI0
aI0
aI0
aI0
aI0
aI0
aI0
aI0
aI0
aI0
aI0
aI0
aI0
aI0
aI0
aI0
aI0
aI0
aI0
aI0
aI0
aI0
aI0
aI0
aI0
aI0
aI0
aI0
aI0
aI0
aI0
aI0
aI0
aI0
aI0
aI0
aI0
aI0
aI0
aI0
aI0
aI0
aI0
aI0
aI0
aI0
aI0
aI0
aI0
aI0
aI0
aI0
aI0
aI0
aI0
aI0
aI0
aI0
aI0
aI0
aI0
aI0
aI0
aI0
aI0
aI0
aI0
aI0
aI0
aI0
aI0
aI0
aI0
aI0
aI0
aI0
aI0
aI0
aI0
aI0
aI0
aI0
aI0
aI0
aI0
aI0
aI0
aI0
aI0
aI0
aI0
aI0
aI0
aI0
aI0
aI0
aI0
aI0
aI0
aI0
aI0
aI0
aI0
aI0
aI0
aI0
aI0
aI0
aI0
aI0
aI0
aI0
aI0
aI0
aI0
aI0
aI0
aI0
aI0
aI0
aI0
aI0
aI0
aI0
aI0
aI0
aI0
aI0
aI0
aI0
aI0
aI0
aI0
aI0
aI0
aI0
aI0
aI0
aI0
aI0
aI0
aI0
aI0
aI0
aI0
aI0
aI0
aI0
aI0
aI0
aI0
aI0
aI0
aI0
aI0
aI0
aI0
aI0
aI0
aI0
aI0
aI0
aI0
aI0
aI0
aI0
aI0
aI0
aI0
aI0
aI0
aI0
aI0
aI0
aI0
aI0
aI0
aI0
aI0
aI0
aI0
aI0
aI0
aI0
aI0
aI0
aI0
aI0
aI0
aI0
aI0
aI0
aI0
aI0
aI0
aI0
aI0
aI0
aI0
aI0
aI0
aI0
aI0
aI0
aI0
aI0
aI0
aI0
aI0
aI0
aI0
aI0
aI0
aI0
aI0
aI0
aI0
aI0
aI0
aI0
aI0
aI0
aI0
aI0
aI0
aI0
aI0
aI0
aI0
aI0
aI0
aI0
aI0
aI0
aI0
aI0
aI0
aI0
aI0
aI0
aI0
aI0
aI0
aI0
aI0
aI0
aI0
aI0
aI0
aI0
aI0
aI0
aI0
aI0
aI0
aI0
aI0
aI0
aI0
aI0
aI0
aI0
aI1
aI1
aI0
aI0
aI0
aI0
aI0
aI0
aI0
aI0
aI0
aI0
aI0
aI0
aI0
aI0
aI0
aI0
aI0
aI0
aI0
aI0
aI0
aI0
aI0
aI0
aI0
aI0
aI0
aI0
aI0
aI0
aI0
aI0
aI0
aI0
aI0
aI0
aI0
aI0
aI0
aI0
aI0
aI0
aI0
aI0
aI0
aI0
aI0
aI0
aI0
aI0
aI0
aI0
aI0
aI0
aI0
aI0
aI0
aI0
aI0
aI0
aI0
aI0
aI0
aI0
aI0
aI0
aI0
aI0
aI0
aI0
aI0
aI0
aI0
aI0
aI0
aI0
aI0
aI0
aI0
aI0
aI0
aI0
aI0
aI0
aI0
aI0
aI0
aI0
aI0
aI0
aI0
aI0
aI0
aI0
aI0
aI0
aI0
aI0
aI0
aI0
aI0
aI0
aI0
aI0
aI0
aI0
aI0
aI0
aI0
aI0
aI0
aI0
aI0
aI0
aI1
aI1
aI1
aI0
aI0
aI0
aI0
aI0
aI0
aI0
aI0
aI0
aI0
aI0
aI0
aI0
aI0
aI0
aI0
aI0
aI0
aI0
aI0
aI0
aI0
aI0
aI0
aI0
aI0
aI0
aI0
aI0
aI0
aI0
aI0
aI0
aI0
aI0
aI0
aI0
aI0
aI0
aI0
aI0
aI0
aI0
aI0
aI0
aI0
aI0
aI0
aI0
aI0
aI0
aI0
aI0
aI0
aI0
aI0
aI0
aI0
aI0
aI0
aI0
aI0
aI0
aI0
aI0
aI0
aI0
aI0
aI0
aI0
aI0
aI0
aI0
aI0
aI0
aI0
aI0
aI0
aI0
aI0
aI0
aI0
aI0
aI0
aI0
aI0
aI0
aI0
aI0
aI0
aI0
aI0
aI0
aI0
aI0
aI1
aI1
aI1
aI0
aI0
aI0
aI0
aI0
aI0
aI0
aI0
aI0
aI0
aI0
aI0
aI0
aI0
aI0
aI0
aI0
aI0
aI0
aI0
aI0
aI0
aI0
aI0
aI0
aI0
aI0
aI0
aI0
aI0
aI0
aI0
aI0
aI0
aI0
aI0
aI0
aI0
aI0
aI0
aI0
aI0
aI0
aI0
aI0
aI0
aI0
aI0
aI0
aI0
aI0
aI0
aI0
aI0
aI0
aI0
aI0
aI0
atp4948
.