((lp0
(lp1
I234378
aF218.3
aF75.064
aVp1
p2
aS'dejavusans'
p3
aS'#000000'
p4
aF12.0
aI1
aI01
aI01
aI00
aI00
aI00
aI00
aI00
aI00
aa(lp5
I234378
aF274.844
aF75.064
aVp1
p6
aS'dejavusans'
p7
aS'#000000'
p8
aF12.0
aI1
aI01
aI01
aI00
aI00
aI00
aI00
aI00
aI00
aa(lp9
I234378
aF72.1
aF92.02
aVp1
p10
aS'dejavusans'
p11
aS'#000000'
p12
aF10.0
aI0
aI01
aI00
aI00
aI00
aI00
aI00
aI00
aI00
aa(lp13
I234378
aF108.1
aF92.02
aVp1
p14
aS'dejavusans'
p15
aS'#000000'
p16
aF10.0
aI0
aI00
aI00
aI00
aI00
aI00
aI00
aI00
aI00
aa(lp17
I234378
aF121.88
aF92.02
aVp1
p18
aS'dejavusans'
p19
aS'#000000'
p20
aF10.0
aI1
aI00
aI00
aI00
aI00
aI00
aI01
aI00
aI00
aa(lp21
I108443
aF72.1
aF106.72
aVp1
p22
aS'dejavusans'
p23
aS'#000000'
p24
aF10.0
aI0
aI01
aI00
aI00
aI00
aI00
aI00
aI00
aI00
aa(lp25
I234378
aF108.06
aF106.72
aVp1
p26
aS'dejavusans'
p27
aS'#000000'
p28
aF10.0
aI0
aI00
aI00
aI00
aI00
aI00
aI00
aI00
aI00
aa(lp29
I234378
aF121.0
aF106.72
aVp1
p30
aS'dejavusans'
p31
aS'#000000'
p32
aF10.0
aI1
aI00
aI00
aI01
aI01
aI01
aI00
aI00
aI00
aa(lp33
I167874
aF72.1
aF136.02
aVp1
p34
aS'dejavusans'
p35
aS'#001f5f'
p36
aF10.0
aI1
aI01
aI00
aI00
aI00
aI00
aI00
aI00
aI00
aa(lp37
I77936
aF113.07
aF136.02
aVp1
p38
aS'dejavusans'
p39
aS'#001f5f'
p40
aF10.0
aI1
aI00
aI00
aI00
aI00
aI00
aI00
aI00
aI00
aa(lp41
I234378
aF163.146
aF136.02
ag38
aS'dejavusans'
p42
aS'#001f5f'
p43
aF10.0
aI1
aI00
aI00
aI00
aI00
aI00
aI00
aI00
aI00
aa(lp44
I160850
aF106.1
aF147.62
aVp1
p45
aS'dejavusans'
p46
aS'#000000'
p47
aF10.0
aI0
aI01
aI00
aI00
aI00
aI00
aI00
aI00
aI00
aa(lp48
I166593
aF142.76
aF147.62
aVp1
p49
aS'dejavusans'
p50
aS'#000000'
p51
aF10.0
aI0
aI00
aI00
aI00
aI00
aI00
aI00
aI00
aI00
aa(lp52
I90127
aF152.24
aF147.62
aVp1
p53
aS'dejavusans'
p54
aS'#000000'
p55
aF10.0
aI0
aI00
aI00
aI00
aI00
aI00
aI00
aI00
aI00
aa(lp56
I85218
aF212.88
aF147.62
aVp1
p57
aS'dejavusans'
p58
aS'#000000'
p59
aF10.0
aI0
aI00
aI00
aI00
aI00
aI00
aI00
aI00
aI00
aa(lp60
I234378
aF235.06
aF147.62
aVp1
p61
aS'dejavusans'
p62
aS'#000000'
p63
aF10.0
aI0
aI00
aI00
aI00
aI00
aI00
aI00
aI00
aI00
aa(lp64
I230410
aF296.19
aF147.62
aVp1
p65
aS'dejavusans'
p66
aS'#000000'
p67
aF10.0
aI0
aI00
aI00
aI00
aI00
aI00
aI00
aI00
aI00
aa(lp68
I135639
aF339.15
aF147.62
aVp1
p69
aS'dejavusans'
p70
aS'#000000'
p71
aF10.0
aI0
aI00
aI00
aI00
aI00
aI00
aI00
aI00
aI00
aa(lp72
I166593
aF351.62
aF147.62
aVp1
p73
aS'dejavusans'
p74
aS'#000000'
p75
aF10.0
aI0
aI00
aI00
aI00
aI00
aI00
aI00
aI00
aI00
aa(lp76
I146309
aF361.5
aF147.62
aVp1
p77
aS'dejavusans'
p78
aS'#000000'
p79
aF10.0
aI0
aI00
aI00
aI00
aI00
aI00
aI00
aI00
aI00
aa(lp80
I234378
aF394.692
aF147.62
ag77
aS'dejavusans'
p81
aS'#000000'
p82
aF10.0
aI0
aI00
aI00
aI00
aI00
aI00
aI00
aI00
aI00
aa(lp83
I229426
aF445.32
aF147.62
aVp1
p84
aS'dejavusans'
p85
aS'#000000'
p86
aF10.0
aI0
aI00
aI00
aI00
aI00
aI00
aI00
aI00
aI00
aa(lp87
I218914
aF510.99
aF147.62
aVp1
p88
aS'dejavusans'
p89
aS'#000000'
p90
aF10.0
aI0
aI00
aI00
aI00
aI00
aI00
aI00
aI00
aI00
aa(lp91
I113929
aF72.1
aF161.02
aVp1
p92
aS'dejavusans'
p93
aS'#000000'
p94
aF10.0
aI0
aI00
aI00
aI00
aI00
aI00
aI00
aI00
aI00
aa(lp95
I193015
aF92.26
aF161.02
aVp1
p96
aS'dejavusans'
p97
aS'#000000'
p98
aF10.0
aI0
aI00
aI00
aI00
aI00
aI00
aI00
aI00
aI00
aa(lp99
I154721
aF121.82
aF161.02
aVp1
p100
aS'dejavusans'
p101
aS'#000000'
p102
aF10.0
aI0
aI00
aI00
aI00
aI00
aI00
aI00
aI00
aI00
aa(lp103
I89480
aF141.4
aF161.02
aVp1
p104
aS'dejavusans'
p105
aS'#000000'
p106
aF10.0
aI0
aI00
aI00
aI00
aI00
aI00
aI00
aI00
aI00
aa(lp107
I2028
aF155.08
aF161.02
aVp1
p108
aS'dejavusans'
p109
aS'#000000'
p110
aF10.0
aI0
aI00
aI00
aI00
aI00
aI00
aI00
aI00
aI00
aa(lp111
I80364
aF184.04
aF161.02
aVp1
p112
aS'dejavusans'
p113
aS'#000000'
p114
aF10.0
aI0
aI00
aI00
aI00
aI00
aI00
aI00
aI00
aI00
aa(lp115
I234378
aF208.41
aF161.02
aVp1
p116
aS'dejavusans'
p117
aS'#000000'
p118
aF10.0
aI0
aI00
aI00
aI00
aI00
aI00
aI00
aI00
aI00
aa(lp119
I85218
aF275.74
aF161.02
aVp1
p120
aS'dejavusans'
p121
aS'#000000'
p122
aF10.0
aI0
aI00
aI00
aI00
aI00
aI00
aI00
aI00
aI00
aa(lp123
I234378
aF298.22
aF161.02
aVp1
p124
aS'dejavusans'
p125
aS'#000000'
p126
aF10.0
aI0
aI00
aI00
aI00
aI00
aI00
aI00
aI00
aI00
aa(lp127
I49703
aF326.37
aF161.02
aVp1
p128
aS'dejavusans'
p129
aS'#000000'
p130
aF10.0
aI0
aI00
aI00
aI00
aI00
aI00
aI00
aI00
aI00
aa(lp131
I234378
aF356.23
aF161.02
aVp1
p132
aS'dejavusans'
p133
aS'#000000'
p134
aF10.0
aI0
aI00
aI00
aI00
aI00
aI00
aI00
aI00
aI00
aa(lp135
I219882
aF399.17
aF161.02
aVp1
p136
aS'dejavusans'
p137
aS'#000000'
p138
aF10.0
aI0
aI00
aI00
aI00
aI00
aI00
aI00
aI00
aI00
aa(lp139
I234378
aF418.45
aF161.02
aVp1
p140
aS'dejavusans'
p141
aS'#000000'
p142
aF10.0
aI0
aI00
aI00
aI00
aI00
aI00
aI00
aI00
aI00
aa(lp143
I60220
aF468.61
aF161.02
aVp1
p144
aS'dejavusans'
p145
aS'#000000'
p146
aF10.0
aI0
aI00
aI00
aI00
aI00
aI00
aI00
aI00
aI00
aa(lp147
I16331
aF527.66
aF161.02
aVp1
p148
aS'dejavusans'
p149
aS'#000000'
p150
aF10.0
aI0
aI00
aI00
aI00
aI00
aI00
aI00
aI00
aI00
aa(lp151
I166593
aF72.1
aF174.32
aVp1
p152
aS'dejavusans'
p153
aS'#000000'
p154
aF10.0
aI0
aI00
aI00
aI00
aI00
aI00
aI00
aI00
aI00
aa(lp155
I53211
aF84.0
aF174.32
aVp1
p156
aS'dejavusans'
p157
aS'#000000'
p158
aF10.0
aI1
aI01
aI00
aI00
aI00
aI00
aI00
aI00
aI00
aa(lp159
I85218
aF118.78
aF174.32
aVp1
p160
aS'dejavusans'
p161
aS'#000000'
p162
aF10.0
aI1
aI00
aI00
aI00
aI00
aI00
aI00
aI00
aI00
aa(lp163
I44160
aF145.76
aF174.32
aVp1
p164
aS'dejavusans'
p165
aS'#000000'
p166
aF10.0
aI1
aI01
aI00
aI00
aI00
aI00
aI00
aI00
aI00
aa(lp167
I132100
aF195.91
aF174.32
aVp1
p168
aS'dejavusans'
p169
aS'#000000'
p170
aF10.0
aI1
aI01
aI00
aI00
aI00
aI00
aI00
aI00
aI00
aa(lp171
I234378
aF246.73133333333334
aF174.32
ag168
aS'dejavusans'
p172
aS'#000000'
p173
aF10.0
aI1
aI00
aI00
aI00
aI00
aI00
aI00
aI00
aI00
aa(lp174
I234378
aF253.084
aF174.32
ag168
aS'dejavusans'
p175
aS'#000000'
p176
aF10.0
aI1
aI01
aI00
aI00
aI00
aI00
aI00
aI00
aI00
aa(lp177
I132100
aF297.19
aF174.32
aVp1
p178
aS'dejavusans'
p179
aS'#000000'
p180
aF10.0
aI0
aI00
aI00
aI00
aI00
aI00
aI00
aI00
aI00
aa(lp181
I234378
aF339.3588888888889
aF174.32
ag178
aS'dejavusans'
p182
aS'#000000'
p183
aF10.0
aI0
aI00
aI00
aI00
aI00
aI00
aI00
aI00
aI00
aa(lp184
I85218
aF350.34
aF174.32
aVp1
p185
aS'dejavusans'
p186
aS'#000000'
p187
aF10.0
aI0
aI00
aI00
aI00
aI00
aI00
aI00
aI00
aI00
aa(lp188
I60534
aF374.92
aF174.32
aVp1
p189
aS'dejavusans'
p190
aS'#000000'
p191
aF10.0
aI0
aI00
aI00
aI00
aI00
aI00
aI00
aI00
aI00
aa(lp192
I89480
aF400.79
aF174.32
aVp1
p193
aS'dejavusans'
p194
aS'#000000'
p195
aF10.0
aI0
aI00
aI00
aI00
aI00
aI00
aI00
aI00
aI00
aa(lp196
I53211
aF416.57
aF174.32
aVp1
p197
aS'dejavusans'
p198
aS'#000000'
p199
aF10.0
aI0
aI00
aI00
aI00
aI00
aI00
aI00
aI00
aI00
aa(lp200
I166593
aF446.83
aF174.32
aVp1
p201
aS'dejavusans'
p202
aS'#000000'
p203
aF10.0
aI0
aI00
aI00
aI00
aI00
aI00
aI00
aI00
aI00
aa(lp204
I195547
aF458.61
aF174.32
aVp1
p205
aS'dejavusans'
p206
aS'#000000'
p207
aF10.0
aI0
aI00
aI00
aI00
aI00
aI00
aI00
aI00
aI00
aa(lp208
I166245
aF496.18
aF174.32
aVp1
p209
aS'dejavusans'
p210
aS'#000000'
p211
aF10.0
aI0
aI00
aI00
aI00
aI00
aI00
aI00
aI00
aI00
aa(lp212
I16742
aF72.1
aF187.72
aVp1
p213
aS'dejavusans'
p214
aS'#000000'
p215
aF10.0
aI0
aI00
aI00
aI00
aI00
aI00
aI00
aI00
aI00
aa(lp216
I169745
aF134.04
aF187.72
aVp1
p217
aS'dejavusans'
p218
aS'#000000'
p219
aF10.0
aI0
aI00
aI00
aI00
aI00
aI00
aI00
aI00
aI00
aa(lp220
I194354
aF158.41
aF187.72
aVp1
p221
aS'dejavusans'
p222
aS'#000000'
p223
aF10.0
aI0
aI00
aI00
aI00
aI00
aI00
aI00
aI00
aI00
aa(lp224
I2006
aF177.99
aF187.72
aVp1
p225
aS'dejavusans'
p226
aS'#000000'
p227
aF10.0
aI0
aI00
aI00
aI00
aI00
aI00
aI00
aI00
aI00
aa(lp228
I85218
aF227.16
aF187.72
aVp1
p229
aS'dejavusans'
p230
aS'#000000'
p231
aF10.0
aI0
aI00
aI00
aI00
aI00
aI00
aI00
aI00
aI00
aa(lp232
I234378
aF249.14
aF187.72
aVp1
p233
aS'dejavusans'
p234
aS'#000000'
p235
aF10.0
aI0
aI00
aI00
aI00
aI00
aI00
aI00
aI00
aI00
aa(lp236
I234378
aF280.41249999999997
aF187.72
ag233
aS'dejavusans'
p237
aS'#000000'
p238
aF10.0
aI0
aI00
aI00
aI00
aI00
aI00
aI00
aI00
aI00
aa(lp239
I165938
aF72.1
aF211.02
aVp1
p240
aS'dejavusans'
p241
aS'#001f5f'
p242
aF10.0
aI1
aI01
aI00
aI00
aI00
aI00
aI00
aI00
aI00
aa(lp243
I23021
aF145.33
aF211.02
aVp1
p244
aS'dejavusans'
p245
aS'#001f5f'
p246
aF10.0
aI1
aI01
aI00
aI00
aI00
aI00
aI00
aI00
aI00
aa(lp247
I234378
aF195.37125
aF211.02
ag244
aS'dejavusans'
p248
aS'#001f5f'
p249
aF10.0
aI1
aI00
aI00
aI00
aI00
aI00
aI00
aI00
aI00
aa(lp250
I234378
aF108.1
aF222.72
aVp1
p251
aS'dejavusans'
p252
aS'#000000'
p253
aF10.0
aI0
aI01
aI00
aI00
aI00
aI00
aI00
aI00
aI00
aa(lp254
I54866
aF150.37
aF222.72
aVp1
p255
aS'dejavusans'
p256
aS'#000000'
p257
aF10.0
aI0
aI00
aI00
aI00
aI00
aI00
aI00
aI00
aI00
aa(lp258
I234378
aF179.84
aF222.72
aVp1
p259
aS'dejavusans'
p260
aS'#000000'
p261
aF10.0
aI0
aI00
aI00
aI01
aI01
aI00
aI00
aI00
aI00
aa(lp262
I234378
aF201.82
aF222.72
aVp1
p263
aS'dejavusans'
p264
aS'#000000'
p265
aF10.0
aI0
aI00
aI00
aI00
aI00
aI00
aI00
aI00
aI00
aa(lp266
I144489
aF236.49
aF222.72
aVp1
p267
aS'dejavusans'
p268
aS'#000000'
p269
aF10.0
aI0
aI00
aI00
aI00
aI00
aI00
aI00
aI00
aI00
aa(lp270
I60220
aF253.27
aF222.72
aVp1
p271
aS'dejavusans'
p272
aS'#000000'
p273
aF10.0
aI0
aI00
aI00
aI00
aI00
aI00
aI00
aI00
aI00
aa(lp274
I16331
aF315.91
aF222.72
aVp1
p275
aS'dejavusans'
p276
aS'#000000'
p277
aF10.0
aI0
aI00
aI00
aI00
aI00
aI00
aI00
aI00
aI00
aa(lp278
I166593
aF334.39
aF222.72
aVp1
p279
aS'dejavusans'
p280
aS'#000000'
p281
aF10.0
aI0
aI00
aI00
aI00
aI00
aI00
aI00
aI00
aI00
aa(lp282
I234378
aF348.0
aF222.72
aVp1
p283
aS'dejavusans'
p284
aS'#000000'
p285
aF10.0
aI1
aI01
aI00
aI00
aI00
aI00
aI00
aI00
aI00
aa(lp286
I234378
aF388.26
aF222.72
ag283
aS'dejavusans'
p287
aS'#000000'
p288
aF10.0
aI1
aI00
aI00
aI00
aI00
aI00
aI00
aI00
aI00
aa(lp289
I85218
aF402.56
aF222.72
aVp1
p290
aS'dejavusans'
p291
aS'#000000'
p292
aF10.0
aI1
aI00
aI00
aI00
aI00
aI00
aI00
aI00
aI00
aa(lp293
I53211
aF431.04
aF222.72
aVp1
p294
aS'dejavusans'
p295
aS'#000000'
p296
aF10.0
aI1
aI01
aI00
aI00
aI00
aI00
aI00
aI00
aI00
aa(lp297
I85218
aF467.32
aF222.72
aVp1
p298
aS'dejavusans'
p299
aS'#000000'
p300
aF10.0
aI1
aI00
aI00
aI00
aI00
aI00
aI00
aI00
aI00
aa(lp301
I44160
aF495.9
aF222.72
aVp1
p302
aS'dejavusans'
p303
aS'#000000'
p304
aF10.0
aI1
aI01
aI00
aI00
aI00
aI00
aI00
aI00
aI00
aa(lp305
I132100
aF108.1
aF236.82
aVp1
p306
aS'dejavusans'
p307
aS'#000000'
p308
aF10.0
aI0
aI00
aI00
aI00
aI00
aI00
aI00
aI00
aI00
aa(lp309
I234378
aF149.45999999999998
aF236.82
ag306
aS'dejavusans'
p310
aS'#000000'
p311
aF10.0
aI0
aI00
aI00
aI00
aI00
aI00
aI00
aI00
aI00
aa(lp312
I60220
aF108.1
aF250.12
aVp1
p313
aS'dejavusans'
p314
aS'#000000'
p315
aF10.0
aI0
aI01
aI00
aI00
aI00
aI00
aI00
aI00
aI00
aa(lp316
I135639
aF167.84
aF250.12
aVp1
p317
aS'dejavusans'
p318
aS'#000000'
p319
aF10.0
aI0
aI00
aI00
aI00
aI00
aI00
aI00
aI00
aI00
aa(lp320
I109152
aF180.91
aF250.12
aVp1
p321
aS'dejavusans'
p322
aS'#000000'
p323
aF10.0
aI0
aI00
aI00
aI00
aI00
aI00
aI00
aI00
aI00
aa(lp324
I15429
aF219.47
aF250.12
aVp1
p325
aS'dejavusans'
p326
aS'#000000'
p327
aF10.0
aI0
aI00
aI00
aI00
aI00
aI00
aI00
aI00
aI00
aa(lp328
I177958
aF236.15
aF250.12
aVp1
p329
aS'dejavusans'
p330
aS'#000000'
p331
aF10.0
aI0
aI00
aI00
aI00
aI00
aI00
aI00
aI00
aI00
aa(lp332
I234378
aF274.7
aF250.12
aVp1
p333
aS'dejavusans'
p334
aS'#000000'
p335
aF10.0
aI0
aI00
aI00
aI00
aI00
aI00
aI00
aI00
aI00
aa(lp336
I234378
aF319.907
aF250.12
ag333
aS'dejavusans'
p337
aS'#000000'
p338
aF10.0
aI0
aI00
aI00
aI00
aI00
aI00
aI00
aI00
aI00
aa(lp339
I38676
aF328.94
aF250.12
aVp1
p340
aS'dejavusans'
p341
aS'#000000'
p342
aF10.0
aI0
aI00
aI00
aI00
aI00
aI00
aI00
aI00
aI00
aa(lp343
I234378
aF383.09
aF250.12
aVp1
p344
aS'dejavusans'
p345
aS'#000000'
p346
aF10.0
aI0
aI00
aI00
aI00
aI00
aI00
aI00
aI00
aI00
aa(lp347
I234378
aF431.30818181818177
aF250.12
ag344
aS'dejavusans'
p348
aS'#000000'
p349
aF10.0
aI0
aI00
aI00
aI00
aI00
aI00
aI00
aI00
aI00
aa(lp350
I234378
aF440.14
aF250.12
aVp1
p351
aS'dejavusans'
p352
aS'#000000'
p353
aF10.0
aI0
aI00
aI00
aI00
aI00
aI00
aI00
aI00
aI00
aa(lp354
I85218
aF485.7
aF250.12
aVp1
p355
aS'dejavusans'
p356
aS'#000000'
p357
aF10.0
aI0
aI00
aI00
aI00
aI00
aI00
aI00
aI00
aI00
aa(lp358
I122483
aF508.48
aF250.12
aVp1
p359
aS'dejavusans'
p360
aS'#000000'
p361
aF10.0
aI0
aI00
aI00
aI00
aI00
aI00
aI00
aI00
aI00
aa(lp362
I154185
aF108.1
aF264.22
aVp1
p363
aS'dejavusans'
p364
aS'#000000'
p365
aF10.0
aI0
aI00
aI00
aI00
aI00
aI00
aI00
aI00
aI00
aa(lp366
I234378
aF146.97
aF264.22
aVp1
p367
aS'dejavusans'
p368
aS'#000000'
p369
aF10.0
aI0
aI00
aI00
aI00
aI00
aI00
aI00
aI00
aI00
aa(lp370
I144489
aF191.54
aF264.22
aVp1
p371
aS'dejavusans'
p372
aS'#000000'
p373
aF10.0
aI0
aI00
aI00
aI00
aI00
aI00
aI00
aI00
aI00
aa(lp374
I194354
aF204.33
aF264.22
aVp1
p375
aS'dejavusans'
p376
aS'#000000'
p377
aF10.0
aI0
aI00
aI00
aI00
aI00
aI00
aI00
aI00
aI00
aa(lp378
I185339
aF223.91
aF264.22
aVp1
p379
aS'dejavusans'
p380
aS'#000000'
p381
aF10.0
aI0
aI00
aI00
aI00
aI00
aI00
aI00
aI00
aI00
aa(lp382
I221291
aF260.19
aF264.22
aVp1
p383
aS'dejavusans'
p384
aS'#000000'
p385
aF10.0
aI0
aI00
aI00
aI00
aI00
aI00
aI00
aI00
aI00
aa(lp386
I234378
aF281.99
aF264.22
ag383
aS'dejavusans'
p387
aS'#000000'
p388
aF10.0
aI0
aI00
aI00
aI00
aI00
aI00
aI00
aI00
aI00
aa(lp389
I61354
aF108.1
aF277.62
aVp1
p390
aS'dejavusans'
p391
aS'#000000'
p392
aF10.0
aI0
aI01
aI00
aI00
aI00
aI00
aI00
aI00
aI00
aa(lp393
I135639
aF158.05
aF277.62
aVp1
p394
aS'dejavusans'
p395
aS'#000000'
p396
aF10.0
aI0
aI00
aI00
aI00
aI00
aI00
aI00
aI00
aI00
aa(lp397
I234378
aF170.33
aF277.62
aVp1
p398
aS'dejavusans'
p399
aS'#000000'
p400
aF10.0
aI0
aI00
aI00
aI00
aI00
aI00
aI00
aI00
aI00
aa(lp401
I85218
aF242.87
aF277.62
aVp1
p402
aS'dejavusans'
p403
aS'#000000'
p404
aF10.0
aI0
aI00
aI00
aI00
aI00
aI00
aI00
aI00
aI00
aa(lp405
I234378
aF264.85
aF277.62
aVp1
p406
aS'dejavusans'
p407
aS'#000000'
p408
aF10.0
aI0
aI00
aI00
aI00
aI00
aI00
aI00
aI00
aI00
aa(lp409
I89480
aF312.33
aF277.62
aVp1
p410
aS'dejavusans'
p411
aS'#000000'
p412
aF10.0
aI0
aI00
aI00
aI00
aI00
aI00
aI00
aI00
aI00
aa(lp413
I44160
aF325.61
aF277.62
aVp1
p414
aS'dejavusans'
p415
aS'#000000'
p416
aF10.0
aI0
aI01
aI00
aI00
aI00
aI00
aI00
aI00
aI00
aa(lp417
I234378
aF365.86
aF277.62
ag414
aS'dejavusans'
p418
aS'#000000'
p419
aF10.0
aI0
aI00
aI00
aI00
aI00
aI00
aI00
aI00
aI00
aa(lp420
I19160
aF371.61
aF277.62
ag414
aS'dejavusans'
p421
aS'#000000'
p422
aF10.0
aI0
aI01
aI00
aI00
aI00
aI00
aI00
aI00
aI00
aa(lp423
I153177
aF409.35
aF277.62
aVp1
p424
aS'dejavusans'
p425
aS'#000000'
p426
aF10.0
aI0
aI01
aI00
aI00
aI00
aI00
aI00
aI00
aI00
aa(lp427
I61195
aF478.4
aF277.62
aVp1
p428
aS'dejavusans'
p429
aS'#000000'
p430
aF10.0
aI0
aI01
aI00
aI00
aI00
aI00
aI00
aI00
aI00
aa(lp431
I234378
aF514.2312499999999
aF277.62
ag428
aS'dejavusans'
p432
aS'#000000'
p433
aF10.0
aI0
aI00
aI00
aI00
aI00
aI00
aI00
aI00
aI00
aa(lp434
I120957
aF108.1
aF291.82
aVp1
p435
aS'dejavusans'
p436
aS'#000000'
p437
aF10.0
aI0
aI01
aI00
aI00
aI00
aI00
aI00
aI00
aI00
aa(lp438
I89480
aF157.57
aF291.82
aVp1
p439
aS'dejavusans'
p440
aS'#000000'
p441
aF10.0
aI0
aI00
aI00
aI00
aI00
aI00
aI00
aI00
aI00
aa(lp442
I113320
aF171.09
aF291.82
aVp1
p443
aS'dejavusans'
p444
aS'#000000'
p445
aF10.0
aI1
aI00
aI00
aI00
aI00
aI00
aI00
aI00
aI00
aa(lp446
I144489
aF257.42
aF291.82
aVp1
p447
aS'dejavusans'
p448
aS'#000000'
p449
aF10.0
aI1
aI00
aI00
aI00
aI00
aI00
aI00
aI00
aI00
aa(lp450
I234378
aF272.1
aF291.82
aVp1
p451
aS'dejavusans'
p452
aS'#000000'
p453
aF10.0
aI1
aI00
aI00
aI00
aI00
aI00
aI00
aI00
aI00
aa(lp454
I162177
aF317.19
aF291.82
aVp1
p455
aS'dejavusans'
p456
aS'#000000'
p457
aF10.0
aI0
aI00
aI00
aI00
aI00
aI00
aI00
aI00
aI00
aa(lp458
I16331
aF343.76
aF291.82
aVp1
p459
aS'dejavusans'
p460
aS'#000000'
p461
aF10.0
aI0
aI00
aI00
aI00
aI00
aI00
aI00
aI00
aI00
aa(lp462
I110786
aF358.3
aF291.82
aVp1
p463
aS'dejavusans'
p464
aS'#000000'
p465
aF10.0
aI1
aI01
aI00
aI00
aI00
aI00
aI00
aI00
aI00
aa(lp466
I234378
aF395.90285714285716
aF291.82
ag463
aS'dejavusans'
p467
aS'#000000'
p468
aF10.0
aI1
aI00
aI00
aI00
aI00
aI00
aI00
aI00
aI00
aa(lp469
I77592
aF405.76
aF291.82
aVp1
p470
aS'dejavusans'
p471
aS'#000000'
p472
aF10.0
aI1
aI01
aI00
aI00
aI00
aI00
aI00
aI00
aI00
aa(lp473
I85218
aF450.73
aF291.82
aVp1
p474
aS'dejavusans'
p475
aS'#000000'
p476
aF10.0
aI1
aI00
aI00
aI00
aI00
aI00
aI00
aI00
aI00
aa(lp477
I234378
aF475.21
aF291.82
aVp1
p478
aS'dejavusans'
p479
aS'#000000'
p480
aF10.0
aI1
aI01
aI00
aI00
aI00
aI00
aI00
aI00
aI00
aa(lp481
I234378
aF526.81
aF291.82
ag478
aS'dejavusans'
p482
aS'#000000'
p483
aF10.0
aI1
aI00
aI00
aI00
aI00
aI00
aI00
aI00
aI00
aa(lp484
I60220
aF108.1
aF306.12
aVp1
p485
aS'dejavusans'
p486
aS'#000000'
p487
aF10.0
aI0
aI01
aI00
aI00
aI00
aI00
aI00
aI00
aI00
aa(lp488
I135639
aF168.14
aF306.12
aVp1
p489
aS'dejavusans'
p490
aS'#000000'
p491
aF10.0
aI0
aI00
aI00
aI00
aI00
aI00
aI00
aI00
aI00
aa(lp492
I53211
aF181.6
aF306.12
aVp1
p493
aS'dejavusans'
p494
aS'#000000'
p495
aF10.0
aI1
aI01
aI00
aI00
aI00
aI00
aI00
aI00
aI00
aa(lp496
I234378
aF208.66666666666666
aF306.12
ag493
aS'dejavusans'
p497
aS'#000000'
p498
aF10.0
aI1
aI00
aI00
aI00
aI00
aI00
aI00
aI00
aI00
aa(lp499
I89323
aF218.67
aF306.12
aVp1
p500
aS'dejavusans'
p501
aS'#000000'
p502
aF10.0
aI1
aI01
aI00
aI00
aI00
aI00
aI00
aI00
aI00
aa(lp503
I85218
aF270.33
aF306.12
aVp1
p504
aS'dejavusans'
p505
aS'#000000'
p506
aF10.0
aI1
aI00
aI00
aI00
aI00
aI00
aI00
aI00
aI00
aa(lp507
I35847
aF295.91
aF306.12
aVp1
p508
aS'dejavusans'
p509
aS'#000000'
p510
aF10.0
aI1
aI01
aI00
aI00
aI00
aI00
aI00
aI00
aI00
aa(lp511
I89480
aF339.29
aF306.12
aVp1
p512
aS'dejavusans'
p513
aS'#000000'
p514
aF10.0
aI0
aI00
aI00
aI00
aI00
aI00
aI00
aI00
aI00
aa(lp515
I41890
aF353.57
aF306.12
aVp1
p516
aS'dejavusans'
p517
aS'#000000'
p518
aF10.0
aI0
aI00
aI00
aI00
aI00
aI00
aI00
aI00
aI00
aa(lp519
I194354
aF369.54
aF306.12
aVp1
p520
aS'dejavusans'
p521
aS'#000000'
p522
aF10.0
aI0
aI00
aI00
aI00
aI00
aI00
aI00
aI00
aI00
aa(lp523
I234378
aF390.22
aF306.12
aVp1
p524
aS'dejavusans'
p525
aS'#000000'
p526
aF10.0
aI0
aI00
aI00
aI00
aI00
aI00
aI00
aI00
aI00
aa(lp527
I192651
aF463.26
aF306.12
aVp1
p528
aS'dejavusans'
p529
aS'#000000'
p530
aF10.0
aI0
aI00
aI00
aI00
aI00
aI00
aI00
aI00
aI00
aa(lp531
I234378
aF479.84
aF306.12
aVp1
p532
aS'dejavusans'
p533
aS'#000000'
p534
aF10.0
aI0
aI00
aI00
aI00
aI00
aI00
aI00
aI00
aI00
aa(lp535
I89480
aF529.9
aF306.12
aVp1
p536
aS'dejavusans'
p537
aS'#000000'
p538
aF10.0
aI0
aI00
aI00
aI00
aI00
aI00
aI00
aI00
aI00
aa(lp539
I110786
aF108.1
aF320.22
aVp1
p540
aS'dejavusans'
p541
aS'#000000'
p542
aF10.0
aI1
aI01
aI00
aI00
aI00
aI00
aI00
aI00
aI00
aa(lp543
I234378
aF145.70285714285714
aF320.22
ag540
aS'dejavusans'
p544
aS'#000000'
p545
aF10.0
aI1
aI00
aI00
aI00
aI00
aI00
aI00
aI00
aI00
aa(lp546
I77592
aF155.57
aF320.22
aVp1
p547
aS'dejavusans'
p548
aS'#000000'
p549
aF10.0
aI1
aI01
aI00
aI00
aI00
aI00
aI00
aI00
aI00
aa(lp550
I85218
aF200.6
aF320.22
aVp1
p551
aS'dejavusans'
p552
aS'#000000'
p553
aF10.0
aI0
aI00
aI00
aI00
aI00
aI00
aI00
aI00
aI00
aa(lp554
I234378
aF222.89
aF320.22
aVp1
p555
aS'dejavusans'
p556
aS'#000000'
p557
aF10.0
aI1
aI01
aI00
aI00
aI00
aI00
aI00
aI00
aI00
aa(lp558
I234378
aF280.73
aF320.22
aVp1
p559
aS'dejavusans'
p560
aS'#000000'
p561
aF10.0
aI1
aI01
aI00
aI00
aI00
aI00
aI00
aI00
aI00
aa(lp562
I234378
aF327.2
aF320.22
aVp1
p563
aS'dejavusans'
p564
aS'#000000'
p565
aF10.0
aI1
aI00
aI00
aI00
aI00
aI00
aI00
aI00
aI00
aa(lp566
I234378
aF108.1
aF333.52
aVp1
p567
aS'dejavusans'
p568
aS'#000000'
p569
aF10.0
aI0
aI01
aI00
aI00
aI00
aI00
aI00
aI00
aI00
aa(lp570
I234378
aF156.286
aF333.52
ag567
aS'dejavusans'
p571
aS'#000000'
p572
aF10.0
aI0
aI00
aI00
aI00
aI00
aI00
aI00
aI00
aI00
aa(lp573
I234378
aF164.95
aF333.52
aVp1
p574
aS'dejavusans'
p575
aS'#000000'
p576
aF10.0
aI0
aI00
aI00
aI00
aI00
aI00
aI00
aI00
aI00
aa(lp577
I234378
aF219.43666666666667
aF333.52
ag574
aS'dejavusans'
p578
aS'#000000'
p579
aF10.0
aI0
aI00
aI00
aI00
aI00
aI00
aI00
aI00
aI00
aa(lp580
I234378
aF227.71
aF333.52
aVp1
p581
aS'dejavusans'
p582
aS'#000000'
p583
aF10.0
aI0
aI00
aI00
aI00
aI00
aI00
aI00
aI00
aI00
aa(lp584
I234378
aF274.95444444444445
aF333.52
ag581
aS'dejavusans'
p585
aS'#000000'
p586
aF10.0
aI0
aI00
aI00
aI00
aI00
aI00
aI00
aI00
aI00
aa(lp587
I2229
aF284.18
aF333.52
aVp1
p588
aS'dejavusans'
p589
aS'#000000'
p590
aF10.0
aI0
aI01
aI00
aI00
aI00
aI00
aI00
aI00
aI00
aa(lp591
I85218
aF321.46
aF333.52
aVp1
p592
aS'dejavusans'
p593
aS'#000000'
p594
aF10.0
aI0
aI00
aI00
aI00
aI00
aI00
aI00
aI00
aI00
aa(lp595
I228003
aF343.45
aF333.52
aVp1
p596
aS'dejavusans'
p597
aS'#000000'
p598
aF10.0
aI0
aI01
aI00
aI00
aI00
aI00
aI00
aI00
aI00
aa(lp599
I234378
aF376.22
aF333.52
aVp1
p600
aS'dejavusans'
p601
aS'#000000'
p602
aF10.0
aI0
aI00
aI00
aI00
aI00
aI00
aI00
aI00
aI00
aa(lp603
I234378
aF427.57
aF333.52
aVp1
p604
aS'dejavusans'
p605
aS'#000000'
p606
aF10.0
aI0
aI00
aI00
aI00
aI00
aI00
aI00
aI00
aI00
aa(lp607
I80664
aF458.0
aF333.52
aVp1
p608
aS'dejavusans'
p609
aS'#000000'
p610
aF10.0
aI1
aI00
aI00
aI00
aI00
aI00
aI00
aI00
aI00
aa(lp611
I234378
aF482.92333333333335
aF333.52
ag608
aS'dejavusans'
p612
aS'#000000'
p613
aF10.0
aI1
aI00
aI00
aI00
aI00
aI00
aI00
aI00
aI00
aa(lp614
I230056
aF489.1541666666667
aF333.52
ag608
aS'dejavusans'
p615
aS'#000000'
p616
aF10.0
aI1
aI01
aI01
aI00
aI00
aI00
aI00
aI00
aI00
aa(lp617
I234378
aF526.5391666666667
aF333.52
ag608
aS'dejavusans'
p618
aS'#000000'
p619
aF10.0
aI1
aI00
aI00
aI00
aI00
aI00
aI00
aI00
aI00
aa(lp620
I234378
aF108.1
aF347.82
aVp1
p621
aS'dejavusans'
p622
aS'#000000'
p623
aF10.0
aI1
aI01
aI00
aI00
aI00
aI00
aI00
aI00
aI00
aa(lp624
I85218
aF178.7
aF347.82
aVp1
p625
aS'dejavusans'
p626
aS'#000000'
p627
aF10.0
aI0
aI00
aI00
aI00
aI00
aI00
aI00
aI00
aI00
aa(lp628
I234378
aF202.39
aF347.82
aVp1
p629
aS'dejavusans'
p630
aS'#000000'
p631
aF10.0
aI1
aI00
aI00
aI00
aI00
aI00
aI00
aI00
aI00
aa(lp632
I80664
aF274.66
aF347.82
aVp1
p633
aS'dejavusans'
p634
aS'#000000'
p635
aF10.0
aI1
aI01
aI00
aI00
aI00
aI00
aI00
aI00
aI00
aa(lp636
I2229
aF304.89
aF347.82
aVp1
p637
aS'dejavusans'
p638
aS'#000000'
p639
aF10.0
aI0
aI00
aI00
aI00
aI00
aI00
aI00
aI00
aI00
aa(lp640
I96642
aF344.66
aF347.82
aVp1
p641
aS'dejavusans'
p642
aS'#000000'
p643
aF10.0
aI0
aI00
aI00
aI00
aI00
aI00
aI00
aI00
aI00
aa(lp644
I234378
aF374.5314285714286
aF347.82
ag641
aS'dejavusans'
p645
aS'#000000'
p646
aF10.0
aI0
aI00
aI00
aI00
aI00
aI00
aI00
aI00
aI00
aa(lp647
I234378
aF384.02
aF347.82
aVp1
p648
aS'dejavusans'
p649
aS'#000000'
p650
aF10.0
aI0
aI00
aI00
aI00
aI00
aI00
aI00
aI00
aI00
aa(lp651
I234378
aF429.67
aF347.82
aVp1
p652
aS'dejavusans'
p653
aS'#000000'
p654
aF10.0
aI0
aI00
aI00
aI00
aI00
aI00
aI00
aI00
aI00
aa(lp655
I85218
aF476.83
aF347.82
aVp1
p656
aS'dejavusans'
p657
aS'#000000'
p658
aF10.0
aI0
aI00
aI00
aI00
aI00
aI00
aI00
aI00
aI00
aa(lp659
I28269
aF500.21
aF347.82
aVp1
p660
aS'dejavusans'
p661
aS'#000000'
p662
aF10.0
aI0
aI00
aI00
aI00
aI00
aI00
aI00
aI00
aI00
aa(lp663
I228446
aF108.1
aF361.92
aVp1
p664
aS'dejavusans'
p665
aS'#000000'
p666
aF10.0
aI0
aI00
aI00
aI00
aI00
aI00
aI00
aI00
aI00
aa(lp667
I89480
aF137.47
aF361.92
aVp1
p668
aS'dejavusans'
p669
aS'#000000'
p670
aF10.0
aI0
aI00
aI00
aI00
aI00
aI00
aI00
aI00
aI00
aa(lp671
I80664
aF150.66
aF361.92
aVp1
p672
aS'dejavusans'
p673
aS'#000000'
p674
aF10.0
aI0
aI00
aI00
aI00
aI00
aI00
aI00
aI00
aI00
aa(lp675
I234378
aF175.33
aF361.92
aVp1
p676
aS'dejavusans'
p677
aS'#000000'
p678
aF10.0
aI0
aI00
aI00
aI00
aI00
aI00
aI00
aI00
aI00
aa(lp679
I234378
aF206.60250000000002
aF361.92
ag676
aS'dejavusans'
p680
aS'#000000'
p681
aF10.0
aI0
aI00
aI00
aI00
aI00
aI00
aI00
aI00
aI00
aa(lp682
I195547
aF108.1
aF375.22
aVp1
p683
aS'dejavusans'
p684
aS'#000000'
p685
aF10.0
aI0
aI01
aI00
aI00
aI00
aI00
aI00
aI00
aI00
aa(lp686
I203832
aF144.28
aF375.22
aVp1
p687
aS'dejavusans'
p688
aS'#000000'
p689
aF10.0
aI0
aI00
aI00
aI00
aI00
aI00
aI00
aI00
aI00
aa(lp690
I144489
aF165.07
aF375.22
aVp1
p691
aS'dejavusans'
p692
aS'#000000'
p693
aF10.0
aI0
aI00
aI00
aI00
aI00
aI00
aI00
aI00
aI00
aa(lp694
I218862
aF177.95
aF375.22
aVp1
p695
aS'dejavusans'
p696
aS'#000000'
p697
aF10.0
aI0
aI01
aI00
aI00
aI00
aI00
aI00
aI00
aI00
aa(lp698
I234378
aF205.42
aF375.22
aVp1
p699
aS'dejavusans'
p700
aS'#000000'
p701
aF10.0
aI0
aI00
aI00
aI00
aI00
aI00
aI00
aI00
aI00
aa(lp702
I234378
aF251.88
aF375.22
aVp1
p703
aS'dejavusans'
p704
aS'#000000'
p705
aF10.0
aI0
aI00
aI00
aI00
aI00
aI00
aI00
aI00
aI00
aa(lp706
I234378
aF306.83
aF375.22
aVp1
p707
aS'dejavusans'
p708
aS'#000000'
p709
aF10.0
aI0
aI00
aI00
aI00
aI00
aI00
aI00
aI00
aI00
aa(lp710
I78782
aF355.47
aF375.22
aVp1
p711
aS'dejavusans'
p712
aS'#000000'
p713
aF10.0
aI0
aI01
aI01
aI00
aI00
aI00
aI00
aI00
aI00
aa(lp714
I190806
aF386.15
aF375.22
aVp1
p715
aS'dejavusans'
p716
aS'#000000'
p717
aF10.0
aI0
aI00
aI00
aI00
aI00
aI00
aI00
aI00
aI00
aa(lp718
I234378
aF403.13
aF375.22
aVp1
p719
aS'dejavusans'
p720
aS'#000000'
p721
aF10.0
aI0
aI01
aI00
aI00
aI00
aI00
aI00
aI00
aI00
aa(lp722
I234378
aF428.09666666666664
aF375.22
ag719
aS'dejavusans'
p723
aS'#000000'
p724
aF10.0
aI0
aI00
aI00
aI00
aI00
aI00
aI00
aI00
aI00
aa(lp725
I234378
aF436.4
aF375.22
aVp1
p726
aS'dejavusans'
p727
aS'#000000'
p728
aF10.0
aI0
aI00
aI00
aI00
aI00
aI00
aI00
aI00
aI00
aa(lp729
I234378
aF482.66
aF375.22
aVp1
p730
aS'dejavusans'
p731
aS'#000000'
p732
aF10.0
aI0
aI00
aI00
aI00
aI00
aI00
aI00
aI00
aI00
aa(lp733
I234378
aF528.254
aF375.22
ag730
aS'dejavusans'
p734
aS'#000000'
p735
aF10.0
aI0
aI00
aI00
aI00
aI00
aI00
aI00
aI00
aI00
aa(lp736
I137949
aF108.1
aF389.52
aVp1
p737
aS'dejavusans'
p738
aS'#000000'
p739
aF10.0
aI1
aI01
aI00
aI00
aI00
aI00
aI00
aI00
aI00
aa(lp740
I113320
aF140.26
aF389.52
aVp1
p741
aS'dejavusans'
p742
aS'#000000'
p743
aF10.0
aI1
aI01
aI00
aI00
aI00
aI00
aI00
aI00
aI00
aa(lp744
I135639
aF230.49
aF389.52
aVp1
p745
aS'dejavusans'
p746
aS'#000000'
p747
aF10.0
aI1
aI00
aI00
aI00
aI00
aI00
aI00
aI00
aI00
aa(lp748
I234378
aF247.37
aF389.52
aVp1
p749
aS'dejavusans'
p750
aS'#000000'
p751
aF10.0
aI1
aI01
aI00
aI00
aI00
aI00
aI00
aI00
aI00
aa(lp752
I162177
aF284.09
aF389.52
aVp1
p753
aS'dejavusans'
p754
aS'#000000'
p755
aF10.0
aI0
aI00
aI00
aI00
aI00
aI00
aI00
aI00
aI00
aa(lp756
I16331
aF313.46
aF389.52
aVp1
p757
aS'dejavusans'
p758
aS'#000000'
p759
aF10.0
aI0
aI00
aI00
aI00
aI00
aI00
aI00
aI00
aI00
aa(lp760
I234378
aF330.84
aF389.52
aVp1
p761
aS'dejavusans'
p762
aS'#000000'
p763
aF10.0
aI0
aI00
aI00
aI00
aI00
aI00
aI00
aI00
aI00
aa(lp764
I166593
aF371.2
aF389.52
aVp1
p765
aS'dejavusans'
p766
aS'#000000'
p767
aF10.0
aI0
aI00
aI00
aI00
aI00
aI00
aI00
aI00
aI00
aa(lp768
I80364
aF383.38
aF389.52
aVp1
p769
aS'dejavusans'
p770
aS'#000000'
p771
aF10.0
aI0
aI00
aI00
aI00
aI00
aI00
aI00
aI00
aI00
aa(lp772
I137949
aF410.05
aF389.52
aVp1
p773
aS'dejavusans'
p774
aS'#000000'
p775
aF10.0
aI0
aI00
aI00
aI00
aI00
aI00
aI00
aI00
aI00
aa(lp776
I39311
aF437.92
aF389.52
aVp1
p777
aS'dejavusans'
p778
aS'#000000'
p779
aF10.0
aI0
aI00
aI00
aI00
aI00
aI00
aI00
aI00
aI00
aa(lp780
I234378
aF475.41375
aF389.52
ag777
aS'dejavusans'
p781
aS'#000000'
p782
aF10.0
aI0
aI00
aI00
aI00
aI00
aI00
aI00
aI00
aI00
aa(lp783
I234378
aF486.98
aF389.52
aVp1
p784
aS'dejavusans'
p785
aS'#000000'
p786
aF10.0
aI0
aI00
aI00
aI00
aI00
aI00
aI00
aI00
aI00
aa(lp787
I234378
aF534.446
aF389.52
ag784
aS'dejavusans'
p788
aS'#000000'
p789
aF10.0
aI0
aI00
aI00
aI00
aI00
aI00
aI00
aI00
aI00
aa(lp790
I234378
aF108.1
aF403.62
aVp1
p791
aS'dejavusans'
p792
aS'#000000'
p793
aF10.0
aI0
aI00
aI00
aI00
aI00
aI00
aI00
aI00
aI00
aa(lp794
I137949
aF152.05
aF403.62
aVp1
p795
aS'dejavusans'
p796
aS'#000000'
p797
aF10.0
aI0
aI00
aI00
aI00
aI00
aI00
aI00
aI00
aI00
aa(lp798
I39311
aF177.03
aF403.62
aVp1
p799
aS'dejavusans'
p800
aS'#000000'
p801
aF10.0
aI0
aI00
aI00
aI00
aI00
aI00
aI00
aI00
aI00
aa(lp802
I85218
aF220.0
aF403.62
aVp1
p803
aS'dejavusans'
p804
aS'#000000'
p805
aF10.0
aI0
aI00
aI00
aI00
aI00
aI00
aI00
aI00
aI00
aa(lp806
I234378
aF241.98
aF403.62
aVp1
p807
aS'dejavusans'
p808
aS'#000000'
p809
aF10.0
aI0
aI00
aI00
aI00
aI00
aI00
aI00
aI00
aI00
aa(lp810
I234378
aF287.44
aF403.62
aVp1
p811
aS'dejavusans'
p812
aS'#000000'
p813
aF10.0
aI0
aI00
aI00
aI00
aI00
aI00
aI00
aI00
aI00
aa(lp814
I68365
aF314.62
aF403.62
aVp1
p815
aS'dejavusans'
p816
aS'#000000'
p817
aF10.0
aI0
aI00
aI00
aI00
aI00
aI00
aI00
aI00
aI00
aa(lp818
I35885
aF351.48
aF403.62
aVp1
p819
aS'dejavusans'
p820
aS'#000000'
p821
aF10.0
aI0
aI00
aI00
aI00
aI00
aI00
aI00
aI00
aI00
aa(lp822
I144483
aF384.76
aF403.62
aVp1
p823
aS'dejavusans'
p824
aS'#000000'
p825
aF10.0
aI0
aI00
aI00
aI00
aI00
aI00
aI00
aI00
aI00
aa(lp826
I194354
aF400.44
aF403.62
aVp1
p827
aS'dejavusans'
p828
aS'#000000'
p829
aF10.0
aI0
aI00
aI00
aI00
aI00
aI00
aI00
aI00
aI00
aa(lp830
I202216
aF420.02
aF403.62
aVp1
p831
aS'dejavusans'
p832
aS'#000000'
p833
aF10.0
aI0
aI00
aI00
aI00
aI00
aI00
aI00
aI00
aI00
aa(lp834
I234378
aF479.26416666666665
aF403.62
ag831
aS'dejavusans'
p835
aS'#000000'
p836
aF10.0
aI0
aI00
aI00
aI00
aI00
aI00
aI00
aI00
aI00
aa(lp837
I234378
aF108.1
aF416.92
aVp1
p838
aS'dejavusans'
p839
aS'#000000'
p840
aF10.0
aI0
aI01
aI00
aI00
aI00
aI00
aI00
aI00
aI00
aa(lp841
I144483
aF142.79
aF416.92
aVp1
p842
aS'dejavusans'
p843
aS'#000000'
p844
aF10.0
aI0
aI00
aI00
aI00
aI00
aI00
aI00
aI00
aI00
aa(lp845
I60220
aF158.47
aF416.92
aVp1
p846
aS'dejavusans'
p847
aS'#000000'
p848
aF10.0
aI0
aI00
aI00
aI00
aI00
aI00
aI00
aI00
aI00
aa(lp849
I144483
aF217.01
aF416.92
aVp1
p850
aS'dejavusans'
p851
aS'#000000'
p852
aF10.0
aI0
aI00
aI00
aI00
aI00
aI00
aI00
aI00
aI00
aa(lp853
I140882
aF232.6
aF416.92
aVp1
p854
aS'dejavusans'
p855
aS'#000000'
p856
aF10.0
aI0
aI00
aI00
aI00
aI00
aI00
aI00
aI00
aI00
aa(lp857
I234378
aF271.68
aF416.92
aVp1
p858
aS'dejavusans'
p859
aS'#000000'
p860
aF10.0
aI0
aI00
aI00
aI00
aI00
aI00
aI00
aI00
aI00
aa(lp861
I234378
aF299.2
aF416.92
aVp1
p862
aS'dejavusans'
p863
aS'#000000'
p864
aF10.0
aI1
aI01
aI01
aI00
aI00
aI00
aI00
aI00
aI00
aa(lp865
I234378
aF318.76
aF416.92
ag862
aS'dejavusans'
p866
aS'#000000'
p867
aF10.0
aI1
aI00
aI00
aI00
aI00
aI00
aI00
aI00
aI00
aa(lp868
I234378
aF328.77
aF416.92
aVp1
p869
aS'dejavusans'
p870
aS'#000000'
p871
aF10.0
aI1
aI01
aI01
aI00
aI00
aI00
aI00
aI00
aI00
aa(lp872
I234378
aF346.53749999999997
aF416.92
ag869
aS'dejavusans'
p873
aS'#000000'
p874
aF10.0
aI1
aI00
aI00
aI00
aI00
aI00
aI00
aI00
aI00
aa(lp875
I234378
aF356.05
aF416.92
aVp1
p876
aS'dejavusans'
p877
aS'#000000'
p878
aF10.0
aI1
aI01
aI00
aI00
aI00
aI00
aI00
aI00
aI00
aa(lp879
I85218
aF400.12
aF416.92
aVp1
p880
aS'dejavusans'
p881
aS'#000000'
p882
aF10.0
aI1
aI00
aI00
aI00
aI00
aI00
aI00
aI00
aI00
aa(lp883
I135792
aF424.6
aF416.92
aVp1
p884
aS'dejavusans'
p885
aS'#000000'
p886
aF10.0
aI1
aI01
aI00
aI00
aI00
aI00
aI00
aI00
aI00
aa(lp887
I234378
aF452.7416666666667
aF416.92
ag884
aS'dejavusans'
p888
aS'#000000'
p889
aF10.0
aI1
aI00
aI00
aI00
aI00
aI00
aI00
aI00
aI00
aa(lp890
I228990
aF108.1
aF431.22
aVp1
p891
aS'dejavusans'
p892
aS'#000000'
p893
aF10.0
aI0
aI01
aI00
aI00
aI00
aI00
aI00
aI00
aI00
aa(lp894
I234378
aF138.78
aF431.22
aVp1
p895
aS'dejavusans'
p896
aS'#000000'
p897
aF10.0
aI0
aI00
aI00
aI00
aI00
aI00
aI00
aI00
aI00
aa(lp898
I144483
aF173.46
aF431.22
aVp1
p899
aS'dejavusans'
p900
aS'#000000'
p901
aF10.0
aI0
aI00
aI00
aI00
aI00
aI00
aI00
aI00
aI00
aa(lp902
I89480
aF190.24
aF431.22
aVp1
p903
aS'dejavusans'
p904
aS'#000000'
p905
aF10.0
aI0
aI00
aI00
aI00
aI00
aI00
aI00
aI00
aI00
aa(lp906
I147316
aF204.52
aF431.22
aVp1
p907
aS'dejavusans'
p908
aS'#000000'
p909
aF10.0
aI0
aI00
aI00
aI00
aI00
aI00
aI00
aI00
aI00
aa(lp910
I190806
aF247.29
aF431.22
aVp1
p911
aS'dejavusans'
p912
aS'#000000'
p913
aF10.0
aI0
aI00
aI00
aI00
aI00
aI00
aI00
aI00
aI00
aa(lp914
I114954
aF265.27
aF431.22
aVp1
p915
aS'dejavusans'
p916
aS'#000000'
p917
aF10.0
aI0
aI00
aI00
aI00
aI00
aI00
aI00
aI00
aI00
aa(lp918
I234378
aF310.42
aF431.22
aVp1
p919
aS'dejavusans'
p920
aS'#000000'
p921
aF10.0
aI0
aI00
aI00
aI00
aI00
aI00
aI00
aI00
aI00
aa(lp922
I85218
aF383.57
aF431.22
aVp1
p923
aS'dejavusans'
p924
aS'#000000'
p925
aF10.0
aI0
aI00
aI00
aI00
aI00
aI00
aI00
aI00
aI00
aa(lp926
I16331
aF406.65
aF431.22
aVp1
p927
aS'dejavusans'
p928
aS'#000000'
p929
aF10.0
aI0
aI00
aI00
aI00
aI00
aI00
aI00
aI00
aI00
aa(lp930
I36088
aF422.33
aF431.22
aVp1
p931
aS'dejavusans'
p932
aS'#000000'
p933
aF10.0
aI0
aI00
aI00
aI00
aI00
aI00
aI00
aI00
aI00
aa(lp934
I16331
aF446.49
aF431.22
aVp1
p935
aS'dejavusans'
p936
aS'#000000'
p937
aF10.0
aI0
aI00
aI00
aI00
aI00
aI00
aI00
aI00
aI00
aa(lp938
I122966
aF462.17
aF431.22
aVp1
p939
aS'dejavusans'
p940
aS'#000000'
p941
aF10.0
aI0
aI00
aI00
aI00
aI00
aI00
aI00
aI00
aI00
aa(lp942
I169745
aF108.1
aF445.32
aVp1
p943
aS'dejavusans'
p944
aS'#000000'
p945
aF10.0
aI0
aI00
aI00
aI00
aI00
aI00
aI00
aI00
aI00
aa(lp946
I52532
aF132.47
aF445.32
aVp1
p947
aS'dejavusans'
p948
aS'#000000'
p949
aF10.0
aI0
aI00
aI00
aI00
aI00
aI00
aI00
aI00
aI00
aa(lp950
I234378
aF178.11
aF445.32
aVp1
p951
aS'dejavusans'
p952
aS'#000000'
p953
aF10.0
aI0
aI00
aI00
aI00
aI00
aI00
aI00
aI00
aI00
aa(lp954
I234378
aF206.57666666666668
aF445.32
ag951
aS'dejavusans'
p955
aS'#000000'
p956
aF10.0
aI0
aI00
aI00
aI00
aI00
aI00
aI00
aI00
aI00
aa(lp957
I234378
aF108.1
aF458.62
aVp1
p958
aS'dejavusans'
p959
aS'#000000'
p960
aF10.0
aI0
aI01
aI00
aI00
aI00
aI00
aI00
aI00
aI00
aa(lp961
I144483
aF143.48
aF458.62
aVp1
p962
aS'dejavusans'
p963
aS'#000000'
p964
aF10.0
aI0
aI00
aI00
aI00
aI00
aI00
aI00
aI00
aI00
aa(lp965
I60220
aF159.76
aF458.62
aVp1
p966
aS'dejavusans'
p967
aS'#000000'
p968
aF10.0
aI0
aI00
aI00
aI00
aI00
aI00
aI00
aI00
aI00
aa(lp969
I135639
aF218.9
aF458.62
aVp1
p970
aS'dejavusans'
p971
aS'#000000'
p972
aF10.0
aI0
aI00
aI00
aI00
aI00
aI00
aI00
aI00
aI00
aa(lp973
I227799
aF231.87
aF458.62
aVp1
p974
aS'dejavusans'
p975
aS'#000000'
p976
aF10.0
aI0
aI00
aI00
aI00
aI00
aI00
aI00
aI00
aI00
aa(lp977
I234378
aF259.53
aF458.62
aVp1
p978
aS'dejavusans'
p979
aS'#000000'
p980
aF10.0
aI0
aI00
aI00
aI00
aI00
aI00
aI00
aI00
aI00
aa(lp981
I10716
aF308.36
aF458.62
aVp1
p982
aS'dejavusans'
p983
aS'#000000'
p984
aF10.0
aI0
aI00
aI00
aI00
aI00
aI00
aI00
aI00
aI00
aa(lp985
I217603
aF329.32
aF458.62
aVp1
p986
aS'dejavusans'
p987
aS'#000000'
p988
aF10.0
aI0
aI01
aI00
aI00
aI00
aI00
aI00
aI00
aI00
aa(lp989
I153177
aF354.59
aF458.62
aVp1
p990
aS'dejavusans'
p991
aS'#000000'
p992
aF10.0
aI0
aI01
aI00
aI00
aI00
aI00
aI00
aI00
aI00
aa(lp993
I85218
aF424.25
aF458.62
aVp1
p994
aS'dejavusans'
p995
aS'#000000'
p996
aF10.0
aI0
aI00
aI00
aI00
aI00
aI00
aI00
aI00
aI00
aa(lp997
I137949
aF446.83
aF458.62
aVp1
p998
aS'dejavusans'
p999
aS'#000000'
p1000
aF10.0
aI0
aI01
aI00
aI00
aI00
aI00
aI00
aI00
aI00
aa(lp1001
I153177
aF473.4
aF458.62
aVp1
p1002
aS'dejavusans'
p1003
aS'#000000'
p1004
aF10.0
aI0
aI01
aI00
aI00
aI00
aI00
aI00
aI00
aI00
aa(lp1005
I234378
aF108.1
aF472.72
aVp1
p1006
aS'dejavusans'
p1007
aS'#000000'
p1008
aF10.0
aI0
aI00
aI00
aI00
aI00
aI00
aI00
aI00
aI00
aa(lp1009
I234378
aF137.28571428571428
aF472.72
ag1006
aS'dejavusans'
p1010
aS'#000000'
p1011
aF10.0
aI0
aI00
aI00
aI00
aI00
aI00
aI00
aI00
aI00
aa(lp1012
I60220
aF108.1
aF486.12
aVp1
p1013
aS'dejavusans'
p1014
aS'#000000'
p1015
aF10.0
aI0
aI01
aI00
aI00
aI00
aI00
aI00
aI00
aI00
aa(lp1016
I135639
aF168.44
aF486.12
aVp1
p1017
aS'dejavusans'
p1018
aS'#000000'
p1019
aF10.0
aI0
aI00
aI00
aI00
aI00
aI00
aI00
aI00
aI00
aa(lp1020
I113320
aF182.11
aF486.12
aVp1
p1021
aS'dejavusans'
p1022
aS'#000000'
p1023
aF10.0
aI0
aI00
aI00
aI00
aI00
aI00
aI00
aI00
aI00
aa(lp1024
I234378
aF252.61400000000003
aF486.12
ag1021
aS'dejavusans'
p1025
aS'#000000'
p1026
aF10.0
aI0
aI00
aI00
aI00
aI00
aI00
aI00
aI00
aI00
aa(lp1027
I20593
aF262.36
aF486.12
aVp1
p1028
aS'dejavusans'
p1029
aS'#000000'
p1030
aF10.0
aI0
aI00
aI00
aI00
aI00
aI00
aI00
aI00
aI00
aa(lp1031
I144489
aF332.4
aF486.12
aVp1
p1032
aS'dejavusans'
p1033
aS'#000000'
p1034
aF10.0
aI0
aI00
aI00
aI00
aI00
aI00
aI00
aI00
aI00
aa(lp1035
I185339
aF346.58
aF486.12
aVp1
p1036
aS'dejavusans'
p1037
aS'#000000'
p1038
aF10.0
aI0
aI00
aI00
aI00
aI00
aI00
aI00
aI00
aI00
aa(lp1039
I226160
aF384.35
aF486.12
aVp1
p1040
aS'dejavusans'
p1041
aS'#000000'
p1042
aF10.0
aI0
aI00
aI00
aI00
aI00
aI00
aI00
aI00
aI00
aa(lp1043
I153177
aF423.52
aF486.12
aVp1
p1044
aS'dejavusans'
p1045
aS'#000000'
p1046
aF10.0
aI0
aI00
aI00
aI00
aI00
aI00
aI00
aI00
aI00
aa(lp1047
I234378
aF495.07
aF486.12
aVp1
p1048
aS'dejavusans'
p1049
aS'#000000'
p1050
aF10.0
aI0
aI00
aI00
aI00
aI00
aI00
aI00
aI00
aI00
aa(lp1051
I234378
aF533.9725
aF486.12
ag1048
aS'dejavusans'
p1052
aS'#000000'
p1053
aF10.0
aI0
aI00
aI00
aI00
aI00
aI00
aI00
aI00
aI00
aa(lp1054
I162177
aF108.1
aF500.22
aVp1
p1055
aS'dejavusans'
p1056
aS'#000000'
p1057
aF10.0
aI0
aI00
aI00
aI00
aI00
aI00
aI00
aI00
aI00
aa(lp1058
I16331
aF134.67
aF500.22
aVp1
p1059
aS'dejavusans'
p1060
aS'#000000'
p1061
aF10.0
aI0
aI00
aI00
aI00
aI00
aI00
aI00
aI00
aI00
aa(lp1062
I130095
aF149.2
aF500.22
aVp1
p1063
aS'dejavusans'
p1064
aS'#000000'
p1065
aF10.0
aI1
aI01
aI00
aI00
aI00
aI00
aI00
aI00
aI00
aa(lp1066
I194179
aF174.18
aF500.22
aVp1
p1067
aS'dejavusans'
p1068
aS'#000000'
p1069
aF10.0
aI1
aI01
aI00
aI00
aI00
aI00
aI00
aI00
aI00
aa(lp1070
I234378
aF219.84
aF500.22
aVp1
p1071
aS'dejavusans'
p1072
aS'#000000'
p1073
aF10.0
aI1
aI00
aI00
aI00
aI00
aI00
aI00
aI00
aI00
aa(lp1074
I234378
aF225.88333333333333
aF500.22
ag1071
aS'dejavusans'
p1075
aS'#000000'
p1076
aF10.0
aI1
aI01
aI01
aI00
aI00
aI00
aI00
aI00
aI00
aa(lp1077
I234378
aF244.01333333333332
aF500.22
ag1071
aS'dejavusans'
p1078
aS'#000000'
p1079
aF10.0
aI1
aI00
aI00
aI00
aI00
aI00
aI00
aI00
aI00
aa(lp1080
I234378
aF250.05666666666664
aF500.22
ag1071
aS'dejavusans'
p1081
aS'#000000'
p1082
aF10.0
aI1
aI00
aI00
aI00
aI00
aI00
aI00
aI00
aI00
aa(lp1083
I199183
aF259.59
aF500.22
aVp1
p1084
aS'dejavusans'
p1085
aS'#000000'
p1086
aF10.0
aI1
aI01
aI00
aI00
aI00
aI00
aI00
aI00
aI00
aa(lp1087
I234378
aF308.04
aF500.22
aVp1
p1088
aS'dejavusans'
p1089
aS'#000000'
p1090
aF10.0
aI1
aI01
aI01
aI00
aI00
aI00
aI00
aI00
aI00
aa(lp1091
I85218
aF335.0
aF500.22
aVp1
p1092
aS'dejavusans'
p1093
aS'#000000'
p1094
aF10.0
aI0
aI00
aI00
aI00
aI00
aI00
aI00
aI00
aI00
aa(lp1095
I216500
aF357.29
aF500.22
aVp1
p1096
aS'dejavusans'
p1097
aS'#000000'
p1098
aF10.0
aI1
aI01
aI01
aI00
aI00
aI00
aI00
aI00
aI00
aa(lp1099
I234378
aF373.77500000000003
aF500.22
ag1096
aS'dejavusans'
p1100
aS'#000000'
p1101
aF10.0
aI1
aI00
aI00
aI00
aI00
aI00
aI00
aI00
aI00
aa(lp1102
I195547
aF108.1
aF513.52
aVp1
p1103
aS'dejavusans'
p1104
aS'#000000'
p1105
aF10.0
aI0
aI01
aI00
aI00
aI00
aI00
aI00
aI00
aI00
aa(lp1106
I127763
aF144.28
aF513.52
aVp1
p1107
aS'dejavusans'
p1108
aS'#000000'
p1109
aF10.0
aI0
aI00
aI00
aI00
aI00
aI00
aI00
aI00
aI00
aa(lp1110
I144483
aF201.54
aF513.52
aVp1
p1111
aS'dejavusans'
p1112
aS'#000000'
p1113
aF10.0
aI0
aI00
aI00
aI00
aI00
aI00
aI00
aI00
aI00
aa(lp1114
I113320
aF217.22
aF513.52
aVp1
p1115
aS'dejavusans'
p1116
aS'#000000'
p1117
aF10.0
aI0
aI01
aI00
aI00
aI00
aI00
aI00
aI00
aI00
aa(lp1118
I85218
aF293.46
aF513.52
aVp1
p1119
aS'dejavusans'
p1120
aS'#000000'
p1121
aF10.0
aI0
aI00
aI00
aI00
aI00
aI00
aI00
aI00
aI00
aa(lp1122
I90895
aF315.44
aF513.52
aVp1
p1123
aS'dejavusans'
p1124
aS'#000000'
p1125
aF10.0
aI0
aI00
aI00
aI00
aI00
aI00
aI00
aI00
aI00
aa(lp1126
I234378
aF384.89
aF513.52
aVp1
p1127
aS'dejavusans'
p1128
aS'#000000'
p1129
aF10.0
aI0
aI00
aI00
aI00
aI00
aI00
aI00
aI00
aI00
aa(lp1130
I144483
aF433.13
aF513.52
aVp1
p1131
aS'dejavusans'
p1132
aS'#000000'
p1133
aF10.0
aI0
aI00
aI00
aI00
aI00
aI00
aI00
aI00
aI00
aa(lp1134
I216500
aF449.0
aF513.52
aVp1
p1135
aS'dejavusans'
p1136
aS'#000000'
p1137
aF10.0
aI1
aI01
aI01
aI00
aI00
aI00
aI00
aI00
aI00
aa(lp1138
I234378
aF465.4775
aF513.52
ag1135
aS'dejavusans'
p1139
aS'#000000'
p1140
aF10.0
aI1
aI00
aI00
aI00
aI00
aI00
aI00
aI00
aI00
aa(lp1141
I125458
aF108.1
aF527.82
aVp1
p1142
aS'dejavusans'
p1143
aS'#000000'
p1144
aF10.0
aI0
aI01
aI00
aI00
aI00
aI00
aI00
aI00
aI00
aa(lp1145
I16331
aF150.97
aF527.82
aVp1
p1146
aS'dejavusans'
p1147
aS'#000000'
p1148
aF10.0
aI0
aI00
aI00
aI00
aI00
aI00
aI00
aI00
aI00
aa(lp1149
I216500
aF167.7
aF527.82
aVp1
p1150
aS'dejavusans'
p1151
aS'#000000'
p1152
aF10.0
aI1
aI01
aI01
aI00
aI00
aI00
aI00
aI00
aI00
aa(lp1153
I57517
aF191.79
aF527.82
aVp1
p1154
aS'dejavusans'
p1155
aS'#000000'
p1156
aF10.0
aI0
aI00
aI00
aI00
aI00
aI00
aI00
aI00
aI00
aa(lp1157
I16331
aF264.74
aF527.82
aVp1
p1158
aS'dejavusans'
p1159
aS'#000000'
p1160
aF10.0
aI0
aI00
aI00
aI00
aI00
aI00
aI00
aI00
aI00
aa(lp1161
I38609
aF281.42
aF527.82
aVp1
p1162
aS'dejavusans'
p1163
aS'#000000'
p1164
aF10.0
aI0
aI00
aI00
aI00
aI00
aI00
aI00
aI00
aI00
aa(lp1165
I144489
aF307.3
aF527.82
aVp1
p1166
aS'dejavusans'
p1167
aS'#000000'
p1168
aF10.0
aI0
aI00
aI00
aI00
aI00
aI00
aI00
aI00
aI00
aa(lp1169
I219882
aF322.28
aF527.82
aVp1
p1170
aS'dejavusans'
p1171
aS'#000000'
p1172
aF10.0
aI0
aI00
aI00
aI00
aI00
aI00
aI00
aI00
aI00
aa(lp1173
I176435
aF343.26
aF527.82
aVp1
p1174
aS'dejavusans'
p1175
aS'#000000'
p1176
aF10.0
aI0
aI00
aI00
aI00
aI00
aI00
aI00
aI00
aI00
aa(lp1177
I85218
aF367.53
aF527.82
aVp1
p1178
aS'dejavusans'
p1179
aS'#000000'
p1180
aF10.0
aI0
aI00
aI00
aI00
aI00
aI00
aI00
aI00
aI00
aa(lp1181
I234378
aF391.71
aF527.82
aVp1
p1182
aS'dejavusans'
p1183
aS'#000000'
p1184
aF10.0
aI0
aI00
aI00
aI00
aI00
aI00
aI00
aI00
aI00
aa(lp1185
I194354
aF448.46
aF527.82
aVp1
p1186
aS'dejavusans'
p1187
aS'#000000'
p1188
aF10.0
aI0
aI00
aI00
aI00
aI00
aI00
aI00
aI00
aI00
aa(lp1189
I48014
aF470.24
aF527.82
aVp1
p1190
aS'dejavusans'
p1191
aS'#000000'
p1192
aF10.0
aI0
aI00
aI00
aI00
aI00
aI00
aI00
aI00
aI00
aa(lp1193
I190806
aF526.1
aF527.82
aVp1
p1194
aS'dejavusans'
p1195
aS'#000000'
p1196
aF10.0
aI0
aI00
aI00
aI00
aI00
aI00
aI00
aI00
aI00
aa(lp1197
I174268
aF108.1
aF541.92
aVp1
p1198
aS'dejavusans'
p1199
aS'#000000'
p1200
aF10.0
aI0
aI00
aI00
aI00
aI00
aI00
aI00
aI00
aI00
aa(lp1201
I234378
aF147.87
aF541.92
aVp1
p1202
aS'dejavusans'
p1203
aS'#000000'
p1204
aF10.0
aI0
aI00
aI00
aI00
aI00
aI00
aI00
aI00
aI00
aa(lp1205
I234378
aF177.0557142857143
aF541.92
ag1202
aS'dejavusans'
p1206
aS'#000000'
p1207
aF10.0
aI0
aI00
aI00
aI00
aI00
aI00
aI00
aI00
aI00
aa(lp1208
I111522
aF108.1
aF555.22
aVp1
p1209
aS'dejavusans'
p1210
aS'#000000'
p1211
aF10.0
aI0
aI01
aI00
aI00
aI00
aI00
aI00
aI00
aI00
aa(lp1212
I60220
aF160.66
aF555.22
aVp1
p1213
aS'dejavusans'
p1214
aS'#000000'
p1215
aF10.0
aI0
aI00
aI00
aI00
aI00
aI00
aI00
aI00
aI00
aa(lp1216
I135639
aF219.8
aF555.22
aVp1
p1217
aS'dejavusans'
p1218
aS'#000000'
p1219
aF10.0
aI0
aI00
aI00
aI00
aI00
aI00
aI00
aI00
aI00
aa(lp1220
I234378
aF232.67
aF555.22
aVp1
p1221
aS'dejavusans'
p1222
aS'#000000'
p1223
aF10.0
aI0
aI00
aI00
aI00
aI00
aI00
aI00
aI00
aI00
aa(lp1224
I53211
aF263.54
aF555.22
aVp1
p1225
aS'dejavusans'
p1226
aS'#000000'
p1227
aF10.0
aI0
aI01
aI00
aI00
aI00
aI00
aI00
aI00
aI00
aa(lp1228
I234378
aF292.39
aF555.22
aVp1
p1229
aS'dejavusans'
p1230
aS'#000000'
p1231
aF10.0
aI0
aI01
aI00
aI00
aI00
aI00
aI00
aI00
aI00
aa(lp1232
I234378
aF354.45
aF555.22
aVp1
p1233
aS'dejavusans'
p1234
aS'#000000'
p1235
aF10.0
aI0
aI01
aI00
aI00
aI00
aI00
aI00
aI00
aI00
aa(lp1236
I234378
aF397.41
aF555.22
aVp1
p1237
aS'dejavusans'
p1238
aS'#000000'
p1239
aF10.0
aI0
aI00
aI00
aI00
aI00
aI00
aI00
aI00
aI00
aa(lp1240
I10716
aF425.38
aF555.22
aVp1
p1241
aS'dejavusans'
p1242
aS'#000000'
p1243
aF10.0
aI0
aI00
aI00
aI00
aI00
aI00
aI00
aI00
aI00
aa(lp1244
I44279
aF446.8
aF555.22
aVp1
p1245
aS'dejavusans'
p1246
aS'#000000'
p1247
aF10.0
aI1
aI01
aI01
aI00
aI00
aI00
aI00
aI00
aI00
aa(lp1248
I234378
aF465.685
aF555.22
ag1245
aS'dejavusans'
p1249
aS'#000000'
p1250
aF10.0
aI1
aI00
aI00
aI00
aI00
aI00
aI00
aI00
aI00
aa(lp1251
I234378
aF476.27
aF555.22
aVp1
p1252
aS'dejavusans'
p1253
aS'#000000'
p1254
aF10.0
aI1
aI01
aI00
aI00
aI00
aI00
aI00
aI00
aI00
aa(lp1255
I234378
aF510.3283333333333
aF555.22
ag1252
aS'dejavusans'
p1256
aS'#000000'
p1257
aF10.0
aI1
aI00
aI00
aI00
aI00
aI00
aI00
aI00
aI00
aa(lp1258
I85218
aF521.3
aF555.22
aVp1
p1259
aS'dejavusans'
p1260
aS'#000000'
p1261
aF10.0
aI0
aI00
aI00
aI00
aI00
aI00
aI00
aI00
aI00
aa(lp1262
I234378
aF108.1
aF569.32
aVp1
p1263
aS'dejavusans'
p1264
aS'#000000'
p1265
aF10.0
aI1
aI01
aI00
aI00
aI00
aI00
aI00
aI00
aI00
aa(lp1266
I234378
aF150.44066666666666
aF569.32
ag1263
aS'dejavusans'
p1267
aS'#000000'
p1268
aF10.0
aI1
aI00
aI00
aI00
aI00
aI00
aI00
aI00
aI00
aa(lp1269
I234378
aF156.48933333333332
aF569.32
ag1263
aS'dejavusans'
p1270
aS'#000000'
p1271
aF10.0
aI1
aI01
aI00
aI00
aI00
aI00
aI00
aI00
aI00
aa(lp1272
I234378
aF192.78133333333332
aF569.32
ag1263
aS'dejavusans'
p1273
aS'#000000'
p1274
aF10.0
aI1
aI00
aI00
aI00
aI00
aI00
aI00
aI00
aI00
aa(lp1275
I121495
aF108.1
aF582.72
aVp1
p1276
aS'dejavusans'
p1277
aS'#000000'
p1278
aF10.0
aI0
aI01
aI00
aI00
aI00
aI00
aI00
aI00
aI00
aa(lp1279
I60220
aF151.37
aF582.72
aVp1
p1280
aS'dejavusans'
p1281
aS'#000000'
p1282
aF10.0
aI0
aI00
aI00
aI00
aI00
aI00
aI00
aI00
aI00
aa(lp1283
I144483
aF211.12
aF582.72
aVp1
p1284
aS'dejavusans'
p1285
aS'#000000'
p1286
aF10.0
aI0
aI00
aI00
aI00
aI00
aI00
aI00
aI00
aI00
aa(lp1287
I81573
aF227.9
aF582.72
aVp1
p1288
aS'dejavusans'
p1289
aS'#000000'
p1290
aF10.0
aI1
aI00
aI00
aI00
aI00
aI00
aI00
aI00
aI00
aa(lp1291
I141687
aF294.75
aF582.72
aVp1
p1292
aS'dejavusans'
p1293
aS'#000000'
p1294
aF10.0
aI1
aI00
aI00
aI00
aI00
aI00
aI00
aI00
aI00
aa(lp1295
I234378
aF354.92
aF582.72
ag1292
aS'dejavusans'
p1296
aS'#000000'
p1297
aF10.0
aI1
aI00
aI00
aI00
aI00
aI00
aI00
aI00
aI00
aa(lp1298
I234378
aF360.39000000000004
aF582.72
ag1292
aS'dejavusans'
p1299
aS'#000000'
p1300
aF10.0
aI1
aI01
aI01
aI00
aI00
aI00
aI00
aI00
aI00
aa(lp1301
I234378
aF371.33000000000004
aF582.72
ag1292
aS'dejavusans'
p1302
aS'#000000'
p1303
aF10.0
aI1
aI00
aI00
aI00
aI00
aI00
aI00
aI00
aI00
aa(lp1304
I85218
aF381.18
aF582.72
aVp1
p1305
aS'dejavusans'
p1306
aS'#000000'
p1307
aF10.0
aI0
aI00
aI00
aI00
aI00
aI00
aI00
aI00
aI00
aa(lp1308
I81573
aF404.3
aF582.72
aVp1
p1309
aS'dejavusans'
p1310
aS'#000000'
p1311
aF10.0
aI1
aI00
aI00
aI00
aI00
aI00
aI00
aI00
aI00
aa(lp1312
I18050
aF471.15
aF582.72
aVp1
p1313
aS'dejavusans'
p1314
aS'#000000'
p1315
aF10.0
aI1
aI00
aI00
aI00
aI00
aI00
aI00
aI00
aI00
aa(lp1316
I234378
aF517.1833333333333
aF582.72
ag1313
aS'dejavusans'
p1317
aS'#000000'
p1318
aF10.0
aI1
aI00
aI00
aI00
aI00
aI00
aI00
aI00
aI00
aa(lp1319
I234378
aF522.9375
aF582.72
ag1313
aS'dejavusans'
p1320
aS'#000000'
p1321
aF10.0
aI1
aI01
aI01
aI00
aI00
aI00
aI00
aI00
aI00
aa(lp1322
I234378
aF534.4458333333333
aF582.72
ag1313
aS'dejavusans'
p1323
aS'#000000'
p1324
aF10.0
aI1
aI00
aI00
aI00
aI00
aI00
aI00
aI00
aI00
aa(lp1325
I234378
aF108.1
aF596.82
aVp1
p1326
aS'dejavusans'
p1327
aS'#000000'
p1328
aF10.0
aI0
aI00
aI00
aI00
aI00
aI00
aI00
aI00
aI00
aa(lp1329
I234378
aF138.3
aF596.82
aVp1
p1330
aS'dejavusans'
p1331
aS'#000000'
p1332
aF10.0
aI1
aI01
aI00
aI00
aI00
aI00
aI00
aI00
aI00
aa(lp1333
I234378
aF108.1
aF610.12
aVp1
p1334
aS'dejavusans'
p1335
aS'#000000'
p1336
aF10.0
aI0
aI01
aI00
aI00
aI00
aI00
aI00
aI00
aI00
aa(lp1337
I234378
aF149.2
aF610.12
aVp1
p1338
aS'dejavusans'
p1339
aS'#000000'
p1340
aF10.0
aI1
aI01
aI00
aI00
aI00
aI00
aI00
aI00
aI00
aa(lp1341
I234378
aF183.67
aF610.12
aVp1
p1342
aS'dejavusans'
p1343
aS'#000000'
p1344
aF10.0
aI1
aI01
aI00
aI00
aI00
aI00
aI00
aI00
aI00
aa(lp1345
I234378
aF223.3
aF610.12
aVp1
p1346
aS'dejavusans'
p1347
aS'#000000'
p1348
aF10.0
aI1
aI00
aI00
aI00
aI00
aI00
aI00
aI00
aI00
aa(lp1349
I144483
aF255.89
aF610.12
aVp1
p1350
aS'dejavusans'
p1351
aS'#000000'
p1352
aF10.0
aI0
aI00
aI00
aI00
aI00
aI00
aI00
aI00
aI00
aa(lp1353
I142554
aF272.07
aF610.12
aVp1
p1354
aS'dejavusans'
p1355
aS'#000000'
p1356
aF10.0
aI0
aI00
aI00
aI00
aI00
aI00
aI00
aI00
aI00
aa(lp1357
I234378
aF335.52
aF610.12
aVp1
p1358
aS'dejavusans'
p1359
aS'#000000'
p1360
aF10.0
aI0
aI00
aI00
aI00
aI00
aI00
aI00
aI00
aI00
aa(lp1361
I89480
aF376.08
aF610.12
aVp1
p1362
aS'dejavusans'
p1363
aS'#000000'
p1364
aF10.0
aI0
aI00
aI00
aI00
aI00
aI00
aI00
aI00
aI00
aa(lp1365
I106371
aF389.86
aF610.12
aVp1
p1366
aS'dejavusans'
p1367
aS'#000000'
p1368
aF10.0
aI0
aI00
aI00
aI00
aI00
aI00
aI00
aI00
aI00
aa(lp1369
I190794
aF420.94
aF610.12
aVp1
p1370
aS'dejavusans'
p1371
aS'#000000'
p1372
aF10.0
aI0
aI00
aI00
aI00
aI00
aI00
aI00
aI00
aI00
aa(lp1373
I194354
aF446.32
aF610.12
aVp1
p1374
aS'dejavusans'
p1375
aS'#000000'
p1376
aF10.0
aI0
aI00
aI00
aI00
aI00
aI00
aI00
aI00
aI00
aa(lp1377
I234378
aF466.4
aF610.12
aVp1
p1378
aS'dejavusans'
p1379
aS'#000000'
p1380
aF10.0
aI0
aI00
aI00
aI00
aI00
aI00
aI00
aI00
aI00
aa(lp1381
I84932
aF506.96
aF610.12
aVp1
p1382
aS'dejavusans'
p1383
aS'#000000'
p1384
aF10.0
aI0
aI00
aI00
aI00
aI00
aI00
aI00
aI00
aI00
aa(lp1385
I15429
aF526.84
aF610.12
aVp1
p1386
aS'dejavusans'
p1387
aS'#000000'
p1388
aF10.0
aI0
aI00
aI00
aI00
aI00
aI00
aI00
aI00
aI00
aa(lp1389
I85218
aF108.1
aF624.22
aVp1
p1390
aS'dejavusans'
p1391
aS'#000000'
p1392
aF10.0
aI0
aI00
aI00
aI00
aI00
aI00
aI00
aI00
aI00
aa(lp1393
I111483
aF130.08
aF624.22
aVp1
p1394
aS'dejavusans'
p1395
aS'#000000'
p1396
aF10.0
aI0
aI00
aI00
aI00
aI00
aI00
aI00
aI00
aI00
aa(lp1397
I16331
aF171.84
aF624.22
aVp1
p1398
aS'dejavusans'
p1399
aS'#000000'
p1400
aF10.0
aI0
aI00
aI00
aI00
aI00
aI00
aI00
aI00
aI00
aa(lp1401
I234378
aF186.33
aF624.22
aVp1
p1402
aS'dejavusans'
p1403
aS'#000000'
p1404
aF10.0
aI0
aI00
aI00
aI00
aI00
aI00
aI00
aI00
aI00
aa(lp1405
I234378
aF230.27666666666667
aF624.22
ag1402
aS'dejavusans'
p1406
aS'#000000'
p1407
aF10.0
aI0
aI00
aI00
aI00
aI00
aI00
aI00
aI00
aI00
aa(lp1408
I234378
aF108.1
aF637.62
aVp1
p1409
aS'dejavusans'
p1410
aS'#000000'
p1411
aF10.0
aI1
aI01
aI00
aI00
aI00
aI00
aI00
aI00
aI00
aa(lp1412
I78023
aF189.32
aF637.62
aVp1
p1413
aS'dejavusans'
p1414
aS'#000000'
p1415
aF10.0
aI1
aI00
aI00
aI00
aI00
aI00
aI00
aI00
aI00
aa(lp1416
I162471
aF258.99
aF637.62
aVp1
p1417
aS'dejavusans'
p1418
aS'#000000'
p1419
aF10.0
aI0
aI00
aI00
aI00
aI00
aI00
aI00
aI00
aI00
aa(lp1420
I96642
aF296.76
aF637.62
aVp1
p1421
aS'dejavusans'
p1422
aS'#000000'
p1423
aF10.0
aI0
aI00
aI00
aI00
aI00
aI00
aI00
aI00
aI00
aa(lp1424
I138208
aF334.02
aF637.62
aVp1
p1425
aS'dejavusans'
p1426
aS'#000000'
p1427
aF10.0
aI0
aI00
aI00
aI00
aI00
aI00
aI00
aI00
aI00
aa(lp1428
I136483
aF352.1
aF637.62
aVp1
p1429
aS'dejavusans'
p1430
aS'#000000'
p1431
aF10.0
aI0
aI00
aI00
aI00
aI00
aI00
aI00
aI00
aI00
aa(lp1432
I10716
aF375.27
aF637.62
aVp1
p1433
aS'dejavusans'
p1434
aS'#000000'
p1435
aF10.0
aI0
aI00
aI00
aI00
aI00
aI00
aI00
aI00
aI00
aa(lp1436
I234378
aF398.04
aF637.62
aVp1
p1437
aS'dejavusans'
p1438
aS'#000000'
p1439
aF10.0
aI0
aI00
aI00
aI00
aI00
aI00
aI00
aI00
aI00
aa(lp1440
I234378
aF424.01500000000004
aF637.62
ag1437
aS'dejavusans'
p1441
aS'#000000'
p1442
aF10.0
aI0
aI00
aI00
aI00
aI00
aI00
aI00
aI00
aI00
aa(lp1443
I45445
aF434.92
aF637.62
aVp1
p1444
aS'dejavusans'
p1445
aS'#000000'
p1446
aF10.0
aI0
aI00
aI00
aI00
aI00
aI00
aI00
aI00
aI00
aa(lp1447
I234378
aF471.28
aF637.62
aVp1
p1448
aS'dejavusans'
p1449
aS'#000000'
p1450
aF10.0
aI0
aI00
aI00
aI00
aI00
aI00
aI00
aI00
aI00
aa(lp1451
I234378
aF534.6178571428571
aF637.62
ag1448
aS'dejavusans'
p1452
aS'#000000'
p1453
aF10.0
aI0
aI00
aI00
aI00
aI00
aI00
aI00
aI00
aI00
aa(lp1454
I184331
aF108.1
aF651.72
aVp1
p1455
aS'dejavusans'
p1456
aS'#000000'
p1457
aF10.0
aI0
aI00
aI00
aI00
aI00
aI00
aI00
aI00
aI00
aa(lp1458
I140510
aF143.36
aF651.72
aVp1
p1459
aS'dejavusans'
p1460
aS'#000000'
p1461
aF10.0
aI0
aI00
aI00
aI00
aI00
aI00
aI00
aI00
aI00
aa(lp1462
I234378
aF177.23
aF651.72
aVp1
p1463
aS'dejavusans'
p1464
aS'#000000'
p1465
aF10.0
aI0
aI00
aI00
aI00
aI00
aI00
aI00
aI00
aI00
aa(lp1466
I234378
aF232.73
aF651.72
ag1463
aS'dejavusans'
p1467
aS'#000000'
p1468
aF10.0
aI0
aI00
aI00
aI00
aI00
aI00
aI00
aI00
aI00
aa(lp1469
I109152
aF241.59
aF651.72
aVp1
p1470
aS'dejavusans'
p1471
aS'#000000'
p1472
aF10.0
aI0
aI00
aI00
aI00
aI00
aI00
aI00
aI00
aI00
aa(lp1473
I234378
aF279.35
aF651.72
aVp1
p1474
aS'dejavusans'
p1475
aS'#000000'
p1476
aF10.0
aI0
aI00
aI00
aI00
aI00
aI00
aI00
aI00
aI00
aa(lp1477
I234378
aF309.53
aF651.72
aVp1
p1478
aS'dejavusans'
p1479
aS'#000000'
p1480
aF10.0
aI0
aI00
aI00
aI00
aI00
aI00
aI00
aI00
aI00
aa(lp1481
I234378
aF339.89
aF651.72
aVp1
p1482
aS'dejavusans'
p1483
aS'#000000'
p1484
aF10.0
aI0
aI00
aI00
aI00
aI00
aI00
aI00
aI00
aI00
aa(lp1485
I234378
aF353.885
aF651.72
ag1482
aS'dejavusans'
p1486
aS'#000000'
p1487
aF10.0
aI0
aI00
aI00
aI00
aI00
aI00
aI00
aI00
aI00
aa(lp1488
I117435
aF108.1
aF665.02
aVp1
p1489
aS'dejavusans'
p1490
aS'#000000'
p1491
aF10.0
aI0
aI01
aI00
aI00
aI00
aI00
aI00
aI00
aI00
aa(lp1492
I234378
aF161.3
aF665.02
aVp1
p1493
aS'dejavusans'
p1494
aS'#000000'
p1495
aF10.0
aI1
aI01
aI01
aI00
aI00
aI00
aI00
aI00
aI00
aa(lp1496
I234378
aF187.89
aF665.02
aVp1
p1497
aS'dejavusans'
p1498
aS'#000000'
p1499
aF10.0
aI1
aI00
aI00
aI00
aI00
aI00
aI00
aI00
aI00
aa(lp1500
I190806
aF253.29
aF665.02
aVp1
p1501
aS'dejavusans'
p1502
aS'#000000'
p1503
aF10.0
aI0
aI00
aI00
aI00
aI00
aI00
aI00
aI00
aI00
aa(lp1504
I234378
aF270.18
aF665.02
aVp1
p1505
aS'dejavusans'
p1506
aS'#000000'
p1507
aF10.0
aI0
aI00
aI00
aI00
aI00
aI00
aI00
aI00
aI00
aa(lp1508
I85218
aF289.7
aF665.02
aVp1
p1509
aS'dejavusans'
p1510
aS'#000000'
p1511
aF10.0
aI0
aI00
aI00
aI00
aI00
aI00
aI00
aI00
aI00
aa(lp1512
I209062
aF311.68
aF665.02
aVp1
p1513
aS'dejavusans'
p1514
aS'#000000'
p1515
aF10.0
aI0
aI00
aI00
aI00
aI00
aI00
aI00
aI00
aI00
aa(lp1516
I53211
aF336.46
aF665.02
aVp1
p1517
aS'dejavusans'
p1518
aS'#000000'
p1519
aF10.0
aI0
aI00
aI00
aI00
aI00
aI00
aI00
aI00
aI00
aa(lp1520
I234378
aF364.22
aF665.02
aVp1
p1521
aS'dejavusans'
p1522
aS'#000000'
p1523
aF10.0
aI0
aI00
aI00
aI00
aI00
aI00
aI00
aI00
aI00
aa(lp1524
I234378
aF407.9745454545455
aF665.02
ag1521
aS'dejavusans'
p1525
aS'#000000'
p1526
aF10.0
aI0
aI00
aI00
aI00
aI00
aI00
aI00
aI00
aI00
aa(lp1527
I72537
aF108.1
aF679.32
aVp1
p1528
aS'dejavusans'
p1529
aS'#000000'
p1530
aF10.0
aI0
aI01
aI00
aI00
aI00
aI00
aI00
aI00
aI00
aa(lp1531
I234378
aF146.70444444444445
aF679.32
ag1528
aS'dejavusans'
p1532
aS'#000000'
p1533
aF10.0
aI0
aI00
aI00
aI00
aI00
aI00
aI00
aI00
aI00
aa(lp1534
I234378
aF154.74
aF679.32
aVp1
p1535
aS'dejavusans'
p1536
aS'#000000'
p1537
aF10.0
aI0
aI01
aI01
aI00
aI00
aI00
aI00
aI00
aI00
aa(lp1538
I234378
aF169.708
aF679.32
ag1535
aS'dejavusans'
p1539
aS'#000000'
p1540
aF10.0
aI0
aI01
aI01
aI00
aI00
aI00
aI00
aI00
aI00
aa(lp1541
I163414
aF192.9
aF679.32
aVp1
p1542
aS'dejavusans'
p1543
aS'#000000'
p1544
aF10.0
aI0
aI00
aI00
aI00
aI00
aI00
aI00
aI00
aI00
aa(lp1545
I234378
aF239.45
aF679.32
aVp1
p1546
aS'dejavusans'
p1547
aS'#000000'
p1548
aF10.0
aI0
aI00
aI00
aI00
aI00
aI00
aI00
aI00
aI00
aa(lp1549
I119502
aF269.8
aF679.32
aVp1
p1550
aS'dejavusans'
p1551
aS'#000000'
p1552
aF10.0
aI1
aI01
aI00
aI00
aI00
aI00
aI00
aI00
aI00
aa(lp1553
I146261
aF314.77
aF679.32
aVp1
p1554
aS'dejavusans'
p1555
aS'#000000'
p1556
aF10.0
aI1
aI00
aI00
aI00
aI00
aI00
aI00
aI00
aI00
aa(lp1557
I234378
aF334.47999999999996
aF679.32
ag1554
aS'dejavusans'
p1558
aS'#000000'
p1559
aF10.0
aI1
aI00
aI00
aI00
aI00
aI00
aI00
aI00
aI00
aa(lp1560
I234378
aF344.64
aF679.32
aVp1
p1561
aS'dejavusans'
p1562
aS'#000000'
p1563
aF10.0
aI1
aI01
aI00
aI00
aI00
aI00
aI00
aI00
aI00
aa(lp1564
I177862
aF366.69
aF679.32
aVp1
p1565
aS'dejavusans'
p1566
aS'#000000'
p1567
aF10.0
aI0
aI00
aI00
aI00
aI00
aI00
aI00
aI00
aI00
aa(lp1568
I156028
aF413.03
aF679.32
aVp1
p1569
aS'dejavusans'
p1570
aS'#000000'
p1571
aF10.0
aI0
aI00
aI00
aI00
aI00
aI00
aI00
aI00
aI00
aa(lp1572
I234378
aF430.678
aF679.32
ag1569
aS'dejavusans'
p1573
aS'#000000'
p1574
aF10.0
aI0
aI00
aI00
aI00
aI00
aI00
aI00
aI00
aI00
aa(lp1575
I234378
aF108.1
aF693.52
aVp1
p1576
aS'dejavusans'
p1577
aS'#000000'
p1578
aF10.0
aI0
aI01
aI00
aI00
aI00
aI00
aI00
aI00
aI00
aa(lp1579
I140882
aF164.75
aF693.52
aVp1
p1580
aS'dejavusans'
p1581
aS'#000000'
p1582
aF10.0
aI0
aI00
aI00
aI00
aI00
aI00
aI00
aI00
aI00
aa(lp1583
I234378
aF203.82
aF693.52
aVp1
p1584
aS'dejavusans'
p1585
aS'#000000'
p1586
aF10.0
aI0
aI00
aI00
aI00
aI00
aI00
aI00
aI00
aI00
aa(lp1587
I234378
aF228.71166666666664
aF693.52
ag1584
aS'dejavusans'
p1588
aS'#000000'
p1589
aF10.0
aI0
aI00
aI00
aI00
aI00
aI00
aI00
aI00
aI00
aa(lp1590
I234378
aF237.0
aF693.52
aVp1
p1591
aS'dejavusans'
p1592
aS'#000000'
p1593
aF10.0
aI0
aI00
aI00
aI00
aI00
aI00
aI00
aI00
aI00
aa(lp1594
I192651
aF280.16
aF693.52
aVp1
p1595
aS'dejavusans'
p1596
aS'#000000'
p1597
aF10.0
aI0
aI00
aI00
aI00
aI00
aI00
aI00
aI00
aI00
aa(lp1598
I234378
aF295.55
aF693.52
aVp1
p1599
aS'dejavusans'
p1600
aS'#000000'
p1601
aF10.0
aI0
aI00
aI00
aI00
aI00
aI00
aI00
aI00
aI00
aa(lp1602
I234378
aF325.9
aF693.52
aVp1
p1603
aS'dejavusans'
p1604
aS'#000000'
p1605
aF10.0
aI1
aI01
aI00
aI00
aI00
aI00
aI00
aI00
aI00
aa(lp1606
I234378
aF367.6
aF693.52
aVp1
p1607
aS'dejavusans'
p1608
aS'#000000'
p1609
aF10.0
aI1
aI00
aI00
aI00
aI00
aI00
aI00
aI00
aI00
aa(lp1610
I156028
aF433.15
aF693.52
aVp1
p1611
aS'dejavusans'
p1612
aS'#000000'
p1613
aF10.0
aI1
aI00
aI00
aI00
aI00
aI00
aI00
aI00
aI00
aa(lp1614
I234378
aF453.686
aF693.52
ag1611
aS'dejavusans'
p1615
aS'#000000'
p1616
aF10.0
aI1
aI00
aI00
aI00
aI00
aI00
aI00
aI00
aI00
aa(lp1617
I234378
aF108.1
aF72.02
aVp2
p1618
aS'dejavusans'
p1619
aS'#000000'
p1620
aF10.0
aI0
aI01
aI00
aI00
aI00
aI00
aI00
aI00
aI00
aa(lp1621
I234378
aF160.28
aF72.02
aVp2
p1622
aS'dejavusans'
p1623
aS'#000000'
p1624
aF10.0
aI0
aI00
aI00
aI00
aI00
aI00
aI00
aI00
aI00
aa(lp1625
I234378
aF204.64
aF72.02
aVp2
p1626
aS'dejavusans'
p1627
aS'#000000'
p1628
aF10.0
aI0
aI00
aI00
aI00
aI00
aI00
aI00
aI00
aI00
aa(lp1629
I192651
aF266.58
aF72.02
aVp2
p1630
aS'dejavusans'
p1631
aS'#000000'
p1632
aF10.0
aI0
aI00
aI00
aI00
aI00
aI00
aI00
aI00
aI00
aa(lp1633
I234378
aF281.97
aF72.02
aVp2
p1634
aS'dejavusans'
p1635
aS'#000000'
p1636
aF10.0
aI0
aI00
aI00
aI00
aI00
aI00
aI00
aI00
aI00
aa(lp1637
I216798
aF312.3
aF72.02
aVp2
p1638
aS'dejavusans'
p1639
aS'#000000'
p1640
aF10.0
aI1
aI01
aI00
aI00
aI00
aI00
aI00
aI00
aI00
aa(lp1641
I48014
aF350.36
aF72.02
aVp2
p1642
aS'dejavusans'
p1643
aS'#000000'
p1644
aF10.0
aI1
aI01
aI00
aI00
aI00
aI00
aI00
aI00
aI00
aa(lp1645
I95887
aF414.8
aF72.02
aVp2
p1646
aS'dejavusans'
p1647
aS'#000000'
p1648
aF10.0
aI1
aI01
aI00
aI00
aI00
aI00
aI00
aI00
aI00
aa(lp1649
I234378
aF460.0025
aF72.02
ag1646
aS'dejavusans'
p1650
aS'#000000'
p1651
aF10.0
aI1
aI00
aI00
aI00
aI00
aI00
aI00
aI00
aI00
aa(lp1652
I234378
aF108.1
aF86.32
aVp2
p1653
aS'dejavusans'
p1654
aS'#000000'
p1655
aF10.0
aI0
aI01
aI00
aI00
aI00
aI00
aI00
aI00
aI00
aa(lp1656
I135639
aF171.43
aF86.32
aVp2
p1657
aS'dejavusans'
p1658
aS'#000000'
p1659
aF10.0
aI0
aI00
aI00
aI00
aI00
aI00
aI00
aI00
aI00
aa(lp1660
I44160
aF184.2
aF86.32
aVp2
p1661
aS'dejavusans'
p1662
aS'#000000'
p1663
aF10.0
aI0
aI00
aI00
aI00
aI00
aI00
aI00
aI00
aI00
aa(lp1664
I70210
aF224.26
aF86.32
aVp2
p1665
aS'dejavusans'
p1666
aS'#000000'
p1667
aF10.0
aI0
aI00
aI00
aI00
aI00
aI00
aI00
aI00
aI00
aa(lp1668
I234378
aF251.62
aF86.32
aVp2
p1669
aS'dejavusans'
p1670
aS'#000000'
p1671
aF10.0
aI0
aI00
aI00
aI00
aI00
aI00
aI00
aI00
aI00
aa(lp1672
I85218
aF312.37
aF86.32
aVp2
p1673
aS'dejavusans'
p1674
aS'#000000'
p1675
aF10.0
aI0
aI00
aI00
aI00
aI00
aI00
aI00
aI00
aI00
aa(lp1676
I16317
aF334.75
aF86.32
aVp2
p1677
aS'dejavusans'
p1678
aS'#000000'
p1679
aF10.0
aI0
aI00
aI00
aI00
aI00
aI00
aI00
aI00
aI00
aa(lp1680
I184870
aF363.43
aF86.32
aVp2
p1681
aS'dejavusans'
p1682
aS'#000000'
p1683
aF10.0
aI0
aI00
aI00
aI00
aI00
aI00
aI00
aI00
aI00
aa(lp1684
I194354
aF406.4
aF86.32
aVp2
p1685
aS'dejavusans'
p1686
aS'#000000'
p1687
aF10.0
aI0
aI00
aI00
aI00
aI00
aI00
aI00
aI00
aI00
aa(lp1688
I16915
aF426.38
aF86.32
aVp2
p1689
aS'dejavusans'
p1690
aS'#000000'
p1691
aF10.0
aI0
aI00
aI00
aI00
aI00
aI00
aI00
aI00
aI00
aa(lp1692
I234378
aF453.4
aF86.32
aVp2
p1693
aS'dejavusans'
p1694
aS'#000000'
p1695
aF10.0
aI1
aI01
aI01
aI00
aI00
aI00
aI00
aI00
aI00
aa(lp1696
I85218
aF486.57
aF86.32
aVp2
p1697
aS'dejavusans'
p1698
aS'#000000'
p1699
aF10.0
aI1
aI00
aI00
aI00
aI00
aI00
aI00
aI00
aI00
aa(lp1700
I51660
aF511.55
aF86.32
aVp2
p1701
aS'dejavusans'
p1702
aS'#000000'
p1703
aF10.0
aI1
aI01
aI00
aI00
aI00
aI00
aI00
aI00
aI00
aa(lp1704
I61195
aF108.1
aF100.42
aVp2
p1705
aS'dejavusans'
p1706
aS'#000000'
p1707
aF10.0
aI1
aI00
aI00
aI00
aI00
aI00
aI00
aI00
aI00
aa(lp1708
I234378
aF149.53125
aF100.42
ag1705
aS'dejavusans'
p1709
aS'#000000'
p1710
aF10.0
aI1
aI00
aI00
aI00
aI00
aI00
aI00
aI00
aI00
aa(lp1711
I51933
aF72.1
aF127.12
aVp2
p1712
aS'dejavusans'
p1713
aS'#001f5f'
p1714
aF10.0
aI1
aI01
aI00
aI00
aI00
aI00
aI00
aI00
aI00
aa(lp1715
I127485
aF104.68
aF127.12
aVp2
p1716
aS'dejavusans'
p1717
aS'#001f5f'
p1718
aF10.0
aI1
aI01
aI00
aI00
aI00
aI00
aI00
aI00
aI00
aa(lp1719
I234378
aF140.26625
aF127.12
ag1716
aS'dejavusans'
p1720
aS'#001f5f'
p1721
aF10.0
aI1
aI00
aI00
aI00
aI00
aI00
aI00
aI00
aI00
aa(lp1722
I123583
aF108.1
aF138.72
aVp2
p1723
aS'dejavusans'
p1724
aS'#000000'
p1725
aF10.0
aI0
aI01
aI00
aI00
aI00
aI00
aI00
aI00
aI00
aa(lp1726
I16331
aF152.06
aF138.72
aVp2
p1727
aS'dejavusans'
p1728
aS'#000000'
p1729
aF10.0
aI0
aI00
aI00
aI00
aI00
aI00
aI00
aI00
aI00
aa(lp1730
I166593
aF166.55
aF138.72
aVp2
p1731
aS'dejavusans'
p1732
aS'#000000'
p1733
aF10.0
aI0
aI00
aI00
aI00
aI00
aI00
aI00
aI00
aI00
aa(lp1734
I234378
aF175.9
aF138.72
aVp2
p1735
aS'dejavusans'
p1736
aS'#000000'
p1737
aF10.0
aI1
aI01
aI00
aI00
aI00
aI00
aI00
aI00
aI00
aa(lp1738
I132100
aF220.86
aF138.72
aVp2
p1739
aS'dejavusans'
p1740
aS'#000000'
p1741
aF10.0
aI1
aI01
aI00
aI00
aI00
aI00
aI00
aI00
aI00
aa(lp1742
I190806
aF274.29
aF138.72
aVp2
p1743
aS'dejavusans'
p1744
aS'#000000'
p1745
aF10.0
aI0
aI00
aI00
aI00
aI00
aI00
aI00
aI00
aI00
aa(lp1746
I234378
aF291.2
aF138.72
aVp2
p1747
aS'dejavusans'
p1748
aS'#000000'
p1749
aF10.0
aI1
aI01
aI00
aI00
aI00
aI00
aI00
aI00
aI00
aa(lp1750
I234378
aF347.65
aF138.72
aVp2
p1751
aS'dejavusans'
p1752
aS'#000000'
p1753
aF10.0
aI1
aI01
aI00
aI00
aI00
aI00
aI00
aI00
aI00
aa(lp1754
I234378
aF369.83
aF138.72
aVp2
p1755
aS'dejavusans'
p1756
aS'#000000'
p1757
aF10.0
aI1
aI01
aI00
aI00
aI00
aI00
aI00
aI00
aI00
aa(lp1758
I137578
aF391.7
aF138.72
aVp2
p1759
aS'dejavusans'
p1760
aS'#000000'
p1761
aF10.0
aI0
aI00
aI00
aI00
aI00
aI00
aI00
aI00
aI00
aa(lp1762
I234378
aF420.77
aF138.72
aVp2
p1763
aS'dejavusans'
p1764
aS'#000000'
p1765
aF10.0
aI0
aI00
aI00
aI01
aI01
aI01
aI00
aI00
aI00
aa(lp1766
I89480
aF449.8
aF138.72
aVp2
p1767
aS'dejavusans'
p1768
aS'#000000'
p1769
aF10.0
aI0
aI00
aI00
aI00
aI00
aI00
aI00
aI00
aI00
aa(lp1770
I102117
aF462.99
aF138.72
aVp2
p1771
aS'dejavusans'
p1772
aS'#000000'
p1773
aF10.0
aI0
aI00
aI00
aI00
aI00
aI00
aI00
aI00
aI00
aa(lp1774
I234378
aF498.90875
aF138.72
ag1771
aS'dejavusans'
p1775
aS'#000000'
p1776
aF10.0
aI0
aI00
aI00
aI00
aI00
aI00
aI00
aI00
aI00
aa(lp1777
I149270
aF72.1
aF166.32
aVp2
p1778
aS'dejavusans'
p1779
aS'#001f5f'
p1780
aF10.0
aI1
aI01
aI00
aI00
aI00
aI00
aI00
aI00
aI00
aa(lp1781
I234378
aF127.56
aF166.32
aVp2
p1782
aS'dejavusans'
p1783
aS'#001f5f'
p1784
aF10.0
aI1
aI00
aI00
aI00
aI00
aI00
aI00
aI00
aI00
aa(lp1785
I234378
aF155.64857142857142
aF166.32
ag1782
aS'dejavusans'
p1786
aS'#001f5f'
p1787
aF10.0
aI1
aI00
aI00
aI00
aI00
aI00
aI00
aI00
aI00
aa(lp1788
I234378
aF89.1
aF191.82
aVp2
p1789
aS'dejavusans'
p1790
aS'#000000'
p1791
aF10.0
aI1
aI01
aI01
aI00
aI00
aI00
aI00
aI00
aI00
aa(lp1792
I234378
aF117.08
aF191.82
aVp2
p1793
aS'dejavusans'
p1794
aS'#000000'
p1795
aF10.0
aI1
aI01
aI00
aI00
aI00
aI00
aI00
aI00
aI00
aa(lp1796
I166176
aF319.1
aF191.82
aVp2
p1797
aS'dejavusans'
p1798
aS'#000000'
p1799
aF10.0
aI1
aI01
aI00
aI00
aI00
aI00
aI00
aI00
aI00
aa(lp1800
I234378
aF385.55
aF191.82
aVp2
p1801
aS'dejavusans'
p1802
aS'#000000'
p1803
aF10.0
aI1
aI00
aI00
aI01
aI01
aI00
aI00
aI00
aI00
aa(lp1804
I234378
aF390.9175
aF191.82
ag1801
aS'dejavusans'
p1805
aS'#000000'
p1806
aF10.0
aI1
aI00
aI00
aI00
aI00
aI00
aI00
aI00
aI00
aa(lp1807
I234378
aF396.285
aF191.82
ag1801
aS'dejavusans'
p1808
aS'#000000'
p1809
aF10.0
aI1
aI00
aI00
aI01
aI01
aI00
aI00
aI00
aI00
aa(lp1810
I234378
aF401.65250000000003
aF191.82
ag1801
aS'dejavusans'
p1811
aS'#000000'
p1812
aF10.0
aI1
aI00
aI00
aI00
aI00
aI00
aI00
aI00
aI00
aa(lp1813
I199183
aF410.51
aF191.82
aVp2
p1814
aS'dejavusans'
p1815
aS'#000000'
p1816
aF10.0
aI1
aI01
aI00
aI00
aI00
aI00
aI00
aI00
aI00
aa(lp1817
I234378
aF459.05
aF191.82
aVp2
p1818
aS'dejavusans'
p1819
aS'#000000'
p1820
aF10.0
aI1
aI01
aI01
aI00
aI00
aI00
aI00
aI00
aI00
aa(lp1821
I234378
aF479.36
aF191.82
ag1818
aS'dejavusans'
p1822
aS'#000000'
p1823
aF10.0
aI1
aI00
aI00
aI00
aI00
aI00
aI00
aI00
aI00
aa(lp1824
I216500
aF489.62
aF191.82
aVp2
p1825
aS'dejavusans'
p1826
aS'#000000'
p1827
aF10.0
aI1
aI01
aI01
aI00
aI00
aI00
aI00
aI00
aI00
aa(lp1828
I90895
aF89.1
aF215.62
aVp2
p1829
aS'dejavusans'
p1830
aS'#000000'
p1831
aF10.0
aI1
aI01
aI00
aI00
aI00
aI00
aI00
aI00
aI00
aa(lp1832
I234378
aF169.44
aF215.62
aVp2
p1833
aS'dejavusans'
p1834
aS'#000000'
p1835
aF10.0
aI1
aI01
aI00
aI00
aI00
aI00
aI00
aI00
aI00
aa(lp1836
I234378
aF205.21
aF215.62
aVp2
p1837
aS'dejavusans'
p1838
aS'#000000'
p1839
aF10.0
aI1
aI00
aI00
aI00
aI00
aI00
aI00
aI00
aI00
aa(lp1840
I80664
aF319.1
aF215.62
aVp2
p1841
aS'dejavusans'
p1842
aS'#000000'
p1843
aF10.0
aI1
aI01
aI00
aI00
aI00
aI00
aI00
aI00
aI00
aa(lp1844
I234378
aF344.3109090909091
aF215.62
ag1841
aS'dejavusans'
p1845
aS'#000000'
p1846
aF10.0
aI1
aI00
aI00
aI00
aI00
aI00
aI00
aI00
aI00
aa(lp1847
I230056
aF350.6136363636364
aF215.62
ag1841
aS'dejavusans'
p1848
aS'#000000'
p1849
aF10.0
aI1
aI00
aI00
aI00
aI00
aI00
aI00
aI00
aI00
aa(lp1850
I53211
aF89.1
aF239.42
aVp2
p1851
aS'dejavusans'
p1852
aS'#000000'
p1853
aF10.0
aI1
aI01
aI00
aI00
aI00
aI00
aI00
aI00
aI00
aa(lp1854
I234378
aF121.38
aF239.42
aVp2
p1855
aS'dejavusans'
p1856
aS'#000000'
p1857
aF10.0
aI1
aI01
aI00
aI00
aI00
aI00
aI00
aI00
aI00
aa(lp1858
I44279
aF319.1
aF239.42
aVp2
p1859
aS'dejavusans'
p1860
aS'#000000'
p1861
aF10.0
aI1
aI01
aI00
aI00
aI00
aI00
aI00
aI00
aI00
aa(lp1862
I234378
aF342.18
aF239.42
aVp2
p1863
aS'dejavusans'
p1864
aS'#000000'
p1865
aF10.0
aI1
aI00
aI00
aI01
aI01
aI00
aI00
aI00
aI00
aa(lp1866
I234378
aF347.5475
aF239.42
ag1863
aS'dejavusans'
p1867
aS'#000000'
p1868
aF10.0
aI1
aI00
aI00
aI00
aI00
aI00
aI00
aI00
aI00
aa(lp1869
I234378
aF352.915
aF239.42
ag1863
aS'dejavusans'
p1870
aS'#000000'
p1871
aF10.0
aI1
aI00
aI00
aI01
aI01
aI00
aI00
aI00
aI00
aa(lp1872
I234378
aF358.2825
aF239.42
ag1863
aS'dejavusans'
p1873
aS'#000000'
p1874
aF10.0
aI1
aI00
aI00
aI00
aI00
aI00
aI00
aI00
aI00
aa(lp1875
I234378
aF367.14
aF239.42
aVp2
p1876
aS'dejavusans'
p1877
aS'#000000'
p1878
aF10.0
aI1
aI01
aI00
aI00
aI00
aI00
aI00
aI00
aI00
aa(lp1879
I234378
aF89.1
aF263.22
aVp2
p1880
aS'dejavusans'
p1881
aS'#000000'
p1882
aF10.0
aI1
aI01
aI00
aI00
aI00
aI00
aI00
aI00
aI00
aa(lp1883
I234378
aF143.67
aF263.22
aVp2
p1884
aS'dejavusans'
p1885
aS'#000000'
p1886
aF10.0
aI1
aI00
aI00
aI00
aI00
aI00
aI00
aI00
aI00
aa(lp1887
I234378
aF319.1
aF263.22
aVp2
p1888
aS'dejavusans'
p1889
aS'#000000'
p1890
aF10.0
aI1
aI01
aI01
aI00
aI00
aI00
aI00
aI00
aI00
aa(lp1891
I218862
aF356.77
aF263.22
aVp2
p1892
aS'dejavusans'
p1893
aS'#000000'
p1894
aF10.0
aI1
aI01
aI00
aI00
aI00
aI00
aI00
aI00
aI00
aa(lp1895
I234378
aF388.24
aF263.22
aVp2
p1896
aS'dejavusans'
p1897
aS'#000000'
p1898
aF10.0
aI1
aI00
aI00
aI00
aI00
aI00
aI00
aI00
aI00
aa(lp1899
I234378
aF436.52500000000003
aF263.22
ag1896
aS'dejavusans'
p1900
aS'#000000'
p1901
aF10.0
aI1
aI00
aI00
aI00
aI00
aI00
aI00
aI00
aI00
aa(lp1902
I21716
aF445.29
aF263.22
aVp2
p1903
aS'dejavusans'
p1904
aS'#000000'
p1905
aF10.0
aI1
aI01
aI00
aI00
aI00
aI00
aI00
aI00
aI00
aa(lp1906
I115862
aF472.57
aF263.22
aVp2
p1907
aS'dejavusans'
p1908
aS'#000000'
p1909
aF10.0
aI1
aI00
aI00
aI00
aI00
aI00
aI00
aI00
aI00
aa(lp1910
I234378
aF89.1
aF287.02
aVp2
p1911
aS'dejavusans'
p1912
aS'#000000'
p1913
aF10.0
aI1
aI01
aI00
aI00
aI00
aI00
aI00
aI00
aI00
aa(lp1914
I233063
aF319.1
aF287.02
aVp2
p1915
aS'dejavusans'
p1916
aS'#000000'
p1917
aF10.0
aI1
aI01
aI01
aI00
aI00
aI00
aI00
aI00
aI00
aa(lp1918
I234378
aF324.64500000000004
aF287.02
ag1915
aS'dejavusans'
p1919
aS'#000000'
p1920
aF10.0
aI1
aI00
aI00
aI00
aI00
aI00
aI00
aI00
aI00
aa(lp1921
I233063
aF333.68
aF287.02
aVp2
p1922
aS'dejavusans'
p1923
aS'#000000'
p1924
aF10.0
aI1
aI01
aI01
aI00
aI00
aI00
aI00
aI00
aI00
aa(lp1925
I234378
aF342.6475
aF287.02
ag1922
aS'dejavusans'
p1926
aS'#000000'
p1927
aF10.0
aI1
aI00
aI00
aI00
aI00
aI00
aI00
aI00
aI00
aa(lp1928
I21716
aF365.04
aF287.02
aVp2
p1929
aS'dejavusans'
p1930
aS'#000000'
p1931
aF10.0
aI1
aI01
aI00
aI00
aI00
aI00
aI00
aI00
aI00
aa(lp1932
I234378
aF386.952
aF287.02
ag1929
aS'dejavusans'
p1933
aS'#000000'
p1934
aF10.0
aI1
aI00
aI00
aI00
aI00
aI00
aI00
aI00
aI00
aa(lp1935
I234378
aF396.02
aF287.02
aVp2
p1936
aS'dejavusans'
p1937
aS'#000000'
p1938
aF10.0
aI1
aI01
aI01
aI00
aI00
aI00
aI00
aI00
aI00
aa(lp1939
I234378
aF89.1
aF310.82
aVp2
p1940
aS'dejavusans'
p1941
aS'#000000'
p1942
aF10.0
aI1
aI01
aI00
aI00
aI00
aI00
aI00
aI00
aI00
aa(lp1943
I234378
aF319.1
aF310.82
aVp2
p1944
aS'dejavusans'
p1945
aS'#000000'
p1946
aF10.0
aI1
aI01
aI00
aI00
aI00
aI00
aI00
aI00
aI00
aa(lp1947
I234378
aF368.0422222222222
aF310.82
ag1944
aS'dejavusans'
p1948
aS'#000000'
p1949
aF10.0
aI1
aI00
aI00
aI00
aI00
aI00
aI00
aI00
aI00
aa(lp1950
I77592
aF377.75
aF310.82
aVp2
p1951
aS'dejavusans'
p1952
aS'#000000'
p1953
aF10.0
aI1
aI01
aI00
aI00
aI00
aI00
aI00
aI00
aI00
aa(lp1954
I234378
aF417.0453846153846
aF310.82
ag1951
aS'dejavusans'
p1955
aS'#000000'
p1956
aF10.0
aI1
aI00
aI00
aI00
aI00
aI00
aI00
aI00
aI00
aa(lp1957
I110786
aF423.59461538461534
aF310.82
ag1951
aS'dejavusans'
p1958
aS'#000000'
p1959
aF10.0
aI1
aI01
aI00
aI00
aI00
aI00
aI00
aI00
aI00
aa(lp1960
I234378
aF89.1
aF334.62
aVp2
p1961
aS'dejavusans'
p1962
aS'#000000'
p1963
aF10.0
aI1
aI01
aI01
aI00
aI00
aI00
aI00
aI00
aI00
aa(lp1964
I234378
aF319.1
aF334.62
aVp2
p1965
aS'dejavusans'
p1966
aS'#000000'
p1967
aF10.0
aI1
aI01
aI00
aI00
aI00
aI00
aI00
aI00
aI00
aa(lp1968
I234378
aF349.7416666666667
aF334.62
ag1965
aS'dejavusans'
p1969
aS'#000000'
p1970
aF10.0
aI1
aI00
aI00
aI00
aI00
aI00
aI00
aI00
aI00
aa(lp1971
I234378
aF359.36
aF334.62
aVp2
p1972
aS'dejavusans'
p1973
aS'#000000'
p1974
aF10.0
aI1
aI01
aI00
aI00
aI00
aI00
aI00
aI00
aI00
aa(lp1975
I96642
aF380.54
aF334.62
aVp2
p1976
aS'dejavusans'
p1977
aS'#000000'
p1978
aF10.0
aI1
aI01
aI00
aI00
aI00
aI00
aI00
aI00
aI00
aa(lp1979
I234378
aF414.28571428571433
aF334.62
ag1976
aS'dejavusans'
p1980
aS'#000000'
p1981
aF10.0
aI1
aI00
aI00
aI00
aI00
aI00
aI00
aI00
aI00
aa(lp1982
I45445
aF423.5
aF334.62
aVp2
p1983
aS'dejavusans'
p1984
aS'#000000'
p1985
aF10.0
aI1
aI01
aI00
aI00
aI00
aI00
aI00
aI00
aI00
aa(lp1986
I82213
aF89.1
aF358.42
aVp2
p1987
aS'dejavusans'
p1988
aS'#000000'
p1989
aF10.0
aI1
aI01
aI00
aI00
aI00
aI00
aI00
aI00
aI00
aa(lp1990
I234378
aF149.15
aF358.42
aVp2
p1991
aS'dejavusans'
p1992
aS'#000000'
p1993
aF10.0
aI1
aI01
aI00
aI00
aI00
aI00
aI00
aI00
aI00
aa(lp1994
I234378
aF319.1
aF358.42
aVp2
p1995
aS'dejavusans'
p1996
aS'#000000'
p1997
aF10.0
aI1
aI01
aI00
aI00
aI00
aI00
aI00
aI00
aI00
aa(lp1998
I234378
aF366.84000000000003
aF358.42
ag1995
aS'dejavusans'
p1999
aS'#000000'
p2000
aF10.0
aI1
aI00
aI00
aI00
aI00
aI00
aI00
aI00
aI00
aa(lp2001
I234378
aF377.15
aF358.42
aVp2
p2002
aS'dejavusans'
p2003
aS'#000000'
p2004
aF10.0
aI1
aI01
aI01
aI01
aI00
aI00
aI00
aI00
aI00
aa(lp2005
I234378
aF410.45
aF358.42
ag2002
aS'dejavusans'
p2006
aS'#000000'
p2007
aF10.0
aI1
aI00
aI00
aI00
aI00
aI00
aI00
aI00
aI00
aa(lp2008
I234378
aF420.6
aF358.42
aVp2
p2009
aS'dejavusans'
p2010
aS'#000000'
p2011
aF10.0
aI1
aI01
aI01
aI01
aI00
aI00
aI00
aI00
aI00
aa(lp2012
I234378
aF453.90000000000003
aF358.42
ag2009
aS'dejavusans'
p2013
aS'#000000'
p2014
aF10.0
aI1
aI00
aI00
aI00
aI00
aI00
aI00
aI00
aI00
aa(lp2015
I234378
aF464.05
aF358.42
aVp2
p2016
aS'dejavusans'
p2017
aS'#000000'
p2018
aF10.0
aI1
aI01
aI00
aI00
aI00
aI00
aI00
aI00
aI00
aa(lp2019
I81573
aF89.1
aF382.22
aVp2
p2020
aS'dejavusans'
p2021
aS'#000000'
p2022
aF10.0
aI1
aI01
aI00
aI00
aI00
aI00
aI00
aI00
aI00
aa(lp2023
I141687
aF156.25
aF382.22
aVp2
p2024
aS'dejavusans'
p2025
aS'#000000'
p2026
aF10.0
aI1
aI01
aI00
aI00
aI00
aI00
aI00
aI00
aI00
aa(lp2027
I234378
aF223.09
aF382.22
aVp2
p2028
aS'dejavusans'
p2029
aS'#000000'
p2030
aF10.0
aI1
aI00
aI00
aI00
aI00
aI00
aI00
aI00
aI00
aa(lp2031
I234378
aF319.1
aF382.22
aVp2
p2032
aS'dejavusans'
p2033
aS'#000000'
p2034
aF10.0
aI1
aI01
aI00
aI00
aI00
aI00
aI00
aI00
aI00
aa(lp2035
I234378
aF358.00250000000005
aF382.22
ag2032
aS'dejavusans'
p2036
aS'#000000'
p2037
aF10.0
aI1
aI00
aI00
aI00
aI00
aI00
aI00
aI00
aI00
aa(lp2038
I234378
aF367.05
aF382.22
aVp2
p2039
aS'dejavusans'
p2040
aS'#000000'
p2041
aF10.0
aI1
aI01
aI00
aI00
aI00
aI00
aI00
aI00
aI00
aa(lp2042
I184842
aF89.1
aF406.02
aVp2
p2043
aS'dejavusans'
p2044
aS'#000000'
p2045
aF10.0
aI1
aI01
aI00
aI00
aI00
aI00
aI00
aI00
aI00
aa(lp2046
I234378
aF128.98
aF406.02
aVp2
p2047
aS'dejavusans'
p2048
aS'#000000'
p2049
aF10.0
aI1
aI01
aI00
aI00
aI00
aI00
aI00
aI00
aI00
aa(lp2050
I234378
aF319.1
aF406.02
aVp2
p2051
aS'dejavusans'
p2052
aS'#000000'
p2053
aF10.0
aI1
aI01
aI00
aI00
aI00
aI00
aI00
aI00
aI00
aa(lp2054
I216798
aF375.66
aF406.02
aVp2
p2055
aS'dejavusans'
p2056
aS'#000000'
p2057
aF10.0
aI1
aI01
aI00
aI00
aI00
aI00
aI00
aI00
aI00
aa(lp2058
I234378
aF407.71000000000004
aF406.02
ag2055
aS'dejavusans'
p2059
aS'#000000'
p2060
aF10.0
aI1
aI00
aI00
aI00
aI00
aI00
aI00
aI00
aI00
aa(lp2061
I234378
aF417.7
aF406.02
aVp2
p2062
aS'dejavusans'
p2063
aS'#000000'
p2064
aF10.0
aI1
aI00
aI00
aI00
aI00
aI00
aI00
aI00
aI00
aa(lp2065
I177958
aF72.1
aF456.52
aVp2
p2066
aS'dejavusans'
p2067
aS'#001f5f'
p2068
aF10.0
aI1
aI01
aI00
aI00
aI00
aI00
aI00
aI00
aI00
aa(lp2069
I60220
aF115.66
aF456.52
aVp2
p2070
aS'dejavusans'
p2071
aS'#001f5f'
p2072
aF10.0
aI1
aI01
aI00
aI00
aI00
aI00
aI00
aI00
aI00
aa(lp2073
I234378
aF175.69636363636363
aF456.52
ag2070
aS'dejavusans'
p2074
aS'#001f5f'
p2075
aF10.0
aI1
aI00
aI00
aI00
aI00
aI00
aI00
aI00
aI00
aa(lp2076
I177958
aF72.1
aF471.22
aVp2
p2077
aS'dejavusans'
p2078
aS'#000000'
p2079
aF10.0
aI1
aI01
aI00
aI00
aI00
aI00
aI00
aI00
aI00
aa(lp2080
I158577
aF115.66
aF471.22
aVp2
p2081
aS'dejavusans'
p2082
aS'#000000'
p2083
aF10.0
aI1
aI01
aI00
aI00
aI00
aI00
aI00
aI00
aI00
aa(lp2084
I234378
aF216.1
aF471.22
aVp2
p2085
aS'dejavusans'
p2086
aS'#000000'
p2087
aF10.0
aI0
aI00
aI00
aI00
aI00
aI00
aI00
aI00
aI00
aa(lp2088
I234378
aF222.68
aF471.22
aVp2
p2089
aS'dejavusans'
p2090
aS'#000000'
p2091
aF10.0
aI0
aI01
aI01
aI00
aI00
aI00
aI00
aI00
aI00
aa(lp2092
I148996
aF253.65
aF471.22
aVp2
p2093
aS'dejavusans'
p2094
aS'#000000'
p2095
aF10.0
aI0
aI01
aI00
aI00
aI00
aI00
aI00
aI00
aI00
aa(lp2096
I234378
aF289.03
aF471.22
aVp2
p2097
aS'dejavusans'
p2098
aS'#000000'
p2099
aF10.0
aI0
aI00
aI00
aI01
aI00
aI00
aI00
aI00
aI00
aa(lp2100
I134213
aF327.42
aF471.22
aVp2
p2101
aS'dejavusans'
p2102
aS'#000000'
p2103
aF10.0
aI0
aI01
aI00
aI00
aI00
aI00
aI00
aI00
aI00
aa(lp2104
I25931
aF72.1
aF487.52
aVp2
p2105
aS'dejavusans'
p2106
aS'#000000'
p2107
aF10.0
aI1
aI01
aI00
aI00
aI00
aI00
aI00
aI00
aI00
aa(lp2108
I234378
aF216.1
aF487.52
aVp2
p2109
aS'dejavusans'
p2110
aS'#000000'
p2111
aF10.0
aI0
aI00
aI00
aI00
aI00
aI00
aI00
aI00
aI00
aa(lp2112
I86063
aF222.68
aF487.52
aVp2
p2113
aS'dejavusans'
p2114
aS'#000000'
p2115
aF10.0
aI0
aI01
aI00
aI00
aI00
aI00
aI00
aI00
aI00
aa(lp2116
I33871
aF258.64
aF487.52
aVp2
p2117
aS'dejavusans'
p2118
aS'#000000'
p2119
aF10.0
aI0
aI00
aI00
aI00
aI00
aI00
aI00
aI00
aI00
aa(lp2120
I234378
aF283.41
aF487.52
aVp2
p2121
aS'dejavusans'
p2122
aS'#000000'
p2123
aF10.0
aI0
aI00
aI00
aI00
aI00
aI00
aI00
aI00
aI00
aa(lp2124
I69205
aF327.57
aF487.52
aVp2
p2125
aS'dejavusans'
p2126
aS'#000000'
p2127
aF10.0
aI0
aI00
aI00
aI00
aI00
aI00
aI00
aI00
aI00
aa(lp2128
I120031
aF72.1
aF503.92
aVp2
p2129
aS'dejavusans'
p2130
aS'#000000'
p2131
aF10.0
aI1
aI01
aI00
aI00
aI00
aI00
aI00
aI00
aI00
aa(lp2132
I234378
aF216.1
aF503.92
aVp2
p2133
aS'dejavusans'
p2134
aS'#000000'
p2135
aF10.0
aI0
aI00
aI00
aI00
aI00
aI00
aI00
aI00
aI00
aa(lp2136
I143552
aF222.68
aF503.92
aVp2
p2137
aS'dejavusans'
p2138
aS'#000000'
p2139
aF10.0
aI0
aI00
aI00
aI00
aI00
aI00
aI00
aI00
aI01
aa(lp2140
I234378
aF247.45
aF503.92
aVp2
p2141
aS'dejavusans'
p2142
aS'#000000'
p2143
aF10.0
aI0
aI00
aI00
aI01
aI01
aI01
aI00
aI00
aI00
aa(lp2144
I89480
aF276.02
aF503.92
aVp2
p2145
aS'dejavusans'
p2146
aS'#000000'
p2147
aF10.0
aI0
aI00
aI00
aI00
aI00
aI00
aI00
aI00
aI00
aa(lp2148
I36403
aF289.21
aF503.92
aVp2
p2149
aS'dejavusans'
p2150
aS'#000000'
p2151
aF10.0
aI0
aI00
aI00
aI00
aI00
aI00
aI00
aI00
aI00
aa(lp2152
I132955
aF304.58
aF503.92
aVp2
p2153
aS'dejavusans'
p2154
aS'#000000'
p2155
aF10.0
aI0
aI00
aI00
aI00
aI00
aI00
aI00
aI00
aI00
aa(lp2156
I176435
aF72.1
aF520.22
aVp2
p2157
aS'dejavusans'
p2158
aS'#000000'
p2159
aF10.0
aI1
aI01
aI00
aI00
aI00
aI00
aI00
aI00
aI00
aa(lp2160
I234378
aF216.1
aF520.22
aVp2
p2161
aS'dejavusans'
p2162
aS'#000000'
p2163
aF10.0
aI0
aI00
aI00
aI00
aI00
aI00
aI00
aI00
aI00
aa(lp2164
I234378
aF222.68
aF520.22
aVp2
p2165
aS'dejavusans'
p2166
aS'#000000'
p2167
aF10.0
aI0
aI01
aI00
aI00
aI00
aI00
aI00
aI00
aI00
aa(lp2168
I85218
aF264.95
aF520.22
aVp2
p2169
aS'dejavusans'
p2170
aS'#000000'
p2171
aF10.0
aI0
aI00
aI00
aI00
aI00
aI00
aI00
aI00
aI00
aa(lp2172
I53211
aF286.94
aF520.22
aVp2
p2173
aS'dejavusans'
p2174
aS'#000000'
p2175
aF10.0
aI0
aI01
aI00
aI00
aI00
aI00
aI00
aI00
aI00
aa(lp2176
I44160
aF326.18
aF520.22
aVp2
p2177
aS'dejavusans'
p2178
aS'#000000'
p2179
aF10.0
aI0
aI01
aI00
aI00
aI00
aI00
aI00
aI00
aI00
aa(lp2180
I132100
aF368.33
aF520.22
aVp2
p2181
aS'dejavusans'
p2182
aS'#000000'
p2183
aF10.0
aI0
aI01
aI00
aI00
aI00
aI00
aI00
aI00
aI00
aa(lp2184
I234378
aF72.1
aF536.62
aVp2
p2185
aS'dejavusans'
p2186
aS'#000000'
p2187
aF10.0
aI1
aI01
aI00
aI00
aI00
aI00
aI00
aI00
aI00
aa(lp2188
I25729
aF148.43
aF536.62
aVp2
p2189
aS'dejavusans'
p2190
aS'#000000'
p2191
aF10.0
aI1
aI00
aI00
aI00
aI00
aI00
aI00
aI00
aI00
aa(lp2192
I234378
aF216.1
aF536.62
aVp2
p2193
aS'dejavusans'
p2194
aS'#000000'
p2195
aF10.0
aI0
aI00
aI00
aI00
aI00
aI00
aI00
aI00
aI00
aa(lp2196
I80664
aF222.68
aF536.62
aVp2
p2197
aS'dejavusans'
p2198
aS'#000000'
p2199
aF10.0
aI0
aI01
aI00
aI00
aI00
aI00
aI00
aI00
aI00
aa(lp2200
I234378
aF243.52
aF536.62
ag2197
aS'dejavusans'
p2201
aS'#000000'
p2202
aF10.0
aI0
aI00
aI00
aI00
aI00
aI00
aI00
aI00
aI00
aa(lp2203
I234378
aF251.94
aF536.62
aVp2
p2204
aS'dejavusans'
p2205
aS'#000000'
p2206
aF10.0
aI0
aI01
aI00
aI00
aI00
aI00
aI00
aI00
aI00
aa(lp2207
I234378
aF285.74125
aF536.62
ag2204
aS'dejavusans'
p2208
aS'#000000'
p2209
aF10.0
aI0
aI00
aI00
aI00
aI00
aI00
aI00
aI00
aI00
aa(lp2210
I216500
aF293.78
aF536.62
aVp2
p2211
aS'dejavusans'
p2212
aS'#000000'
p2213
aF10.0
aI0
aI01
aI01
aI00
aI00
aI00
aI00
aI00
aI00
aa(lp2214
I234378
aF308.75
aF536.62
ag2211
aS'dejavusans'
p2215
aS'#000000'
p2216
aF10.0
aI0
aI00
aI00
aI00
aI00
aI00
aI00
aI00
aI00
aa(lp2217
I234378
aF316.95
aF536.62
aVp2
p2218
aS'dejavusans'
p2219
aS'#000000'
p2220
aF10.0
aI0
aI01
aI00
aI00
aI00
aI00
aI00
aI00
aI00
aa(lp2221
I234378
aF347.16666666666663
aF536.62
ag2218
aS'dejavusans'
p2222
aS'#000000'
p2223
aF10.0
aI0
aI00
aI00
aI00
aI00
aI00
aI00
aI00
aI00
aa(lp2224
I218862
aF356.42
aF536.62
aVp2
p2225
aS'dejavusans'
p2226
aS'#000000'
p2227
aF10.0
aI0
aI01
aI00
aI00
aI00
aI00
aI00
aI00
aI00
aa(lp2228
I115862
aF383.98
aF536.62
aVp2
p2229
aS'dejavusans'
p2230
aS'#000000'
p2231
aF10.0
aI0
aI00
aI00
aI00
aI00
aI00
aI00
aI00
aI00
aa(lp2232
I234378
aF410.42285714285714
aF536.62
ag2229
aS'dejavusans'
p2233
aS'#000000'
p2234
aF10.0
aI0
aI00
aI00
aI00
aI00
aI00
aI00
aI00
aI00
aa(lp2235
I234378
aF418.14
aF536.62
aVp2
p2236
aS'dejavusans'
p2237
aS'#000000'
p2238
aF10.0
aI0
aI01
aI00
aI00
aI00
aI00
aI00
aI00
aI00
aa(lp2239
I12878
aF448.21
aF536.62
aVp2
p2240
aS'dejavusans'
p2241
aS'#000000'
p2242
aF10.0
aI0
aI00
aI00
aI00
aI00
aI00
aI00
aI00
aI00
aa(lp2243
I234378
aF509.2966666666666
aF536.62
ag2240
aS'dejavusans'
p2244
aS'#000000'
p2245
aF10.0
aI0
aI00
aI00
aI00
aI00
aI00
aI00
aI00
aI00
aa(lp2246
I110786
aF223.1
aF552.92
aVp2
p2247
aS'dejavusans'
p2248
aS'#000000'
p2249
aF10.0
aI0
aI01
aI00
aI00
aI00
aI00
aI00
aI00
aI00
aa(lp2250
I234378
aF72.1
aF569.32
aVp2
p2251
aS'dejavusans'
p2252
aS'#000000'
p2253
aF10.0
aI1
aI01
aI00
aI00
aI00
aI00
aI00
aI00
aI00
aa(lp2254
I234378
aF159.8270588235294
aF569.32
ag2251
aS'dejavusans'
p2255
aS'#000000'
p2256
aF10.0
aI1
aI00
aI00
aI00
aI00
aI00
aI00
aI00
aI00
aa(lp2257
I90127
aF108.1
aF599.72
aVp2
p2258
aS'dejavusans'
p2259
aS'#000000'
p2260
aF10.0
aI0
aI01
aI00
aI00
aI00
aI00
aI00
aI00
aI00
aa(lp2261
I190806
aF177.84
aF599.72
aVp2
p2262
aS'dejavusans'
p2263
aS'#000000'
p2264
aF10.0
aI0
aI00
aI00
aI00
aI00
aI00
aI00
aI00
aI00
aa(lp2265
I234378
aF201.32
aF599.72
aVp2
p2266
aS'dejavusans'
p2267
aS'#000000'
p2268
aF10.0
aI0
aI01
aI00
aI00
aI00
aI00
aI00
aI00
aI00
aa(lp2269
I90895
aF255.18
aF599.72
aVp2
p2270
aS'dejavusans'
p2271
aS'#000000'
p2272
aF10.0
aI0
aI01
aI00
aI00
aI00
aI00
aI00
aI00
aI00
aa(lp2273
I153177
aF332.82
aF599.72
aVp2
p2274
aS'dejavusans'
p2275
aS'#000000'
p2276
aF10.0
aI0
aI01
aI00
aI00
aI00
aI00
aI00
aI00
aI00
aa(lp2277
I234378
aF395.41090909090906
aF599.72
ag2274
aS'dejavusans'
p2278
aS'#000000'
p2279
aF10.0
aI0
aI00
aI00
aI00
aI00
aI00
aI00
aI00
aI00
aa(lp2280
I234378
aF411.68
aF599.72
aVp2
p2281
aS'dejavusans'
p2282
aS'#000000'
p2283
aF10.0
aI0
aI01
aI00
aI00
aI00
aI00
aI00
aI00
aI00
aa(lp2284
I234378
aF466.93
aF599.72
aVp2
p2285
aS'dejavusans'
p2286
aS'#000000'
p2287
aF10.0
aI0
aI01
aI00
aI00
aI00
aI00
aI00
aI00
aI00
aa(lp2288
I85218
aF520.79
aF599.72
aVp2
p2289
aS'dejavusans'
p2290
aS'#000000'
p2291
aF10.0
aI0
aI00
aI00
aI00
aI00
aI00
aI00
aI00
aI00
aa(lp2292
I234378
aF108.1
aF616.32
aVp2
p2293
aS'dejavusans'
p2294
aS'#000000'
p2295
aF10.0
aI0
aI00
aI00
aI00
aI00
aI00
aI00
aI00
aI00
aa(lp2296
I194354
aF170.84
aF616.32
aVp2
p2297
aS'dejavusans'
p2298
aS'#000000'
p2299
aF10.0
aI0
aI00
aI00
aI00
aI00
aI00
aI00
aI00
aI00
aa(lp2300
I53211
aF190.42
aF616.32
aVp2
p2301
aS'dejavusans'
p2302
aS'#000000'
p2303
aF10.0
aI0
aI01
aI00
aI00
aI00
aI00
aI00
aI00
aI00
aa(lp2304
I12878
aF218.68
aF616.32
aVp2
p2305
aS'dejavusans'
p2306
aS'#000000'
p2307
aF10.0
aI0
aI01
aI00
aI00
aI00
aI00
aI00
aI00
aI00
aa(lp2308
I234378
aF285.63
aF616.32
aVp2
p2309
aS'dejavusans'
p2310
aS'#000000'
p2311
aF10.0
aI0
aI00
aI00
aI00
aI00
aI00
aI00
aI00
aI00
aa(lp2312
I80664
aF315.8
aF616.32
aVp2
p2313
aS'dejavusans'
p2314
aS'#000000'
p2315
aF10.0
aI0
aI01
aI00
aI00
aI00
aI00
aI00
aI00
aI00
aa(lp2316
I234378
aF108.1
aF631.72
aVp2
p2317
aS'dejavusans'
p2318
aS'#000000'
p2319
aF10.0
aI0
aI01
aI00
aI00
aI00
aI00
aI00
aI00
aI00
aa(lp2320
I234378
aF165.33
aF631.72
aVp2
p2321
aS'dejavusans'
p2322
aS'#000000'
p2323
aF10.0
aI0
aI00
aI00
aI00
aI00
aI00
aI00
aI00
aI00
aa(lp2324
I53211
aF222.57
aF631.72
aVp2
p2325
aS'dejavusans'
p2326
aS'#000000'
p2327
aF10.0
aI0
aI00
aI00
aI00
aI00
aI00
aI00
aI00
aI00
aa(lp2328
I44160
aF250.24
aF631.72
aVp2
p2329
aS'dejavusans'
p2330
aS'#000000'
p2331
aF10.0
aI0
aI00
aI00
aI00
aI00
aI00
aI00
aI00
aI00
aa(lp2332
I230071
aF289.89
aF631.72
aVp2
p2333
aS'dejavusans'
p2334
aS'#000000'
p2335
aF10.0
aI0
aI00
aI00
aI00
aI00
aI00
aI00
aI00
aI00
aa(lp2336
I234378
aF310.40999999999997
aF631.72
ag2333
aS'dejavusans'
p2337
aS'#000000'
p2338
aF10.0
aI0
aI00
aI00
aI00
aI00
aI00
aI00
aI00
aI00
aa(lp2339
I234378
aF318.75
aF631.72
aVp2
p2340
aS'dejavusans'
p2341
aS'#000000'
p2342
aF10.0
aI0
aI01
aI00
aI00
aI00
aI00
aI00
aI00
aI00
aa(lp2343
I234378
aF362.71
aF631.72
aVp2
p2344
aS'dejavusans'
p2345
aS'#000000'
p2346
aF10.0
aI0
aI00
aI00
aI00
aI00
aI00
aI00
aI00
aI00
aa(lp2347
I234378
aF108.1
aF647.72
aVp2
p2348
aS'dejavusans'
p2349
aS'#000000'
p2350
aF10.0
aI0
aI01
aI00
aI00
aI00
aI00
aI00
aI00
aI00
aa(lp2351
I234378
aF182.43
aF647.72
aVp2
p2352
aS'dejavusans'
p2353
aS'#000000'
p2354
aF10.0
aI0
aI01
aI00
aI00
aI00
aI00
aI00
aI00
aI00
aa(lp2355
I234378
aF223.5
aF647.72
aVp2
p2356
aS'dejavusans'
p2357
aS'#000000'
p2358
aF10.0
aI0
aI00
aI00
aI00
aI00
aI00
aI00
aI00
aI00
aa(lp2359
I185339
aF290.24
aF647.72
aVp2
p2360
aS'dejavusans'
p2361
aS'#000000'
p2362
aF10.0
aI0
aI00
aI00
aI00
aI00
aI00
aI00
aI00
aI00
aa(lp2363
I146875
aF331.51
aF647.72
aVp2
p2364
aS'dejavusans'
p2365
aS'#000000'
p2366
aF10.0
aI0
aI00
aI00
aI00
aI00
aI00
aI00
aI00
aI00
aa(lp2367
I85218
aF359.58
aF647.72
aVp2
p2368
aS'dejavusans'
p2369
aS'#000000'
p2370
aF10.0
aI0
aI00
aI00
aI00
aI00
aI00
aI00
aI00
aI00
aa(lp2371
I137949
aF386.36
aF647.72
aVp2
p2372
aS'dejavusans'
p2373
aS'#000000'
p2374
aF10.0
aI0
aI00
aI00
aI00
aI00
aI00
aI00
aI00
aI00
aa(lp2375
I39311
aF416.23
aF647.72
aVp2
p2376
aS'dejavusans'
p2377
aS'#000000'
p2378
aF10.0
aI0
aI00
aI00
aI00
aI00
aI00
aI00
aI00
aI00
aa(lp2379
I113320
aF463.99
aF647.72
aVp2
p2380
aS'dejavusans'
p2381
aS'#000000'
p2382
aF10.0
aI0
aI00
aI00
aI00
aI00
aI00
aI00
aI00
aI00
aa(lp2383
I234378
aF534.578
aF647.72
ag2380
aS'dejavusans'
p2384
aS'#000000'
p2385
aF10.0
aI0
aI00
aI00
aI00
aI00
aI00
aI00
aI00
aI00
aa(lp2386
I38676
aF108.1
aF664.32
aVp2
p2387
aS'dejavusans'
p2388
aS'#000000'
p2389
aF10.0
aI0
aI00
aI00
aI00
aI00
aI00
aI00
aI00
aI00
aa(lp2390
I234378
aF156.025
aF664.32
ag2387
aS'dejavusans'
p2391
aS'#000000'
p2392
aF10.0
aI0
aI00
aI00
aI00
aI00
aI00
aI00
aI00
aI00
aa(lp2393
I234378
aF164.66
aF664.32
aVp2
p2394
aS'dejavusans'
p2395
aS'#000000'
p2396
aF10.0
aI0
aI00
aI00
aI00
aI00
aI00
aI00
aI00
aI00
aa(lp2397
I234378
aF203.72875
aF664.32
ag2394
aS'dejavusans'
p2398
aS'#000000'
p2399
aF10.0
aI0
aI00
aI00
aI00
aI00
aI00
aI00
aI00
aI00
aa(lp2400
I534
aF212.62
aF664.32
aVp2
p2401
aS'dejavusans'
p2402
aS'#000000'
p2403
aF10.0
aI0
aI00
aI00
aI00
aI00
aI00
aI00
aI00
aI00
aa(lp2404
I234378
aF243.99
aF664.32
aVp2
p2405
aS'dejavusans'
p2406
aS'#000000'
p2407
aF10.0
aI0
aI00
aI00
aI00
aI00
aI00
aI00
aI00
aI00
aa(lp2408
I234378
aF265.9483333333333
aF664.32
ag2405
aS'dejavusans'
p2409
aS'#000000'
p2410
aF10.0
aI0
aI00
aI00
aI00
aI00
aI00
aI00
aI00
aI00
aa(lp2411
I234378
aF273.56
aF664.32
aVp2
p2412
aS'dejavusans'
p2413
aS'#000000'
p2414
aF10.0
aI0
aI00
aI00
aI00
aI00
aI00
aI00
aI00
aI00
aa(lp2415
I234378
aF322.034
aF664.32
ag2412
aS'dejavusans'
p2416
aS'#000000'
p2417
aF10.0
aI0
aI00
aI00
aI00
aI00
aI00
aI00
aI00
aI00
aa(lp2418
I85218
aF330.73
aF664.32
aVp2
p2419
aS'dejavusans'
p2420
aS'#000000'
p2421
aF10.0
aI0
aI00
aI00
aI00
aI00
aI00
aI00
aI00
aI00
aa(lp2422
I103666
aF352.71
aF664.32
aVp2
p2423
aS'dejavusans'
p2424
aS'#000000'
p2425
aF10.0
aI0
aI00
aI00
aI00
aI00
aI00
aI00
aI00
aI00
aa(lp2426
I234378
aF394.57
aF664.32
aVp2
p2427
aS'dejavusans'
p2428
aS'#000000'
p2429
aF10.0
aI0
aI00
aI00
aI00
aI00
aI00
aI00
aI00
aI00
aa(lp2430
I144483
aF424.75
aF664.32
aVp2
p2431
aS'dejavusans'
p2432
aS'#000000'
p2433
aF10.0
aI0
aI00
aI00
aI00
aI00
aI00
aI00
aI00
aI00
aa(lp2434
I194354
aF440.34
aF664.32
aVp2
p2435
aS'dejavusans'
p2436
aS'#000000'
p2437
aF10.0
aI0
aI00
aI00
aI00
aI00
aI00
aI00
aI00
aI00
aa(lp2438
I234378
aF459.93
aF664.32
aVp2
p2439
aS'dejavusans'
p2440
aS'#000000'
p2441
aF10.0
aI0
aI00
aI00
aI00
aI00
aI00
aI00
aI00
aI00
aa(lp2442
I234378
aF498.8325
aF664.32
ag2439
aS'dejavusans'
p2443
aS'#000000'
p2444
aF10.0
aI0
aI00
aI00
aI00
aI00
aI00
aI00
aI00
aI00
aa(lp2445
I91899
aF108.1
aF679.72
aVp2
p2446
aS'dejavusans'
p2447
aS'#000000'
p2448
aF10.0
aI0
aI01
aI00
aI00
aI00
aI00
aI00
aI00
aI00
aa(lp2449
I53211
aF150.48
aF679.72
aVp2
p2450
aS'dejavusans'
p2451
aS'#000000'
p2452
aF10.0
aI0
aI01
aI00
aI00
aI00
aI00
aI00
aI00
aI00
aa(lp2453
I85218
aF178.74
aF679.72
aVp2
p2454
aS'dejavusans'
p2455
aS'#000000'
p2456
aF10.0
aI0
aI00
aI00
aI00
aI00
aI00
aI00
aI00
aI00
aa(lp2457
I44160
aF200.72
aF679.72
aVp2
p2458
aS'dejavusans'
p2459
aS'#000000'
p2460
aF10.0
aI0
aI00
aI00
aI00
aI00
aI00
aI00
aI00
aI00
aa(lp2461
I61195
aF240.27
aF679.72
aVp2
p2462
aS'dejavusans'
p2463
aS'#000000'
p2464
aF10.0
aI0
aI00
aI00
aI00
aI00
aI00
aI00
aI00
aI00
aa(lp2465
I184870
aF281.83
aF679.72
aVp2
p2466
aS'dejavusans'
p2467
aS'#000000'
p2468
aF10.0
aI0
aI00
aI00
aI00
aI00
aI00
aI00
aI00
aI00
aa(lp2469
I234378
aF324.29
aF679.72
aVp2
p2470
aS'dejavusans'
p2471
aS'#000000'
p2472
aF10.0
aI0
aI01
aI00
aI00
aI00
aI00
aI00
aI00
aI00
aa(lp2473
I234378
aF108.1
aF75.82
aVp3
p2474
aS'dejavusans'
p2475
aS'#000000'
p2476
aF10.0
aI0
aI01
aI00
aI00
aI00
aI00
aI00
aI00
aI00
aa(lp2477
I234378
aF150.04
aF75.82
aVp3
p2478
aS'dejavusans'
p2479
aS'#000000'
p2480
aF10.0
aI0
aI01
aI00
aI00
aI00
aI00
aI00
aI00
aI00
aa(lp2481
I234378
aF181.6
aF75.82
aVp3
p2482
aS'dejavusans'
p2483
aS'#000000'
p2484
aF10.0
aI0
aI01
aI00
aI00
aI00
aI00
aI00
aI00
aI00
aa(lp2485
I234378
aF218.17
aF75.82
aVp3
p2486
aS'dejavusans'
p2487
aS'#000000'
p2488
aF10.0
aI0
aI00
aI00
aI00
aI00
aI00
aI00
aI00
aI00
aa(lp2489
I144483
aF247.32
aF75.82
aVp3
p2490
aS'dejavusans'
p2491
aS'#000000'
p2492
aF10.0
aI0
aI00
aI00
aI00
aI00
aI00
aI00
aI00
aI00
aa(lp2493
I142554
aF264.4
aF75.82
aVp3
p2494
aS'dejavusans'
p2495
aS'#000000'
p2496
aF10.0
aI0
aI00
aI00
aI00
aI00
aI00
aI00
aI00
aI00
aa(lp2497
I234378
aF328.85
aF75.82
aVp3
p2498
aS'dejavusans'
p2499
aS'#000000'
p2500
aF10.0
aI0
aI00
aI00
aI00
aI00
aI00
aI00
aI00
aI00
aa(lp2501
I89480
aF370.31
aF75.82
aVp3
p2502
aS'dejavusans'
p2503
aS'#000000'
p2504
aF10.0
aI0
aI00
aI00
aI00
aI00
aI00
aI00
aI00
aI00
aa(lp2505
I106371
aF385.09
aF75.82
aVp3
p2506
aS'dejavusans'
p2507
aS'#000000'
p2508
aF10.0
aI0
aI00
aI00
aI00
aI00
aI00
aI00
aI00
aI00
aa(lp2509
I190794
aF417.17
aF75.82
aVp3
p2510
aS'dejavusans'
p2511
aS'#000000'
p2512
aF10.0
aI0
aI00
aI00
aI00
aI00
aI00
aI00
aI00
aI00
aa(lp2513
I194354
aF443.35
aF75.82
aVp3
p2514
aS'dejavusans'
p2515
aS'#000000'
p2516
aF10.0
aI0
aI00
aI00
aI00
aI00
aI00
aI00
aI00
aI00
aa(lp2517
I234378
aF464.43
aF75.82
aVp3
p2518
aS'dejavusans'
p2519
aS'#000000'
p2520
aF10.0
aI0
aI00
aI00
aI00
aI00
aI00
aI00
aI00
aI00
aa(lp2521
I84932
aF505.99
aF75.82
aVp3
p2522
aS'dejavusans'
p2523
aS'#000000'
p2524
aF10.0
aI0
aI00
aI00
aI00
aI00
aI00
aI00
aI00
aI00
aa(lp2525
I15429
aF526.77
aF75.82
aVp3
p2526
aS'dejavusans'
p2527
aS'#000000'
p2528
aF10.0
aI0
aI00
aI00
aI00
aI00
aI00
aI00
aI00
aI00
aa(lp2529
I85218
aF108.1
aF92.42
aVp3
p2530
aS'dejavusans'
p2531
aS'#000000'
p2532
aF10.0
aI0
aI00
aI00
aI00
aI00
aI00
aI00
aI00
aI00
aa(lp2533
I111483
aF130.08
aF92.42
aVp3
p2534
aS'dejavusans'
p2535
aS'#000000'
p2536
aF10.0
aI0
aI00
aI00
aI00
aI00
aI00
aI00
aI00
aI00
aa(lp2537
I85218
aF171.84
aF92.42
aVp3
p2538
aS'dejavusans'
p2539
aS'#000000'
p2540
aF10.0
aI0
aI00
aI00
aI00
aI00
aI00
aI00
aI00
aI00
aa(lp2541
I137949
aF193.82
aF92.42
aVp3
p2542
aS'dejavusans'
p2543
aS'#000000'
p2544
aF10.0
aI0
aI00
aI00
aI00
aI00
aI00
aI00
aI00
aI00
aa(lp2545
I234378
aF213.78799999999998
aF92.42
ag2542
aS'dejavusans'
p2546
aS'#000000'
p2547
aF10.0
aI0
aI00
aI00
aI00
aI00
aI00
aI00
aI00
aI00
aa(lp2548
I183995
aF221.9
aF92.42
aVp3
p2549
aS'dejavusans'
p2550
aS'#000000'
p2551
aF10.0
aI0
aI00
aI00
aI00
aI00
aI00
aI00
aI00
aI00
aa(lp2552
I234378
aF254.17
aF92.42
aVp3
p2553
aS'dejavusans'
p2554
aS'#000000'
p2555
aF10.0
aI0
aI00
aI00
aI00
aI00
aI00
aI00
aI00
aI00
aa(lp2556
I234378
aF297.92454545454547
aF92.42
ag2553
aS'dejavusans'
p2557
aS'#000000'
p2558
aF10.0
aI0
aI00
aI00
aI00
aI00
aI00
aI00
aI00
aI00
aa(lp2559
I173426
aF108.1
aF107.82
aVp3
p2560
aS'dejavusans'
p2561
aS'#000000'
p2562
aF10.0
aI0
aI01
aI00
aI00
aI00
aI00
aI00
aI00
aI00
aa(lp2563
I85218
aF158.26
aF107.82
aVp3
p2564
aS'dejavusans'
p2565
aS'#000000'
p2566
aF10.0
aI0
aI00
aI00
aI00
aI00
aI00
aI00
aI00
aI00
aa(lp2567
I138765
aF180.24
aF107.82
aVp3
p2568
aS'dejavusans'
p2569
aS'#000000'
p2570
aF10.0
aI0
aI00
aI00
aI00
aI00
aI00
aI00
aI00
aI00
aa(lp2571
I115862
aF218.8
aF107.82
aVp3
p2572
aS'dejavusans'
p2573
aS'#000000'
p2574
aF10.0
aI0
aI00
aI00
aI00
aI00
aI00
aI00
aI00
aI00
aa(lp2575
I190806
aF249.77
aF107.82
aVp3
p2576
aS'dejavusans'
p2577
aS'#000000'
p2578
aF10.0
aI0
aI00
aI00
aI00
aI00
aI00
aI00
aI00
aI00
aa(lp2579
I174268
aF266.75
aF107.82
aVp3
p2580
aS'dejavusans'
p2581
aS'#000000'
p2582
aF10.0
aI0
aI00
aI00
aI00
aI00
aI00
aI00
aI00
aI00
aa(lp2583
I142554
aF306.43
aF107.82
aVp3
p2584
aS'dejavusans'
p2585
aS'#000000'
p2586
aF10.0
aI0
aI00
aI00
aI00
aI00
aI00
aI00
aI00
aI00
aa(lp2587
I10716
aF369.38
aF107.82
aVp3
p2588
aS'dejavusans'
p2589
aS'#000000'
p2590
aF10.0
aI0
aI00
aI00
aI00
aI00
aI00
aI00
aI00
aI00
aa(lp2591
I234378
aF389.64
aF107.82
aVp3
p2592
aS'dejavusans'
p2593
aS'#000000'
p2594
aF10.0
aI0
aI01
aI01
aI00
aI00
aI00
aI00
aI00
aI00
aa(lp2595
I234378
aF401.67333333333335
aF107.82
ag2592
aS'dejavusans'
p2596
aS'#000000'
p2597
aF10.0
aI0
aI00
aI00
aI00
aI00
aI00
aI00
aI00
aI00
aa(lp2598
I22476
aF410.81
aF107.82
aVp3
p2599
aS'dejavusans'
p2600
aS'#000000'
p2601
aF10.0
aI0
aI01
aI01
aI00
aI00
aI00
aI00
aI00
aI00
aa(lp2602
I234378
aF418.98333333333335
aF107.82
ag2599
aS'dejavusans'
p2603
aS'#000000'
p2604
aF10.0
aI0
aI00
aI00
aI00
aI00
aI00
aI00
aI00
aI00
aa(lp2605
I233284
aF426.19
aF107.82
aVp3
p2606
aS'dejavusans'
p2607
aS'#000000'
p2608
aF10.0
aI0
aI01
aI00
aI00
aI00
aI00
aI00
aI00
aI00
aa(lp2609
I90127
aF108.1
aF123.82
aVp3
p2610
aS'dejavusans'
p2611
aS'#000000'
p2612
aF10.0
aI0
aI01
aI00
aI00
aI00
aI00
aI00
aI00
aI00
aa(lp2613
I190806
aF171.15
aF123.82
aVp3
p2614
aS'dejavusans'
p2615
aS'#000000'
p2616
aF10.0
aI0
aI00
aI00
aI00
aI00
aI00
aI00
aI00
aI00
aa(lp2617
I81573
aF188.04
aF123.82
aVp3
p2618
aS'dejavusans'
p2619
aS'#000000'
p2620
aF10.0
aI0
aI00
aI00
aI00
aI00
aI00
aI00
aI00
aI00
aa(lp2621
I141687
aF246.2
aF123.82
aVp3
p2622
aS'dejavusans'
p2623
aS'#000000'
p2624
aF10.0
aI0
aI01
aI00
aI00
aI00
aI00
aI00
aI00
aI00
aa(lp2625
I234378
aF299.54999999999995
aF123.82
ag2622
aS'dejavusans'
p2626
aS'#000000'
p2627
aF10.0
aI0
aI00
aI00
aI00
aI00
aI00
aI00
aI00
aI00
aa(lp2628
I234378
aF304.4
aF123.82
ag2622
aS'dejavusans'
p2629
aS'#000000'
p2630
aF10.0
aI0
aI01
aI01
aI00
aI00
aI00
aI00
aI00
aI00
aa(lp2631
I234378
aF314.09999999999997
aF123.82
ag2622
aS'dejavusans'
p2632
aS'#000000'
p2633
aF10.0
aI0
aI00
aI00
aI00
aI00
aI00
aI00
aI00
aI00
aa(lp2634
I85218
aF322.14
aF123.82
aVp3
p2635
aS'dejavusans'
p2636
aS'#000000'
p2637
aF10.0
aI0
aI00
aI00
aI00
aI00
aI00
aI00
aI00
aI00
aa(lp2638
I81573
aF344.13
aF123.82
aVp3
p2639
aS'dejavusans'
p2640
aS'#000000'
p2641
aF10.0
aI0
aI00
aI00
aI00
aI00
aI00
aI00
aI00
aI00
aa(lp2642
I18050
aF402.28
aF123.82
aVp3
p2643
aS'dejavusans'
p2644
aS'#000000'
p2645
aF10.0
aI0
aI01
aI00
aI00
aI00
aI00
aI00
aI00
aI00
aa(lp2646
I234378
aF444.91999999999996
aF123.82
ag2643
aS'dejavusans'
p2647
aS'#000000'
p2648
aF10.0
aI0
aI00
aI00
aI00
aI00
aI00
aI00
aI00
aI00
aa(lp2649
I234378
aF450.24999999999994
aF123.82
ag2643
aS'dejavusans'
p2650
aS'#000000'
p2651
aF10.0
aI0
aI01
aI01
aI00
aI00
aI00
aI00
aI00
aI00
aa(lp2652
I234378
aF460.90999999999997
aF123.82
ag2643
aS'dejavusans'
p2653
aS'#000000'
p2654
aF10.0
aI0
aI00
aI00
aI00
aI00
aI00
aI00
aI00
aI00
aa(lp2655
I234378
aF469.43
aF123.82
aVp3
p2656
aS'dejavusans'
p2657
aS'#000000'
p2658
aF10.0
aI0
aI00
aI00
aI00
aI00
aI00
aI00
aI00
aI00
aa(lp2659
I234378
aF499.6
aF123.82
aVp3
p2660
aS'dejavusans'
p2661
aS'#000000'
p2662
aF10.0
aI0
aI01
aI00
aI00
aI00
aI00
aI00
aI00
aI00
aa(lp2663
I234378
aF533.4100000000001
aF123.82
ag2660
aS'dejavusans'
p2664
aS'#000000'
p2665
aF10.0
aI0
aI00
aI00
aI00
aI00
aI00
aI00
aI00
aI00
aa(lp2666
I1963
aF108.1
aF139.82
aVp3
p2667
aS'dejavusans'
p2668
aS'#000000'
p2669
aF10.0
aI0
aI01
aI00
aI00
aI00
aI00
aI00
aI00
aI00
aa(lp2670
I224923
aF150.75
aF139.82
aVp3
p2671
aS'dejavusans'
p2672
aS'#000000'
p2673
aF10.0
aI0
aI00
aI00
aI00
aI00
aI00
aI00
aI00
aI00
aa(lp2674
I144489
aF208.2
aF139.82
aVp3
p2675
aS'dejavusans'
p2676
aS'#000000'
p2677
aF10.0
aI0
aI00
aI00
aI00
aI00
aI00
aI00
aI00
aI00
aa(lp2678
I234378
aF220.99
aF139.82
aVp3
p2679
aS'dejavusans'
p2680
aS'#000000'
p2681
aF10.0
aI0
aI00
aI00
aI00
aI00
aI00
aI00
aI00
aI00
aa(lp2682
I144483
aF259.87
aF139.82
aVp3
p2683
aS'dejavusans'
p2684
aS'#000000'
p2685
aF10.0
aI0
aI00
aI00
aI00
aI00
aI00
aI00
aI00
aI00
aa(lp2686
I234378
aF275.55
aF139.82
aVp3
p2687
aS'dejavusans'
p2688
aS'#000000'
p2689
aF10.0
aI0
aI00
aI00
aI00
aI00
aI00
aI00
aI00
aI00
aa(lp2690
I234378
aF320.31
aF139.82
aVp3
p2691
aS'dejavusans'
p2692
aS'#000000'
p2693
aF10.0
aI0
aI00
aI00
aI00
aI00
aI00
aI00
aI00
aI00
aa(lp2694
I85218
aF374.36
aF139.82
aVp3
p2695
aS'dejavusans'
p2696
aS'#000000'
p2697
aF10.0
aI0
aI00
aI00
aI00
aI00
aI00
aI00
aI00
aI00
aa(lp2698
I234378
aF396.34
aF139.82
aVp3
p2699
aS'dejavusans'
p2700
aS'#000000'
p2701
aF10.0
aI0
aI00
aI00
aI00
aI00
aI00
aI00
aI00
aI00
aa(lp2702
I43592
aF464.49
aF139.82
aVp3
p2703
aS'dejavusans'
p2704
aS'#000000'
p2705
aF10.0
aI0
aI00
aI00
aI00
aI00
aI00
aI00
aI00
aI00
aa(lp2706
I90127
aF108.1
aF155.82
aVp3
p2707
aS'dejavusans'
p2708
aS'#000000'
p2709
aF10.0
aI0
aI01
aI00
aI00
aI00
aI00
aI00
aI00
aI00
aa(lp2710
I190806
aF171.74
aF155.82
aVp3
p2711
aS'dejavusans'
p2712
aS'#000000'
p2713
aF10.0
aI0
aI00
aI00
aI00
aI00
aI00
aI00
aI00
aI00
aa(lp2714
I52628
aF189.22
aF155.82
aVp3
p2715
aS'dejavusans'
p2716
aS'#000000'
p2717
aF10.0
aI0
aI00
aI00
aI00
aI00
aI00
aI00
aI00
aI00
aa(lp2718
I234378
aF215.98
aF155.82
aVp3
p2719
aS'dejavusans'
p2720
aS'#000000'
p2721
aF10.0
aI0
aI00
aI00
aI00
aI00
aI00
aI00
aI00
aI00
aa(lp2722
I85218
aF265.73
aF155.82
aVp3
p2723
aS'dejavusans'
p2724
aS'#000000'
p2725
aF10.0
aI0
aI00
aI00
aI00
aI00
aI00
aI00
aI00
aI00
aa(lp2726
I109152
aF288.31
aF155.82
aVp3
p2727
aS'dejavusans'
p2728
aS'#000000'
p2729
aF10.0
aI0
aI00
aI00
aI00
aI00
aI00
aI00
aI00
aI00
aa(lp2730
I15429
aF326.77
aF155.82
aVp3
p2731
aS'dejavusans'
p2732
aS'#000000'
p2733
aF10.0
aI0
aI00
aI00
aI00
aI00
aI00
aI00
aI00
aI00
aa(lp2734
I144489
aF343.15
aF155.82
aVp3
p2735
aS'dejavusans'
p2736
aS'#000000'
p2737
aF10.0
aI0
aI00
aI00
aI00
aI00
aI00
aI00
aI00
aI00
aa(lp2738
I234378
aF356.63
aF155.82
aVp3
p2739
aS'dejavusans'
p2740
aS'#000000'
p2741
aF10.0
aI0
aI00
aI00
aI00
aI00
aI00
aI00
aI00
aI00
aa(lp2742
I91278
aF390.89
aF155.82
aVp3
p2743
aS'dejavusans'
p2744
aS'#000000'
p2745
aF10.0
aI0
aI00
aI00
aI00
aI00
aI00
aI00
aI00
aI00
aa(lp2746
I140548
aF417.86
aF155.82
aVp3
p2747
aS'dejavusans'
p2748
aS'#000000'
p2749
aF10.0
aI0
aI00
aI00
aI00
aI00
aI00
aI00
aI00
aI00
aa(lp2750
I89480
aF470.6
aF155.82
aVp3
p2751
aS'dejavusans'
p2752
aS'#000000'
p2753
aF10.0
aI0
aI00
aI00
aI00
aI00
aI00
aI00
aI00
aI00
aa(lp2754
I194354
aF484.38
aF155.82
aVp3
p2755
aS'dejavusans'
p2756
aS'#000000'
p2757
aF10.0
aI0
aI00
aI00
aI00
aI00
aI00
aI00
aI00
aI00
aa(lp2758
I177958
aF504.56
aF155.82
aVp3
p2759
aS'dejavusans'
p2760
aS'#000000'
p2761
aF10.0
aI0
aI00
aI00
aI00
aI00
aI00
aI00
aI00
aI00
aa(lp2762
I202216
aF108.1
aF172.42
aVp3
p2763
aS'dejavusans'
p2764
aS'#000000'
p2765
aF10.0
aI0
aI00
aI00
aI00
aI00
aI00
aI00
aI00
aI00
aa(lp2766
I90127
aF108.1
aF187.82
aVp3
p2767
aS'dejavusans'
p2768
aS'#000000'
p2769
aF10.0
aI0
aI01
aI00
aI00
aI00
aI00
aI00
aI00
aI00
aa(lp2770
I190806
aF171.15
aF187.82
aVp3
p2771
aS'dejavusans'
p2772
aS'#000000'
p2773
aF10.0
aI0
aI00
aI00
aI00
aI00
aI00
aI00
aI00
aI00
aa(lp2774
I8059
aF188.04
aF187.82
aVp3
p2775
aS'dejavusans'
p2776
aS'#000000'
p2777
aF10.0
aI0
aI00
aI00
aI00
aI00
aI00
aI00
aI00
aI00
aa(lp2778
I144489
aF232.0
aF187.82
aVp3
p2779
aS'dejavusans'
p2780
aS'#000000'
p2781
aF10.0
aI0
aI00
aI00
aI00
aI00
aI00
aI00
aI00
aI00
aa(lp2782
I53211
aF244.79
aF187.82
aVp3
p2783
aS'dejavusans'
p2784
aS'#000000'
p2785
aF10.0
aI0
aI01
aI00
aI00
aI00
aI00
aI00
aI00
aI00
aa(lp2786
I12758
aF273.05
aF187.82
aVp3
p2787
aS'dejavusans'
p2788
aS'#000000'
p2789
aF10.0
aI0
aI00
aI00
aI00
aI00
aI00
aI00
aI00
aI00
aa(lp2790
I89480
aF320.9
aF187.82
aVp3
p2791
aS'dejavusans'
p2792
aS'#000000'
p2793
aF10.0
aI0
aI00
aI00
aI00
aI00
aI00
aI00
aI00
aI00
aa(lp2794
I110057
aF334.09
aF187.82
aVp3
p2795
aS'dejavusans'
p2796
aS'#000000'
p2797
aF10.0
aI0
aI00
aI00
aI00
aI00
aI00
aI00
aI00
aI00
aa(lp2798
I194354
aF381.45
aF187.82
aVp3
p2799
aS'dejavusans'
p2800
aS'#000000'
p2801
aF10.0
aI0
aI00
aI00
aI00
aI00
aI00
aI00
aI00
aI00
aa(lp2802
I53211
aF401.03
aF187.82
aVp3
p2803
aS'dejavusans'
p2804
aS'#000000'
p2805
aF10.0
aI0
aI01
aI00
aI00
aI00
aI00
aI00
aI00
aI00
aa(lp2806
I170764
aF429.19
aF187.82
aVp3
p2807
aS'dejavusans'
p2808
aS'#000000'
p2809
aF10.0
aI0
aI00
aI00
aI00
aI00
aI00
aI00
aI00
aI00
aa(lp2810
I234378
aF453.97
aF187.82
aVp3
p2811
aS'dejavusans'
p2812
aS'#000000'
p2813
aF10.0
aI0
aI01
aI00
aI00
aI00
aI00
aI00
aI00
aI00
aa(lp2814
I90127
aF108.1
aF203.82
aVp3
p2815
aS'dejavusans'
p2816
aS'#000000'
p2817
aF10.0
aI0
aI01
aI00
aI00
aI00
aI00
aI00
aI00
aI00
aa(lp2818
I190806
aF171.15
aF203.82
aVp3
p2819
aS'dejavusans'
p2820
aS'#000000'
p2821
aF10.0
aI0
aI00
aI00
aI00
aI00
aI00
aI00
aI00
aI00
aa(lp2822
I234378
aF188.04
aF203.82
aVp3
p2823
aS'dejavusans'
p2824
aS'#000000'
p2825
aF10.0
aI0
aI00
aI00
aI00
aI00
aI00
aI00
aI00
aI00
aa(lp2826
I234378
aF232.29
aF203.82
aVp3
p2827
aS'dejavusans'
p2828
aS'#000000'
p2829
aF10.0
aI0
aI01
aI00
aI00
aI00
aI00
aI00
aI00
aI00
aa(lp2830
I234378
aF262.5042857142857
aF203.82
ag2827
aS'dejavusans'
p2831
aS'#000000'
p2832
aF10.0
aI0
aI00
aI00
aI00
aI00
aI00
aI00
aI00
aI00
aa(lp2833
I234378
aF270.75
aF203.82
aVp3
p2834
aS'dejavusans'
p2835
aS'#000000'
p2836
aF10.0
aI0
aI00
aI00
aI00
aI00
aI00
aI00
aI00
aI00
aa(lp2837
I234378
aF289.598
aF203.82
ag2834
aS'dejavusans'
p2838
aS'#000000'
p2839
aF10.0
aI0
aI00
aI00
aI00
aI00
aI00
aI00
aI00
aI00
aa(lp2840
I234378
aF297.52
aF203.82
aVp3
p2841
aS'dejavusans'
p2842
aS'#000000'
p2843
aF10.0
aI0
aI00
aI00
aI00
aI00
aI00
aI00
aI00
aI00
aa(lp2844
I135639
aF330.8
aF203.82
aVp3
p2845
aS'dejavusans'
p2846
aS'#000000'
p2847
aF10.0
aI0
aI00
aI00
aI00
aI00
aI00
aI00
aI00
aI00
aa(lp2848
I234378
aF343.08
aF203.82
aVp3
p2849
aS'dejavusans'
p2850
aS'#000000'
p2851
aF10.0
aI0
aI01
aI00
aI00
aI00
aI00
aI00
aI00
aI00
aa(lp2852
I234378
aF376.89
aF203.82
ag2849
aS'dejavusans'
p2853
aS'#000000'
p2854
aF10.0
aI0
aI00
aI00
aI00
aI00
aI00
aI00
aI00
aI00
aa(lp2855
I91899
aF108.1
aF219.82
aVp3
p2856
aS'dejavusans'
p2857
aS'#000000'
p2858
aF10.0
aI0
aI01
aI00
aI00
aI00
aI00
aI00
aI00
aI00
aa(lp2859
I194354
aF151.47
aF219.82
aVp3
p2860
aS'dejavusans'
p2861
aS'#000000'
p2862
aF10.0
aI0
aI00
aI00
aI00
aI00
aI00
aI00
aI00
aI00
aa(lp2863
I72460
aF171.95
aF219.82
aVp3
p2864
aS'dejavusans'
p2865
aS'#000000'
p2866
aF10.0
aI0
aI01
aI00
aI00
aI00
aI00
aI00
aI00
aI00
aa(lp2867
I53211
aF202.02
aF219.82
aVp3
p2868
aS'dejavusans'
p2869
aS'#000000'
p2870
aF10.0
aI0
aI01
aI00
aI00
aI00
aI00
aI00
aI00
aI00
aa(lp2871
I179418
aF243.05
aF219.82
aVp3
p2872
aS'dejavusans'
p2873
aS'#000000'
p2874
aF10.0
aI0
aI00
aI00
aI00
aI00
aI00
aI00
aI00
aI00
aa(lp2875
I194354
aF284.72
aF219.82
aVp3
p2876
aS'dejavusans'
p2877
aS'#000000'
p2878
aF10.0
aI0
aI00
aI00
aI00
aI00
aI00
aI00
aI00
aI00
aa(lp2879
I83693
aF305.2
aF219.82
aVp3
p2880
aS'dejavusans'
p2881
aS'#000000'
p2882
aF10.0
aI0
aI00
aI00
aI00
aI00
aI00
aI00
aI00
aI00
aa(lp2883
I234378
aF337.46
aF219.82
aVp3
p2884
aS'dejavusans'
p2885
aS'#000000'
p2886
aF10.0
aI0
aI01
aI00
aI00
aI00
aI00
aI00
aI00
aI00
aa(lp2887
I234351
aF395.8
aF219.82
aVp3
p2888
aS'dejavusans'
p2889
aS'#000000'
p2890
aF10.0
aI0
aI01
aI00
aI00
aI00
aI00
aI00
aI00
aI00
aa(lp2891
I190806
aF435.16
aF219.82
aVp3
p2892
aS'dejavusans'
p2893
aS'#000000'
p2894
aF10.0
aI0
aI00
aI00
aI00
aI00
aI00
aI00
aI00
aI00
aa(lp2895
I194354
aF453.04
aF219.82
aVp3
p2896
aS'dejavusans'
p2897
aS'#000000'
p2898
aF10.0
aI0
aI00
aI00
aI00
aI00
aI00
aI00
aI00
aI00
aa(lp2899
I68032
aF473.52
aF219.82
aVp3
p2900
aS'dejavusans'
p2901
aS'#000000'
p2902
aF10.0
aI0
aI00
aI00
aI00
aI00
aI00
aI00
aI00
aI00
aa(lp2903
I145155
aF108.1
aF236.42
aVp3
p2904
aS'dejavusans'
p2905
aS'#000000'
p2906
aF10.0
aI0
aI00
aI00
aI00
aI00
aI00
aI00
aI00
aI00
aa(lp2907
I234378
aF108.1
aF248.82
aVp3
p2908
aS'dejavusans'
p2909
aS'#000000'
p2910
aF10.0
aI0
aI01
aI00
aI00
aI00
aI00
aI00
aI00
aI00
aa(lp2911
I194354
aF179.13
aF248.82
aVp3
p2912
aS'dejavusans'
p2913
aS'#000000'
p2914
aF10.0
aI0
aI00
aI00
aI00
aI00
aI00
aI00
aI00
aI00
aa(lp2915
I234378
aF199.91
aF248.82
aVp3
p2916
aS'dejavusans'
p2917
aS'#000000'
p2918
aF10.0
aI0
aI00
aI00
aI00
aI00
aI00
aI00
aI00
aI00
aa(lp2919
I234378
aF261.87
aF248.82
aVp3
p2920
aS'dejavusans'
p2921
aS'#000000'
p2922
aF10.0
aI0
aI00
aI00
aI00
aI00
aI00
aI00
aI00
aI00
aa(lp2923
I234378
aF299.33
aF248.82
aVp3
p2924
aS'dejavusans'
p2925
aS'#000000'
p2926
aF10.0
aI0
aI00
aI00
aI00
aI00
aI00
aI00
aI00
aI00
aa(lp2927
I50998
aF304.42285714285714
aF248.82
ag2924
aS'dejavusans'
p2928
aS'#000000'
p2929
aF10.0
aI0
aI01
aI00
aI00
aI00
aI00
aI00
aI00
aI00
aa(lp2930
I234378
aF329.88714285714286
aF248.82
ag2924
aS'dejavusans'
p2931
aS'#000000'
p2932
aF10.0
aI0
aI00
aI00
aI00
aI00
aI00
aI00
aI00
aI00
aa(lp2933
I218862
aF339.49
aF248.82
aVp3
p2934
aS'dejavusans'
p2935
aS'#000000'
p2936
aF10.0
aI0
aI00
aI00
aI00
aI00
aI00
aI00
aI00
aI00
aa(lp2937
I115862
aF367.15
aF248.82
aVp3
p2938
aS'dejavusans'
p2939
aS'#000000'
p2940
aF10.0
aI0
aI01
aI00
aI00
aI00
aI00
aI00
aI00
aI00
aa(lp2941
I234378
aF395.2471428571428
aF248.82
ag2938
aS'dejavusans'
p2942
aS'#000000'
p2943
aF10.0
aI0
aI00
aI00
aI00
aI00
aI00
aI00
aI00
aI00
aa(lp2944
I190806
aF404.41
aF248.82
aVp3
p2945
aS'dejavusans'
p2946
aS'#000000'
p2947
aF10.0
aI0
aI00
aI00
aI00
aI00
aI00
aI00
aI00
aI00
aa(lp2948
I142554
aF422.59
aF248.82
aVp3
p2949
aS'dejavusans'
p2950
aS'#000000'
p2951
aF10.0
aI0
aI00
aI00
aI00
aI00
aI00
aI00
aI00
aI00
aa(lp2952
I61195
aF486.74
aF248.82
aVp3
p2953
aS'dejavusans'
p2954
aS'#000000'
p2955
aF10.0
aI0
aI00
aI00
aI00
aI00
aI00
aI00
aI00
aI00
aa(lp2956
I89480
aF529.6
aF248.82
aVp3
p2957
aS'dejavusans'
p2958
aS'#000000'
p2959
aF10.0
aI0
aI00
aI00
aI00
aI00
aI00
aI00
aI00
aI00
aa(lp2960
I52532
aF108.1
aF262.82
aVp3
p2961
aS'dejavusans'
p2962
aS'#000000'
p2963
aF10.0
aI0
aI00
aI00
aI00
aI00
aI00
aI00
aI00
aI00
aa(lp2964
I234378
aF153.74
aF262.82
aVp3
p2965
aS'dejavusans'
p2966
aS'#000000'
p2967
aF10.0
aI0
aI00
aI00
aI00
aI00
aI00
aI00
aI00
aI00
aa(lp2968
I234378
aF220.05384615384617
aF262.82
ag2965
aS'dejavusans'
p2969
aS'#000000'
p2970
aF10.0
aI0
aI00
aI00
aI00
aI00
aI00
aI00
aI00
aI00
aa(lp2971
I97764
aF108.1
aF276.92
aVp3
p2972
aS'dejavusans'
p2973
aS'#000000'
p2974
aF10.0
aI0
aI01
aI00
aI00
aI00
aI00
aI00
aI00
aI00
aa(lp2975
I44279
aF161.15
aF276.92
aVp3
p2976
aS'dejavusans'
p2977
aS'#000000'
p2978
aF10.0
aI0
aI01
aI01
aI00
aI00
aI00
aI00
aI00
aI00
aa(lp2979
I85218
aF189.92
aF276.92
aVp3
p2980
aS'dejavusans'
p2981
aS'#000000'
p2982
aF10.0
aI0
aI00
aI00
aI00
aI00
aI00
aI00
aI00
aI00
aa(lp2983
I234378
aF217.0
aF276.92
aVp3
p2984
aS'dejavusans'
p2985
aS'#000000'
p2986
aF10.0
aI0
aI01
aI00
aI00
aI00
aI00
aI00
aI00
aI00
aa(lp2987
I234378
aF258.47
aF276.92
aVp3
p2988
aS'dejavusans'
p2989
aS'#000000'
p2990
aF10.0
aI0
aI00
aI00
aI00
aI00
aI00
aI00
aI00
aI00
aa(lp2991
I85218
aF296.53
aF276.92
aVp3
p2992
aS'dejavusans'
p2993
aS'#000000'
p2994
aF10.0
aI0
aI00
aI00
aI00
aI00
aI00
aI00
aI00
aI00
aa(lp2995
I234378
aF323.61
aF276.92
aVp3
p2996
aS'dejavusans'
p2997
aS'#000000'
p2998
aF10.0
aI0
aI00
aI00
aI00
aI00
aI00
aI00
aI00
aI00
aa(lp2999
I89480
aF384.16
aF276.92
aVp3
p3000
aS'dejavusans'
p3001
aS'#000000'
p3002
aF10.0
aI0
aI00
aI00
aI00
aI00
aI00
aI00
aI00
aI00
aa(lp3003
I234378
aF402.44
aF276.92
aVp3
p3004
aS'dejavusans'
p3005
aS'#000000'
p3006
aF10.0
aI0
aI01
aI01
aI00
aI00
aI00
aI00
aI00
aI00
aa(lp3007
I12878
aF420.71
aF276.92
aVp3
p3008
aS'dejavusans'
p3009
aS'#000000'
p3010
aF10.0
aI0
aI01
aI00
aI00
aI00
aI00
aI00
aI00
aI00
aa(lp3011
I190806
aF492.86
aF276.92
aVp3
p3012
aS'dejavusans'
p3013
aS'#000000'
p3014
aF10.0
aI0
aI00
aI00
aI00
aI00
aI00
aI00
aI00
aI00
aa(lp3015
I53211
aF514.84
aF276.92
aVp3
p3016
aS'dejavusans'
p3017
aS'#000000'
p3018
aF10.0
aI0
aI00
aI00
aI00
aI00
aI00
aI00
aI00
aI00
aa(lp3019
I234378
aF108.1
aF290.92
aVp3
p3020
aS'dejavusans'
p3021
aS'#000000'
p3022
aF10.0
aI0
aI00
aI00
aI00
aI00
aI00
aI00
aI00
aI00
aa(lp3023
I145155
aF168.77
aF290.92
aVp3
p3024
aS'dejavusans'
p3025
aS'#000000'
p3026
aF10.0
aI0
aI00
aI00
aI00
aI00
aI00
aI00
aI00
aI00
aa(lp3027
I234378
aF202.9388888888889
aF290.92
ag3024
aS'dejavusans'
p3028
aS'#000000'
p3029
aF10.0
aI0
aI00
aI00
aI00
aI00
aI00
aI00
aI00
aI00
aa(lp3030
I234378
aF108.1
aF305.02
aVp3
p3031
aS'dejavusans'
p3032
aS'#000000'
p3033
aF10.0
aI0
aI01
aI00
aI00
aI00
aI00
aI00
aI00
aI00
aa(lp3034
I85218
aF158.34
aF305.02
aVp3
p3035
aS'dejavusans'
p3036
aS'#000000'
p3037
aF10.0
aI0
aI00
aI00
aI00
aI00
aI00
aI00
aI00
aI00
aa(lp3038
I234378
aF184.72
aF305.02
aVp3
p3039
aS'dejavusans'
p3040
aS'#000000'
p3041
aF10.0
aI0
aI00
aI00
aI00
aI00
aI00
aI00
aI00
aI00
aa(lp3042
I234378
aF245.67
aF305.02
aVp3
p3043
aS'dejavusans'
p3044
aS'#000000'
p3045
aF10.0
aI0
aI01
aI00
aI00
aI00
aI00
aI00
aI00
aI00
aa(lp3046
I169745
aF288.72
aF305.02
aVp3
p3047
aS'dejavusans'
p3048
aS'#000000'
p3049
aF10.0
aI0
aI00
aI00
aI00
aI00
aI00
aI00
aI00
aI00
aa(lp3050
I118295
aF317.58
aF305.02
aVp3
p3051
aS'dejavusans'
p3052
aS'#000000'
p3053
aF10.0
aI0
aI00
aI00
aI00
aI00
aI00
aI00
aI00
aI00
aa(lp3054
I182558
aF348.45
aF305.02
aVp3
p3055
aS'dejavusans'
p3056
aS'#000000'
p3057
aF10.0
aI0
aI00
aI00
aI00
aI00
aI00
aI00
aI00
aI00
aa(lp3058
I234378
aF382.53
aF305.02
aVp3
p3059
aS'dejavusans'
p3060
aS'#000000'
p3061
aF10.0
aI0
aI00
aI00
aI00
aI00
aI00
aI00
aI00
aI00
aa(lp3062
I234378
aF414.2
aF305.02
aVp3
p3063
aS'dejavusans'
p3064
aS'#000000'
p3065
aF10.0
aI0
aI00
aI00
aI00
aI00
aI00
aI00
aI00
aI00
aa(lp3066
I40813
aF418.957
aF305.02
ag3063
aS'dejavusans'
p3067
aS'#000000'
p3068
aF10.0
aI0
aI00
aI00
aI00
aI00
aI00
aI00
aI00
aI00
aa(lp3069
I234378
aF438.985
aF305.02
ag3063
aS'dejavusans'
p3070
aS'#000000'
p3071
aF10.0
aI0
aI00
aI00
aI00
aI00
aI00
aI00
aI00
aI00
aa(lp3072
I234378
aF453.25600000000003
aF305.02
ag3063
aS'dejavusans'
p3073
aS'#000000'
p3074
aF10.0
aI0
aI00
aI00
aI00
aI00
aI00
aI00
aI00
aI00
aa(lp3075
I190806
aF469.35
aF305.02
aVp3
p3076
aS'dejavusans'
p3077
aS'#000000'
p3078
aF10.0
aI0
aI00
aI00
aI00
aI00
aI00
aI00
aI00
aI00
aa(lp3079
I234378
aF490.73
aF305.02
aVp3
p3080
aS'dejavusans'
p3081
aS'#000000'
p3082
aF10.0
aI0
aI00
aI00
aI00
aI00
aI00
aI00
aI00
aI00
aa(lp3083
I141687
aF108.1
aF319.02
aVp3
p3084
aS'dejavusans'
p3085
aS'#000000'
p3086
aF10.0
aI0
aI00
aI00
aI00
aI00
aI00
aI00
aI00
aI00
aa(lp3087
I61195
aF166.16
aF319.02
aVp3
p3088
aS'dejavusans'
p3089
aS'#000000'
p3090
aF10.0
aI0
aI00
aI00
aI00
aI00
aI00
aI00
aI00
aI00
aa(lp3091
I234378
aF202.42875
aF319.02
ag3088
aS'dejavusans'
p3092
aS'#000000'
p3093
aF10.0
aI0
aI00
aI00
aI00
aI00
aI00
aI00
aI00
aI00
aa(lp3094
I209762
aF108.1
aF333.12
aVp3
p3095
aS'dejavusans'
p3096
aS'#000000'
p3097
aF10.0
aI0
aI01
aI00
aI00
aI00
aI00
aI00
aI00
aI00
aa(lp3098
I85218
aF166.64
aF333.12
aVp3
p3099
aS'dejavusans'
p3100
aS'#000000'
p3101
aF10.0
aI0
aI00
aI00
aI00
aI00
aI00
aI00
aI00
aI00
aa(lp3102
I90895
aF188.62
aF333.12
aVp3
p3103
aS'dejavusans'
p3104
aS'#000000'
p3105
aF10.0
aI0
aI00
aI00
aI00
aI00
aI00
aI00
aI00
aI00
aa(lp3106
I144489
aF258.06
aF333.12
aVp3
p3107
aS'dejavusans'
p3108
aS'#000000'
p3109
aF10.0
aI0
aI00
aI00
aI00
aI00
aI00
aI00
aI00
aI00
aa(lp3110
I110786
aF270.85
aF333.12
aVp3
p3111
aS'dejavusans'
p3112
aS'#000000'
p3113
aF10.0
aI0
aI01
aI00
aI00
aI00
aI00
aI00
aI00
aI00
aa(lp3114
I190806
aF309.82
aF333.12
aVp3
p3115
aS'dejavusans'
p3116
aS'#000000'
p3117
aF10.0
aI0
aI00
aI00
aI00
aI00
aI00
aI00
aI00
aI00
aa(lp3118
I52532
aF326.71
aF333.12
aVp3
p3119
aS'dejavusans'
p3120
aS'#000000'
p3121
aF10.0
aI0
aI00
aI00
aI00
aI00
aI00
aI00
aI00
aI00
aa(lp3122
I177958
aF372.35
aF333.12
aVp3
p3123
aS'dejavusans'
p3124
aS'#000000'
p3125
aF10.0
aI0
aI00
aI00
aI00
aI00
aI00
aI00
aI00
aI00
aa(lp3126
I234378
aF410.11
aF333.12
aVp3
p3127
aS'dejavusans'
p3128
aS'#000000'
p3129
aF10.0
aI0
aI00
aI00
aI00
aI00
aI00
aI00
aI00
aI00
aa(lp3130
I234378
aF438.66
aF333.12
ag3127
aS'dejavusans'
p3131
aS'#000000'
p3132
aF10.0
aI0
aI00
aI00
aI00
aI00
aI00
aI00
aI00
aI00
aa(lp3133
I109152
aF108.1
aF348.12
aVp3
p3134
aS'dejavusans'
p3135
aS'#000000'
p3136
aF10.0
aI0
aI01
aI00
aI00
aI00
aI00
aI00
aI00
aI00
aa(lp3137
I15429
aF152.26
aF348.12
aVp3
p3138
aS'dejavusans'
p3139
aS'#000000'
p3140
aF10.0
aI0
aI00
aI00
aI00
aI00
aI00
aI00
aI00
aI00
aa(lp3141
I142554
aF173.24
aF348.12
aVp3
p3142
aS'dejavusans'
p3143
aS'#000000'
p3144
aF10.0
aI0
aI00
aI00
aI00
aI00
aI00
aI00
aI00
aI00
aa(lp3145
I234378
aF241.29
aF348.12
aVp3
p3146
aS'dejavusans'
p3147
aS'#000000'
p3148
aF10.0
aI0
aI00
aI00
aI00
aI00
aI00
aI00
aI00
aI00
aa(lp3149
I85218
aF286.45
aF348.12
aVp3
p3150
aS'dejavusans'
p3151
aS'#000000'
p3152
aF10.0
aI0
aI00
aI00
aI00
aI00
aI00
aI00
aI00
aI00
aa(lp3153
I234378
aF313.53
aF348.12
aVp3
p3154
aS'dejavusans'
p3155
aS'#000000'
p3156
aF10.0
aI0
aI00
aI00
aI00
aI00
aI00
aI00
aI00
aI00
aa(lp3157
I142554
aF370.3
aF348.12
aVp3
p3158
aS'dejavusans'
p3159
aS'#000000'
p3160
aF10.0
aI0
aI00
aI00
aI00
aI00
aI00
aI00
aI00
aI00
aa(lp3161
I61195
aF438.35
aF348.12
aVp3
p3162
aS'dejavusans'
p3163
aS'#000000'
p3164
aF10.0
aI0
aI00
aI00
aI00
aI00
aI00
aI00
aI00
aI00
aa(lp3165
I89480
aF485.11
aF348.12
aVp3
p3166
aS'dejavusans'
p3167
aS'#000000'
p3168
aF10.0
aI0
aI00
aI00
aI00
aI00
aI00
aI00
aI00
aI00
aa(lp3169
I44160
aF503.39
aF348.12
aVp3
p3170
aS'dejavusans'
p3171
aS'#000000'
p3172
aF10.0
aI0
aI00
aI00
aI00
aI00
aI00
aI00
aI00
aI00
aa(lp3173
I234378
aF108.1
aF362.12
aVp3
p3174
aS'dejavusans'
p3175
aS'#000000'
p3176
aF10.0
aI0
aI00
aI00
aI00
aI00
aI00
aI00
aI00
aI00
aa(lp3177
I234378
aF174.49692307692308
aF362.12
ag3174
aS'dejavusans'
p3178
aS'#000000'
p3179
aF10.0
aI0
aI00
aI00
aI00
aI00
aI00
aI00
aI00
aI00
aa(lp3180
I234378
aF108.1
aF379.22
aVp3
p3181
aS'dejavusans'
p3182
aS'#000000'
p3183
aF10.0
aI0
aI01
aI00
aI00
aI00
aI00
aI00
aI00
aI00
aa(lp3184
I153485
aF166.76
aF379.22
aVp3
p3185
aS'dejavusans'
p3186
aS'#000000'
p3187
aF10.0
aI0
aI00
aI00
aI00
aI00
aI00
aI00
aI00
aI00
aa(lp3188
I53211
aF204.32
aF379.22
aVp3
p3189
aS'dejavusans'
p3190
aS'#000000'
p3191
aF10.0
aI0
aI00
aI00
aI00
aI00
aI00
aI00
aI00
aI00
aa(lp3192
I234378
aF227.36166666666665
aF379.22
ag3189
aS'dejavusans'
p3193
aS'#000000'
p3194
aF10.0
aI0
aI00
aI00
aI00
aI00
aI00
aI00
aI00
aI00
aa(lp3195
I121847
aF235.28
aF379.22
aVp3
p3196
aS'dejavusans'
p3197
aS'#000000'
p3198
aF10.0
aI0
aI00
aI00
aI00
aI00
aI00
aI00
aI00
aI00
aa(lp3199
I234378
aF253.088
aF379.22
ag3196
aS'dejavusans'
p3200
aS'#000000'
p3201
aF10.0
aI0
aI00
aI00
aI00
aI00
aI00
aI00
aI00
aI00
aa(lp3202
I85218
aF260.75
aF379.22
aVp3
p3203
aS'dejavusans'
p3204
aS'#000000'
p3205
aF10.0
aI0
aI00
aI00
aI00
aI00
aI00
aI00
aI00
aI00
aa(lp3206
I234378
aF282.73
aF379.22
aVp3
p3207
aS'dejavusans'
p3208
aS'#000000'
p3209
aF10.0
aI0
aI00
aI00
aI00
aI00
aI00
aI00
aI00
aI00
aa(lp3210
I234378
aF331.88
aF379.22
aVp3
p3211
aS'dejavusans'
p3212
aS'#000000'
p3213
aF10.0
aI0
aI00
aI00
aI00
aI00
aI00
aI00
aI00
aI00
aa(lp3214
I234378
aF398.13
aF379.22
aVp3
p3215
aS'dejavusans'
p3216
aS'#000000'
p3217
aF10.0
aI0
aI00
aI00
aI00
aI00
aI00
aI00
aI00
aI00
aa(lp3218
I234378
aF428.3
aF379.22
aVp3
p3219
aS'dejavusans'
p3220
aS'#000000'
p3221
aF10.0
aI0
aI01
aI00
aI00
aI00
aI00
aI00
aI00
aI00
aa(lp3222
I10629
aF108.1
aF395.22
aVp3
p3223
aS'dejavusans'
p3224
aS'#000000'
p3225
aF10.0
aI0
aI01
aI00
aI00
aI00
aI00
aI00
aI00
aI00
aa(lp3226
I85218
aF149.56
aF395.22
aVp3
p3227
aS'dejavusans'
p3228
aS'#000000'
p3229
aF10.0
aI0
aI00
aI00
aI00
aI00
aI00
aI00
aI00
aI00
aa(lp3230
I234378
aF171.54
aF395.22
aVp3
p3231
aS'dejavusans'
p3232
aS'#000000'
p3233
aF10.0
aI0
aI00
aI00
aI00
aI00
aI00
aI00
aI00
aI00
aa(lp3234
I149270
aF220.8
aF395.22
aVp3
p3235
aS'dejavusans'
p3236
aS'#000000'
p3237
aF10.0
aI0
aI00
aI00
aI00
aI00
aI00
aI00
aI00
aI00
aa(lp3238
I234378
aF269.35
aF395.22
aVp3
p3239
aS'dejavusans'
p3240
aS'#000000'
p3241
aF10.0
aI0
aI00
aI00
aI00
aI00
aI00
aI00
aI00
aI00
aa(lp3242
I135639
aF339.39
aF395.22
aVp3
p3243
aS'dejavusans'
p3244
aS'#000000'
p3245
aF10.0
aI0
aI00
aI00
aI00
aI00
aI00
aI00
aI00
aI00
aa(lp3246
I234378
aF351.67
aF395.22
aVp3
p3247
aS'dejavusans'
p3248
aS'#000000'
p3249
aF10.0
aI0
aI00
aI00
aI00
aI00
aI00
aI00
aI00
aI00
aa(lp3250
I190806
aF394.72
aF395.22
aVp3
p3251
aS'dejavusans'
p3252
aS'#000000'
p3253
aF10.0
aI0
aI00
aI00
aI00
aI00
aI00
aI00
aI00
aI00
aa(lp3254
I194354
aF411.61
aF395.22
aVp3
p3255
aS'dejavusans'
p3256
aS'#000000'
p3257
aF10.0
aI0
aI00
aI00
aI00
aI00
aI00
aI00
aI00
aI00
aa(lp3258
I44160
aF431.19
aF395.22
aVp3
p3259
aS'dejavusans'
p3260
aS'#000000'
p3261
aF10.0
aI0
aI00
aI00
aI00
aI00
aI00
aI00
aI00
aI00
aa(lp3262
I144489
aF470.74
aF395.22
aVp3
p3263
aS'dejavusans'
p3264
aS'#000000'
p3265
aF10.0
aI0
aI00
aI00
aI00
aI00
aI00
aI00
aI00
aI00
aa(lp3266
I234378
aF483.53
aF395.22
aVp3
p3267
aS'dejavusans'
p3268
aS'#000000'
p3269
aF10.0
aI0
aI00
aI00
aI00
aI00
aI00
aI00
aI00
aI00
aa(lp3270
I130791
aF108.1
aF411.22
aVp3
p3271
aS'dejavusans'
p3272
aS'#000000'
p3273
aF10.0
aI0
aI01
aI00
aI00
aI00
aI00
aI00
aI00
aI00
aa(lp3274
I234378
aF152.86
aF411.22
aVp3
p3275
aS'dejavusans'
p3276
aS'#000000'
p3277
aF10.0
aI0
aI00
aI00
aI00
aI00
aI00
aI00
aI00
aI00
aa(lp3278
I131049
aF195.91
aF411.22
aVp3
p3279
aS'dejavusans'
p3280
aS'#000000'
p3281
aF10.0
aI0
aI00
aI00
aI00
aI00
aI00
aI00
aI00
aI00
aa(lp3282
I114120
aF222.3
aF411.22
aVp3
p3283
aS'dejavusans'
p3284
aS'#000000'
p3285
aF10.0
aI0
aI00
aI00
aI00
aI00
aI00
aI00
aI00
aI00
aa(lp3286
I89480
aF283.95
aF411.22
aVp3
p3287
aS'dejavusans'
p3288
aS'#000000'
p3289
aF10.0
aI0
aI00
aI00
aI00
aI00
aI00
aI00
aI00
aI00
aa(lp3290
I18050
aF297.23
aF411.22
aVp3
p3291
aS'dejavusans'
p3292
aS'#000000'
p3293
aF10.0
aI0
aI00
aI00
aI00
aI00
aI00
aI00
aI00
aI00
aa(lp3294
I144489
aF340.49
aF411.22
aVp3
p3295
aS'dejavusans'
p3296
aS'#000000'
p3297
aF10.0
aI0
aI00
aI00
aI00
aI00
aI00
aI00
aI00
aI00
aa(lp3298
I234378
aF353.28
aF411.22
aVp3
p3299
aS'dejavusans'
p3300
aS'#000000'
p3301
aF10.0
aI0
aI00
aI00
aI00
aI00
aI00
aI00
aI00
aI00
aa(lp3302
I234378
aF399.35
aF411.22
aVp3
p3303
aS'dejavusans'
p3304
aS'#000000'
p3305
aF10.0
aI0
aI00
aI00
aI00
aI00
aI00
aI00
aI00
aI00
aa(lp3306
I96364
aF108.1
aF427.22
aVp3
p3307
aS'dejavusans'
p3308
aS'#000000'
p3309
aF10.0
aI0
aI01
aI00
aI00
aI00
aI00
aI00
aI00
aI00
aa(lp3310
I177958
aF157.56
aF427.22
aVp3
p3311
aS'dejavusans'
p3312
aS'#000000'
p3313
aF10.0
aI0
aI00
aI00
aI00
aI00
aI00
aI00
aI00
aI00
aa(lp3314
I212148
aF195.41
aF427.22
aVp3
p3315
aS'dejavusans'
p3316
aS'#000000'
p3317
aF10.0
aI0
aI00
aI00
aI00
aI00
aI00
aI00
aI00
aI00
aa(lp3318
I234378
aF227.88
aF427.22
aVp3
p3319
aS'dejavusans'
p3320
aS'#000000'
p3321
aF10.0
aI0
aI00
aI00
aI00
aI00
aI00
aI00
aI00
aI00
aa(lp3322
I44160
aF273.95
aF427.22
aVp3
p3323
aS'dejavusans'
p3324
aS'#000000'
p3325
aF10.0
aI0
aI00
aI00
aI00
aI00
aI00
aI00
aI00
aI00
aa(lp3326
I15166
aF313.51
aF427.22
aVp3
p3327
aS'dejavusans'
p3328
aS'#000000'
p3329
aF10.0
aI0
aI00
aI00
aI00
aI00
aI00
aI00
aI00
aI00
aa(lp3330
I231317
aF331.88
aF427.22
aVp3
p3331
aS'dejavusans'
p3332
aS'#000000'
p3333
aF10.0
aI0
aI00
aI00
aI00
aI00
aI00
aI00
aI00
aI00
aa(lp3334
I234378
aF355.99666666666667
aF427.22
ag3331
aS'dejavusans'
p3335
aS'#000000'
p3336
aF10.0
aI0
aI00
aI00
aI00
aI00
aI00
aI00
aI00
aI00
aa(lp3337
I177958
aF72.1
aF457.12
aVp3
p3338
aS'dejavusans'
p3339
aS'#000000'
p3340
aF10.0
aI1
aI01
aI00
aI00
aI00
aI00
aI00
aI00
aI00
aa(lp3341
I158577
aF115.66
aF457.12
aVp3
p3342
aS'dejavusans'
p3343
aS'#000000'
p3344
aF10.0
aI1
aI01
aI00
aI00
aI00
aI00
aI00
aI00
aI00
aa(lp3345
I234378
aF216.1
aF457.12
aVp3
p3346
aS'dejavusans'
p3347
aS'#000000'
p3348
aF10.0
aI0
aI00
aI00
aI00
aI00
aI00
aI00
aI00
aI00
aa(lp3349
I234378
aF222.68
aF457.12
aVp3
p3350
aS'dejavusans'
p3351
aS'#000000'
p3352
aF10.0
aI0
aI01
aI00
aI00
aI00
aI00
aI00
aI00
aI00
aa(lp3353
I51933
aF259.44
aF457.12
aVp3
p3354
aS'dejavusans'
p3355
aS'#000000'
p3356
aF10.0
aI0
aI01
aI00
aI00
aI00
aI00
aI00
aI00
aI00
aa(lp3357
I201345
aF287.83
aF457.12
aVp3
p3358
aS'dejavusans'
p3359
aS'#000000'
p3360
aF10.0
aI0
aI01
aI00
aI00
aI00
aI00
aI00
aI00
aI00
aa(lp3361
I25931
aF72.1
aF473.42
aVp3
p3362
aS'dejavusans'
p3363
aS'#000000'
p3364
aF10.0
aI1
aI01
aI00
aI00
aI00
aI00
aI00
aI00
aI00
aa(lp3365
I234378
aF216.1
aF473.42
aVp3
p3366
aS'dejavusans'
p3367
aS'#000000'
p3368
aF10.0
aI0
aI00
aI00
aI00
aI00
aI00
aI00
aI00
aI00
aa(lp3369
I234378
aF222.68
aF473.42
aVp3
p3370
aS'dejavusans'
p3371
aS'#000000'
p3372
aF10.0
aI0
aI01
aI01
aI00
aI00
aI00
aI00
aI00
aI00
aa(lp3373
I234378
aF246.56
aF473.42
aVp3
p3374
aS'dejavusans'
p3375
aS'#000000'
p3376
aF10.0
aI0
aI01
aI00
aI00
aI00
aI00
aI00
aI00
aI00
aa(lp3377
I120031
aF72.1
aF489.82
aVp3
p3378
aS'dejavusans'
p3379
aS'#000000'
p3380
aF10.0
aI1
aI01
aI00
aI00
aI00
aI00
aI00
aI00
aI00
aa(lp3381
I234378
aF216.1
aF489.82
aVp3
p3382
aS'dejavusans'
p3383
aS'#000000'
p3384
aF10.0
aI0
aI00
aI00
aI00
aI00
aI00
aI00
aI00
aI00
aa(lp3385
I131472
aF222.68
aF489.82
aVp3
p3386
aS'dejavusans'
p3387
aS'#000000'
p3388
aF10.0
aI0
aI01
aI00
aI00
aI00
aI00
aI00
aI00
aI01
aa(lp3389
I234378
aF248.65
aF489.82
aVp3
p3390
aS'dejavusans'
p3391
aS'#000000'
p3392
aF10.0
aI0
aI00
aI00
aI01
aI01
aI01
aI00
aI00
aI00
aa(lp3393
I89480
aF277.22
aF489.82
aVp3
p3394
aS'dejavusans'
p3395
aS'#000000'
p3396
aF10.0
aI0
aI00
aI00
aI00
aI00
aI00
aI00
aI00
aI00
aa(lp3397
I234378
aF290.41
aF489.82
aVp3
p3398
aS'dejavusans'
p3399
aS'#000000'
p3400
aF10.0
aI0
aI00
aI00
aI00
aI00
aI00
aI00
aI00
aI01
aa(lp3401
I234378
aF312.39
aF489.82
aVp3
p3402
aS'dejavusans'
p3403
aS'#000000'
p3404
aF10.0
aI0
aI00
aI00
aI01
aI01
aI01
aI00
aI00
aI00
aa(lp3405
I234378
aF72.1
aF506.12
aVp3
p3406
aS'dejavusans'
p3407
aS'#000000'
p3408
aF10.0
aI1
aI01
aI00
aI00
aI00
aI00
aI00
aI00
aI00
aa(lp3409
I25729
aF148.43
aF506.12
aVp3
p3410
aS'dejavusans'
p3411
aS'#000000'
p3412
aF10.0
aI1
aI00
aI00
aI00
aI00
aI00
aI00
aI00
aI00
aa(lp3413
I234378
aF216.1
aF506.12
aVp3
p3414
aS'dejavusans'
p3415
aS'#000000'
p3416
aF10.0
aI0
aI00
aI00
aI00
aI00
aI00
aI00
aI00
aI00
aa(lp3417
I80664
aF222.68
aF506.12
aVp3
p3418
aS'dejavusans'
p3419
aS'#000000'
p3420
aF10.0
aI0
aI01
aI00
aI00
aI00
aI00
aI00
aI00
aI00
aa(lp3421
I234378
aF243.52
aF506.12
ag3418
aS'dejavusans'
p3422
aS'#000000'
p3423
aF10.0
aI0
aI00
aI00
aI00
aI00
aI00
aI00
aI00
aI00
aa(lp3424
I234378
aF251.94
aF506.12
aVp3
p3425
aS'dejavusans'
p3426
aS'#000000'
p3427
aF10.0
aI0
aI01
aI00
aI00
aI00
aI00
aI00
aI00
aI00
aa(lp3428
I234378
aF285.74125
aF506.12
ag3425
aS'dejavusans'
p3429
aS'#000000'
p3430
aF10.0
aI0
aI00
aI00
aI00
aI00
aI00
aI00
aI00
aI00
aa(lp3431
I234378
aF293.78
aF506.12
aVp3
p3432
aS'dejavusans'
p3433
aS'#000000'
p3434
aF10.0
aI0
aI01
aI01
aI00
aI00
aI00
aI00
aI00
aI00
aa(lp3435
I234378
aF311.59999999999997
aF506.12
ag3432
aS'dejavusans'
p3436
aS'#000000'
p3437
aF10.0
aI0
aI00
aI00
aI00
aI00
aI00
aI00
aI00
aI00
aa(lp3438
I44279
aF320.76
aF506.12
aVp3
p3439
aS'dejavusans'
p3440
aS'#000000'
p3441
aF10.0
aI0
aI01
aI00
aI00
aI00
aI00
aI00
aI00
aI00
aa(lp3442
I234378
aF335.8875
aF506.12
ag3439
aS'dejavusans'
p3443
aS'#000000'
p3444
aF10.0
aI0
aI00
aI00
aI00
aI00
aI00
aI00
aI00
aI00
aa(lp3445
I218862
aF344.24
aF506.12
aVp3
p3446
aS'dejavusans'
p3447
aS'#000000'
p3448
aF10.0
aI0
aI01
aI00
aI00
aI00
aI00
aI00
aI00
aI00
aa(lp3449
I115862
aF371.8
aF506.12
aVp3
p3450
aS'dejavusans'
p3451
aS'#000000'
p3452
aF10.0
aI0
aI00
aI00
aI00
aI00
aI00
aI00
aI00
aI00
aa(lp3453
I234378
aF398.3285714285714
aF506.12
ag3450
aS'dejavusans'
p3454
aS'#000000'
p3455
aF10.0
aI0
aI00
aI00
aI00
aI00
aI00
aI00
aI00
aI00
aa(lp3456
I234378
aF405.96
aF506.12
aVp3
p3457
aS'dejavusans'
p3458
aS'#000000'
p3459
aF10.0
aI0
aI01
aI00
aI00
aI00
aI00
aI00
aI00
aI00
aa(lp3460
I234378
aF430.9266666666666
aF506.12
ag3457
aS'dejavusans'
p3461
aS'#000000'
p3462
aF10.0
aI0
aI00
aI00
aI00
aI00
aI00
aI00
aI00
aI00
aa(lp3463
I110786
aF439.5
aF506.12
aVp3
p3464
aS'dejavusans'
p3465
aS'#000000'
p3466
aF10.0
aI0
aI01
aI00
aI00
aI00
aI00
aI00
aI00
aI00
aa(lp3467
I176435
aF72.1
aF522.52
aVp3
p3468
aS'dejavusans'
p3469
aS'#000000'
p3470
aF10.0
aI1
aI01
aI00
aI00
aI00
aI00
aI00
aI00
aI00
aa(lp3471
I234378
aF216.1
aF522.52
aVp3
p3472
aS'dejavusans'
p3473
aS'#000000'
p3474
aF10.0
aI0
aI00
aI00
aI00
aI00
aI00
aI00
aI00
aI00
aa(lp3475
I53211
aF222.68
aF522.52
aVp3
p3476
aS'dejavusans'
p3477
aS'#000000'
p3478
aF10.0
aI0
aI01
aI00
aI00
aI00
aI00
aI00
aI00
aI00
aa(lp3479
I44160
aF261.82
aF522.52
aVp3
p3480
aS'dejavusans'
p3481
aS'#000000'
p3482
aF10.0
aI0
aI01
aI00
aI00
aI00
aI00
aI00
aI00
aI00
aa(lp3483
I132100
aF304.07
aF522.52
aVp3
p3484
aS'dejavusans'
p3485
aS'#000000'
p3486
aF10.0
aI0
aI01
aI00
aI00
aI00
aI00
aI00
aI00
aI00
aa(lp3487
I234378
aF72.1
aF538.82
aVp3
p3488
aS'dejavusans'
p3489
aS'#000000'
p3490
aF10.0
aI1
aI01
aI00
aI00
aI00
aI00
aI00
aI00
aI00
aa(lp3491
I234378
aF159.8270588235294
aF538.82
ag3488
aS'dejavusans'
p3492
aS'#000000'
p3493
aF10.0
aI1
aI00
aI00
aI00
aI00
aI00
aI00
aI00
aI00
aa(lp3494
I179418
aF108.1
aF572.02
aVp3
p3495
aS'dejavusans'
p3496
aS'#000000'
p3497
aF10.0
aI0
aI01
aI00
aI00
aI00
aI00
aI00
aI00
aI00
aa(lp3498
I147316
aF148.28
aF572.02
aVp3
p3499
aS'dejavusans'
p3500
aS'#000000'
p3501
aF10.0
aI0
aI00
aI00
aI00
aI00
aI00
aI00
aI00
aI00
aa(lp3502
I85218
aF189.85
aF572.02
aVp3
p3503
aS'dejavusans'
p3504
aS'#000000'
p3505
aF10.0
aI0
aI00
aI00
aI00
aI00
aI00
aI00
aI00
aI00
aa(lp3506
I113320
aF211.83
aF572.02
aVp3
p3507
aS'dejavusans'
p3508
aS'#000000'
p3509
aF10.0
aI0
aI00
aI00
aI00
aI00
aI00
aI00
aI00
aI00
aa(lp3510
I144489
aF287.57
aF572.02
aVp3
p3511
aS'dejavusans'
p3512
aS'#000000'
p3513
aF10.0
aI0
aI00
aI00
aI00
aI00
aI00
aI00
aI00
aI00
aa(lp3514
I166176
aF300.36
aF572.02
aVp3
p3515
aS'dejavusans'
p3516
aS'#000000'
p3517
aF10.0
aI0
aI01
aI00
aI00
aI00
aI00
aI00
aI00
aI00
aa(lp3518
I218768
aF359.22
aF572.02
aVp3
p3519
aS'dejavusans'
p3520
aS'#000000'
p3521
aF10.0
aI0
aI00
aI00
aI00
aI00
aI00
aI00
aI00
aI00
aa(lp3522
I234378
aF397.68
aF572.02
aVp3
p3523
aS'dejavusans'
p3524
aS'#000000'
p3525
aF10.0
aI0
aI00
aI00
aI00
aI00
aI00
aI00
aI00
aI00
aa(lp3526
I234378
aF426.86571428571426
aF572.02
ag3523
aS'dejavusans'
p3527
aS'#000000'
p3528
aF10.0
aI0
aI00
aI00
aI00
aI00
aI00
aI00
aI00
aI00
aa(lp3529
I234378
aF108.1
aF588.02
aVp3
p3530
aS'dejavusans'
p3531
aS'#000000'
p3532
aF10.0
aI0
aI01
aI00
aI00
aI00
aI00
aI00
aI00
aI00
aa(lp3533
I234378
aF153.76
aF588.02
aVp3
p3534
aS'dejavusans'
p3535
aS'#000000'
p3536
aF10.0
aI0
aI01
aI00
aI00
aI00
aI00
aI00
aI00
aI00
aa(lp3537
I85218
aF203.52
aF588.02
aVp3
p3538
aS'dejavusans'
p3539
aS'#000000'
p3540
aF10.0
aI0
aI00
aI00
aI00
aI00
aI00
aI00
aI00
aI00
aa(lp3541
I234378
aF225.51
aF588.02
aVp3
p3542
aS'dejavusans'
p3543
aS'#000000'
p3544
aF10.0
aI0
aI01
aI00
aI00
aI00
aI00
aI00
aI00
aI00
aa(lp3545
I234378
aF108.1
aF604.02
aVp3
p3546
aS'dejavusans'
p3547
aS'#000000'
p3548
aF10.0
aI0
aI01
aI00
aI00
aI00
aI00
aI00
aI00
aI00
aa(lp3549
I68032
aF166.56
aF604.02
aVp3
p3550
aS'dejavusans'
p3551
aS'#000000'
p3552
aF10.0
aI0
aI00
aI00
aI00
aI00
aI00
aI00
aI00
aI00
aa(lp3553
I234378
aF235.7
aF604.02
aVp3
p3554
aS'dejavusans'
p3555
aS'#000000'
p3556
aF10.0
aI0
aI00
aI00
aI00
aI00
aI00
aI00
aI00
aI00
aa(lp3557
I234378
aF279.38888888888886
aF604.02
ag3554
aS'dejavusans'
p3558
aS'#000000'
p3559
aF10.0
aI0
aI00
aI00
aI00
aI00
aI00
aI00
aI00
aI00
aa(lp3560
I234378
aF108.1
aF620.02
aVp3
p3561
aS'dejavusans'
p3562
aS'#000000'
p3563
aF10.0
aI0
aI01
aI00
aI00
aI00
aI00
aI00
aI00
aI00
aa(lp3564
I194354
aF167.85
aF620.02
aVp3
p3565
aS'dejavusans'
p3566
aS'#000000'
p3567
aF10.0
aI0
aI00
aI00
aI00
aI00
aI00
aI00
aI00
aI00
aa(lp3568
I50834
aF187.43
aF620.02
aVp3
p3569
aS'dejavusans'
p3570
aS'#000000'
p3571
aF10.0
aI0
aI00
aI00
aI00
aI00
aI00
aI00
aI00
aI00
aa(lp3572
I234378
aF218.99
aF620.02
aVp3
p3573
aS'dejavusans'
p3574
aS'#000000'
p3575
aF10.0
aI0
aI00
aI00
aI00
aI00
aI00
aI00
aI00
aI00
aa(lp3576
I89480
aF255.25
aF620.02
aVp3
p3577
aS'dejavusans'
p3578
aS'#000000'
p3579
aF10.0
aI0
aI00
aI00
aI00
aI00
aI00
aI00
aI00
aI00
aa(lp3580
I149323
aF268.44
aF620.02
aVp3
p3581
aS'dejavusans'
p3582
aS'#000000'
p3583
aF10.0
aI0
aI00
aI00
aI00
aI00
aI00
aI00
aI00
aI00
aa(lp3584
I31142
aF323.68
aF620.02
aVp3
p3585
aS'dejavusans'
p3586
aS'#000000'
p3587
aF10.0
aI0
aI00
aI00
aI00
aI00
aI00
aI00
aI00
aI00
aa(lp3588
I194354
aF361.24
aF620.02
aVp3
p3589
aS'dejavusans'
p3590
aS'#000000'
p3591
aF10.0
aI0
aI00
aI00
aI00
aI00
aI00
aI00
aI00
aI00
aa(lp3592
I230071
aF380.82
aF620.02
aVp3
p3593
aS'dejavusans'
p3594
aS'#000000'
p3595
aF10.0
aI0
aI00
aI00
aI00
aI00
aI00
aI00
aI00
aI00
aa(lp3596
I85218
aF406.5
aF620.02
aVp3
p3597
aS'dejavusans'
p3598
aS'#000000'
p3599
aF10.0
aI0
aI00
aI00
aI00
aI00
aI00
aI00
aI00
aI00
aa(lp3600
I51694
aF428.48
aF620.02
aVp3
p3601
aS'dejavusans'
p3602
aS'#000000'
p3603
aF10.0
aI0
aI00
aI00
aI00
aI00
aI00
aI00
aI00
aI00
aa(lp3604
I84603
aF469.07
aF620.02
aVp3
p3605
aS'dejavusans'
p3606
aS'#000000'
p3607
aF10.0
aI0
aI00
aI00
aI00
aI00
aI00
aI00
aI00
aI00
aa(lp3608
I234378
aF495.0842857142857
aF620.02
ag3605
aS'dejavusans'
p3609
aS'#000000'
p3610
aF10.0
aI0
aI00
aI00
aI00
aI00
aI00
aI00
aI00
aI00
aa(lp3611
I234378
aF108.1
aF636.02
aVp3
p3612
aS'dejavusans'
p3613
aS'#000000'
p3614
aF10.0
aI0
aI00
aI00
aI00
aI00
aI00
aI00
aI00
aI00
aa(lp3615
I234378
aF155.026
aF636.02
ag3612
aS'dejavusans'
p3616
aS'#000000'
p3617
aF10.0
aI0
aI00
aI00
aI00
aI00
aI00
aI00
aI00
aI00
aa(lp3618
I234378
aF163.55
aF636.02
aVp3
p3619
aS'dejavusans'
p3620
aS'#000000'
p3621
aF10.0
aI0
aI00
aI00
aI00
aI00
aI00
aI00
aI00
aI00
aa(lp3622
I234378
aF218.11916666666667
aF636.02
ag3619
aS'dejavusans'
p3623
aS'#000000'
p3624
aF10.0
aI0
aI00
aI00
aI00
aI00
aI00
aI00
aI00
aI00
aa(lp3625
I234378
aF226.39
aF636.02
aVp3
p3626
aS'dejavusans'
p3627
aS'#000000'
p3628
aF10.0
aI0
aI00
aI00
aI00
aI00
aI00
aI00
aI00
aI00
aa(lp3629
I234378
aF273.6344444444444
aF636.02
ag3626
aS'dejavusans'
p3630
aS'#000000'
p3631
aF10.0
aI0
aI00
aI00
aI00
aI00
aI00
aI00
aI00
aI00
aa(lp3632
I234378
aF282.85
aF636.02
aVp3
p3633
aS'dejavusans'
p3634
aS'#000000'
p3635
aF10.0
aI0
aI00
aI00
aI00
aI00
aI00
aI00
aI00
aI00
aa(lp3636
I234378
aF340.17833333333334
aF636.02
ag3633
aS'dejavusans'
p3637
aS'#000000'
p3638
aF10.0
aI0
aI00
aI00
aI00
aI00
aI00
aI00
aI00
aI00
aa(lp3639
I166593
aF348.71
aF636.02
aVp3
p3640
aS'dejavusans'
p3641
aS'#000000'
p3642
aF10.0
aI0
aI00
aI00
aI00
aI00
aI00
aI00
aI00
aI00
aa(lp3643
I96642
aF358.0
aF636.02
aVp3
p3644
aS'dejavusans'
p3645
aS'#000000'
p3646
aF10.0
aI0
aI00
aI00
aI00
aI00
aI00
aI00
aI00
aI00
aa(lp3647
I14760
aF392.87
aF636.02
aVp3
p3648
aS'dejavusans'
p3649
aS'#000000'
p3650
aF10.0
aI0
aI00
aI00
aI00
aI00
aI00
aI00
aI00
aI00
aa(lp3651
I234378
aF438.93
aF636.02
aVp3
p3652
aS'dejavusans'
p3653
aS'#000000'
p3654
aF10.0
aI0
aI00
aI00
aI00
aI00
aI00
aI00
aI00
aI00
aa(lp3655
I80664
aF469.1
aF636.02
aVp3
p3656
aS'dejavusans'
p3657
aS'#000000'
p3658
aF10.0
aI0
aI00
aI00
aI00
aI00
aI00
aI00
aI00
aI00
aa(lp3659
I234378
aF108.1
aF652.02
aVp3
p3660
aS'dejavusans'
p3661
aS'#000000'
p3662
aF10.0
aI0
aI01
aI00
aI00
aI00
aI00
aI00
aI00
aI00
aa(lp3663
I80664
aF158.76
aF652.02
aVp3
p3664
aS'dejavusans'
p3665
aS'#000000'
p3666
aF10.0
aI0
aI01
aI00
aI00
aI00
aI00
aI00
aI00
aI00
aa(lp3667
I190806
aF184.93
aF652.02
aVp3
p3668
aS'dejavusans'
p3669
aS'#000000'
p3670
aF10.0
aI0
aI00
aI00
aI00
aI00
aI00
aI00
aI00
aI00
aa(lp3671
I234378
aF201.82
aF652.02
aVp3
p3672
aS'dejavusans'
p3673
aS'#000000'
p3674
aF10.0
aI0
aI00
aI00
aI00
aI00
aI00
aI00
aI00
aI00
aa(lp3675
I153177
aF259.79
aF652.02
aVp3
p3676
aS'dejavusans'
p3677
aS'#000000'
p3678
aF10.0
aI0
aI00
aI00
aI00
aI00
aI00
aI00
aI00
aI00
aa(lp3679
I144489
aF329.86
aF652.02
aVp3
p3680
aS'dejavusans'
p3681
aS'#000000'
p3682
aF10.0
aI0
aI00
aI00
aI00
aI00
aI00
aI00
aI00
aI00
aa(lp3683
I14760
aF342.65
aF652.02
aVp3
p3684
aS'dejavusans'
p3685
aS'#000000'
p3686
aF10.0
aI0
aI00
aI00
aI00
aI00
aI00
aI00
aI00
aI00
aa(lp3687
I234378
aF388.81
aF652.02
aVp3
p3688
aS'dejavusans'
p3689
aS'#000000'
p3690
aF10.0
aI0
aI00
aI00
aI00
aI00
aI00
aI00
aI00
aI00
aa(lp3691
I234378
aF458.3713333333333
aF652.02
ag3688
aS'dejavusans'
p3692
aS'#000000'
p3693
aF10.0
aI0
aI00
aI00
aI00
aI00
aI00
aI00
aI00
aI00
aa(lp3694
I195547
aF108.1
aF668.02
aVp3
p3695
aS'dejavusans'
p3696
aS'#000000'
p3697
aF10.0
aI0
aI01
aI00
aI00
aI00
aI00
aI00
aI00
aI00
aa(lp3698
I203832
aF144.28
aF668.02
aVp3
p3699
aS'dejavusans'
p3700
aS'#000000'
p3701
aF10.0
aI0
aI00
aI00
aI00
aI00
aI00
aI00
aI00
aI00
aa(lp3702
I144489
aF165.07
aF668.02
aVp3
p3703
aS'dejavusans'
p3704
aS'#000000'
p3705
aF10.0
aI0
aI00
aI00
aI00
aI00
aI00
aI00
aI00
aI00
aa(lp3706
I218862
aF177.95
aF668.02
aVp3
p3707
aS'dejavusans'
p3708
aS'#000000'
p3709
aF10.0
aI0
aI01
aI00
aI00
aI00
aI00
aI00
aI00
aI00
aa(lp3710
I234378
aF205.42
aF668.02
aVp3
p3711
aS'dejavusans'
p3712
aS'#000000'
p3713
aF10.0
aI0
aI00
aI00
aI00
aI00
aI00
aI00
aI00
aI00
aa(lp3714
I234378
aF251.88
aF668.02
aVp3
p3715
aS'dejavusans'
p3716
aS'#000000'
p3717
aF10.0
aI0
aI00
aI00
aI00
aI00
aI00
aI00
aI00
aI00
aa(lp3718
I234378
aF306.83
aF668.02
aVp3
p3719
aS'dejavusans'
p3720
aS'#000000'
p3721
aF10.0
aI0
aI00
aI00
aI00
aI00
aI00
aI00
aI00
aI00
aa(lp3722
I78782
aF355.47
aF668.02
aVp3
p3723
aS'dejavusans'
p3724
aS'#000000'
p3725
aF10.0
aI0
aI01
aI01
aI00
aI00
aI00
aI00
aI00
aI00
aa(lp3726
I190806
aF386.15
aF668.02
aVp3
p3727
aS'dejavusans'
p3728
aS'#000000'
p3729
aF10.0
aI0
aI00
aI00
aI00
aI00
aI00
aI00
aI00
aI00
aa(lp3730
I234378
aF403.13
aF668.02
aVp3
p3731
aS'dejavusans'
p3732
aS'#000000'
p3733
aF10.0
aI0
aI01
aI00
aI00
aI00
aI00
aI00
aI00
aI00
aa(lp3734
I85218
aF433.2
aF668.02
aVp3
p3735
aS'dejavusans'
p3736
aS'#000000'
p3737
aF10.0
aI0
aI00
aI00
aI00
aI00
aI00
aI00
aI00
aI00
aa(lp3738
I226326
aF455.18
aF668.02
aVp3
p3739
aS'dejavusans'
p3740
aS'#000000'
p3741
aF10.0
aI0
aI01
aI00
aI00
aI00
aI00
aI00
aI00
aI00
aa(lp3742
I234378
aF478.56
aF668.02
aVp3
p3743
aS'dejavusans'
p3744
aS'#000000'
p3745
aF10.0
aI0
aI00
aI00
aI00
aI00
aI00
aI00
aI00
aI00
aa(lp3746
I234378
aF108.1
aF684.02
aVp3
p3747
aS'dejavusans'
p3748
aS'#000000'
p3749
aF10.0
aI0
aI01
aI00
aI00
aI00
aI00
aI00
aI00
aI00
aa(lp3750
I144483
aF142.79
aF684.02
aVp3
p3751
aS'dejavusans'
p3752
aS'#000000'
p3753
aF10.0
aI0
aI00
aI00
aI00
aI00
aI00
aI00
aI00
aI00
aa(lp3754
I60220
aF158.47
aF684.02
aVp3
p3755
aS'dejavusans'
p3756
aS'#000000'
p3757
aF10.0
aI0
aI00
aI00
aI00
aI00
aI00
aI00
aI00
aI00
aa(lp3758
I144483
aF217.01
aF684.02
aVp3
p3759
aS'dejavusans'
p3760
aS'#000000'
p3761
aF10.0
aI0
aI00
aI00
aI00
aI00
aI00
aI00
aI00
aI00
aa(lp3762
I227799
aF232.6
aF684.02
aVp3
p3763
aS'dejavusans'
p3764
aS'#000000'
p3765
aF10.0
aI0
aI00
aI00
aI00
aI00
aI00
aI00
aI00
aI00
aa(lp3766
I234378
aF259.67
aF684.02
aVp3
p3767
aS'dejavusans'
p3768
aS'#000000'
p3769
aF10.0
aI0
aI00
aI00
aI00
aI00
aI00
aI00
aI00
aI00
aa(lp3770
I10716
aF307.91
aF684.02
aVp3
p3771
aS'dejavusans'
p3772
aS'#000000'
p3773
aF10.0
aI0
aI00
aI00
aI00
aI00
aI00
aI00
aI00
aI00
aa(lp3774
I217603
aF328.18
aF684.02
aVp3
p3775
aS'dejavusans'
p3776
aS'#000000'
p3777
aF10.0
aI0
aI01
aI00
aI00
aI00
aI00
aI00
aI00
aI00
aa(lp3778
I153177
aF352.75
aF684.02
aVp3
p3779
aS'dejavusans'
p3780
aS'#000000'
p3781
aF10.0
aI0
aI01
aI00
aI00
aI00
aI00
aI00
aI00
aI00
aa(lp3782
I85218
aF421.81
aF684.02
aVp3
p3783
aS'dejavusans'
p3784
aS'#000000'
p3785
aF10.0
aI0
aI00
aI00
aI00
aI00
aI00
aI00
aI00
aI00
aa(lp3786
I137949
aF443.79
aF684.02
aVp3
p3787
aS'dejavusans'
p3788
aS'#000000'
p3789
aF10.0
aI0
aI01
aI00
aI00
aI00
aI00
aI00
aI00
aI00
aa(lp3790
I153177
aF469.67
aF684.02
aVp3
p3791
aS'dejavusans'
p3792
aS'#000000'
p3793
aF10.0
aI0
aI01
aI00
aI00
aI00
aI00
aI00
aI00
aI00
aa(lp3794
I234378
aF532.2609090909091
aF684.02
ag3791
aS'dejavusans'
p3795
aS'#000000'
p3796
aF10.0
aI0
aI00
aI00
aI00
aI00
aI00
aI00
aI00
aI00
aa(lp3797
I137949
aF108.1
aF75.82
aVp4
p3798
aS'dejavusans'
p3799
aS'#000000'
p3800
aF10.0
aI0
aI01
aI00
aI00
aI00
aI00
aI00
aI00
aI00
aa(lp3801
I113320
aF137.47
aF75.82
aVp4
p3802
aS'dejavusans'
p3803
aS'#000000'
p3804
aF10.0
aI0
aI01
aI00
aI00
aI00
aI00
aI00
aI00
aI00
aa(lp3805
I162177
aF217.11
aF75.82
aVp4
p3806
aS'dejavusans'
p3807
aS'#000000'
p3808
aF10.0
aI0
aI00
aI00
aI00
aI00
aI00
aI00
aI00
aI00
aa(lp3809
I16331
aF247.08
aF75.82
aVp4
p3810
aS'dejavusans'
p3811
aS'#000000'
p3812
aF10.0
aI0
aI00
aI00
aI00
aI00
aI00
aI00
aI00
aI00
aa(lp3813
I234378
aF264.96
aF75.82
aVp4
p3814
aS'dejavusans'
p3815
aS'#000000'
p3816
aF10.0
aI0
aI00
aI00
aI00
aI00
aI00
aI00
aI00
aI00
aa(lp3817
I166593
aF305.83
aF75.82
aVp4
p3818
aS'dejavusans'
p3819
aS'#000000'
p3820
aF10.0
aI0
aI00
aI00
aI00
aI00
aI00
aI00
aI00
aI00
aa(lp3821
I80364
aF318.51
aF75.82
aVp4
p3822
aS'dejavusans'
p3823
aS'#000000'
p3824
aF10.0
aI0
aI00
aI00
aI00
aI00
aI00
aI00
aI00
aI00
aa(lp3825
I137949
aF345.69
aF75.82
aVp4
p3826
aS'dejavusans'
p3827
aS'#000000'
p3828
aF10.0
aI0
aI00
aI00
aI00
aI00
aI00
aI00
aI00
aI00
aa(lp3829
I39311
aF374.06
aF75.82
aVp4
p3830
aS'dejavusans'
p3831
aS'#000000'
p3832
aF10.0
aI0
aI00
aI00
aI00
aI00
aI00
aI00
aI00
aI00
aa(lp3833
I234378
aF410.9230769230769
aF75.82
ag3830
aS'dejavusans'
p3834
aS'#000000'
p3835
aF10.0
aI0
aI00
aI00
aI00
aI00
aI00
aI00
aI00
aI00
aa(lp3836
I234378
aF416.18923076923073
aF75.82
ag3830
aS'dejavusans'
p3837
aS'#000000'
p3838
aF10.0
aI0
aI00
aI00
aI00
aI00
aI00
aI00
aI00
aI00
aa(lp3839
I234378
aF453.58461538461535
aF75.82
ag3830
aS'dejavusans'
p3840
aS'#000000'
p3841
aF10.0
aI0
aI00
aI00
aI00
aI00
aI00
aI00
aI00
aI00
aa(lp3842
I234378
aF468.8507692307692
aF75.82
ag3830
aS'dejavusans'
p3843
aS'#000000'
p3844
aF10.0
aI0
aI00
aI00
aI00
aI00
aI00
aI00
aI00
aI00
aa(lp3845
I137949
aF517.62
aF75.82
aVp4
p3846
aS'dejavusans'
p3847
aS'#000000'
p3848
aF10.0
aI0
aI00
aI00
aI00
aI00
aI00
aI00
aI00
aI00
aa(lp3849
I39311
aF108.1
aF92.42
aVp4
p3850
aS'dejavusans'
p3851
aS'#000000'
p3852
aF10.0
aI0
aI00
aI00
aI00
aI00
aI00
aI00
aI00
aI00
aa(lp3853
I85218
aF151.16
aF92.42
aVp4
p3854
aS'dejavusans'
p3855
aS'#000000'
p3856
aF10.0
aI0
aI00
aI00
aI00
aI00
aI00
aI00
aI00
aI00
aa(lp3857
I234378
aF173.05
aF92.42
aVp4
p3858
aS'dejavusans'
p3859
aS'#000000'
p3860
aF10.0
aI0
aI00
aI00
aI00
aI00
aI00
aI00
aI00
aI00
aa(lp3861
I234378
aF218.53
aF92.42
aVp4
p3862
aS'dejavusans'
p3863
aS'#000000'
p3864
aF10.0
aI0
aI00
aI00
aI00
aI00
aI00
aI00
aI00
aI00
aa(lp3865
I68365
aF245.72
aF92.42
aVp4
p3866
aS'dejavusans'
p3867
aS'#000000'
p3868
aF10.0
aI0
aI00
aI00
aI00
aI00
aI00
aI00
aI00
aI00
aa(lp3869
I35885
aF282.58
aF92.42
aVp4
p3870
aS'dejavusans'
p3871
aS'#000000'
p3872
aF10.0
aI0
aI00
aI00
aI00
aI00
aI00
aI00
aI00
aI00
aa(lp3873
I144483
aF315.95
aF92.42
aVp4
p3874
aS'dejavusans'
p3875
aS'#000000'
p3876
aF10.0
aI0
aI00
aI00
aI00
aI00
aI00
aI00
aI00
aI00
aa(lp3877
I194354
aF331.54
aF92.42
aVp4
p3878
aS'dejavusans'
p3879
aS'#000000'
p3880
aF10.0
aI0
aI00
aI00
aI00
aI00
aI00
aI00
aI00
aI00
aa(lp3881
I202216
aF351.12
aF92.42
aVp4
p3882
aS'dejavusans'
p3883
aS'#000000'
p3884
aF10.0
aI0
aI00
aI00
aI00
aI00
aI00
aI00
aI00
aI00
aa(lp3885
I234378
aF410.3641666666667
aF92.42
ag3882
aS'dejavusans'
p3886
aS'#000000'
p3887
aF10.0
aI0
aI00
aI00
aI00
aI00
aI00
aI00
aI00
aI00
aa(lp3888
I234378
aF108.1
aF107.82
aVp4
p3889
aS'dejavusans'
p3890
aS'#000000'
p3891
aF10.0
aI0
aI01
aI00
aI00
aI00
aI00
aI00
aI00
aI00
aa(lp3892
I144483
aF142.79
aF107.82
aVp4
p3893
aS'dejavusans'
p3894
aS'#000000'
p3895
aF10.0
aI0
aI00
aI00
aI00
aI00
aI00
aI00
aI00
aI00
aa(lp3896
I60220
aF158.47
aF107.82
aVp4
p3897
aS'dejavusans'
p3898
aS'#000000'
p3899
aF10.0
aI0
aI00
aI00
aI00
aI00
aI00
aI00
aI00
aI00
aa(lp3900
I144483
aF217.01
aF107.82
aVp4
p3901
aS'dejavusans'
p3902
aS'#000000'
p3903
aF10.0
aI0
aI00
aI00
aI00
aI00
aI00
aI00
aI00
aI00
aa(lp3904
I140882
aF232.6
aF107.82
aVp4
p3905
aS'dejavusans'
p3906
aS'#000000'
p3907
aF10.0
aI0
aI00
aI00
aI00
aI00
aI00
aI00
aI00
aI00
aa(lp3908
I234378
aF271.68
aF107.82
aVp4
p3909
aS'dejavusans'
p3910
aS'#000000'
p3911
aF10.0
aI0
aI00
aI00
aI00
aI00
aI00
aI00
aI00
aI00
aa(lp3912
I234378
aF299.05
aF107.82
aVp4
p3913
aS'dejavusans'
p3914
aS'#000000'
p3915
aF10.0
aI0
aI01
aI01
aI00
aI00
aI00
aI00
aI00
aI00
aa(lp3916
I85218
aF322.34
aF107.82
aVp4
p3917
aS'dejavusans'
p3918
aS'#000000'
p3919
aF10.0
aI0
aI00
aI00
aI00
aI00
aI00
aI00
aI00
aI00
aa(lp3920
I234378
aF344.33
aF107.82
aVp4
p3921
aS'dejavusans'
p3922
aS'#000000'
p3923
aF10.0
aI0
aI01
aI01
aI00
aI00
aI00
aI00
aI00
aI00
aa(lp3924
I234378
aF359.97499999999997
aF107.82
ag3921
aS'dejavusans'
p3925
aS'#000000'
p3926
aF10.0
aI0
aI00
aI00
aI00
aI00
aI00
aI00
aI00
aI00
aa(lp3927
I16331
aF108.1
aF123.82
aVp4
p3928
aS'dejavusans'
p3929
aS'#000000'
p3930
aF10.0
aI0
aI01
aI00
aI00
aI00
aI00
aI00
aI00
aI00
aa(lp3931
I166593
aF123.38
aF123.82
aVp4
p3932
aS'dejavusans'
p3933
aS'#000000'
p3934
aF10.0
aI0
aI00
aI00
aI00
aI00
aI00
aI00
aI00
aI00
aa(lp3935
I53211
aF132.67
aF123.82
aVp4
p3936
aS'dejavusans'
p3937
aS'#000000'
p3938
aF10.0
aI0
aI00
aI00
aI00
aI00
aI00
aI00
aI00
aI00
aa(lp3939
I132100
aF160.34
aF123.82
aVp4
p3940
aS'dejavusans'
p3941
aS'#000000'
p3942
aF10.0
aI0
aI00
aI00
aI00
aI00
aI00
aI00
aI00
aI00
aa(lp3943
I125458
aF207.89
aF123.82
aVp4
p3944
aS'dejavusans'
p3945
aS'#000000'
p3946
aF10.0
aI0
aI00
aI00
aI00
aI00
aI00
aI00
aI00
aI00
aa(lp3947
I78878
aF247.35
aF123.82
aVp4
p3948
aS'dejavusans'
p3949
aS'#000000'
p3950
aF10.0
aI0
aI00
aI00
aI00
aI00
aI00
aI00
aI00
aI00
aa(lp3951
I234378
aF290.32
aF123.82
aVp4
p3952
aS'dejavusans'
p3953
aS'#000000'
p3954
aF10.0
aI0
aI00
aI00
aI00
aI00
aI00
aI00
aI00
aI00
aa(lp3955
I53211
aF351.18
aF123.82
aVp4
p3956
aS'dejavusans'
p3957
aS'#000000'
p3958
aF10.0
aI0
aI00
aI00
aI00
aI00
aI00
aI00
aI00
aI00
aa(lp3959
I61195
aF378.94
aF123.82
aVp4
p3960
aS'dejavusans'
p3961
aS'#000000'
p3962
aF10.0
aI0
aI00
aI00
aI00
aI00
aI00
aI00
aI00
aI00
aa(lp3963
I192651
aF420.5
aF123.82
aVp4
p3964
aS'dejavusans'
p3965
aS'#000000'
p3966
aF10.0
aI0
aI00
aI00
aI00
aI00
aI00
aI00
aI00
aI00
aa(lp3967
I113826
aF435.89
aF123.82
aVp4
p3968
aS'dejavusans'
p3969
aS'#000000'
p3970
aF10.0
aI0
aI00
aI00
aI00
aI00
aI00
aI00
aI00
aI00
aa(lp3971
I50998
aF473.45
aF123.82
aVp4
p3972
aS'dejavusans'
p3973
aS'#000000'
p3974
aF10.0
aI0
aI00
aI00
aI00
aI00
aI00
aI00
aI00
aI00
aa(lp3975
I234378
aF504.92
aF123.82
aVp4
p3976
aS'dejavusans'
p3977
aS'#000000'
p3978
aF10.0
aI0
aI00
aI00
aI00
aI00
aI00
aI00
aI00
aI00
aa(lp3979
I49053
aF108.1
aF139.82
aVp4
p3980
aS'dejavusans'
p3981
aS'#000000'
p3982
aF10.0
aI0
aI01
aI00
aI00
aI00
aI00
aI00
aI00
aI00
aa(lp3983
I194354
aF151.84
aF139.82
aVp4
p3984
aS'dejavusans'
p3985
aS'#000000'
p3986
aF10.0
aI0
aI00
aI00
aI00
aI00
aI00
aI00
aI00
aI00
aa(lp3987
I185339
aF171.42
aF139.82
aVp4
p3988
aS'dejavusans'
p3989
aS'#000000'
p3990
aF10.0
aI0
aI00
aI00
aI00
aI00
aI00
aI00
aI00
aI00
aa(lp3991
I221291
aF207.7
aF139.82
aVp4
p3992
aS'dejavusans'
p3993
aS'#000000'
p3994
aF10.0
aI0
aI00
aI00
aI00
aI00
aI00
aI00
aI00
aI00
aa(lp3995
I234378
aF234.98
aF139.82
aVp4
p3996
aS'dejavusans'
p3997
aS'#000000'
p3998
aF10.0
aI0
aI00
aI00
aI00
aI00
aI00
aI00
aI00
aI00
aa(lp3999
I166176
aF265.15
aF139.82
aVp4
p4000
aS'dejavusans'
p4001
aS'#000000'
p4002
aF10.0
aI0
aI01
aI00
aI00
aI00
aI00
aI00
aI00
aI00
aa(lp4003
I85218
aF324.01
aF139.82
aVp4
p4004
aS'dejavusans'
p4005
aS'#000000'
p4006
aF10.0
aI0
aI00
aI00
aI00
aI00
aI00
aI00
aI00
aI00
aa(lp4007
I234378
aF345.9
aF139.82
aVp4
p4008
aS'dejavusans'
p4009
aS'#000000'
p4010
aF10.0
aI0
aI01
aI00
aI00
aI00
aI00
aI00
aI00
aI00
aa(lp4011
I234378
aF379.78875
aF139.82
ag4008
aS'dejavusans'
p4012
aS'#000000'
p4013
aF10.0
aI0
aI00
aI00
aI00
aI00
aI00
aI00
aI00
aI00
aa(lp4014
I53211
aF108.1
aF155.82
aVp4
p4015
aS'dejavusans'
p4016
aS'#000000'
p4017
aF10.0
aI0
aI01
aI00
aI00
aI00
aI00
aI00
aI00
aI00
aa(lp4018
I85218
aF136.65
aF155.82
aVp4
p4019
aS'dejavusans'
p4020
aS'#000000'
p4021
aF10.0
aI0
aI00
aI00
aI00
aI00
aI00
aI00
aI00
aI00
aa(lp4022
I142554
aF158.93
aF155.82
aVp4
p4023
aS'dejavusans'
p4024
aS'#000000'
p4025
aF10.0
aI0
aI00
aI00
aI00
aI00
aI00
aI00
aI00
aI00
aa(lp4026
I234378
aF222.18
aF155.82
aVp4
p4027
aS'dejavusans'
p4028
aS'#000000'
p4029
aF10.0
aI0
aI00
aI00
aI00
aI00
aI00
aI00
aI00
aI00
aa(lp4030
I140548
aF258.64
aF155.82
aVp4
p4031
aS'dejavusans'
p4032
aS'#000000'
p4033
aF10.0
aI0
aI00
aI00
aI00
aI00
aI00
aI00
aI00
aI00
aa(lp4034
I89480
aF311.08
aF155.82
aVp4
p4035
aS'dejavusans'
p4036
aS'#000000'
p4037
aF10.0
aI0
aI00
aI00
aI00
aI00
aI00
aI00
aI00
aI00
aa(lp4038
I234378
aF324.56
aF155.82
aVp4
p4039
aS'dejavusans'
p4040
aS'#000000'
p4041
aF10.0
aI0
aI01
aI01
aI00
aI00
aI00
aI00
aI00
aI00
aa(lp4042
I210461
aF349.93
aF155.82
aVp4
p4043
aS'dejavusans'
p4044
aS'#000000'
p4045
aF10.0
aI0
aI00
aI00
aI00
aI00
aI00
aI00
aI00
aI00
aa(lp4046
I234378
aF379.4
aF155.82
aVp4
p4047
aS'dejavusans'
p4048
aS'#000000'
p4049
aF10.0
aI0
aI00
aI00
aI00
aI00
aI00
aI00
aI00
aI00
aa(lp4050
I85218
aF432.38
aF155.82
aVp4
p4051
aS'dejavusans'
p4052
aS'#000000'
p4053
aF10.0
aI0
aI00
aI00
aI00
aI00
aI00
aI00
aI00
aI00
aa(lp4054
I234378
aF454.66
aF155.82
aVp4
p4055
aS'dejavusans'
p4056
aS'#000000'
p4057
aF10.0
aI0
aI00
aI00
aI00
aI00
aI00
aI00
aI00
aI00
aa(lp4058
I89480
aF507.81
aF155.82
aVp4
p4059
aS'dejavusans'
p4060
aS'#000000'
p4061
aF10.0
aI0
aI00
aI00
aI00
aI00
aI00
aI00
aI00
aI00
aa(lp4062
I234378
aF521.39
aF155.82
aVp4
p4063
aS'dejavusans'
p4064
aS'#000000'
p4065
aF10.0
aI0
aI01
aI01
aI00
aI00
aI00
aI00
aI00
aI00
aa(lp4066
I234378
aF533.23
aF155.82
ag4063
aS'dejavusans'
p4067
aS'#000000'
p4068
aF10.0
aI0
aI00
aI00
aI00
aI00
aI00
aI00
aI00
aI00
aa(lp4069
I184171
aF108.1
aF172.42
aVp4
p4070
aS'dejavusans'
p4071
aS'#000000'
p4072
aF10.0
aI0
aI01
aI00
aI00
aI00
aI00
aI00
aI00
aI00
aa(lp4073
I85218
aF174.65
aF172.42
aVp4
p4074
aS'dejavusans'
p4075
aS'#000000'
p4076
aF10.0
aI0
aI00
aI00
aI00
aI00
aI00
aI00
aI00
aI00
aa(lp4077
I3878
aF196.54
aF172.42
aVp4
p4078
aS'dejavusans'
p4079
aS'#000000'
p4080
aF10.0
aI0
aI01
aI00
aI00
aI00
aI00
aI00
aI00
aI00
aa(lp4081
I234378
aF252.89
aF172.42
aVp4
p4082
aS'dejavusans'
p4083
aS'#000000'
p4084
aF10.0
aI0
aI01
aI00
aI00
aI00
aI00
aI00
aI00
aI00
aa(lp4085
I234378
aF319.3884615384615
aF172.42
ag4082
aS'dejavusans'
p4086
aS'#000000'
p4087
aF10.0
aI0
aI00
aI00
aI00
aI00
aI00
aI00
aI00
aI00
aa(lp4088
I198478
aF108.1
aF187.82
aVp4
p4089
aS'dejavusans'
p4090
aS'#000000'
p4091
aF10.0
aI0
aI01
aI00
aI00
aI00
aI00
aI00
aI00
aI00
aa(lp4092
I199246
aF136.87
aF187.82
aVp4
p4093
aS'dejavusans'
p4094
aS'#000000'
p4095
aF10.0
aI0
aI00
aI00
aI00
aI00
aI00
aI00
aI00
aI00
aa(lp4096
I144489
aF197.41
aF187.82
aVp4
p4097
aS'dejavusans'
p4098
aS'#000000'
p4099
aF10.0
aI0
aI00
aI00
aI00
aI00
aI00
aI00
aI00
aI00
aa(lp4100
I194354
aF211.79
aF187.82
aVp4
p4101
aS'dejavusans'
p4102
aS'#000000'
p4103
aF10.0
aI0
aI00
aI00
aI00
aI00
aI00
aI00
aI00
aI00
aa(lp4104
I234378
aF232.97
aF187.82
aVp4
p4105
aS'dejavusans'
p4106
aS'#000000'
p4107
aF10.0
aI0
aI00
aI00
aI00
aI00
aI00
aI00
aI00
aI00
aa(lp4108
I68032
aF270.73
aF187.82
aVp4
p4109
aS'dejavusans'
p4110
aS'#000000'
p4111
aF10.0
aI0
aI00
aI00
aI00
aI00
aI00
aI00
aI00
aI00
aa(lp4112
I85218
aF341.47
aF187.82
aVp4
p4113
aS'dejavusans'
p4114
aS'#000000'
p4115
aF10.0
aI0
aI00
aI00
aI00
aI00
aI00
aI00
aI00
aI00
aa(lp4116
I61195
aF365.05
aF187.82
aVp4
p4117
aS'dejavusans'
p4118
aS'#000000'
p4119
aF10.0
aI0
aI00
aI00
aI00
aI00
aI00
aI00
aI00
aI00
aa(lp4120
I95104
aF408.11
aF187.82
aVp4
p4121
aS'dejavusans'
p4122
aS'#000000'
p4123
aF10.0
aI0
aI00
aI00
aI00
aI00
aI00
aI00
aI00
aI00
aa(lp4124
I234378
aF433.99333333333334
aF187.82
ag4121
aS'dejavusans'
p4125
aS'#000000'
p4126
aF10.0
aI0
aI00
aI00
aI00
aI00
aI00
aI00
aI00
aI00
aa(lp4127
I216903
aF444.08
aF187.82
aVp4
p4128
aS'dejavusans'
p4129
aS'#000000'
p4130
aF10.0
aI0
aI00
aI00
aI00
aI00
aI00
aI00
aI00
aI00
aa(lp4131
I194354
aF488.44
aF187.82
aVp4
p4132
aS'dejavusans'
p4133
aS'#000000'
p4134
aF10.0
aI0
aI00
aI00
aI00
aI00
aI00
aI00
aI00
aI00
aa(lp4135
I234378
aF509.62
aF187.82
aVp4
p4136
aS'dejavusans'
p4137
aS'#000000'
p4138
aF10.0
aI0
aI00
aI00
aI00
aI00
aI00
aI00
aI00
aI00
aa(lp4139
I85218
aF108.1
aF204.42
aVp4
p4140
aS'dejavusans'
p4141
aS'#000000'
p4142
aF10.0
aI0
aI00
aI00
aI00
aI00
aI00
aI00
aI00
aI00
aa(lp4143
I234378
aF130.08
aF204.42
aVp4
p4144
aS'dejavusans'
p4145
aS'#000000'
p4146
aF10.0
aI0
aI00
aI00
aI00
aI00
aI00
aI00
aI00
aI00
aa(lp4147
I89480
aF198.23
aF204.42
aVp4
p4148
aS'dejavusans'
p4149
aS'#000000'
p4150
aF10.0
aI0
aI00
aI00
aI00
aI00
aI00
aI00
aI00
aI00
aa(lp4151
I41890
aF211.42
aF204.42
aVp4
p4152
aS'dejavusans'
p4153
aS'#000000'
p4154
aF10.0
aI0
aI00
aI00
aI00
aI00
aI00
aI00
aI00
aI00
aa(lp4155
I76633
aF226.29
aF204.42
aVp4
p4156
aS'dejavusans'
p4157
aS'#000000'
p4158
aF10.0
aI0
aI00
aI00
aI00
aI00
aI00
aI00
aI00
aI00
aa(lp4159
I234378
aF260.07
aF204.42
aVp4
p4160
aS'dejavusans'
p4161
aS'#000000'
p4162
aF10.0
aI0
aI00
aI00
aI00
aI00
aI00
aI00
aI00
aI00
aa(lp4163
I35885
aF332.11
aF204.42
aVp4
p4164
aS'dejavusans'
p4165
aS'#000000'
p4166
aF10.0
aI0
aI00
aI00
aI00
aI00
aI00
aI00
aI00
aI00
aa(lp4167
I144483
aF365.39
aF204.42
aVp4
p4168
aS'dejavusans'
p4169
aS'#000000'
p4170
aF10.0
aI0
aI00
aI00
aI00
aI00
aI00
aI00
aI00
aI00
aa(lp4171
I74495
aF381.07
aF204.42
aVp4
p4172
aS'dejavusans'
p4173
aS'#000000'
p4174
aF10.0
aI0
aI00
aI00
aI00
aI00
aI00
aI00
aI00
aI00
aa(lp4175
I234378
aF419.13
aF204.42
aVp4
p4176
aS'dejavusans'
p4177
aS'#000000'
p4178
aF10.0
aI0
aI00
aI00
aI00
aI00
aI00
aI00
aI00
aI00
aa(lp4179
I53211
aF473.47
aF204.42
aVp4
p4180
aS'dejavusans'
p4181
aS'#000000'
p4182
aF10.0
aI0
aI00
aI00
aI00
aI00
aI00
aI00
aI00
aI00
aa(lp4183
I234378
aF496.5116666666667
aF204.42
ag4180
aS'dejavusans'
p4184
aS'#000000'
p4185
aF10.0
aI0
aI00
aI00
aI00
aI00
aI00
aI00
aI00
aI00
aa(lp4186
I91899
aF108.1
aF222.82
aVp4
p4187
aS'dejavusans'
p4188
aS'#000000'
p4189
aF10.0
aI0
aI01
aI00
aI00
aI00
aI00
aI00
aI00
aI00
aa(lp4190
I18259
aF151.97
aF222.82
aVp4
p4191
aS'dejavusans'
p4192
aS'#000000'
p4193
aF10.0
aI0
aI00
aI00
aI00
aI00
aI00
aI00
aI00
aI00
aa(lp4194
I234378
aF179.54500000000002
aF222.82
ag4191
aS'dejavusans'
p4195
aS'#000000'
p4196
aF10.0
aI0
aI00
aI00
aI00
aI00
aI00
aI00
aI00
aI00
aa(lp4197
I159046
aF185.06
aF222.82
ag4191
aS'dejavusans'
p4198
aS'#000000'
p4199
aF10.0
aI0
aI00
aI00
aI00
aI00
aI00
aI00
aI00
aI00
aa(lp4200
I234378
aF222.82
aF222.82
aVp4
p4201
aS'dejavusans'
p4202
aS'#000000'
p4203
aF10.0
aI0
aI00
aI00
aI00
aI00
aI00
aI00
aI00
aI00
aa(lp4204
I190806
aF251.89
aF222.82
aVp4
p4205
aS'dejavusans'
p4206
aS'#000000'
p4207
aF10.0
aI0
aI00
aI00
aI00
aI00
aI00
aI00
aI00
aI00
aa(lp4208
I194354
aF270.17
aF222.82
aVp4
p4209
aS'dejavusans'
p4210
aS'#000000'
p4211
aF10.0
aI0
aI00
aI00
aI00
aI00
aI00
aI00
aI00
aI00
aa(lp4212
I234378
aF291.25
aF222.82
aVp4
p4213
aS'dejavusans'
p4214
aS'#000000'
p4215
aF10.0
aI0
aI00
aI00
aI00
aI00
aI00
aI00
aI00
aI00
aa(lp4216
I234378
aF356.19
aF222.82
aVp4
p4217
aS'dejavusans'
p4218
aS'#000000'
p4219
aF10.0
aI0
aI00
aI00
aI00
aI00
aI00
aI00
aI00
aI00
aa(lp4220
I85218
aF406.84
aF222.82
aVp4
p4221
aS'dejavusans'
p4222
aS'#000000'
p4223
aF10.0
aI0
aI00
aI00
aI00
aI00
aI00
aI00
aI00
aI00
aa(lp4224
I60534
aF430.32
aF222.82
aVp4
p4225
aS'dejavusans'
p4226
aS'#000000'
p4227
aF10.0
aI0
aI00
aI00
aI00
aI00
aI00
aI00
aI00
aI00
aa(lp4228
I234378
aF455.09
aF222.82
aVp4
p4229
aS'dejavusans'
p4230
aS'#000000'
p4231
aF10.0
aI0
aI00
aI00
aI00
aI00
aI00
aI00
aI00
aI00
aa(lp4232
I194354
aF522.94
aF222.82
aVp4
p4233
aS'dejavusans'
p4234
aS'#000000'
p4235
aF10.0
aI0
aI00
aI00
aI00
aI00
aI00
aI00
aI00
aI00
aa(lp4236
I123665
aF108.1
aF239.42
aVp4
p4237
aS'dejavusans'
p4238
aS'#000000'
p4239
aF10.0
aI0
aI00
aI00
aI00
aI00
aI00
aI00
aI00
aI00
aa(lp4240
I190806
aF166.44
aF239.42
aVp4
p4241
aS'dejavusans'
p4242
aS'#000000'
p4243
aF10.0
aI0
aI00
aI00
aI00
aI00
aI00
aI00
aI00
aI00
aa(lp4244
I194354
aF183.33
aF239.42
aVp4
p4245
aS'dejavusans'
p4246
aS'#000000'
p4247
aF10.0
aI0
aI00
aI00
aI00
aI00
aI00
aI00
aI00
aI00
aa(lp4248
I234378
aF202.91
aF239.42
aVp4
p4249
aS'dejavusans'
p4250
aS'#000000'
p4251
aF10.0
aI0
aI00
aI00
aI00
aI00
aI00
aI00
aI00
aI00
aa(lp4252
I175989
aF236.89
aF239.42
aVp4
p4253
aS'dejavusans'
p4254
aS'#000000'
p4255
aF10.0
aI0
aI00
aI00
aI00
aI00
aI00
aI00
aI00
aI00
aa(lp4256
I27471
aF260.38
aF239.42
aVp4
p4257
aS'dejavusans'
p4258
aS'#000000'
p4259
aF10.0
aI0
aI00
aI00
aI00
aI00
aI00
aI00
aI00
aI00
aa(lp4260
I16331
aF287.95
aF239.42
aVp4
p4261
aS'dejavusans'
p4262
aS'#000000'
p4263
aF10.0
aI0
aI00
aI00
aI00
aI00
aI00
aI00
aI00
aI00
aa(lp4264
I38609
aF302.44
aF239.42
aVp4
p4265
aS'dejavusans'
p4266
aS'#000000'
p4267
aF10.0
aI0
aI00
aI00
aI00
aI00
aI00
aI00
aI00
aI00
aa(lp4268
I144489
aF326.12
aF239.42
aVp4
p4269
aS'dejavusans'
p4270
aS'#000000'
p4271
aF10.0
aI0
aI00
aI00
aI00
aI00
aI00
aI00
aI00
aI00
aa(lp4272
I194354
aF338.91
aF239.42
aVp4
p4273
aS'dejavusans'
p4274
aS'#000000'
p4275
aF10.0
aI0
aI00
aI00
aI00
aI00
aI00
aI00
aI00
aI00
aa(lp4276
I18259
aF358.49
aF239.42
aVp4
p4277
aS'dejavusans'
p4278
aS'#000000'
p4279
aF10.0
aI0
aI00
aI00
aI00
aI00
aI00
aI00
aI00
aI00
aa(lp4280
I121847
aF394.27
aF239.42
aVp4
p4281
aS'dejavusans'
p4282
aS'#000000'
p4283
aF10.0
aI0
aI00
aI00
aI00
aI00
aI00
aI00
aI00
aI00
aa(lp4284
I61195
aF416.65
aF239.42
aVp4
p4285
aS'dejavusans'
p4286
aS'#000000'
p4287
aF10.0
aI0
aI00
aI00
aI00
aI00
aI00
aI00
aI00
aI00
aa(lp4288
I234378
aF452.91875
aF239.42
ag4285
aS'dejavusans'
p4289
aS'#000000'
p4290
aF10.0
aI0
aI00
aI00
aI00
aI00
aI00
aI00
aI00
aI00
aa(lp4291
I61211
aF72.1
aF270.42
aVp4
p4292
aS'dejavusans'
p4293
aS'#001f5f'
p4294
aF10.0
aI1
aI01
aI00
aI00
aI00
aI00
aI00
aI00
aI00
aa(lp4295
I234378
aF141.75
aF270.42
aVp4
p4296
aS'dejavusans'
p4297
aS'#001f5f'
p4298
aF10.0
aI1
aI01
aI00
aI00
aI00
aI00
aI00
aI00
aI00
aa(lp4299
I234378
aF217.59266666666667
aF270.42
ag4296
aS'dejavusans'
p4300
aS'#001f5f'
p4301
aF10.0
aI1
aI00
aI00
aI00
aI00
aI00
aI00
aI00
aI00
aa(lp4302
I234378
aF108.1
aF288.02
aVp4
p4303
aS'dejavusans'
p4304
aS'#000000'
p4305
aF10.0
aI0
aI01
aI00
aI00
aI00
aI00
aI00
aI00
aI00
aa(lp4306
I22476
aF146.85
aF288.02
aVp4
p4307
aS'dejavusans'
p4308
aS'#000000'
p4309
aF10.0
aI0
aI01
aI01
aI00
aI00
aI00
aI00
aI00
aI00
aa(lp4310
I131049
aF159.04
aF288.02
aVp4
p4311
aS'dejavusans'
p4312
aS'#000000'
p4313
aF10.0
aI0
aI00
aI00
aI00
aI00
aI00
aI00
aI00
aI00
aa(lp4314
I222791
aF185.43
aF288.02
aVp4
p4315
aS'dejavusans'
p4316
aS'#000000'
p4317
aF10.0
aI0
aI01
aI00
aI00
aI00
aI00
aI00
aI00
aI00
aa(lp4318
I234378
aF217.3
aF288.02
aVp4
p4319
aS'dejavusans'
p4320
aS'#000000'
p4321
aF10.0
aI0
aI01
aI00
aI00
aI00
aI00
aI00
aI00
aI00
aa(lp4322
I41479
aF262.87
aF288.02
aVp4
p4323
aS'dejavusans'
p4324
aS'#000000'
p4325
aF10.0
aI0
aI01
aI00
aI00
aI00
aI00
aI00
aI00
aI00
aa(lp4326
I144489
aF303.22
aF288.02
aVp4
p4327
aS'dejavusans'
p4328
aS'#000000'
p4329
aF10.0
aI0
aI01
aI00
aI00
aI00
aI00
aI00
aI00
aI00
aa(lp4330
I199937
aF317.8
aF288.02
aVp4
p4331
aS'dejavusans'
p4332
aS'#000000'
p4333
aF10.0
aI0
aI01
aI00
aI00
aI00
aI00
aI00
aI00
aI00
aa(lp4334
I234378
aF375.5775
aF288.02
ag4331
aS'dejavusans'
p4335
aS'#000000'
p4336
aF10.0
aI0
aI00
aI00
aI00
aI00
aI00
aI00
aI00
aI00
aa(lp4337
I234378
aF384.14
aF288.02
aVp4
p4338
aS'dejavusans'
p4339
aS'#000000'
p4340
aF10.0
aI0
aI01
aI00
aI00
aI00
aI00
aI00
aI00
aI00
aa(lp4341
I234378
aF408.2733333333333
aF288.02
ag4338
aS'dejavusans'
p4342
aS'#000000'
p4343
aF10.0
aI0
aI00
aI00
aI00
aI00
aI00
aI00
aI00
aI00
aa(lp4344
I118838
aF416.31
aF288.02
aVp4
p4345
aS'dejavusans'
p4346
aS'#000000'
p4347
aF10.0
aI0
aI01
aI00
aI00
aI00
aI00
aI00
aI00
aI00
aa(lp4348
I234378
aF444.08
aF288.02
aVp4
p4349
aS'dejavusans'
p4350
aS'#000000'
p4351
aF10.0
aI0
aI01
aI00
aI00
aI00
aI00
aI00
aI00
aI00
aa(lp4352
I234378
aF486.97777777777776
aF288.02
ag4349
aS'dejavusans'
p4353
aS'#000000'
p4354
aF10.0
aI0
aI00
aI00
aI00
aI00
aI00
aI00
aI00
aI00
aa(lp4355
I166593
aF495.65
aF288.02
aVp4
p4356
aS'dejavusans'
p4357
aS'#000000'
p4358
aF10.0
aI0
aI01
aI01
aI00
aI00
aI00
aI00
aI00
aI00
aa(lp4359
I234378
aF500.9233333333333
aF288.02
ag4356
aS'dejavusans'
p4360
aS'#000000'
p4361
aF10.0
aI0
aI00
aI00
aI00
aI00
aI00
aI00
aI00
aI00
aa(lp4362
I232784
aF506.1966666666666
aF288.02
ag4356
aS'dejavusans'
p4363
aS'#000000'
p4364
aF10.0
aI0
aI01
aI01
aI00
aI00
aI00
aI00
aI00
aI00
aa(lp4365
I1
aI1
aI0
aI0
aI0
aI0
aI0
aI0
aI1
aI1
aI1
aI0
aI0
aI0
aI0
aI0
aI0
aI0
aI0
aI0
aI0
aI0
aI0
aI0
aI0
aI0
aI0
aI0
aI0
aI0
aI0
aI0
aI0
aI0
aI0
aI0
aI0
aI0
aI0
aI0
aI0
aI0
aI0
aI0
aI0
aI0
aI0
aI0
aI0
aI0
aI0
aI0
aI0
aI0
aI0
aI0
aI0
aI0
aI0
aI0
aI0
aI1
aI1
aI1
aI0
aI0
aI0
aI0
aI0
aI0
aI0
aI0
aI0
aI0
aI0
aI0
aI0
aI0
aI0
aI0
aI0
aI0
aI0
aI0
aI0
aI0
aI0
aI0
aI0
aI0
aI0
aI0
aI0
aI0
aI0
aI0
aI0
aI0
aI0
aI0
aI0
aI0
aI0
aI0
aI0
aI0
aI0
aI0
aI0
aI0
aI0
aI0
aI0
aI0
aI0
aI0
aI0
aI0
aI0
aI0
aI0
aI0
aI0
aI0
aI0
aI0
aI0
aI0
aI0
aI0
aI0
aI0
aI0
aI0
aI0
aI0
aI0
aI0
aI0
aI0
aI0
aI0
aI0
aI0
aI0
aI0
aI0
aI0
aI0
aI0
aI0
aI0
aI0
aI0
aI0
aI0
aI0
aI0
aI0
aI0
aI0
aI0
aI0
aI0
aI0
aI0
aI0
aI0
aI0
aI0
aI0
aI0
aI0
aI0
aI0
aI0
aI0
aI0
aI0
aI0
aI0
aI0
aI0
aI0
aI0
aI0
aI0
aI0
aI0
aI0
aI0
aI0
aI0
aI0
aI0
aI0
aI0
aI0
aI0
aI0
aI0
aI0
aI0
aI0
aI0
aI0
aI0
aI0
aI0
aI0
aI0
aI0
aI0
aI0
aI0
aI0
aI0
aI0
aI0
aI0
aI0
aI0
aI0
aI0
aI0
aI0
aI0
aI0
aI0
aI0
aI0
aI0
aI0
aI0
aI0
aI0
aI0
aI0
aI0
aI0
aI0
aI0
aI0
aI0
aI0
aI0
aI0
aI0
aI0
aI0
aI0
aI0
aI0
aI0
aI0
aI0
aI0
aI0
aI0
aI0
aI0
aI0
aI0
aI0
aI0
aI0
aI0
aI0
aI0
aI0
aI0
aI0
aI0
aI0
aI0
aI0
aI0
aI0
aI0
aI0
aI0
aI0
aI0
aI0
aI0
aI0
aI0
aI0
aI0
aI0
aI0
aI0
aI0
aI0
aI0
aI0
aI0
aI0
aI0
aI0
aI0
aI0
aI0
aI0
aI0
aI0
aI0
aI0
aI0
aI0
aI0
aI0
aI0
aI0
aI0
aI0
aI0
aI0
aI0
aI0
aI0
aI0
aI0
aI0
aI0
aI0
aI0
aI0
aI0
aI0
aI0
aI0
aI0
aI0
aI0
aI0
aI0
aI0
aI0
aI0
aI0
aI0
aI0
aI0
aI0
aI0
aI0
aI0
aI0
aI0
aI0
aI0
aI0
aI0
aI0
aI0
aI0
aI0
aI0
aI0
aI0
aI0
aI0
aI0
aI0
aI0
aI0
aI0
aI0
aI0
aI0
aI0
aI0
aI0
aI0
aI0
aI0
aI0
aI0
aI0
aI0
aI0
aI0
aI0
aI0
aI0
aI0
aI0
aI0
aI0
aI0
aI0
aI0
aI0
aI0
aI0
aI0
aI0
aI0
aI0
aI0
aI0
aI0
aI0
aI0
aI0
aI0
aI0
aI0
aI0
aI0
aI0
aI0
aI0
aI0
aI0
aI0
aI0
aI0
aI0
aI0
aI0
aI0
aI0
aI0
aI0
aI0
aI0
aI0
aI0
aI0
aI0
aI0
aI0
aI0
aI0
aI0
aI0
aI0
aI0
aI0
aI0
aI0
aI0
aI0
aI1
aI1
aI1
aI0
aI0
aI0
aI0
aI0
aI0
aI0
aI0
aI0
aI0
aI0
aI0
aI0
aI0
aI1
aI1
aI1
aI0
aI0
aI0
aI0
aI0
aI0
aI0
aI0
aI0
aI0
aI0
aI0
aI0
aI0
aI0
aI0
aI0
aI0
aI0
aI0
aI0
aI0
aI0
aI0
aI0
aI0
aI0
aI0
aI0
aI0
aI0
aI0
aI0
aI0
aI0
aI0
aI0
aI0
aI0
aI0
aI0
aI0
aI0
aI0
aI0
aI0
aI0
aI0
aI0
aI0
aI0
aI0
aI0
aI0
aI0
aI0
aI0
aI0
aI0
aI0
aI0
aI0
aI0
aI0
aI0
aI0
aI0
aI0
aI0
aI0
aI0
aI0
aI0
aI0
aI0
aI1
aI1
aI1
aI0
aI0
aI0
aI0
aI0
aI0
aI0
aI0
aI0
aI0
aI0
aI0
aI0
aI0
aI0
aI0
aI0
aI0
aI0
aI0
aI0
aI0
aI0
aI0
aI0
aI0
aI0
aI0
aI0
aI0
aI0
aI0
aI0
aI0
aI0
aI0
aI0
aI0
aI0
aI0
aI0
aI0
aI0
aI0
aI0
aI0
aI0
aI0
aI0
aI0
aI0
aI0
aI0
aI0
aI0
aI0
aI0
aI0
aI0
aI0
aI0
aI0
aI0
aI0
aI0
aI0
aI0
aI0
aI0
aI0
aI0
aI0
aI0
aI0
aI0
aI0
aI0
aI0
aI0
aI0
aI0
aI0
aI0
aI0
aI0
aI0
aI0
aI0
aI0
aI0
aI0
aI0
aI0
aI0
aI0
aI0
aI0
aI0
aI0
aI0
aI0
aI0
aI0
aI0
aI0
aI0
aI0
aI0
aI0
aI0
aI0
aI0
aI0
aI0
aI0
aI0
aI0
aI0
aI0
aI0
aI0
aI0
aI0
aI0
aI0
aI0
aI0
aI0
aI0
aI0
aI0
aI0
aI0
aI0
aI0
aI0
aI0
aI0
aI0
aI0
aI0
aI0
aI0
aI0
aI0
aI0
aI0
aI0
aI0
aI0
aI0
aI0
aI0
aI0
aI0
aI0
aI0
aI0
aI0
aI0
aI0
aI0
aI0
aI0
aI0
aI0
aI0
aI0
aI0
aI0
aI0
aI0
aI0
aI0
aI0
aI0
aI0
aI0
aI0
aI0
aI0
aI0
aI0
aI0
aI0
aI0
aI0
aI0
aI0
aI0
aI0
aI0
aI0
aI0
aI0
aI0
aI0
aI0
aI0
aI0
aI0
aI0
aI0
aI0
aI0
aI0
aI0
aI0
aI0
aI0
aI0
aI0
aI0
aI0
aI0
aI0
aI0
aI0
aI0
aI0
aI0
aI0
aI0
aI0
aI0
aI0
aI0
aI0
aI0
aI0
aI0
aI0
aI0
aI0
aI0
aI0
aI0
aI0
aI0
aI0
aI0
aI0
aI0
aI0
aI0
aI0
aI0
aI0
aI0
aI0
aI0
aI0
aI0
aI0
aI0
aI0
aI0
aI0
aI0
aI0
aI0
aI0
aI0
aI0
aI0
aI0
aI0
aI0
aI0
aI0
aI0
aI0
aI0
aI0
aI0
aI0
aI0
aI0
aI0
aI0
aI0
aI0
aI0
aI0
aI0
aI0
aI0
aI0
aI0
aI0
aI0
aI0
aI0
aI0
aI0
aI0
aI0
aI0
aI0
aI0
aI0
aI0
aI0
aI0
aI0
aI0
aI0
aI0
aI0
aI0
aI0
aI0
aI0
aI0
aI0
aI0
aI0
aI0
aI0
aI0
aI0
aI0
aI0
aI0
aI0
aI0
aI0
aI0
aI0
aI0
aI0
aI0
aI0
aI0
aI0
aI0
aI0
aI0
aI0
aI0
aI0
aI0
aI0
aI0
aI0
aI0
aI0
aI0
aI0
aI0
aI0
aI0
aI0
aI0
aI0
aI0
aI0
aI0
aI0
aI0
aI0
aI0
aI0
aI0
aI0
aI0
aI0
aI0
aI0
aI0
aI0
aI0
aI0
aI0
aI0
aI0
aI0
aI0
aI0
aI0
aI0
aI0
aI0
aI0
aI0
aI0
aI0
aI0
aI0
aI0
aI0
aI0
aI0
aI0
aI0
aI0
aI0
aI0
aI0
aI0
aI0
aI0
aI0
aI0
aI0
aI0
aI0
aI0
aI0
aI0
aI0
aI0
aI0
aI0
aI0
aI0
aI0
aI0
aI0
aI0
aI0
aI0
aI0
aI0
aI0
aI0
aI0
aI0
aI0
aI0
aI0
aI0
aI0
aI0
aI0
aI0
aI0
aI0
aI0
aI0
aI0
aI0
aI0
aI0
aI0
aI0
aI0
aI0
aI0
aI0
aI0
aI0
aI0
aI0
aI0
aI0
aI0
aI0
aI0
aI0
aI0
aI0
aI0
aI0
aI0
aI0
aI0
aI0
aI0
aI0
aI0
aI0
aI0
aI0
aI0
aI0
aI0
aI0
aI0
aI0
aI0
aI0
aI0
aI0
aI0
aI0
aI0
aI0
aI0
aI0
aI0
aI0
aI0
aI0
aI0
aI0
aI0
aI0
aI0
aI0
aI0
aI0
aI0
aI0
aI0
aI0
aI0
aI0
aI0
aI0
aI0
aI0
aI0
aI0
aI0
aI0
aI0
aI0
aI0
aI0
aI0
aI0
aI0
aI0
aI0
aI0
aI0
aI0
aI0
aI0
aI0
aI0
aI0
aI0
aI0
aI0
aI0
aI0
aI0
aI0
aI0
aI0
aI0
aI0
aI0
aI0
aI0
aI0
aI0
aI0
aI0
aI0
aI0
aI0
aI0
aI0
aI0
aI0
aI0
aI0
aI0
aI0
aI0
aI0
aI0
aI0
aI0
aI0
aI0
aI0
aI0
aI0
aI1
aI1
aI1
aI0
aI0
aI0
aI0
aI0
aI0
aI0
aI0
aI0
aI0
aI0
aI0
aI0
aI0
aI0
aI0
aI0
atp4366
.