((lp0
(lp1
I234378
aF40.9084
aF53.0111
aVp1
p2
aS'utopia'
p3
aS'#02304b'
p4
aF11.8479
aI1
aI01
aI00
aI00
aI00
aI00
aI00
aI00
aI00
aa(lp5
I234378
aF95.7051
aF53.0111
aVp1
p6
aS'utopia'
p7
aS'#02304b'
p8
aF11.8479
aI1
aI01
aI00
aI00
aI00
aI00
aI00
aI00
aI00
aa(lp9
I84662
aF46.8324
aF74.4677
aVp1
p10
aS'utopia'
p11
aS'#656565'
p12
aF8.88595
aI0
aI01
aI00
aI00
aI00
aI00
aI00
aI00
aI00
aa(lp13
I21716
aF68.3068
aF74.4677
aVp1
p14
aS'utopia'
p15
aS'#656565'
p16
aF8.88595
aI0
aI01
aI00
aI00
aI00
aI00
aI00
aI00
aI00
aa(lp17
I234378
aF83.20912
aF74.4677
ag14
aS'utopia'
p18
aS'#656565'
p19
aF8.88595
aI0
aI00
aI00
aI00
aI00
aI00
aI00
aI00
aI00
aa(lp20
I234378
aF89.0407
aF74.4677
aVp1
p21
aS'utopia'
p22
aS'#656565'
p23
aF8.88595
aI0
aI01
aI01
aI00
aI00
aI00
aI00
aI00
aI00
aa(lp24
I234378
aF100.23475
aF74.4677
ag21
aS'utopia'
p25
aS'#656565'
p26
aF8.88595
aI0
aI00
aI00
aI00
aI00
aI00
aI00
aI00
aI00
aa(lp27
I234378
aF106.072
aF74.4677
aVp1
p28
aS'utopia'
p29
aS'#656565'
p30
aF8.88595
aI0
aI01
aI00
aI00
aI00
aI00
aI00
aI00
aI00
aa(lp31
I234378
aF139.74382222222224
aF74.4677
ag28
aS'utopia'
p32
aS'#656565'
p33
aF8.88595
aI0
aI00
aI00
aI00
aI00
aI00
aI00
aI00
aI00
aa(lp34
I148996
aF146.059
aF74.4677
aVp1
p35
aS'utopia'
p36
aS'#656565'
p37
aF8.88595
aI0
aI01
aI00
aI00
aI00
aI00
aI00
aI00
aI00
aa(lp38
I234378
aF171.49694285714287
aF74.4677
ag35
aS'utopia'
p39
aS'#656565'
p40
aF8.88595
aI0
aI00
aI00
aI00
aI00
aI00
aI00
aI00
aI00
aa(lp41
I24461
aF175.7366
aF74.4677
ag35
aS'utopia'
p42
aS'#656565'
p43
aF8.88595
aI0
aI01
aI00
aI00
aI00
aI00
aI00
aI00
aI00
aa(lp44
I234378
aF194.17454285714285
aF74.4677
ag35
aS'utopia'
p45
aS'#656565'
p46
aF8.88595
aI0
aI00
aI00
aI00
aI00
aI00
aI00
aI00
aI00
aa(lp47
I234378
aF207.52
aF74.4677
aVp1
p48
aS'utopia'
p49
aS'#656565'
p50
aF8.88595
aI0
aI01
aI00
aI00
aI00
aI00
aI00
aI00
aI00
aa(lp51
I234378
aF231.73805714285714
aF74.4677
ag48
aS'utopia'
p52
aS'#656565'
p53
aF8.88595
aI0
aI00
aI00
aI00
aI00
aI00
aI00
aI00
aI00
aa(lp54
I234378
aF237.88
aF74.4677
aVp1
p55
aS'utopia'
p56
aS'#656565'
p57
aF8.88595
aI0
aI01
aI00
aI00
aI00
aI00
aI00
aI00
aI00
aa(lp58
I234378
aF253.49794666666665
aF74.4677
ag55
aS'utopia'
p59
aS'#656565'
p60
aF8.88595
aI0
aI00
aI00
aI00
aI00
aI00
aI00
aI00
aI00
aa(lp61
I234378
aF257.4024333333333
aF74.4677
ag55
aS'utopia'
p62
aS'#656565'
p63
aF8.88595
aI0
aI01
aI00
aI00
aI00
aI00
aI00
aI00
aI00
aa(lp64
I234378
aF298.601
aF74.4677
aVp1
p65
aS'utopia'
p66
aS'#656565'
p67
aF8.88595
aI0
aI00
aI00
aI00
aI00
aI00
aI00
aI00
aI00
aa(lp68
I234378
aF302.21842857142855
aF74.4677
ag65
aS'utopia'
p69
aS'#656565'
p70
aF8.88595
aI0
aI01
aI00
aI00
aI00
aI00
aI00
aI00
aI00
aa(lp71
I234378
aF325.999
aF74.4677
aVp1
p72
aS'utopia'
p73
aS'#656565'
p74
aF8.88595
aI0
aI00
aI00
aI00
aI00
aI00
aI00
aI00
aI00
aa(lp75
I89217
aF330.442
aF74.4677
aVp1
p76
aS'utopia'
p77
aS'#656565'
p78
aF8.88595
aI0
aI01
aI00
aI00
aI00
aI00
aI00
aI00
aI00
aa(lp79
I17350
aF349.695
aF74.4677
aVp1
p80
aS'utopia'
p81
aS'#656565'
p82
aF8.88595
aI0
aI01
aI00
aI00
aI00
aI00
aI00
aI00
aI00
aa(lp83
I119502
aF369.689
aF74.4677
aVp1
p84
aS'utopia'
p85
aS'#656565'
p86
aF8.88595
aI0
aI01
aI00
aI00
aI00
aI00
aI00
aI00
aI00
aa(lp87
I234378
aF397.94469444444445
aF74.4677
ag84
aS'utopia'
p88
aS'#656565'
p89
aF8.88595
aI0
aI00
aI00
aI00
aI00
aI00
aI00
aI00
aI00
aa(lp90
I234378
aF401.98122222222224
aF74.4677
ag84
aS'utopia'
p91
aS'#656565'
p92
aF8.88595
aI0
aI01
aI01
aI00
aI00
aI00
aI00
aI00
aI00
aa(lp93
I234378
aF410.09080555555556
aF74.4677
ag84
aS'utopia'
p94
aS'#656565'
p95
aF8.88595
aI0
aI00
aI00
aI00
aI00
aI00
aI00
aI00
aI00
aa(lp96
I170895
aF418.12733333333335
aF74.4677
ag84
aS'utopia'
p97
aS'#656565'
p98
aF8.88595
aI0
aI01
aI00
aI00
aI00
aI00
aI00
aI00
aI00
aa(lp99
I234378
aF40.9084
aF84.8346
aVp1
p100
aS'utopia'
p101
aS'#656565'
p102
aF8.88595
aI0
aI01
aI01
aI00
aI00
aI00
aI00
aI00
aI00
aa(lp103
I169745
aF57.9398
aF84.8346
aVp1
p104
aS'utopia'
p105
aS'#656565'
p106
aF8.88595
aI0
aI00
aI00
aI00
aI00
aI00
aI00
aI00
aI00
aa(lp107
I234378
aF77.1927
aF84.8346
aVp1
p108
aS'utopia'
p109
aS'#656565'
p110
aF8.88595
aI0
aI00
aI00
aI01
aI01
aI00
aI00
aI00
aI00
aa(lp111
I234378
aF89.0407
aF84.8346
aVp1
p112
aS'utopia'
p113
aS'#656565'
p114
aF8.88595
aI0
aI00
aI00
aI00
aI00
aI00
aI00
aI00
aI00
aa(lp115
I144489
aF114.218
aF84.8346
aVp1
p116
aS'utopia'
p117
aS'#656565'
p118
aF8.88595
aI0
aI00
aI00
aI00
aI00
aI00
aI00
aI00
aI00
aa(lp119
I60220
aF124.584
aF84.8346
aVp1
p120
aS'utopia'
p121
aS'#656565'
p122
aF8.88595
aI0
aI01
aI00
aI00
aI00
aI00
aI00
aI00
aI00
aa(lp123
I234378
aF166.42609090909093
aF84.8346
ag120
aS'utopia'
p124
aS'#656565'
p125
aF8.88595
aI0
aI00
aI00
aI00
aI00
aI00
aI00
aI00
aI00
aa(lp126
I234378
aF59.4208
aF132.967
aVp1
p127
aS'utopia'
p128
aS'#0d75b4'
p129
aF8.88595
aI0
aI00
aI00
aI00
aI00
aI00
aI01
aI00
aI00
aa(lp130
I234378
aF301.563
aF124.081
aVp1
p131
aS'utopia'
p132
aS'#000000'
p133
aF8.88595
aI0
aI00
aI00
aI01
aI01
aI01
aI00
aI00
aI00
aa(lp134
I234378
aF301.563
aF141.853
aVp1
p135
aS'utopia'
p136
aS'#000000'
p137
aF8.88595
aI0
aI00
aI00
aI01
aI01
aI01
aI00
aI00
aI00
aa(lp138
I15548
aF55.7183
aF176.656
aVp1
p139
aS'utopia'
p140
aS'#878787'
p141
aF8.88595
aI0
aI01
aI00
aI00
aI00
aI00
aI00
aI00
aI00
aa(lp142
I104542
aF89.0407
aF176.656
aVp1
p143
aS'utopia'
p144
aS'#878787'
p145
aF8.88595
aI0
aI01
aI00
aI00
aI00
aI00
aI00
aI00
aI00
aa(lp146
I234378
aF133.94655
aF176.656
ag143
aS'utopia'
p147
aS'#878787'
p148
aF8.88595
aI0
aI00
aI00
aI00
aI00
aI00
aI00
aI00
aI00
aa(lp149
I149270
aF142.356
aF176.656
aVp1
p150
aS'utopia'
p151
aS'#000000'
p152
aF8.88595
aI0
aI01
aI00
aI00
aI00
aI00
aI00
aI00
aI00
aa(lp153
I234229
aF182.343
aF176.656
aVp1
p154
aS'utopia'
p155
aS'#000000'
p156
aF8.88595
aI0
aI01
aI00
aI00
aI00
aI00
aI00
aI00
aI00
aa(lp157
I16915
aF308.227
aF176.656
aVp1
p158
aS'utopia'
p159
aS'#878787'
p160
aF8.88595
aI0
aI01
aI00
aI00
aI00
aI00
aI00
aI00
aI00
aa(lp161
I60220
aF330.442
aF176.656
aVp1
p162
aS'utopia'
p163
aS'#878787'
p164
aF8.88595
aI0
aI01
aI00
aI00
aI00
aI00
aI00
aI00
aI00
aa(lp165
I234378
aF372.28409090909093
aF176.656
ag162
aS'utopia'
p166
aS'#878787'
p167
aF8.88595
aI0
aI00
aI00
aI00
aI00
aI00
aI00
aI00
aI00
aa(lp168
I234378
aF380.796
aF176.656
aVp1
p169
aS'utopia'
p170
aS'#000000'
p171
aF8.88595
aI0
aI00
aI00
aI01
aI01
aI00
aI00
aI00
aI00
aa(lp172
I91136
aF387.46
aF176.656
aVp1
p173
aS'utopia'
p174
aS'#000000'
p175
aF8.88595
aI0
aI01
aI00
aI00
aI00
aI00
aI00
aI00
aI00
aa(lp176
I234378
aF403.18559999999997
aF176.656
ag173
aS'utopia'
p177
aS'#000000'
p178
aF8.88595
aI0
aI00
aI00
aI00
aI00
aI00
aI00
aI00
aI00
aa(lp179
I59734
aF407.11699999999996
aF176.656
ag173
aS'utopia'
p180
aS'#000000'
p181
aF8.88595
aI0
aI00
aI00
aI00
aI00
aI00
aI00
aI00
aI00
aa(lp182
I234378
aF411.04839999999996
aF176.656
ag173
aS'utopia'
p183
aS'#000000'
p184
aF8.88595
aI0
aI00
aI00
aI00
aI00
aI00
aI00
aI00
aI00
aa(lp185
I234378
aF417.08
aF176.656
aVp1
p186
aS'utopia'
p187
aS'#000000'
p188
aF8.88595
aI0
aI00
aI00
aI01
aI01
aI00
aI00
aI00
aI00
aa(lp189
I63729
aF423.745
aF176.656
aVp1
p190
aS'utopia'
p191
aS'#000000'
p192
aF8.88595
aI0
aI01
aI00
aI00
aI00
aI00
aI00
aI00
aI00
aa(lp193
I234378
aF446.4985625
aF176.656
ag190
aS'utopia'
p194
aS'#000000'
p195
aF8.88595
aI0
aI00
aI00
aI00
aI00
aI00
aI00
aI00
aI00
aa(lp196
I59734
aF451.04927499999997
aF176.656
ag190
aS'utopia'
p197
aS'#000000'
p198
aF8.88595
aI0
aI00
aI00
aI00
aI00
aI00
aI00
aI00
aI00
aa(lp199
I234378
aF455.59998749999994
aF176.656
ag190
aS'utopia'
p200
aS'#000000'
p201
aF8.88595
aI0
aI00
aI00
aI00
aI00
aI00
aI00
aI00
aI00
aa(lp202
I15548
aF55.7183
aF194.428
aVp1
p203
aS'utopia'
p204
aS'#878787'
p205
aF8.88595
aI0
aI01
aI00
aI00
aI00
aI00
aI00
aI00
aI00
aa(lp206
I2006
aF89.0407
aF194.428
aVp1
p207
aS'utopia'
p208
aS'#878787'
p209
aF8.88595
aI0
aI01
aI00
aI00
aI00
aI00
aI00
aI00
aI00
aa(lp210
I234378
aF124.77815
aF194.428
ag207
aS'utopia'
p211
aS'#878787'
p212
aF8.88595
aI0
aI00
aI00
aI00
aI00
aI00
aI00
aI00
aI00
aa(lp213
I234378
aF134.211
aF194.428
aVp1
p214
aS'utopia'
p215
aS'#000000'
p216
aF8.88595
aI0
aI01
aI00
aI00
aI00
aI00
aI00
aI00
aI00
aa(lp217
I229300
aF308.227
aF194.428
aVp1
p218
aS'utopia'
p219
aS'#878787'
p220
aF8.88595
aI0
aI01
aI00
aI00
aI00
aI00
aI00
aI00
aI00
aa(lp221
I78894
aF338.588
aF194.428
aVp1
p222
aS'utopia'
p223
aS'#878787'
p224
aF8.88595
aI0
aI01
aI00
aI00
aI00
aI00
aI00
aI00
aI00
aa(lp225
I234378
aF360.9019142857143
aF194.428
ag222
aS'utopia'
p226
aS'#878787'
p227
aF8.88595
aI0
aI00
aI00
aI00
aI00
aI00
aI00
aI00
aI00
aa(lp228
I234378
aF368.948
aF194.428
aVp1
p229
aS'utopia'
p230
aS'#000000'
p231
aF8.88595
aI0
aI01
aI00
aI00
aI00
aI00
aI00
aI00
aI00
aa(lp232
I234378
aF380.796
aF194.428
aVp1
p233
aS'utopia'
p234
aS'#000000'
p235
aF8.88595
aI0
aI00
aI00
aI01
aI01
aI01
aI00
aI00
aI00
aa(lp236
I234378
aF391.903
aF194.428
aVp1
p237
aS'utopia'
p238
aS'#000000'
p239
aF8.88595
aI0
aI01
aI00
aI00
aI00
aI00
aI00
aI00
aI00
aa(lp240
I15548
aF55.7183
aF212.2
aVp1
p241
aS'utopia'
p242
aS'#878787'
p243
aF8.88595
aI0
aI01
aI00
aI00
aI00
aI00
aI00
aI00
aI00
aa(lp244
I17057
aF89.0407
aF212.2
aVp1
p245
aS'utopia'
p246
aS'#878787'
p247
aF8.88595
aI0
aI01
aI00
aI00
aI00
aI00
aI00
aI00
aI00
aa(lp248
I234378
aF122.05430000000001
aF212.2
ag245
aS'utopia'
p249
aS'#878787'
p250
aF8.88595
aI0
aI00
aI00
aI00
aI00
aI00
aI00
aI00
aI00
aa(lp251
I234378
aF130.508
aF212.2
aVp1
p252
aS'utopia'
p253
aS'#000000'
p254
aF8.88595
aI0
aI01
aI00
aI00
aI00
aI00
aI00
aI00
aI00
aa(lp255
I234378
aF173.457
aF212.2
aVp1
p256
aS'utopia'
p257
aS'#000000'
p258
aF8.88595
aI0
aI00
aI00
aI00
aI00
aI00
aI00
aI00
aI00
aa(lp259
I234378
aF180.122
aF212.2
aVp1
p260
aS'utopia'
p261
aS'#000000'
p262
aF8.88595
aI0
aI01
aI00
aI00
aI00
aI00
aI00
aI00
aI00
aa(lp263
I234378
aF308.227
aF212.2
aVp1
p264
aS'utopia'
p265
aS'#878787'
p266
aF8.88595
aI0
aI01
aI00
aI00
aI00
aI00
aI00
aI00
aI00
aa(lp267
I234378
aF346.733
aF212.2
aVp1
p268
aS'utopia'
p269
aS'#878787'
p270
aF8.88595
aI0
aI01
aI01
aI00
aI00
aI00
aI00
aI00
aI00
aa(lp271
I234378
aF361.2593
aF212.2
ag268
aS'utopia'
p272
aS'#878787'
p273
aF8.88595
aI0
aI00
aI00
aI00
aI00
aI00
aI00
aI00
aI00
aa(lp274
I63091
aF370.429
aF212.2
aVp1
p275
aS'utopia'
p276
aS'#000000'
p277
aF8.88595
aI0
aI01
aI00
aI00
aI00
aI00
aI00
aI00
aI00
aa(lp278
I234378
aF387.46
aF212.2
aVp1
p279
aS'utopia'
p280
aS'#000000'
p281
aF8.88595
aI0
aI01
aI00
aI00
aI00
aI00
aI00
aI00
aI00
aa(lp282
I234378
aF55.7183
aF229.972
aVp1
p283
aS'utopia'
p284
aS'#878787'
p285
aF8.88595
aI0
aI01
aI00
aI00
aI00
aI00
aI00
aI00
aI00
aa(lp286
I234378
aF70.62062
aF229.972
ag283
aS'utopia'
p287
aS'#878787'
p288
aF8.88595
aI0
aI00
aI00
aI00
aI00
aI00
aI00
aI00
aI00
aa(lp289
I17057
aF76.4522
aF229.972
aVp1
p290
aS'utopia'
p291
aS'#878787'
p292
aF8.88595
aI0
aI01
aI00
aI00
aI00
aI00
aI00
aI00
aI00
aa(lp293
I234378
aF109.4658
aF229.972
ag290
aS'utopia'
p294
aS'#878787'
p295
aF8.88595
aI0
aI00
aI00
aI00
aI00
aI00
aI00
aI00
aI00
aa(lp296
I234378
aF117.92
aF229.972
aVp1
p297
aS'utopia'
p298
aS'#000000'
p299
aF8.88595
aI0
aI01
aI00
aI00
aI00
aI00
aI00
aI00
aI00
aa(lp300
I234378
aF160.869
aF229.972
aVp1
p301
aS'utopia'
p302
aS'#000000'
p303
aF8.88595
aI0
aI00
aI00
aI00
aI00
aI00
aI00
aI00
aI00
aa(lp304
I234378
aF167.533
aF229.972
aVp1
p305
aS'utopia'
p306
aS'#000000'
p307
aF8.88595
aI0
aI01
aI00
aI00
aI00
aI00
aI00
aI00
aI00
aa(lp308
I7204
aF308.227
aF229.972
aVp1
p309
aS'utopia'
p310
aS'#878787'
p311
aF8.88595
aI0
aI01
aI00
aI00
aI00
aI00
aI00
aI00
aI00
aa(lp312
I189220
aF340.809
aF229.972
aVp1
p313
aS'utopia'
p314
aS'#878787'
p315
aF8.88595
aI0
aI01
aI00
aI00
aI00
aI00
aI00
aI00
aI00
aa(lp316
I234378
aF366.93111428571433
aF229.972
ag313
aS'utopia'
p317
aS'#878787'
p318
aF8.88595
aI0
aI00
aI00
aI00
aI00
aI00
aI00
aI00
aI00
aa(lp319
I234378
aF375.613
aF229.972
aVp1
p320
aS'utopia'
p321
aS'#000000'
p322
aF8.88595
aI0
aI01
aI01
aI00
aI00
aI00
aI00
aI00
aI00
aa(lp323
I98580
aF55.7183
aF247.744
aVp1
p324
aS'utopia'
p325
aS'#878787'
p326
aF8.88595
aI0
aI01
aI00
aI00
aI00
aI00
aI00
aI00
aI00
aa(lp327
I166289
aF100.148
aF247.744
aVp1
p328
aS'utopia'
p329
aS'#878787'
p330
aF8.88595
aI0
aI01
aI00
aI00
aI00
aI00
aI00
aI00
aI00
aa(lp331
I234378
aF116.82751999999999
aF247.744
ag328
aS'utopia'
p332
aS'#878787'
p333
aF8.88595
aI0
aI00
aI00
aI00
aI00
aI00
aI00
aI00
aI00
aa(lp334
I22476
aF125.325
aF247.744
aVp1
p335
aS'utopia'
p336
aS'#000000'
p337
aF8.88595
aI0
aI01
aI01
aI00
aI00
aI00
aI00
aI00
aI00
aa(lp338
I234378
aF135.692
aF247.744
aVp1
p339
aS'utopia'
p340
aS'#000000'
p341
aF8.88595
aI0
aI01
aI00
aI00
aI00
aI00
aI00
aI00
aI00
aa(lp342
I123665
aF178.641
aF247.744
aVp1
p343
aS'utopia'
p344
aS'#000000'
p345
aF8.88595
aI0
aI01
aI00
aI00
aI00
aI00
aI00
aI00
aI00
aa(lp346
I234378
aF226.032
aF247.744
aVp1
p347
aS'utopia'
p348
aS'#000000'
p349
aF8.88595
aI0
aI01
aI00
aI00
aI00
aI00
aI00
aI00
aI00
aa(lp350
I234378
aF283.051
aF247.744
aVp1
p351
aS'utopia'
p352
aS'#000000'
p353
aF8.88595
aI0
aI00
aI00
aI00
aI00
aI00
aI00
aI00
aI00
aa(lp354
I20593
aF55.7183
aF258.111
aVp1
p355
aS'utopia'
p356
aS'#000000'
p357
aF8.88595
aI0
aI01
aI00
aI00
aI00
aI00
aI00
aI00
aI00
aa(lp358
I48671
aF308.227
aF247.744
aVp1
p359
aS'utopia'
p360
aS'#878787'
p361
aF8.88595
aI0
aI01
aI00
aI00
aI00
aI00
aI00
aI00
aI00
aa(lp362
I129688
aF336.366
aF247.744
aVp1
p363
aS'utopia'
p364
aS'#878787'
p365
aF8.88595
aI0
aI00
aI00
aI00
aI00
aI00
aI00
aI00
aI00
aa(lp366
I234378
aF360.58405714285715
aF247.744
ag363
aS'utopia'
p367
aS'#878787'
p368
aF8.88595
aI0
aI00
aI00
aI00
aI00
aI00
aI00
aI00
aI00
aa(lp369
I234378
aF368.948
aF247.744
aVp1
p370
aS'utopia'
p371
aS'#000000'
p372
aF8.88595
aI0
aI00
aI00
aI01
aI01
aI00
aI00
aI00
aI00
aa(lp373
I234378
aF375.613
aF247.744
aVp1
p374
aS'utopia'
p375
aS'#000000'
p376
aF8.88595
aI0
aI01
aI00
aI00
aI00
aI00
aI00
aI00
aI00
aa(lp377
I176435
aF55.7183
aF275.883
aVp1
p378
aS'utopia'
p379
aS'#878787'
p380
aF8.88595
aI0
aI01
aI00
aI00
aI00
aI00
aI00
aI00
aI00
aa(lp381
I234378
aF71.80542
aF275.883
ag378
aS'utopia'
p382
aS'#878787'
p383
aF8.88595
aI0
aI00
aI00
aI00
aI00
aI00
aI00
aI00
aI00
aa(lp384
I210461
aF80.1547
aF275.883
aVp1
p385
aS'utopia'
p386
aS'#000000'
p387
aF8.88595
aI0
aI01
aI00
aI00
aI00
aI00
aI00
aI00
aI00
aa(lp388
I175409
aF104.591
aF275.883
aVp1
p389
aS'utopia'
p390
aS'#000000'
p391
aF8.88595
aI0
aI01
aI00
aI00
aI00
aI00
aI00
aI00
aI00
aa(lp392
I234378
aF123.75304444444444
aF275.883
ag389
aS'utopia'
p393
aS'#000000'
p394
aF8.88595
aI0
aI00
aI00
aI00
aI00
aI00
aI00
aI00
aI00
aa(lp395
I2737
aF128.54355555555554
aF275.883
ag389
aS'utopia'
p396
aS'#000000'
p397
aF8.88595
aI0
aI01
aI00
aI00
aI00
aI00
aI00
aI00
aI00
aa(lp398
I175409
aF149.761
aF275.883
aVp1
p399
aS'utopia'
p400
aS'#000000'
p401
aF8.88595
aI0
aI01
aI00
aI00
aI00
aI00
aI00
aI00
aI00
aa(lp402
I74589
aF55.7183
aF293.654
aVp1
p403
aS'utopia'
p404
aS'#878787'
p405
aF8.88595
aI0
aI01
aI00
aI00
aI00
aI00
aI00
aI00
aI00
aa(lp406
I234378
aF87.41545555555555
aF293.654
ag403
aS'utopia'
p407
aS'#878787'
p408
aF8.88595
aI0
aI00
aI00
aI00
aI00
aI00
aI00
aI00
aI00
aa(lp409
I22476
aF95.7051
aF293.654
aVp1
p410
aS'utopia'
p411
aS'#000000'
p412
aF8.88595
aI0
aI01
aI01
aI00
aI00
aI00
aI00
aI00
aI00
aa(lp413
I234378
aF105.30374
aF293.654
ag410
aS'utopia'
p414
aS'#000000'
p415
aF8.88595
aI0
aI01
aI00
aI00
aI00
aI00
aI00
aI00
aI00
aa(lp416
I234378
aF139.69830000000002
aF293.654
ag410
aS'utopia'
p417
aS'#000000'
p418
aF8.88595
aI0
aI00
aI00
aI00
aI00
aI00
aI00
aI00
aI00
aa(lp419
I234378
aF134.99762
aF293.654
ag410
aS'utopia'
p420
aS'#000000'
p421
aF8.88595
aI0
aI01
aI00
aI00
aI00
aI00
aI00
aI00
aI00
aa(lp422
I234378
aF183.824
aF293.654
aVp1
p423
aS'utopia'
p424
aS'#000000'
p425
aF8.88595
aI0
aI01
aI00
aI00
aI00
aI00
aI00
aI00
aI00
aa(lp426
I231013
aF55.7183
aF311.426
aVp1
p427
aS'utopia'
p428
aS'#878787'
p429
aF8.88595
aI0
aI01
aI00
aI00
aI00
aI00
aI00
aI00
aI00
aa(lp430
I234378
aF72.7498
aF311.426
aVp1
p431
aS'utopia'
p432
aS'#878787'
p433
aF8.88595
aI0
aI01
aI00
aI00
aI00
aI00
aI00
aI00
aI00
aa(lp434
I234378
aF91.25542857142857
aF311.426
ag431
aS'utopia'
p435
aS'#878787'
p436
aF8.88595
aI0
aI00
aI00
aI00
aI00
aI00
aI00
aI00
aI00
aa(lp437
I84662
aF98.6671
aF311.426
aVp1
p438
aS'utopia'
p439
aS'#000000'
p440
aF8.88595
aI0
aI01
aI00
aI00
aI00
aI00
aI00
aI00
aI00
aa(lp441
I21716
aF120.141
aF311.426
aVp1
p442
aS'utopia'
p443
aS'#000000'
p444
aF8.88595
aI0
aI01
aI00
aI00
aI00
aI00
aI00
aI00
aI00
aa(lp445
I234378
aF135.04332
aF311.426
ag442
aS'utopia'
p446
aS'#000000'
p447
aF8.88595
aI0
aI00
aI00
aI00
aI00
aI00
aI00
aI00
aI00
aa(lp448
I234378
aF140.875
aF311.426
aVp1
p449
aS'utopia'
p450
aS'#000000'
p451
aF8.88595
aI0
aI01
aI01
aI00
aI00
aI00
aI00
aI00
aI00
aa(lp452
I234378
aF152.06905
aF311.426
ag449
aS'utopia'
p453
aS'#000000'
p454
aF8.88595
aI0
aI00
aI00
aI00
aI00
aI00
aI00
aI00
aI00
aa(lp455
I89217
aF157.907
aF311.426
aVp1
p456
aS'utopia'
p457
aS'#000000'
p458
aF8.88595
aI0
aI01
aI01
aI00
aI00
aI00
aI00
aI00
aI00
aa(lp459
I234378
aF176.36372
aF311.426
ag456
aS'utopia'
p460
aS'#000000'
p461
aF8.88595
aI0
aI00
aI00
aI00
aI00
aI00
aI00
aI00
aI00
aa(lp462
I106895
aF183.084
aF311.426
aVp1
p463
aS'utopia'
p464
aS'#000000'
p465
aF8.88595
aI0
aI01
aI01
aI00
aI00
aI00
aI00
aI00
aI00
aa(lp466
I234378
aF202.72552000000002
aF311.426
ag463
aS'utopia'
p467
aS'#000000'
p468
aF8.88595
aI0
aI00
aI00
aI00
aI00
aI00
aI00
aI00
aI00
aa(lp469
I218728
aF209.741
aF311.426
aVp1
p470
aS'utopia'
p471
aS'#000000'
p472
aF8.88595
aI0
aI01
aI00
aI00
aI00
aI00
aI00
aI00
aI00
aa(lp473
I234378
aF224.64332000000002
aF311.426
ag470
aS'utopia'
p474
aS'#000000'
p475
aF8.88595
aI0
aI00
aI00
aI00
aI00
aI00
aI00
aI00
aI00
aa(lp476
I234378
aF230.475
aF311.426
aVp1
p477
aS'utopia'
p478
aS'#000000'
p479
aF8.88595
aI0
aI01
aI00
aI00
aI00
aI00
aI00
aI00
aI00
aa(lp480
I234378
aF252.1542
aF311.426
ag477
aS'utopia'
p481
aS'#000000'
p482
aF8.88595
aI0
aI00
aI00
aI00
aI00
aI00
aI00
aI00
aI00
aa(lp483
I176767
aF257.874
aF311.426
aVp1
p484
aS'utopia'
p485
aS'#000000'
p486
aF8.88595
aI0
aI01
aI00
aI00
aI00
aI00
aI00
aI00
aI00
aa(lp487
I234378
aF295.96542
aF311.426
ag484
aS'utopia'
p488
aS'#000000'
p489
aF8.88595
aI0
aI00
aI00
aI00
aI00
aI00
aI00
aI00
aI00
aa(lp490
I148996
aF55.7183
aF321.793
aVp1
p491
aS'utopia'
p492
aS'#000000'
p493
aF8.88595
aI0
aI00
aI00
aI00
aI00
aI00
aI00
aI00
aI00
aa(lp494
I234378
aF78.66692857142857
aF321.793
ag491
aS'utopia'
p495
aS'#000000'
p496
aF8.88595
aI0
aI00
aI00
aI00
aI00
aI00
aI00
aI00
aI00
aa(lp497
I89217
aF84.5977
aF321.793
aVp1
p498
aS'utopia'
p499
aS'#000000'
p500
aF8.88595
aI0
aI01
aI00
aI00
aI00
aI00
aI00
aI00
aI00
aa(lp501
I17350
aF103.851
aF321.793
aVp1
p502
aS'utopia'
p503
aS'#000000'
p504
aF8.88595
aI0
aI01
aI00
aI00
aI00
aI00
aI00
aI00
aI00
aa(lp505
I119502
aF123.844
aF321.793
aVp1
p506
aS'utopia'
p507
aS'#000000'
p508
aF8.88595
aI0
aI00
aI00
aI00
aI00
aI00
aI00
aI00
aI00
aa(lp509
I234378
aF149.862475
aF321.793
ag506
aS'utopia'
p510
aS'#000000'
p511
aF8.88595
aI0
aI00
aI00
aI00
aI00
aI00
aI00
aI00
aI00
aa(lp512
I234378
aF155.685
aF321.793
aVp1
p513
aS'utopia'
p514
aS'#000000'
p515
aF8.88595
aI0
aI00
aI00
aI00
aI00
aI00
aI00
aI00
aI00
aa(lp516
I234378
aF188.6986
aF321.793
ag513
aS'utopia'
p517
aS'#000000'
p518
aF8.88595
aI0
aI00
aI00
aI00
aI00
aI00
aI00
aI00
aI00
aa(lp519
I234378
aF194.932
aF321.793
aVp1
p520
aS'utopia'
p521
aS'#000000'
p522
aF8.88595
aI0
aI00
aI00
aI00
aI00
aI00
aI00
aI00
aI00
aa(lp523
I234378
aF232.06181818181818
aF321.793
ag520
aS'utopia'
p524
aS'#000000'
p525
aF8.88595
aI0
aI00
aI00
aI00
aI00
aI00
aI00
aI00
aI00
aa(lp526
I234378
aF237.88
aF321.793
aVp1
p527
aS'utopia'
p528
aS'#000000'
p529
aF8.88595
aI0
aI01
aI00
aI00
aI00
aI00
aI00
aI00
aI00
aa(lp530
I234378
aF288.975
aF321.793
aVp1
p531
aS'utopia'
p532
aS'#000000'
p533
aF8.88595
aI0
aI00
aI00
aI00
aI00
aI00
aI00
aI00
aI00
aa(lp534
I234378
aF55.7183
aF332.16
aVp1
p535
aS'utopia'
p536
aS'#000000'
p537
aF8.88595
aI0
aI01
aI00
aI00
aI00
aI00
aI00
aI00
aI00
aa(lp538
I234378
aF71.21302
aF332.16
ag535
aS'utopia'
p539
aS'#000000'
p540
aF8.88595
aI0
aI00
aI00
aI00
aI00
aI00
aI00
aI00
aI00
aa(lp541
I151732
aF77.1927
aF332.16
aVp1
p542
aS'utopia'
p543
aS'#000000'
p544
aF8.88595
aI0
aI01
aI00
aI00
aI00
aI00
aI00
aI00
aI00
aa(lp545
I103850
aF100.889
aF332.16
aVp1
p546
aS'utopia'
p547
aS'#000000'
p548
aF8.88595
aI0
aI01
aI00
aI00
aI00
aI00
aI00
aI00
aI00
aa(lp549
I234378
aF126.806
aF332.16
aVp1
p550
aS'utopia'
p551
aS'#000000'
p552
aF8.88595
aI0
aI01
aI00
aI00
aI00
aI00
aI00
aI00
aI00
aa(lp553
I156028
aF174.198
aF332.16
aVp1
p554
aS'utopia'
p555
aS'#000000'
p556
aF8.88595
aI0
aI01
aI00
aI00
aI00
aI00
aI00
aI00
aI00
aa(lp557
I234378
aF192.62800000000001
aF332.16
ag554
aS'utopia'
p558
aS'#000000'
p559
aF8.88595
aI0
aI00
aI00
aI00
aI00
aI00
aI00
aI00
aI00
aa(lp560
I234378
aF197.2355
aF332.16
ag554
aS'utopia'
p561
aS'#000000'
p562
aF8.88595
aI0
aI01
aI01
aI00
aI00
aI00
aI00
aI00
aI00
aa(lp563
I234378
aF226.773
aF332.16
aVp1
p564
aS'utopia'
p565
aS'#000000'
p566
aF8.88595
aI0
aI00
aI00
aI00
aI00
aI00
aI00
aI00
aI00
aa(lp567
I234378
aF229.422495
aF332.16
ag564
aS'utopia'
p568
aS'#000000'
p569
aF8.88595
aI0
aI00
aI00
aI00
aI00
aI00
aI00
aI00
aI00
aa(lp570
I234378
aF234.178
aF332.16
aVp1
p571
aS'utopia'
p572
aS'#000000'
p573
aF8.88595
aI0
aI00
aI00
aI00
aI00
aI00
aI00
aI00
aI00
aa(lp574
I234378
aF238.621
aF332.16
aVp1
p575
aS'utopia'
p576
aS'#000000'
p577
aF8.88595
aI0
aI01
aI01
aI00
aI00
aI00
aI00
aI00
aI00
aa(lp578
I234378
aF252.03655
aF332.16
ag575
aS'utopia'
p579
aS'#000000'
p580
aF8.88595
aI0
aI00
aI00
aI00
aI00
aI00
aI00
aI00
aI00
aa(lp581
I170895
aF258.614
aF332.16
aVp1
p582
aS'utopia'
p583
aS'#000000'
p584
aF8.88595
aI0
aI01
aI00
aI00
aI00
aI00
aI00
aI00
aI00
aa(lp585
I234378
aF285.272
aF332.16
aVp1
p586
aS'utopia'
p587
aS'#000000'
p588
aF8.88595
aI0
aI01
aI01
aI00
aI00
aI00
aI00
aI00
aI00
aa(lp589
I234378
aF296.70326666666665
aF332.16
ag586
aS'utopia'
p590
aS'#000000'
p591
aF8.88595
aI0
aI00
aI00
aI00
aI00
aI00
aI00
aI00
aI00
aa(lp592
I51933
aF40.1679
aF369.203
aVp1
p593
aS'utopia'
p594
aS'#02304b'
p595
aF11.8479
aI1
aI01
aI00
aI00
aI00
aI00
aI00
aI00
aI00
aa(lp596
I60220
aF72.0093
aF369.203
aVp1
p597
aS'utopia'
p598
aS'#02304b'
p599
aF11.8479
aI1
aI01
aI00
aI00
aI00
aI00
aI00
aI00
aI00
aa(lp600
I234378
aF40.9084
aF400.92
aVp1
p601
aS'utopia'
p602
aS'#000000'
p603
aF10.3669
aI1
aI01
aI00
aI00
aI00
aI00
aI00
aI00
aI00
aa(lp604
I234378
aF77.9332
aF401.189
aVp1
p605
aS'utopia'
p606
aS'#656565'
p607
aF10.3669
aI0
aI00
aI00
aI00
aI00
aI00
aI00
aI00
aI00
aa(lp608
I15548
aF82.910625
aF401.189
ag605
aS'utopia'
p609
aS'#656565'
p610
aF10.3669
aI0
aI01
aI00
aI00
aI00
aI00
aI00
aI00
aI00
aa(lp611
I70289
aF120.141
aF401.189
aVp1
p612
aS'utopia'
p613
aS'#656565'
p614
aF10.3669
aI0
aI01
aI00
aI00
aI00
aI00
aI00
aI00
aI00
aa(lp615
I234378
aF163.48997777777777
aF401.189
ag612
aS'utopia'
p616
aS'#656565'
p617
aF10.3669
aI0
aI00
aI00
aI00
aI00
aI00
aI00
aI00
aI00
aa(lp618
I149270
aF40.9084
aF417.48
aVp1
p619
aS'utopia'
p620
aS'#656565'
p621
aF10.3669
aI0
aI01
aI00
aI00
aI00
aI00
aI00
aI00
aI00
aa(lp622
I234229
aF89.7812
aF417.48
aVp1
p623
aS'utopia'
p624
aS'#656565'
p625
aF10.3669
aI0
aI01
aI00
aI00
aI00
aI00
aI00
aI00
aI00
aa(lp626
I234378
aF127.546
aF417.48
aVp1
p627
aS'utopia'
p628
aS'#656565'
p629
aF10.3669
aI0
aI01
aI00
aI00
aI00
aI00
aI00
aI00
aI01
aa(lp630
I234378
aF148.28
aF417.48
aVp1
p631
aS'utopia'
p632
aS'#656565'
p633
aF10.3669
aI0
aI00
aI00
aI01
aI01
aI01
aI00
aI00
aI00
aa(lp634
I123583
aF40.9084
aF437.311
aVp1
p635
aS'utopia'
p636
aS'#656565'
p637
aF8.88595
aI0
aI01
aI00
aI00
aI00
aI00
aI00
aI00
aI00
aa(lp638
I16331
aF76.4522
aF437.311
aVp1
p639
aS'utopia'
p640
aS'#656565'
p641
aF8.88595
aI0
aI00
aI00
aI00
aI00
aI00
aI00
aI00
aI00
aa(lp642
I21716
aF86.8192
aF437.311
aVp1
p643
aS'utopia'
p644
aS'#656565'
p645
aF8.88595
aI0
aI01
aI00
aI00
aI00
aI00
aI00
aI00
aI00
aa(lp646
I85218
aF105.332
aF437.311
aVp1
p647
aS'utopia'
p648
aS'#656565'
p649
aF8.88595
aI0
aI00
aI00
aI00
aI00
aI00
aI00
aI00
aI00
aa(lp650
I234378
aF122.363
aF437.311
aVp1
p651
aS'utopia'
p652
aS'#656565'
p653
aF8.88595
aI0
aI01
aI01
aI01
aI00
aI00
aI00
aI00
aI00
aa(lp654
I100815
aF142.356
aF437.311
aVp1
p655
aS'utopia'
p656
aS'#656565'
p657
aF8.88595
aI0
aI01
aI00
aI00
aI00
aI00
aI00
aI00
aI00
aa(lp658
I48671
aF40.9084
aF447.678
aVp1
p659
aS'utopia'
p660
aS'#656565'
p661
aF8.88595
aI0
aI01
aI00
aI00
aI00
aI00
aI00
aI00
aI00
aa(lp662
I129688
aF69.0473
aF447.678
aVp1
p663
aS'utopia'
p664
aS'#656565'
p665
aF8.88595
aI0
aI01
aI00
aI00
aI00
aI00
aI00
aI00
aI00
aa(lp666
I234378
aF97.1861
aF447.678
aVp1
p667
aS'utopia'
p668
aS'#656565'
p669
aF8.88595
aI0
aI00
aI00
aI00
aI00
aI00
aI00
aI00
aI00
aa(lp670
I234378
aF101.629
aF447.678
aVp1
p671
aS'utopia'
p672
aS'#656565'
p673
aF8.88595
aI0
aI00
aI00
aI01
aI01
aI00
aI00
aI00
aI00
aa(lp674
I234378
aF108.294
aF447.678
aVp1
p675
aS'utopia'
p676
aS'#656565'
p677
aF8.88595
aI0
aI01
aI00
aI00
aI00
aI00
aI00
aI00
aI00
aa(lp678
I124531
aF40.1679
aF483.239
aVp1
p679
aS'utopia'
p680
aS'#02304b'
p681
aF11.8479
aI1
aI01
aI00
aI00
aI00
aI00
aI00
aI00
aI00
aa(lp682
I209062
aF40.9084
aF511.523
aVp1
p683
aS'utopia'
p684
aS'#656565'
p685
aF10.3669
aI0
aI01
aI00
aI00
aI00
aI00
aI00
aI00
aI00
aa(lp686
I234378
aF63.1233
aF511.523
aVp1
p687
aS'utopia'
p688
aS'#656565'
p689
aF10.3669
aI0
aI01
aI00
aI00
aI00
aI00
aI00
aI00
aI00
aa(lp690
I234378
aF111.996
aF511.523
aVp1
p691
aS'utopia'
p692
aS'#656565'
p693
aF10.3669
aI0
aI00
aI00
aI00
aI00
aI00
aI00
aI00
aI00
aa(lp694
I60201
aF117.92
aF511.523
aVp1
p695
aS'utopia'
p696
aS'#656565'
p697
aF10.3669
aI0
aI01
aI00
aI00
aI00
aI00
aI00
aI00
aI00
aa(lp698
I230071
aF137.913
aF511.523
aVp1
p699
aS'utopia'
p700
aS'#656565'
p701
aF10.3669
aI0
aI01
aI00
aI00
aI00
aI00
aI00
aI00
aI00
aa(lp702
I234378
aF164.571
aF511.523
aVp1
p703
aS'utopia'
p704
aS'#656565'
p705
aF10.3669
aI0
aI00
aI00
aI00
aI00
aI00
aI00
aI00
aI00
aa(lp706
I234378
aF40.9084
aF527.545
aVp1
p707
aS'utopia'
p708
aS'#000000'
p709
aF10.3669
aI1
aI01
aI01
aI00
aI00
aI00
aI00
aI00
aI00
aa(lp710
I234378
aF66.8258
aF527.545
aVp1
p711
aS'utopia'
p712
aS'#000000'
p713
aF10.3669
aI1
aI00
aI00
aI00
aI00
aI00
aI00
aI00
aI00
aa(lp714
I234378
aF72.41775454545454
aF527.545
ag711
aS'utopia'
p715
aS'#000000'
p716
aF10.3669
aI1
aI01
aI00
aI00
aI00
aI00
aI00
aI00
aI00
aa(lp717
I234378
aF122.74534545454544
aF527.545
ag711
aS'utopia'
p718
aS'#000000'
p719
aF10.3669
aI1
aI00
aI00
aI00
aI00
aI00
aI00
aI00
aI00
aa(lp720
I234378
aF40.9084
aF547.807
aVp1
p721
aS'utopia'
p722
aS'#656565'
p723
aF10.3669
aI0
aI01
aI00
aI00
aI00
aI00
aI00
aI00
aI00
aa(lp724
I40624
aF109.034
aF547.807
aVp1
p725
aS'utopia'
p726
aS'#656565'
p727
aF10.3669
aI0
aI01
aI00
aI00
aI00
aI00
aI00
aI00
aI00
aa(lp728
I153079
aF177.9
aF547.807
aVp1
p729
aS'utopia'
p730
aS'#656565'
p731
aF10.3669
aI0
aI01
aI00
aI00
aI00
aI00
aI00
aI00
aI00
aa(lp732
I234378
aF228.254
aF547.807
aVp1
p733
aS'utopia'
p734
aS'#656565'
p735
aF10.3669
aI0
aI00
aI00
aI00
aI00
aI00
aI00
aI00
aI00
aa(lp736
I234378
aF234.00884
aF547.807
ag733
aS'utopia'
p737
aS'#656565'
p738
aF10.3669
aI0
aI01
aI01
aI00
aI00
aI00
aI00
aI00
aI00
aa(lp739
I234378
aF251.27336
aF547.807
ag733
aS'utopia'
p740
aS'#656565'
p741
aF10.3669
aI0
aI00
aI00
aI00
aI00
aI00
aI00
aI00
aI00
aa(lp742
I135639
aF263.798
aF547.807
aVp1
p743
aS'utopia'
p744
aS'#656565'
p745
aF10.3669
aI0
aI00
aI00
aI00
aI00
aI00
aI00
aI00
aI00
aa(lp746
I234378
aF275.646
aF547.807
aVp1
p747
aS'utopia'
p748
aS'#656565'
p749
aF10.3669
aI0
aI00
aI00
aI01
aI01
aI01
aI00
aI00
aI00
aa(lp750
I234378
aF40.9084
aF575.946
aVp1
p751
aS'utopia'
p752
aS'#656565'
p753
aF10.3669
aI0
aI01
aI00
aI00
aI00
aI00
aI00
aI00
aI00
aa(lp754
I234378
aF117.18
aF575.946
aVp1
p755
aS'utopia'
p756
aS'#656565'
p757
aF10.3669
aI0
aI00
aI00
aI00
aI00
aI00
aI00
aI00
aI00
aa(lp758
I60201
aF123.103
aF575.946
aVp1
p759
aS'utopia'
p760
aS'#656565'
p761
aF10.3669
aI0
aI01
aI00
aI00
aI00
aI00
aI00
aI00
aI00
aa(lp762
I230071
aF143.097
aF575.946
aVp1
p763
aS'utopia'
p764
aS'#656565'
p765
aF10.3669
aI0
aI01
aI00
aI00
aI00
aI00
aI00
aI00
aI00
aa(lp766
I234378
aF169.755
aF575.946
aVp1
p767
aS'utopia'
p768
aS'#656565'
p769
aF10.3669
aI0
aI00
aI00
aI00
aI00
aI00
aI00
aI00
aI00
aa(lp770
I234378
aF40.9084
aF591.968
aVp1
p771
aS'utopia'
p772
aS'#000000'
p773
aF10.3669
aI1
aI01
aI01
aI00
aI00
aI00
aI00
aI00
aI00
aa(lp774
I234378
aF64.6043
aF591.968
aVp1
p775
aS'utopia'
p776
aS'#000000'
p777
aF10.3669
aI1
aI00
aI00
aI00
aI00
aI00
aI00
aI00
aI00
aa(lp778
I234378
aF70.19625454545454
aF591.968
ag775
aS'utopia'
p779
aS'#000000'
p780
aF10.3669
aI1
aI01
aI00
aI00
aI00
aI00
aI00
aI00
aI00
aa(lp781
I234378
aF120.52384545454544
aF591.968
ag775
aS'utopia'
p782
aS'#000000'
p783
aF10.3669
aI1
aI00
aI00
aI00
aI00
aI00
aI00
aI00
aI00
aa(lp784
I57501
aF40.9084
aF612.231
aVp1
p785
aS'utopia'
p786
aS'#656565'
p787
aF10.3669
aI0
aI01
aI00
aI00
aI00
aI00
aI00
aI00
aI00
aa(lp788
I234378
aF66.0853
aF612.231
aVp1
p789
aS'utopia'
p790
aS'#656565'
p791
aF10.3669
aI0
aI01
aI00
aI00
aI00
aI00
aI00
aI00
aI00
aa(lp792
I153079
aF110.515
aF612.231
aVp1
p793
aS'utopia'
p794
aS'#656565'
p795
aF10.3669
aI0
aI01
aI00
aI00
aI00
aI00
aI00
aI00
aI00
aa(lp796
I234378
aF160.869
aF612.231
aVp1
p797
aS'utopia'
p798
aS'#656565'
p799
aF10.3669
aI0
aI00
aI00
aI00
aI00
aI00
aI00
aI00
aI00
aa(lp800
I234378
aF166.92004
aF612.231
ag797
aS'utopia'
p801
aS'#656565'
p802
aF10.3669
aI0
aI01
aI01
aI00
aI00
aI00
aI00
aI00
aI00
aa(lp803
I234378
aF185.07316
aF612.231
ag797
aS'utopia'
p804
aS'#656565'
p805
aF10.3669
aI0
aI00
aI00
aI00
aI00
aI00
aI00
aI00
aI00
aa(lp806
I135639
aF197.894
aF612.231
aVp1
p807
aS'utopia'
p808
aS'#656565'
p809
aF10.3669
aI0
aI00
aI00
aI00
aI00
aI00
aI00
aI00
aI00
aa(lp810
I234378
aF209.741
aF612.231
aVp1
p811
aS'utopia'
p812
aS'#656565'
p813
aF10.3669
aI0
aI00
aI00
aI01
aI01
aI01
aI00
aI00
aI00
aa(lp814
I22476
aF40.1679
aF646.148
aVp1
p815
aS'utopia'
p816
aS'#02304b'
p817
aF11.8479
aI1
aI01
aI01
aI00
aI00
aI00
aI00
aI00
aI00
aa(lp818
I234378
aF54.2374
aF646.148
aVp1
p819
aS'utopia'
p820
aS'#02304b'
p821
aF11.8479
aI1
aI01
aI00
aI00
aI00
aI00
aI00
aI00
aI00
aa(lp822
I109610
aF48.3134
aF674.038
aVp1
p823
aS'utopia'
p824
aS'#000000'
p825
aF8.88595
aI1
aI01
aI00
aI00
aI00
aI00
aI00
aI00
aI00
aa(lp826
I158577
aF69.7878
aF674.038
aVp1
p827
aS'utopia'
p828
aS'#000000'
p829
aF8.88595
aI1
aI01
aI00
aI00
aI00
aI00
aI00
aI00
aI00
aa(lp830
I194179
aF188.267
aF674.038
aVp1
p831
aS'utopia'
p832
aS'#000000'
p833
aF8.88595
aI1
aI01
aI00
aI00
aI00
aI00
aI00
aI00
aI00
aa(lp834
I177981
aF305.265
aF674.038
aVp1
p835
aS'utopia'
p836
aS'#000000'
p837
aF8.88595
aI1
aI01
aI00
aI00
aI00
aI00
aI00
aI00
aI00
aa(lp838
I25729
aF324.518
aF674.038
aVp1
p839
aS'utopia'
p840
aS'#000000'
p841
aF8.88595
aI1
aI01
aI00
aI00
aI00
aI00
aI00
aI00
aI00
aa(lp842
I60220
aF412.637
aF674.038
aVp1
p843
aS'utopia'
p844
aS'#000000'
p845
aF8.88595
aI1
aI01
aI00
aI00
aI00
aI00
aI00
aI00
aI00
aa(lp846
I84662
aF48.3134
aF692.782
aVp1
p847
aS'utopia'
p848
aS'#656565'
p849
aF8.88595
aI0
aI01
aI01
aI00
aI00
aI00
aI00
aI00
aI00
aa(lp850
I21716
aF74.2307
aF692.782
aVp1
p851
aS'utopia'
p852
aS'#656565'
p853
aF8.88595
aI0
aI01
aI01
aI00
aI00
aI00
aI00
aI00
aI00
aa(lp854
I234378
aF188.267
aF692.782
aVp1
p855
aS'utopia'
p856
aS'#656565'
p857
aF8.88595
aI0
aI00
aI00
aI01
aI01
aI00
aI00
aI00
aI00
aa(lp858
I234378
aF192.0465
aF692.782
ag855
aS'utopia'
p859
aS'#656565'
p860
aF8.88595
aI0
aI00
aI00
aI00
aI00
aI00
aI00
aI00
aI00
aa(lp861
I234378
aF195.82600000000002
aF692.782
ag855
aS'utopia'
p862
aS'#656565'
p863
aF8.88595
aI0
aI00
aI00
aI01
aI01
aI00
aI00
aI00
aI00
aa(lp864
I234378
aF317.113
aF692.782
aVp1
p865
aS'utopia'
p866
aS'#656565'
p867
aF8.88595
aI0
aI00
aI00
aI01
aI01
aI01
aI00
aI00
aI00
aa(lp868
I234378
aF400.789
aF692.782
aVp1
p869
aS'utopia'
p870
aS'#656565'
p871
aF8.88595
aI0
aI00
aI00
aI01
aI01
aI00
aI00
aI00
aI00
aa(lp872
I234378
aF407.454
aF692.782
aVp1
p873
aS'utopia'
p874
aS'#656565'
p875
aF8.88595
aI0
aI01
aI00
aI00
aI00
aI00
aI00
aI00
aI00
aa(lp876
I234378
aF431.15
aF692.782
aVp1
p877
aS'utopia'
p878
aS'#656565'
p879
aF8.88595
aI0
aI00
aI00
aI01
aI01
aI01
aI00
aI00
aI00
aa(lp880
I234378
aF442.257
aF692.782
aVp1
p881
aS'utopia'
p882
aS'#656565'
p883
aF8.88595
aI0
aI01
aI00
aI00
aI00
aI00
aI00
aI00
aI00
aa(lp884
I234378
aF48.3134
aF711.294
aVp1
p885
aS'utopia'
p886
aS'#656565'
p887
aF8.88595
aI0
aI01
aI01
aI00
aI00
aI00
aI00
aI00
aI00
aa(lp888
I234378
aF60.388507142857144
aF711.294
ag885
aS'utopia'
p889
aS'#656565'
p890
aF8.88595
aI0
aI00
aI00
aI00
aI00
aI00
aI00
aI00
aI00
aa(lp891
I234378
aF64.41354285714286
aF711.294
ag885
aS'utopia'
p892
aS'#656565'
p893
aF8.88595
aI0
aI01
aI00
aI00
aI00
aI00
aI00
aI00
aI00
aa(lp894
I234378
aF81.56375714285714
aF711.294
ag885
aS'utopia'
p895
aS'#656565'
p896
aF8.88595
aI0
aI00
aI00
aI00
aI00
aI00
aI00
aI00
aI00
aa(lp897
I234378
aF92.58879285714286
aF711.294
ag885
aS'utopia'
p898
aS'#656565'
p899
aF8.88595
aI0
aI01
aI00
aI00
aI00
aI00
aI00
aI00
aI00
aa(lp900
I234378
aF111.81411428571428
aF711.294
ag885
aS'utopia'
p901
aS'#656565'
p902
aF8.88595
aI0
aI00
aI00
aI00
aI00
aI00
aI00
aI00
aI00
aa(lp903
I234378
aF132.83915
aF711.294
ag885
aS'utopia'
p904
aS'#656565'
p905
aF8.88595
aI0
aI00
aI00
aI00
aI00
aI00
aI00
aI00
aI00
aa(lp906
I234378
aF188.267
aF711.294
aVp1
p907
aS'utopia'
p908
aS'#656565'
p909
aF8.88595
aI0
aI00
aI00
aI01
aI01
aI00
aI00
aI00
aI00
aa(lp910
I234378
aF317.113
aF711.294
aVp1
p911
aS'utopia'
p912
aS'#656565'
p913
aF8.88595
aI0
aI00
aI00
aI01
aI01
aI01
aI00
aI00
aI00
aa(lp914
I234378
aF403.011
aF711.294
aVp1
p915
aS'utopia'
p916
aS'#656565'
p917
aF8.88595
aI0
aI00
aI00
aI01
aI01
aI00
aI00
aI00
aI00
aa(lp918
I234378
aF409.675
aF711.294
aVp1
p919
aS'utopia'
p920
aS'#656565'
p921
aF8.88595
aI0
aI01
aI00
aI00
aI00
aI00
aI00
aI00
aI00
aa(lp922
I234378
aF433.371
aF711.294
aVp1
p923
aS'utopia'
p924
aS'#656565'
p925
aF8.88595
aI0
aI00
aI00
aI01
aI01
aI00
aI00
aI00
aI00
aa(lp926
I234378
aF440.036
aF711.294
aVp1
p927
aS'utopia'
p928
aS'#656565'
p929
aF8.88595
aI0
aI01
aI00
aI00
aI00
aI00
aI00
aI00
aI00
aa(lp930
I218728
aF48.3134
aF729.807
aVp1
p931
aS'utopia'
p932
aS'#656565'
p933
aF8.88595
aI0
aI01
aI00
aI00
aI00
aI00
aI00
aI00
aI00
aa(lp934
I234378
aF63.662058823529414
aF729.807
ag931
aS'utopia'
p935
aS'#656565'
p936
aF8.88595
aI0
aI00
aI00
aI00
aI00
aI00
aI00
aI00
aI00
aa(lp937
I234378
aF67.49922352941176
aF729.807
ag931
aS'utopia'
p938
aS'#656565'
p939
aF8.88595
aI0
aI00
aI00
aI00
aI00
aI00
aI00
aI00
aI00
aa(lp940
I234378
aF188.267
aF729.807
aVp1
p941
aS'utopia'
p942
aS'#656565'
p943
aF8.88595
aI0
aI00
aI00
aI01
aI01
aI00
aI00
aI00
aI00
aa(lp944
I234378
aF192.0465
aF729.807
ag941
aS'utopia'
p945
aS'#656565'
p946
aF8.88595
aI0
aI00
aI00
aI00
aI00
aI00
aI00
aI00
aI00
aa(lp947
I234378
aF195.82600000000002
aF729.807
ag941
aS'utopia'
p948
aS'#656565'
p949
aF8.88595
aI0
aI00
aI00
aI01
aI01
aI00
aI00
aI00
aI00
aa(lp950
I234378
aF317.113
aF729.807
aVp1
p951
aS'utopia'
p952
aS'#656565'
p953
aF8.88595
aI0
aI00
aI00
aI01
aI01
aI01
aI00
aI00
aI00
aa(lp954
I234378
aF403.011
aF729.807
aVp1
p955
aS'utopia'
p956
aS'#656565'
p957
aF8.88595
aI0
aI00
aI00
aI01
aI01
aI00
aI00
aI00
aI00
aa(lp958
I234378
aF409.675
aF729.807
aVp1
p959
aS'utopia'
p960
aS'#656565'
p961
aF8.88595
aI0
aI01
aI00
aI00
aI00
aI00
aI00
aI00
aI00
aa(lp962
I234378
aF433.371
aF729.807
aVp1
p963
aS'utopia'
p964
aS'#656565'
p965
aF8.88595
aI0
aI00
aI00
aI01
aI01
aI00
aI00
aI00
aI00
aa(lp966
I234378
aF440.036
aF729.807
aVp1
p967
aS'utopia'
p968
aS'#656565'
p969
aF8.88595
aI0
aI01
aI00
aI00
aI00
aI00
aI00
aI00
aI00
aa(lp970
I234378
aF48.3134
aF748.319
aVp1
p971
aS'utopia'
p972
aS'#656565'
p973
aF8.88595
aI0
aI01
aI00
aI00
aI00
aI00
aI00
aI00
aI00
aa(lp974
I234378
aF86.1164
aF748.319
ag971
aS'utopia'
p975
aS'#656565'
p976
aF8.88595
aI0
aI00
aI00
aI00
aI00
aI00
aI00
aI00
aI00
aa(lp977
I234378
aF317.113
aF748.319
aVp1
p978
aS'utopia'
p979
aS'#656565'
p980
aF8.88595
aI0
aI00
aI00
aI01
aI01
aI01
aI00
aI00
aI00
aa(lp981
I234378
aF422.264
aF748.319
aVp1
p982
aS'utopia'
p983
aS'#656565'
p984
aF8.88595
aI0
aI00
aI00
aI01
aI01
aI00
aI00
aI00
aI00
aa(lp985
I234378
aF428.928
aF748.319
aVp1
p986
aS'utopia'
p987
aS'#656565'
p988
aF8.88595
aI0
aI01
aI00
aI00
aI00
aI00
aI00
aI00
aI00
aa(lp989
I234378
aF48.3134
aF766.831
aVp1
p990
aS'utopia'
p991
aS'#656565'
p992
aF8.88595
aI0
aI01
aI00
aI00
aI00
aI00
aI00
aI00
aI00
aa(lp993
I234378
aF188.267
aF766.831
aVp1
p994
aS'utopia'
p995
aS'#656565'
p996
aF8.88595
aI0
aI00
aI00
aI01
aI01
aI01
aI00
aI00
aI00
aa(lp997
I234378
aF317.113
aF766.831
aVp1
p998
aS'utopia'
p999
aS'#656565'
p1000
aF8.88595
aI0
aI00
aI00
aI01
aI01
aI01
aI00
aI00
aI00
aa(lp1001
I234378
aF422.264
aF766.831
aVp1
p1002
aS'utopia'
p1003
aS'#656565'
p1004
aF8.88595
aI0
aI00
aI00
aI01
aI01
aI00
aI00
aI00
aI00
aa(lp1005
I234378
aF428.928
aF766.831
aVp1
p1006
aS'utopia'
p1007
aS'#656565'
p1008
aF8.88595
aI0
aI01
aI00
aI00
aI00
aI00
aI00
aI00
aI00
aa(lp1009
I77592
aF48.3134
aF785.344
aVp1
p1010
aS'utopia'
p1011
aS'#656565'
p1012
aF8.88595
aI0
aI01
aI00
aI00
aI00
aI00
aI00
aI00
aI00
aa(lp1013
I110786
aF80.1547
aF785.344
aVp1
p1014
aS'utopia'
p1015
aS'#656565'
p1016
aF8.88595
aI0
aI01
aI00
aI00
aI00
aI00
aI00
aI00
aI00
aa(lp1017
I234378
aF188.267
aF785.344
aVp1
p1018
aS'utopia'
p1019
aS'#656565'
p1020
aF8.88595
aI0
aI00
aI00
aI01
aI01
aI00
aI00
aI00
aI00
aa(lp1021
I234378
aF317.113
aF785.344
aVp1
p1022
aS'utopia'
p1023
aS'#656565'
p1024
aF8.88595
aI0
aI00
aI00
aI01
aI01
aI01
aI00
aI00
aI00
aa(lp1025
I234378
aF403.011
aF785.344
aVp1
p1026
aS'utopia'
p1027
aS'#656565'
p1028
aF8.88595
aI0
aI00
aI00
aI01
aI01
aI00
aI00
aI00
aI00
aa(lp1029
I234378
aF409.675
aF785.344
aVp1
p1030
aS'utopia'
p1031
aS'#656565'
p1032
aF8.88595
aI0
aI01
aI00
aI00
aI00
aI00
aI00
aI00
aI00
aa(lp1033
I234378
aF433.371
aF785.344
aVp1
p1034
aS'utopia'
p1035
aS'#656565'
p1036
aF8.88595
aI0
aI00
aI00
aI01
aI01
aI00
aI00
aI00
aI00
aa(lp1037
I234378
aF440.036
aF785.344
aVp1
p1038
aS'utopia'
p1039
aS'#656565'
p1040
aF8.88595
aI0
aI01
aI00
aI00
aI00
aI00
aI00
aI00
aI00
aa(lp1041
I176767
aF48.3134
aF803.856
aVp1
p1042
aS'utopia'
p1043
aS'#656565'
p1044
aF8.88595
aI0
aI01
aI00
aI00
aI00
aI00
aI00
aI00
aI00
aa(lp1045
I234378
aF188.267
aF803.856
aVp1
p1046
aS'utopia'
p1047
aS'#656565'
p1048
aF8.88595
aI0
aI00
aI00
aI01
aI01
aI00
aI00
aI00
aI00
aa(lp1049
I234378
aF317.113
aF803.856
aVp1
p1050
aS'utopia'
p1051
aS'#656565'
p1052
aF8.88595
aI0
aI00
aI00
aI01
aI01
aI01
aI00
aI00
aI00
aa(lp1053
I234378
aF403.011
aF803.856
aVp1
p1054
aS'utopia'
p1055
aS'#656565'
p1056
aF8.88595
aI0
aI00
aI00
aI01
aI01
aI00
aI00
aI00
aI00
aa(lp1057
I234378
aF409.675
aF803.856
aVp1
p1058
aS'utopia'
p1059
aS'#656565'
p1060
aF8.88595
aI0
aI01
aI00
aI00
aI00
aI00
aI00
aI00
aI00
aa(lp1061
I234378
aF433.371
aF803.856
aVp1
p1062
aS'utopia'
p1063
aS'#656565'
p1064
aF8.88595
aI0
aI00
aI00
aI01
aI01
aI00
aI00
aI00
aI00
aa(lp1065
I234378
aF440.036
aF803.856
aVp1
p1066
aS'utopia'
p1067
aS'#656565'
p1068
aF8.88595
aI0
aI01
aI00
aI00
aI00
aI00
aI00
aI00
aI00
aa(lp1069
I148996
aF48.3134
aF37.4429
aVp2
p1070
aS'utopia'
p1071
aS'#656565'
p1072
aF8.88595
aI0
aI01
aI00
aI00
aI00
aI00
aI00
aI00
aI00
aa(lp1073
I234378
aF188.267
aF37.4429
aVp2
p1074
aS'utopia'
p1075
aS'#656565'
p1076
aF8.88595
aI0
aI00
aI00
aI01
aI01
aI00
aI00
aI00
aI00
aa(lp1077
I234378
aF317.113
aF37.4429
aVp2
p1078
aS'utopia'
p1079
aS'#656565'
p1080
aF8.88595
aI0
aI00
aI00
aI01
aI01
aI01
aI00
aI00
aI00
aa(lp1081
I234378
aF422.264
aF37.4429
aVp2
p1082
aS'utopia'
p1083
aS'#656565'
p1084
aF8.88595
aI0
aI00
aI00
aI01
aI01
aI00
aI00
aI00
aI00
aa(lp1085
I234378
aF428.928
aF37.4429
aVp2
p1086
aS'utopia'
p1087
aS'#656565'
p1088
aF8.88595
aI0
aI01
aI00
aI00
aI00
aI00
aI00
aI00
aI00
aa(lp1089
I234378
aF48.3134
aF55.9553
aVp2
p1090
aS'utopia'
p1091
aS'#656565'
p1092
aF8.88595
aI0
aI01
aI01
aI00
aI00
aI00
aI00
aI00
aI00
aa(lp1093
I234378
aF188.267
aF55.9553
aVp2
p1094
aS'utopia'
p1095
aS'#656565'
p1096
aF8.88595
aI0
aI00
aI00
aI01
aI01
aI00
aI00
aI00
aI00
aa(lp1097
I234378
aF317.113
aF55.9553
aVp2
p1098
aS'utopia'
p1099
aS'#656565'
p1100
aF8.88595
aI0
aI00
aI00
aI01
aI01
aI01
aI00
aI00
aI00
aa(lp1101
I234378
aF422.264
aF55.9553
aVp2
p1102
aS'utopia'
p1103
aS'#656565'
p1104
aF8.88595
aI0
aI00
aI00
aI01
aI01
aI00
aI00
aI00
aI00
aa(lp1105
I234378
aF428.928
aF55.9553
aVp2
p1106
aS'utopia'
p1107
aS'#656565'
p1108
aF8.88595
aI0
aI01
aI00
aI00
aI00
aI00
aI00
aI00
aI00
aa(lp1109
I195166
aF40.1679
aF106.327
aVp2
p1110
aS'utopia'
p1111
aS'#02304b'
p1112
aF11.8479
aI1
aI01
aI00
aI00
aI00
aI00
aI00
aI00
aI00
aa(lp1113
I136346
aF96.4456
aF106.327
aVp2
p1114
aS'utopia'
p1115
aS'#02304b'
p1116
aF11.8479
aI1
aI01
aI00
aI00
aI00
aI00
aI00
aI00
aI00
aa(lp1117
I195166
aF48.3134
aF134.217
aVp2
p1118
aS'utopia'
p1119
aS'#000000'
p1120
aF8.88595
aI1
aI01
aI00
aI00
aI00
aI00
aI00
aI00
aI00
aa(lp1121
I164378
aF177.16
aF134.217
aVp2
p1122
aS'utopia'
p1123
aS'#000000'
p1124
aF8.88595
aI1
aI01
aI00
aI00
aI00
aI00
aI00
aI00
aI00
aa(lp1125
I175077
aF296.379
aF134.217
aVp2
p1126
aS'utopia'
p1127
aS'#000000'
p1128
aF8.88595
aI1
aI01
aI00
aI00
aI00
aI00
aI00
aI00
aI00
aa(lp1129
I224291
aF397.087
aF134.217
aVp2
p1130
aS'utopia'
p1131
aS'#000000'
p1132
aF8.88595
aI1
aI01
aI00
aI00
aI00
aI00
aI00
aI00
aI00
aa(lp1133
I165206
aF497.054
aF134.217
aVp2
p1134
aS'utopia'
p1135
aS'#000000'
p1136
aF8.88595
aI1
aI01
aI00
aI00
aI00
aI00
aI00
aI00
aI00
aa(lp1137
I58002
aF48.3134
aF152.96
aVp2
p1138
aS'utopia'
p1139
aS'#656565'
p1140
aF8.88595
aI0
aI01
aI00
aI00
aI00
aI00
aI00
aI00
aI00
aa(lp1141
I185159
aF177.16
aF152.96
aVp2
p1142
aS'utopia'
p1143
aS'#656565'
p1144
aF8.88595
aI0
aI01
aI00
aI00
aI00
aI00
aI00
aI00
aI00
aa(lp1145
I144532
aF48.3134
aF171.473
aVp2
p1146
aS'utopia'
p1147
aS'#656565'
p1148
aF8.88595
aI0
aI01
aI00
aI00
aI00
aI00
aI00
aI00
aI00
aa(lp1149
I185159
aF177.16
aF171.473
aVp2
p1150
aS'utopia'
p1151
aS'#656565'
p1152
aF8.88595
aI0
aI01
aI00
aI00
aI00
aI00
aI00
aI00
aI00
aa(lp1153
I234378
aF40.1679
aF203.332
aVp2
p1154
aS'utopia'
p1155
aS'#02304b'
p1156
aF11.8479
aI1
aI01
aI00
aI00
aI00
aI00
aI00
aI00
aI00
aa(lp1157
I201816
aF40.9084
aF235.155
aVp2
p1158
aS'utopia'
p1159
aS'#000000'
p1160
aF8.88595
aI0
aI01
aI00
aI00
aI00
aI00
aI00
aI00
aI00
aa(lp1161
I234378
aF54.9779
aF235.155
aVp2
p1162
aS'utopia'
p1163
aS'#000000'
p1164
aF8.88595
aI0
aI01
aI00
aI00
aI00
aI00
aI00
aI00
aI00
aa(lp1165
I86196
aF89.0407
aF235.155
aVp2
p1166
aS'utopia'
p1167
aS'#000000'
p1168
aF8.88595
aI0
aI01
aI00
aI00
aI00
aI00
aI00
aI00
aI00
aa(lp1169
I177271
aF40.1679
aF274.419
aVp2
p1170
aS'utopia'
p1171
aS'#02304b'
p1172
aF11.8479
aI1
aI01
aI00
aI00
aI00
aI00
aI00
aI00
aI00
aa(lp1173
I234378
aF74.2307
aF274.419
aVp2
p1174
aS'utopia'
p1175
aS'#02304b'
p1176
aF11.8479
aI1
aI01
aI00
aI00
aI00
aI00
aI00
aI00
aI00
aa(lp1177
I7520
aF49.0539
aF298.731
aVp2
p1178
aS'utopia'
p1179
aS'#656565'
p1180
aF10.3669
aI1
aI01
aI00
aI00
aI00
aI00
aI00
aI00
aI00
aa(lp1181
I10865
aF93.4836
aF298.731
aVp2
p1182
aS'utopia'
p1183
aS'#656565'
p1184
aF10.3669
aI1
aI01
aI00
aI00
aI00
aI00
aI00
aI00
aI00
aa(lp1185
I132955
aF49.0539
aF314.388
aVp2
p1186
aS'utopia'
p1187
aS'#656565'
p1188
aF8.88595
aI0
aI01
aI00
aI00
aI00
aI00
aI00
aI00
aI00
aa(lp1189
I144489
aF69.7878
aF314.388
aVp2
p1190
aS'utopia'
p1191
aS'#656565'
p1192
aF8.88595
aI0
aI00
aI00
aI00
aI00
aI00
aI00
aI00
aI00
aa(lp1193
I132529
aF80.1547
aF314.388
aVp2
p1194
aS'utopia'
p1195
aS'#656565'
p1196
aF8.88595
aI0
aI01
aI00
aI00
aI00
aI00
aI00
aI00
aI00
aa(lp1197
I234378
aF98.76336666666667
aF314.388
ag1194
aS'utopia'
p1198
aS'#656565'
p1199
aF8.88595
aI0
aI00
aI00
aI00
aI00
aI00
aI00
aI00
aI00
aa(lp1200
I234378
aF104.591
aF314.388
aVp2
p1201
aS'utopia'
p1202
aS'#434343'
p1203
aF8.88595
aI0
aI00
aI00
aI01
aI01
aI01
aI00
aI00
aI00
aa(lp1204
I234378
aF115.699
aF314.388
aVp2
p1205
aS'utopia'
p1206
aS'#434343'
p1207
aF8.88595
aI0
aI01
aI00
aI00
aI00
aI00
aI00
aI00
aI01
aa(lp1208
I234378
aF132.73
aF314.388
aVp2
p1209
aS'utopia'
p1210
aS'#434343'
p1211
aF8.88595
aI0
aI00
aI00
aI01
aI01
aI01
aI00
aI00
aI00
aa(lp1212
I86794
aF368.948
aF302.434
aVp2
p1213
aS'utopia'
p1214
aS'#656565'
p1215
aF10.3669
aI1
aI01
aI00
aI00
aI00
aI00
aI00
aI00
aI00
aa(lp1216
I131455
aF407.454
aF302.434
aVp2
p1217
aS'utopia'
p1218
aS'#656565'
p1219
aF10.3669
aI1
aI01
aI00
aI00
aI00
aI00
aI00
aI00
aI00
aa(lp1220
I234378
aF425.226
aF302.434
aVp2
p1221
aS'utopia'
p1222
aS'#656565'
p1223
aF10.3669
aI1
aI01
aI00
aI00
aI00
aI00
aI00
aI00
aI00
aa(lp1224
I131455
aF368.948
aF318.091
aVp2
p1225
aS'utopia'
p1226
aS'#656565'
p1227
aF8.88595
aI0
aI01
aI00
aI00
aI00
aI00
aI00
aI00
aI00
aa(lp1228
I197416
aF384.499
aF318.091
aVp2
p1229
aS'utopia'
p1230
aS'#656565'
p1231
aF8.88595
aI0
aI01
aI00
aI00
aI00
aI00
aI00
aI00
aI00
aa(lp1232
I234378
aF401.77092000000005
aF318.091
ag1229
aS'utopia'
p1233
aS'#656565'
p1234
aF8.88595
aI0
aI00
aI00
aI00
aI00
aI00
aI00
aI00
aI00
aa(lp1235
I28425
aF408.194
aF318.091
aVp2
p1236
aS'utopia'
p1237
aS'#434343'
p1238
aF8.88595
aI0
aI01
aI00
aI00
aI00
aI00
aI00
aI00
aI00
aa(lp1239
I108944
aF49.0539
aF329.939
aVp2
p1240
aS'utopia'
p1241
aS'#656565'
p1242
aF8.88595
aI0
aI01
aI00
aI00
aI00
aI00
aI00
aI00
aI00
aa(lp1243
I234378
aF76.44544285714287
aF329.939
ag1240
aS'utopia'
p1244
aS'#656565'
p1245
aF8.88595
aI0
aI00
aI00
aI00
aI00
aI00
aI00
aI00
aI00
aa(lp1246
I104428
aF83.1167
aF329.939
aVp2
p1247
aS'utopia'
p1248
aS'#434343'
p1249
aF8.88595
aI0
aI01
aI00
aI00
aI00
aI00
aI00
aI00
aI00
aa(lp1250
I72722
aF368.948
aF333.641
aVp2
p1251
aS'utopia'
p1252
aS'#656565'
p1253
aF8.88595
aI0
aI01
aI00
aI00
aI00
aI00
aI00
aI00
aI00
aa(lp1254
I12510
aF422.264
aF333.641
aVp2
p1255
aS'utopia'
p1256
aS'#656565'
p1257
aF8.88595
aI0
aI01
aI00
aI00
aI00
aI00
aI00
aI00
aI00
aa(lp1258
I234378
aF444.5779142857143
aF333.641
ag1255
aS'utopia'
p1259
aS'#656565'
p1260
aF8.88595
aI0
aI00
aI00
aI00
aI00
aI00
aI00
aI00
aI00
aa(lp1261
I60201
aF450.403
aF333.641
aVp2
p1262
aS'utopia'
p1263
aS'#434343'
p1264
aF8.88595
aI0
aI01
aI00
aI00
aI00
aI00
aI00
aI00
aI00
aa(lp1265
I230071
aF467.434
aF333.641
aVp2
p1266
aS'utopia'
p1267
aS'#434343'
p1268
aF8.88595
aI0
aI01
aI00
aI00
aI00
aI00
aI00
aI00
aI00
aa(lp1269
I212271
aF49.0539
aF345.489
aVp2
p1270
aS'utopia'
p1271
aS'#656565'
p1272
aF8.88595
aI0
aI01
aI00
aI00
aI00
aI00
aI00
aI00
aI00
aa(lp1273
I12510
aF79.4142
aF345.489
aVp2
p1274
aS'utopia'
p1275
aS'#656565'
p1276
aF8.88595
aI0
aI01
aI00
aI00
aI00
aI00
aI00
aI00
aI00
aa(lp1277
I234378
aF101.72811428571428
aF345.489
ag1274
aS'utopia'
p1278
aS'#656565'
p1279
aF8.88595
aI0
aI00
aI00
aI00
aI00
aI00
aI00
aI00
aI00
aa(lp1280
I118865
aF107.553
aF345.489
aVp2
p1281
aS'utopia'
p1282
aS'#434343'
p1283
aF8.88595
aI0
aI01
aI00
aI00
aI00
aI00
aI00
aI00
aI00
aa(lp1284
I234378
aF133.68768749999998
aF345.489
ag1281
aS'utopia'
p1285
aS'#434343'
p1286
aF8.88595
aI0
aI00
aI00
aI00
aI00
aI00
aI00
aI00
aI00
aa(lp1287
I136874
aF138.04346875
aF345.489
ag1281
aS'utopia'
p1288
aS'#434343'
p1289
aF8.88595
aI0
aI00
aI00
aI00
aI00
aI00
aI00
aI00
aI00
aa(lp1290
I118366
aF49.0539
aF365.376
aVp2
p1291
aS'utopia'
p1292
aS'#656565'
p1293
aF10.3669
aI1
aI01
aI00
aI00
aI00
aI00
aI00
aI00
aI00
aa(lp1294
I234378
aF83.97235
aF365.376
ag1291
aS'utopia'
p1295
aS'#656565'
p1296
aF10.3669
aI1
aI00
aI00
aI00
aI00
aI00
aI00
aI00
aI00
aa(lp1297
I51933
aF368.948
aF353.528
aVp2
p1298
aS'utopia'
p1299
aS'#656565'
p1300
aF10.3669
aI1
aI01
aI00
aI00
aI00
aI00
aI00
aI00
aI00
aa(lp1301
I62768
aF397.087
aF353.528
aVp2
p1302
aS'utopia'
p1303
aS'#656565'
p1304
aF10.3669
aI1
aI01
aI00
aI00
aI00
aI00
aI00
aI00
aI00
aa(lp1305
I234378
aF49.0539
aF378.071
aVp2
p1306
aS'utopia'
p1307
aS'#000000'
p1308
aF8.88595
aI0
aI00
aI00
aI01
aI01
aI01
aI00
aI00
aI00
aa(lp1309
I234378
aF62.13735
aF378.071
ag1306
aS'utopia'
p1310
aS'#000000'
p1311
aF8.88595
aI0
aI00
aI00
aI00
aI00
aI00
aI00
aI00
aI00
aa(lp1312
I234378
aF66.49849999999999
aF378.071
ag1306
aS'utopia'
p1313
aS'#000000'
p1314
aF8.88595
aI0
aI00
aI00
aI01
aI00
aI00
aI00
aI00
aI00
aa(lp1315
I44521
aF86.0787
aF378.071
aVp2
p1316
aS'utopia'
p1317
aS'#000000'
p1318
aF8.88595
aI0
aI01
aI00
aI00
aI00
aI00
aI00
aI00
aI00
aa(lp1319
I234378
aF106.85555
aF378.071
ag1316
aS'utopia'
p1320
aS'#000000'
p1321
aF8.88595
aI0
aI00
aI00
aI00
aI00
aI00
aI00
aI00
aI00
aa(lp1322
I234378
aF111.01092
aF378.071
ag1316
aS'utopia'
p1323
aS'#000000'
p1324
aF8.88595
aI0
aI00
aI00
aI01
aI00
aI00
aI00
aI00
aI00
aa(lp1325
I169406
aF129.768
aF378.071
aVp2
p1326
aS'utopia'
p1327
aS'#000000'
p1328
aF8.88595
aI0
aI01
aI00
aI00
aI00
aI00
aI00
aI00
aI00
aa(lp1329
I234378
aF147.2526
aF378.071
ag1326
aS'utopia'
p1330
aS'#000000'
p1331
aF8.88595
aI0
aI00
aI00
aI00
aI00
aI00
aI00
aI00
aI00
aa(lp1332
I234378
aF151.62375
aF378.071
ag1326
aS'utopia'
p1333
aS'#000000'
p1334
aF8.88595
aI0
aI00
aI00
aI01
aI00
aI00
aI00
aI00
aI00
aa(lp1335
I87333
aF166.793
aF378.071
aVp2
p1336
aS'utopia'
p1337
aS'#000000'
p1338
aF8.88595
aI0
aI01
aI00
aI00
aI00
aI00
aI00
aI00
aI00
aa(lp1339
I234378
aF191.1602777777778
aF378.071
ag1336
aS'utopia'
p1340
aS'#000000'
p1341
aF8.88595
aI0
aI00
aI00
aI00
aI00
aI00
aI00
aI00
aI00
aa(lp1342
I234378
aF196.03373333333334
aF378.071
ag1336
aS'utopia'
p1343
aS'#000000'
p1344
aF8.88595
aI0
aI01
aI01
aI00
aI00
aI00
aI00
aI00
aI00
aa(lp1345
I234378
aF212.703
aF378.071
aVp2
p1346
aS'utopia'
p1347
aS'#000000'
p1348
aF8.88595
aI0
aI00
aI00
aI01
aI00
aI00
aI00
aI00
aI00
aa(lp1349
I226126
aF229.735
aF378.071
aVp2
p1350
aS'utopia'
p1351
aS'#000000'
p1352
aF8.88595
aI0
aI01
aI00
aI00
aI00
aI00
aI00
aI00
aI00
aa(lp1353
I234378
aF250.99261363636364
aF378.071
ag1350
aS'utopia'
p1354
aS'#000000'
p1355
aF8.88595
aI0
aI00
aI00
aI00
aI00
aI00
aI00
aI00
aI00
aa(lp1356
I234378
aF255.24413636363636
aF378.071
ag1350
aS'utopia'
p1357
aS'#000000'
p1358
aF8.88595
aI0
aI01
aI00
aI00
aI00
aI00
aI00
aI00
aI00
aa(lp1359
I234378
aF294.50784090909093
aF378.071
ag1350
aS'utopia'
p1360
aS'#000000'
p1361
aF8.88595
aI0
aI00
aI00
aI01
aI01
aI01
aI00
aI00
aI00
aa(lp1362
I234378
aF49.0539
aF388.438
aVp2
p1363
aS'utopia'
p1364
aS'#000000'
p1365
aF8.88595
aI0
aI00
aI00
aI01
aI01
aI01
aI00
aI00
aI00
aa(lp1366
I182663
aF49.0539
aF401.767
aVp2
p1367
aS'utopia'
p1368
aS'#656565'
p1369
aF8.88595
aI0
aI01
aI00
aI00
aI00
aI00
aI00
aI00
aI00
aa(lp1370
I82279
aF76.4522
aF401.767
aVp2
p1371
aS'utopia'
p1372
aS'#656565'
p1373
aF8.88595
aI0
aI01
aI00
aI00
aI00
aI00
aI00
aI00
aI00
aa(lp1374
I234378
aF96.09372
aF401.767
ag1371
aS'utopia'
p1375
aS'#656565'
p1376
aF8.88595
aI0
aI00
aI00
aI00
aI00
aI00
aI00
aI00
aI00
aa(lp1377
I234378
aF103.11
aF401.767
aVp2
p1378
aS'utopia'
p1379
aS'#000000'
p1380
aF8.88595
aI0
aI01
aI00
aI00
aI00
aI00
aI00
aI00
aI00
aa(lp1381
I234378
aF146.059
aF401.767
aVp2
p1382
aS'utopia'
p1383
aS'#000000'
p1384
aF8.88595
aI0
aI01
aI00
aI00
aI00
aI00
aI00
aI00
aI00
aa(lp1385
I31679
aF368.948
aF369.185
aVp2
p1386
aS'utopia'
p1387
aS'#656565'
p1388
aF8.88595
aI0
aI01
aI01
aI00
aI00
aI00
aI00
aI00
aI00
aa(lp1389
I51933
aF382.277
aF369.185
aVp2
p1390
aS'utopia'
p1391
aS'#656565'
p1392
aF8.88595
aI0
aI01
aI00
aI00
aI00
aI00
aI00
aI00
aI00
aa(lp1393
I12510
aF405.973
aF369.185
aVp2
p1394
aS'utopia'
p1395
aS'#656565'
p1396
aF8.88595
aI0
aI01
aI00
aI00
aI00
aI00
aI00
aI00
aI00
aa(lp1397
I234378
aF428.2869142857143
aF369.185
ag1394
aS'utopia'
p1398
aS'#656565'
p1399
aF8.88595
aI0
aI00
aI00
aI00
aI00
aI00
aI00
aI00
aI00
aa(lp1400
I63091
aF434.112
aF369.185
aVp2
p1401
aS'utopia'
p1402
aS'#434343'
p1403
aF8.88595
aI0
aI01
aI00
aI00
aI00
aI00
aI00
aI00
aI00
aa(lp1404
I234378
aF451.143
aF369.185
aVp2
p1405
aS'utopia'
p1406
aS'#434343'
p1407
aF8.88595
aI0
aI01
aI00
aI00
aI00
aI00
aI00
aI00
aI00
aa(lp1408
I234378
aF368.948
aF384.735
aVp2
p1409
aS'utopia'
p1410
aS'#656565'
p1411
aF8.88595
aI0
aI01
aI00
aI00
aI00
aI00
aI00
aI00
aI00
aa(lp1412
I234378
aF405.70651999999995
aF384.735
ag1409
aS'utopia'
p1413
aS'#656565'
p1414
aF8.88595
aI0
aI00
aI00
aI00
aI00
aI00
aI00
aI00
aI00
aa(lp1415
I164802
aF411.897
aF384.735
aVp2
p1416
aS'utopia'
p1417
aS'#434343'
p1418
aF8.88595
aI0
aI01
aI00
aI00
aI00
aI00
aI00
aI00
aI00
aa(lp1419
I166771
aF368.948
aF404.622
aVp2
p1420
aS'utopia'
p1421
aS'#656565'
p1422
aF10.3669
aI1
aI01
aI00
aI00
aI00
aI00
aI00
aI00
aI00
aa(lp1423
I74833
aF425.226
aF404.622
aVp2
p1424
aS'utopia'
p1425
aS'#656565'
p1426
aF10.3669
aI1
aI01
aI00
aI00
aI00
aI00
aI00
aI00
aI00
aa(lp1427
I233758
aF368.948
aF420.279
aVp2
p1428
aS'utopia'
p1429
aS'#656565'
p1430
aF8.88595
aI0
aI01
aI00
aI00
aI00
aI00
aI00
aI00
aI00
aa(lp1431
I234378
aF402.6198222222222
aF420.279
ag1428
aS'utopia'
p1432
aS'#656565'
p1433
aF8.88595
aI0
aI00
aI00
aI00
aI00
aI00
aI00
aI00
aI00
aa(lp1434
I234378
aF408.935
aF420.279
aVp2
p1435
aS'utopia'
p1436
aS'#434343'
p1437
aF8.88595
aI0
aI01
aI01
aI00
aI00
aI00
aI00
aI00
aI00
aa(lp1438
I227962
aF433.371
aF420.279
aVp2
p1439
aS'utopia'
p1440
aS'#434343'
p1441
aF8.88595
aI0
aI01
aI00
aI00
aI00
aI00
aI00
aI00
aI00
aa(lp1442
I151511
aF368.948
aF435.83
aVp2
p1443
aS'utopia'
p1444
aS'#656565'
p1445
aF8.88595
aI0
aI01
aI00
aI00
aI00
aI00
aI00
aI00
aI00
aa(lp1446
I234378
aF409.675
aF435.83
aVp2
p1447
aS'utopia'
p1448
aS'#656565'
p1449
aF8.88595
aI0
aI01
aI00
aI00
aI00
aI00
aI00
aI00
aI00
aa(lp1450
I234378
aF451.51709090909094
aF435.83
ag1447
aS'utopia'
p1451
aS'#656565'
p1452
aF8.88595
aI0
aI00
aI00
aI00
aI00
aI00
aI00
aI00
aI00
aa(lp1453
I201816
aF457.808
aF435.83
aVp2
p1454
aS'utopia'
p1455
aS'#434343'
p1456
aF8.88595
aI0
aI01
aI00
aI00
aI00
aI00
aI00
aI00
aI00
aa(lp1457
I1
aI1
aI0
aI0
aI0
aI0
aI0
aI0
aI0
aI0
aI0
aI0
aI0
aI0
aI0
aI0
aI0
aI0
aI0
aI0
aI0
aI0
aI0
aI0
aI0
aI0
aI0
aI0
aI0
aI0
aI0
aI0
aI0
aI0
aI0
aI0
aI0
aI0
aI0
aI0
aI0
aI0
aI0
aI0
aI0
aI0
aI0
aI0
aI0
aI0
aI0
aI0
aI0
aI0
aI0
aI0
aI0
aI0
aI0
aI0
aI0
aI0
aI0
aI0
aI0
aI0
aI0
aI0
aI0
aI0
aI0
aI0
aI0
aI0
aI0
aI0
aI0
aI0
aI0
aI0
aI0
aI0
aI0
aI0
aI0
aI0
aI0
aI0
aI0
aI0
aI0
aI0
aI0
aI0
aI0
aI0
aI0
aI0
aI0
aI0
aI0
aI0
aI0
aI0
aI0
aI0
aI0
aI0
aI0
aI0
aI0
aI0
aI0
aI0
aI0
aI0
aI0
aI0
aI0
aI0
aI0
aI0
aI0
aI0
aI0
aI0
aI0
aI0
aI0
aI0
aI0
aI0
aI0
aI0
aI0
aI0
aI0
aI0
aI0
aI0
aI0
aI0
aI0
aI0
aI0
aI0
aI0
aI0
aI0
aI0
aI0
aI0
aI0
aI0
aI0
aI0
aI0
aI0
aI0
aI0
aI0
aI0
aI1
aI1
aI0
aI0
aI0
aI0
aI0
aI0
aI0
aI0
aI0
aI0
aI0
aI0
aI0
aI0
aI0
aI0
aI0
aI0
aI0
aI0
aI1
aI0
aI0
aI0
aI0
aI0
aI0
aI0
aI0
aI0
aI0
aI0
aI0
aI0
aI0
aI0
aI0
aI0
aI0
aI0
aI0
aI0
aI0
aI0
aI0
aI0
aI0
aI0
aI0
aI0
aI0
aI0
aI0
aI0
aI0
aI0
aI1
aI1
aI0
aI0
aI0
aI0
aI0
aI0
aI0
aI0
aI0
aI0
aI0
aI0
aI0
aI0
aI0
aI0
aI0
aI0
aI0
aI0
aI0
aI0
aI0
aI0
aI0
aI0
aI0
aI0
aI0
aI0
aI0
aI0
aI0
aI0
aI0
aI0
aI0
aI0
aI0
aI0
aI0
aI0
aI0
aI0
aI0
aI0
aI0
aI0
aI0
aI0
aI0
aI0
aI0
aI0
aI0
aI0
aI0
aI0
aI0
aI0
aI0
aI0
aI0
aI0
aI0
aI0
aI0
aI0
aI0
aI0
aI0
aI0
aI0
aI0
aI0
aI1
aI1
aI0
aI0
aI0
aI0
aI0
aI0
aI0
aI0
aI0
aI1
aI0
aI0
aI0
aI1
aI1
aI0
aI0
aI0
aI0
aI0
aI0
aI0
aI0
aI0
aI0
aI0
aI0
aI0
aI0
aI0
aI0
aI0
aI0
aI0
aI0
aI0
aI0
aI0
aI0
aI0
aI0
aI0
aI0
aI0
aI0
aI0
aI0
aI0
aI0
aI0
aI0
aI0
aI0
aI0
aI0
aI0
aI0
aI0
aI0
aI0
aI0
aI0
aI0
aI0
aI0
aI0
aI0
aI0
aI0
aI0
aI0
aI0
aI0
aI0
aI0
aI0
aI0
aI0
aI0
aI0
aI0
aI0
aI0
aI0
aI0
aI0
aI0
aI0
aI0
aI0
aI0
atp1458
.