((lp0
(lp1
I234378
aF21.7
aF56.996
aVp1
p2
aS'dejavusans'
p3
aS'#000000'
p4
aF18.0
aI1
aI01
aI00
aI00
aI00
aI00
aI00
aI00
aI00
aa(lp5
I234378
aF106.48
aF56.996
aVp1
p6
aS'dejavusans'
p7
aS'#000000'
p8
aF18.0
aI1
aI01
aI00
aI00
aI00
aI00
aI00
aI00
aI00
aa(lp9
I234378
aF21.7
aF92.392
aVp1
p10
aS'dejavusans'
p11
aS'#000000'
p12
aF11.0
aI1
aI01
aI00
aI00
aI00
aI00
aI00
aI00
aI00
aa(lp13
I234378
aF53.654999999999994
aF92.392
ag10
aS'dejavusans'
p14
aS'#000000'
p15
aF11.0
aI1
aI00
aI00
aI00
aI00
aI00
aI00
aI00
aI00
aa(lp16
I234378
aF63.9
aF92.392
aVp1
p17
aS'dejavusans'
p18
aS'#000000'
p19
aF11.0
aI0
aI00
aI00
aI00
aI00
aI00
aI01
aI00
aI00
aa(lp20
I54779
aF21.7
aF119.592
aVp1
p21
aS'dejavusans'
p22
aS'#000000'
p23
aF11.0
aI1
aI01
aI00
aI00
aI00
aI00
aI00
aI00
aI00
aa(lp24
I234378
aF57.66083333333333
aF119.592
ag21
aS'dejavusans'
p25
aS'#000000'
p26
aF11.0
aI1
aI00
aI00
aI00
aI00
aI00
aI00
aI00
aI00
aa(lp27
I234378
aF68.7
aF119.592
aVp1
p28
aS'dejavusans'
p29
aS'#000000'
p30
aF11.0
aI0
aI00
aI00
aI01
aI01
aI01
aI00
aI00
aI00
aa(lp31
I234378
aF83.23
aF119.592
ag28
aS'dejavusans'
p32
aS'#000000'
p33
aF11.0
aI0
aI00
aI00
aI01
aI01
aI01
aI00
aI00
aI00
aa(lp34
I234378
aF21.7
aF132.392
aVp1
p35
aS'dejavusans'
p36
aS'#000000'
p37
aF11.0
aI0
aI01
aI01
aI00
aI00
aI00
aI00
aI00
aI00
aa(lp38
I234378
aF33.6417
aF132.392
ag35
aS'dejavusans'
p39
aS'#000000'
p40
aF11.0
aI0
aI00
aI00
aI01
aI01
aI00
aI00
aI00
aI00
aa(lp41
I234378
aF39.11255
aF132.392
ag35
aS'dejavusans'
p42
aS'#000000'
p43
aF11.0
aI0
aI00
aI00
aI00
aI00
aI00
aI00
aI00
aI00
aa(lp44
I234378
aF44.5834
aF132.392
ag35
aS'dejavusans'
p45
aS'#000000'
p46
aF11.0
aI0
aI01
aI00
aI00
aI00
aI00
aI00
aI00
aI00
aa(lp47
I234378
aF79.3502
aF132.392
ag35
aS'dejavusans'
p48
aS'#000000'
p49
aF11.0
aI0
aI00
aI00
aI00
aI00
aI00
aI00
aI00
aI00
aa(lp50
I38691
aF93.82105
aF132.392
ag35
aS'dejavusans'
p51
aS'#000000'
p52
aF11.0
aI0
aI01
aI00
aI00
aI00
aI00
aI00
aI00
aI00
aa(lp53
I234378
aF134.769
aF132.392
aVp1
p54
aS'dejavusans'
p55
aS'#000000'
p56
aF11.0
aI0
aI00
aI00
aI01
aI01
aI00
aI00
aI00
aI00
aa(lp57
I234378
aF21.7
aF145.192
aVp1
p58
aS'dejavusans'
p59
aS'#000000'
p60
aF11.0
aI0
aI01
aI00
aI00
aI00
aI00
aI00
aI00
aI00
aa(lp61
I234378
aF60.00750000000001
aF145.192
ag58
aS'dejavusans'
p62
aS'#000000'
p63
aF11.0
aI0
aI00
aI00
aI00
aI00
aI00
aI00
aI00
aI00
aa(lp64
I118838
aF69.165
aF145.192
aVp1
p65
aS'dejavusans'
p66
aS'#000000'
p67
aF11.0
aI0
aI01
aI00
aI00
aI00
aI00
aI00
aI00
aI00
aa(lp68
I163492
aF99.624
aF145.192
aVp1
p69
aS'dejavusans'
p70
aS'#000000'
p71
aF11.0
aI0
aI01
aI00
aI00
aI00
aI00
aI00
aI00
aI00
aa(lp72
I234378
aF138.08842857142855
aF145.192
ag69
aS'dejavusans'
p73
aS'#000000'
p74
aF11.0
aI0
aI00
aI00
aI01
aI01
aI01
aI00
aI00
aI00
aa(lp75
I234378
aF175.55285714285714
aF145.192
ag69
aS'dejavusans'
p76
aS'#000000'
p77
aF11.0
aI0
aI00
aI00
aI00
aI00
aI00
aI00
aI00
aI00
aa(lp78
I164802
aF190.528
aF145.192
aVp1
p79
aS'dejavusans'
p80
aS'#000000'
p81
aF11.0
aI0
aI01
aI01
aI00
aI00
aI00
aI00
aI00
aI00
aa(lp82
I234378
aF218.76133333333334
aF145.192
ag79
aS'dejavusans'
p83
aS'#000000'
p84
aF11.0
aI0
aI00
aI00
aI00
aI00
aI00
aI00
aI00
aI00
aa(lp85
I82380
aF39.091
aF164.492
aVp1
p86
aS'dejavusans'
p87
aS'#000000'
p88
aF11.0
aI1
aI01
aI01
aI00
aI00
aI00
aI00
aI00
aI00
aa(lp89
I234378
aF87.5
aF166.534
aVp1
p90
aS'dejavusans'
p91
aS'#000000'
p92
aF8.8
aI1
aI01
aI01
aI00
aI00
aI00
aI00
aI00
aI00
aa(lp93
I234378
aF161.6
aF166.534
aVp1
p94
aS'dejavusans'
p95
aS'#000000'
p96
aF8.8
aI1
aI01
aI01
aI00
aI00
aI00
aI00
aI00
aI00
aa(lp97
I89480
aF236.8
aF166.534
aVp1
p98
aS'dejavusans'
p99
aS'#000000'
p100
aF8.8
aI1
aI01
aI01
aI00
aI00
aI00
aI00
aI00
aI00
aa(lp101
I31212
aF254.1
aF166.534
aVp1
p102
aS'dejavusans'
p103
aS'#000000'
p104
aF8.8
aI1
aI01
aI01
aI00
aI00
aI00
aI00
aI00
aI00
aa(lp105
I60220
aF309.1
aF166.534
aVp1
p106
aS'dejavusans'
p107
aS'#000000'
p108
aF8.8
aI1
aI01
aI01
aI00
aI00
aI00
aI00
aI00
aI00
aa(lp109
I234378
aF387.5
aF166.534
aVp1
p110
aS'dejavusans'
p111
aS'#000000'
p112
aF8.8
aI1
aI01
aI01
aI00
aI00
aI00
aI00
aI00
aI00
aa(lp113
I169745
aF445.0
aF166.534
aVp1
p114
aS'dejavusans'
p115
aS'#000000'
p116
aF8.8
aI1
aI01
aI01
aI00
aI00
aI00
aI00
aI00
aI00
aa(lp117
I16329
aF475.2
aF166.534
aVp1
p118
aS'dejavusans'
p119
aS'#000000'
p120
aF8.8
aI1
aI01
aI01
aI00
aI00
aI00
aI00
aI00
aI00
aa(lp121
I229426
aF493.3
aF166.534
aVp1
p122
aS'dejavusans'
p123
aS'#000000'
p124
aF8.8
aI1
aI01
aI01
aI00
aI00
aI00
aI00
aI00
aI00
aa(lp125
I144489
aF572.7
aF166.534
aVp1
p126
aS'dejavusans'
p127
aS'#000000'
p128
aF8.8
aI1
aI01
aI01
aI00
aI00
aI00
aI00
aI00
aI00
aa(lp129
I134763
aF265.9
aF179.334
aVp1
p130
aS'dejavusans'
p131
aS'#000000'
p132
aF8.8
aI1
aI01
aI01
aI00
aI00
aI00
aI00
aI00
aI00
aa(lp133
I87419
aF295.0
aF179.334
aVp1
p134
aS'dejavusans'
p135
aS'#000000'
p136
aF8.8
aI1
aI01
aI01
aI00
aI00
aI00
aI00
aI00
aI00
aa(lp137
I22476
aF21.7
aF195.608
aVp1
p138
aS'dejavusans'
p139
aS'#000000'
p140
aF14.0
aI1
aI01
aI01
aI00
aI00
aI00
aI00
aI00
aI00
aa(lp141
I234378
aF42.56
aF195.608
aVp1
p142
aS'dejavusans'
p143
aS'#000000'
p144
aF14.0
aI1
aI00
aI00
aI00
aI00
aI00
aI00
aI00
aI00
aa(lp145
I175409
aF51.0632
aF195.608
ag142
aS'dejavusans'
p146
aS'#000000'
p147
aF14.0
aI1
aI01
aI01
aI00
aI00
aI00
aI00
aI00
aI00
aa(lp148
I67515
aF90.792
aF195.608
aVp1
p149
aS'dejavusans'
p150
aS'#000000'
p151
aF14.0
aI1
aI01
aI01
aI00
aI00
aI00
aI00
aI00
aI00
aa(lp152
I132957
aF121.292
aF195.608
aVp1
p153
aS'dejavusans'
p154
aS'#000000'
p155
aF14.0
aI1
aI01
aI01
aI00
aI00
aI00
aI00
aI00
aI00
aa(lp156
I132100
aF163.0
aF198.206
aVp1
p157
aS'dejavusans'
p158
aS'#000000'
p159
aF11.2
aI1
aI01
aI01
aI00
aI00
aI00
aI00
aI00
aI00
aa(lp160
I234378
aF228.15377777777778
aF198.206
ag157
aS'dejavusans'
p161
aS'#000000'
p162
aF11.2
aI1
aI00
aI00
aI00
aI00
aI00
aI00
aI00
aI00
aa(lp163
I234378
aF57.7
aF227.992
aVp1
p164
aS'dejavusans'
p165
aS'#000000'
p166
aF11.0
aI0
aI01
aI00
aI00
aI00
aI00
aI00
aI00
aI00
aa(lp167
I234378
aF113.2
aF227.992
aVp1
p168
aS'dejavusans'
p169
aS'#000000'
p170
aF11.0
aI0
aI00
aI00
aI00
aI00
aI00
aI00
aI00
aI00
aa(lp171
I234378
aF153.963625
aF227.992
ag168
aS'dejavusans'
p172
aS'#000000'
p173
aF11.0
aI0
aI00
aI00
aI00
aI00
aI00
aI00
aI00
aI00
aa(lp174
I130241
aF164.781
aF227.992
aVp1
p175
aS'dejavusans'
p176
aS'#000000'
p177
aF11.0
aI0
aI01
aI00
aI00
aI00
aI00
aI00
aI00
aI00
aa(lp178
I85218
aF228.801
aF227.992
aVp1
p179
aS'dejavusans'
p180
aS'#000000'
p181
aF11.0
aI0
aI00
aI00
aI00
aI00
aI00
aI00
aI00
aI00
aa(lp182
I161588
aF254.365
aF227.992
aVp1
p183
aS'dejavusans'
p184
aS'#000000'
p185
aF11.0
aI0
aI00
aI00
aI00
aI00
aI00
aI00
aI00
aI00
aa(lp186
I234378
aF290.412
aF227.992
aVp1
p187
aS'dejavusans'
p188
aS'#000000'
p189
aF11.0
aI0
aI00
aI00
aI00
aI00
aI00
aI00
aI00
aI00
aa(lp190
I234378
aF341.7
aF227.992
aVp1
p191
aS'dejavusans'
p192
aS'#000000'
p193
aF11.0
aI1
aI01
aI00
aI00
aI00
aI00
aI00
aI00
aI00
aa(lp194
I135639
aF396.568
aF227.992
aVp1
p195
aS'dejavusans'
p196
aS'#000000'
p197
aF11.0
aI1
aI00
aI00
aI00
aI00
aI00
aI00
aI00
aI00
aa(lp198
I109432
aF413.431
aF227.992
aVp1
p199
aS'dejavusans'
p200
aS'#000000'
p201
aF11.0
aI1
aI01
aI00
aI00
aI00
aI00
aI00
aI00
aI00
aa(lp202
I123665
aF479.563
aF227.992
aVp1
p203
aS'dejavusans'
p204
aS'#000000'
p205
aF11.0
aI1
aI01
aI00
aI00
aI00
aI00
aI00
aI00
aI00
aa(lp206
I27780
aF569.752
aF227.992
aVp1
p207
aS'dejavusans'
p208
aS'#000000'
p209
aF11.0
aI1
aI01
aI01
aI00
aI00
aI00
aI00
aI00
aI00
aa(lp210
I234378
aF576.5866666666666
aF227.992
ag207
aS'dejavusans'
p211
aS'#000000'
p212
aF11.0
aI1
aI00
aI00
aI00
aI00
aI00
aI00
aI00
aI00
aa(lp213
I59734
aF583.4213333333332
aF227.992
ag207
aS'dejavusans'
p214
aS'#000000'
p215
aF11.0
aI1
aI01
aI01
aI00
aI00
aI00
aI00
aI00
aI00
aa(lp216
I234378
aF57.7
aF241.992
aVp1
p217
aS'dejavusans'
p218
aS'#000000'
p219
aF11.0
aI1
aI00
aI00
aI00
aI00
aI00
aI00
aI00
aI00
aa(lp220
I109432
aF65.02966666666667
aF241.992
ag217
aS'dejavusans'
p221
aS'#000000'
p222
aF11.0
aI1
aI01
aI00
aI00
aI00
aI00
aI00
aI00
aI00
aa(lp223
I192028
aF134.128
aF241.992
aVp1
p224
aS'dejavusans'
p225
aS'#000000'
p226
aF11.0
aI1
aI01
aI00
aI00
aI00
aI00
aI00
aI00
aI00
aa(lp227
I234378
aF179.98149999999998
aF241.992
ag224
aS'dejavusans'
p228
aS'#000000'
p229
aF11.0
aI1
aI00
aI00
aI00
aI00
aI00
aI00
aI00
aI00
aa(lp230
I165938
aF196.787
aF241.992
aVp1
p231
aS'dejavusans'
p232
aS'#000000'
p233
aF11.0
aI0
aI00
aI00
aI00
aI00
aI00
aI00
aI00
aI00
aa(lp234
I51791
aF273.6
aF241.992
aVp1
p235
aS'dejavusans'
p236
aS'#000000'
p237
aF11.0
aI0
aI00
aI00
aI00
aI00
aI00
aI00
aI00
aI00
aa(lp238
I234378
aF326.4
aF241.992
aVp1
p239
aS'dejavusans'
p240
aS'#000000'
p241
aF11.0
aI1
aI00
aI00
aI01
aI01
aI00
aI00
aI00
aI00
aa(lp242
I234378
aF332.2
aF241.992
ag239
aS'dejavusans'
p243
aS'#000000'
p244
aF11.0
aI1
aI00
aI00
aI00
aI00
aI00
aI00
aI00
aI00
aa(lp245
I234378
aF338.0
aF241.992
ag239
aS'dejavusans'
p246
aS'#000000'
p247
aF11.0
aI1
aI00
aI00
aI01
aI01
aI00
aI00
aI00
aI00
aa(lp248
I234378
aF354.294
aF241.992
aVp1
p249
aS'dejavusans'
p250
aS'#000000'
p251
aF11.0
aI1
aI00
aI00
aI00
aI00
aI00
aI00
aI00
aI00
aa(lp252
I144489
aF398.8
aF241.992
aVp1
p253
aS'dejavusans'
p254
aS'#000000'
p255
aF11.0
aI0
aI00
aI00
aI00
aI00
aI00
aI00
aI00
aI00
aa(lp256
I131941
aF57.7
aF255.992
aVp1
p257
aS'dejavusans'
p258
aS'#000000'
p259
aF11.0
aI0
aI00
aI00
aI00
aI00
aI00
aI00
aI00
aI00
aa(lp260
I167874
aF121.115
aF255.992
aVp1
p261
aS'dejavusans'
p262
aS'#000000'
p263
aF11.0
aI0
aI00
aI00
aI00
aI00
aI00
aI00
aI00
aI00
aa(lp264
I135639
aF162.761
aF255.992
aVp1
p265
aS'dejavusans'
p266
aS'#000000'
p267
aF11.0
aI0
aI00
aI00
aI00
aI00
aI00
aI00
aI00
aI00
aa(lp268
I22476
aF179.5
aF255.992
aVp1
p269
aS'dejavusans'
p270
aS'#000000'
p271
aF11.0
aI1
aI01
aI01
aI00
aI00
aI00
aI00
aI00
aI00
aa(lp272
I63818
aF197.969
aF255.992
aVp1
p273
aS'dejavusans'
p274
aS'#000000'
p275
aF11.0
aI1
aI00
aI00
aI00
aI00
aI00
aI00
aI00
aI00
aa(lp276
I138627
aF240.4
aF255.992
aVp1
p277
aS'dejavusans'
p278
aS'#000000'
p279
aF11.0
aI0
aI00
aI00
aI00
aI00
aI00
aI00
aI00
aI00
aa(lp280
I192651
aF320.491
aF255.992
aVp1
p281
aS'dejavusans'
p282
aS'#000000'
p283
aF11.0
aI0
aI00
aI00
aI00
aI00
aI00
aI00
aI00
aI00
aa(lp284
I234378
aF340.456
aF255.992
aVp1
p285
aS'dejavusans'
p286
aS'#000000'
p287
aF11.0
aI0
aI00
aI00
aI00
aI00
aI00
aI00
aI00
aI00
aa(lp288
I184171
aF57.7
aF268.792
aVp1
p289
aS'dejavusans'
p290
aS'#000000'
p291
aF11.0
aI0
aI00
aI00
aI00
aI00
aI00
aI00
aI00
aI00
aa(lp292
I85218
aF131.62
aF268.792
aVp1
p293
aS'dejavusans'
p294
aS'#000000'
p295
aF11.0
aI0
aI00
aI00
aI00
aI00
aI00
aI00
aI00
aI00
aa(lp296
I190917
aF155.776
aF268.792
aVp1
p297
aS'dejavusans'
p298
aS'#000000'
p299
aF11.0
aI0
aI00
aI00
aI00
aI00
aI00
aI00
aI00
aI00
aa(lp300
I234378
aF197.422
aF268.792
aVp1
p301
aS'dejavusans'
p302
aS'#000000'
p303
aF11.0
aI0
aI00
aI00
aI00
aI00
aI00
aI00
aI00
aI00
aa(lp304
I234378
aF232.639875
aF268.792
ag301
aS'dejavusans'
p305
aS'#000000'
p306
aF11.0
aI0
aI00
aI00
aI00
aI00
aI00
aI00
aI00
aI00
aa(lp307
I234378
aF57.7
aF281.592
aVp1
p308
aS'dejavusans'
p309
aS'#000000'
p310
aF11.0
aI0
aI01
aI00
aI00
aI00
aI00
aI00
aI00
aI00
aa(lp311
I234378
aF101.447
aF281.592
aVp1
p312
aS'dejavusans'
p313
aS'#000000'
p314
aF11.0
aI0
aI00
aI00
aI01
aI01
aI00
aI00
aI00
aI00
aa(lp315
I234378
aF106.798
aF281.592
ag312
aS'dejavusans'
p316
aS'#000000'
p317
aF11.0
aI0
aI00
aI00
aI00
aI00
aI00
aI00
aI00
aI00
aa(lp318
I234378
aF112.149
aF281.592
ag312
aS'dejavusans'
p319
aS'#000000'
p320
aF11.0
aI0
aI00
aI00
aI01
aI01
aI00
aI00
aI00
aI00
aa(lp321
I234378
aF122.285
aF281.592
aVp1
p322
aS'dejavusans'
p323
aS'#000000'
p324
aF11.0
aI0
aI00
aI00
aI00
aI00
aI00
aI00
aI00
aI00
aa(lp325
I60220
aF157.254
aF281.592
aVp1
p326
aS'dejavusans'
p327
aS'#000000'
p328
aF11.0
aI0
aI00
aI00
aI00
aI00
aI00
aI00
aI00
aI00
aa(lp329
I123583
aF222.88
aF281.592
aVp1
p330
aS'dejavusans'
p331
aS'#000000'
p332
aF11.0
aI0
aI00
aI00
aI00
aI00
aI00
aI00
aI00
aI00
aa(lp333
I169745
aF271.214
aF281.592
aVp1
p334
aS'dejavusans'
p335
aS'#000000'
p336
aF11.0
aI0
aI00
aI00
aI00
aI00
aI00
aI00
aI00
aI00
aa(lp337
I67515
aF299.275
aF281.592
aVp1
p338
aS'dejavusans'
p339
aS'#000000'
p340
aF11.0
aI0
aI01
aI00
aI00
aI00
aI00
aI00
aI00
aI00
aa(lp341
I132957
aF321.649
aF281.592
aVp1
p342
aS'dejavusans'
p343
aS'#000000'
p344
aF11.0
aI0
aI01
aI00
aI00
aI00
aI00
aI00
aI00
aI00
aa(lp345
I234378
aF361.9
aF281.592
aVp1
p346
aS'dejavusans'
p347
aS'#000000'
p348
aF11.0
aI1
aI01
aI00
aI00
aI00
aI00
aI00
aI00
aI00
aa(lp349
I10350
aF57.7
aF295.192
aVp1
p350
aS'dejavusans'
p351
aS'#000000'
p352
aF11.0
aI0
aI01
aI01
aI00
aI00
aI00
aI00
aI00
aI00
aa(lp353
I104512
aF104.362
aF295.192
aVp1
p354
aS'dejavusans'
p355
aS'#000000'
p356
aF11.0
aI0
aI00
aI00
aI00
aI00
aI00
aI00
aI00
aI00
aa(lp357
I112331
aF121.852
aF295.192
aVp1
p358
aS'dejavusans'
p359
aS'#000000'
p360
aF11.0
aI0
aI00
aI00
aI00
aI00
aI00
aI00
aI00
aI00
aa(lp361
I234378
aF185.498
aF295.192
aVp1
p362
aS'dejavusans'
p363
aS'#000000'
p364
aF11.0
aI0
aI00
aI00
aI00
aI00
aI00
aI00
aI00
aI00
aa(lp365
I10716
aF257.823
aF295.192
aVp1
p366
aS'dejavusans'
p367
aS'#000000'
p368
aF11.0
aI0
aI00
aI00
aI00
aI00
aI00
aI00
aI00
aI00
aa(lp369
I37508
aF281.0
aF295.192
aVp1
p370
aS'dejavusans'
p371
aS'#000000'
p372
aF11.0
aI0
aI01
aI00
aI00
aI00
aI00
aI00
aI00
aI00
aa(lp373
I31142
aF301.443
aF295.192
ag370
aS'dejavusans'
p374
aS'#000000'
p375
aF11.0
aI0
aI01
aI00
aI00
aI00
aI00
aI00
aI00
aI00
aa(lp376
I234378
aF340.32899999999995
aF295.192
ag370
aS'dejavusans'
p377
aS'#000000'
p378
aF11.0
aI0
aI00
aI00
aI00
aI00
aI00
aI00
aI00
aI00
aa(lp379
I184937
aF356.691
aF295.192
aVp1
p380
aS'dejavusans'
p381
aS'#000000'
p382
aF11.0
aI0
aI01
aI00
aI00
aI00
aI00
aI00
aI00
aI00
aa(lp383
I234378
aF379.1398
aF295.192
ag380
aS'dejavusans'
p384
aS'#000000'
p385
aF11.0
aI0
aI00
aI00
aI00
aI00
aI00
aI00
aI00
aI00
aa(lp386
I94617
aF389.152
aF295.192
aVp1
p387
aS'dejavusans'
p388
aS'#000000'
p389
aF11.0
aI0
aI01
aI00
aI00
aI00
aI00
aI00
aI00
aI00
aa(lp390
I234378
aF404.0515
aF295.192
ag387
aS'dejavusans'
p391
aS'#000000'
p392
aF11.0
aI0
aI00
aI00
aI00
aI00
aI00
aI00
aI00
aI00
aa(lp393
I234378
aF57.7
aF307.992
aVp1
p394
aS'dejavusans'
p395
aS'#000000'
p396
aF11.0
aI0
aI01
aI00
aI00
aI00
aI00
aI00
aI00
aI00
aa(lp397
I234378
aF86.41
aF307.992
ag394
aS'dejavusans'
p398
aS'#000000'
p399
aF11.0
aI0
aI00
aI00
aI00
aI00
aI00
aI00
aI00
aI00
aa(lp400
I85218
aF99.049
aF307.992
aVp1
p401
aS'dejavusans'
p402
aS'#000000'
p403
aF11.0
aI0
aI00
aI00
aI00
aI00
aI00
aI00
aI00
aI00
aa(lp404
I234378
aF126.615
aF307.992
aVp1
p405
aS'dejavusans'
p406
aS'#000000'
p407
aF11.0
aI0
aI01
aI00
aI00
aI00
aI00
aI00
aI00
aI00
aa(lp408
I127654
aF183.342
aF307.992
aVp1
p409
aS'dejavusans'
p410
aS'#000000'
p411
aF11.0
aI0
aI01
aI00
aI00
aI00
aI00
aI00
aI00
aI00
aa(lp412
I234378
aF224.108
aF307.992
aVp1
p413
aS'dejavusans'
p414
aS'#000000'
p415
aF11.0
aI0
aI00
aI00
aI00
aI00
aI00
aI00
aI00
aI00
aa(lp416
I234378
aF260.9
aF307.992
aVp1
p417
aS'dejavusans'
p418
aS'#000000'
p419
aF11.0
aI1
aI01
aI00
aI00
aI00
aI00
aI00
aI00
aI00
aa(lp420
I77592
aF364.718
aF307.992
aVp1
p421
aS'dejavusans'
p422
aS'#000000'
p423
aF11.0
aI1
aI00
aI00
aI00
aI00
aI00
aI00
aI00
aI00
aa(lp424
I175263
aF57.7
aF320.792
aVp1
p425
aS'dejavusans'
p426
aS'#000000'
p427
aF11.0
aI1
aI00
aI00
aI00
aI00
aI00
aI00
aI00
aI00
aa(lp428
I91186
aF102.387
aF320.792
aVp1
p429
aS'dejavusans'
p430
aS'#000000'
p431
aF11.0
aI0
aI00
aI00
aI00
aI00
aI00
aI00
aI00
aI00
aa(lp432
I234378
aF163.4116153846154
aF320.792
ag429
aS'dejavusans'
p433
aS'#000000'
p434
aF11.0
aI0
aI00
aI00
aI00
aI00
aI00
aI00
aI00
aI00
aa(lp435
I234378
aF57.7
aF333.592
aVp1
p436
aS'dejavusans'
p437
aS'#000000'
p438
aF11.0
aI0
aI01
aI00
aI00
aI00
aI00
aI00
aI00
aI00
aa(lp439
I120957
aF104.956
aF333.592
aVp1
p440
aS'dejavusans'
p441
aS'#000000'
p442
aF11.0
aI0
aI00
aI00
aI00
aI00
aI00
aI00
aI00
aI00
aa(lp443
I123583
aF164.114
aF333.592
aVp1
p444
aS'dejavusans'
p445
aS'#000000'
p446
aF11.0
aI0
aI00
aI00
aI00
aI00
aI00
aI00
aI00
aI00
aa(lp447
I169745
aF216.452
aF333.592
aVp1
p448
aS'dejavusans'
p449
aS'#000000'
p450
aF11.0
aI0
aI00
aI00
aI00
aI00
aI00
aI00
aI00
aI00
aa(lp451
I19784
aF248.429
aF333.592
aVp1
p452
aS'dejavusans'
p453
aS'#000000'
p454
aF11.0
aI0
aI00
aI00
aI00
aI00
aI00
aI00
aI00
aI00
aa(lp455
I230071
aF277.997
aF333.592
aVp1
p456
aS'dejavusans'
p457
aS'#000000'
p458
aF11.0
aI0
aI00
aI00
aI00
aI00
aI00
aI00
aI00
aI00
aa(lp459
I234378
aF311.481
aF333.592
aVp1
p460
aS'dejavusans'
p461
aS'#000000'
p462
aF11.0
aI0
aI00
aI00
aI00
aI00
aI00
aI00
aI00
aI00
aa(lp463
I234378
aF379.395
aF333.592
aVp1
p464
aS'dejavusans'
p465
aS'#000000'
p466
aF11.0
aI0
aI00
aI00
aI00
aI00
aI00
aI00
aI00
aI00
aa(lp467
I45106
aF57.7
aF347.292
aVp1
p468
aS'dejavusans'
p469
aS'#000000'
p470
aF11.0
aI1
aI01
aI00
aI00
aI00
aI00
aI00
aI00
aI00
aa(lp471
I144483
aF97.594
aF347.292
aVp1
p472
aS'dejavusans'
p473
aS'#000000'
p474
aF11.0
aI0
aI00
aI00
aI00
aI00
aI00
aI00
aI00
aI00
aa(lp475
I216024
aF115.172
aF347.292
aVp1
p476
aS'dejavusans'
p477
aS'#000000'
p478
aF11.0
aI0
aI00
aI00
aI00
aI00
aI00
aI00
aI00
aI00
aa(lp479
I144489
aF137.051
aF347.292
aVp1
p480
aS'dejavusans'
p481
aS'#000000'
p482
aF11.0
aI0
aI00
aI00
aI00
aI00
aI00
aI00
aI00
aI00
aa(lp483
I10350
aF151.7
aF347.292
aVp1
p484
aS'dejavusans'
p485
aS'#000000'
p486
aF11.0
aI1
aI01
aI01
aI00
aI00
aI00
aI00
aI00
aI00
aa(lp487
I228447
aF188.694
aF347.292
aVp1
p488
aS'dejavusans'
p489
aS'#000000'
p490
aF11.0
aI0
aI00
aI00
aI00
aI00
aI00
aI00
aI00
aI00
aa(lp491
I95887
aF229.922
aF347.292
aVp1
p492
aS'dejavusans'
p493
aS'#000000'
p494
aF11.0
aI0
aI00
aI00
aI00
aI00
aI00
aI00
aI00
aI00
aa(lp495
I234378
aF283.25
aF347.292
aVp1
p496
aS'dejavusans'
p497
aS'#000000'
p498
aF11.0
aI0
aI00
aI00
aI00
aI00
aI00
aI00
aI00
aI00
aa(lp499
I45106
aF316.789
aF347.292
aVp1
p500
aS'dejavusans'
p501
aS'#000000'
p502
aF11.0
aI0
aI01
aI00
aI00
aI00
aI00
aI00
aI00
aI00
aa(lp503
I126003
aF348.5193333333333
aF347.292
ag500
aS'dejavusans'
p504
aS'#000000'
p505
aF11.0
aI0
aI01
aI00
aI00
aI00
aI00
aI00
aI00
aI00
aa(lp506
I45106
aF69.778
aF360.092
aVp1
p507
aS'dejavusans'
p508
aS'#000000'
p509
aF11.0
aI0
aI01
aI00
aI00
aI00
aI00
aI00
aI00
aI00
aa(lp510
I234378
aF102.59244444444445
aF360.092
ag507
aS'dejavusans'
p511
aS'#000000'
p512
aF11.0
aI0
aI01
aI01
aI00
aI00
aI00
aI00
aI00
aI00
aa(lp513
I234378
aF130.509
aF360.092
aVp1
p514
aS'dejavusans'
p515
aS'#000000'
p516
aF11.0
aI0
aI00
aI00
aI00
aI00
aI00
aI00
aI00
aI00
aa(lp517
I234378
aF173.5641
aF360.092
ag514
aS'dejavusans'
p518
aS'#000000'
p519
aF11.0
aI0
aI00
aI00
aI00
aI00
aI00
aI00
aI00
aI00
aa(lp520
I8740
aF57.7
aF372.892
aVp1
p521
aS'dejavusans'
p522
aS'#000000'
p523
aF11.0
aI0
aI01
aI00
aI00
aI00
aI00
aI00
aI00
aI00
aa(lp524
I144489
aF106.617
aF372.892
aVp1
p525
aS'dejavusans'
p526
aS'#000000'
p527
aF11.0
aI0
aI00
aI00
aI00
aI00
aI00
aI00
aI00
aI00
aa(lp528
I234378
aF121.192
aF372.892
aVp1
p529
aS'dejavusans'
p530
aS'#000000'
p531
aF11.0
aI0
aI00
aI00
aI00
aI00
aI00
aI00
aI00
aI00
aa(lp532
I206505
aF184.409
aF372.892
aVp1
p533
aS'dejavusans'
p534
aS'#000000'
p535
aF11.0
aI0
aI00
aI00
aI00
aI00
aI00
aI00
aI00
aI00
aa(lp536
I234378
aF216.254
aF372.892
aVp1
p537
aS'dejavusans'
p538
aS'#000000'
p539
aF11.0
aI0
aI00
aI00
aI00
aI00
aI00
aI00
aI00
aI00
aa(lp540
I144489
aF242.709
aF372.892
aVp1
p541
aS'dejavusans'
p542
aS'#000000'
p543
aF11.0
aI0
aI00
aI00
aI00
aI00
aI00
aI00
aI00
aI00
aa(lp544
I154089
aF257.284
aF372.892
aVp1
p545
aS'dejavusans'
p546
aS'#000000'
p547
aF11.0
aI0
aI00
aI00
aI00
aI00
aI00
aI00
aI00
aI00
aa(lp548
I234378
aF312.124
aF372.892
ag545
aS'dejavusans'
p549
aS'#000000'
p550
aF11.0
aI0
aI00
aI00
aI00
aI00
aI00
aI00
aI00
aI00
aa(lp551
I755
aF321.689
aF372.892
aVp1
p552
aS'dejavusans'
p553
aS'#000000'
p554
aF11.0
aI0
aI00
aI00
aI00
aI00
aI00
aI00
aI00
aI00
aa(lp555
I154089
aF345.86233333333337
aF372.892
ag552
aS'dejavusans'
p556
aS'#000000'
p557
aF11.0
aI0
aI00
aI00
aI00
aI00
aI00
aI00
aI00
aI00
aa(lp558
I85218
aF57.7
aF386.492
aVp1
p559
aS'dejavusans'
p560
aS'#000000'
p561
aF11.0
aI0
aI00
aI00
aI00
aI00
aI00
aI00
aI00
aI00
aa(lp562
I234378
aF86.553
aF386.492
aVp1
p563
aS'dejavusans'
p564
aS'#000000'
p565
aF11.0
aI0
aI00
aI00
aI00
aI00
aI00
aI00
aI00
aI00
aa(lp566
I132957
aF165.467
aF386.492
aVp1
p567
aS'dejavusans'
p568
aS'#000000'
p569
aF11.0
aI0
aI00
aI00
aI00
aI00
aI00
aI00
aI00
aI00
aa(lp570
I85218
aF198.324
aF386.492
aVp1
p571
aS'dejavusans'
p572
aS'#000000'
p573
aF11.0
aI0
aI00
aI00
aI00
aI00
aI00
aI00
aI00
aI00
aa(lp574
I19147
aF227.177
aF386.492
aVp1
p575
aS'dejavusans'
p576
aS'#000000'
p577
aF11.0
aI0
aI00
aI00
aI00
aI00
aI00
aI00
aI00
aI00
aa(lp578
I234378
aF294.475
aF386.492
aVp1
p579
aS'dejavusans'
p580
aS'#000000'
p581
aF11.0
aI0
aI00
aI00
aI00
aI00
aI00
aI00
aI00
aI00
aa(lp582
I123665
aF348.133
aF386.492
aVp1
p583
aS'dejavusans'
p584
aS'#000000'
p585
aF11.0
aI0
aI00
aI00
aI00
aI00
aI00
aI00
aI00
aI00
aa(lp586
I154254
aF57.7
aF399.292
aVp1
p587
aS'dejavusans'
p588
aS'#000000'
p589
aF11.0
aI0
aI00
aI00
aI00
aI00
aI00
aI00
aI00
aI00
aa(lp590
I234378
aF122.23784615384615
aF399.292
ag587
aS'dejavusans'
p591
aS'#000000'
p592
aF11.0
aI0
aI00
aI00
aI00
aI00
aI00
aI00
aI00
aI00
aa(lp593
I228990
aF57.7
aF412.092
aVp1
p594
aS'dejavusans'
p595
aS'#000000'
p596
aF11.0
aI0
aI01
aI00
aI00
aI00
aI00
aI00
aI00
aI00
aa(lp597
I234378
aF90.876
aF412.092
aVp1
p598
aS'dejavusans'
p599
aS'#000000'
p600
aF11.0
aI0
aI01
aI00
aI00
aI00
aI00
aI00
aI00
aI00
aa(lp601
I234378
aF169.218
aF412.092
aVp1
p602
aS'dejavusans'
p603
aS'#000000'
p604
aF11.0
aI0
aI00
aI00
aI00
aI00
aI00
aI00
aI00
aI00
aa(lp605
I169745
aF200.392
aF412.092
aVp1
p606
aS'dejavusans'
p607
aS'#000000'
p608
aF11.0
aI0
aI00
aI00
aI00
aI00
aI00
aI00
aI00
aI00
aa(lp609
I21716
aF227.859
aF412.092
aVp1
p610
aS'dejavusans'
p611
aS'#000000'
p612
aF11.0
aI0
aI01
aI00
aI00
aI00
aI00
aI00
aI00
aI00
aa(lp613
I89480
aF255.238
aF412.092
aVp1
p614
aS'dejavusans'
p615
aS'#000000'
p616
aF11.0
aI0
aI00
aI00
aI00
aI00
aI00
aI00
aI00
aI00
aa(lp617
I224291
aF270.517
aF412.092
aVp1
p618
aS'dejavusans'
p619
aS'#000000'
p620
aF11.0
aI0
aI00
aI00
aI00
aI00
aI00
aI00
aI00
aI00
aa(lp621
I234378
aF302.373
aF412.092
aVp1
p622
aS'dejavusans'
p623
aS'#000000'
p624
aF11.0
aI0
aI00
aI00
aI00
aI00
aI00
aI00
aI00
aI00
aa(lp625
I221291
aF369.836
aF412.092
aVp1
p626
aS'dejavusans'
p627
aS'#000000'
p628
aF11.0
aI0
aI00
aI00
aI00
aI00
aI00
aI00
aI00
aI00
aa(lp629
I114315
aF57.7
aF425.792
aVp1
p630
aS'dejavusans'
p631
aS'#000000'
p632
aF11.0
aI0
aI00
aI00
aI00
aI00
aI00
aI00
aI00
aI00
aa(lp633
I37508
aF121.126
aF425.792
aVp1
p634
aS'dejavusans'
p635
aS'#000000'
p636
aF11.0
aI0
aI00
aI00
aI00
aI00
aI00
aI00
aI00
aI00
aa(lp637
I31142
aF141.11
aF425.792
ag634
aS'dejavusans'
p638
aS'#000000'
p639
aF11.0
aI0
aI00
aI00
aI00
aI00
aI00
aI00
aI00
aI00
aa(lp640
I234378
aF179.07800000000003
aF425.792
ag634
aS'dejavusans'
p641
aS'#000000'
p642
aF11.0
aI0
aI00
aI00
aI00
aI00
aI00
aI00
aI00
aI00
aa(lp643
I206437
aF200.425
aF425.792
aVp1
p644
aS'dejavusans'
p645
aS'#000000'
p646
aF11.0
aI0
aI00
aI00
aI00
aI00
aI00
aI00
aI00
aI00
aa(lp647
I96680
aF286.324
aF425.792
aVp1
p648
aS'dejavusans'
p649
aS'#000000'
p650
aF11.0
aI0
aI00
aI00
aI00
aI00
aI00
aI00
aI00
aI00
aa(lp651
I234378
aF347.748
aF425.792
aVp1
p652
aS'dejavusans'
p653
aS'#000000'
p654
aF11.0
aI0
aI00
aI00
aI00
aI00
aI00
aI00
aI00
aI00
aa(lp655
I89480
aF397.666
aF425.792
aVp1
p656
aS'dejavusans'
p657
aS'#000000'
p658
aF11.0
aI0
aI00
aI00
aI00
aI00
aI00
aI00
aI00
aI00
aa(lp659
I61195
aF57.7
aF438.592
aVp1
p660
aS'dejavusans'
p661
aS'#000000'
p662
aF11.0
aI0
aI00
aI00
aI00
aI00
aI00
aI00
aI00
aI00
aa(lp663
I206505
aF103.427
aF438.592
aVp1
p664
aS'dejavusans'
p665
aS'#000000'
p666
aF11.0
aI0
aI00
aI00
aI00
aI00
aI00
aI00
aI00
aI00
aa(lp667
I112491
aF134.777
aF438.592
aVp1
p668
aS'dejavusans'
p669
aS'#000000'
p670
aF11.0
aI0
aI00
aI00
aI00
aI00
aI00
aI00
aI00
aI00
aa(lp671
I55039
aF166.534
aF438.592
aVp1
p672
aS'dejavusans'
p673
aS'#000000'
p674
aF11.0
aI0
aI00
aI00
aI00
aI00
aI00
aI00
aI00
aI00
aa(lp675
I132957
aF190.305
aF438.592
aVp1
p676
aS'dejavusans'
p677
aS'#000000'
p678
aF11.0
aI0
aI00
aI00
aI00
aI00
aI00
aI00
aI00
aI00
aa(lp679
I234378
aF212.8418
aF438.592
ag676
aS'dejavusans'
p680
aS'#000000'
p681
aF11.0
aI0
aI00
aI00
aI00
aI00
aI00
aI00
aI00
aI00
aa(lp682
I120957
aF57.7
aF451.392
aVp1
p683
aS'dejavusans'
p684
aS'#000000'
p685
aF11.0
aI0
aI01
aI00
aI00
aI00
aI00
aI00
aI00
aI00
aa(lp686
I89480
aF113.833
aF451.392
aVp1
p687
aS'dejavusans'
p688
aS'#000000'
p689
aF11.0
aI0
aI00
aI00
aI00
aI00
aI00
aI00
aI00
aI00
aa(lp690
I132957
aF130.014
aF451.392
aVp1
p691
aS'dejavusans'
p692
aS'#000000'
p693
aF11.0
aI0
aI00
aI00
aI00
aI00
aI00
aI00
aI00
aI00
aa(lp694
I15157
aF159.978
aF451.392
aVp1
p695
aS'dejavusans'
p696
aS'#000000'
p697
aF11.0
aI0
aI00
aI00
aI00
aI00
aI00
aI00
aI00
aI00
aa(lp698
I86468
aF234.723
aF451.392
aVp1
p699
aS'dejavusans'
p700
aS'#000000'
p701
aF11.0
aI0
aI00
aI00
aI00
aI00
aI00
aI00
aI00
aI00
aa(lp702
I89480
aF280.362
aF451.392
aVp1
p703
aS'dejavusans'
p704
aS'#000000'
p705
aF11.0
aI0
aI00
aI00
aI00
aI00
aI00
aI00
aI00
aI00
aa(lp706
I234378
aF296.543
aF451.392
aVp1
p707
aS'dejavusans'
p708
aS'#000000'
p709
aF11.0
aI0
aI01
aI01
aI00
aI00
aI00
aI00
aI00
aI00
aa(lp710
I131049
aF331.611
aF451.392
aVp1
p711
aS'dejavusans'
p712
aS'#000000'
p713
aF11.0
aI0
aI00
aI00
aI00
aI00
aI00
aI00
aI00
aI00
aa(lp714
I52532
aF362.389
aF451.392
aVp1
p715
aS'dejavusans'
p716
aS'#000000'
p717
aF11.0
aI0
aI00
aI00
aI00
aI00
aI00
aI00
aI00
aI00
aa(lp718
I234378
aF57.7
aF464.992
aVp1
p719
aS'dejavusans'
p720
aS'#000000'
p721
aF11.0
aI0
aI00
aI00
aI00
aI00
aI00
aI00
aI00
aI00
aa(lp722
I15726
aF103.438
aF464.992
aVp1
p723
aS'dejavusans'
p724
aS'#000000'
p725
aF11.0
aI0
aI00
aI00
aI00
aI00
aI00
aI00
aI00
aI00
aa(lp726
I234378
aF128.001
aF464.992
aVp1
p727
aS'dejavusans'
p728
aS'#000000'
p729
aF11.0
aI0
aI01
aI01
aI00
aI00
aI00
aI00
aI00
aI00
aa(lp730
I234378
aF161.265
aF464.992
aVp1
p731
aS'dejavusans'
p732
aS'#000000'
p733
aF11.0
aI0
aI00
aI00
aI00
aI00
aI00
aI00
aI00
aI00
aa(lp734
I234378
aF194.496
aF464.992
aVp1
p735
aS'dejavusans'
p736
aS'#000000'
p737
aF11.0
aI0
aI01
aI00
aI00
aI00
aI00
aI00
aI00
aI00
aa(lp738
I234378
aF225.95600000000002
aF464.992
ag735
aS'dejavusans'
p739
aS'#000000'
p740
aF11.0
aI0
aI00
aI00
aI00
aI00
aI00
aI00
aI00
aI00
aa(lp741
I127654
aF235.834
aF464.992
aVp1
p742
aS'dejavusans'
p743
aS'#000000'
p744
aF11.0
aI0
aI01
aI00
aI00
aI00
aI00
aI00
aI00
aI00
aa(lp745
I48371
aF285.18
aF464.992
aVp1
p746
aS'dejavusans'
p747
aS'#000000'
p748
aF11.0
aI0
aI01
aI00
aI00
aI00
aI00
aI00
aI00
aI00
aa(lp749
I234378
aF313.49583333333334
aF464.992
ag746
aS'dejavusans'
p750
aS'#000000'
p751
aF11.0
aI0
aI00
aI00
aI00
aI00
aI00
aI00
aI00
aI00
aa(lp752
I234378
aF57.7
aF477.792
aVp1
p753
aS'dejavusans'
p754
aS'#000000'
p755
aF11.0
aI0
aI01
aI00
aI00
aI00
aI00
aI00
aI00
aI00
aa(lp756
I120957
aF102.657
aF477.792
aVp1
p757
aS'dejavusans'
p758
aS'#000000'
p759
aF11.0
aI0
aI00
aI00
aI00
aI00
aI00
aI00
aI00
aI00
aa(lp760
I144489
aF159.615
aF477.792
aVp1
p761
aS'dejavusans'
p762
aS'#000000'
p763
aF11.0
aI0
aI00
aI00
aI00
aI00
aI00
aI00
aI00
aI00
aa(lp764
I228990
aF176.698
aF477.792
aVp1
p765
aS'dejavusans'
p766
aS'#000000'
p767
aF11.0
aI0
aI00
aI00
aI00
aI00
aI00
aI00
aI00
aI00
aa(lp768
I132957
aF210.567
aF477.792
aVp1
p769
aS'dejavusans'
p770
aS'#000000'
p771
aF11.0
aI0
aI00
aI00
aI00
aI00
aI00
aI00
aI00
aI00
aa(lp772
I111178
aF241.73
aF477.792
aVp1
p773
aS'dejavusans'
p774
aS'#000000'
p775
aF11.0
aI0
aI00
aI00
aI00
aI00
aI00
aI00
aI00
aI00
aa(lp776
I234378
aF285.884
aF477.792
aVp1
p777
aS'dejavusans'
p778
aS'#000000'
p779
aF11.0
aI0
aI00
aI00
aI00
aI00
aI00
aI00
aI00
aI00
aa(lp780
I234378
aF352.885
aF477.792
aVp1
p781
aS'dejavusans'
p782
aS'#000000'
p783
aF11.0
aI0
aI00
aI00
aI00
aI00
aI00
aI00
aI00
aI00
aa(lp784
I94617
aF388.932
aF477.792
aVp1
p785
aS'dejavusans'
p786
aS'#000000'
p787
aF11.0
aI0
aI01
aI00
aI00
aI00
aI00
aI00
aI00
aI00
aa(lp788
I234378
aF403.8315
aF477.792
ag785
aS'dejavusans'
p789
aS'#000000'
p790
aF11.0
aI0
aI00
aI00
aI00
aI00
aI00
aI00
aI00
aI00
aa(lp791
I184937
aF57.7
aF491.492
aVp1
p792
aS'dejavusans'
p793
aS'#000000'
p794
aF11.0
aI0
aI01
aI00
aI00
aI00
aI00
aI00
aI00
aI00
aa(lp795
I190806
aF86.872
aF491.492
aVp1
p796
aS'dejavusans'
p797
aS'#000000'
p798
aF11.0
aI0
aI00
aI00
aI00
aI00
aI00
aI00
aI00
aI00
aa(lp799
I234378
aF106.551
aF491.492
aVp1
p800
aS'dejavusans'
p801
aS'#000000'
p802
aF11.0
aI0
aI00
aI00
aI00
aI00
aI00
aI00
aI00
aI00
aa(lp803
I26147
aF158.284
aF491.492
aVp1
p804
aS'dejavusans'
p805
aS'#000000'
p806
aF11.0
aI0
aI00
aI00
aI00
aI00
aI00
aI00
aI00
aI00
aa(lp807
I37508
aF209.434
aF491.492
aVp1
p808
aS'dejavusans'
p809
aS'#000000'
p810
aF11.0
aI0
aI00
aI00
aI00
aI00
aI00
aI00
aI00
aI00
aa(lp811
I31142
aF230.2637
aF491.492
ag808
aS'dejavusans'
p812
aS'#000000'
p813
aF11.0
aI0
aI00
aI00
aI00
aI00
aI00
aI00
aI00
aI00
aa(lp814
I234378
aF280.153
aF491.492
aVp1
p815
aS'dejavusans'
p816
aS'#000000'
p817
aF11.0
aI0
aI00
aI00
aI00
aI00
aI00
aI00
aI00
aI00
aa(lp818
I89480
aF313.527
aF491.492
aVp1
p819
aS'dejavusans'
p820
aS'#000000'
p821
aF11.0
aI0
aI00
aI00
aI00
aI00
aI00
aI00
aI00
aI00
aa(lp822
I234378
aF329.114
aF491.492
aVp1
p823
aS'dejavusans'
p824
aS'#000000'
p825
aF11.0
aI0
aI00
aI00
aI00
aI00
aI00
aI00
aI00
aI00
aa(lp826
I165767
aF57.7
aF504.292
aVp1
p827
aS'dejavusans'
p828
aS'#000000'
p829
aF11.0
aI0
aI00
aI00
aI00
aI00
aI00
aI00
aI00
aI00
aa(lp830
I132957
aF99.731
aF504.292
aVp1
p831
aS'dejavusans'
p832
aS'#000000'
p833
aF11.0
aI0
aI00
aI00
aI00
aI00
aI00
aI00
aI00
aI00
aa(lp834
I190806
aF127.99
aF504.292
aVp1
p835
aS'dejavusans'
p836
aS'#000000'
p837
aF11.0
aI0
aI00
aI00
aI00
aI00
aI00
aI00
aI00
aI00
aa(lp838
I111804
aF146.569
aF504.292
aVp1
p839
aS'dejavusans'
p840
aS'#000000'
p841
aF11.0
aI0
aI00
aI00
aI00
aI00
aI00
aI00
aI00
aI00
aa(lp842
I131630
aF188.006
aF504.292
aVp1
p843
aS'dejavusans'
p844
aS'#000000'
p845
aF11.0
aI0
aI00
aI00
aI00
aI00
aI00
aI00
aI00
aI00
aa(lp846
I234378
aF218.54016666666666
aF504.292
ag843
aS'dejavusans'
p847
aS'#000000'
p848
aF11.0
aI0
aI00
aI00
aI00
aI00
aI00
aI00
aI00
aI00
aa(lp849
I60220
aF57.7
aF517.092
aVp1
p850
aS'dejavusans'
p851
aS'#000000'
p852
aF11.0
aI0
aI01
aI00
aI00
aI00
aI00
aI00
aI00
aI00
aa(lp853
I123583
aF122.501
aF517.092
aVp1
p854
aS'dejavusans'
p855
aS'#000000'
p856
aF11.0
aI0
aI00
aI00
aI00
aI00
aI00
aI00
aI00
aI00
aa(lp857
I169745
aF169.537
aF517.092
aVp1
p858
aS'dejavusans'
p859
aS'#000000'
p860
aF11.0
aI0
aI00
aI00
aI00
aI00
aI00
aI00
aI00
aI00
aa(lp861
I234378
aF196.388
aF517.092
aVp1
p862
aS'dejavusans'
p863
aS'#000000'
p864
aF11.0
aI0
aI01
aI00
aI00
aI00
aI00
aI00
aI00
aI00
aa(lp865
I213740
aF242.236
aF517.092
aVp1
p866
aS'dejavusans'
p867
aS'#000000'
p868
aF11.0
aI0
aI00
aI00
aI00
aI00
aI00
aI00
aI00
aI00
aa(lp869
I234378
aF262.498
aF517.092
aVp1
p870
aS'dejavusans'
p871
aS'#000000'
p872
aF11.0
aI0
aI00
aI00
aI00
aI00
aI00
aI00
aI00
aI00
aa(lp873
I10716
aF308.368
aF517.092
aVp1
p874
aS'dejavusans'
p875
aS'#000000'
p876
aF11.0
aI0
aI00
aI00
aI00
aI00
aI00
aI00
aI00
aI00
aa(lp877
I117203
aF330.731
aF517.092
aVp1
p878
aS'dejavusans'
p879
aS'#000000'
p880
aF11.0
aI0
aI01
aI00
aI00
aI00
aI00
aI00
aI00
aI00
aa(lp881
I234378
aF381.9372222222222
aF517.092
ag878
aS'dejavusans'
p882
aS'#000000'
p883
aF11.0
aI0
aI00
aI00
aI00
aI00
aI00
aI00
aI00
aI00
aa(lp884
I112811
aF391.825
aF517.092
aVp1
p885
aS'dejavusans'
p886
aS'#000000'
p887
aF11.0
aI0
aI01
aI00
aI00
aI00
aI00
aI00
aI00
aI00
aa(lp888
I234378
aF431.76875
aF517.092
ag885
aS'dejavusans'
p889
aS'#000000'
p890
aF11.0
aI0
aI00
aI00
aI00
aI00
aI00
aI00
aI00
aI00
aa(lp891
I234378
aF441.061
aF517.092
aVp1
p892
aS'dejavusans'
p893
aS'#000000'
p894
aF11.0
aI0
aI01
aI01
aI00
aI00
aI00
aI00
aI00
aI00
aa(lp895
I234378
aF467.84819999999996
aF517.092
ag892
aS'dejavusans'
p896
aS'#000000'
p897
aF11.0
aI0
aI00
aI00
aI00
aI00
aI00
aI00
aI00
aI00
aa(lp898
I234378
aF57.7
aF530.692
aVp1
p899
aS'dejavusans'
p900
aS'#000000'
p901
aF11.0
aI0
aI01
aI00
aI00
aI00
aI00
aI00
aI00
aI00
aa(lp902
I60220
aF99.742
aF530.692
aVp1
p903
aS'dejavusans'
p904
aS'#000000'
p905
aF11.0
aI0
aI00
aI00
aI00
aI00
aI00
aI00
aI00
aI00
aa(lp906
I169745
aF164.059
aF530.692
aVp1
p907
aS'dejavusans'
p908
aS'#000000'
p909
aF11.0
aI0
aI00
aI00
aI00
aI00
aI00
aI00
aI00
aI00
aa(lp910
I234378
aF190.91
aF530.692
aVp1
p911
aS'dejavusans'
p912
aS'#000000'
p913
aF11.0
aI0
aI01
aI01
aI00
aI00
aI00
aI00
aI00
aI00
aa(lp914
I234378
aF246.548
aF530.692
aVp1
p915
aS'dejavusans'
p916
aS'#000000'
p917
aF11.0
aI0
aI01
aI00
aI00
aI00
aI00
aI00
aI00
aI00
aa(lp918
I234378
aF286.709
aF530.692
aVp1
p919
aS'dejavusans'
p920
aS'#000000'
p921
aF11.0
aI0
aI01
aI00
aI00
aI00
aI00
aI00
aI00
aI00
aa(lp922
I234378
aF342.09950000000003
aF530.692
ag919
aS'dejavusans'
p923
aS'#000000'
p924
aF11.0
aI0
aI00
aI00
aI00
aI00
aI00
aI00
aI00
aI00
aa(lp925
I60220
aF57.7
aF544.392
aVp1
p926
aS'dejavusans'
p927
aS'#000000'
p928
aF11.0
aI0
aI01
aI00
aI00
aI00
aI00
aI00
aI00
aI00
aa(lp929
I169745
aF123.095
aF544.392
aVp1
p930
aS'dejavusans'
p931
aS'#000000'
p932
aF11.0
aI0
aI00
aI00
aI00
aI00
aI00
aI00
aI00
aI00
aa(lp933
I123583
aF150.551
aF544.392
aVp1
p934
aS'dejavusans'
p935
aS'#000000'
p936
aF11.0
aI0
aI00
aI00
aI00
aI00
aI00
aI00
aI00
aI00
aa(lp937
I135639
aF198.28
aF544.392
aVp1
p938
aS'dejavusans'
p939
aS'#000000'
p940
aF11.0
aI0
aI00
aI00
aI00
aI00
aI00
aI00
aI00
aI00
aa(lp941
I234378
aF212.9
aF544.392
aVp1
p942
aS'dejavusans'
p943
aS'#000000'
p944
aF11.0
aI1
aI01
aI00
aI00
aI00
aI00
aI00
aI00
aI00
aa(lp945
I234378
aF267.3
aF544.392
aVp1
p946
aS'dejavusans'
p947
aS'#000000'
p948
aF11.0
aI1
aI01
aI01
aI00
aI00
aI00
aI00
aI00
aI00
aa(lp949
I234378
aF289.7635714285714
aF544.392
ag946
aS'dejavusans'
p950
aS'#000000'
p951
aF11.0
aI1
aI00
aI00
aI00
aI00
aI00
aI00
aI00
aI00
aa(lp952
I234378
aF297.25142857142856
aF544.392
ag946
aS'dejavusans'
p953
aS'#000000'
p954
aF11.0
aI1
aI01
aI01
aI00
aI00
aI00
aI00
aI00
aI00
aa(lp955
I87500
aF323.891
aF544.392
aVp1
p956
aS'dejavusans'
p957
aS'#000000'
p958
aF11.0
aI0
aI00
aI00
aI00
aI00
aI00
aI00
aI00
aI00
aa(lp959
I234378
aF378.825
aF544.392
aVp1
p960
aS'dejavusans'
p961
aS'#000000'
p962
aF11.0
aI0
aI01
aI00
aI00
aI00
aI00
aI00
aI00
aI00
aa(lp963
I223466
aF406.193
aF544.392
aVp1
p964
aS'dejavusans'
p965
aS'#000000'
p966
aF11.0
aI0
aI00
aI00
aI00
aI00
aI00
aI00
aI00
aI00
aa(lp967
I234378
aF454.923
aF544.392
aVp1
p968
aS'dejavusans'
p969
aS'#000000'
p970
aF11.0
aI0
aI01
aI00
aI00
aI00
aI00
aI00
aI00
aI00
aa(lp971
I234378
aF519.5420769230769
aF544.392
ag968
aS'dejavusans'
p972
aS'#000000'
p973
aF11.0
aI0
aI00
aI00
aI00
aI00
aI00
aI00
aI00
aI00
aa(lp974
I25691
aF529.008
aF544.392
aVp1
p975
aS'dejavusans'
p976
aS'#000000'
p977
aF11.0
aI0
aI00
aI00
aI00
aI00
aI00
aI00
aI00
aI00
aa(lp978
I89480
aF553.857
aF544.392
aVp1
p979
aS'dejavusans'
p980
aS'#000000'
p981
aF11.0
aI0
aI00
aI00
aI00
aI00
aI00
aI00
aI00
aI00
aa(lp982
I25691
aF569.026
aF544.392
aVp1
p983
aS'dejavusans'
p984
aS'#000000'
p985
aF11.0
aI0
aI00
aI00
aI00
aI00
aI00
aI00
aI00
aI00
aa(lp986
I164851
aF57.7
aF557.992
aVp1
p987
aS'dejavusans'
p988
aS'#000000'
p989
aF11.0
aI0
aI00
aI00
aI00
aI00
aI00
aI00
aI00
aI00
aa(lp990
I153177
aF93.659
aF557.992
aVp1
p991
aS'dejavusans'
p992
aS'#000000'
p993
aF11.0
aI0
aI01
aI00
aI00
aI00
aI00
aI00
aI00
aI00
aa(lp994
I234378
aF162.66899999999998
aF557.992
ag991
aS'dejavusans'
p995
aS'#000000'
p996
aF11.0
aI0
aI00
aI00
aI00
aI00
aI00
aI00
aI00
aI00
aa(lp997
I234378
aF176.17
aF557.992
aVp1
p998
aS'dejavusans'
p999
aS'#000000'
p1000
aF11.0
aI0
aI01
aI00
aI00
aI00
aI00
aI00
aI00
aI00
aa(lp1001
I87604
aF227.705
aF557.992
aVp1
p1002
aS'dejavusans'
p1003
aS'#000000'
p1004
aF11.0
aI0
aI01
aI00
aI00
aI00
aI00
aI00
aI00
aI00
aa(lp1005
I234378
aF268.053
aF557.992
aVp1
p1006
aS'dejavusans'
p1007
aS'#000000'
p1008
aF11.0
aI0
aI00
aI00
aI00
aI00
aI00
aI00
aI00
aI00
aa(lp1009
I234378
aF273.73175
aF557.992
ag1006
aS'dejavusans'
p1010
aS'#000000'
p1011
aF11.0
aI0
aI01
aI00
aI00
aI00
aI00
aI00
aI00
aI00
aa(lp1012
I209062
aF320.193
aF557.992
aVp1
p1013
aS'dejavusans'
p1014
aS'#000000'
p1015
aF11.0
aI0
aI01
aI00
aI00
aI00
aI00
aI00
aI00
aI00
aa(lp1016
I234378
aF342.445
aF557.992
ag1013
aS'dejavusans'
p1017
aS'#000000'
p1018
aF11.0
aI0
aI00
aI00
aI00
aI00
aI00
aI00
aI00
aI00
aa(lp1019
I234378
aF363.697
aF557.992
ag1013
aS'dejavusans'
p1020
aS'#000000'
p1021
aF11.0
aI0
aI00
aI00
aI00
aI00
aI00
aI00
aI00
aI00
aa(lp1022
I234378
aF369.01
aF557.992
ag1013
aS'dejavusans'
p1023
aS'#000000'
p1024
aF11.0
aI0
aI00
aI00
aI00
aI00
aI00
aI00
aI00
aI00
aa(lp1025
I234378
aF385.335
aF557.992
aVp1
p1026
aS'dejavusans'
p1027
aS'#000000'
p1028
aF11.0
aI0
aI01
aI01
aI00
aI00
aI00
aI00
aI00
aI00
aa(lp1029
I234378
aF416.806
aF557.992
aVp1
p1030
aS'dejavusans'
p1031
aS'#000000'
p1032
aF11.0
aI0
aI00
aI00
aI00
aI00
aI00
aI00
aI00
aI00
aa(lp1033
I234378
aF453.082625
aF557.992
ag1030
aS'dejavusans'
p1034
aS'#000000'
p1035
aF11.0
aI0
aI00
aI00
aI00
aI00
aI00
aI00
aI00
aI00
aa(lp1036
I39311
aF464.964
aF557.992
aVp1
p1037
aS'dejavusans'
p1038
aS'#000000'
p1039
aF11.0
aI0
aI01
aI00
aI00
aI00
aI00
aI00
aI00
aI00
aa(lp1040
I74616
aF531.184
aF557.992
aVp1
p1041
aS'dejavusans'
p1042
aS'#000000'
p1043
aF11.0
aI0
aI01
aI00
aI00
aI00
aI00
aI00
aI00
aI00
aa(lp1044
I153177
aF57.7
aF570.792
aVp1
p1045
aS'dejavusans'
p1046
aS'#000000'
p1047
aF11.0
aI0
aI00
aI00
aI00
aI00
aI00
aI00
aI00
aI00
aa(lp1048
I85218
aF134.821
aF570.792
aVp1
p1049
aS'dejavusans'
p1050
aS'#000000'
p1051
aF11.0
aI0
aI00
aI00
aI00
aI00
aI00
aI00
aI00
aI00
aa(lp1052
I234378
aF158.977
aF570.792
aVp1
p1053
aS'dejavusans'
p1054
aS'#000000'
p1055
aF11.0
aI0
aI00
aI00
aI00
aI00
aI00
aI00
aI00
aI00
aa(lp1056
I144489
aF211.997
aF570.792
aVp1
p1057
aS'dejavusans'
p1058
aS'#000000'
p1059
aF11.0
aI0
aI00
aI00
aI00
aI00
aI00
aI00
aI00
aI00
aa(lp1060
I234378
aF226.077
aF570.792
aVp1
p1061
aS'dejavusans'
p1062
aS'#000000'
p1063
aF11.0
aI0
aI01
aI01
aI00
aI00
aI00
aI00
aI00
aI00
aa(lp1064
I234378
aF239.453
aF570.792
aVp1
p1065
aS'dejavusans'
p1066
aS'#000000'
p1067
aF11.0
aI0
aI01
aI00
aI00
aI00
aI00
aI00
aI00
aI00
aa(lp1068
I234378
aF305.86
aF570.792
aVp1
p1069
aS'dejavusans'
p1070
aS'#000000'
p1071
aF11.0
aI0
aI00
aI00
aI00
aI00
aI00
aI00
aI00
aI00
aa(lp1072
I234378
aF310.9121428571429
aF570.792
ag1069
aS'dejavusans'
p1073
aS'#000000'
p1074
aF11.0
aI0
aI01
aI00
aI01
aI00
aI00
aI00
aI00
aI00
aa(lp1075
I234378
aF331.1207142857143
aF570.792
ag1069
aS'dejavusans'
p1076
aS'#000000'
p1077
aF11.0
aI0
aI00
aI00
aI00
aI00
aI00
aI00
aI00
aI00
aa(lp1078
I234378
aF336.1728571428572
aF570.792
ag1069
aS'dejavusans'
p1079
aS'#000000'
p1080
aF11.0
aI0
aI00
aI00
aI00
aI00
aI00
aI00
aI00
aI00
aa(lp1081
I234378
aF57.7
aF583.592
aVp1
p1082
aS'dejavusans'
p1083
aS'#000000'
p1084
aF11.0
aI0
aI01
aI00
aI00
aI00
aI00
aI00
aI00
aI00
aa(lp1085
I120957
aF99.841
aF583.592
aVp1
p1086
aS'dejavusans'
p1087
aS'#000000'
p1088
aF11.0
aI0
aI00
aI00
aI00
aI00
aI00
aI00
aI00
aI00
aa(lp1089
I169745
aF153.983
aF583.592
aVp1
p1090
aS'dejavusans'
p1091
aS'#000000'
p1092
aF11.0
aI0
aI00
aI00
aI00
aI00
aI00
aI00
aI00
aI00
aa(lp1093
I185339
aF180.933
aF583.592
aVp1
p1094
aS'dejavusans'
p1095
aS'#000000'
p1096
aF11.0
aI0
aI00
aI00
aI00
aI00
aI00
aI00
aI00
aI00
aa(lp1097
I221291
aF221.083
aF583.592
aVp1
p1098
aS'dejavusans'
p1099
aS'#000000'
p1100
aF11.0
aI0
aI00
aI00
aI00
aI00
aI00
aI00
aI00
aI00
aa(lp1101
I234378
aF251.234
aF583.592
aVp1
p1102
aS'dejavusans'
p1103
aS'#000000'
p1104
aF11.0
aI0
aI00
aI00
aI00
aI00
aI00
aI00
aI00
aI00
aa(lp1105
I234378
aF307.1096
aF583.592
ag1102
aS'dejavusans'
p1106
aS'#000000'
p1107
aF11.0
aI0
aI00
aI00
aI00
aI00
aI00
aI00
aI00
aI00
aa(lp1108
I113826
aF316.904
aF583.592
aVp1
p1109
aS'dejavusans'
p1110
aS'#000000'
p1111
aF11.0
aI0
aI00
aI00
aI00
aI00
aI00
aI00
aI00
aI00
aa(lp1112
I112275
aF358.429
aF583.592
aVp1
p1113
aS'dejavusans'
p1114
aS'#000000'
p1115
aF11.0
aI0
aI00
aI00
aI00
aI00
aI00
aI00
aI00
aI00
aa(lp1116
I234378
aF380.4686
aF583.592
ag1113
aS'dejavusans'
p1117
aS'#000000'
p1118
aF11.0
aI0
aI00
aI00
aI00
aI00
aI00
aI00
aI00
aI00
aa(lp1119
I219791
aF385.9785
aF583.592
ag1113
aS'dejavusans'
p1120
aS'#000000'
p1121
aF11.0
aI0
aI00
aI00
aI00
aI00
aI00
aI00
aI00
aI00
aa(lp1122
I8241
aF417.136
aF583.592
aVp1
p1123
aS'dejavusans'
p1124
aS'#000000'
p1125
aF11.0
aI0
aI00
aI00
aI00
aI00
aI00
aI00
aI00
aI00
aa(lp1126
I121847
aF440.599
aF583.592
aVp1
p1127
aS'dejavusans'
p1128
aS'#000000'
p1129
aF11.0
aI0
aI00
aI00
aI00
aI00
aI00
aI00
aI00
aI00
aa(lp1130
I221291
aF465.36
aF583.592
aVp1
p1131
aS'dejavusans'
p1132
aS'#000000'
p1133
aF11.0
aI0
aI00
aI00
aI00
aI00
aI00
aI00
aI00
aI00
aa(lp1134
I169745
aF495.511
aF583.592
aVp1
p1135
aS'dejavusans'
p1136
aS'#000000'
p1137
aF11.0
aI0
aI00
aI00
aI00
aI00
aI00
aI00
aI00
aI00
aa(lp1138
I34704
aF522.461
aF583.592
aVp1
p1139
aS'dejavusans'
p1140
aS'#000000'
p1141
aF11.0
aI0
aI00
aI00
aI00
aI00
aI00
aI00
aI00
aI00
aa(lp1142
I144489
aF549.807
aF583.592
aVp1
p1143
aS'dejavusans'
p1144
aS'#000000'
p1145
aF11.0
aI0
aI00
aI00
aI00
aI00
aI00
aI00
aI00
aI00
aa(lp1146
I234378
aF564.085
aF583.592
aVp1
p1147
aS'dejavusans'
p1148
aS'#000000'
p1149
aF11.0
aI0
aI01
aI00
aI00
aI00
aI00
aI00
aI00
aI00
aa(lp1150
I115769
aF57.7
aF597.292
aVp1
p1151
aS'dejavusans'
p1152
aS'#000000'
p1153
aF11.0
aI0
aI00
aI00
aI00
aI00
aI00
aI00
aI00
aI00
aa(lp1154
I234378
aF114.0805
aF597.292
ag1151
aS'dejavusans'
p1155
aS'#000000'
p1156
aF11.0
aI0
aI00
aI00
aI00
aI00
aI00
aI00
aI00
aI00
aa(lp1157
I120957
aF57.7
aF610.092
aVp1
p1158
aS'dejavusans'
p1159
aS'#000000'
p1160
aF11.0
aI0
aI01
aI00
aI00
aI00
aI00
aI00
aI00
aI00
aa(lp1161
I169745
aF114.229
aF610.092
aVp1
p1162
aS'dejavusans'
p1163
aS'#000000'
p1164
aF11.0
aI0
aI00
aI00
aI00
aI00
aI00
aI00
aI00
aI00
aa(lp1165
I234378
aF143.181
aF610.092
aVp1
p1166
aS'dejavusans'
p1167
aS'#000000'
p1168
aF11.0
aI0
aI01
aI01
aI00
aI00
aI00
aI00
aI00
aI00
aa(lp1169
I35885
aF171.748
aF610.092
aVp1
p1170
aS'dejavusans'
p1171
aS'#000000'
p1172
aF11.0
aI0
aI00
aI00
aI00
aI00
aI00
aI00
aI00
aI00
aa(lp1173
I154254
aF210.589
aF610.092
aVp1
p1174
aS'dejavusans'
p1175
aS'#000000'
p1176
aF11.0
aI0
aI00
aI00
aI00
aI00
aI00
aI00
aI00
aI00
aa(lp1177
I169745
aF282.705
aF610.092
aVp1
p1178
aS'dejavusans'
p1179
aS'#000000'
p1180
aF11.0
aI0
aI00
aI00
aI00
aI00
aI00
aI00
aI00
aI00
aa(lp1181
I106895
aF311.657
aF610.092
aVp1
p1182
aS'dejavusans'
p1183
aS'#000000'
p1184
aF11.0
aI0
aI01
aI01
aI00
aI00
aI00
aI00
aI00
aI00
aa(lp1185
I89217
aF361.102
aF610.092
aVp1
p1186
aS'dejavusans'
p1187
aS'#000000'
p1188
aF11.0
aI0
aI01
aI01
aI00
aI00
aI00
aI00
aI00
aI00
aa(lp1189
I35885
aF394.949
aF610.092
aVp1
p1190
aS'dejavusans'
p1191
aS'#000000'
p1192
aF11.0
aI0
aI00
aI00
aI00
aI00
aI00
aI00
aI00
aI00
aa(lp1193
I234378
aF433.79
aF610.092
aVp1
p1194
aS'dejavusans'
p1195
aS'#000000'
p1196
aF11.0
aI0
aI00
aI00
aI00
aI00
aI00
aI00
aI00
aI00
aa(lp1197
I234378
aF484.522
aF610.092
aVp1
p1198
aS'dejavusans'
p1199
aS'#000000'
p1200
aF11.0
aI0
aI00
aI00
aI00
aI00
aI00
aI00
aI00
aI00
aa(lp1201
I234378
aF519.865
aF610.092
aVp1
p1202
aS'dejavusans'
p1203
aS'#000000'
p1204
aF11.0
aI0
aI01
aI01
aI00
aI00
aI00
aI00
aI00
aI00
aa(lp1205
I234378
aF562.82
aF610.092
aVp1
p1206
aS'dejavusans'
p1207
aS'#000000'
p1208
aF11.0
aI0
aI01
aI01
aI00
aI00
aI00
aI00
aI00
aI00
aa(lp1209
I234378
aF57.7
aF623.692
aVp1
p1210
aS'dejavusans'
p1211
aS'#000000'
p1212
aF11.0
aI0
aI00
aI00
aI00
aI00
aI00
aI00
aI00
aI00
aa(lp1213
I234378
aF94.94285714285715
aF623.692
ag1210
aS'dejavusans'
p1214
aS'#000000'
p1215
aF11.0
aI0
aI00
aI00
aI00
aI00
aI00
aI00
aI00
aI00
aa(lp1216
I228990
aF57.7
aF636.492
aVp1
p1217
aS'dejavusans'
p1218
aS'#000000'
p1219
aF11.0
aI0
aI01
aI00
aI00
aI00
aI00
aI00
aI00
aI00
aa(lp1220
I234378
aF90.172
aF636.492
aVp1
p1221
aS'dejavusans'
p1222
aS'#000000'
p1223
aF11.0
aI0
aI00
aI00
aI00
aI00
aI00
aI00
aI00
aI00
aa(lp1224
I144483
aF127.011
aF636.492
aVp1
p1225
aS'dejavusans'
p1226
aS'#000000'
p1227
aF11.0
aI0
aI00
aI00
aI00
aI00
aI00
aI00
aI00
aI00
aa(lp1228
I169745
aF144.182
aF636.492
aVp1
p1229
aS'dejavusans'
p1230
aS'#000000'
p1231
aF11.0
aI0
aI00
aI00
aI00
aI00
aI00
aI00
aI00
aI00
aa(lp1232
I222873
aF171.2
aF636.492
aVp1
p1233
aS'dejavusans'
p1234
aS'#000000'
p1235
aF11.0
aI1
aI01
aI00
aI00
aI00
aI00
aI00
aI00
aI00
aa(lp1236
I234378
aF218.587
aF636.492
aVp1
p1237
aS'dejavusans'
p1238
aS'#000000'
p1239
aF11.0
aI0
aI00
aI00
aI00
aI00
aI00
aI00
aI00
aI00
aa(lp1240
I135639
aF269.704
aF636.492
aVp1
p1241
aS'dejavusans'
p1242
aS'#000000'
p1243
aF11.0
aI0
aI00
aI00
aI00
aI00
aI00
aI00
aI00
aI00
aa(lp1244
I234378
aF283.179
aF636.492
aVp1
p1245
aS'dejavusans'
p1246
aS'#000000'
p1247
aF11.0
aI0
aI01
aI00
aI00
aI00
aI00
aI00
aI00
aI00
aa(lp1248
I12878
aF316.245
aF636.492
aVp1
p1249
aS'dejavusans'
p1250
aS'#000000'
p1251
aF11.0
aI0
aI00
aI00
aI00
aI00
aI00
aI00
aI00
aI00
aa(lp1252
I234378
aF383.54116666666664
aF636.492
ag1249
aS'dejavusans'
p1253
aS'#000000'
p1254
aF11.0
aI0
aI00
aI00
aI00
aI00
aI00
aI00
aI00
aI00
aa(lp1255
I123583
aF57.7
aF650.192
aVp1
p1256
aS'dejavusans'
p1257
aS'#000000'
p1258
aF11.0
aI0
aI01
aI00
aI00
aI00
aI00
aI00
aI00
aI00
aa(lp1259
I127763
aF106.034
aF650.192
aVp1
p1260
aS'dejavusans'
p1261
aS'#000000'
p1262
aF11.0
aI0
aI00
aI00
aI00
aI00
aI00
aI00
aI00
aI00
aa(lp1263
I144489
aF169.042
aF650.192
aVp1
p1264
aS'dejavusans'
p1265
aS'#000000'
p1266
aF11.0
aI0
aI00
aI00
aI00
aI00
aI00
aI00
aI00
aI00
aa(lp1267
I234378
aF183.122
aF650.192
aVp1
p1268
aS'dejavusans'
p1269
aS'#000000'
p1270
aF11.0
aI0
aI01
aI00
aI00
aI00
aI00
aI00
aI00
aI00
aa(lp1271
I234378
aF225.747
aF650.192
aVp1
p1272
aS'dejavusans'
p1273
aS'#000000'
p1274
aF11.0
aI0
aI01
aI01
aI00
aI00
aI00
aI00
aI00
aI00
aa(lp1275
I156028
aF240.124
aF650.192
aVp1
p1276
aS'dejavusans'
p1277
aS'#000000'
p1278
aF11.0
aI0
aI00
aI00
aI00
aI00
aI00
aI00
aI00
aI00
aa(lp1279
I234378
aF259.5456
aF650.192
ag1276
aS'dejavusans'
p1280
aS'#000000'
p1281
aF11.0
aI0
aI00
aI00
aI00
aI00
aI00
aI00
aI00
aI00
aa(lp1282
I234378
aF267.888
aF650.192
aVp1
p1283
aS'dejavusans'
p1284
aS'#000000'
p1285
aF11.0
aI0
aI01
aI01
aI00
aI00
aI00
aI00
aI00
aI00
aa(lp1286
I234378
aF287.51475
aF650.192
ag1283
aS'dejavusans'
p1287
aS'#000000'
p1288
aF11.0
aI0
aI00
aI00
aI00
aI00
aI00
aI00
aI00
aI00
aa(lp1289
I234378
aF297.643
aF650.192
aVp1
p1290
aS'dejavusans'
p1291
aS'#000000'
p1292
aF11.0
aI0
aI01
aI00
aI00
aI00
aI00
aI00
aI00
aI00
aa(lp1293
I234378
aF349.585
aF650.192
aVp1
p1294
aS'dejavusans'
p1295
aS'#000000'
p1296
aF11.0
aI0
aI01
aI01
aI00
aI00
aI00
aI00
aI00
aI00
aa(lp1297
I234378
aF367.042
aF650.192
ag1294
aS'dejavusans'
p1298
aS'#000000'
p1299
aF11.0
aI0
aI00
aI00
aI00
aI00
aI00
aI00
aI00
aI00
aa(lp1300
I15157
aF436.5
aF242.092
aVp1
p1301
aS'dejavusans'
p1302
aS'#000000'
p1303
aF11.0
aI1
aI01
aI00
aI00
aI00
aI00
aI00
aI00
aI00
aa(lp1304
I166558
aF517.339
aF242.092
aVp1
p1305
aS'dejavusans'
p1306
aS'#000000'
p1307
aF11.0
aI1
aI01
aI00
aI00
aI00
aI00
aI00
aI00
aI00
aa(lp1308
I144489
aF572.691
aF242.092
aVp1
p1309
aS'dejavusans'
p1310
aS'#000000'
p1311
aF11.0
aI1
aI00
aI00
aI00
aI00
aI00
aI00
aI00
aI00
aa(lp1312
I31682
aF436.5
aF256.792
aVp1
p1313
aS'dejavusans'
p1314
aS'#000000'
p1315
aF11.0
aI1
aI00
aI00
aI00
aI00
aI00
aI00
aI00
aI00
aa(lp1316
I234378
aF449.69877777777776
aF256.792
ag1313
aS'dejavusans'
p1317
aS'#000000'
p1318
aF11.0
aI1
aI00
aI00
aI00
aI00
aI00
aI00
aI00
aI00
aa(lp1319
I755
aF456.29816666666665
aF256.792
ag1313
aS'dejavusans'
p1320
aS'#000000'
p1321
aF11.0
aI1
aI00
aI00
aI00
aI00
aI00
aI00
aI00
aI00
aa(lp1322
I154089
aF483.69572222222223
aF256.792
ag1313
aS'dejavusans'
p1323
aS'#000000'
p1324
aF11.0
aI1
aI00
aI00
aI00
aI00
aI00
aI00
aI00
aI00
aa(lp1325
I132957
aF436.5
aF271.492
aVp1
p1326
aS'dejavusans'
p1327
aS'#000000'
p1328
aF11.0
aI1
aI00
aI00
aI00
aI00
aI00
aI00
aI00
aI00
aa(lp1329
I234378
aF462.1432
aF271.492
ag1326
aS'dejavusans'
p1330
aS'#000000'
p1331
aF11.0
aI1
aI00
aI00
aI00
aI00
aI00
aI00
aI00
aI00
aa(lp1332
I234378
aF436.5
aF286.192
aVp1
p1333
aS'dejavusans'
p1334
aS'#000000'
p1335
aF11.0
aI1
aI01
aI00
aI00
aI00
aI00
aI00
aI00
aI00
aa(lp1336
I234378
aF490.554
aF286.192
aVp1
p1337
aS'dejavusans'
p1338
aS'#000000'
p1339
aF11.0
aI1
aI01
aI01
aI00
aI00
aI00
aI00
aI00
aI00
aa(lp1340
I234378
aF511.727625
aF286.192
ag1337
aS'dejavusans'
p1341
aS'#000000'
p1342
aF11.0
aI1
aI00
aI00
aI00
aI00
aI00
aI00
aI00
aI00
aa(lp1343
I234378
aF518.7855
aF286.192
ag1337
aS'dejavusans'
p1344
aS'#000000'
p1345
aF11.0
aI1
aI01
aI01
aI00
aI00
aI00
aI00
aI00
aI00
aa(lp1346
I234378
aF539.959125
aF286.192
ag1337
aS'dejavusans'
p1347
aS'#000000'
p1348
aF11.0
aI1
aI00
aI00
aI00
aI00
aI00
aI00
aI00
aI00
aa(lp1349
I234378
aF436.5
aF300.892
aVp1
p1350
aS'dejavusans'
p1351
aS'#000000'
p1352
aF11.0
aI1
aI01
aI00
aI00
aI00
aI00
aI00
aI00
aI00
aa(lp1353
I104512
aF501.147
aF300.892
aVp1
p1354
aS'dejavusans'
p1355
aS'#000000'
p1356
aF11.0
aI1
aI00
aI00
aI00
aI00
aI00
aI00
aI00
aI00
aa(lp1357
I234378
aF436.5
aF315.592
aVp1
p1358
aS'dejavusans'
p1359
aS'#000000'
p1360
aF11.0
aI1
aI01
aI00
aI00
aI00
aI00
aI00
aI00
aI00
aa(lp1361
I234378
aF506.17
aF315.592
ag1358
aS'dejavusans'
p1362
aS'#000000'
p1363
aF11.0
aI1
aI00
aI00
aI00
aI00
aI00
aI00
aI00
aI00
aa(lp1364
I120957
aF436.5
aF330.292
aVp1
p1365
aS'dejavusans'
p1366
aS'#000000'
p1367
aF11.0
aI1
aI01
aI00
aI00
aI00
aI00
aI00
aI00
aI00
aa(lp1368
I169745
aF497.572
aF330.292
aVp1
p1369
aS'dejavusans'
p1370
aS'#000000'
p1371
aF11.0
aI1
aI00
aI00
aI00
aI00
aI00
aI00
aI00
aI00
aa(lp1372
I50998
aF528.438
aF330.292
aVp1
p1373
aS'dejavusans'
p1374
aS'#000000'
p1375
aF11.0
aI1
aI00
aI00
aI00
aI00
aI00
aI00
aI00
aI00
aa(lp1376
I19784
aF436.5
aF344.992
aVp1
p1377
aS'dejavusans'
p1378
aS'#000000'
p1379
aF11.0
aI1
aI00
aI00
aI00
aI00
aI00
aI00
aI00
aI00
aa(lp1380
I230071
aF464.374
aF344.992
aVp1
p1381
aS'dejavusans'
p1382
aS'#000000'
p1383
aF11.0
aI1
aI00
aI00
aI00
aI00
aI00
aI00
aI00
aI00
aa(lp1384
I234378
aF496.142
aF344.992
aVp1
p1385
aS'dejavusans'
p1386
aS'#000000'
p1387
aF11.0
aI1
aI00
aI00
aI00
aI00
aI00
aI00
aI00
aI00
aa(lp1388
I144489
aF567.279
aF344.992
aVp1
p1389
aS'dejavusans'
p1390
aS'#000000'
p1391
aF11.0
aI1
aI00
aI00
aI00
aI00
aI00
aI00
aI00
aI00
aa(lp1392
I132957
aF436.5
aF359.692
aVp1
p1393
aS'dejavusans'
p1394
aS'#000000'
p1395
aF11.0
aI1
aI00
aI00
aI00
aI00
aI00
aI00
aI00
aI00
aa(lp1396
I234378
aF462.1432
aF359.692
ag1393
aS'dejavusans'
p1397
aS'#000000'
p1398
aF11.0
aI1
aI00
aI00
aI00
aI00
aI00
aI00
aI00
aI00
aa(lp1399
I135639
aF436.5
aF374.392
aVp1
p1400
aS'dejavusans'
p1401
aS'#000000'
p1402
aF11.0
aI1
aI01
aI00
aI00
aI00
aI00
aI00
aI00
aI00
aa(lp1403
I9054
aF450.66975
aF374.392
ag1400
aS'dejavusans'
p1404
aS'#000000'
p1405
aF11.0
aI1
aI00
aI00
aI00
aI00
aI00
aI00
aI00
aI00
aa(lp1406
I111798
aF493.04
aF374.392
aVp1
p1407
aS'dejavusans'
p1408
aS'#000000'
p1409
aF11.0
aI1
aI00
aI00
aI00
aI00
aI00
aI00
aI00
aI00
aa(lp1410
I144489
aF436.5
aF389.092
aVp1
p1411
aS'dejavusans'
p1412
aS'#000000'
p1413
aF11.0
aI1
aI00
aI00
aI00
aI00
aI00
aI00
aI00
aI00
aa(lp1414
I37508
aF452.681
aF389.092
aVp1
p1415
aS'dejavusans'
p1416
aS'#000000'
p1417
aF11.0
aI1
aI01
aI00
aI00
aI00
aI00
aI00
aI00
aI00
aa(lp1418
I31142
aF476.5764
aF389.092
ag1415
aS'dejavusans'
p1419
aS'#000000'
p1420
aF11.0
aI1
aI01
aI00
aI00
aI00
aI00
aI00
aI00
aI00
aa(lp1421
I234378
aF436.5
aF403.792
aVp1
p1422
aS'dejavusans'
p1423
aS'#000000'
p1424
aF11.0
aI1
aI00
aI00
aI00
aI00
aI00
aI00
aI00
aI00
aa(lp1425
I83126
aF436.5
aF418.492
aVp1
p1426
aS'dejavusans'
p1427
aS'#000000'
p1428
aF11.0
aI1
aI00
aI00
aI00
aI00
aI00
aI00
aI00
aI00
aa(lp1429
I234378
aF531.8670666666667
aF418.492
ag1426
aS'dejavusans'
p1430
aS'#000000'
p1431
aF11.0
aI1
aI00
aI00
aI00
aI00
aI00
aI00
aI00
aI00
aa(lp1432
I234378
aF436.5
aF433.192
aVp1
p1433
aS'dejavusans'
p1434
aS'#000000'
p1435
aF11.0
aI1
aI01
aI01
aI00
aI00
aI00
aI00
aI00
aI00
aa(lp1436
I131455
aF462.295
aF433.192
aVp1
p1437
aS'dejavusans'
p1438
aS'#000000'
p1439
aF11.0
aI1
aI00
aI00
aI00
aI00
aI00
aI00
aI00
aI00
aa(lp1440
I8059
aF485.362
aF433.192
aVp1
p1441
aS'dejavusans'
p1442
aS'#000000'
p1443
aF11.0
aI1
aI00
aI00
aI00
aI00
aI00
aI00
aI00
aI00
aa(lp1444
I234378
aF540.329
aF433.192
aVp1
p1445
aS'dejavusans'
p1446
aS'#000000'
p1447
aF11.0
aI1
aI00
aI00
aI00
aI00
aI00
aI00
aI00
aI00
aa(lp1448
I234378
aF436.5
aF447.892
aVp1
p1449
aS'dejavusans'
p1450
aS'#000000'
p1451
aF11.0
aI1
aI01
aI00
aI00
aI00
aI00
aI00
aI00
aI00
aa(lp1452
I234378
aF485.096625
aF447.892
ag1449
aS'dejavusans'
p1453
aS'#000000'
p1454
aF11.0
aI1
aI00
aI00
aI00
aI00
aI00
aI00
aI00
aI00
aa(lp1455
I234378
aF436.5
aF462.592
aVp1
p1456
aS'dejavusans'
p1457
aS'#000000'
p1458
aF11.0
aI1
aI01
aI00
aI00
aI00
aI00
aI00
aI00
aI00
aa(lp1459
I234378
aF526.139
aF462.592
aVp1
p1460
aS'dejavusans'
p1461
aS'#000000'
p1462
aF11.0
aI1
aI01
aI00
aI00
aI00
aI00
aI00
aI00
aI00
aa(lp1463
I210388
aF445.795
aF477.292
aVp1
p1464
aS'dejavusans'
p1465
aS'#000000'
p1466
aF11.0
aI1
aI01
aI00
aI00
aI00
aI00
aI00
aI00
aI00
aa(lp1467
I234378
aF500.56033333333335
aF477.292
ag1464
aS'dejavusans'
p1468
aS'#000000'
p1469
aF11.0
aI1
aI00
aI00
aI00
aI00
aI00
aI00
aI00
aI00
aa(lp1470
I222873
aF511.223
aF477.292
aVp1
p1471
aS'dejavusans'
p1472
aS'#000000'
p1473
aF11.0
aI1
aI01
aI00
aI00
aI00
aI00
aI00
aI00
aI00
aa(lp1474
I234378
aF552.3975714285714
aF477.292
ag1471
aS'dejavusans'
p1475
aS'#000000'
p1476
aF11.0
aI1
aI00
aI00
aI00
aI00
aI00
aI00
aI00
aI00
aa(lp1477
I21716
aF436.5
aF491.992
aVp1
p1478
aS'dejavusans'
p1479
aS'#000000'
p1480
aF11.0
aI1
aI01
aI00
aI00
aI00
aI00
aI00
aI00
aI00
aa(lp1481
I234378
aF460.7088
aF491.992
ag1478
aS'dejavusans'
p1482
aS'#000000'
p1483
aF11.0
aI1
aI00
aI00
aI00
aI00
aI00
aI00
aI00
aI00
aa(lp1484
I72722
aF21.7
aF673.208
aVp1
p1485
aS'dejavusans'
p1486
aS'#000000'
p1487
aF14.0
aI1
aI01
aI01
aI00
aI00
aI00
aI00
aI00
aI00
aa(lp1488
I49508
aF119.692
aF673.208
aVp1
p1489
aS'dejavusans'
p1490
aS'#000000'
p1491
aF14.0
aI1
aI01
aI01
aI00
aI00
aI00
aI00
aI00
aI00
aa(lp1492
I176435
aF131.6
aF705.292
aVp1
p1493
aS'dejavusans'
p1494
aS'#000000'
p1495
aF11.0
aI1
aI01
aI00
aI00
aI00
aI00
aI00
aI00
aI00
aa(lp1496
I229426
aF310.0
aF705.292
aVp1
p1497
aS'dejavusans'
p1498
aS'#000000'
p1499
aF11.0
aI1
aI01
aI00
aI00
aI00
aI00
aI00
aI00
aI00
aa(lp1500
I120031
aF482.9
aF705.292
aVp1
p1501
aS'dejavusans'
p1502
aS'#000000'
p1503
aF11.0
aI1
aI01
aI00
aI00
aI00
aI00
aI00
aI00
aI00
aa(lp1504
I149270
aF105.0
aF718.592
aVp1
p1505
aS'dejavusans'
p1506
aS'#000000'
p1507
aF11.0
aI0
aI01
aI00
aI00
aI00
aI00
aI00
aI00
aI00
aa(lp1508
I175409
aF158.911
aF718.592
aVp1
p1509
aS'dejavusans'
p1510
aS'#000000'
p1511
aF11.0
aI0
aI01
aI00
aI00
aI00
aI00
aI00
aI00
aI00
aa(lp1512
I84902
aF281.6
aF718.592
aVp1
p1513
aS'dejavusans'
p1514
aS'#000000'
p1515
aF11.0
aI0
aI01
aI01
aI00
aI00
aI00
aI00
aI00
aI00
aa(lp1516
I78161
aF307.373
aF718.592
aVp1
p1517
aS'dejavusans'
p1518
aS'#000000'
p1519
aF11.0
aI0
aI01
aI00
aI00
aI00
aI00
aI00
aI00
aI00
aa(lp1520
I234378
aF367.807
aF718.592
aVp1
p1521
aS'dejavusans'
p1522
aS'#000000'
p1523
aF11.0
aI0
aI01
aI00
aI00
aI00
aI00
aI00
aI00
aI00
aa(lp1524
I234378
aF464.5
aF718.592
aVp1
p1525
aS'dejavusans'
p1526
aS'#000000'
p1527
aF11.0
aI0
aI01
aI00
aI00
aI00
aI00
aI00
aI00
aI01
aa(lp1528
I234378
aF484.8325
aF718.592
ag1525
aS'dejavusans'
p1529
aS'#000000'
p1530
aF11.0
aI0
aI00
aI00
aI01
aI01
aI01
aI00
aI00
aI00
aa(lp1531
I102117
aF514.132
aF718.592
aVp1
p1532
aS'dejavusans'
p1533
aS'#000000'
p1534
aF11.0
aI0
aI01
aI00
aI00
aI00
aI00
aI00
aI00
aI00
aa(lp1535
I149270
aF103.3
aF731.892
aVp1
p1536
aS'dejavusans'
p1537
aS'#000000'
p1538
aF11.0
aI0
aI01
aI00
aI00
aI00
aI00
aI00
aI00
aI00
aa(lp1539
I175409
aF157.222
aF731.892
aVp1
p1540
aS'dejavusans'
p1541
aS'#000000'
p1542
aF11.0
aI0
aI01
aI00
aI00
aI00
aI00
aI00
aI00
aI00
aa(lp1543
I234378
aF266.6
aF731.892
aVp1
p1544
aS'dejavusans'
p1545
aS'#000000'
p1546
aF11.0
aI0
aI01
aI00
aI00
aI00
aI00
aI00
aI00
aI00
aa(lp1547
I183345
aF305.8176666666667
aF731.892
ag1544
aS'dejavusans'
p1548
aS'#000000'
p1549
aF11.0
aI0
aI01
aI00
aI00
aI00
aI00
aI00
aI00
aI00
aa(lp1550
I234378
aF338.5756666666667
aF731.892
ag1544
aS'dejavusans'
p1551
aS'#000000'
p1552
aF11.0
aI0
aI00
aI00
aI00
aI00
aI00
aI00
aI00
aI00
aa(lp1553
I234378
aF351.982
aF731.892
aVp1
p1554
aS'dejavusans'
p1555
aS'#000000'
p1556
aF11.0
aI0
aI01
aI00
aI00
aI00
aI00
aI00
aI00
aI00
aa(lp1557
I234378
aF396.2955
aF731.892
ag1554
aS'dejavusans'
p1558
aS'#000000'
p1559
aF11.0
aI0
aI00
aI00
aI00
aI00
aI00
aI00
aI00
aI00
aa(lp1560
I164802
aF406.212
aF731.892
aVp1
p1561
aS'dejavusans'
p1562
aS'#000000'
p1563
aF11.0
aI0
aI01
aI00
aI00
aI00
aI00
aI00
aI00
aI00
aa(lp1564
I234378
aF464.2
aF731.892
aVp1
p1565
aS'dejavusans'
p1566
aS'#000000'
p1567
aF11.0
aI0
aI01
aI00
aI00
aI00
aI00
aI00
aI00
aI01
aa(lp1568
I234378
aF486.761
aF731.892
aVp1
p1569
aS'dejavusans'
p1570
aS'#000000'
p1571
aF11.0
aI0
aI00
aI00
aI01
aI01
aI01
aI00
aI00
aI00
aa(lp1572
I234378
aF516.714
aF731.892
aVp1
p1573
aS'dejavusans'
p1574
aS'#000000'
p1575
aF11.0
aI0
aI01
aI00
aI00
aI00
aI00
aI00
aI00
aI01
aa(lp1576
I234378
aF537.1510000000001
aF731.892
ag1573
aS'dejavusans'
p1577
aS'#000000'
p1578
aF11.0
aI0
aI00
aI00
aI01
aI01
aI01
aI00
aI00
aI00
aa(lp1579
I234378
aF86.9
aF42.892
aVp2
p1580
aS'dejavusans'
p1581
aS'#000000'
p1582
aF11.0
aI0
aI01
aI00
aI00
aI00
aI00
aI00
aI00
aI00
aa(lp1583
I132100
aF154.451
aF42.892
aVp2
p1584
aS'dejavusans'
p1585
aS'#000000'
p1586
aF11.0
aI0
aI01
aI00
aI00
aI00
aI00
aI00
aI00
aI00
aa(lp1587
I234378
aF270.7
aF36.492
aVp2
p1588
aS'dejavusans'
p1589
aS'#000000'
p1590
aF11.0
aI0
aI01
aI00
aI00
aI00
aI00
aI00
aI00
aI00
aa(lp1591
I223466
aF329.55
aF36.492
aVp2
p1592
aS'dejavusans'
p1593
aS'#000000'
p1594
aF11.0
aI0
aI01
aI00
aI00
aI00
aI00
aI00
aI00
aI00
aa(lp1595
I234378
aF378.896
aF36.492
aVp2
p1596
aS'dejavusans'
p1597
aS'#000000'
p1598
aF11.0
aI0
aI01
aI00
aI00
aI00
aI00
aI00
aI00
aI00
aa(lp1599
I234378
aF422.786
aF36.492
ag1596
aS'dejavusans'
p1600
aS'#000000'
p1601
aF11.0
aI0
aI00
aI00
aI00
aI00
aI00
aI00
aI00
aI00
aa(lp1602
I234378
aF309.4
aF49.292
aVp2
p1603
aS'dejavusans'
p1604
aS'#000000'
p1605
aF11.0
aI0
aI01
aI00
aI00
aI00
aI00
aI00
aI00
aI00
aa(lp1606
I234378
aF353.71349999999995
aF49.292
ag1603
aS'dejavusans'
p1607
aS'#000000'
p1608
aF11.0
aI0
aI00
aI00
aI00
aI00
aI00
aI00
aI00
aI00
aa(lp1609
I164802
aF363.531
aF49.292
aVp2
p1610
aS'dejavusans'
p1611
aS'#000000'
p1612
aF11.0
aI0
aI01
aI00
aI00
aI00
aI00
aI00
aI00
aI00
aa(lp1613
I234378
aF467.2
aF42.892
aVp2
p1614
aS'dejavusans'
p1615
aS'#000000'
p1616
aF11.0
aI0
aI01
aI00
aI00
aI00
aI00
aI00
aI00
aI01
aa(lp1617
I234378
aF486.4325
aF42.892
ag1614
aS'dejavusans'
p1618
aS'#000000'
p1619
aF11.0
aI0
aI00
aI00
aI01
aI01
aI01
aI00
aI00
aI00
aa(lp1620
I234378
aF516.227
aF42.892
aVp2
p1621
aS'dejavusans'
p1622
aS'#000000'
p1623
aF11.0
aI0
aI01
aI00
aI00
aI00
aI00
aI00
aI00
aI01
aa(lp1624
I234378
aF535.4594999999999
aF42.892
ag1621
aS'dejavusans'
p1625
aS'#000000'
p1626
aF11.0
aI0
aI00
aI00
aI01
aI01
aI01
aI00
aI00
aI00
aa(lp1627
I234378
aF94.7
aF62.592
aVp2
p1628
aS'dejavusans'
p1629
aS'#000000'
p1630
aF11.0
aI0
aI01
aI00
aI00
aI00
aI00
aI00
aI00
aI00
aa(lp1631
I132100
aF146.642
aF62.592
aVp2
p1632
aS'dejavusans'
p1633
aS'#000000'
p1634
aF11.0
aI0
aI01
aI00
aI00
aI00
aI00
aI00
aI00
aI00
aa(lp1635
I234378
aF267.7
aF62.592
aVp2
p1636
aS'dejavusans'
p1637
aS'#000000'
p1638
aF11.0
aI0
aI01
aI00
aI00
aI00
aI00
aI00
aI00
aI00
aa(lp1639
I183995
aF310.347
aF62.592
aVp2
p1640
aS'dejavusans'
p1641
aS'#000000'
p1642
aF11.0
aI0
aI01
aI00
aI00
aI00
aI00
aI00
aI00
aI00
aa(lp1643
I234378
aF341.06449999999995
aF62.592
ag1640
aS'dejavusans'
p1644
aS'#000000'
p1645
aF11.0
aI0
aI00
aI00
aI00
aI00
aI00
aI00
aI00
aI00
aa(lp1646
I234378
aF350.794
aF62.592
aVp2
p1647
aS'dejavusans'
p1648
aS'#000000'
p1649
aF11.0
aI0
aI01
aI00
aI00
aI00
aI00
aI00
aI00
aI00
aa(lp1650
I234378
aF395.10749999999996
aF62.592
ag1647
aS'dejavusans'
p1651
aS'#000000'
p1652
aF11.0
aI0
aI00
aI00
aI00
aI00
aI00
aI00
aI00
aI00
aa(lp1653
I164802
aF405.024
aF62.592
aVp2
p1654
aS'dejavusans'
p1655
aS'#000000'
p1656
aF11.0
aI0
aI01
aI00
aI00
aI00
aI00
aI00
aI00
aI00
aa(lp1657
I61519
aF461.7
aF62.592
aVp2
p1658
aS'dejavusans'
p1659
aS'#000000'
p1660
aF11.0
aI0
aI01
aI00
aI00
aI00
aI00
aI00
aI00
aI01
aa(lp1661
I234378
aF482.171
aF62.592
aVp2
p1662
aS'dejavusans'
p1663
aS'#000000'
p1664
aF11.0
aI0
aI00
aI00
aI01
aI01
aI01
aI00
aI00
aI00
aa(lp1665
I143552
aF512.124
aF62.592
aVp2
p1666
aS'dejavusans'
p1667
aS'#000000'
p1668
aF11.0
aI0
aI01
aI00
aI00
aI00
aI00
aI00
aI00
aI01
aa(lp1669
I234378
aF540.581
aF62.592
aVp2
p1670
aS'dejavusans'
p1671
aS'#000000'
p1672
aF11.0
aI0
aI00
aI00
aI01
aI01
aI01
aI00
aI00
aI00
aa(lp1673
I149270
aF21.7
aF98.108
aVp2
p1674
aS'dejavusans'
p1675
aS'#000000'
p1676
aF14.0
aI1
aI01
aI01
aI00
aI00
aI00
aI00
aI00
aI00
aa(lp1677
I164378
aF102.992
aF98.108
aVp2
p1678
aS'dejavusans'
p1679
aS'#000000'
p1680
aF14.0
aI1
aI01
aI01
aI00
aI00
aI00
aI00
aI00
aI00
aa(lp1681
I82213
aF21.7
aF129.692
aVp2
p1682
aS'dejavusans'
p1683
aS'#000000'
p1684
aF11.0
aI0
aI01
aI00
aI00
aI00
aI00
aI00
aI00
aI00
aa(lp1685
I234378
aF80.121
aF129.692
aVp2
p1686
aS'dejavusans'
p1687
aS'#000000'
p1688
aF11.0
aI0
aI01
aI00
aI00
aI00
aI00
aI00
aI00
aI00
aa(lp1689
I234378
aF124.19387499999999
aF129.692
ag1686
aS'dejavusans'
p1690
aS'#000000'
p1691
aF11.0
aI0
aI00
aI00
aI00
aI00
aI00
aI00
aI00
aI00
aa(lp1692
I234378
aF201.7
aF129.692
aVp2
p1693
aS'dejavusans'
p1694
aS'#000000'
p1695
aF11.0
aI0
aI01
aI00
aI00
aI00
aI00
aI00
aI00
aI00
aa(lp1696
I234378
aF247.66899999999998
aF129.692
ag1693
aS'dejavusans'
p1697
aS'#000000'
p1698
aF11.0
aI0
aI00
aI00
aI00
aI00
aI00
aI00
aI00
aI00
aa(lp1699
I234378
aF257.723
aF129.692
aVp2
p1700
aS'dejavusans'
p1701
aS'#000000'
p1702
aF11.0
aI0
aI01
aI01
aI00
aI00
aI00
aI00
aI00
aI00
aa(lp1703
I234378
aF282.099
aF129.692
ag1700
aS'dejavusans'
p1704
aS'#000000'
p1705
aF11.0
aI0
aI00
aI00
aI00
aI00
aI00
aI00
aI00
aI00
aa(lp1706
I234378
aF291.779
aF129.692
aVp2
p1707
aS'dejavusans'
p1708
aS'#000000'
p1709
aF11.0
aI0
aI01
aI00
aI00
aI00
aI00
aI00
aI00
aI00
aa(lp1710
I234378
aF324.845
aF129.692
aVp2
p1711
aS'dejavusans'
p1712
aS'#000000'
p1713
aF11.0
aI0
aI00
aI00
aI00
aI00
aI00
aI00
aI00
aI00
aa(lp1714
I142144
aF331.1315
aF129.692
ag1711
aS'dejavusans'
p1715
aS'#000000'
p1716
aF11.0
aI0
aI01
aI00
aI00
aI00
aI00
aI00
aI00
aI00
aa(lp1717
I118082
aF353.489
aF129.692
aVp2
p1718
aS'dejavusans'
p1719
aS'#000000'
p1720
aF11.0
aI0
aI01
aI00
aI00
aI00
aI00
aI00
aI00
aI00
aa(lp1721
I234378
aF371.30899999999997
aF129.692
ag1718
aS'dejavusans'
p1722
aS'#000000'
p1723
aF11.0
aI0
aI00
aI00
aI00
aI00
aI00
aI00
aI00
aI00
aa(lp1724
I234378
aF377.24899999999997
aF129.692
ag1718
aS'dejavusans'
p1725
aS'#000000'
p1726
aF11.0
aI0
aI01
aI00
aI00
aI00
aI00
aI00
aI00
aI00
aa(lp1727
I234378
aF405.88899999999995
aF129.692
ag1718
aS'dejavusans'
p1728
aS'#000000'
p1729
aF11.0
aI0
aI00
aI00
aI00
aI00
aI00
aI00
aI00
aI00
aa(lp1730
I234378
aF418.82899999999995
aF129.692
ag1718
aS'dejavusans'
p1731
aS'#000000'
p1732
aF11.0
aI0
aI01
aI00
aI00
aI00
aI00
aI00
aI00
aI00
aa(lp1733
I234378
aF454.46899999999994
aF129.692
ag1718
aS'dejavusans'
p1734
aS'#000000'
p1735
aF11.0
aI0
aI00
aI00
aI00
aI00
aI00
aI00
aI00
aI00
aa(lp1736
I234378
aF460.40899999999993
aF129.692
ag1718
aS'dejavusans'
p1737
aS'#000000'
p1738
aF11.0
aI0
aI00
aI00
aI00
aI00
aI00
aI00
aI00
aI00
aa(lp1739
I234378
aF21.7
aF142.492
aVp2
p1740
aS'dejavusans'
p1741
aS'#000000'
p1742
aF11.0
aI0
aI01
aI00
aI00
aI00
aI00
aI00
aI00
aI00
aa(lp1743
I234378
aF99.327
aF142.492
aVp2
p1744
aS'dejavusans'
p1745
aS'#000000'
p1746
aF11.0
aI0
aI01
aI00
aI00
aI00
aI00
aI00
aI00
aI00
aa(lp1747
I234378
aF156.58859999999999
aF142.492
ag1744
aS'dejavusans'
p1748
aS'#000000'
p1749
aF11.0
aI0
aI00
aI00
aI00
aI00
aI00
aI00
aI00
aI00
aa(lp1750
I84662
aF208.282
aF142.492
aVp2
p1751
aS'dejavusans'
p1752
aS'#000000'
p1753
aF11.0
aI0
aI01
aI00
aI00
aI00
aI00
aI00
aI00
aI00
aa(lp1754
I21716
aF237.245
aF142.492
aVp2
p1755
aS'dejavusans'
p1756
aS'#000000'
p1757
aF11.0
aI0
aI01
aI00
aI00
aI00
aI00
aI00
aI00
aI00
aa(lp1758
I234378
aF258.51460000000003
aF142.492
ag1755
aS'dejavusans'
p1759
aS'#000000'
p1760
aF11.0
aI0
aI00
aI00
aI00
aI00
aI00
aI00
aI00
aI00
aa(lp1761
I222873
aF267.418
aF142.492
aVp2
p1762
aS'dejavusans'
p1763
aS'#000000'
p1764
aF11.0
aI0
aI01
aI00
aI00
aI00
aI00
aI00
aI00
aI00
aa(lp1765
I234378
aF303.03914285714285
aF142.492
ag1762
aS'dejavusans'
p1766
aS'#000000'
p1767
aF11.0
aI0
aI00
aI00
aI00
aI00
aI00
aI00
aI00
aI00
aa(lp1768
I112493
aF312.562
aF142.492
aVp2
p1769
aS'dejavusans'
p1770
aS'#000000'
p1771
aF11.0
aI0
aI01
aI00
aI00
aI00
aI00
aI00
aI00
aI00
aa(lp1772
I234378
aF340.0253333333334
aF142.492
ag1769
aS'dejavusans'
p1773
aS'#000000'
p1774
aF11.0
aI0
aI00
aI00
aI00
aI00
aI00
aI00
aI00
aI00
aa(lp1775
I234378
aF21.7
aF155.292
aVp2
p1776
aS'dejavusans'
p1777
aS'#000000'
p1778
aF11.0
aI0
aI01
aI00
aI00
aI00
aI00
aI00
aI00
aI00
aa(lp1779
I234378
aF64.336
aF155.292
aVp2
p1780
aS'dejavusans'
p1781
aS'#000000'
p1782
aF11.0
aI0
aI01
aI00
aI00
aI00
aI00
aI00
aI00
aI00
aa(lp1783
I234378
aF132.83384615384614
aF155.292
ag1780
aS'dejavusans'
p1784
aS'#000000'
p1785
aF11.0
aI0
aI00
aI00
aI00
aI00
aI00
aI00
aI00
aI00
aa(lp1786
I223319
aF201.7
aF155.292
aVp2
p1787
aS'dejavusans'
p1788
aS'#000000'
p1789
aF11.0
aI0
aI01
aI00
aI00
aI00
aI00
aI00
aI00
aI00
aa(lp1790
I234378
aF238.477125
aF155.292
ag1787
aS'dejavusans'
p1791
aS'#000000'
p1792
aF11.0
aI0
aI00
aI00
aI00
aI00
aI00
aI00
aI00
aI00
aa(lp1793
I234378
aF247.218
aF155.292
aVp2
p1794
aS'dejavusans'
p1795
aS'#000000'
p1796
aF11.0
aI0
aI01
aI00
aI00
aI00
aI00
aI00
aI00
aI00
aa(lp1797
I234378
aF286.5162857142857
aF155.292
ag1794
aS'dejavusans'
p1798
aS'#000000'
p1799
aF11.0
aI0
aI00
aI00
aI00
aI00
aI00
aI00
aI00
aI00
aa(lp1800
I45106
aF296.652
aF155.292
aVp2
p1801
aS'dejavusans'
p1802
aS'#000000'
p1803
aF11.0
aI0
aI01
aI00
aI00
aI00
aI00
aI00
aI00
aI00
aa(lp1804
I234378
aF325.78366666666665
aF155.292
ag1801
aS'dejavusans'
p1805
aS'#000000'
p1806
aF11.0
aI0
aI00
aI00
aI00
aI00
aI00
aI00
aI00
aI00
aa(lp1807
I210388
aF335.196
aF155.292
aVp2
p1808
aS'dejavusans'
p1809
aS'#000000'
p1810
aF11.0
aI0
aI01
aI00
aI00
aI00
aI00
aI00
aI00
aI00
aa(lp1811
I17350
aF389.921
aF155.292
aVp2
p1812
aS'dejavusans'
p1813
aS'#000000'
p1814
aF11.0
aI0
aI01
aI00
aI00
aI00
aI00
aI00
aI00
aI00
aa(lp1815
I173485
aF408.68399999999997
aF155.292
ag1812
aS'dejavusans'
p1816
aS'#000000'
p1817
aF11.0
aI0
aI01
aI00
aI00
aI00
aI00
aI00
aI00
aI00
aa(lp1818
I234378
aF444.21
aF155.292
ag1812
aS'dejavusans'
p1819
aS'#000000'
p1820
aF11.0
aI0
aI00
aI00
aI00
aI00
aI00
aI00
aI00
aI00
aa(lp1821
I234378
aF458.638
aF155.292
aVp2
p1822
aS'dejavusans'
p1823
aS'#000000'
p1824
aF11.0
aI0
aI01
aI01
aI00
aI00
aI00
aI00
aI00
aI00
aa(lp1825
I100815
aF483.817
aF155.292
aVp2
p1826
aS'dejavusans'
p1827
aS'#000000'
p1828
aF11.0
aI0
aI01
aI00
aI00
aI00
aI00
aI00
aI00
aI00
aa(lp1829
I234378
aF537.8314
aF155.292
ag1826
aS'dejavusans'
p1830
aS'#000000'
p1831
aF11.0
aI0
aI00
aI00
aI00
aI00
aI00
aI00
aI00
aI00
aa(lp1832
I234378
aF547.32
aF155.292
aVp2
p1833
aS'dejavusans'
p1834
aS'#000000'
p1835
aF11.0
aI0
aI01
aI00
aI00
aI00
aI00
aI00
aI00
aI00
aa(lp1836
I234378
aF584.539875
aF155.292
ag1833
aS'dejavusans'
p1837
aS'#000000'
p1838
aF11.0
aI0
aI00
aI00
aI00
aI00
aI00
aI00
aI00
aI00
aa(lp1839
I234378
aF21.7
aF168.092
aVp2
p1840
aS'dejavusans'
p1841
aS'#000000'
p1842
aF11.0
aI0
aI01
aI00
aI00
aI00
aI00
aI00
aI00
aI00
aa(lp1843
I234378
aF45.075
aF168.092
ag1840
aS'dejavusans'
p1844
aS'#000000'
p1845
aF11.0
aI0
aI00
aI00
aI00
aI00
aI00
aI00
aI00
aI00
aa(lp1846
I67515
aF21.7
aF180.892
aVp2
p1847
aS'dejavusans'
p1848
aS'#000000'
p1849
aF11.0
aI0
aI01
aI00
aI00
aI00
aI00
aI00
aI00
aI00
aa(lp1850
I132957
aF42.765
aF180.892
aVp2
p1851
aS'dejavusans'
p1852
aS'#000000'
p1853
aF11.0
aI0
aI01
aI00
aI00
aI00
aI00
aI00
aI00
aI00
aa(lp1854
I234378
aF72.531
aF180.892
aVp2
p1855
aS'dejavusans'
p1856
aS'#000000'
p1857
aF11.0
aI0
aI01
aI00
aI00
aI00
aI00
aI00
aI00
aI00
aa(lp1858
I234378
aF139.101
aF180.892
ag1855
aS'dejavusans'
p1859
aS'#000000'
p1860
aF11.0
aI0
aI00
aI00
aI00
aI00
aI00
aI00
aI00
aI00
aa(lp1861
I37508
aF165.7
aF180.892
aVp2
p1862
aS'dejavusans'
p1863
aS'#000000'
p1864
aF11.0
aI0
aI01
aI00
aI00
aI00
aI00
aI00
aI00
aI00
aa(lp1865
I31142
aF186.14299999999997
aF180.892
ag1862
aS'dejavusans'
p1866
aS'#000000'
p1867
aF11.0
aI0
aI01
aI00
aI00
aI00
aI00
aI00
aI00
aI00
aa(lp1868
I234378
aF225.02899999999997
aF180.892
ag1862
aS'dejavusans'
p1869
aS'#000000'
p1870
aF11.0
aI0
aI00
aI00
aI00
aI00
aI00
aI00
aI00
aI00
aa(lp1871
I94617
aF240.478
aF180.892
aVp2
p1872
aS'dejavusans'
p1873
aS'#000000'
p1874
aF11.0
aI0
aI01
aI00
aI00
aI00
aI00
aI00
aI00
aI00
aa(lp1875
I234378
aF255.3775
aF180.892
ag1872
aS'dejavusans'
p1876
aS'#000000'
p1877
aF11.0
aI0
aI00
aI00
aI00
aI00
aI00
aI00
aI00
aI00
aa(lp1878
I184937
aF263.831
aF180.892
aVp2
p1879
aS'dejavusans'
p1880
aS'#000000'
p1881
aF11.0
aI0
aI01
aI00
aI00
aI00
aI00
aI00
aI00
aI00
aa(lp1882
I234378
aF286.2798
aF180.892
ag1879
aS'dejavusans'
p1883
aS'#000000'
p1884
aF11.0
aI0
aI00
aI00
aI00
aI00
aI00
aI00
aI00
aI00
aa(lp1885
I234378
aF295.379
aF180.892
aVp2
p1886
aS'dejavusans'
p1887
aS'#000000'
p1888
aF11.0
aI0
aI01
aI00
aI00
aI00
aI00
aI00
aI00
aI00
aa(lp1889
I234378
aF326.9123333333334
aF180.892
ag1886
aS'dejavusans'
p1890
aS'#000000'
p1891
aF11.0
aI0
aI00
aI00
aI00
aI00
aI00
aI00
aI00
aI00
aa(lp1892
I45106
aF336.805
aF180.892
aVp2
p1893
aS'dejavusans'
p1894
aS'#000000'
p1895
aF11.0
aI0
aI01
aI00
aI00
aI00
aI00
aI00
aI00
aI00
aa(lp1896
I234378
aF368.1705
aF180.892
ag1893
aS'dejavusans'
p1897
aS'#000000'
p1898
aF11.0
aI0
aI01
aI01
aI00
aI00
aI00
aI00
aI00
aI00
aa(lp1899
I234378
aF386.3898
aF180.892
ag1893
aS'dejavusans'
p1900
aS'#000000'
p1901
aF11.0
aI0
aI00
aI00
aI00
aI00
aI00
aI00
aI00
aI00
aa(lp1902
I127654
aF401.023
aF180.892
aVp2
p1903
aS'dejavusans'
p1904
aS'#000000'
p1905
aF11.0
aI0
aI01
aI00
aI00
aI00
aI00
aI00
aI00
aI00
aa(lp1906
I234378
aF432.0796666666667
aF180.892
ag1903
aS'dejavusans'
p1907
aS'#000000'
p1908
aF11.0
aI0
aI00
aI00
aI00
aI00
aI00
aI00
aI00
aI00
aa(lp1909
I234378
aF441.778
aF180.892
aVp2
p1910
aS'dejavusans'
p1911
aS'#000000'
p1912
aF11.0
aI0
aI01
aI00
aI00
aI00
aI00
aI00
aI00
aI00
aa(lp1913
I234378
aF470.488
aF180.892
ag1910
aS'dejavusans'
p1914
aS'#000000'
p1915
aF11.0
aI0
aI00
aI00
aI00
aI00
aI00
aI00
aI00
aI00
aa(lp1916
I17350
aF21.7
aF193.692
aVp2
p1917
aS'dejavusans'
p1918
aS'#000000'
p1919
aF11.0
aI0
aI01
aI00
aI00
aI00
aI00
aI00
aI00
aI00
aa(lp1920
I234378
aF49.156
aF193.692
aVp2
p1921
aS'dejavusans'
p1922
aS'#000000'
p1923
aF11.0
aI0
aI01
aI00
aI00
aI00
aI00
aI00
aI00
aI00
aa(lp1924
I234378
aF117.65384615384616
aF193.692
ag1921
aS'dejavusans'
p1925
aS'#000000'
p1926
aF11.0
aI0
aI00
aI00
aI00
aI00
aI00
aI00
aI00
aI00
aa(lp1927
I21716
aF165.7
aF193.692
aVp2
p1928
aS'dejavusans'
p1929
aS'#000000'
p1930
aF11.0
aI0
aI01
aI00
aI00
aI00
aI00
aI00
aI00
aI00
aa(lp1931
I115862
aF192.474
aF193.692
aVp2
p1932
aS'dejavusans'
p1933
aS'#000000'
p1934
aF11.0
aI0
aI01
aI00
aI00
aI00
aI00
aI00
aI00
aI00
aa(lp1935
I234378
aF222.768
aF193.692
ag1932
aS'dejavusans'
p1936
aS'#000000'
p1937
aF11.0
aI0
aI00
aI00
aI00
aI00
aI00
aI00
aI00
aI00
aa(lp1938
I106895
aF231.304
aF193.692
aVp2
p1939
aS'dejavusans'
p1940
aS'#000000'
p1941
aF11.0
aI0
aI01
aI01
aI00
aI00
aI00
aI00
aI00
aI00
aa(lp1942
I234378
aF257.6952
aF193.692
ag1939
aS'dejavusans'
p1943
aS'#000000'
p1944
aF11.0
aI0
aI00
aI00
aI00
aI00
aI00
aI00
aI00
aI00
aa(lp1945
I89217
aF267.879
aF193.692
aVp2
p1946
aS'dejavusans'
p1947
aS'#000000'
p1948
aF11.0
aI0
aI01
aI01
aI00
aI00
aI00
aI00
aI00
aI00
aa(lp1949
I234378
aF292.16700000000003
aF193.692
ag1946
aS'dejavusans'
p1950
aS'#000000'
p1951
aF11.0
aI0
aI00
aI00
aI00
aI00
aI00
aI00
aI00
aI00
aa(lp1952
I234378
aF21.7
aF206.492
aVp2
p1953
aS'dejavusans'
p1954
aS'#000000'
p1955
aF11.0
aI0
aI01
aI00
aI00
aI00
aI00
aI00
aI00
aI00
aa(lp1956
I234378
aF77.2786
aF206.492
ag1953
aS'dejavusans'
p1957
aS'#000000'
p1958
aF11.0
aI0
aI00
aI00
aI00
aI00
aI00
aI00
aI00
aI00
aa(lp1959
I45445
aF165.7
aF206.492
aVp2
p1960
aS'dejavusans'
p1961
aS'#000000'
p1962
aF11.0
aI0
aI01
aI00
aI00
aI00
aI00
aI00
aI00
aI00
aa(lp1963
I234378
aF199.34114285714284
aF206.492
ag1960
aS'dejavusans'
p1964
aS'#000000'
p1965
aF11.0
aI0
aI00
aI00
aI00
aI00
aI00
aI00
aI00
aI00
aa(lp1966
I234378
aF208.435
aF206.492
aVp2
p1967
aS'dejavusans'
p1968
aS'#000000'
p1969
aF11.0
aI0
aI01
aI00
aI00
aI00
aI00
aI00
aI00
aI00
aa(lp1970
I234378
aF242.81916666666666
aF206.492
ag1967
aS'dejavusans'
p1971
aS'#000000'
p1972
aF11.0
aI0
aI00
aI00
aI00
aI00
aI00
aI00
aI00
aI00
aa(lp1973
I234378
aF253.183
aF206.492
aVp2
p1974
aS'dejavusans'
p1975
aS'#000000'
p1976
aF11.0
aI0
aI01
aI00
aI00
aI00
aI00
aI00
aI00
aI00
aa(lp1977
I234378
aF285.23883333333333
aF206.492
ag1974
aS'dejavusans'
p1978
aS'#000000'
p1979
aF11.0
aI0
aI00
aI00
aI00
aI00
aI00
aI00
aI00
aI00
aa(lp1980
I234378
aF21.7
aF228.608
aVp2
p1981
aS'dejavusans'
p1982
aS'#000000'
p1983
aF14.0
aI1
aI01
aI01
aI00
aI00
aI00
aI00
aI00
aI00
aa(lp1984
I31389
aF94.392
aF228.608
aVp2
p1985
aS'dejavusans'
p1986
aS'#000000'
p1987
aF14.0
aI1
aI01
aI01
aI00
aI00
aI00
aI00
aI00
aI00
aa(lp1988
I18648
aF187.4
aF266.092
aVp2
p1989
aS'dejavusans'
p1990
aS'#000000'
p1991
aF11.0
aI1
aI01
aI00
aI00
aI00
aI00
aI00
aI00
aI00
aa(lp1992
I234378
aF243.357
aF266.092
aVp2
p1993
aS'dejavusans'
p1994
aS'#000000'
p1995
aF11.0
aI1
aI01
aI00
aI00
aI00
aI00
aI00
aI00
aI00
aa(lp1996
I132957
aF315.022
aF266.092
aVp2
p1997
aS'dejavusans'
p1998
aS'#000000'
p1999
aF11.0
aI1
aI01
aI00
aI00
aI00
aI00
aI00
aI00
aI00
aa(lp2000
I234378
aF348.11
aF266.092
aVp2
p2001
aS'dejavusans'
p2002
aS'#000000'
p2003
aF11.0
aI1
aI01
aI00
aI00
aI00
aI00
aI00
aI00
aI00
aa(lp2004
I234378
aF404.294
aF266.092
aVp2
p2005
aS'dejavusans'
p2006
aS'#000000'
p2007
aF11.0
aI1
aI01
aI01
aI00
aI00
aI00
aI00
aI00
aI00
aa(lp2008
I229426
aF21.7
aF291.692
aVp2
p2009
aS'dejavusans'
p2010
aS'#000000'
p2011
aF11.0
aI1
aI01
aI00
aI00
aI00
aI00
aI00
aI00
aI00
aa(lp2012
I234378
aF98.86553846153846
aF291.692
ag2009
aS'dejavusans'
p2013
aS'#000000'
p2014
aF11.0
aI1
aI00
aI00
aI00
aI00
aI00
aI00
aI00
aI00
aa(lp2015
I84902
aF154.114
aF291.692
aVp2
p2016
aS'dejavusans'
p2017
aS'#000000'
p2018
aF11.0
aI0
aI01
aI01
aI00
aI00
aI00
aI00
aI00
aI00
aa(lp2019
I78161
aF179.887
aF291.692
aVp2
p2020
aS'dejavusans'
p2021
aS'#000000'
p2022
aF11.0
aI0
aI01
aI00
aI00
aI00
aI00
aI00
aI00
aI00
aa(lp2023
I234378
aF240.321
aF291.692
aVp2
p2024
aS'dejavusans'
p2025
aS'#000000'
p2026
aF11.0
aI0
aI01
aI00
aI00
aI00
aI00
aI00
aI00
aI00
aa(lp2027
I234378
aF21.7
aF304.492
aVp2
p2028
aS'dejavusans'
p2029
aS'#000000'
p2030
aF11.0
aI1
aI01
aI00
aI00
aI00
aI00
aI00
aI00
aI00
aa(lp2031
I234378
aF99.14246153846155
aF304.492
ag2028
aS'dejavusans'
p2032
aS'#000000'
p2033
aF11.0
aI1
aI00
aI00
aI00
aI00
aI00
aI00
aI00
aI00
aa(lp2034
I21716
aF154.414
aF304.492
aVp2
p2035
aS'dejavusans'
p2036
aS'#000000'
p2037
aF11.0
aI0
aI01
aI00
aI00
aI00
aI00
aI00
aI00
aI00
aa(lp2038
I234378
aF176.0708
aF304.492
ag2035
aS'dejavusans'
p2039
aS'#000000'
p2040
aF11.0
aI0
aI00
aI00
aI00
aI00
aI00
aI00
aI00
aI00
aa(lp2041
I234378
aF181.48499999999999
aF304.492
ag2035
aS'dejavusans'
p2042
aS'#000000'
p2043
aF11.0
aI0
aI01
aI00
aI01
aI00
aI00
aI00
aI00
aI00
aa(lp2044
I234378
aF203.1418
aF304.492
ag2035
aS'dejavusans'
p2045
aS'#000000'
p2046
aF11.0
aI0
aI00
aI00
aI00
aI00
aI00
aI00
aI00
aI00
aa(lp2047
I234378
aF215.629
aF304.492
aVp2
p2048
aS'dejavusans'
p2049
aS'#000000'
p2050
aF11.0
aI0
aI01
aI00
aI00
aI00
aI00
aI00
aI00
aI00
aa(lp2051
I234378
aF249.93066666666664
aF304.492
ag2048
aS'dejavusans'
p2052
aS'#000000'
p2053
aF11.0
aI0
aI00
aI00
aI00
aI00
aI00
aI00
aI00
aI00
aa(lp2054
I234378
aF263.765
aF304.492
aVp2
p2055
aS'dejavusans'
p2056
aS'#000000'
p2057
aF11.0
aI0
aI01
aI00
aI00
aI00
aI00
aI00
aI00
aI00
aa(lp2058
I234378
aF303.0632857142857
aF304.492
ag2055
aS'dejavusans'
p2059
aS'#000000'
p2060
aF11.0
aI0
aI00
aI00
aI00
aI00
aI00
aI00
aI00
aI00
aa(lp2061
I184937
aF313.199
aF304.492
aVp2
p2062
aS'dejavusans'
p2063
aS'#000000'
p2064
aF11.0
aI0
aI01
aI00
aI00
aI00
aI00
aI00
aI00
aI00
aa(lp2065
I234378
aF336.535
aF304.492
ag2062
aS'dejavusans'
p2066
aS'#000000'
p2067
aF11.0
aI0
aI00
aI00
aI00
aI00
aI00
aI00
aI00
aI00
aa(lp2068
I234378
aF346.2
aF304.492
aVp2
p2069
aS'dejavusans'
p2070
aS'#000000'
p2071
aF11.0
aI0
aI01
aI00
aI00
aI00
aI00
aI00
aI00
aI00
aa(lp2072
I120031
aF21.7
aF317.292
aVp2
p2073
aS'dejavusans'
p2074
aS'#000000'
p2075
aF11.0
aI1
aI01
aI00
aI00
aI00
aI00
aI00
aI00
aI00
aa(lp2076
I234378
aF73.252
aF317.292
ag2073
aS'dejavusans'
p2077
aS'#000000'
p2078
aF11.0
aI1
aI00
aI00
aI00
aI00
aI00
aI00
aI00
aI00
aa(lp2079
I234378
aF128.57
aF317.292
aVp2
p2080
aS'dejavusans'
p2081
aS'#000000'
p2082
aF11.0
aI0
aI01
aI00
aI00
aI00
aI00
aI00
aI00
aI01
aa(lp2083
I234378
aF148.9465
aF317.292
ag2080
aS'dejavusans'
p2084
aS'#000000'
p2085
aF11.0
aI0
aI00
aI00
aI01
aI01
aI01
aI00
aI00
aI00
aa(lp2086
I102117
aF178.29
aF317.292
aVp2
p2087
aS'dejavusans'
p2088
aS'#000000'
p2089
aF11.0
aI0
aI01
aI00
aI00
aI00
aI00
aI00
aI00
aI00
aa(lp2090
I66756
aF21.7
aF330.092
aVp2
p2091
aS'dejavusans'
p2092
aS'#000000'
p2093
aF11.0
aI1
aI01
aI00
aI00
aI00
aI00
aI00
aI00
aI00
aa(lp2094
I234378
aF90.35466666666667
aF330.092
ag2091
aS'dejavusans'
p2095
aS'#000000'
p2096
aF11.0
aI1
aI00
aI00
aI00
aI00
aI00
aI00
aI00
aI00
aa(lp2097
I46544
aF164.57
aF330.092
aVp2
p2098
aS'dejavusans'
p2099
aS'#000000'
p2100
aF11.0
aI0
aI01
aI00
aI00
aI00
aI00
aI00
aI00
aI00
aa(lp2101
I177958
aF190.53
aF330.092
aVp2
p2102
aS'dejavusans'
p2103
aS'#000000'
p2104
aF11.0
aI0
aI00
aI00
aI00
aI00
aI00
aI00
aI00
aI00
aa(lp2105
I234378
aF232.165
aF330.092
aVp2
p2106
aS'dejavusans'
p2107
aS'#000000'
p2108
aF11.0
aI0
aI00
aI00
aI00
aI00
aI00
aI00
aI00
aI00
aa(lp2109
I89480
aF261.931
aF330.092
aVp2
p2110
aS'dejavusans'
p2111
aS'#000000'
p2112
aF11.0
aI0
aI00
aI00
aI00
aI00
aI00
aI00
aI00
aI00
aa(lp2113
I220115
aF276.418
aF330.092
aVp2
p2114
aS'dejavusans'
p2115
aS'#000000'
p2116
aF11.0
aI0
aI00
aI00
aI00
aI00
aI00
aI00
aI00
aI00
aa(lp2117
I194354
aF332.54
aF330.092
aVp2
p2118
aS'dejavusans'
p2119
aS'#000000'
p2120
aF11.0
aI0
aI00
aI00
aI00
aI00
aI00
aI00
aI00
aI00
aa(lp2121
I118865
aF354.1
aF330.092
aVp2
p2122
aS'dejavusans'
p2123
aS'#000000'
p2124
aF11.0
aI0
aI00
aI00
aI00
aI00
aI00
aI00
aI00
aI00
aa(lp2125
I234378
aF390.136
aF330.092
aVp2
p2126
aS'dejavusans'
p2127
aS'#000000'
p2128
aF11.0
aI0
aI01
aI01
aI00
aI00
aI00
aI00
aI00
aI00
aa(lp2129
I234378
aF405.16833333333335
aF330.092
ag2126
aS'dejavusans'
p2130
aS'#000000'
p2131
aF11.0
aI0
aI01
aI01
aI00
aI00
aI00
aI00
aI00
aI00
aa(lp2132
I138654
aF435.786
aF330.092
aVp2
p2133
aS'dejavusans'
p2134
aS'#000000'
p2135
aF11.0
aI0
aI00
aI00
aI00
aI00
aI00
aI00
aI00
aI00
aa(lp2136
I15726
aF485.825
aF330.092
aVp2
p2137
aS'dejavusans'
p2138
aS'#000000'
p2139
aF11.0
aI0
aI00
aI00
aI00
aI00
aI00
aI00
aI00
aI00
aa(lp2140
I114954
aF510.388
aF330.092
aVp2
p2141
aS'dejavusans'
p2142
aS'#000000'
p2143
aF11.0
aI0
aI00
aI00
aI00
aI00
aI00
aI00
aI00
aI00
aa(lp2144
I234378
aF21.7
aF342.892
aVp2
p2145
aS'dejavusans'
p2146
aS'#000000'
p2147
aF11.0
aI0
aI01
aI00
aI00
aI00
aI00
aI00
aI00
aI00
aa(lp2148
I234378
aF62.961
aF342.892
aVp2
p2149
aS'dejavusans'
p2150
aS'#000000'
p2151
aF11.0
aI0
aI00
aI00
aI00
aI00
aI00
aI00
aI00
aI00
aa(lp2152
I218914
aF118.687
aF342.892
aVp2
p2153
aS'dejavusans'
p2154
aS'#000000'
p2155
aF11.0
aI0
aI00
aI00
aI00
aI00
aI00
aI00
aI00
aI00
aa(lp2156
I33705
aF154.217
aF342.892
aVp2
p2157
aS'dejavusans'
p2158
aS'#000000'
p2159
aF11.0
aI0
aI00
aI00
aI00
aI00
aI00
aI00
aI00
aI00
aa(lp2160
I192638
aF177.482
aF342.892
aVp2
p2161
aS'dejavusans'
p2162
aS'#000000'
p2163
aF11.0
aI0
aI00
aI00
aI00
aI00
aI00
aI00
aI00
aI00
aa(lp2164
I111804
aF194.887
aF342.892
aVp2
p2165
aS'dejavusans'
p2166
aS'#000000'
p2167
aF11.0
aI0
aI00
aI00
aI00
aI00
aI00
aI00
aI00
aI00
aa(lp2168
I57430
aF236.343
aF342.892
aVp2
p2169
aS'dejavusans'
p2170
aS'#000000'
p2171
aF11.0
aI0
aI00
aI00
aI00
aI00
aI00
aI00
aI00
aI00
aa(lp2172
I15429
aF275.085
aF342.892
aVp2
p2173
aS'dejavusans'
p2174
aS'#000000'
p2175
aF11.0
aI0
aI00
aI00
aI00
aI00
aI00
aI00
aI00
aI00
aa(lp2176
I89480
aF292.542
aF342.892
aVp2
p2177
aS'dejavusans'
p2178
aS'#000000'
p2179
aF11.0
aI0
aI00
aI00
aI00
aI00
aI00
aI00
aI00
aI00
aa(lp2180
I2002
aF307.117
aF342.892
aVp2
p2181
aS'dejavusans'
p2182
aS'#000000'
p2183
aF11.0
aI0
aI00
aI00
aI00
aI00
aI00
aI00
aI00
aI00
aa(lp2184
I144503
aF339.094
aF342.892
aVp2
p2185
aS'dejavusans'
p2186
aS'#000000'
p2187
aF11.0
aI0
aI00
aI00
aI00
aI00
aI00
aI00
aI00
aI00
aa(lp2188
I166841
aF353.779
aF342.892
aVp2
p2189
aS'dejavusans'
p2190
aS'#000000'
p2191
aF11.0
aI0
aI00
aI00
aI00
aI00
aI00
aI00
aI00
aI00
aa(lp2192
I234378
aF378.54
aF342.892
aVp2
p2193
aS'dejavusans'
p2194
aS'#000000'
p2195
aF11.0
aI0
aI00
aI00
aI00
aI00
aI00
aI00
aI00
aI00
aa(lp2196
I234378
aF431.2765384615385
aF342.892
ag2193
aS'dejavusans'
p2197
aS'#000000'
p2198
aF11.0
aI0
aI00
aI00
aI00
aI00
aI00
aI00
aI00
aI00
aa(lp2199
I194354
aF437.1361538461539
aF342.892
ag2193
aS'dejavusans'
p2200
aS'#000000'
p2201
aF11.0
aI0
aI01
aI00
aI00
aI00
aI00
aI00
aI00
aI00
aa(lp2202
I234378
aF458.224
aF342.892
aVp2
p2203
aS'dejavusans'
p2204
aS'#000000'
p2205
aF11.0
aI0
aI00
aI00
aI00
aI00
aI00
aI00
aI00
aI00
aa(lp2206
I234378
aF504.864
aF342.892
aVp2
p2207
aS'dejavusans'
p2208
aS'#000000'
p2209
aF11.0
aI0
aI01
aI01
aI00
aI00
aI00
aI00
aI00
aI00
aa(lp2210
I234378
aF519.9256666666666
aF342.892
ag2207
aS'dejavusans'
p2211
aS'#000000'
p2212
aF11.0
aI0
aI01
aI01
aI00
aI00
aI00
aI00
aI00
aI00
aa(lp2213
I234378
aF550.514
aF342.892
aVp2
p2214
aS'dejavusans'
p2215
aS'#000000'
p2216
aF11.0
aI0
aI01
aI00
aI00
aI00
aI00
aI00
aI00
aI00
aa(lp2217
I84932
aF21.7
aF355.692
aVp2
p2218
aS'dejavusans'
p2219
aS'#000000'
p2220
aF11.0
aI0
aI00
aI00
aI00
aI00
aI00
aI00
aI00
aI00
aa(lp2221
I89480
aF42.974
aF355.692
aVp2
p2222
aS'dejavusans'
p2223
aS'#000000'
p2224
aF11.0
aI0
aI00
aI00
aI00
aI00
aI00
aI00
aI00
aI00
aa(lp2225
I192638
aF57.549
aF355.692
aVp2
p2226
aS'dejavusans'
p2227
aS'#000000'
p2228
aF11.0
aI0
aI00
aI00
aI00
aI00
aI00
aI00
aI00
aI00
aa(lp2229
I2786
aF74.72
aF355.692
aVp2
p2230
aS'dejavusans'
p2231
aS'#000000'
p2232
aF11.0
aI0
aI00
aI00
aI00
aI00
aI00
aI00
aI00
aI00
aa(lp2233
I89480
aF139.444
aF355.692
aVp2
p2234
aS'dejavusans'
p2235
aS'#000000'
p2236
aF11.0
aI0
aI00
aI00
aI00
aI00
aI00
aI00
aI00
aI00
aa(lp2237
I234378
aF154.019
aF355.692
aVp2
p2238
aS'dejavusans'
p2239
aS'#000000'
p2240
aF11.0
aI0
aI01
aI00
aI00
aI00
aI00
aI00
aI00
aI00
aa(lp2241
I184870
aF195.4
aF355.692
aVp2
p2242
aS'dejavusans'
p2243
aS'#000000'
p2244
aF11.0
aI0
aI00
aI00
aI00
aI00
aI00
aI00
aI00
aI00
aa(lp2245
I234378
aF242.127
aF355.692
aVp2
p2246
aS'dejavusans'
p2247
aS'#000000'
p2248
aF11.0
aI0
aI00
aI00
aI00
aI00
aI00
aI00
aI00
aI00
aa(lp2249
I234378
aF308.644
aF355.692
aVp2
p2250
aS'dejavusans'
p2251
aS'#000000'
p2252
aF11.0
aI0
aI00
aI00
aI00
aI00
aI00
aI00
aI00
aI00
aa(lp2253
I228643
aF369.562
aF355.692
aVp2
p2254
aS'dejavusans'
p2255
aS'#000000'
p2256
aF11.0
aI0
aI01
aI00
aI00
aI00
aI00
aI00
aI00
aI00
aa(lp2257
I234378
aF390.7524
aF355.692
ag2254
aS'dejavusans'
p2258
aS'#000000'
p2259
aF11.0
aI0
aI00
aI00
aI00
aI00
aI00
aI00
aI00
aI00
aa(lp2260
I231013
aF21.7
aF368.492
aVp2
p2261
aS'dejavusans'
p2262
aS'#000000'
p2263
aF11.0
aI1
aI01
aI00
aI00
aI00
aI00
aI00
aI00
aI00
aa(lp2264
I234378
aF48.485
aF368.492
aVp2
p2265
aS'dejavusans'
p2266
aS'#000000'
p2267
aF11.0
aI1
aI01
aI00
aI00
aI00
aI00
aI00
aI00
aI00
aa(lp2268
I234378
aF123.73515384615385
aF368.492
ag2265
aS'dejavusans'
p2269
aS'#000000'
p2270
aF11.0
aI1
aI00
aI00
aI00
aI00
aI00
aI00
aI00
aI00
aa(lp2271
I234378
aF57.7
aF381.292
aVp2
p2272
aS'dejavusans'
p2273
aS'#000000'
p2274
aF11.0
aI0
aI01
aI00
aI00
aI00
aI00
aI00
aI00
aI00
aa(lp2275
I20593
aF135.481
aF381.292
aVp2
p2276
aS'dejavusans'
p2277
aS'#000000'
p2278
aF11.0
aI0
aI00
aI00
aI00
aI00
aI00
aI00
aI00
aI00
aa(lp2279
I144489
aF210.985
aF381.292
aVp2
p2280
aS'dejavusans'
p2281
aS'#000000'
p2282
aF11.0
aI0
aI00
aI00
aI00
aI00
aI00
aI00
aI00
aI00
aa(lp2283
I123665
aF225.065
aF381.292
aVp2
p2284
aS'dejavusans'
p2285
aS'#000000'
p2286
aF11.0
aI0
aI00
aI00
aI00
aI00
aI00
aI00
aI00
aI00
aa(lp2287
I190806
aF289.184
aF381.292
aVp2
p2288
aS'dejavusans'
p2289
aS'#000000'
p2290
aF11.0
aI0
aI00
aI00
aI00
aI00
aI00
aI00
aI00
aI00
aa(lp2291
I194354
aF307.763
aF381.292
aVp2
p2292
aS'dejavusans'
p2293
aS'#000000'
p2294
aF11.0
aI0
aI00
aI00
aI00
aI00
aI00
aI00
aI00
aI00
aa(lp2295
I132957
aF329.323
aF381.292
aVp2
p2296
aS'dejavusans'
p2297
aS'#000000'
p2298
aF11.0
aI0
aI01
aI00
aI00
aI00
aI00
aI00
aI00
aI00
aa(lp2299
I119502
aF359.5
aF381.292
aVp2
p2300
aS'dejavusans'
p2301
aS'#000000'
p2302
aF11.0
aI0
aI00
aI00
aI00
aI00
aI00
aI00
aI00
aI00
aa(lp2303
I234378
aF402.387
aF381.292
aVp2
p2304
aS'dejavusans'
p2305
aS'#000000'
p2306
aF11.0
aI0
aI01
aI01
aI00
aI00
aI00
aI00
aI00
aI00
aa(lp2307
I56511
aF423.265
aF381.292
aVp2
p2308
aS'dejavusans'
p2309
aS'#000000'
p2310
aF11.0
aI0
aI00
aI00
aI00
aI00
aI00
aI00
aI00
aI00
aa(lp2311
I234378
aF454.329
aF381.292
aVp2
p2312
aS'dejavusans'
p2313
aS'#000000'
p2314
aF11.0
aI0
aI00
aI00
aI00
aI00
aI00
aI00
aI00
aI00
aa(lp2315
I21716
aF459.8136
aF381.292
ag2312
aS'dejavusans'
p2316
aS'#000000'
p2317
aF11.0
aI0
aI01
aI00
aI00
aI00
aI00
aI00
aI00
aI00
aa(lp2318
I221291
aF485.294
aF381.292
aVp2
p2319
aS'dejavusans'
p2320
aS'#000000'
p2321
aF11.0
aI0
aI00
aI00
aI00
aI00
aI00
aI00
aI00
aI00
aa(lp2322
I78776
aF515.247
aF381.292
aVp2
p2323
aS'dejavusans'
p2324
aS'#000000'
p2325
aF11.0
aI0
aI00
aI00
aI00
aI00
aI00
aI00
aI00
aI00
aa(lp2326
I234378
aF539.6142
aF381.292
ag2323
aS'dejavusans'
p2327
aS'#000000'
p2328
aF11.0
aI0
aI00
aI00
aI00
aI00
aI00
aI00
aI00
aI00
aa(lp2329
I234378
aF549.292
aF381.292
aVp2
p2330
aS'dejavusans'
p2331
aS'#000000'
p2332
aF11.0
aI0
aI00
aI00
aI00
aI00
aI00
aI00
aI00
aI00
aa(lp2333
I234378
aF57.7
aF394.992
aVp2
p2334
aS'dejavusans'
p2335
aS'#000000'
p2336
aF11.0
aI0
aI01
aI00
aI00
aI00
aI00
aI00
aI00
aI00
aa(lp2337
I234378
aF116.044
aF394.992
aVp2
p2338
aS'dejavusans'
p2339
aS'#000000'
p2340
aF11.0
aI0
aI01
aI00
aI00
aI00
aI00
aI00
aI00
aI00
aa(lp2341
I234378
aF172.067
aF394.992
aVp2
p2342
aS'dejavusans'
p2343
aS'#000000'
p2344
aF11.0
aI0
aI01
aI01
aI00
aI00
aI00
aI00
aI00
aI00
aa(lp2345
I234378
aF187.09933333333333
aF394.992
ag2342
aS'dejavusans'
p2346
aS'#000000'
p2347
aF11.0
aI0
aI01
aI01
aI00
aI00
aI00
aI00
aI00
aI00
aa(lp2348
I101280
aF219.015
aF394.992
aVp2
p2349
aS'dejavusans'
p2350
aS'#000000'
p2351
aF11.0
aI0
aI00
aI00
aI00
aI00
aI00
aI00
aI00
aI00
aa(lp2352
I89480
aF257.46
aF394.992
aVp2
p2353
aS'dejavusans'
p2354
aS'#000000'
p2355
aF11.0
aI0
aI00
aI00
aI00
aI00
aI00
aI00
aI00
aI00
aa(lp2356
I234378
aF273.344
aF394.992
aVp2
p2357
aS'dejavusans'
p2358
aS'#000000'
p2359
aF11.0
aI0
aI01
aI01
aI00
aI00
aI00
aI00
aI00
aI00
aa(lp2360
I89480
aF308.016
aF394.992
aVp2
p2361
aS'dejavusans'
p2362
aS'#000000'
p2363
aF11.0
aI0
aI00
aI00
aI00
aI00
aI00
aI00
aI00
aI00
aa(lp2364
I19490
aF323.9
aF394.992
aVp2
p2365
aS'dejavusans'
p2366
aS'#000000'
p2367
aF11.0
aI0
aI00
aI00
aI00
aI00
aI00
aI00
aI00
aI00
aa(lp2368
I166593
aF354.37
aF394.992
aVp2
p2369
aS'dejavusans'
p2370
aS'#000000'
p2371
aF11.0
aI0
aI00
aI00
aI00
aI00
aI00
aI00
aI00
aI00
aa(lp2372
I184937
aF365.953
aF394.992
aVp2
p2373
aS'dejavusans'
p2374
aS'#000000'
p2375
aF11.0
aI0
aI00
aI00
aI00
aI00
aI00
aI00
aI00
aI00
aa(lp2376
I96920
aF394.025
aF394.992
aVp2
p2377
aS'dejavusans'
p2378
aS'#000000'
p2379
aF11.0
aI0
aI00
aI00
aI00
aI00
aI00
aI00
aI00
aI00
aa(lp2380
I73167
aF440.159
aF394.992
aVp2
p2381
aS'dejavusans'
p2382
aS'#000000'
p2383
aF11.0
aI0
aI00
aI00
aI00
aI00
aI00
aI00
aI00
aI00
aa(lp2384
I194354
aF472.741
aF394.992
aVp2
p2385
aS'dejavusans'
p2386
aS'#000000'
p2387
aF11.0
aI0
aI00
aI00
aI00
aI00
aI00
aI00
aI00
aI00
aa(lp2388
I132957
aF495.61
aF394.992
aVp2
p2389
aS'dejavusans'
p2390
aS'#000000'
p2391
aF11.0
aI0
aI00
aI00
aI00
aI00
aI00
aI00
aI00
aI00
aa(lp2392
I135639
aF525.277
aF394.992
aVp2
p2393
aS'dejavusans'
p2394
aS'#000000'
p2395
aF11.0
aI0
aI00
aI00
aI00
aI00
aI00
aI00
aI00
aI00
aa(lp2396
I234378
aF540.16
aF394.992
aVp2
p2397
aS'dejavusans'
p2398
aS'#000000'
p2399
aF11.0
aI0
aI01
aI01
aI00
aI00
aI00
aI00
aI00
aI00
aa(lp2400
I190806
aF574.832
aF394.992
aVp2
p2401
aS'dejavusans'
p2402
aS'#000000'
p2403
aF11.0
aI0
aI00
aI00
aI00
aI00
aI00
aI00
aI00
aI00
aa(lp2404
I132957
aF57.7
aF408.592
aVp2
p2405
aS'dejavusans'
p2406
aS'#000000'
p2407
aF11.0
aI0
aI00
aI00
aI00
aI00
aI00
aI00
aI00
aI00
aa(lp2408
I94934
aF85.959
aF408.592
aVp2
p2409
aS'dejavusans'
p2410
aS'#000000'
p2411
aF11.0
aI0
aI00
aI00
aI00
aI00
aI00
aI00
aI00
aI00
aa(lp2412
I234378
aF138.349
aF408.592
ag2409
aS'dejavusans'
p2413
aS'#000000'
p2414
aF11.0
aI0
aI00
aI00
aI00
aI00
aI00
aI00
aI00
aI00
aa(lp2415
I132957
aF57.7
aF421.392
aVp2
p2416
aS'dejavusans'
p2417
aS'#000000'
p2418
aF11.0
aI0
aI01
aI00
aI00
aI00
aI00
aI00
aI00
aI00
aa(lp2419
I166558
aF87.466
aF421.392
aVp2
p2420
aS'dejavusans'
p2421
aS'#000000'
p2422
aF11.0
aI0
aI00
aI00
aI00
aI00
aI00
aI00
aI00
aI00
aa(lp2423
I234378
aF135.415
aF421.392
aVp2
p2424
aS'dejavusans'
p2425
aS'#000000'
p2426
aF11.0
aI0
aI00
aI00
aI00
aI00
aI00
aI00
aI00
aI00
aa(lp2427
I184937
aF168.646
aF421.392
aVp2
p2428
aS'dejavusans'
p2429
aS'#000000'
p2430
aF11.0
aI0
aI00
aI00
aI00
aI00
aI00
aI00
aI00
aI00
aa(lp2431
I234378
aF195.409
aF421.392
aVp2
p2432
aS'dejavusans'
p2433
aS'#000000'
p2434
aF11.0
aI0
aI00
aI00
aI00
aI00
aI00
aI00
aI00
aI00
aa(lp2435
I198478
aF239.64
aF421.392
aVp2
p2436
aS'dejavusans'
p2437
aS'#000000'
p2438
aF11.0
aI0
aI00
aI00
aI00
aI00
aI00
aI00
aI00
aI00
aa(lp2439
I234378
aF269.109
aF421.392
aVp2
p2440
aS'dejavusans'
p2441
aS'#000000'
p2442
aF11.0
aI0
aI00
aI00
aI00
aI00
aI00
aI00
aI00
aI00
aa(lp2443
I132957
aF323.416
aF421.392
aVp2
p2444
aS'dejavusans'
p2445
aS'#000000'
p2446
aF11.0
aI0
aI00
aI00
aI00
aI00
aI00
aI00
aI00
aI00
aa(lp2447
I131049
aF351.587
aF421.392
aVp2
p2448
aS'dejavusans'
p2449
aS'#000000'
p2450
aF11.0
aI0
aI00
aI00
aI00
aI00
aI00
aI00
aI00
aI00
aa(lp2451
I114954
aF380.759
aF421.392
aVp2
p2452
aS'dejavusans'
p2453
aS'#000000'
p2454
aF11.0
aI0
aI00
aI00
aI00
aI00
aI00
aI00
aI00
aI00
aa(lp2455
I234378
aF429.093
aF421.392
aVp2
p2456
aS'dejavusans'
p2457
aS'#000000'
p2458
aF11.0
aI0
aI01
aI00
aI00
aI00
aI00
aI00
aI00
aI00
aa(lp2459
I234378
aF470.354
aF421.392
aVp2
p2460
aS'dejavusans'
p2461
aS'#000000'
p2462
aF11.0
aI0
aI00
aI00
aI00
aI00
aI00
aI00
aI00
aI00
aa(lp2463
I135639
aF526.08
aF421.392
aVp2
p2464
aS'dejavusans'
p2465
aS'#000000'
p2466
aF11.0
aI0
aI00
aI00
aI00
aI00
aI00
aI00
aI00
aI00
aa(lp2467
I234378
aF539.555
aF421.392
aVp2
p2468
aS'dejavusans'
p2469
aS'#000000'
p2470
aF11.0
aI0
aI01
aI01
aI00
aI00
aI00
aI00
aI00
aI00
aa(lp2471
I234378
aF566.2453999999999
aF421.392
ag2468
aS'dejavusans'
p2472
aS'#000000'
p2473
aF11.0
aI0
aI00
aI00
aI00
aI00
aI00
aI00
aI00
aI00
aa(lp2474
I104819
aF57.7
aF435.092
aVp2
p2475
aS'dejavusans'
p2476
aS'#000000'
p2477
aF11.0
aI0
aI01
aI00
aI00
aI00
aI00
aI00
aI00
aI00
aa(lp2478
I234378
aF124.723
aF435.092
aVp2
p2479
aS'dejavusans'
p2480
aS'#000000'
p2481
aF11.0
aI0
aI00
aI00
aI00
aI00
aI00
aI00
aI00
aI00
aa(lp2482
I218862
aF151.684
aF435.092
aVp2
p2483
aS'dejavusans'
p2484
aS'#000000'
p2485
aF11.0
aI0
aI00
aI00
aI00
aI00
aI00
aI00
aI00
aI00
aa(lp2486
I234378
aF180.735
aF435.092
aVp2
p2487
aS'dejavusans'
p2488
aS'#000000'
p2489
aF11.0
aI0
aI00
aI00
aI00
aI00
aI00
aI00
aI00
aI00
aa(lp2490
I190806
aF220.577
aF435.092
aVp2
p2491
aS'dejavusans'
p2492
aS'#000000'
p2493
aF11.0
aI0
aI00
aI00
aI00
aI00
aI00
aI00
aI00
aI00
aa(lp2494
I234378
aF239.156
aF435.092
aVp2
p2495
aS'dejavusans'
p2496
aS'#000000'
p2497
aF11.0
aI0
aI00
aI00
aI00
aI00
aI00
aI00
aI00
aI00
aa(lp2498
I194354
aF306.19
aF435.092
aVp2
p2499
aS'dejavusans'
p2500
aS'#000000'
p2501
aF11.0
aI0
aI00
aI00
aI00
aI00
aI00
aI00
aI00
aI00
aa(lp2502
I234378
aF327.662
aF435.092
aVp2
p2503
aS'dejavusans'
p2504
aS'#000000'
p2505
aF11.0
aI0
aI00
aI00
aI00
aI00
aI00
aI00
aI00
aI00
aa(lp2506
I234378
aF373.5686666666667
aF435.092
ag2503
aS'dejavusans'
p2507
aS'#000000'
p2508
aF11.0
aI0
aI00
aI00
aI00
aI00
aI00
aI00
aI00
aI00
aa(lp2509
I234378
aF57.7
aF448.692
aVp2
p2510
aS'dejavusans'
p2511
aS'#000000'
p2512
aF11.0
aI0
aI01
aI00
aI00
aI00
aI00
aI00
aI00
aI00
aa(lp2513
I234378
aF123.403
aF448.692
aVp2
p2514
aS'dejavusans'
p2515
aS'#000000'
p2516
aF11.0
aI0
aI01
aI01
aI00
aI00
aI00
aI00
aI00
aI00
aa(lp2517
I234378
aF146.679
aF448.692
aVp2
p2518
aS'dejavusans'
p2519
aS'#000000'
p2520
aF11.0
aI0
aI00
aI00
aI00
aI00
aI00
aI00
aI00
aI00
aa(lp2521
I190806
aF237.594
aF448.692
aVp2
p2522
aS'dejavusans'
p2523
aS'#000000'
p2524
aF11.0
aI0
aI00
aI00
aI00
aI00
aI00
aI00
aI00
aI00
aa(lp2525
I148110
aF256.261
aF448.692
aVp2
p2526
aS'dejavusans'
p2527
aS'#000000'
p2528
aF11.0
aI0
aI00
aI00
aI00
aI00
aI00
aI00
aI00
aI00
aa(lp2529
I228447
aF285.323
aF448.692
aVp2
p2530
aS'dejavusans'
p2531
aS'#000000'
p2532
aF11.0
aI0
aI00
aI00
aI00
aI00
aI00
aI00
aI00
aI00
aa(lp2533
I134213
aF326.166
aF448.692
aVp2
p2534
aS'dejavusans'
p2535
aS'#000000'
p2536
aF11.0
aI0
aI00
aI00
aI00
aI00
aI00
aI00
aI00
aI00
aa(lp2537
I144489
aF382.706
aF448.692
aVp2
p2538
aS'dejavusans'
p2539
aS'#000000'
p2540
aF11.0
aI0
aI00
aI00
aI00
aI00
aI00
aI00
aI00
aI00
aa(lp2541
I132957
aF396.786
aF448.692
aVp2
p2542
aS'dejavusans'
p2543
aS'#000000'
p2544
aF11.0
aI0
aI00
aI00
aI00
aI00
aI00
aI00
aI00
aI00
aa(lp2545
I234378
aF425.045
aF448.692
aVp2
p2546
aS'dejavusans'
p2547
aS'#000000'
p2548
aF11.0
aI0
aI00
aI00
aI00
aI00
aI00
aI00
aI00
aI00
aa(lp2549
I234378
aF458.188
aF448.692
aVp2
p2550
aS'dejavusans'
p2551
aS'#000000'
p2552
aF11.0
aI0
aI01
aI00
aI00
aI00
aI00
aI00
aI00
aI00
aa(lp2553
I234378
aF500.143375
aF448.692
ag2550
aS'dejavusans'
p2554
aS'#000000'
p2555
aF11.0
aI0
aI00
aI00
aI00
aI00
aI00
aI00
aI00
aI00
aa(lp2556
I204917
aF163.1
aF481.092
aVp2
p2557
aS'dejavusans'
p2558
aS'#000000'
p2559
aF11.0
aI1
aI01
aI00
aI00
aI00
aI00
aI00
aI00
aI00
aa(lp2560
I75171
aF204.471
aF481.092
aVp2
p2561
aS'dejavusans'
p2562
aS'#000000'
p2563
aF11.0
aI1
aI01
aI00
aI00
aI00
aI00
aI00
aI00
aI00
aa(lp2564
I68984
aF235.348
aF481.092
aVp2
p2565
aS'dejavusans'
p2566
aS'#000000'
p2567
aF11.0
aI1
aI01
aI00
aI00
aI00
aI00
aI00
aI00
aI00
aa(lp2568
I131630
aF292.889
aF481.092
aVp2
p2569
aS'dejavusans'
p2570
aS'#000000'
p2571
aF11.0
aI1
aI01
aI00
aI00
aI00
aI00
aI00
aI00
aI00
aa(lp2572
I132957
aF334.964
aF481.092
aVp2
p2573
aS'dejavusans'
p2574
aS'#000000'
p2575
aF11.0
aI1
aI01
aI00
aI00
aI00
aI00
aI00
aI00
aI00
aa(lp2576
I153177
aF368.041
aF481.092
aVp2
p2577
aS'dejavusans'
p2578
aS'#000000'
p2579
aF11.0
aI1
aI01
aI00
aI00
aI00
aI00
aI00
aI00
aI00
aa(lp2580
I229426
aF21.7
aF506.692
aVp2
p2581
aS'dejavusans'
p2582
aS'#000000'
p2583
aF11.0
aI1
aI01
aI00
aI00
aI00
aI00
aI00
aI00
aI00
aa(lp2584
I234378
aF99.45815384615385
aF506.692
ag2581
aS'dejavusans'
p2585
aS'#000000'
p2586
aF11.0
aI1
aI00
aI00
aI00
aI00
aI00
aI00
aI00
aI00
aa(lp2587
I234378
aF165.7
aF506.692
aVp2
p2588
aS'dejavusans'
p2589
aS'#000000'
p2590
aF11.0
aI0
aI01
aI00
aI00
aI00
aI00
aI00
aI00
aI00
aa(lp2591
I183345
aF205.90949999999998
aF506.692
ag2588
aS'dejavusans'
p2592
aS'#000000'
p2593
aF11.0
aI0
aI01
aI00
aI00
aI00
aI00
aI00
aI00
aI00
aa(lp2594
I234378
aF21.7
aF519.492
aVp2
p2595
aS'dejavusans'
p2596
aS'#000000'
p2597
aF11.0
aI1
aI01
aI00
aI00
aI00
aI00
aI00
aI00
aI00
aa(lp2598
I234378
aF99.14246153846155
aF519.492
ag2595
aS'dejavusans'
p2599
aS'#000000'
p2600
aF11.0
aI1
aI00
aI00
aI00
aI00
aI00
aI00
aI00
aI00
aa(lp2601
I21716
aF165.7
aF519.492
aVp2
p2602
aS'dejavusans'
p2603
aS'#000000'
p2604
aF11.0
aI0
aI01
aI00
aI00
aI00
aI00
aI00
aI00
aI00
aa(lp2605
I234378
aF186.96959999999999
aF519.492
ag2602
aS'dejavusans'
p2606
aS'#000000'
p2607
aF11.0
aI0
aI00
aI00
aI00
aI00
aI00
aI00
aI00
aI00
aa(lp2608
I234378
aF203.98
aF519.492
aVp2
p2609
aS'dejavusans'
p2610
aS'#000000'
p2611
aF11.0
aI0
aI01
aI00
aI00
aI00
aI00
aI00
aI00
aI00
aa(lp2612
I234378
aF243.2782857142857
aF519.492
ag2609
aS'dejavusans'
p2613
aS'#000000'
p2614
aF11.0
aI0
aI00
aI00
aI00
aI00
aI00
aI00
aI00
aI00
aa(lp2615
I37508
aF261.422
aF519.492
aVp2
p2616
aS'dejavusans'
p2617
aS'#000000'
p2618
aF11.0
aI0
aI01
aI00
aI00
aI00
aI00
aI00
aI00
aI00
aa(lp2619
I31142
aF281.865
aF519.492
ag2616
aS'dejavusans'
p2620
aS'#000000'
p2621
aF11.0
aI0
aI01
aI00
aI00
aI00
aI00
aI00
aI00
aI00
aa(lp2622
I234378
aF320.751
aF519.492
ag2616
aS'dejavusans'
p2623
aS'#000000'
p2624
aF11.0
aI0
aI00
aI00
aI00
aI00
aI00
aI00
aI00
aI00
aa(lp2625
I184937
aF344.208
aF519.492
aVp2
p2626
aS'dejavusans'
p2627
aS'#000000'
p2628
aF11.0
aI0
aI01
aI00
aI00
aI00
aI00
aI00
aI00
aI00
aa(lp2629
I234378
aF366.65680000000003
aF519.492
ag2626
aS'dejavusans'
p2630
aS'#000000'
p2631
aF11.0
aI0
aI00
aI00
aI00
aI00
aI00
aI00
aI00
aI00
aa(lp2632
I234378
aF383.863
aF519.492
aVp2
p2633
aS'dejavusans'
p2634
aS'#000000'
p2635
aF11.0
aI0
aI01
aI00
aI00
aI00
aI00
aI00
aI00
aI00
aa(lp2636
I234378
aF415.39633333333336
aF519.492
ag2633
aS'dejavusans'
p2637
aS'#000000'
p2638
aF11.0
aI0
aI00
aI00
aI00
aI00
aI00
aI00
aI00
aI00
aa(lp2639
I127654
aF433.297
aF519.492
aVp2
p2640
aS'dejavusans'
p2641
aS'#000000'
p2642
aF11.0
aI0
aI01
aI00
aI00
aI00
aI00
aI00
aI00
aI00
aa(lp2643
I234378
aF464.34450000000004
aF519.492
ag2640
aS'dejavusans'
p2644
aS'#000000'
p2645
aF11.0
aI0
aI00
aI00
aI00
aI00
aI00
aI00
aI00
aI00
aa(lp2646
I45106
aF482.049
aF519.492
aVp2
p2647
aS'dejavusans'
p2648
aS'#000000'
p2649
aF11.0
aI0
aI01
aI00
aI00
aI00
aI00
aI00
aI00
aI00
aa(lp2650
I234378
aF513.4585
aF519.492
ag2647
aS'dejavusans'
p2651
aS'#000000'
p2652
aF11.0
aI0
aI01
aI01
aI00
aI00
aI00
aI00
aI00
aI00
aa(lp2653
I234378
aF531.7041999999999
aF519.492
ag2647
aS'dejavusans'
p2654
aS'#000000'
p2655
aF11.0
aI0
aI00
aI00
aI00
aI00
aI00
aI00
aI00
aI00
aa(lp2656
I45106
aF554.363
aF519.492
aVp2
p2657
aS'dejavusans'
p2658
aS'#000000'
p2659
aF11.0
aI0
aI01
aI00
aI00
aI00
aI00
aI00
aI00
aI00
aa(lp2660
I126003
aF21.7
aF532.292
aVp2
p2661
aS'dejavusans'
p2662
aS'#000000'
p2663
aF11.0
aI0
aI01
aI00
aI00
aI00
aI00
aI00
aI00
aI00
aa(lp2664
I120031
aF21.7
aF545.092
aVp2
p2665
aS'dejavusans'
p2666
aS'#000000'
p2667
aF11.0
aI1
aI01
aI00
aI00
aI00
aI00
aI00
aI00
aI00
aa(lp2668
I234378
aF73.252
aF545.092
ag2665
aS'dejavusans'
p2669
aS'#000000'
p2670
aF11.0
aI1
aI00
aI00
aI00
aI00
aI00
aI00
aI00
aI00
aa(lp2671
I234378
aF142.518
aF545.092
aVp2
p2672
aS'dejavusans'
p2673
aS'#000000'
p2674
aF11.0
aI0
aI01
aI00
aI00
aI00
aI00
aI00
aI00
aI01
aa(lp2675
I234378
aF165.079
aF545.092
aVp2
p2676
aS'dejavusans'
p2677
aS'#000000'
p2678
aF11.0
aI0
aI00
aI00
aI01
aI01
aI01
aI00
aI00
aI00
aa(lp2679
I234378
aF195.032
aF545.092
aVp2
p2680
aS'dejavusans'
p2681
aS'#000000'
p2682
aF11.0
aI0
aI01
aI00
aI00
aI00
aI00
aI00
aI00
aI01
aa(lp2683
I234378
aF215.46900000000002
aF545.092
ag2680
aS'dejavusans'
p2684
aS'#000000'
p2685
aF11.0
aI0
aI00
aI00
aI01
aI01
aI01
aI00
aI00
aI00
aa(lp2686
I66756
aF21.7
aF557.892
aVp2
p2687
aS'dejavusans'
p2688
aS'#000000'
p2689
aF11.0
aI1
aI01
aI00
aI00
aI00
aI00
aI00
aI00
aI00
aa(lp2690
I234378
aF90.35466666666667
aF557.892
ag2687
aS'dejavusans'
p2691
aS'#000000'
p2692
aF11.0
aI1
aI00
aI00
aI00
aI00
aI00
aI00
aI00
aI00
aa(lp2693
I234378
aF175.2
aF557.892
aVp2
p2694
aS'dejavusans'
p2695
aS'#000000'
p2696
aF11.0
aI0
aI01
aI01
aI00
aI00
aI00
aI00
aI00
aI00
aa(lp2697
I22474
aF199.862
aF557.892
aVp2
p2698
aS'dejavusans'
p2699
aS'#000000'
p2700
aF11.0
aI0
aI00
aI00
aI00
aI00
aI00
aI00
aI00
aI00
aa(lp2701
I173426
aF212.138
aF557.892
aVp2
p2702
aS'dejavusans'
p2703
aS'#000000'
p2704
aF11.0
aI0
aI00
aI00
aI00
aI00
aI00
aI00
aI00
aI00
aa(lp2705
I89480
aF265.752
aF557.892
aVp2
p2706
aS'dejavusans'
p2707
aS'#000000'
p2708
aF11.0
aI0
aI00
aI00
aI00
aI00
aI00
aI00
aI00
aI00
aa(lp2709
I179418
aF280.327
aF557.892
aVp2
p2710
aS'dejavusans'
p2711
aS'#000000'
p2712
aF11.0
aI0
aI00
aI00
aI00
aI00
aI00
aI00
aI00
aI00
aa(lp2713
I80286
aF325.064
aF557.892
aVp2
p2714
aS'dejavusans'
p2715
aS'#000000'
p2716
aF11.0
aI0
aI00
aI00
aI00
aI00
aI00
aI00
aI00
aI00
aa(lp2717
I44481
aF375.51
aF557.892
aVp2
p2718
aS'dejavusans'
p2719
aS'#000000'
p2720
aF11.0
aI0
aI00
aI00
aI00
aI00
aI00
aI00
aI00
aI00
aa(lp2721
I234378
aF402.0145
aF557.892
ag2718
aS'dejavusans'
p2722
aS'#000000'
p2723
aF11.0
aI0
aI00
aI00
aI00
aI00
aI00
aI00
aI00
aI00
aa(lp2724
I75171
aF407.3154
aF557.892
ag2718
aS'dejavusans'
p2725
aS'#000000'
p2726
aF11.0
aI0
aI00
aI00
aI00
aI00
aI00
aI00
aI00
aI00
aa(lp2727
I49053
aF432.028
aF557.892
aVp2
p2728
aS'dejavusans'
p2729
aS'#000000'
p2730
aF11.0
aI0
aI00
aI00
aI00
aI00
aI00
aI00
aI00
aI00
aa(lp2731
I234378
aF479.537
aF557.892
aVp2
p2732
aS'dejavusans'
p2733
aS'#000000'
p2734
aF11.0
aI0
aI00
aI00
aI00
aI00
aI00
aI00
aI00
aI00
aa(lp2735
I190806
aF532.271
aF557.892
aVp2
p2736
aS'dejavusans'
p2737
aS'#000000'
p2738
aF11.0
aI0
aI00
aI00
aI00
aI00
aI00
aI00
aI00
aI00
aa(lp2739
I194354
aF550.85
aF557.892
aVp2
p2740
aS'dejavusans'
p2741
aS'#000000'
p2742
aF11.0
aI0
aI00
aI00
aI00
aI00
aI00
aI00
aI00
aI00
aa(lp2743
I120218
aF21.7
aF570.692
aVp2
p2744
aS'dejavusans'
p2745
aS'#000000'
p2746
aF11.0
aI0
aI01
aI00
aI00
aI00
aI00
aI00
aI00
aI00
aa(lp2747
I78776
aF78.636
aF570.692
aVp2
p2748
aS'dejavusans'
p2749
aS'#000000'
p2750
aF11.0
aI0
aI00
aI00
aI00
aI00
aI00
aI00
aI00
aI00
aa(lp2751
I218914
aF108.292
aF570.692
aVp2
p2752
aS'dejavusans'
p2753
aS'#000000'
p2754
aF11.0
aI0
aI00
aI00
aI00
aI00
aI00
aI00
aI00
aI00
aa(lp2755
I152685
aF143.833
aF570.692
aVp2
p2756
aS'dejavusans'
p2757
aS'#000000'
p2758
aF11.0
aI0
aI00
aI00
aI00
aI00
aI00
aI00
aI00
aI00
aa(lp2759
I76633
aF179.594
aF570.692
aVp2
p2760
aS'dejavusans'
p2761
aS'#000000'
p2762
aF11.0
aI0
aI01
aI00
aI00
aI00
aI00
aI00
aI00
aI00
aa(lp2763
I234378
aF217.555
aF570.692
aVp2
p2764
aS'dejavusans'
p2765
aS'#000000'
p2766
aF11.0
aI0
aI00
aI00
aI00
aI00
aI00
aI00
aI00
aI00
aa(lp2767
I234378
aF264.206
aF570.692
aVp2
p2768
aS'dejavusans'
p2769
aS'#000000'
p2770
aF11.0
aI0
aI00
aI00
aI00
aI00
aI00
aI00
aI00
aI00
aa(lp2771
I154958
aF301.243
aF570.692
aVp2
p2772
aS'dejavusans'
p2773
aS'#000000'
p2774
aF11.0
aI0
aI00
aI00
aI00
aI00
aI00
aI00
aI00
aI00
aa(lp2775
I14859
aF352.756
aF570.692
aVp2
p2776
aS'dejavusans'
p2777
aS'#000000'
p2778
aF11.0
aI0
aI00
aI00
aI00
aI00
aI00
aI00
aI00
aI00
aa(lp2779
I234378
aF399.792
aF570.692
aVp2
p2780
aS'dejavusans'
p2781
aS'#000000'
p2782
aF11.0
aI0
aI00
aI00
aI00
aI00
aI00
aI00
aI00
aI00
aa(lp2783
I190794
aF435.38599999999997
aF570.692
ag2780
aS'dejavusans'
p2784
aS'#000000'
p2785
aF11.0
aI0
aI01
aI00
aI00
aI00
aI00
aI00
aI00
aI00
aa(lp2786
I111461
aF470.489
aF570.692
aVp2
p2787
aS'dejavusans'
p2788
aS'#000000'
p2789
aF11.0
aI0
aI01
aI00
aI00
aI00
aI00
aI00
aI00
aI00
aa(lp2790
I234378
aF488.58299999999997
aF570.692
ag2787
aS'dejavusans'
p2791
aS'#000000'
p2792
aF11.0
aI0
aI00
aI00
aI00
aI00
aI00
aI00
aI00
aI00
aa(lp2793
I194354
aF502.565
aF570.692
aVp2
p2794
aS'dejavusans'
p2795
aS'#000000'
p2796
aF11.0
aI0
aI01
aI00
aI00
aI00
aI00
aI00
aI00
aI00
aa(lp2797
I234378
aF526.523
aF570.692
aVp2
p2798
aS'dejavusans'
p2799
aS'#000000'
p2800
aF11.0
aI0
aI00
aI00
aI00
aI00
aI00
aI00
aI00
aI00
aa(lp2801
I234378
aF21.7
aF583.492
aVp2
p2802
aS'dejavusans'
p2803
aS'#000000'
p2804
aF11.0
aI0
aI00
aI00
aI00
aI00
aI00
aI00
aI00
aI00
aa(lp2805
I84932
aF78.24
aF583.492
aVp2
p2806
aS'dejavusans'
p2807
aS'#000000'
p2808
aF11.0
aI0
aI00
aI00
aI00
aI00
aI00
aI00
aI00
aI00
aa(lp2809
I162417
aF99.514
aF583.492
aVp2
p2810
aS'dejavusans'
p2811
aS'#000000'
p2812
aF11.0
aI0
aI00
aI00
aI00
aI00
aI00
aI00
aI00
aI00
aa(lp2813
I89480
aF133.658
aF583.492
aVp2
p2814
aS'dejavusans'
p2815
aS'#000000'
p2816
aF11.0
aI0
aI00
aI00
aI00
aI00
aI00
aI00
aI00
aI00
aa(lp2817
I203832
aF148.233
aF583.492
aVp2
p2818
aS'dejavusans'
p2819
aS'#000000'
p2820
aF11.0
aI0
aI00
aI00
aI00
aI00
aI00
aI00
aI00
aI00
aa(lp2821
I46544
aF171.091
aF583.492
aVp2
p2822
aS'dejavusans'
p2823
aS'#000000'
p2824
aF11.0
aI0
aI00
aI00
aI00
aI00
aI00
aI00
aI00
aI00
aa(lp2825
I63022
aF194.653
aF583.492
aVp2
p2826
aS'dejavusans'
p2827
aS'#000000'
p2828
aF11.0
aI0
aI00
aI00
aI00
aI00
aI00
aI00
aI00
aI00
aa(lp2829
I16331
aF240.38
aF583.492
aVp2
p2830
aS'dejavusans'
p2831
aS'#000000'
p2832
aF11.0
aI0
aI00
aI00
aI00
aI00
aI00
aI00
aI00
aI00
aa(lp2833
I166593
aF256.352
aF583.492
aVp2
p2834
aS'dejavusans'
p2835
aS'#000000'
p2836
aF11.0
aI0
aI00
aI00
aI00
aI00
aI00
aI00
aI00
aI00
aa(lp2837
I168333
aF266.626
aF583.492
aVp2
p2838
aS'dejavusans'
p2839
aS'#000000'
p2840
aF11.0
aI0
aI01
aI00
aI00
aI00
aI00
aI00
aI00
aI00
aa(lp2841
I153177
aF325.861
aF583.492
aVp2
p2842
aS'dejavusans'
p2843
aS'#000000'
p2844
aF11.0
aI0
aI01
aI00
aI00
aI00
aI00
aI00
aI00
aI00
aa(lp2845
I14859
aF401.772
aF583.492
aVp2
p2846
aS'dejavusans'
p2847
aS'#000000'
p2848
aF11.0
aI0
aI00
aI00
aI00
aI00
aI00
aI00
aI00
aI00
aa(lp2849
I234378
aF443.5817777777778
aF583.492
ag2846
aS'dejavusans'
p2850
aS'#000000'
p2851
aF11.0
aI0
aI00
aI00
aI00
aI00
aI00
aI00
aI00
aI00
aa(lp2852
I194354
aF452.295
aF583.492
aVp2
p2853
aS'dejavusans'
p2854
aS'#000000'
p2855
aF11.0
aI0
aI01
aI00
aI00
aI00
aI00
aI00
aI00
aI00
aa(lp2856
I121360
aF476.253
aF583.492
aVp2
p2857
aS'dejavusans'
p2858
aS'#000000'
p2859
aF11.0
aI0
aI00
aI00
aI00
aI00
aI00
aI00
aI00
aI00
aa(lp2860
I132957
aF529.9
aF583.492
aVp2
p2861
aS'dejavusans'
p2862
aS'#000000'
p2863
aF11.0
aI0
aI00
aI00
aI00
aI00
aI00
aI00
aI00
aI00
aa(lp2864
I234378
aF21.7
aF596.292
aVp2
p2865
aS'dejavusans'
p2866
aS'#000000'
p2867
aF11.0
aI0
aI00
aI00
aI00
aI00
aI00
aI00
aI00
aI00
aa(lp2868
I131049
aF82.013
aF596.292
aVp2
p2869
aS'dejavusans'
p2870
aS'#000000'
p2871
aF11.0
aI0
aI00
aI00
aI00
aI00
aI00
aI00
aI00
aI00
aa(lp2872
I234378
aF111.086
aF596.292
aVp2
p2873
aS'dejavusans'
p2874
aS'#000000'
p2875
aF11.0
aI0
aI01
aI01
aI00
aI00
aI00
aI00
aI00
aI00
aa(lp2876
I234378
aF150.345
aF596.292
aVp2
p2877
aS'dejavusans'
p2878
aS'#000000'
p2879
aF11.0
aI0
aI01
aI01
aI00
aI00
aI00
aI00
aI00
aI00
aa(lp2880
I89480
aF176.91
aF596.292
aVp2
p2881
aS'dejavusans'
p2882
aS'#000000'
p2883
aF11.0
aI0
aI00
aI00
aI00
aI00
aI00
aI00
aI00
aI00
aa(lp2884
I192638
aF191.397
aF596.292
aVp2
p2885
aS'dejavusans'
p2886
aS'#000000'
p2887
aF11.0
aI0
aI00
aI00
aI00
aI00
aI00
aI00
aI00
aI00
aa(lp2888
I234378
aF208.9
aF596.292
aVp2
p2889
aS'dejavusans'
p2890
aS'#000000'
p2891
aF11.0
aI0
aI00
aI00
aI00
aI00
aI00
aI00
aI00
aI00
aa(lp2892
I85218
aF261.832
aF596.292
aVp2
p2893
aS'dejavusans'
p2894
aS'#000000'
p2895
aF11.0
aI0
aI00
aI00
aI00
aI00
aI00
aI00
aI00
aI00
aa(lp2896
I158532
aF285.988
aF596.292
aVp2
p2897
aS'dejavusans'
p2898
aS'#000000'
p2899
aF11.0
aI0
aI00
aI00
aI00
aI00
aI00
aI00
aI00
aI00
aa(lp2900
I89480
aF341.098
aF596.292
aVp2
p2901
aS'dejavusans'
p2902
aS'#000000'
p2903
aF11.0
aI0
aI00
aI00
aI00
aI00
aI00
aI00
aI00
aI00
aa(lp2904
I234378
aF355.585
aF596.292
aVp2
p2905
aS'dejavusans'
p2906
aS'#000000'
p2907
aF11.0
aI0
aI01
aI01
aI00
aI00
aI00
aI00
aI00
aI00
aa(lp2908
I89480
aF380.247
aF596.292
aVp2
p2909
aS'dejavusans'
p2910
aS'#000000'
p2911
aF11.0
aI0
aI00
aI00
aI00
aI00
aI00
aI00
aI00
aI00
aa(lp2912
I203110
aF394.822
aF596.292
aVp2
p2913
aS'dejavusans'
p2914
aS'#000000'
p2915
aF11.0
aI0
aI00
aI00
aI00
aI00
aI00
aI00
aI00
aI00
aa(lp2916
I215483
aF448.051
aF596.292
aVp2
p2917
aS'dejavusans'
p2918
aS'#000000'
p2919
aF11.0
aI0
aI00
aI00
aI00
aI00
aI00
aI00
aI00
aI00
aa(lp2920
I44481
aF487.783
aF596.292
aVp2
p2921
aS'dejavusans'
p2922
aS'#000000'
p2923
aF11.0
aI0
aI00
aI00
aI00
aI00
aI00
aI00
aI00
aI00
aa(lp2924
I190806
aF516.845
aF596.292
aVp2
p2925
aS'dejavusans'
p2926
aS'#000000'
p2927
aF11.0
aI0
aI00
aI00
aI00
aI00
aI00
aI00
aI00
aI00
aa(lp2928
I194354
aF535.424
aF596.292
aVp2
p2929
aS'dejavusans'
p2930
aS'#000000'
p2931
aF11.0
aI0
aI00
aI00
aI00
aI00
aI00
aI00
aI00
aI00
aa(lp2932
I234378
aF21.7
aF609.092
aVp2
p2933
aS'dejavusans'
p2934
aS'#000000'
p2935
aF11.0
aI0
aI00
aI00
aI00
aI00
aI00
aI00
aI00
aI00
aa(lp2936
I234378
aF82.57308333333333
aF609.092
ag2933
aS'dejavusans'
p2937
aS'#000000'
p2938
aF11.0
aI0
aI00
aI00
aI00
aI00
aI00
aI00
aI00
aI00
aa(lp2939
I231013
aF21.7
aF621.892
aVp2
p2940
aS'dejavusans'
p2941
aS'#000000'
p2942
aF11.0
aI1
aI01
aI00
aI00
aI00
aI00
aI00
aI00
aI00
aa(lp2943
I234378
aF48.485
aF621.892
aVp2
p2944
aS'dejavusans'
p2945
aS'#000000'
p2946
aF11.0
aI1
aI01
aI00
aI00
aI00
aI00
aI00
aI00
aI00
aa(lp2947
I234378
aF123.73515384615385
aF621.892
ag2944
aS'dejavusans'
p2948
aS'#000000'
p2949
aF11.0
aI1
aI00
aI00
aI00
aI00
aI00
aI00
aI00
aI00
aa(lp2950
I125458
aF57.7
aF634.692
aVp2
p2951
aS'dejavusans'
p2952
aS'#000000'
p2953
aF11.0
aI0
aI01
aI00
aI00
aI00
aI00
aI00
aI00
aI00
aa(lp2954
I210945
aF102.349
aF634.692
aVp2
p2955
aS'dejavusans'
p2956
aS'#000000'
p2957
aF11.0
aI0
aI00
aI00
aI00
aI00
aI00
aI00
aI00
aI00
aa(lp2958
I194354
aF139.188
aF634.692
aVp2
p2959
aS'dejavusans'
p2960
aS'#000000'
p2961
aF11.0
aI0
aI00
aI00
aI00
aI00
aI00
aI00
aI00
aI00
aa(lp2962
I67515
aF160.748
aF634.692
aVp2
p2963
aS'dejavusans'
p2964
aS'#000000'
p2965
aF11.0
aI0
aI01
aI00
aI00
aI00
aI00
aI00
aI00
aI00
aa(lp2966
I132957
aF181.813
aF634.692
aVp2
p2967
aS'dejavusans'
p2968
aS'#000000'
p2969
aF11.0
aI0
aI01
aI00
aI00
aI00
aI00
aI00
aI00
aI00
aa(lp2970
I234378
aF211.491
aF634.692
aVp2
p2971
aS'dejavusans'
p2972
aS'#000000'
p2973
aF11.0
aI0
aI01
aI00
aI00
aI00
aI00
aI00
aI00
aI00
aa(lp2974
I26776
aF275.412
aF634.692
aVp2
p2975
aS'dejavusans'
p2976
aS'#000000'
p2977
aF11.0
aI0
aI01
aI01
aI00
aI00
aI00
aI00
aI00
aI00
aa(lp2978
I31575
aF284.63266666666664
aF634.692
ag2975
aS'dejavusans'
p2979
aS'#000000'
p2980
aF11.0
aI0
aI01
aI01
aI00
aI00
aI00
aI00
aI00
aI00
aa(lp2981
I210461
aF303.583
aF634.692
aVp2
p2982
aS'dejavusans'
p2983
aS'#000000'
p2984
aF11.0
aI0
aI00
aI00
aI00
aI00
aI00
aI00
aI00
aI00
aa(lp2985
I234378
aF329.1646
aF634.692
ag2982
aS'dejavusans'
p2986
aS'#000000'
p2987
aF11.0
aI0
aI00
aI00
aI00
aI00
aI00
aI00
aI00
aI00
aa(lp2988
I122076
aF57.7
aF648.292
aVp2
p2989
aS'dejavusans'
p2990
aS'#000000'
p2991
aF11.0
aI0
aI01
aI00
aI00
aI00
aI00
aI00
aI00
aI00
aa(lp2992
I224906
aF119.619
aF648.292
aVp2
p2993
aS'dejavusans'
p2994
aS'#000000'
p2995
aF11.0
aI0
aI00
aI00
aI00
aI00
aI00
aI00
aI00
aI00
aa(lp2996
I169745
aF191.438
aF648.292
aVp2
p2997
aS'dejavusans'
p2998
aS'#000000'
p2999
aF11.0
aI0
aI00
aI00
aI00
aI00
aI00
aI00
aI00
aI00
aa(lp3000
I194354
aF218.289
aF648.292
aVp2
p3001
aS'dejavusans'
p3002
aS'#000000'
p3003
aF11.0
aI0
aI00
aI00
aI00
aI00
aI00
aI00
aI00
aI00
aa(lp3004
I63022
aF239.761
aF648.292
aVp2
p3005
aS'dejavusans'
p3006
aS'#000000'
p3007
aF11.0
aI0
aI01
aI00
aI00
aI00
aI00
aI00
aI00
aI00
aa(lp3008
I144690
aF285.004
aF648.292
aVp2
p3009
aS'dejavusans'
p3010
aS'#000000'
p3011
aF11.0
aI0
aI01
aI00
aI00
aI00
aI00
aI00
aI00
aI00
aa(lp3012
I234378
aF323.53333333333336
aF648.292
ag3009
aS'dejavusans'
p3013
aS'#000000'
p3014
aF11.0
aI0
aI00
aI00
aI00
aI00
aI00
aI00
aI00
aI00
aa(lp3015
I68032
aF329.9548888888889
aF648.292
ag3009
aS'dejavusans'
p3016
aS'#000000'
p3017
aF11.0
aI0
aI01
aI00
aI00
aI00
aI00
aI00
aI00
aI00
aa(lp3018
I210461
aF404.156
aF648.292
aVp2
p3019
aS'dejavusans'
p3020
aS'#000000'
p3021
aF11.0
aI0
aI00
aI00
aI00
aI00
aI00
aI00
aI00
aI00
aa(lp3022
I234378
aF429.65840000000003
aF648.292
ag3019
aS'dejavusans'
p3023
aS'#000000'
p3024
aF11.0
aI0
aI00
aI00
aI00
aI00
aI00
aI00
aI00
aI00
aa(lp3025
I113826
aF57.7
aF661.992
aVp2
p3026
aS'dejavusans'
p3027
aS'#000000'
p3028
aF11.0
aI0
aI01
aI00
aI00
aI00
aI00
aI00
aI00
aI00
aa(lp3029
I45106
aF100.446
aF661.992
aVp2
p3030
aS'dejavusans'
p3031
aS'#000000'
p3032
aF11.0
aI0
aI01
aI00
aI00
aI00
aI00
aI00
aI00
aI00
aa(lp3033
I234378
aF135.492
aF661.992
aVp2
p3034
aS'dejavusans'
p3035
aS'#000000'
p3036
aF11.0
aI0
aI00
aI00
aI00
aI00
aI00
aI00
aI00
aI00
aa(lp3037
I89480
aF161.452
aF661.992
aVp2
p3038
aS'dejavusans'
p3039
aS'#000000'
p3040
aF11.0
aI0
aI00
aI00
aI00
aI00
aI00
aI00
aI00
aI00
aa(lp3041
I61195
aF176.027
aF661.992
aVp2
p3042
aS'dejavusans'
p3043
aS'#000000'
p3044
aF11.0
aI0
aI00
aI00
aI00
aI00
aI00
aI00
aI00
aI00
aa(lp3045
I194354
aF221.765
aF661.992
aVp2
p3046
aS'dejavusans'
p3047
aS'#000000'
p3048
aF11.0
aI0
aI00
aI00
aI00
aI00
aI00
aI00
aI00
aI00
aa(lp3049
I126003
aF243.237
aF661.992
aVp2
p3050
aS'dejavusans'
p3051
aS'#000000'
p3052
aF11.0
aI0
aI00
aI00
aI00
aI00
aI00
aI00
aI00
aI00
aa(lp3053
I123665
aF302.274
aF661.992
aVp2
p3054
aS'dejavusans'
p3055
aS'#000000'
p3056
aF11.0
aI0
aI00
aI00
aI00
aI00
aI00
aI00
aI00
aI00
aa(lp3057
I98677
aF366.393
aF661.992
aVp2
p3058
aS'dejavusans'
p3059
aS'#000000'
p3060
aF11.0
aI0
aI00
aI00
aI00
aI00
aI00
aI00
aI00
aI00
aa(lp3061
I132957
aF386.655
aF661.992
aVp2
p3062
aS'dejavusans'
p3063
aS'#000000'
p3064
aF11.0
aI0
aI00
aI00
aI00
aI00
aI00
aI00
aI00
aI00
aa(lp3065
I184870
aF414.914
aF661.992
aVp2
p3066
aS'dejavusans'
p3067
aS'#000000'
p3068
aF11.0
aI0
aI00
aI00
aI00
aI00
aI00
aI00
aI00
aI00
aa(lp3069
I48371
aF461.543
aF661.992
aVp2
p3070
aS'dejavusans'
p3071
aS'#000000'
p3072
aF11.0
aI0
aI01
aI00
aI00
aI00
aI00
aI00
aI00
aI00
aa(lp3073
I169566
aF495.522
aF661.992
aVp2
p3074
aS'dejavusans'
p3075
aS'#000000'
p3076
aF11.0
aI0
aI00
aI00
aI00
aI00
aI00
aI00
aI00
aI00
aa(lp3077
I234378
aF536.65925
aF661.992
ag3074
aS'dejavusans'
p3078
aS'#000000'
p3079
aF11.0
aI0
aI00
aI00
aI00
aI00
aI00
aI00
aI00
aI00
aa(lp3080
I234378
aF57.7
aF675.592
aVp2
p3081
aS'dejavusans'
p3082
aS'#000000'
p3083
aF11.0
aI0
aI01
aI00
aI00
aI00
aI00
aI00
aI00
aI00
aa(lp3084
I194354
aF116.539
aF675.592
aVp2
p3085
aS'dejavusans'
p3086
aS'#000000'
p3087
aF11.0
aI0
aI00
aI00
aI00
aI00
aI00
aI00
aI00
aI00
aa(lp3088
I234378
aF139.903
aF675.592
aVp2
p3089
aS'dejavusans'
p3090
aS'#000000'
p3091
aF11.0
aI0
aI01
aI01
aI00
aI00
aI00
aI00
aI00
aI00
aa(lp3092
I234378
aF182.946
aF675.592
aVp2
p3093
aS'dejavusans'
p3094
aS'#000000'
p3095
aF11.0
aI0
aI01
aI01
aI00
aI00
aI00
aI00
aI00
aI00
aa(lp3096
I132957
aF211.315
aF675.592
aVp2
p3097
aS'dejavusans'
p3098
aS'#000000'
p3099
aF11.0
aI0
aI00
aI00
aI00
aI00
aI00
aI00
aI00
aI00
aa(lp3100
I234378
aF233.8518
aF675.592
ag3097
aS'dejavusans'
p3101
aS'#000000'
p3102
aF11.0
aI0
aI00
aI00
aI00
aI00
aI00
aI00
aI00
aI00
aa(lp3103
I123665
aF244.876
aF675.592
aVp2
p3104
aS'dejavusans'
p3105
aS'#000000'
p3106
aF11.0
aI0
aI00
aI00
aI00
aI00
aI00
aI00
aI00
aI00
aa(lp3107
I234378
aF310.887
aF675.592
aVp2
p3108
aS'dejavusans'
p3109
aS'#000000'
p3110
aF11.0
aI0
aI00
aI00
aI00
aI00
aI00
aI00
aI00
aI00
aa(lp3111
I15726
aF338.64
aF675.592
aVp2
p3112
aS'dejavusans'
p3113
aS'#000000'
p3114
aF11.0
aI0
aI00
aI00
aI00
aI00
aI00
aI00
aI00
aI00
aa(lp3115
I234378
aF365.095
aF675.592
aVp2
p3116
aS'dejavusans'
p3117
aS'#000000'
p3118
aF11.0
aI0
aI01
aI01
aI00
aI00
aI00
aI00
aI00
aI00
aa(lp3119
I85218
aF400.262
aF675.592
aVp2
p3120
aS'dejavusans'
p3121
aS'#000000'
p3122
aF11.0
aI0
aI00
aI00
aI00
aI00
aI00
aI00
aI00
aI00
aa(lp3123
I129455
aF426.222
aF675.592
aVp2
p3124
aS'dejavusans'
p3125
aS'#000000'
p3126
aF11.0
aI0
aI00
aI00
aI00
aI00
aI00
aI00
aI00
aI00
aa(lp3127
I234378
aF477.7614
aF675.592
ag3124
aS'dejavusans'
p3128
aS'#000000'
p3129
aF11.0
aI0
aI00
aI00
aI00
aI00
aI00
aI00
aI00
aI00
aa(lp3130
I160080
aF488.977
aF675.592
aVp2
p3131
aS'dejavusans'
p3132
aS'#000000'
p3133
aF11.0
aI0
aI00
aI00
aI00
aI00
aI00
aI00
aI00
aI00
aa(lp3134
I234378
aF536.816
aF675.592
aVp2
p3135
aS'dejavusans'
p3136
aS'#000000'
p3137
aF11.0
aI0
aI00
aI00
aI00
aI00
aI00
aI00
aI00
aI00
aa(lp3138
I194354
aF571.851
aF675.592
aVp2
p3139
aS'dejavusans'
p3140
aS'#000000'
p3141
aF11.0
aI0
aI00
aI00
aI00
aI00
aI00
aI00
aI00
aI00
aa(lp3142
I112331
aF57.7
aF689.292
aVp2
p3143
aS'dejavusans'
p3144
aS'#000000'
p3145
aF11.0
aI0
aI00
aI00
aI00
aI00
aI00
aI00
aI00
aI00
aa(lp3146
I234378
aF120.543
aF689.292
aVp2
p3147
aS'dejavusans'
p3148
aS'#000000'
p3149
aF11.0
aI0
aI00
aI00
aI00
aI00
aI00
aI00
aI00
aI00
aa(lp3150
I89480
aF191.867
aF689.292
aVp2
p3151
aS'dejavusans'
p3152
aS'#000000'
p3153
aF11.0
aI0
aI00
aI00
aI00
aI00
aI00
aI00
aI00
aI00
aa(lp3154
I63031
aF206.442
aF689.292
aVp2
p3155
aS'dejavusans'
p3156
aS'#000000'
p3157
aF11.0
aI0
aI00
aI00
aI00
aI00
aI00
aI00
aI00
aI00
aa(lp3158
I166245
aF254.666
aF689.292
aVp2
p3159
aS'dejavusans'
p3160
aS'#000000'
p3161
aF11.0
aI0
aI00
aI00
aI00
aI00
aI00
aI00
aI00
aI00
aa(lp3162
I132957
aF305.992
aF689.292
aVp2
p3163
aS'dejavusans'
p3164
aS'#000000'
p3165
aF11.0
aI0
aI00
aI00
aI00
aI00
aI00
aI00
aI00
aI00
aa(lp3166
I89480
aF334.251
aF689.292
aVp2
p3167
aS'dejavusans'
p3168
aS'#000000'
p3169
aF11.0
aI0
aI00
aI00
aI00
aI00
aI00
aI00
aI00
aI00
aa(lp3170
I192638
aF348.826
aF689.292
aVp2
p3171
aS'dejavusans'
p3172
aS'#000000'
p3173
aF11.0
aI0
aI00
aI00
aI00
aI00
aI00
aI00
aI00
aI00
aa(lp3174
I234378
aF365.997
aF689.292
aVp2
p3175
aS'dejavusans'
p3176
aS'#000000'
p3177
aF11.0
aI0
aI00
aI00
aI00
aI00
aI00
aI00
aI00
aI00
aa(lp3178
I199810
aF418.841
aF689.292
aVp2
p3179
aS'dejavusans'
p3180
aS'#000000'
p3181
aF11.0
aI0
aI00
aI00
aI00
aI00
aI00
aI00
aI00
aI00
aa(lp3182
I135639
aF448.398
aF689.292
aVp2
p3183
aS'dejavusans'
p3184
aS'#000000'
p3185
aF11.0
aI0
aI00
aI00
aI00
aI00
aI00
aI00
aI00
aI00
aa(lp3186
I234378
aF461.961
aF689.292
aVp2
p3187
aS'dejavusans'
p3188
aS'#000000'
p3189
aF11.0
aI0
aI01
aI01
aI00
aI00
aI00
aI00
aI00
aI00
aa(lp3190
I234378
aF498.261
aF689.292
ag3187
aS'dejavusans'
p3191
aS'#000000'
p3192
aF11.0
aI0
aI00
aI00
aI00
aI00
aI00
aI00
aI00
aI00
aa(lp3193
I234378
aF57.7
aF702.092
aVp2
p3194
aS'dejavusans'
p3195
aS'#000000'
p3196
aF11.0
aI0
aI01
aI00
aI00
aI00
aI00
aI00
aI00
aI00
aa(lp3197
I114954
aF137.692
aF702.092
aVp2
p3198
aS'dejavusans'
p3199
aS'#000000'
p3200
aF11.0
aI0
aI00
aI00
aI00
aI00
aI00
aI00
aI00
aI00
aa(lp3201
I70210
aF186.037
aF702.092
aVp2
p3202
aS'dejavusans'
p3203
aS'#000000'
p3204
aF11.0
aI0
aI00
aI00
aI00
aI00
aI00
aI00
aI00
aI00
aa(lp3205
I144489
aF215.682
aF702.092
aVp2
p3206
aS'dejavusans'
p3207
aS'#000000'
p3208
aF11.0
aI0
aI00
aI00
aI00
aI00
aI00
aI00
aI00
aI00
aa(lp3209
I37508
aF229.762
aF702.092
aVp2
p3210
aS'dejavusans'
p3211
aS'#000000'
p3212
aF11.0
aI0
aI00
aI00
aI00
aI00
aI00
aI00
aI00
aI00
aa(lp3213
I31142
aF250.5917
aF702.092
ag3210
aS'dejavusans'
p3214
aS'#000000'
p3215
aF11.0
aI0
aI00
aI00
aI00
aI00
aI00
aI00
aI00
aI00
aa(lp3216
I234378
aF299.37
aF702.092
aVp2
p3217
aS'dejavusans'
p3218
aS'#000000'
p3219
aF11.0
aI0
aI00
aI00
aI00
aI00
aI00
aI00
aI00
aI00
aa(lp3220
I89480
aF361.696
aF702.092
aVp2
p3221
aS'dejavusans'
p3222
aS'#000000'
p3223
aF11.0
aI0
aI00
aI00
aI00
aI00
aI00
aI00
aI00
aI00
aa(lp3224
I186069
aF376.183
aF702.092
aVp2
p3225
aS'dejavusans'
p3226
aS'#000000'
p3227
aF11.0
aI0
aI00
aI00
aI00
aI00
aI00
aI00
aI00
aI00
aa(lp3228
I166593
aF416.344
aF702.092
aVp2
p3229
aS'dejavusans'
p3230
aS'#000000'
p3231
aF11.0
aI0
aI00
aI00
aI00
aI00
aI00
aI00
aI00
aI00
aa(lp3232
I196158
aF426.618
aF702.092
aVp2
p3233
aS'dejavusans'
p3234
aS'#000000'
p3235
aF11.0
aI0
aI00
aI00
aI00
aI00
aI00
aI00
aI00
aI00
aa(lp3236
I132957
aF463.358
aF702.092
aVp2
p3237
aS'dejavusans'
p3238
aS'#000000'
p3239
aF11.0
aI0
aI00
aI00
aI00
aI00
aI00
aI00
aI00
aI00
aa(lp3240
I131049
aF491.617
aF702.092
aVp2
p3241
aS'dejavusans'
p3242
aS'#000000'
p3243
aF11.0
aI0
aI00
aI00
aI00
aI00
aI00
aI00
aI00
aI00
aa(lp3244
I166593
aF520.69
aF702.092
aVp2
p3245
aS'dejavusans'
p3246
aS'#000000'
p3247
aF11.0
aI0
aI00
aI00
aI00
aI00
aI00
aI00
aI00
aI00
aa(lp3248
I55039
aF530.964
aF702.092
aVp2
p3249
aS'dejavusans'
p3250
aS'#000000'
p3251
aF11.0
aI0
aI00
aI00
aI00
aI00
aI00
aI00
aI00
aI00
aa(lp3252
I176802
aF554.636
aF702.092
aVp2
p3253
aS'dejavusans'
p3254
aS'#000000'
p3255
aF11.0
aI0
aI00
aI00
aI00
aI00
aI00
aI00
aI00
aI00
aa(lp3256
I234378
aF572.6044999999999
aF702.092
ag3253
aS'dejavusans'
p3257
aS'#000000'
p3258
aF11.0
aI0
aI00
aI00
aI00
aI00
aI00
aI00
aI00
aI00
aa(lp3259
I184171
aF57.7
aF715.692
aVp2
p3260
aS'dejavusans'
p3261
aS'#000000'
p3262
aF11.0
aI0
aI01
aI00
aI00
aI00
aI00
aI00
aI00
aI00
aa(lp3263
I184331
aF130.839
aF715.692
aVp2
p3264
aS'dejavusans'
p3265
aS'#000000'
p3266
aF11.0
aI0
aI00
aI00
aI00
aI00
aI00
aI00
aI00
aI00
aa(lp3267
I190806
aF169.57
aF715.692
aVp2
p3268
aS'dejavusans'
p3269
aS'#000000'
p3270
aF11.0
aI0
aI00
aI00
aI00
aI00
aI00
aI00
aI00
aI00
aa(lp3271
I37508
aF188.237
aF715.692
aVp2
p3272
aS'dejavusans'
p3273
aS'#000000'
p3274
aF11.0
aI0
aI00
aI00
aI00
aI00
aI00
aI00
aI00
aI00
aa(lp3275
I31142
aF209.0667
aF715.692
ag3272
aS'dejavusans'
p3276
aS'#000000'
p3277
aF11.0
aI0
aI00
aI00
aI00
aI00
aI00
aI00
aI00
aI00
aa(lp3278
I234378
aF257.845
aF715.692
aVp2
p3279
aS'dejavusans'
p3280
aS'#000000'
p3281
aF11.0
aI0
aI00
aI00
aI00
aI00
aI00
aI00
aI00
aI00
aa(lp3282
I234378
aF322.20007692307695
aF715.692
ag3279
aS'dejavusans'
p3283
aS'#000000'
p3284
aF11.0
aI0
aI00
aI00
aI00
aI00
aI00
aI00
aI00
aI00
aa(lp3285
I234378
aF196.6
aF35.992
aVp3
p3286
aS'dejavusans'
p3287
aS'#000000'
p3288
aF11.0
aI1
aI01
aI00
aI00
aI00
aI00
aI00
aI00
aI00
aa(lp3289
I234378
aF255.285
aF35.992
aVp3
p3290
aS'dejavusans'
p3291
aS'#000000'
p3292
aF11.0
aI1
aI00
aI00
aI01
aI01
aI00
aI00
aI00
aI00
aa(lp3293
I234378
aF261.764
aF35.992
ag3290
aS'dejavusans'
p3294
aS'#000000'
p3295
aF11.0
aI1
aI00
aI00
aI00
aI00
aI00
aI00
aI00
aI00
aa(lp3296
I234378
aF268.243
aF35.992
ag3290
aS'dejavusans'
p3297
aS'#000000'
p3298
aF11.0
aI1
aI00
aI00
aI01
aI01
aI00
aI00
aI00
aI00
aa(lp3299
I87604
aF287.955
aF35.992
aVp3
p3300
aS'dejavusans'
p3301
aS'#000000'
p3302
aF11.0
aI1
aI01
aI00
aI00
aI00
aI00
aI00
aI00
aI00
aa(lp3303
I132957
aF330.888
aF35.992
aVp3
p3304
aS'dejavusans'
p3305
aS'#000000'
p3306
aF11.0
aI1
aI01
aI00
aI00
aI00
aI00
aI00
aI00
aI00
aa(lp3307
I166558
aF363.877
aF35.992
aVp3
p3308
aS'dejavusans'
p3309
aS'#000000'
p3310
aF11.0
aI1
aI01
aI00
aI00
aI00
aI00
aI00
aI00
aI00
aa(lp3311
I229426
aF21.7
aF61.592
aVp3
p3312
aS'dejavusans'
p3313
aS'#000000'
p3314
aF11.0
aI1
aI01
aI00
aI00
aI00
aI00
aI00
aI00
aI00
aa(lp3315
I234378
aF98.86553846153846
aF61.592
ag3312
aS'dejavusans'
p3316
aS'#000000'
p3317
aF11.0
aI1
aI00
aI00
aI00
aI00
aI00
aI00
aI00
aI00
aa(lp3318
I234378
aF165.7
aF61.592
aVp3
p3319
aS'dejavusans'
p3320
aS'#000000'
p3321
aF11.0
aI0
aI01
aI00
aI00
aI00
aI00
aI00
aI00
aI00
aa(lp3322
I223466
aF224.649
aF61.592
aVp3
p3323
aS'dejavusans'
p3324
aS'#000000'
p3325
aF11.0
aI0
aI01
aI00
aI00
aI00
aI00
aI00
aI00
aI00
aa(lp3326
I207716
aF273.995
aF61.592
aVp3
p3327
aS'dejavusans'
p3328
aS'#000000'
p3329
aF11.0
aI0
aI01
aI00
aI00
aI00
aI00
aI00
aI00
aI00
aa(lp3330
I234378
aF21.7
aF74.392
aVp3
p3331
aS'dejavusans'
p3332
aS'#000000'
p3333
aF11.0
aI1
aI01
aI00
aI00
aI00
aI00
aI00
aI00
aI00
aa(lp3334
I234378
aF99.14246153846155
aF74.392
ag3331
aS'dejavusans'
p3335
aS'#000000'
p3336
aF11.0
aI1
aI00
aI00
aI00
aI00
aI00
aI00
aI00
aI00
aa(lp3337
I77592
aF165.7
aF74.392
aVp3
p3338
aS'dejavusans'
p3339
aS'#000000'
p3340
aF11.0
aI0
aI01
aI00
aI00
aI00
aI00
aI00
aI00
aI00
aa(lp3341
I94617
aF210.239
aF74.392
aVp3
p3342
aS'dejavusans'
p3343
aS'#000000'
p3344
aF11.0
aI0
aI01
aI00
aI00
aI00
aI00
aI00
aI00
aI00
aa(lp3345
I234378
aF225.1385
aF74.392
ag3342
aS'dejavusans'
p3346
aS'#000000'
p3347
aF11.0
aI0
aI00
aI00
aI00
aI00
aI00
aI00
aI00
aI00
aa(lp3348
I234378
aF233.592
aF74.392
aVp3
p3349
aS'dejavusans'
p3350
aS'#000000'
p3351
aF11.0
aI0
aI01
aI00
aI00
aI00
aI00
aI00
aI00
aI00
aa(lp3352
I234378
aF265.12533333333334
aF74.392
ag3349
aS'dejavusans'
p3353
aS'#000000'
p3354
aF11.0
aI0
aI00
aI00
aI00
aI00
aI00
aI00
aI00
aI00
aa(lp3355
I222873
aF274.919
aF74.392
aVp3
p3356
aS'dejavusans'
p3357
aS'#000000'
p3358
aF11.0
aI0
aI01
aI00
aI00
aI00
aI00
aI00
aI00
aI00
aa(lp3359
I234378
aF310.5401428571428
aF74.392
ag3356
aS'dejavusans'
p3360
aS'#000000'
p3361
aF11.0
aI0
aI00
aI00
aI00
aI00
aI00
aI00
aI00
aI00
aa(lp3362
I45445
aF320.063
aF74.392
aVp3
p3363
aS'dejavusans'
p3364
aS'#000000'
p3365
aF11.0
aI0
aI01
aI00
aI00
aI00
aI00
aI00
aI00
aI00
aa(lp3366
I234378
aF353.6287142857143
aF74.392
ag3363
aS'dejavusans'
p3367
aS'#000000'
p3368
aF11.0
aI0
aI00
aI00
aI00
aI00
aI00
aI00
aI00
aI00
aa(lp3369
I234378
aF362.809
aF74.392
aVp3
p3370
aS'dejavusans'
p3371
aS'#000000'
p3372
aF11.0
aI0
aI01
aI00
aI00
aI00
aI00
aI00
aI00
aI00
aa(lp3373
I234378
aF394.86483333333337
aF74.392
ag3370
aS'dejavusans'
p3374
aS'#000000'
p3375
aF11.0
aI0
aI00
aI00
aI00
aI00
aI00
aI00
aI00
aI00
aa(lp3376
I184937
aF404.763
aF74.392
aVp3
p3377
aS'dejavusans'
p3378
aS'#000000'
p3379
aF11.0
aI0
aI01
aI00
aI00
aI00
aI00
aI00
aI00
aI00
aa(lp3380
I234378
aF427.2118
aF74.392
ag3377
aS'dejavusans'
p3381
aS'#000000'
p3382
aF11.0
aI0
aI00
aI00
aI00
aI00
aI00
aI00
aI00
aI00
aa(lp3383
I120031
aF21.7
aF87.192
aVp3
p3384
aS'dejavusans'
p3385
aS'#000000'
p3386
aF11.0
aI1
aI01
aI00
aI00
aI00
aI00
aI00
aI00
aI00
aa(lp3387
I234378
aF73.252
aF87.192
ag3384
aS'dejavusans'
p3388
aS'#000000'
p3389
aF11.0
aI1
aI00
aI00
aI00
aI00
aI00
aI00
aI00
aI00
aa(lp3390
I234378
aF129.7
aF87.192
aVp3
p3391
aS'dejavusans'
p3392
aS'#000000'
p3393
aF11.0
aI0
aI01
aI00
aI00
aI00
aI00
aI00
aI00
aI01
aa(lp3394
I234378
aF152.261
aF87.192
aVp3
p3395
aS'dejavusans'
p3396
aS'#000000'
p3397
aF11.0
aI0
aI00
aI00
aI01
aI01
aI01
aI00
aI00
aI00
aa(lp3398
I234378
aF182.214
aF87.192
aVp3
p3399
aS'dejavusans'
p3400
aS'#000000'
p3401
aF11.0
aI0
aI01
aI00
aI00
aI00
aI00
aI00
aI00
aI01
aa(lp3402
I234378
aF204.687
aF87.192
aVp3
p3403
aS'dejavusans'
p3404
aS'#000000'
p3405
aF11.0
aI0
aI00
aI00
aI01
aI01
aI01
aI00
aI00
aI00
aa(lp3406
I66756
aF21.7
aF99.992
aVp3
p3407
aS'dejavusans'
p3408
aS'#000000'
p3409
aF11.0
aI1
aI01
aI00
aI00
aI00
aI00
aI00
aI00
aI00
aa(lp3410
I234378
aF90.35466666666667
aF99.992
ag3407
aS'dejavusans'
p3411
aS'#000000'
p3412
aF11.0
aI1
aI00
aI00
aI00
aI00
aI00
aI00
aI00
aI00
aa(lp3413
I194354
aF129.7
aF99.992
aVp3
p3414
aS'dejavusans'
p3415
aS'#000000'
p3416
aF11.0
aI0
aI01
aI00
aI00
aI00
aI00
aI00
aI00
aI00
aa(lp3417
I150723
aF157.365
aF99.992
aVp3
p3418
aS'dejavusans'
p3419
aS'#000000'
p3420
aF11.0
aI0
aI00
aI00
aI00
aI00
aI00
aI00
aI00
aI00
aa(lp3421
I144489
aF185.129
aF99.992
aVp3
p3422
aS'dejavusans'
p3423
aS'#000000'
p3424
aF11.0
aI0
aI00
aI00
aI00
aI00
aI00
aI00
aI00
aI00
aa(lp3425
I46544
aF203.004
aF99.992
aVp3
p3426
aS'dejavusans'
p3427
aS'#000000'
p3428
aF11.0
aI0
aI00
aI00
aI00
aI00
aI00
aI00
aI00
aI00
aa(lp3429
I234378
aF230.273
aF99.992
aVp3
p3430
aS'dejavusans'
p3431
aS'#000000'
p3432
aF11.0
aI0
aI00
aI00
aI00
aI00
aI00
aI00
aI00
aI00
aa(lp3433
I22474
aF281.412
aF99.992
aVp3
p3434
aS'dejavusans'
p3435
aS'#000000'
p3436
aF11.0
aI0
aI00
aI00
aI00
aI00
aI00
aI00
aI00
aI00
aa(lp3437
I89480
aF297.384
aF99.992
aVp3
p3438
aS'dejavusans'
p3439
aS'#000000'
p3440
aF11.0
aI0
aI00
aI00
aI00
aI00
aI00
aI00
aI00
aI00
aa(lp3441
I124634
aF315.666
aF99.992
aVp3
p3442
aS'dejavusans'
p3443
aS'#000000'
p3444
aF11.0
aI0
aI00
aI00
aI00
aI00
aI00
aI00
aI00
aI00
aa(lp3445
I17470
aF385.868
aF99.992
aVp3
p3446
aS'dejavusans'
p3447
aS'#000000'
p3448
aF11.0
aI0
aI00
aI00
aI00
aI00
aI00
aI00
aI00
aI00
aa(lp3449
I73167
aF447.193
aF99.992
aVp3
p3450
aS'dejavusans'
p3451
aS'#000000'
p3452
aF11.0
aI0
aI00
aI00
aI00
aI00
aI00
aI00
aI00
aI00
aa(lp3453
I194354
aF482.272
aF99.992
aVp3
p3454
aS'dejavusans'
p3455
aS'#000000'
p3456
aF11.0
aI0
aI00
aI00
aI00
aI00
aI00
aI00
aI00
aI00
aa(lp3457
I87604
aF507.539
aF99.992
aVp3
p3458
aS'dejavusans'
p3459
aS'#000000'
p3460
aF11.0
aI0
aI01
aI00
aI00
aI00
aI00
aI00
aI00
aI00
aa(lp3461
I43275
aF548.481
aF99.992
aVp3
p3462
aS'dejavusans'
p3463
aS'#000000'
p3464
aF11.0
aI0
aI00
aI00
aI00
aI00
aI00
aI00
aI00
aI00
aa(lp3465
I234378
aF129.7
aF112.792
aVp3
p3466
aS'dejavusans'
p3467
aS'#000000'
p3468
aF11.0
aI0
aI00
aI00
aI00
aI00
aI00
aI00
aI00
aI00
aa(lp3469
I132957
aF196.91
aF112.792
aVp3
p3470
aS'dejavusans'
p3471
aS'#000000'
p3472
aF11.0
aI0
aI00
aI00
aI00
aI00
aI00
aI00
aI00
aI00
aa(lp3473
I190806
aF225.169
aF112.792
aVp3
p3474
aS'dejavusans'
p3475
aS'#000000'
p3476
aF11.0
aI0
aI00
aI00
aI00
aI00
aI00
aI00
aI00
aI00
aa(lp3477
I50998
aF243.836
aF112.792
aVp3
p3478
aS'dejavusans'
p3479
aS'#000000'
p3480
aF11.0
aI0
aI00
aI00
aI00
aI00
aI00
aI00
aI00
aI00
aa(lp3481
I234378
aF278.288
aF112.792
aVp3
p3482
aS'dejavusans'
p3483
aS'#000000'
p3484
aF11.0
aI0
aI00
aI00
aI00
aI00
aI00
aI00
aI00
aI00
aa(lp3485
I218914
aF340.988
aF112.792
aVp3
p3486
aS'dejavusans'
p3487
aS'#000000'
p3488
aF11.0
aI0
aI00
aI00
aI00
aI00
aI00
aI00
aI00
aI00
aa(lp3489
I179418
aF376.518
aF112.792
aVp3
p3490
aS'dejavusans'
p3491
aS'#000000'
p3492
aF11.0
aI0
aI00
aI00
aI00
aI00
aI00
aI00
aI00
aI00
aa(lp3493
I110092
aF421.255
aF112.792
aVp3
p3494
aS'dejavusans'
p3495
aS'#000000'
p3496
aF11.0
aI0
aI00
aI00
aI00
aI00
aI00
aI00
aI00
aI00
aa(lp3497
I234378
aF458.402
aF112.792
aVp3
p3498
aS'dejavusans'
p3499
aS'#000000'
p3500
aF11.0
aI0
aI00
aI00
aI00
aI00
aI00
aI00
aI00
aI00
aa(lp3501
I135639
aF519.419
aF112.792
aVp3
p3502
aS'dejavusans'
p3503
aS'#000000'
p3504
aF11.0
aI0
aI00
aI00
aI00
aI00
aI00
aI00
aI00
aI00
aa(lp3505
I37764
aF532.982
aF112.792
aVp3
p3506
aS'dejavusans'
p3507
aS'#000000'
p3508
aF11.0
aI0
aI00
aI00
aI00
aI00
aI00
aI00
aI00
aI00
aa(lp3509
I85218
aF569.029
aF112.792
aVp3
p3510
aS'dejavusans'
p3511
aS'#000000'
p3512
aF11.0
aI0
aI00
aI00
aI00
aI00
aI00
aI00
aI00
aI00
aa(lp3513
I87604
aF129.7
aF125.592
aVp3
p3514
aS'dejavusans'
p3515
aS'#000000'
p3516
aF11.0
aI0
aI00
aI00
aI00
aI00
aI00
aI00
aI00
aI00
aa(lp3517
I14859
aF175.735
aF125.592
aVp3
p3518
aS'dejavusans'
p3519
aS'#000000'
p3520
aF11.0
aI0
aI01
aI00
aI00
aI00
aI00
aI00
aI00
aI00
aa(lp3521
I190806
aF233.265
aF125.592
aVp3
p3522
aS'dejavusans'
p3523
aS'#000000'
p3524
aF11.0
aI0
aI00
aI00
aI00
aI00
aI00
aI00
aI00
aI00
aa(lp3525
I234378
aF261.227
aF125.592
aVp3
p3526
aS'dejavusans'
p3527
aS'#000000'
p3528
aF11.0
aI0
aI01
aI00
aI00
aI00
aI00
aI00
aI00
aI00
aa(lp3529
I234378
aF318.955
aF125.592
aVp3
p3530
aS'dejavusans'
p3531
aS'#000000'
p3532
aF11.0
aI0
aI01
aI00
aI00
aI00
aI00
aI00
aI00
aI00
aa(lp3533
I192651
aF386.704
aF125.592
aVp3
p3534
aS'dejavusans'
p3535
aS'#000000'
p3536
aF11.0
aI0
aI00
aI00
aI00
aI00
aI00
aI00
aI00
aI00
aa(lp3537
I234378
aF413.06
aF125.592
aVp3
p3538
aS'dejavusans'
p3539
aS'#000000'
p3540
aF11.0
aI0
aI00
aI00
aI00
aI00
aI00
aI00
aI00
aI00
aa(lp3541
I131630
aF492.557
aF125.592
aVp3
p3542
aS'dejavusans'
p3543
aS'#000000'
p3544
aF11.0
aI0
aI00
aI00
aI00
aI00
aI00
aI00
aI00
aI00
aa(lp3545
I132957
aF538.592
aF125.592
aVp3
p3546
aS'dejavusans'
p3547
aS'#000000'
p3548
aF11.0
aI0
aI00
aI00
aI00
aI00
aI00
aI00
aI00
aI00
aa(lp3549
I144483
aF576.146
aF125.592
aVp3
p3550
aS'dejavusans'
p3551
aS'#000000'
p3552
aF11.0
aI0
aI00
aI00
aI00
aI00
aI00
aI00
aI00
aI00
aa(lp3553
I106649
aF129.7
aF138.392
aVp3
p3554
aS'dejavusans'
p3555
aS'#000000'
p3556
aF11.0
aI0
aI00
aI00
aI00
aI00
aI00
aI00
aI00
aI00
aa(lp3557
I97333
aF214.279
aF138.392
aVp3
p3558
aS'dejavusans'
p3559
aS'#000000'
p3560
aF11.0
aI0
aI00
aI00
aI00
aI00
aI00
aI00
aI00
aI00
aa(lp3561
I234378
aF277.386
aF138.392
aVp3
p3562
aS'dejavusans'
p3563
aS'#000000'
p3564
aF11.0
aI0
aI00
aI00
aI00
aI00
aI00
aI00
aI00
aI00
aa(lp3565
I234378
aF324.85650000000004
aF138.392
ag3562
aS'dejavusans'
p3566
aS'#000000'
p3567
aF11.0
aI0
aI00
aI00
aI00
aI00
aI00
aI00
aI00
aI00
aa(lp3568
I231013
aF21.7
aF151.192
aVp3
p3569
aS'dejavusans'
p3570
aS'#000000'
p3571
aF11.0
aI1
aI01
aI00
aI00
aI00
aI00
aI00
aI00
aI00
aa(lp3572
I234378
aF48.485
aF151.192
aVp3
p3573
aS'dejavusans'
p3574
aS'#000000'
p3575
aF11.0
aI1
aI01
aI00
aI00
aI00
aI00
aI00
aI00
aI00
aa(lp3576
I234378
aF123.73515384615385
aF151.192
ag3573
aS'dejavusans'
p3577
aS'#000000'
p3578
aF11.0
aI1
aI00
aI00
aI00
aI00
aI00
aI00
aI00
aI00
aa(lp3579
I234378
aF57.7
aF163.992
aVp3
p3580
aS'dejavusans'
p3581
aS'#000000'
p3582
aF11.0
aI0
aI01
aI00
aI00
aI00
aI00
aI00
aI00
aI00
aa(lp3583
I203832
aF113.921
aF163.992
aVp3
p3584
aS'dejavusans'
p3585
aS'#000000'
p3586
aF11.0
aI0
aI01
aI00
aI00
aI00
aI00
aI00
aI00
aI00
aa(lp3587
I234378
aF137.879
aF163.992
aVp3
p3588
aS'dejavusans'
p3589
aS'#000000'
p3590
aF11.0
aI0
aI00
aI00
aI00
aI00
aI00
aI00
aI00
aI00
aa(lp3591
I114954
aF184.42
aF163.992
aVp3
p3592
aS'dejavusans'
p3593
aS'#000000'
p3594
aF11.0
aI0
aI00
aI00
aI00
aI00
aI00
aI00
aI00
aI00
aa(lp3595
I234378
aF232.853
aF163.992
aVp3
p3596
aS'dejavusans'
p3597
aS'#000000'
p3598
aF11.0
aI0
aI01
aI00
aI00
aI00
aI00
aI00
aI00
aI00
aa(lp3599
I89480
aF265.017
aF163.992
aVp3
p3600
aS'dejavusans'
p3601
aS'#000000'
p3602
aF11.0
aI0
aI00
aI00
aI00
aI00
aI00
aI00
aI00
aI00
aa(lp3603
I123861
aF279.504
aF163.992
aVp3
p3604
aS'dejavusans'
p3605
aS'#000000'
p3606
aF11.0
aI0
aI00
aI00
aI00
aI00
aI00
aI00
aI00
aI00
aa(lp3607
I120218
aF311.569
aF163.992
aVp3
p3608
aS'dejavusans'
p3609
aS'#000000'
p3610
aF11.0
aI0
aI00
aI00
aI00
aI00
aI00
aI00
aI00
aI00
aa(lp3611
I234378
aF366.811
aF163.992
aVp3
p3612
aS'dejavusans'
p3613
aS'#000000'
p3614
aF11.0
aI0
aI00
aI00
aI00
aI00
aI00
aI00
aI00
aI00
aa(lp3615
I234378
aF435.15653846153845
aF163.992
ag3612
aS'dejavusans'
p3616
aS'#000000'
p3617
aF11.0
aI0
aI00
aI00
aI00
aI00
aI00
aI00
aI00
aI00
aa(lp3618
I132957
aF57.7
aF177.692
aVp3
p3619
aS'dejavusans'
p3620
aS'#000000'
p3621
aF11.0
aI0
aI01
aI00
aI00
aI00
aI00
aI00
aI00
aI00
aa(lp3622
I111726
aF87.466
aF177.692
aVp3
p3623
aS'dejavusans'
p3624
aS'#000000'
p3625
aF11.0
aI0
aI00
aI00
aI00
aI00
aI00
aI00
aI00
aI00
aa(lp3626
I135639
aF141.487
aF177.692
aVp3
p3627
aS'dejavusans'
p3628
aS'#000000'
p3629
aF11.0
aI0
aI00
aI00
aI00
aI00
aI00
aI00
aI00
aI00
aa(lp3630
I234378
aF154.962
aF177.692
aVp3
p3631
aS'dejavusans'
p3632
aS'#000000'
p3633
aF11.0
aI0
aI01
aI01
aI00
aI00
aI00
aI00
aI00
aI00
aa(lp3634
I225743
aF200.403
aF177.692
aVp3
p3635
aS'dejavusans'
p3636
aS'#000000'
p3637
aF11.0
aI0
aI00
aI00
aI00
aI00
aI00
aI00
aI00
aI00
aa(lp3638
I22476
aF250.42
aF177.692
aVp3
p3639
aS'dejavusans'
p3640
aS'#000000'
p3641
aF11.0
aI0
aI00
aI00
aI00
aI00
aI00
aI00
aI00
aI00
aa(lp3642
I234378
aF261.211
aF177.692
aVp3
p3643
aS'dejavusans'
p3644
aS'#000000'
p3645
aF11.0
aI0
aI00
aI00
aI00
aI00
aI00
aI00
aI00
aI00
aa(lp3646
I222873
aF294.442
aF177.692
aVp3
p3647
aS'dejavusans'
p3648
aS'#000000'
p3649
aF11.0
aI0
aI01
aI00
aI00
aI00
aI00
aI00
aI00
aI00
aa(lp3650
I37508
aF348.078
aF177.692
aVp3
p3651
aS'dejavusans'
p3652
aS'#000000'
p3653
aF11.0
aI0
aI00
aI00
aI00
aI00
aI00
aI00
aI00
aI00
aa(lp3654
I31142
aF368.06199999999995
aF177.692
ag3651
aS'dejavusans'
p3655
aS'#000000'
p3656
aF11.0
aI0
aI00
aI00
aI00
aI00
aI00
aI00
aI00
aI00
aa(lp3657
I234378
aF406.03
aF177.692
ag3651
aS'dejavusans'
p3658
aS'#000000'
p3659
aF11.0
aI0
aI00
aI00
aI00
aI00
aI00
aI00
aI00
aI00
aa(lp3660
I234378
aF57.7
aF191.292
aVp3
p3661
aS'dejavusans'
p3662
aS'#000000'
p3663
aF11.0
aI0
aI01
aI00
aI00
aI00
aI00
aI00
aI00
aI00
aa(lp3664
I194354
aF116.627
aF191.292
aVp3
p3665
aS'dejavusans'
p3666
aS'#000000'
p3667
aF11.0
aI0
aI00
aI00
aI00
aI00
aI00
aI00
aI00
aI00
aa(lp3668
I91186
aF140.09
aF191.292
aVp3
p3669
aS'dejavusans'
p3670
aS'#000000'
p3671
aF11.0
aI0
aI00
aI00
aI00
aI00
aI00
aI00
aI00
aI00
aa(lp3672
I144489
aF208.103
aF191.292
aVp3
p3673
aS'dejavusans'
p3674
aS'#000000'
p3675
aF11.0
aI0
aI00
aI00
aI00
aI00
aI00
aI00
aI00
aI00
aa(lp3676
I131630
aF224.075
aF191.292
aVp3
p3677
aS'dejavusans'
p3678
aS'#000000'
p3679
aF11.0
aI0
aI00
aI00
aI00
aI00
aI00
aI00
aI00
aI00
aa(lp3680
I132957
aF262.619
aF191.292
aVp3
p3681
aS'dejavusans'
p3682
aS'#000000'
p3683
aF11.0
aI0
aI00
aI00
aI00
aI00
aI00
aI00
aI00
aI00
aa(lp3684
I131049
aF292.781
aF191.292
aVp3
p3685
aS'dejavusans'
p3686
aS'#000000'
p3687
aF11.0
aI0
aI00
aI00
aI00
aI00
aI00
aI00
aI00
aI00
aa(lp3688
I194354
aF323.757
aF191.292
aVp3
p3689
aS'dejavusans'
p3690
aS'#000000'
p3691
aF11.0
aI0
aI00
aI00
aI00
aI00
aI00
aI00
aI00
aI00
aa(lp3692
I201361
aF347.22
aF191.292
aVp3
p3693
aS'dejavusans'
p3694
aS'#000000'
p3695
aF11.0
aI0
aI00
aI00
aI00
aI00
aI00
aI00
aI00
aI00
aa(lp3696
I234378
aF395.169
aF191.292
aVp3
p3697
aS'dejavusans'
p3698
aS'#000000'
p3699
aF11.0
aI0
aI00
aI00
aI00
aI00
aI00
aI00
aI00
aI00
aa(lp3700
I192651
aF423.021
aF191.292
aVp3
p3701
aS'dejavusans'
p3702
aS'#000000'
p3703
aF11.0
aI0
aI00
aI00
aI00
aI00
aI00
aI00
aI00
aI00
aa(lp3704
I234378
aF441.886
aF191.292
aVp3
p3705
aS'dejavusans'
p3706
aS'#000000'
p3707
aF11.0
aI0
aI00
aI00
aI00
aI00
aI00
aI00
aI00
aI00
aa(lp3708
I37508
aF523.594
aF191.292
aVp3
p3709
aS'dejavusans'
p3710
aS'#000000'
p3711
aF11.0
aI0
aI00
aI00
aI00
aI00
aI00
aI00
aI00
aI00
aa(lp3712
I31142
aF544.4237
aF191.292
ag3709
aS'dejavusans'
p3713
aS'#000000'
p3714
aF11.0
aI0
aI00
aI00
aI00
aI00
aI00
aI00
aI00
aI00
aa(lp3715
I204810
aF57.7
aF204.992
aVp3
p3716
aS'dejavusans'
p3717
aS'#000000'
p3718
aF11.0
aI0
aI00
aI00
aI00
aI00
aI00
aI00
aI00
aI00
aa(lp3719
I234378
aF100.941
aF204.992
aVp3
p3720
aS'dejavusans'
p3721
aS'#000000'
p3722
aF11.0
aI0
aI00
aI00
aI00
aI00
aI00
aI00
aI00
aI00
aa(lp3723
I184937
aF137.56
aF204.992
aVp3
p3724
aS'dejavusans'
p3725
aS'#000000'
p3726
aF11.0
aI0
aI01
aI00
aI00
aI00
aI00
aI00
aI00
aI00
aa(lp3727
I234378
aF160.0088
aF204.992
ag3724
aS'dejavusans'
p3728
aS'#000000'
p3729
aF11.0
aI0
aI00
aI00
aI00
aI00
aI00
aI00
aI00
aI00
aa(lp3730
I234378
aF57.7
aF217.792
aVp3
p3731
aS'dejavusans'
p3732
aS'#000000'
p3733
aF11.0
aI0
aI01
aI00
aI00
aI00
aI00
aI00
aI00
aI00
aa(lp3734
I166867
aF112.81
aF217.792
aVp3
p3735
aS'dejavusans'
p3736
aS'#000000'
p3737
aF11.0
aI0
aI01
aI00
aI00
aI00
aI00
aI00
aI00
aI00
aa(lp3738
I194354
aF166.644
aF217.792
aVp3
p3739
aS'dejavusans'
p3740
aS'#000000'
p3741
aF11.0
aI0
aI00
aI00
aI00
aI00
aI00
aI00
aI00
aI00
aa(lp3742
I234378
aF188.204
aF217.792
aVp3
p3743
aS'dejavusans'
p3744
aS'#000000'
p3745
aF11.0
aI0
aI00
aI00
aI00
aI00
aI00
aI00
aI00
aI00
aa(lp3746
I132957
aF241.136
aF217.792
aVp3
p3747
aS'dejavusans'
p3748
aS'#000000'
p3749
aF11.0
aI0
aI00
aI00
aI00
aI00
aI00
aI00
aI00
aI00
aa(lp3750
I89480
aF269.395
aF217.792
aVp3
p3751
aS'dejavusans'
p3752
aS'#000000'
p3753
aF11.0
aI0
aI00
aI00
aI00
aI00
aI00
aI00
aI00
aI00
aa(lp3754
I234378
aF283.97
aF217.792
aVp3
p3755
aS'dejavusans'
p3756
aS'#000000'
p3757
aF11.0
aI0
aI01
aI00
aI00
aI00
aI00
aI00
aI00
aI00
aa(lp3758
I234378
aF324.131
aF217.792
aVp3
p3759
aS'dejavusans'
p3760
aS'#000000'
p3761
aF11.0
aI0
aI01
aI01
aI00
aI00
aI00
aI00
aI00
aI00
aa(lp3762
I184870
aF343.612
aF217.792
aVp3
p3763
aS'dejavusans'
p3764
aS'#000000'
p3765
aF11.0
aI0
aI00
aI00
aI00
aI00
aI00
aI00
aI00
aI00
aa(lp3766
I184937
aF390.34
aF217.792
aVp3
p3767
aS'dejavusans'
p3768
aS'#000000'
p3769
aF11.0
aI0
aI01
aI00
aI00
aI00
aI00
aI00
aI00
aI00
aa(lp3770
I234378
aF412.7888
aF217.792
ag3767
aS'dejavusans'
p3771
aS'#000000'
p3772
aF11.0
aI0
aI00
aI00
aI00
aI00
aI00
aI00
aI00
aI00
aa(lp3773
I234378
aF222.7
aF244.192
aVp3
p3774
aS'dejavusans'
p3775
aS'#000000'
p3776
aF11.0
aI1
aI01
aI00
aI00
aI00
aI00
aI00
aI00
aI00
aa(lp3777
I176802
aF287.655
aF244.192
aVp3
p3778
aS'dejavusans'
p3779
aS'#000000'
p3780
aF11.0
aI1
aI01
aI00
aI00
aI00
aI00
aI00
aI00
aI00
aa(lp3781
I177828
aF316.035
aF244.192
aVp3
p3782
aS'dejavusans'
p3783
aS'#000000'
p3784
aF11.0
aI1
aI01
aI00
aI00
aI00
aI00
aI00
aI00
aI00
aa(lp3785
I119502
aF343.788
aF244.192
aVp3
p3786
aS'dejavusans'
p3787
aS'#000000'
p3788
aF11.0
aI1
aI01
aI00
aI00
aI00
aI00
aI00
aI00
aI00
aa(lp3789
I229426
aF21.7
aF269.792
aVp3
p3790
aS'dejavusans'
p3791
aS'#000000'
p3792
aF11.0
aI1
aI01
aI00
aI00
aI00
aI00
aI00
aI00
aI00
aa(lp3793
I234378
aF98.86553846153846
aF269.792
ag3790
aS'dejavusans'
p3794
aS'#000000'
p3795
aF11.0
aI1
aI00
aI00
aI00
aI00
aI00
aI00
aI00
aI00
aa(lp3796
I234378
aF157.596
aF269.792
aVp3
p3797
aS'dejavusans'
p3798
aS'#000000'
p3799
aF11.0
aI0
aI01
aI00
aI00
aI00
aI00
aI00
aI00
aI00
aa(lp3800
I234378
aF21.7
aF282.592
aVp3
p3801
aS'dejavusans'
p3802
aS'#000000'
p3803
aF11.0
aI1
aI01
aI00
aI00
aI00
aI00
aI00
aI00
aI00
aa(lp3804
I234378
aF99.14246153846155
aF282.592
ag3801
aS'dejavusans'
p3805
aS'#000000'
p3806
aF11.0
aI1
aI00
aI00
aI00
aI00
aI00
aI00
aI00
aI00
aa(lp3807
I21716
aF157.596
aF282.592
aVp3
p3808
aS'dejavusans'
p3809
aS'#000000'
p3810
aF11.0
aI0
aI01
aI00
aI00
aI00
aI00
aI00
aI00
aI00
aa(lp3811
I234378
aF178.8656
aF282.592
ag3808
aS'dejavusans'
p3812
aS'#000000'
p3813
aF11.0
aI0
aI00
aI00
aI00
aI00
aI00
aI00
aI00
aI00
aa(lp3814
I210388
aF187.868
aF282.592
aVp3
p3815
aS'dejavusans'
p3816
aS'#000000'
p3817
aF11.0
aI0
aI01
aI00
aI00
aI00
aI00
aI00
aI00
aI00
aa(lp3818
I17350
aF242.593
aF282.592
aVp3
p3819
aS'dejavusans'
p3820
aS'#000000'
p3821
aF11.0
aI0
aI01
aI00
aI00
aI00
aI00
aI00
aI00
aI00
aa(lp3822
I173485
aF269.961
aF282.592
aVp3
p3823
aS'dejavusans'
p3824
aS'#000000'
p3825
aF11.0
aI0
aI01
aI00
aI00
aI00
aI00
aI00
aI00
aI00
aa(lp3826
I234378
aF301.9804285714286
aF282.592
ag3823
aS'dejavusans'
p3827
aS'#000000'
p3828
aF11.0
aI0
aI00
aI00
aI00
aI00
aI00
aI00
aI00
aI00
aa(lp3829
I234378
aF310.804
aF282.592
aVp3
p3830
aS'dejavusans'
p3831
aS'#000000'
p3832
aF11.0
aI0
aI01
aI00
aI00
aI00
aI00
aI00
aI00
aI00
aa(lp3833
I234378
aF335.02233333333334
aF282.592
ag3830
aS'dejavusans'
p3834
aS'#000000'
p3835
aF11.0
aI0
aI00
aI00
aI00
aI00
aI00
aI00
aI00
aI00
aa(lp3836
I234378
aF343.353
aF282.592
aVp3
p3837
aS'dejavusans'
p3838
aS'#000000'
p3839
aF11.0
aI0
aI01
aI00
aI00
aI00
aI00
aI00
aI00
aI00
aa(lp3840
I234378
aF377.73716666666667
aF282.592
ag3837
aS'dejavusans'
p3841
aS'#000000'
p3842
aF11.0
aI0
aI00
aI00
aI00
aI00
aI00
aI00
aI00
aI00
aa(lp3843
I45445
aF388.101
aF282.592
aVp3
p3844
aS'dejavusans'
p3845
aS'#000000'
p3846
aF11.0
aI0
aI01
aI00
aI00
aI00
aI00
aI00
aI00
aI00
aa(lp3847
I234378
aF421.7421428571429
aF282.592
ag3844
aS'dejavusans'
p3848
aS'#000000'
p3849
aF11.0
aI0
aI00
aI00
aI00
aI00
aI00
aI00
aI00
aI00
aa(lp3850
I89217
aF430.836
aF282.592
aVp3
p3851
aS'dejavusans'
p3852
aS'#000000'
p3853
aF11.0
aI0
aI01
aI01
aI00
aI00
aI00
aI00
aI00
aI00
aa(lp3854
I17350
aF462.593
aF282.592
aVp3
p3855
aS'dejavusans'
p3856
aS'#000000'
p3857
aF11.0
aI0
aI01
aI00
aI00
aI00
aI00
aI00
aI00
aI00
aa(lp3858
I234378
aF490.049
aF282.592
aVp3
p3859
aS'dejavusans'
p3860
aS'#000000'
p3861
aF11.0
aI0
aI01
aI00
aI00
aI00
aI00
aI00
aI00
aI00
aa(lp3862
I234378
aF534.2641111111111
aF282.592
ag3859
aS'dejavusans'
p3863
aS'#000000'
p3864
aF11.0
aI0
aI00
aI00
aI00
aI00
aI00
aI00
aI00
aI00
aa(lp3865
I120031
aF21.7
aF295.392
aVp3
p3866
aS'dejavusans'
p3867
aS'#000000'
p3868
aF11.0
aI1
aI01
aI00
aI00
aI00
aI00
aI00
aI00
aI00
aa(lp3869
I234378
aF73.252
aF295.392
ag3866
aS'dejavusans'
p3870
aS'#000000'
p3871
aF11.0
aI1
aI00
aI00
aI00
aI00
aI00
aI00
aI00
aI00
aa(lp3872
I234378
aF121.596
aF295.392
aVp3
p3873
aS'dejavusans'
p3874
aS'#000000'
p3875
aF11.0
aI0
aI01
aI00
aI00
aI00
aI00
aI00
aI00
aI01
aa(lp3876
I234378
aF140.82850000000002
aF295.392
ag3873
aS'dejavusans'
p3877
aS'#000000'
p3878
aF11.0
aI0
aI00
aI00
aI01
aI01
aI01
aI00
aI00
aI00
aa(lp3879
I234378
aF170.623
aF295.392
aVp3
p3880
aS'dejavusans'
p3881
aS'#000000'
p3882
aF11.0
aI0
aI01
aI00
aI00
aI00
aI00
aI00
aI00
aI01
aa(lp3883
I234378
aF193.481
aF295.392
aVp3
p3884
aS'dejavusans'
p3885
aS'#000000'
p3886
aF11.0
aI0
aI00
aI00
aI01
aI01
aI01
aI00
aI00
aI00
aa(lp3887
I66756
aF21.7
aF308.192
aVp3
p3888
aS'dejavusans'
p3889
aS'#000000'
p3890
aF11.0
aI1
aI01
aI00
aI00
aI00
aI00
aI00
aI00
aI00
aa(lp3891
I234378
aF90.35466666666667
aF308.192
ag3888
aS'dejavusans'
p3892
aS'#000000'
p3893
aF11.0
aI1
aI00
aI00
aI00
aI00
aI00
aI00
aI00
aI00
aa(lp3894
I234378
aF157.596
aF308.192
aVp3
p3895
aS'dejavusans'
p3896
aS'#000000'
p3897
aF11.0
aI0
aI01
aI01
aI00
aI00
aI00
aI00
aI00
aI00
aa(lp3898
I22474
aF182.742
aF308.192
aVp3
p3899
aS'dejavusans'
p3900
aS'#000000'
p3901
aF11.0
aI0
aI00
aI00
aI00
aI00
aI00
aI00
aI00
aI00
aa(lp3902
I194354
aF195.018
aF308.192
aVp3
p3903
aS'dejavusans'
p3904
aS'#000000'
p3905
aF11.0
aI0
aI00
aI00
aI00
aI00
aI00
aI00
aI00
aI00
aa(lp3906
I74616
aF216.49
aF308.192
aVp3
p3907
aS'dejavusans'
p3908
aS'#000000'
p3909
aF11.0
aI0
aI00
aI00
aI00
aI00
aI00
aI00
aI00
aI00
aa(lp3910
I85218
aF277.287
aF308.192
aVp3
p3911
aS'dejavusans'
p3912
aS'#000000'
p3913
aF11.0
aI0
aI00
aI00
aI00
aI00
aI00
aI00
aI00
aI00
aa(lp3914
I87604
aF301.443
aF308.192
aVp3
p3915
aS'dejavusans'
p3916
aS'#000000'
p3917
aF11.0
aI0
aI00
aI00
aI00
aI00
aI00
aI00
aI00
aI00
aa(lp3918
I153177
aF337.985
aF308.192
aVp3
p3919
aS'dejavusans'
p3920
aS'#000000'
p3921
aF11.0
aI0
aI00
aI00
aI00
aI00
aI00
aI00
aI00
aI00
aa(lp3922
I207716
aF415.106
aF308.192
aVp3
p3923
aS'dejavusans'
p3924
aS'#000000'
p3925
aF11.0
aI0
aI00
aI00
aI00
aI00
aI00
aI00
aI00
aI00
aa(lp3926
I234378
aF458.369
aF308.192
aVp3
p3927
aS'dejavusans'
p3928
aS'#000000'
p3929
aF11.0
aI0
aI00
aI00
aI00
aI00
aI00
aI00
aI00
aI00
aa(lp3930
I192651
aF520.871
aF308.192
aVp3
p3931
aS'dejavusans'
p3932
aS'#000000'
p3933
aF11.0
aI0
aI00
aI00
aI00
aI00
aI00
aI00
aI00
aI00
aa(lp3934
I234378
aF21.7
aF320.992
aVp3
p3935
aS'dejavusans'
p3936
aS'#000000'
p3937
aF11.0
aI0
aI01
aI00
aI00
aI00
aI00
aI00
aI00
aI00
aa(lp3938
I190806
aF80.649
aF320.992
aVp3
p3939
aS'dejavusans'
p3940
aS'#000000'
p3941
aF11.0
aI0
aI00
aI00
aI00
aI00
aI00
aI00
aI00
aI00
aa(lp3942
I104512
aF99.228
aF320.992
aVp3
p3943
aS'dejavusans'
p3944
aS'#000000'
p3945
aF11.0
aI0
aI00
aI00
aI00
aI00
aI00
aI00
aI00
aI00
aa(lp3946
I234378
aF115.805
aF320.992
aVp3
p3947
aS'dejavusans'
p3948
aS'#000000'
p3949
aF11.0
aI0
aI01
aI00
aI00
aI00
aI00
aI00
aI00
aI00
aa(lp3950
I234378
aF154.86325
aF320.992
ag3947
aS'dejavusans'
p3951
aS'#000000'
p3952
aF11.0
aI0
aI00
aI00
aI00
aI00
aI00
aI00
aI00
aI00
aa(lp3953
I209062
aF164.029
aF320.992
aVp3
p3954
aS'dejavusans'
p3955
aS'#000000'
p3956
aF11.0
aI0
aI01
aI00
aI00
aI00
aI00
aI00
aI00
aI00
aa(lp3957
I234378
aF187.53744444444445
aF320.992
ag3954
aS'dejavusans'
p3958
aS'#000000'
p3959
aF11.0
aI0
aI00
aI00
aI00
aI00
aI00
aI00
aI00
aI00
aa(lp3960
I234378
aF144.2
aF333.792
aVp3
p3961
aS'dejavusans'
p3962
aS'#000000'
p3963
aF11.0
aI0
aI01
aI00
aI00
aI00
aI00
aI00
aI00
aI00
aa(lp3964
I234378
aF207.406
aF333.792
aVp3
p3965
aS'dejavusans'
p3966
aS'#000000'
p3967
aF11.0
aI0
aI00
aI00
aI00
aI00
aI00
aI00
aI00
aI00
aa(lp3968
I234378
aF213.146625
aF333.792
ag3965
aS'dejavusans'
p3969
aS'#000000'
p3970
aF11.0
aI0
aI00
aI00
aI00
aI00
aI00
aI00
aI00
aI00
aa(lp3971
I209062
aF268.907
aF333.792
aVp3
p3972
aS'dejavusans'
p3973
aS'#000000'
p3974
aF11.0
aI0
aI00
aI00
aI00
aI00
aI00
aI00
aI00
aI00
aa(lp3975
I234378
aF292.19739999999996
aF333.792
ag3972
aS'dejavusans'
p3976
aS'#000000'
p3977
aF11.0
aI0
aI00
aI00
aI00
aI00
aI00
aI00
aI00
aI00
aa(lp3978
I234378
aF314.48779999999994
aF333.792
ag3972
aS'dejavusans'
p3979
aS'#000000'
p3980
aF11.0
aI0
aI00
aI00
aI00
aI00
aI00
aI00
aI00
aI00
aa(lp3981
I234378
aF328.12
aF333.792
aVp3
p3982
aS'dejavusans'
p3983
aS'#000000'
p3984
aF11.0
aI0
aI01
aI00
aI00
aI00
aI00
aI00
aI00
aI00
aa(lp3985
I234378
aF384.4114
aF333.792
ag3982
aS'dejavusans'
p3986
aS'#000000'
p3987
aF11.0
aI0
aI00
aI00
aI00
aI00
aI00
aI00
aI00
aI00
aa(lp3988
I46544
aF394.252
aF333.792
aVp3
p3989
aS'dejavusans'
p3990
aS'#000000'
p3991
aF11.0
aI0
aI01
aI00
aI00
aI00
aI00
aI00
aI00
aI00
aa(lp3992
I22474
aF420.212
aF333.792
aVp3
p3993
aS'dejavusans'
p3994
aS'#000000'
p3995
aF11.0
aI0
aI00
aI00
aI00
aI00
aI00
aI00
aI00
aI00
aa(lp3996
I90127
aF432.488
aF333.792
aVp3
p3997
aS'dejavusans'
p3998
aS'#000000'
p3999
aF11.0
aI0
aI00
aI00
aI00
aI00
aI00
aI00
aI00
aI00
aa(lp4000
I190806
aF498.895
aF333.792
aVp3
p4001
aS'dejavusans'
p4002
aS'#000000'
p4003
aF11.0
aI0
aI00
aI00
aI00
aI00
aI00
aI00
aI00
aI00
aa(lp4004
I25691
aF517.562
aF333.792
aVp3
p4005
aS'dejavusans'
p4006
aS'#000000'
p4007
aF11.0
aI0
aI00
aI00
aI00
aI00
aI00
aI00
aI00
aI00
aa(lp4008
I89480
aF541.718
aF333.792
aVp3
p4009
aS'dejavusans'
p4010
aS'#000000'
p4011
aF11.0
aI0
aI00
aI00
aI00
aI00
aI00
aI00
aI00
aI00
aa(lp4012
I25691
aF556.293
aF333.792
aVp3
p4013
aS'dejavusans'
p4014
aS'#000000'
p4015
aF11.0
aI0
aI00
aI00
aI00
aI00
aI00
aI00
aI00
aI00
aa(lp4016
I74616
aF21.7
aF346.592
aVp3
p4017
aS'dejavusans'
p4018
aS'#000000'
p4019
aF11.0
aI0
aI00
aI00
aI00
aI00
aI00
aI00
aI00
aI00
aa(lp4020
I153177
aF82.497
aF346.592
aVp3
p4021
aS'dejavusans'
p4022
aS'#000000'
p4023
aF11.0
aI0
aI00
aI00
aI00
aI00
aI00
aI00
aI00
aI00
aa(lp4024
I234378
aF152.527
aF346.592
ag4021
aS'dejavusans'
p4025
aS'#000000'
p4026
aF11.0
aI0
aI00
aI00
aI00
aI00
aI00
aI00
aI00
aI00
aa(lp4027
I75081
aF144.2
aF359.392
aVp3
p4028
aS'dejavusans'
p4029
aS'#000000'
p4030
aF11.0
aI0
aI01
aI00
aI00
aI00
aI00
aI00
aI00
aI00
aa(lp4031
I222377
aF191.841
aF359.392
aVp3
p4032
aS'dejavusans'
p4033
aS'#000000'
p4034
aF11.0
aI0
aI00
aI00
aI00
aI00
aI00
aI00
aI00
aI00
aa(lp4035
I234378
aF246.5935
aF359.392
ag4032
aS'dejavusans'
p4036
aS'#000000'
p4037
aF11.0
aI0
aI00
aI00
aI00
aI00
aI00
aI00
aI00
aI00
aa(lp4038
I234378
aF255.058
aF359.392
aVp3
p4039
aS'dejavusans'
p4040
aS'#000000'
p4041
aF11.0
aI0
aI01
aI01
aI00
aI00
aI00
aI00
aI00
aI00
aa(lp4042
I18050
aF279.731
aF359.392
aVp3
p4043
aS'dejavusans'
p4044
aS'#000000'
p4045
aF11.0
aI0
aI00
aI00
aI00
aI00
aI00
aI00
aI00
aI00
aa(lp4046
I234378
aF322.07855555555557
aF359.392
ag4043
aS'dejavusans'
p4047
aS'#000000'
p4048
aF11.0
aI0
aI00
aI00
aI00
aI00
aI00
aI00
aI00
aI00
aa(lp4049
I95125
aF330.859
aF359.392
aVp3
p4050
aS'dejavusans'
p4051
aS'#000000'
p4052
aF11.0
aI0
aI00
aI00
aI00
aI00
aI00
aI00
aI00
aI00
aa(lp4053
I153177
aF354.025
aF359.392
aVp3
p4054
aS'dejavusans'
p4055
aS'#000000'
p4056
aF11.0
aI0
aI00
aI00
aI00
aI00
aI00
aI00
aI00
aI00
aa(lp4057
I85218
aF431.146
aF359.392
aVp3
p4058
aS'dejavusans'
p4059
aS'#000000'
p4060
aF11.0
aI0
aI00
aI00
aI00
aI00
aI00
aI00
aI00
aI00
aa(lp4061
I234378
aF455.302
aF359.392
aVp3
p4062
aS'dejavusans'
p4063
aS'#000000'
p4064
aF11.0
aI0
aI00
aI00
aI00
aI00
aI00
aI00
aI00
aI00
aa(lp4065
I194354
aF507.717
aF359.392
aVp3
p4066
aS'dejavusans'
p4067
aS'#000000'
p4068
aF11.0
aI0
aI00
aI00
aI00
aI00
aI00
aI00
aI00
aI00
aa(lp4069
I51589
aF529.277
aF359.392
aVp3
p4070
aS'dejavusans'
p4071
aS'#000000'
p4072
aF11.0
aI0
aI00
aI00
aI00
aI00
aI00
aI00
aI00
aI00
aa(lp4073
I198478
aF21.7
aF372.192
aVp3
p4074
aS'dejavusans'
p4075
aS'#000000'
p4076
aF11.0
aI0
aI00
aI00
aI00
aI00
aI00
aI00
aI00
aI00
aa(lp4077
I194354
aF51.257
aF372.192
aVp3
p4078
aS'dejavusans'
p4079
aS'#000000'
p4080
aF11.0
aI0
aI00
aI00
aI00
aI00
aI00
aI00
aI00
aI00
aa(lp4081
I51082
aF72.718
aF372.192
aVp3
p4082
aS'dejavusans'
p4083
aS'#000000'
p4084
aF11.0
aI0
aI00
aI00
aI00
aI00
aI00
aI00
aI00
aI00
aa(lp4085
I140548
aF95.081
aF372.192
aVp3
p4086
aS'dejavusans'
p4087
aS'#000000'
p4088
aF11.0
aI0
aI00
aI00
aI00
aI00
aI00
aI00
aI00
aI00
aa(lp4089
I194354
aF144.2
aF384.992
aVp3
p4090
aS'dejavusans'
p4091
aS'#000000'
p4092
aF11.0
aI0
aI00
aI00
aI00
aI00
aI00
aI00
aI00
aI00
aa(lp4093
I234378
aF165.76
aF384.992
aVp3
p4094
aS'dejavusans'
p4095
aS'#000000'
p4096
aF11.0
aI0
aI00
aI00
aI00
aI00
aI00
aI00
aI00
aI00
aa(lp4097
I44481
aF245.84
aF384.992
aVp3
p4098
aS'dejavusans'
p4099
aS'#000000'
p4100
aF11.0
aI0
aI00
aI00
aI00
aI00
aI00
aI00
aI00
aI00
aa(lp4101
I216993
aF274.902
aF384.992
aVp3
p4102
aS'dejavusans'
p4103
aS'#000000'
p4104
aF11.0
aI0
aI00
aI00
aI00
aI00
aI00
aI00
aI00
aI00
aa(lp4105
I89480
aF308.65
aF384.992
aVp3
p4106
aS'dejavusans'
p4107
aS'#000000'
p4108
aF11.0
aI0
aI00
aI00
aI00
aI00
aI00
aI00
aI00
aI00
aa(lp4109
I85235
aF323.137
aF384.992
aVp3
p4110
aS'dejavusans'
p4111
aS'#000000'
p4112
aF11.0
aI0
aI00
aI00
aI00
aI00
aI00
aI00
aI00
aI00
aa(lp4113
I39311
aF346.897
aF384.992
aVp3
p4114
aS'dejavusans'
p4115
aS'#000000'
p4116
aF11.0
aI0
aI00
aI00
aI00
aI00
aI00
aI00
aI00
aI00
aa(lp4117
I234378
aF388.14975
aF384.992
ag4114
aS'dejavusans'
p4118
aS'#000000'
p4119
aF11.0
aI0
aI00
aI00
aI00
aI00
aI00
aI00
aI00
aI00
aa(lp4120
I19656
aF398.0
aF384.992
aVp3
p4121
aS'dejavusans'
p4122
aS'#000000'
p4123
aF11.0
aI0
aI01
aI00
aI00
aI00
aI00
aI00
aI00
aI00
aa(lp4124
I22476
aF453.287
aF384.992
aVp3
p4125
aS'dejavusans'
p4126
aS'#000000'
p4127
aF11.0
aI0
aI00
aI00
aI00
aI00
aI00
aI00
aI00
aI00
aa(lp4128
I59734
aF462.5865
aF384.992
ag4125
aS'dejavusans'
p4129
aS'#000000'
p4130
aF11.0
aI0
aI00
aI00
aI00
aI00
aI00
aI00
aI00
aI00
aa(lp4131
I166593
aF473.351
aF384.992
aVp3
p4132
aS'dejavusans'
p4133
aS'#000000'
p4134
aF11.0
aI0
aI00
aI00
aI00
aI00
aI00
aI00
aI00
aI00
aa(lp4135
I78934
aF483.625
aF384.992
aVp3
p4136
aS'dejavusans'
p4137
aS'#000000'
p4138
aF11.0
aI0
aI00
aI00
aI00
aI00
aI00
aI00
aI00
aI00
aa(lp4139
I144489
aF510.476
aF384.992
aVp3
p4140
aS'dejavusans'
p4141
aS'#000000'
p4142
aF11.0
aI0
aI00
aI00
aI00
aI00
aI00
aI00
aI00
aI00
aa(lp4143
I166593
aF524.556
aF384.992
aVp3
p4144
aS'dejavusans'
p4145
aS'#000000'
p4146
aF11.0
aI0
aI00
aI00
aI00
aI00
aI00
aI00
aI00
aI00
aa(lp4147
I234378
aF534.742
aF384.992
aVp3
p4148
aS'dejavusans'
p4149
aS'#000000'
p4150
aF11.0
aI0
aI01
aI01
aI00
aI00
aI00
aI00
aI00
aI00
aa(lp4151
I158063
aF21.7
aF397.792
aVp3
p4152
aS'dejavusans'
p4153
aS'#000000'
p4154
aF11.0
aI0
aI00
aI00
aI00
aI00
aI00
aI00
aI00
aI00
aa(lp4155
I37654
aF57.56
aF397.792
aVp3
p4156
aS'dejavusans'
p4157
aS'#000000'
p4158
aF11.0
aI0
aI00
aI00
aI00
aI00
aI00
aI00
aI00
aI00
aa(lp4159
I120218
aF94.806
aF397.792
aVp3
p4160
aS'dejavusans'
p4161
aS'#000000'
p4162
aF11.0
aI0
aI00
aI00
aI00
aI00
aI00
aI00
aI00
aI00
aa(lp4163
I60534
aF150.048
aF397.792
aVp3
p4164
aS'dejavusans'
p4165
aS'#000000'
p4166
aF11.0
aI0
aI00
aI00
aI00
aI00
aI00
aI00
aI00
aI00
aa(lp4167
I33705
aF175.81
aF397.792
aVp3
p4168
aS'dejavusans'
p4169
aS'#000000'
p4170
aF11.0
aI0
aI00
aI00
aI00
aI00
aI00
aI00
aI00
aI00
aa(lp4171
I68365
aF144.2
aF410.592
aVp3
p4172
aS'dejavusans'
p4173
aS'#000000'
p4174
aF11.0
aI0
aI00
aI00
aI00
aI00
aI00
aI00
aI00
aI00
aa(lp4175
I123814
aF196.813
aF410.592
aVp3
p4176
aS'dejavusans'
p4177
aS'#000000'
p4178
aF11.0
aI0
aI00
aI00
aI00
aI00
aI00
aI00
aI00
aI00
aa(lp4179
I218852
aF245.158
aF410.592
aVp3
p4180
aS'dejavusans'
p4181
aS'#000000'
p4182
aF11.0
aI0
aI00
aI00
aI00
aI00
aI00
aI00
aI00
aI00
aa(lp4183
I146359
aF274.22
aF410.592
aVp3
p4184
aS'dejavusans'
p4185
aS'#000000'
p4186
aF11.0
aI0
aI00
aI00
aI00
aI00
aI00
aI00
aI00
aI00
aa(lp4187
I39311
aF300.477
aF410.592
aVp3
p4188
aS'dejavusans'
p4189
aS'#000000'
p4190
aF11.0
aI0
aI00
aI00
aI00
aI00
aI00
aI00
aI00
aI00
aa(lp4191
I169745
aF347.711
aF410.592
aVp3
p4192
aS'dejavusans'
p4193
aS'#000000'
p4194
aF11.0
aI0
aI00
aI00
aI00
aI00
aI00
aI00
aI00
aI00
aa(lp4195
I108725
aF374.463
aF410.592
aVp3
p4196
aS'dejavusans'
p4197
aS'#000000'
p4198
aF11.0
aI0
aI00
aI00
aI00
aI00
aI00
aI00
aI00
aI00
aa(lp4199
I234378
aF407.936
aF410.592
aVp3
p4200
aS'dejavusans'
p4201
aS'#000000'
p4202
aF11.0
aI0
aI00
aI00
aI00
aI00
aI00
aI00
aI00
aI00
aa(lp4203
I85218
aF472.044
aF410.592
aVp3
p4204
aS'dejavusans'
p4205
aS'#000000'
p4206
aF11.0
aI0
aI00
aI00
aI00
aI00
aI00
aI00
aI00
aI00
aa(lp4207
I60534
aF496.2
aF410.592
aVp3
p4208
aS'dejavusans'
p4209
aS'#000000'
p4210
aF11.0
aI0
aI00
aI00
aI00
aI00
aI00
aI00
aI00
aI00
aa(lp4211
I192130
aF521.962
aF410.592
aVp3
p4212
aS'dejavusans'
p4213
aS'#000000'
p4214
aF11.0
aI0
aI00
aI00
aI00
aI00
aI00
aI00
aI00
aI00
aa(lp4215
I80364
aF21.7
aF423.392
aVp3
p4216
aS'dejavusans'
p4217
aS'#000000'
p4218
aF11.0
aI0
aI00
aI00
aI00
aI00
aI00
aI00
aI00
aI00
aa(lp4219
I234378
aF47.946
aF423.392
aVp3
p4220
aS'dejavusans'
p4221
aS'#000000'
p4222
aF11.0
aI0
aI00
aI00
aI00
aI00
aI00
aI00
aI00
aI00
aa(lp4223
I234378
aF74.76308333333333
aF423.392
ag4220
aS'dejavusans'
p4224
aS'#000000'
p4225
aF11.0
aI0
aI00
aI00
aI00
aI00
aI00
aI00
aI00
aI00
aa(lp4226
I234378
aF80.1265
aF423.392
ag4220
aS'dejavusans'
p4227
aS'#000000'
p4228
aF11.0
aI0
aI00
aI00
aI00
aI00
aI00
aI00
aI00
aI00
aa(lp4229
I190806
aF115.86
aF423.392
aVp3
p4230
aS'dejavusans'
p4231
aS'#000000'
p4232
aF11.0
aI0
aI00
aI00
aI00
aI00
aI00
aI00
aI00
aI00
aa(lp4233
I228446
aF134.439
aF423.392
aVp3
p4234
aS'dejavusans'
p4235
aS'#000000'
p4236
aF11.0
aI0
aI00
aI00
aI00
aI00
aI00
aI00
aI00
aI00
aa(lp4237
I89480
aF166.702
aF423.392
aVp3
p4238
aS'dejavusans'
p4239
aS'#000000'
p4240
aF11.0
aI0
aI00
aI00
aI00
aI00
aI00
aI00
aI00
aI00
aa(lp4241
I194354
aF144.2
aF436.192
aVp3
p4242
aS'dejavusans'
p4243
aS'#000000'
p4244
aF11.0
aI0
aI00
aI00
aI00
aI00
aI00
aI00
aI00
aI00
aa(lp4245
I78331
aF165.76
aF436.192
aVp3
p4246
aS'dejavusans'
p4247
aS'#000000'
p4248
aF11.0
aI0
aI00
aI00
aI00
aI00
aI00
aI00
aI00
aI00
aa(lp4249
I234378
aF216.503
aF436.192
aVp3
p4250
aS'dejavusans'
p4251
aS'#000000'
p4252
aF11.0
aI0
aI00
aI00
aI00
aI00
aI00
aI00
aI00
aI00
aa(lp4253
I148858
aF247.963
aF436.192
aVp3
p4254
aS'dejavusans'
p4255
aS'#000000'
p4256
aF11.0
aI0
aI00
aI00
aI00
aI00
aI00
aI00
aI00
aI00
aa(lp4257
I234378
aF325.98966666666666
aF436.192
ag4254
aS'dejavusans'
p4258
aS'#000000'
p4259
aF11.0
aI0
aI00
aI00
aI00
aI00
aI00
aI00
aI00
aI00
aa(lp4260
I231013
aF21.7
aF474.592
aVp3
p4261
aS'dejavusans'
p4262
aS'#000000'
p4263
aF11.0
aI1
aI01
aI00
aI00
aI00
aI00
aI00
aI00
aI00
aa(lp4264
I234378
aF48.485
aF474.592
aVp3
p4265
aS'dejavusans'
p4266
aS'#000000'
p4267
aF11.0
aI1
aI01
aI00
aI00
aI00
aI00
aI00
aI00
aI00
aa(lp4268
I234378
aF123.73515384615385
aF474.592
ag4265
aS'dejavusans'
p4269
aS'#000000'
p4270
aF11.0
aI1
aI00
aI00
aI00
aI00
aI00
aI00
aI00
aI00
aa(lp4271
I113826
aF57.7
aF487.392
aVp3
p4272
aS'dejavusans'
p4273
aS'#000000'
p4274
aF11.0
aI0
aI01
aI00
aI00
aI00
aI00
aI00
aI00
aI00
aa(lp4275
I234378
aF100.446
aF487.392
aVp3
p4276
aS'dejavusans'
p4277
aS'#000000'
p4278
aF11.0
aI0
aI00
aI00
aI00
aI00
aI00
aI00
aI00
aI00
aa(lp4279
I221291
aF167.194
aF487.392
aVp3
p4280
aS'dejavusans'
p4281
aS'#000000'
p4282
aF11.0
aI0
aI00
aI00
aI00
aI00
aI00
aI00
aI00
aI00
aa(lp4283
I135639
aF197.246
aF487.392
aVp3
p4284
aS'dejavusans'
p4285
aS'#000000'
p4286
aF11.0
aI0
aI00
aI00
aI00
aI00
aI00
aI00
aI00
aI00
aa(lp4287
I21716
aF210.721
aF487.392
aVp3
p4288
aS'dejavusans'
p4289
aS'#000000'
p4290
aF11.0
aI0
aI01
aI00
aI00
aI00
aI00
aI00
aI00
aI00
aa(lp4291
I210388
aF249.474
aF487.392
aVp3
p4292
aS'dejavusans'
p4293
aS'#000000'
p4294
aF11.0
aI0
aI01
aI00
aI00
aI00
aI00
aI00
aI00
aI00
aa(lp4295
I115769
aF304.199
aF487.392
aVp3
p4296
aS'dejavusans'
p4297
aS'#000000'
p4298
aF11.0
aI0
aI00
aI00
aI00
aI00
aI00
aI00
aI00
aI00
aa(lp4299
I234378
aF360.5795
aF487.392
ag4296
aS'dejavusans'
p4300
aS'#000000'
p4301
aF11.0
aI0
aI00
aI00
aI00
aI00
aI00
aI00
aI00
aI00
aa(lp4302
I113826
aF57.7
aF501.092
aVp3
p4303
aS'dejavusans'
p4304
aS'#000000'
p4305
aF11.0
aI0
aI01
aI00
aI00
aI00
aI00
aI00
aI00
aI00
aa(lp4306
I25931
aF100.446
aF501.092
aVp3
p4307
aS'dejavusans'
p4308
aS'#000000'
p4309
aF11.0
aI0
aI00
aI00
aI00
aI00
aI00
aI00
aI00
aI00
aa(lp4310
I221291
aF134.095
aF501.092
aVp3
p4311
aS'dejavusans'
p4312
aS'#000000'
p4313
aF11.0
aI0
aI00
aI00
aI00
aI00
aI00
aI00
aI00
aI00
aa(lp4314
I89480
aF164.147
aF501.092
aVp3
p4315
aS'dejavusans'
p4316
aS'#000000'
p4317
aF11.0
aI0
aI00
aI00
aI00
aI00
aI00
aI00
aI00
aI00
aa(lp4318
I204401
aF178.634
aF501.092
aVp3
p4319
aS'dejavusans'
p4320
aS'#000000'
p4321
aF11.0
aI0
aI00
aI00
aI00
aI00
aI00
aI00
aI00
aI00
aa(lp4322
I89217
aF232.072
aF501.092
aVp3
p4323
aS'dejavusans'
p4324
aS'#000000'
p4325
aF11.0
aI0
aI01
aI01
aI00
aI00
aI00
aI00
aI00
aI00
aa(lp4326
I17350
aF263.829
aF501.092
aVp3
p4327
aS'dejavusans'
p4328
aS'#000000'
p4329
aF11.0
aI0
aI00
aI00
aI00
aI00
aI00
aI00
aI00
aI00
aa(lp4330
I234378
aF289.987
aF501.092
aVp3
p4331
aS'dejavusans'
p4332
aS'#000000'
p4333
aF11.0
aI0
aI00
aI00
aI00
aI00
aI00
aI00
aI00
aI00
aa(lp4334
I234378
aF333.13633333333337
aF501.092
ag4331
aS'dejavusans'
p4335
aS'#000000'
p4336
aF11.0
aI0
aI00
aI00
aI00
aI00
aI00
aI00
aI00
aI00
aa(lp4337
I105322
aF57.7
aF514.692
aVp3
p4338
aS'dejavusans'
p4339
aS'#000000'
p4340
aF11.0
aI0
aI01
aI00
aI00
aI00
aI00
aI00
aI00
aI00
aa(lp4341
I135639
aF107.937
aF514.692
aVp3
p4342
aS'dejavusans'
p4343
aS'#000000'
p4344
aF11.0
aI0
aI00
aI00
aI00
aI00
aI00
aI00
aI00
aI00
aa(lp4345
I234378
aF121.412
aF514.692
aVp3
p4346
aS'dejavusans'
p4347
aS'#000000'
p4348
aF11.0
aI0
aI00
aI00
aI00
aI00
aI00
aI00
aI00
aI00
aa(lp4349
I234378
aF180.031
aF514.692
aVp3
p4350
aS'dejavusans'
p4351
aS'#000000'
p4352
aF11.0
aI0
aI01
aI00
aI00
aI00
aI00
aI00
aI00
aI00
aa(lp4353
I154958
aF230.466
aF514.692
aVp3
p4354
aS'dejavusans'
p4355
aS'#000000'
p4356
aF11.0
aI0
aI01
aI00
aI00
aI00
aI00
aI00
aI00
aI00
aa(lp4357
I233548
aF283.673
aF514.692
aVp3
p4358
aS'dejavusans'
p4359
aS'#000000'
p4360
aF11.0
aI0
aI00
aI00
aI00
aI00
aI00
aI00
aI00
aI00
aa(lp4361
I234378
aF324.604
aF514.692
aVp3
p4362
aS'dejavusans'
p4363
aS'#000000'
p4364
aF11.0
aI0
aI00
aI00
aI00
aI00
aI00
aI00
aI00
aI00
aa(lp4365
I234378
aF372.82399999999996
aF514.692
ag4362
aS'dejavusans'
p4366
aS'#000000'
p4367
aF11.0
aI0
aI00
aI00
aI00
aI00
aI00
aI00
aI00
aI00
aa(lp4368
I234378
aF219.2
aF541.192
aVp3
p4369
aS'dejavusans'
p4370
aS'#000000'
p4371
aF11.0
aI1
aI01
aI00
aI00
aI00
aI00
aI00
aI00
aI00
aa(lp4372
I48403
aF269.349
aF541.192
aVp3
p4373
aS'dejavusans'
p4374
aS'#000000'
p4375
aF11.0
aI1
aI01
aI00
aI00
aI00
aI00
aI00
aI00
aI00
aa(lp4376
I6981
aF330.784
aF541.192
aVp3
p4377
aS'dejavusans'
p4378
aS'#000000'
p4379
aF11.0
aI1
aI01
aI00
aI00
aI00
aI00
aI00
aI00
aI00
aa(lp4380
I229426
aF21.7
aF566.792
aVp3
p4381
aS'dejavusans'
p4382
aS'#000000'
p4383
aF11.0
aI1
aI01
aI00
aI00
aI00
aI00
aI00
aI00
aI00
aa(lp4384
I234378
aF98.86553846153846
aF566.792
ag4381
aS'dejavusans'
p4385
aS'#000000'
p4386
aF11.0
aI1
aI00
aI00
aI00
aI00
aI00
aI00
aI00
aI00
aa(lp4387
I234378
aF165.7
aF566.792
aVp3
p4388
aS'dejavusans'
p4389
aS'#000000'
p4390
aF11.0
aI0
aI01
aI00
aI00
aI00
aI00
aI00
aI00
aI00
aa(lp4391
I25931
aF21.7
aF579.592
aVp3
p4392
aS'dejavusans'
p4393
aS'#000000'
p4394
aF11.0
aI1
aI01
aI00
aI00
aI00
aI00
aI00
aI00
aI00
aa(lp4395
I234378
aF55.896571428571434
aF579.592
ag4392
aS'dejavusans'
p4396
aS'#000000'
p4397
aF11.0
aI1
aI00
aI00
aI00
aI00
aI00
aI00
aI00
aI00
aa(lp4398
I234378
aF165.7
aF579.592
aVp3
p4399
aS'dejavusans'
p4400
aS'#000000'
p4401
aF11.0
aI0
aI01
aI00
aI00
aI00
aI00
aI00
aI00
aI00
aa(lp4402
I48000
aF209.634
aF579.592
aVp3
p4403
aS'dejavusans'
p4404
aS'#000000'
p4405
aF11.0
aI0
aI01
aI00
aI00
aI00
aI00
aI00
aI00
aI00
aa(lp4406
I234378
aF253.5851111111111
aF579.592
ag4403
aS'dejavusans'
p4407
aS'#000000'
p4408
aF11.0
aI0
aI00
aI00
aI00
aI00
aI00
aI00
aI00
aI00
aa(lp4409
I227337
aF262.665
aF579.592
aVp3
p4410
aS'dejavusans'
p4411
aS'#000000'
p4412
aF11.0
aI0
aI01
aI00
aI00
aI00
aI00
aI00
aI00
aI00
aa(lp4413
I234378
aF302.199
aF579.592
aVp3
p4414
aS'dejavusans'
p4415
aS'#000000'
p4416
aF11.0
aI0
aI01
aI00
aI00
aI00
aI00
aI00
aI00
aI00
aa(lp4417
I234378
aF334.99157142857143
aF579.592
ag4414
aS'dejavusans'
p4418
aS'#000000'
p4419
aF11.0
aI0
aI00
aI00
aI00
aI00
aI00
aI00
aI00
aI00
aa(lp4420
I234378
aF21.7
aF592.392
aVp3
p4421
aS'dejavusans'
p4422
aS'#000000'
p4423
aF11.0
aI1
aI01
aI00
aI00
aI00
aI00
aI00
aI00
aI00
aa(lp4424
I234378
aF99.14246153846155
aF592.392
ag4421
aS'dejavusans'
p4425
aS'#000000'
p4426
aF11.0
aI1
aI00
aI00
aI00
aI00
aI00
aI00
aI00
aI00
aa(lp4427
I21716
aF165.7
aF592.392
aVp3
p4428
aS'dejavusans'
p4429
aS'#000000'
p4430
aF11.0
aI0
aI01
aI00
aI00
aI00
aI00
aI00
aI00
aI00
aa(lp4431
I234378
aF186.96959999999999
aF592.392
ag4428
aS'dejavusans'
p4432
aS'#000000'
p4433
aF11.0
aI0
aI00
aI00
aI00
aI00
aI00
aI00
aI00
aI00
aa(lp4434
I210388
aF195.972
aF592.392
aVp3
p4435
aS'dejavusans'
p4436
aS'#000000'
p4437
aF11.0
aI0
aI01
aI00
aI00
aI00
aI00
aI00
aI00
aI00
aa(lp4438
I234378
aF244.53822222222223
aF592.392
ag4435
aS'dejavusans'
p4439
aS'#000000'
p4440
aF11.0
aI0
aI00
aI00
aI00
aI00
aI00
aI00
aI00
aI00
aa(lp4441
I106895
aF254.195
aF592.392
aVp3
p4442
aS'dejavusans'
p4443
aS'#000000'
p4444
aF11.0
aI0
aI01
aI01
aI00
aI00
aI00
aI00
aI00
aI00
aa(lp4445
I234378
aF280.58619999999996
aF592.392
ag4442
aS'dejavusans'
p4446
aS'#000000'
p4447
aF11.0
aI0
aI00
aI00
aI00
aI00
aI00
aI00
aI00
aI00
aa(lp4448
I222873
aF290.77
aF592.392
aVp3
p4449
aS'dejavusans'
p4450
aS'#000000'
p4451
aF11.0
aI0
aI01
aI00
aI00
aI00
aI00
aI00
aI00
aI00
aa(lp4452
I234378
aF326.3911428571428
aF592.392
ag4449
aS'dejavusans'
p4453
aS'#000000'
p4454
aF11.0
aI0
aI00
aI00
aI00
aI00
aI00
aI00
aI00
aI00
aa(lp4455
I120031
aF21.7
aF605.192
aVp3
p4456
aS'dejavusans'
p4457
aS'#000000'
p4458
aF11.0
aI1
aI01
aI00
aI00
aI00
aI00
aI00
aI00
aI00
aa(lp4459
I234378
aF73.252
aF605.192
ag4456
aS'dejavusans'
p4460
aS'#000000'
p4461
aF11.0
aI1
aI00
aI00
aI00
aI00
aI00
aI00
aI00
aI00
aa(lp4462
I131472
aF129.7
aF605.192
aVp3
p4463
aS'dejavusans'
p4464
aS'#000000'
p4465
aF11.0
aI0
aI01
aI00
aI00
aI00
aI00
aI00
aI00
aI01
aa(lp4466
I234378
aF158.355
aF605.192
aVp3
p4467
aS'dejavusans'
p4468
aS'#000000'
p4469
aF11.0
aI0
aI00
aI00
aI01
aI01
aI01
aI00
aI00
aI00
aa(lp4470
I143552
aF188.308
aF605.192
aVp3
p4471
aS'dejavusans'
p4472
aS'#000000'
p4473
aF11.0
aI0
aI01
aI00
aI00
aI00
aI00
aI00
aI00
aI01
aa(lp4474
I234378
aF216.765
aF605.192
aVp3
p4475
aS'dejavusans'
p4476
aS'#000000'
p4477
aF11.0
aI0
aI00
aI00
aI01
aI01
aI01
aI00
aI00
aI00
aa(lp4478
I66756
aF21.7
aF617.992
aVp3
p4479
aS'dejavusans'
p4480
aS'#000000'
p4481
aF11.0
aI1
aI01
aI00
aI00
aI00
aI00
aI00
aI00
aI00
aa(lp4482
I234378
aF90.35466666666667
aF617.992
ag4479
aS'dejavusans'
p4483
aS'#000000'
p4484
aF11.0
aI1
aI00
aI00
aI00
aI00
aI00
aI00
aI00
aI00
aa(lp4485
I194354
aF129.7
aF617.992
aVp3
p4486
aS'dejavusans'
p4487
aS'#000000'
p4488
aF11.0
aI0
aI01
aI00
aI00
aI00
aI00
aI00
aI00
aI00
aa(lp4489
I177958
aF154.153
aF617.992
aVp3
p4490
aS'dejavusans'
p4491
aS'#000000'
p4492
aF11.0
aI0
aI00
aI00
aI00
aI00
aI00
aI00
aI00
aI00
aa(lp4493
I234378
aF196.382
aF617.992
aVp3
p4494
aS'dejavusans'
p4495
aS'#000000'
p4496
aF11.0
aI0
aI00
aI00
aI00
aI00
aI00
aI00
aI00
aI00
aa(lp4497
I16334
aF226.643
aF617.992
aVp3
p4498
aS'dejavusans'
p4499
aS'#000000'
p4500
aF11.0
aI0
aI00
aI00
aI00
aI00
aI00
aI00
aI00
aI00
aa(lp4501
I234378
aF241.713
aF617.992
aVp3
p4502
aS'dejavusans'
p4503
aS'#000000'
p4504
aF11.0
aI0
aI00
aI00
aI00
aI00
aI00
aI00
aI00
aI00
aa(lp4505
I25691
aF300.838
aF617.992
aVp3
p4506
aS'dejavusans'
p4507
aS'#000000'
p4508
aF11.0
aI0
aI00
aI00
aI00
aI00
aI00
aI00
aI00
aI00
aa(lp4509
I89480
aF325.599
aF617.992
aVp3
p4510
aS'dejavusans'
p4511
aS'#000000'
p4512
aF11.0
aI0
aI00
aI00
aI00
aI00
aI00
aI00
aI00
aI00
aa(lp4513
I25691
aF340.669
aF617.992
aVp3
p4514
aS'dejavusans'
p4515
aS'#000000'
p4516
aF11.0
aI0
aI00
aI00
aI00
aI00
aI00
aI00
aI00
aI00
aa(lp4517
I234378
aF365.43
aF617.992
aVp3
p4518
aS'dejavusans'
p4519
aS'#000000'
p4520
aF11.0
aI0
aI01
aI01
aI00
aI00
aI00
aI00
aI00
aI00
aa(lp4521
I223466
aF395.295
aF617.992
aVp3
p4522
aS'dejavusans'
p4523
aS'#000000'
p4524
aF11.0
aI0
aI00
aI00
aI00
aI00
aI00
aI00
aI00
aI00
aa(lp4525
I234378
aF437.4855
aF617.992
ag4522
aS'dejavusans'
p4526
aS'#000000'
p4527
aF11.0
aI0
aI00
aI00
aI00
aI00
aI00
aI00
aI00
aI00
aa(lp4528
I46827
aF443.5127142857143
aF617.992
ag4522
aS'dejavusans'
p4529
aS'#000000'
p4530
aF11.0
aI0
aI00
aI00
aI00
aI00
aI00
aI00
aI00
aI00
aa(lp4531
I234378
aF483.68
aF617.992
aVp3
p4532
aS'dejavusans'
p4533
aS'#000000'
p4534
aF11.0
aI0
aI00
aI00
aI00
aI00
aI00
aI00
aI00
aI00
aa(lp4535
I144489
aF554.784
aF617.992
aVp3
p4536
aS'dejavusans'
p4537
aS'#000000'
p4538
aF11.0
aI0
aI00
aI00
aI00
aI00
aI00
aI00
aI00
aI00
aa(lp4539
I85235
aF569.359
aF617.992
aVp3
p4540
aS'dejavusans'
p4541
aS'#000000'
p4542
aF11.0
aI0
aI00
aI00
aI00
aI00
aI00
aI00
aI00
aI00
aa(lp4543
I120218
aF129.7
aF630.792
aVp3
p4544
aS'dejavusans'
p4545
aS'#000000'
p4546
aF11.0
aI0
aI00
aI00
aI00
aI00
aI00
aI00
aI00
aI00
aa(lp4547
I164851
aF191.047
aF630.792
aVp3
p4548
aS'dejavusans'
p4549
aS'#000000'
p4550
aF11.0
aI0
aI00
aI00
aI00
aI00
aI00
aI00
aI00
aI00
aa(lp4551
I131049
aF229.998
aF630.792
aVp3
p4552
aS'dejavusans'
p4553
aS'#000000'
p4554
aF11.0
aI0
aI00
aI00
aI00
aI00
aI00
aI00
aI00
aI00
aa(lp4555
I16329
aF265.176
aF630.792
aVp3
p4556
aS'dejavusans'
p4557
aS'#000000'
p4558
aF11.0
aI0
aI00
aI00
aI00
aI00
aI00
aI00
aI00
aI00
aa(lp4559
I164851
aF288.452
aF630.792
aVp3
p4560
aS'dejavusans'
p4561
aS'#000000'
p4562
aF11.0
aI0
aI00
aI00
aI00
aI00
aI00
aI00
aI00
aI00
aa(lp4563
I82338
aF327.304
aF630.792
aVp3
p4564
aS'dejavusans'
p4565
aS'#000000'
p4566
aF11.0
aI0
aI00
aI00
aI00
aI00
aI00
aI00
aI00
aI00
aa(lp4567
I207716
aF365.958
aF630.792
aVp3
p4568
aS'dejavusans'
p4569
aS'#000000'
p4570
aF11.0
aI0
aI00
aI00
aI00
aI00
aI00
aI00
aI00
aI00
aa(lp4571
I184870
aF415.326
aF630.792
aVp3
p4572
aS'dejavusans'
p4573
aS'#000000'
p4574
aF11.0
aI0
aI00
aI00
aI00
aI00
aI00
aI00
aI00
aI00
aa(lp4575
I166593
aF468.06
aF630.792
aVp3
p4576
aS'dejavusans'
p4577
aS'#000000'
p4578
aF11.0
aI0
aI00
aI00
aI00
aI00
aI00
aI00
aI00
aI00
aa(lp4579
I27001
aF484.439
aF630.792
aVp3
p4580
aS'dejavusans'
p4581
aS'#000000'
p4582
aF11.0
aI0
aI00
aI00
aI00
aI00
aI00
aI00
aI00
aI00
aa(lp4583
I234378
aF531.673
aF630.792
aVp3
p4584
aS'dejavusans'
p4585
aS'#000000'
p4586
aF11.0
aI0
aI00
aI00
aI00
aI00
aI00
aI00
aI00
aI00
aa(lp4587
I123665
aF129.7
aF643.592
aVp3
p4588
aS'dejavusans'
p4589
aS'#000000'
p4590
aF11.0
aI0
aI00
aI00
aI00
aI00
aI00
aI00
aI00
aI00
aa(lp4591
I234378
aF188.46566666666666
aF643.592
ag4588
aS'dejavusans'
p4592
aS'#000000'
p4593
aF11.0
aI0
aI00
aI00
aI00
aI00
aI00
aI00
aI00
aI00
aa(lp4594
I22476
aF200.199
aF643.592
aVp3
p4595
aS'dejavusans'
p4596
aS'#000000'
p4597
aF11.0
aI0
aI01
aI00
aI00
aI00
aI00
aI00
aI00
aI00
aa(lp4598
I33705
aF214.18
aF643.592
aVp3
p4599
aS'dejavusans'
p4600
aS'#000000'
p4601
aF11.0
aI0
aI00
aI00
aI00
aI00
aI00
aI00
aI00
aI00
aa(lp4602
I60534
aF240.36
aF643.592
aVp3
p4603
aS'dejavusans'
p4604
aS'#000000'
p4605
aF11.0
aI0
aI00
aI00
aI00
aI00
aI00
aI00
aI00
aI00
aa(lp4606
I123814
aF268.916
aF643.592
aVp3
p4607
aS'dejavusans'
p4608
aS'#000000'
p4609
aF11.0
aI0
aI00
aI00
aI00
aI00
aI00
aI00
aI00
aI00
aa(lp4610
I166593
aF320.165
aF643.592
aVp3
p4611
aS'dejavusans'
p4612
aS'#000000'
p4613
aF11.0
aI0
aI00
aI00
aI00
aI00
aI00
aI00
aI00
aI00
aa(lp4614
I162759
aF333.343
aF643.592
aVp3
p4615
aS'dejavusans'
p4616
aS'#000000'
p4617
aF11.0
aI0
aI00
aI00
aI00
aI00
aI00
aI00
aI00
aI00
aa(lp4618
I164851
aF391.082
aF643.592
aVp3
p4619
aS'dejavusans'
p4620
aS'#000000'
p4621
aF11.0
aI0
aI00
aI00
aI00
aI00
aI00
aI00
aI00
aI00
aa(lp4622
I15166
aF426.722
aF643.592
aVp3
p4623
aS'dejavusans'
p4624
aS'#000000'
p4625
aF11.0
aI0
aI00
aI00
aI00
aI00
aI00
aI00
aI00
aI00
aa(lp4626
I231317
aF449.888
aF643.592
aVp3
p4627
aS'dejavusans'
p4628
aS'#000000'
p4629
aF11.0
aI0
aI00
aI00
aI00
aI00
aI00
aI00
aI00
aI00
aa(lp4630
I192651
aF484.648
aF643.592
aVp3
p4631
aS'dejavusans'
p4632
aS'#000000'
p4633
aF11.0
aI0
aI00
aI00
aI00
aI00
aI00
aI00
aI00
aI00
aa(lp4634
I122966
aF504.514
aF643.592
aVp3
p4635
aS'dejavusans'
p4636
aS'#000000'
p4637
aF11.0
aI0
aI00
aI00
aI00
aI00
aI00
aI00
aI00
aI00
aa(lp4638
I177271
aF129.7
aF656.392
aVp3
p4639
aS'dejavusans'
p4640
aS'#000000'
p4641
aF11.0
aI0
aI00
aI00
aI00
aI00
aI00
aI00
aI00
aI00
aa(lp4642
I53072
aF162.458
aF656.392
aVp3
p4643
aS'dejavusans'
p4644
aS'#000000'
p4645
aF11.0
aI0
aI00
aI00
aI00
aI00
aI00
aI00
aI00
aI00
aa(lp4646
I184870
aF225.389
aF656.392
aVp3
p4647
aS'dejavusans'
p4648
aS'#000000'
p4649
aF11.0
aI0
aI00
aI00
aI00
aI00
aI00
aI00
aI00
aI00
aa(lp4650
I31654
aF272.117
aF656.392
aVp3
p4651
aS'dejavusans'
p4652
aS'#000000'
p4653
aF11.0
aI0
aI00
aI00
aI00
aI00
aI00
aI00
aI00
aI00
aa(lp4654
I234378
aF321.76
aF656.392
aVp3
p4655
aS'dejavusans'
p4656
aS'#000000'
p4657
aF11.0
aI0
aI00
aI00
aI00
aI00
aI00
aI00
aI00
aI00
aa(lp4658
I234378
aF364.90933333333334
aF656.392
ag4655
aS'dejavusans'
p4659
aS'#000000'
p4660
aF11.0
aI0
aI00
aI00
aI00
aI00
aI00
aI00
aI00
aI00
aa(lp4661
I231013
aF21.7
aF681.992
aVp3
p4662
aS'dejavusans'
p4663
aS'#000000'
p4664
aF11.0
aI1
aI01
aI00
aI00
aI00
aI00
aI00
aI00
aI00
aa(lp4665
I234378
aF48.485
aF681.992
aVp3
p4666
aS'dejavusans'
p4667
aS'#000000'
p4668
aF11.0
aI1
aI01
aI00
aI00
aI00
aI00
aI00
aI00
aI00
aa(lp4669
I234378
aF123.73515384615385
aF681.992
ag4666
aS'dejavusans'
p4670
aS'#000000'
p4671
aF11.0
aI1
aI00
aI00
aI00
aI00
aI00
aI00
aI00
aI00
aa(lp4672
I234378
aF57.7
aF694.792
aVp3
p4673
aS'dejavusans'
p4674
aS'#000000'
p4675
aF11.0
aI0
aI01
aI00
aI00
aI00
aI00
aI00
aI00
aI00
aa(lp4676
I203832
aF117.518
aF694.792
aVp3
p4677
aS'dejavusans'
p4678
aS'#000000'
p4679
aF11.0
aI0
aI00
aI00
aI00
aI00
aI00
aI00
aI00
aI00
aa(lp4680
I234378
aF142.18
aF694.792
aVp3
p4681
aS'dejavusans'
p4682
aS'#000000'
p4683
aF11.0
aI0
aI00
aI00
aI00
aI00
aI00
aI00
aI00
aI00
aa(lp4684
I131049
aF178.337
aF694.792
aVp3
p4685
aS'dejavusans'
p4686
aS'#000000'
p4687
aF11.0
aI0
aI00
aI00
aI00
aI00
aI00
aI00
aI00
aI00
aa(lp4688
I94934
aF209.115
aF694.792
aVp3
p4689
aS'dejavusans'
p4690
aS'#000000'
p4691
aF11.0
aI0
aI00
aI00
aI00
aI00
aI00
aI00
aI00
aI00
aa(lp4692
I210461
aF268.449
aF694.792
aVp3
p4693
aS'dejavusans'
p4694
aS'#000000'
p4695
aF11.0
aI0
aI00
aI00
aI00
aI00
aI00
aI00
aI00
aI00
aa(lp4696
I89480
aF302.12
aF694.792
aVp3
p4697
aS'dejavusans'
p4698
aS'#000000'
p4699
aF11.0
aI0
aI00
aI00
aI00
aI00
aI00
aI00
aI00
aI00
aa(lp4700
I234378
aF318.4
aF694.792
aVp3
p4701
aS'dejavusans'
p4702
aS'#000000'
p4703
aF11.0
aI0
aI00
aI00
aI00
aI00
aI00
aI00
aI00
aI00
aa(lp4704
I194354
aF376.865
aF694.792
aVp3
p4705
aS'dejavusans'
p4706
aS'#000000'
p4707
aF11.0
aI0
aI00
aI00
aI00
aI00
aI00
aI00
aI00
aI00
aa(lp4708
I123665
aF400.13
aF694.792
aVp3
p4709
aS'dejavusans'
p4710
aS'#000000'
p4711
aF11.0
aI0
aI00
aI00
aI00
aI00
aI00
aI00
aI00
aI00
aa(lp4712
I106371
aF479.638
aF694.792
aVp3
p4713
aS'dejavusans'
p4714
aS'#000000'
p4715
aF11.0
aI0
aI00
aI00
aI00
aI00
aI00
aI00
aI00
aI00
aa(lp4716
I35131
aF515.014
aF694.792
aVp3
p4717
aS'dejavusans'
p4718
aS'#000000'
p4719
aF11.0
aI0
aI00
aI00
aI00
aI00
aI00
aI00
aI00
aI00
aa(lp4720
I190806
aF551.468
aF694.792
aVp3
p4721
aS'dejavusans'
p4722
aS'#000000'
p4723
aF11.0
aI0
aI00
aI00
aI00
aI00
aI00
aI00
aI00
aI00
aa(lp4724
I194354
aF571.741
aF694.792
aVp3
p4725
aS'dejavusans'
p4726
aS'#000000'
p4727
aF11.0
aI0
aI00
aI00
aI00
aI00
aI00
aI00
aI00
aI00
aa(lp4728
I61162
aF57.7
aF708.392
aVp3
p4729
aS'dejavusans'
p4730
aS'#000000'
p4731
aF11.0
aI0
aI00
aI00
aI00
aI00
aI00
aI00
aI00
aI00
aa(lp4732
I231317
aF85.574
aF708.392
aVp3
p4733
aS'dejavusans'
p4734
aS'#000000'
p4735
aF11.0
aI0
aI00
aI00
aI00
aI00
aI00
aI00
aI00
aI00
aa(lp4736
I144489
aF117.43
aF708.392
aVp3
p4737
aS'dejavusans'
p4738
aS'#000000'
p4739
aF11.0
aI0
aI00
aI00
aI00
aI00
aI00
aI00
aI00
aI00
aa(lp4740
I2555
aF131.51
aF708.392
aVp3
p4741
aS'dejavusans'
p4742
aS'#000000'
p4743
aF11.0
aI0
aI00
aI00
aI00
aI00
aI00
aI00
aI00
aI00
aa(lp4744
I234378
aF182.8415
aF708.392
ag4741
aS'dejavusans'
p4745
aS'#000000'
p4746
aF11.0
aI0
aI00
aI00
aI00
aI00
aI00
aI00
aI00
aI00
aa(lp4747
I207097
aF57.7
aF721.192
aVp3
p4748
aS'dejavusans'
p4749
aS'#000000'
p4750
aF11.0
aI0
aI01
aI00
aI00
aI00
aI00
aI00
aI00
aI00
aa(lp4751
I229025
aF108.014
aF721.192
aVp3
p4752
aS'dejavusans'
p4753
aS'#000000'
p4754
aF11.0
aI0
aI00
aI00
aI00
aI00
aI00
aI00
aI00
aI00
aa(lp4755
I47481
aF129.486
aF721.192
aVp3
p4756
aS'dejavusans'
p4757
aS'#000000'
p4758
aF11.0
aI0
aI00
aI00
aI00
aI00
aI00
aI00
aI00
aI00
aa(lp4759
I91746
aF207.08
aF721.192
aVp3
p4760
aS'dejavusans'
p4761
aS'#000000'
p4762
aF11.0
aI0
aI00
aI00
aI00
aI00
aI00
aI00
aI00
aI00
aa(lp4763
I234378
aF251.245
aF721.192
aVp3
p4764
aS'dejavusans'
p4765
aS'#000000'
p4766
aF11.0
aI0
aI00
aI00
aI00
aI00
aI00
aI00
aI00
aI00
aa(lp4767
I132957
aF286.61
aF721.192
aVp3
p4768
aS'dejavusans'
p4769
aS'#000000'
p4770
aF11.0
aI0
aI00
aI00
aI00
aI00
aI00
aI00
aI00
aI00
aa(lp4771
I184870
aF314.869
aF721.192
aVp3
p4772
aS'dejavusans'
p4773
aS'#000000'
p4774
aF11.0
aI0
aI00
aI00
aI00
aI00
aI00
aI00
aI00
aI00
aa(lp4775
I222873
aF361.498
aF721.192
aVp3
p4776
aS'dejavusans'
p4777
aS'#000000'
p4778
aF11.0
aI0
aI01
aI00
aI00
aI00
aI00
aI00
aI00
aI00
aa(lp4779
I131049
aF403.155
aF721.192
aVp3
p4780
aS'dejavusans'
p4781
aS'#000000'
p4782
aF11.0
aI0
aI00
aI00
aI00
aI00
aI00
aI00
aI00
aI00
aa(lp4783
I194354
aF432.228
aF721.192
aVp3
p4784
aS'dejavusans'
p4785
aS'#000000'
p4786
aF11.0
aI0
aI00
aI00
aI00
aI00
aI00
aI00
aI00
aI00
aa(lp4787
I48403
aF453.7
aF721.192
aVp3
p4788
aS'dejavusans'
p4789
aS'#000000'
p4790
aF11.0
aI0
aI00
aI00
aI00
aI00
aI00
aI00
aI00
aI00
aa(lp4791
I234378
aF507.237
aF721.192
aVp3
p4792
aS'dejavusans'
p4793
aS'#000000'
p4794
aF11.0
aI0
aI00
aI00
aI00
aI00
aI00
aI00
aI00
aI00
aa(lp4795
I234378
aF528.005
aF721.192
ag4792
aS'dejavusans'
p4796
aS'#000000'
p4797
aF11.0
aI0
aI00
aI00
aI00
aI00
aI00
aI00
aI00
aI00
aa(lp4798
I234378
aF21.7
aF48.808
aVp4
p4799
aS'dejavusans'
p4800
aS'#000000'
p4801
aF14.0
aI1
aI01
aI01
aI00
aI00
aI00
aI00
aI00
aI00
aa(lp4802
I165938
aF21.7
aF76.992
aVp4
p4803
aS'dejavusans'
p4804
aS'#000000'
p4805
aF11.0
aI1
aI01
aI00
aI00
aI00
aI00
aI00
aI00
aI00
aa(lp4806
I234378
aF96.48307692307692
aF76.992
ag4803
aS'dejavusans'
p4807
aS'#000000'
p4808
aF11.0
aI1
aI00
aI00
aI00
aI00
aI00
aI00
aI00
aI00
aa(lp4809
I234378
aF57.7
aF89.792
aVp4
p4810
aS'dejavusans'
p4811
aS'#000000'
p4812
aF11.0
aI1
aI01
aI01
aI00
aI00
aI00
aI00
aI00
aI00
aa(lp4813
I131049
aF88.787
aF89.792
aVp4
p4814
aS'dejavusans'
p4815
aS'#000000'
p4816
aF11.0
aI0
aI00
aI00
aI00
aI00
aI00
aI00
aI00
aI00
aa(lp4817
I118838
aF117.86
aF89.792
aVp4
p4818
aS'dejavusans'
p4819
aS'#000000'
p4820
aF11.0
aI0
aI01
aI00
aI00
aI00
aI00
aI00
aI00
aI00
aa(lp4821
I163492
aF148.33
aF89.792
aVp4
p4822
aS'dejavusans'
p4823
aS'#000000'
p4824
aF11.0
aI0
aI01
aI00
aI00
aI00
aI00
aI00
aI00
aI00
aa(lp4825
I153079
aF189.866
aF89.792
aVp4
p4826
aS'dejavusans'
p4827
aS'#000000'
p4828
aF11.0
aI0
aI01
aI00
aI00
aI00
aI00
aI00
aI00
aI00
aa(lp4829
I144489
aF248.804
aF89.792
aVp4
p4830
aS'dejavusans'
p4831
aS'#000000'
p4832
aF11.0
aI0
aI00
aI00
aI00
aI00
aI00
aI00
aI00
aI00
aa(lp4833
I43052
aF262.884
aF89.792
aVp4
p4834
aS'dejavusans'
p4835
aS'#000000'
p4836
aF11.0
aI0
aI01
aI00
aI00
aI00
aI00
aI00
aI00
aI00
aa(lp4837
I234378
aF321.98400000000004
aF89.792
ag4834
aS'dejavusans'
p4838
aS'#000000'
p4839
aF11.0
aI0
aI00
aI00
aI00
aI00
aI00
aI00
aI00
aI00
aa(lp4840
I118838
aF331.381
aF89.792
aVp4
p4841
aS'dejavusans'
p4842
aS'#000000'
p4843
aF11.0
aI0
aI01
aI00
aI00
aI00
aI00
aI00
aI00
aI00
aa(lp4844
I163492
aF361.939
aF89.792
aVp4
p4845
aS'dejavusans'
p4846
aS'#000000'
p4847
aF11.0
aI0
aI01
aI00
aI00
aI00
aI00
aI00
aI00
aI00
aa(lp4848
I234378
aF397.5412857142857
aF89.792
ag4845
aS'dejavusans'
p4849
aS'#000000'
p4850
aF11.0
aI0
aI00
aI00
aI00
aI00
aI00
aI00
aI00
aI00
aa(lp4851
I164802
aF406.962
aF89.792
aVp4
p4852
aS'dejavusans'
p4853
aS'#000000'
p4854
aF11.0
aI0
aI01
aI00
aI00
aI00
aI00
aI00
aI00
aI00
aa(lp4855
I135639
aF437.41
aF89.792
aVp4
p4856
aS'dejavusans'
p4857
aS'#000000'
p4858
aF11.0
aI0
aI00
aI00
aI00
aI00
aI00
aI00
aI00
aI00
aa(lp4859
I234378
aF450.885
aF89.792
aVp4
p4860
aS'dejavusans'
p4861
aS'#000000'
p4862
aF11.0
aI0
aI00
aI00
aI01
aI01
aI01
aI00
aI00
aI00
aa(lp4863
I234378
aF476.0618
aF89.792
ag4860
aS'dejavusans'
p4864
aS'#000000'
p4865
aF11.0
aI0
aI00
aI00
aI00
aI00
aI00
aI00
aI00
aI00
aa(lp4866
I27780
aF57.7
aF103.392
aVp4
p4867
aS'dejavusans'
p4868
aS'#000000'
p4869
aF11.0
aI1
aI01
aI01
aI00
aI00
aI00
aI00
aI00
aI00
aa(lp4870
I234378
aF64.4485
aF103.392
ag4867
aS'dejavusans'
p4871
aS'#000000'
p4872
aF11.0
aI1
aI00
aI00
aI00
aI00
aI00
aI00
aI00
aI00
aa(lp4873
I234378
aF71.197
aF103.392
ag4867
aS'dejavusans'
p4874
aS'#000000'
p4875
aF11.0
aI1
aI01
aI00
aI00
aI00
aI00
aI00
aI00
aI00
aa(lp4876
I109432
aF88.577
aF103.392
aVp4
p4877
aS'dejavusans'
p4878
aS'#000000'
p4879
aF11.0
aI1
aI01
aI00
aI00
aI00
aI00
aI00
aI00
aI00
aa(lp4880
I192028
aF158.713
aF103.392
aVp4
p4881
aS'dejavusans'
p4882
aS'#000000'
p4883
aF11.0
aI1
aI01
aI00
aI00
aI00
aI00
aI00
aI00
aI00
aa(lp4884
I131049
aF209.787
aF103.392
aVp4
p4885
aS'dejavusans'
p4886
aS'#000000'
p4887
aF11.0
aI0
aI00
aI00
aI00
aI00
aI00
aI00
aI00
aI00
aa(lp4888
I234378
aF238.86
aF103.392
aVp4
p4889
aS'dejavusans'
p4890
aS'#000000'
p4891
aF11.0
aI0
aI01
aI00
aI00
aI00
aI00
aI00
aI00
aI00
aa(lp4892
I153079
aF288.195
aF103.392
aVp4
p4893
aS'dejavusans'
p4894
aS'#000000'
p4895
aF11.0
aI0
aI01
aI00
aI00
aI00
aI00
aI00
aI00
aI00
aa(lp4896
I234378
aF341.775
aF103.392
ag4893
aS'dejavusans'
p4897
aS'#000000'
p4898
aF11.0
aI0
aI00
aI00
aI00
aI00
aI00
aI00
aI00
aI00
aa(lp4899
I118838
aF350.62
aF103.392
aVp4
p4900
aS'dejavusans'
p4901
aS'#000000'
p4902
aF11.0
aI0
aI01
aI00
aI00
aI00
aI00
aI00
aI00
aI00
aa(lp4903
I163492
aF381.178
aF103.392
aVp4
p4904
aS'dejavusans'
p4905
aS'#000000'
p4906
aF11.0
aI0
aI01
aI00
aI00
aI00
aI00
aI00
aI00
aI00
aa(lp4907
I234378
aF416.7048571428571
aF103.392
ag4904
aS'dejavusans'
p4908
aS'#000000'
p4909
aF11.0
aI0
aI00
aI00
aI00
aI00
aI00
aI00
aI00
aI00
aa(lp4910
I164802
aF426.113
aF103.392
aVp4
p4911
aS'dejavusans'
p4912
aS'#000000'
p4913
aF11.0
aI0
aI01
aI00
aI00
aI00
aI00
aI00
aI00
aI00
aa(lp4914
I135639
aF456.561
aF103.392
aVp4
p4915
aS'dejavusans'
p4916
aS'#000000'
p4917
aF11.0
aI0
aI00
aI00
aI00
aI00
aI00
aI00
aI00
aI00
aa(lp4918
I234378
aF470.124
aF103.392
aVp4
p4919
aS'dejavusans'
p4920
aS'#000000'
p4921
aF11.0
aI0
aI00
aI00
aI01
aI01
aI01
aI00
aI00
aI00
aa(lp4922
I234378
aF495.30080000000004
aF103.392
ag4919
aS'dejavusans'
p4923
aS'#000000'
p4924
aF11.0
aI0
aI00
aI00
aI00
aI00
aI00
aI00
aI00
aI00
aa(lp4925
I7520
aF21.7
aF129.908
aVp4
p4926
aS'dejavusans'
p4927
aS'#000000'
p4928
aF14.0
aI1
aI01
aI01
aI00
aI00
aI00
aI00
aI00
aI00
aa(lp4929
I234378
aF99.492
aF129.908
aVp4
p4930
aS'dejavusans'
p4931
aS'#000000'
p4932
aF14.0
aI1
aI01
aI01
aI00
aI00
aI00
aI00
aI00
aI00
aa(lp4933
I28425
aF39.7
aF159.192
aVp4
p4934
aS'dejavusans'
p4935
aS'#000000'
p4936
aF11.0
aI1
aI01
aI00
aI00
aI00
aI00
aI00
aI00
aI00
aa(lp4937
I118366
aF111.739
aF159.192
aVp4
p4938
aS'dejavusans'
p4939
aS'#000000'
p4940
aF11.0
aI1
aI01
aI00
aI00
aI00
aI00
aI00
aI00
aI00
aa(lp4941
I234378
aF159.40200000000002
aF159.192
ag4938
aS'dejavusans'
p4942
aS'#000000'
p4943
aF11.0
aI1
aI00
aI00
aI00
aI00
aI00
aI00
aI00
aI00
aa(lp4944
I27780
aF179.2
aF159.192
aVp4
p4945
aS'dejavusans'
p4946
aS'#000000'
p4947
aF11.0
aI0
aI01
aI01
aI00
aI00
aI00
aI00
aI00
aI00
aa(lp4948
I234378
aF185.89849999999998
aF159.192
ag4945
aS'dejavusans'
p4949
aS'#000000'
p4950
aF11.0
aI0
aI00
aI00
aI01
aI01
aI01
aI00
aI00
aI00
aa(lp4951
I234378
aF197.29549999999998
aF159.192
ag4945
aS'dejavusans'
p4952
aS'#000000'
p4953
aF11.0
aI0
aI00
aI00
aI00
aI00
aI00
aI00
aI00
aI00
aa(lp4954
I234378
aF202.99399999999997
aF159.192
ag4945
aS'dejavusans'
p4955
aS'#000000'
p4956
aF11.0
aI0
aI00
aI00
aI01
aI01
aI01
aI00
aI00
aI00
aa(lp4957
I234378
aF214.39099999999996
aF159.192
ag4945
aS'dejavusans'
p4958
aS'#000000'
p4959
aF11.0
aI0
aI00
aI00
aI00
aI00
aI00
aI00
aI00
aI00
aa(lp4960
I234378
aF220.08949999999996
aF159.192
ag4945
aS'dejavusans'
p4961
aS'#000000'
p4962
aF11.0
aI0
aI01
aI00
aI00
aI00
aI00
aI00
aI00
aI00
aa(lp4963
I234378
aF251.97899999999993
aF159.192
ag4945
aS'dejavusans'
p4964
aS'#000000'
p4965
aF11.0
aI0
aI00
aI00
aI00
aI00
aI00
aI00
aI00
aI00
aa(lp4966
I234378
aF265.67749999999995
aF159.192
ag4945
aS'dejavusans'
p4967
aS'#000000'
p4968
aF11.0
aI0
aI01
aI00
aI00
aI00
aI00
aI00
aI00
aI00
aa(lp4969
I234378
aF280.16999999999996
aF159.192
ag4945
aS'dejavusans'
p4970
aS'#000000'
p4971
aF11.0
aI0
aI00
aI00
aI00
aI00
aI00
aI00
aI00
aI00
aa(lp4972
I118838
aF308.153
aF159.192
aVp4
p4973
aS'dejavusans'
p4974
aS'#000000'
p4975
aF11.0
aI0
aI01
aI00
aI00
aI00
aI00
aI00
aI00
aI00
aa(lp4976
I163492
aF338.623
aF159.192
aVp4
p4977
aS'dejavusans'
p4978
aS'#000000'
p4979
aF11.0
aI0
aI01
aI00
aI00
aI00
aI00
aI00
aI00
aI00
aa(lp4980
I234378
aF377.12514285714286
aF159.192
ag4977
aS'dejavusans'
p4981
aS'#000000'
p4982
aF11.0
aI0
aI00
aI00
aI01
aI01
aI01
aI00
aI00
aI00
aa(lp4983
I234378
aF414.62728571428573
aF159.192
ag4977
aS'dejavusans'
p4984
aS'#000000'
p4985
aF11.0
aI0
aI00
aI00
aI00
aI00
aI00
aI00
aI00
aI00
aa(lp4986
I164802
aF429.615
aF159.192
aVp4
p4987
aS'dejavusans'
p4988
aS'#000000'
p4989
aF11.0
aI0
aI01
aI01
aI00
aI00
aI00
aI00
aI00
aI00
aa(lp4990
I234378
aF457.84833333333336
aF159.192
ag4987
aS'dejavusans'
p4991
aS'#000000'
p4992
aF11.0
aI0
aI00
aI00
aI00
aI00
aI00
aI00
aI00
aI00
aa(lp4993
I125482
aF39.7
aF171.992
aVp4
p4994
aS'dejavusans'
p4995
aS'#000000'
p4996
aF11.0
aI1
aI01
aI00
aI00
aI00
aI00
aI00
aI00
aI00
aa(lp4997
I59734
aF79.178
aF171.992
ag4994
aS'dejavusans'
p4998
aS'#000000'
p4999
aF11.0
aI1
aI00
aI00
aI00
aI00
aI00
aI00
aI00
aI00
aa(lp5000
I158577
aF94.942
aF171.992
aVp4
p5001
aS'dejavusans'
p5002
aS'#000000'
p5003
aF11.0
aI1
aI01
aI00
aI00
aI00
aI00
aI00
aI00
aI00
aa(lp5004
I234378
aF126.91239999999999
aF171.992
ag5001
aS'dejavusans'
p5005
aS'#000000'
p5006
aF11.0
aI1
aI00
aI00
aI00
aI00
aI00
aI00
aI00
aI00
aa(lp5007
I234378
aF232.636
aF171.992
aVp4
p5008
aS'dejavusans'
p5009
aS'#000000'
p5010
aF11.0
aI0
aI01
aI00
aI00
aI00
aI00
aI00
aI00
aI00
aa(lp5011
I234378
aF291.629
aF171.992
aVp4
p5012
aS'dejavusans'
p5013
aS'#000000'
p5014
aF11.0
aI0
aI01
aI00
aI00
aI00
aI00
aI00
aI00
aI00
aa(lp5015
I234378
aF39.7
aF184.792
aVp4
p5016
aS'dejavusans'
p5017
aS'#000000'
p5018
aF11.0
aI1
aI01
aI00
aI00
aI00
aI00
aI00
aI00
aI00
aa(lp5019
I136346
aF110.749
aF184.792
aVp4
p5020
aS'dejavusans'
p5021
aS'#000000'
p5022
aF11.0
aI1
aI01
aI00
aI00
aI00
aI00
aI00
aI00
aI00
aa(lp5023
I234378
aF149.304
aF184.792
ag5020
aS'dejavusans'
p5024
aS'#000000'
p5025
aF11.0
aI1
aI00
aI00
aI00
aI00
aI00
aI00
aI00
aI00
aa(lp5026
I58002
aF179.2
aF184.792
aVp4
p5027
aS'dejavusans'
p5028
aS'#000000'
p5029
aF11.0
aI0
aI01
aI00
aI00
aI00
aI00
aI00
aI00
aI00
aa(lp5030
I234378
aF217.01662499999998
aF184.792
ag5027
aS'dejavusans'
p5031
aS'#000000'
p5032
aF11.0
aI0
aI00
aI00
aI00
aI00
aI00
aI00
aI00
aI00
aa(lp5033
I144532
aF225.906
aF184.792
aVp4
p5034
aS'dejavusans'
p5035
aS'#000000'
p5036
aF11.0
aI0
aI01
aI00
aI00
aI00
aI00
aI00
aI00
aI00
aa(lp5037
I234378
aF252.361
aF184.792
ag5034
aS'dejavusans'
p5038
aS'#000000'
p5039
aF11.0
aI0
aI00
aI00
aI00
aI00
aI00
aI00
aI00
aI00
aa(lp5040
I125387
aF261.139
aF184.792
aVp4
p5041
aS'dejavusans'
p5042
aS'#000000'
p5043
aF11.0
aI0
aI01
aI00
aI00
aI00
aI00
aI00
aI00
aI00
aa(lp5044
I234378
aF300.110625
aF184.792
ag5041
aS'dejavusans'
p5045
aS'#000000'
p5046
aF11.0
aI0
aI00
aI00
aI00
aI00
aI00
aI00
aI00
aI00
aa(lp5047
I212271
aF39.7
aF197.592
aVp4
p5048
aS'dejavusans'
p5049
aS'#000000'
p5050
aF11.0
aI1
aI01
aI00
aI00
aI00
aI00
aI00
aI00
aI00
aa(lp5051
I12510
aF87.561
aF197.592
aVp4
p5052
aS'dejavusans'
p5053
aS'#000000'
p5054
aF11.0
aI1
aI01
aI00
aI00
aI00
aI00
aI00
aI00
aI00
aa(lp5055
I234378
aF125.68071428571429
aF197.592
ag5052
aS'dejavusans'
p5056
aS'#000000'
p5057
aF11.0
aI1
aI00
aI00
aI00
aI00
aI00
aI00
aI00
aI00
aa(lp5058
I118865
aF179.2
aF197.592
aVp4
p5059
aS'dejavusans'
p5060
aS'#000000'
p5061
aF11.0
aI0
aI01
aI00
aI00
aI00
aI00
aI00
aI00
aI00
aa(lp5062
I234378
aF282.5
aF235.992
aVp4
p5063
aS'dejavusans'
p5064
aS'#000000'
p5065
aF11.0
aI1
aI00
aI00
aI00
aI00
aI00
aI00
aI00
aI00
aa(lp5066
I234378
aF289.68666666666667
aF235.992
ag5063
aS'dejavusans'
p5067
aS'#000000'
p5068
aF11.0
aI1
aI01
aI01
aI00
aI00
aI00
aI00
aI00
aI00
aa(lp5069
I234378
aF351.052
aF235.992
aVp4
p5070
aS'dejavusans'
p5071
aS'#000000'
p5072
aF11.0
aI1
aI01
aI01
aI00
aI00
aI00
aI00
aI00
aI00
aa(lp5073
I234378
aF413.91333333333336
aF235.992
ag5070
aS'dejavusans'
p5074
aS'#000000'
p5075
aF11.0
aI1
aI00
aI00
aI00
aI00
aI00
aI00
aI00
aI00
aa(lp5076
I1
aI1
aI0
aI0
aI0
aI0
aI0
aI0
aI0
aI0
aI0
aI0
aI0
aI0
aI0
aI0
aI0
aI0
aI0
aI0
aI0
aI0
aI0
aI0
aI0
aI0
aI0
aI0
aI0
aI0
aI0
aI0
aI0
aI0
aI0
aI0
aI0
aI1
aI1
aI1
aI1
aI1
aI1
aI1
aI0
aI0
aI0
aI0
aI0
aI0
aI0
aI0
aI0
aI0
aI0
aI0
aI0
aI0
aI0
aI0
aI0
aI0
aI0
aI0
aI0
aI0
aI0
aI0
aI0
aI0
aI0
aI0
aI0
aI0
aI0
aI0
aI0
aI0
aI0
aI0
aI0
aI0
aI0
aI0
aI0
aI0
aI0
aI0
aI0
aI0
aI0
aI0
aI0
aI0
aI0
aI0
aI0
aI0
aI0
aI0
aI0
aI0
aI0
aI0
aI0
aI0
aI0
aI0
aI0
aI0
aI0
aI0
aI0
aI0
aI0
aI0
aI0
aI0
aI0
aI0
aI0
aI0
aI0
aI0
aI0
aI0
aI0
aI0
aI0
aI0
aI0
aI0
aI0
aI0
aI0
aI0
aI0
aI0
aI0
aI0
aI0
aI0
aI0
aI0
aI0
aI0
aI0
aI0
aI0
aI0
aI0
aI0
aI0
aI0
aI0
aI0
aI0
aI0
aI0
aI0
aI0
aI0
aI0
aI0
aI0
aI0
aI0
aI0
aI0
aI0
aI0
aI0
aI0
aI0
aI0
aI0
aI0
aI0
aI0
aI0
aI0
aI0
aI0
aI0
aI0
aI0
aI0
aI0
aI0
aI0
aI0
aI0
aI0
aI0
aI0
aI0
aI0
aI0
aI0
aI0
aI0
aI0
aI0
aI0
aI0
aI0
aI0
aI0
aI0
aI0
aI0
aI0
aI0
aI0
aI0
aI0
aI0
aI0
aI0
aI0
aI0
aI0
aI0
aI0
aI0
aI0
aI0
aI0
aI0
aI0
aI0
aI0
aI0
aI0
aI0
aI0
aI0
aI0
aI0
aI0
aI0
aI0
aI0
aI0
aI0
aI0
aI0
aI0
aI0
aI0
aI0
aI0
aI0
aI0
aI0
aI0
aI0
aI0
aI0
aI0
aI0
aI0
aI0
aI0
aI0
aI0
aI0
aI0
aI0
aI0
aI0
aI0
aI0
aI0
aI0
aI0
aI0
aI0
aI0
aI0
aI0
aI0
aI0
aI0
aI0
aI0
aI0
aI0
aI0
aI0
aI0
aI0
aI0
aI0
aI0
aI0
aI0
aI0
aI0
aI0
aI0
aI0
aI0
aI0
aI0
aI0
aI0
aI0
aI0
aI0
aI0
aI0
aI0
aI0
aI0
aI0
aI0
aI0
aI0
aI0
aI0
aI0
aI0
aI0
aI0
aI0
aI0
aI0
aI0
aI0
aI0
aI0
aI0
aI0
aI0
aI0
aI0
aI0
aI0
aI0
aI0
aI0
aI0
aI0
aI0
aI0
aI0
aI0
aI0
aI0
aI0
aI0
aI0
aI0
aI0
aI0
aI0
aI0
aI0
aI0
aI0
aI0
aI0
aI0
aI0
aI0
aI0
aI0
aI0
aI0
aI0
aI0
aI0
aI0
aI0
aI0
aI0
aI0
aI0
aI0
aI0
aI0
aI0
aI0
aI0
aI0
aI0
aI0
aI0
aI0
aI0
aI0
aI1
aI1
aI0
aI0
aI0
aI0
aI0
aI0
aI0
aI0
aI0
aI0
aI0
aI0
aI0
aI0
aI0
aI0
aI0
aI0
aI0
aI0
aI0
aI0
aI0
aI0
aI0
aI0
aI0
aI0
aI0
aI0
aI0
aI0
aI0
aI0
aI0
aI0
aI0
aI0
aI0
aI0
aI0
aI0
aI0
aI0
aI0
aI0
aI0
aI0
aI1
aI1
aI0
aI0
aI0
aI0
aI0
aI0
aI0
aI0
aI0
aI0
aI0
aI0
aI0
aI0
aI0
aI0
aI0
aI0
aI0
aI0
aI0
aI0
aI0
aI0
aI0
aI0
aI0
aI0
aI0
aI0
aI0
aI0
aI0
aI0
aI0
aI0
aI0
aI0
aI0
aI0
aI0
aI0
aI0
aI0
aI0
aI0
aI0
aI0
aI0
aI0
aI0
aI0
aI0
aI0
aI0
aI0
aI0
aI0
aI0
aI0
aI0
aI0
aI0
aI0
aI0
aI0
aI0
aI0
aI0
aI0
aI0
aI0
aI0
aI0
aI0
aI0
aI0
aI0
aI0
aI0
aI0
aI0
aI0
aI0
aI0
aI1
aI1
aI0
aI0
aI0
aI0
aI0
aI0
aI0
aI0
aI0
aI0
aI0
aI0
aI0
aI0
aI0
aI0
aI0
aI0
aI0
aI0
aI0
aI0
aI0
aI0
aI0
aI0
aI0
aI0
aI0
aI0
aI0
aI0
aI0
aI0
aI0
aI0
aI0
aI0
aI0
aI0
aI0
aI0
aI0
aI0
aI0
aI0
aI0
aI0
aI0
aI0
aI0
aI0
aI0
aI0
aI0
aI0
aI0
aI0
aI0
aI0
aI0
aI0
aI0
aI0
aI0
aI0
aI0
aI0
aI0
aI0
aI0
aI0
aI0
aI0
aI0
aI0
aI0
aI0
aI0
aI0
aI0
aI0
aI0
aI0
aI0
aI0
aI0
aI0
aI0
aI0
aI0
aI0
aI0
aI0
aI0
aI0
aI0
aI0
aI0
aI0
aI0
aI0
aI0
aI0
aI0
aI0
aI0
aI0
aI0
aI0
aI0
aI0
aI0
aI0
aI0
aI0
aI0
aI0
aI0
aI0
aI0
aI0
aI0
aI0
aI0
aI0
aI0
aI0
aI0
aI0
aI0
aI0
aI0
aI0
aI0
aI0
aI0
aI0
aI0
aI0
aI0
aI0
aI0
aI0
aI0
aI0
aI0
aI0
aI0
aI0
aI0
aI0
aI0
aI0
aI0
aI0
aI0
aI0
aI0
aI0
aI0
aI0
aI0
aI0
aI0
aI0
aI0
aI0
aI0
aI0
aI0
aI0
aI0
aI0
aI0
aI0
aI0
aI0
aI0
aI0
aI0
aI0
aI0
aI0
aI0
aI0
aI0
aI0
aI0
aI0
aI0
aI0
aI0
aI0
aI0
aI0
aI0
aI0
aI0
aI0
aI0
aI0
aI0
aI0
aI0
aI0
aI0
aI0
aI0
aI0
aI0
aI0
aI0
aI0
aI0
aI0
aI0
aI0
aI0
aI0
aI0
aI0
aI0
aI0
aI0
aI0
aI0
aI0
aI0
aI0
aI0
aI0
aI0
aI0
aI0
aI0
aI0
aI0
aI0
aI0
aI0
aI0
aI0
aI0
aI0
aI0
aI0
aI0
aI0
aI0
aI0
aI0
aI0
aI0
aI0
aI0
aI0
aI0
aI0
aI0
aI0
aI0
aI0
aI0
aI0
aI0
aI0
aI0
aI0
aI0
aI0
aI0
aI0
aI0
aI0
aI0
aI0
aI0
aI0
aI0
aI0
aI0
aI0
aI0
aI0
aI0
aI0
aI0
aI0
aI0
aI0
aI0
aI0
aI0
aI0
aI0
aI0
aI0
aI0
aI0
aI0
aI0
aI0
aI0
aI0
aI0
aI0
aI0
aI0
aI0
aI0
aI0
aI0
aI0
aI0
aI0
aI0
aI0
aI0
aI0
aI0
aI0
aI0
aI0
aI0
aI0
aI0
aI0
aI0
aI0
aI0
aI0
aI0
aI0
aI0
aI0
aI0
aI0
aI0
aI0
aI0
aI0
aI0
aI0
aI0
aI0
aI0
aI0
aI0
aI0
aI0
aI0
aI0
aI0
aI0
aI0
aI0
aI0
aI0
aI0
aI0
aI0
aI0
aI0
aI0
aI0
aI0
aI0
aI0
aI0
aI0
aI0
aI0
aI0
aI0
aI0
aI0
aI0
aI0
aI0
aI0
aI0
aI0
aI0
aI0
aI0
aI0
aI0
aI0
aI0
aI0
aI0
aI0
aI0
aI0
aI0
aI0
aI0
aI0
aI0
aI0
aI0
aI0
aI0
aI0
aI0
aI0
aI0
aI0
aI0
aI0
aI0
aI0
aI0
aI0
aI0
aI0
aI0
aI0
aI0
aI0
aI0
aI0
aI0
aI0
aI0
aI0
aI0
aI0
aI0
aI0
aI0
aI0
aI0
aI0
aI0
aI0
aI0
aI0
aI0
aI0
aI0
aI0
aI0
aI0
aI0
aI0
aI0
aI0
aI0
aI0
aI0
aI0
aI0
aI0
aI0
aI0
aI0
aI0
aI0
aI0
aI0
aI0
aI0
aI0
aI0
aI0
aI0
aI0
aI0
aI0
aI0
aI0
aI0
aI0
aI0
aI0
aI0
aI0
aI0
aI0
aI0
aI0
aI0
aI0
aI0
aI0
aI0
aI0
aI0
aI0
aI0
aI0
aI0
aI0
aI0
aI0
aI0
aI0
aI0
aI0
aI0
aI0
aI0
aI0
aI0
aI0
aI0
aI0
aI0
aI0
aI0
aI0
aI0
aI0
aI0
aI0
aI0
aI0
aI0
aI0
aI0
aI0
aI0
aI0
aI0
aI0
aI0
aI0
aI0
aI0
aI0
aI0
aI0
aI0
aI0
aI0
aI0
aI0
aI0
aI0
aI0
aI0
aI0
aI0
aI0
aI0
aI0
aI0
aI0
aI0
aI0
aI0
aI0
aI0
aI0
aI0
aI0
aI0
aI0
aI0
aI0
aI0
aI0
aI0
aI0
aI0
aI0
aI0
aI0
aI0
aI0
aI0
aI0
aI0
aI0
aI0
aI0
aI0
aI0
aI0
aI0
aI0
aI0
aI0
aI0
aI0
aI0
aI0
aI0
aI0
aI0
aI0
aI0
aI0
aI0
aI0
aI0
aI0
aI0
aI0
aI0
aI0
aI0
aI0
aI0
aI0
aI0
aI0
aI0
aI0
aI0
aI0
aI0
aI0
aI0
aI0
aI0
aI0
aI0
aI0
aI0
aI0
aI0
aI0
aI0
aI0
aI0
aI0
aI0
aI0
aI0
aI0
aI0
aI0
aI0
aI0
aI0
aI0
aI0
aI0
aI0
aI0
aI0
aI0
aI0
aI0
aI0
aI0
aI0
aI0
aI0
aI0
aI0
aI0
aI0
aI0
aI0
aI0
aI0
aI0
aI0
aI0
aI0
aI0
aI0
aI0
aI0
aI0
aI0
aI0
aI0
aI0
aI0
aI0
aI0
aI0
aI0
aI0
aI0
aI0
aI0
aI0
aI0
aI0
aI0
aI0
aI0
aI0
aI0
aI0
aI0
aI0
aI0
aI0
aI0
aI0
aI0
aI0
aI0
aI0
aI0
aI0
aI0
aI0
aI0
aI0
aI0
aI0
aI0
aI0
aI0
aI0
aI0
aI0
aI0
aI0
aI0
aI0
aI0
aI0
aI0
aI0
aI0
aI0
aI0
aI0
aI0
aI0
aI0
aI0
aI0
aI0
aI0
aI1
aI0
aI0
aI0
aI0
aI0
aI0
aI0
aI0
aI0
aI0
aI0
aI0
aI0
aI0
aI0
aI0
aI0
aI0
aI0
aI0
aI0
aI0
aI0
aI0
aI0
aI0
aI0
aI0
aI0
aI0
aI0
aI0
aI0
aI1
aI1
aI0
aI0
aI0
aI0
aI0
aI0
aI0
aI0
aI0
aI0
aI0
aI0
aI0
aI0
aI0
aI0
aI0
aI0
aI0
aI0
aI0
aI0
aI0
aI0
aI0
aI0
aI0
aI0
aI0
aI0
aI0
aI0
aI0
aI0
aI0
aI0
aI0
aI0
aI0
aI0
aI0
atp5077
.