((lp0
(lp1
I234378
aF247.4
aF27.058
aVp1
p2
aS'nimbussanl'
p3
aS'#000000'
p4
aF14.0
aI0
aI01
aI01
aI00
aI00
aI00
aI00
aI00
aI00
aa(lp5
I234378
aF293.53923076923076
aF27.058
ag2
aS'nimbussanl'
p6
aS'#000000'
p7
aF14.0
aI0
aI01
aI01
aI00
aI00
aI00
aI00
aI00
aI00
aa(lp8
I71195
aF376.7
aF54.47
aVp1
p9
aS'nimbussanl'
p10
aS'#000000'
p11
aF10.0
aI0
aI01
aI00
aI00
aI00
aI00
aI00
aI00
aI00
aa(lp12
I201816
aF395.9738461538461
aF54.47
ag9
aS'nimbussanl'
p13
aS'#000000'
p14
aF10.0
aI0
aI00
aI00
aI00
aI00
aI00
aI00
aI00
aI00
aa(lp15
I166593
aF406.1107692307692
aF54.47
ag9
aS'nimbussanl'
p16
aS'#000000'
p17
aF10.0
aI0
aI01
aI01
aI00
aI00
aI00
aI00
aI00
aI00
aa(lp18
I234378
aF411.67923076923074
aF54.47
ag9
aS'nimbussanl'
p19
aS'#000000'
p20
aF10.0
aI0
aI00
aI00
aI01
aI01
aI01
aI00
aI00
aI00
aa(lp21
I234378
aF376.7
aF66.87
aVp1
p22
aS'nimbussanl'
p23
aS'#000000'
p24
aF10.0
aI0
aI01
aI00
aI00
aI00
aI00
aI00
aI00
aI00
aa(lp25
I234378
aF406.7115789473684
aF66.87
ag22
aS'nimbussanl'
p26
aS'#000000'
p27
aF10.0
aI0
aI01
aI00
aI00
aI00
aI00
aI00
aI00
aI00
aa(lp28
I27780
aF456.0642105263158
aF66.87
ag22
aS'nimbussanl'
p29
aS'#000000'
p30
aF10.0
aI0
aI01
aI01
aI00
aI00
aI00
aI00
aI00
aI00
aa(lp31
I234378
aF460.89947368421053
aF66.87
ag22
aS'nimbussanl'
p32
aS'#000000'
p33
aF10.0
aI0
aI00
aI00
aI00
aI00
aI00
aI00
aI00
aI00
aa(lp34
I131239
aF465.7347368421053
aF66.87
ag22
aS'nimbussanl'
p35
aS'#000000'
p36
aF10.0
aI0
aI01
aI01
aI00
aI00
aI00
aI00
aI00
aI00
aa(lp37
I234378
aF468.57000000000005
aF66.87
ag22
aS'nimbussanl'
p38
aS'#000000'
p39
aF10.0
aI0
aI00
aI00
aI00
aI00
aI00
aI00
aI00
aI00
aa(lp40
I111618
aF476.4052631578948
aF66.87
ag22
aS'nimbussanl'
p41
aS'#000000'
p42
aF10.0
aI0
aI01
aI00
aI00
aI00
aI00
aI00
aI00
aI00
aa(lp43
I234378
aF495.7463157894738
aF66.87
ag22
aS'nimbussanl'
p44
aS'#000000'
p45
aF10.0
aI0
aI00
aI00
aI00
aI00
aI00
aI00
aI00
aI00
aa(lp46
I234378
aF501.58157894736854
aF66.87
ag22
aS'nimbussanl'
p47
aS'#000000'
p48
aF10.0
aI0
aI01
aI00
aI00
aI00
aI00
aI00
aI00
aI00
aa(lp49
I234378
aF376.7
aF79.27
aVp1
p50
aS'nimbussanl'
p51
aS'#000000'
p52
aF10.0
aI0
aI01
aI00
aI00
aI00
aI00
aI00
aI00
aI00
aa(lp53
I22484
aF402.4708333333333
aF79.27
ag50
aS'nimbussanl'
p54
aS'#000000'
p55
aF10.0
aI0
aI00
aI00
aI00
aI00
aI00
aI00
aI00
aI00
aa(lp56
I234378
aF412.37916666666666
aF79.27
ag50
aS'nimbussanl'
p57
aS'#000000'
p58
aF10.0
aI0
aI00
aI00
aI00
aI00
aI00
aI00
aI00
aI00
aa(lp59
I234378
aF417.3333333333333
aF79.27
ag50
aS'nimbussanl'
p60
aS'#000000'
p61
aF10.0
aI0
aI01
aI00
aI00
aI00
aI00
aI00
aI00
aI00
aa(lp62
I234378
aF442.10416666666663
aF79.27
ag50
aS'nimbussanl'
p63
aS'#000000'
p64
aF10.0
aI0
aI00
aI00
aI00
aI00
aI00
aI00
aI00
aI00
aa(lp65
I234378
aF447.0583333333333
aF79.27
ag50
aS'nimbussanl'
p66
aS'#000000'
p67
aF10.0
aI0
aI00
aI00
aI01
aI00
aI00
aI00
aI00
aI00
aa(lp68
I234378
aF502.5541666666666
aF79.27
ag50
aS'nimbussanl'
p69
aS'#000000'
p70
aF10.0
aI0
aI00
aI00
aI00
aI00
aI00
aI00
aI00
aI00
aa(lp71
I234378
aF509.32499999999993
aF79.27
ag50
aS'nimbussanl'
p72
aS'#000000'
p73
aF10.0
aI0
aI00
aI00
aI00
aI00
aI00
aI00
aI00
aI00
aa(lp74
I234378
aF532.2791666666666
aF79.27
ag50
aS'nimbussanl'
p75
aS'#000000'
p76
aF10.0
aI0
aI00
aI00
aI00
aI00
aI00
aI00
aI00
aI00
aa(lp77
I108443
aF376.7
aF91.97
aVp1
p78
aS'nimbussanl'
p79
aS'#000000'
p80
aF10.0
aI0
aI01
aI00
aI00
aI00
aI00
aI00
aI00
aI00
aa(lp81
I234378
aF407.41714285714284
aF91.97
ag78
aS'nimbussanl'
p82
aS'#000000'
p83
aF10.0
aI0
aI00
aI00
aI00
aI00
aI00
aI00
aI00
aI00
aa(lp84
I234378
aF414.53666666666663
aF91.97
ag78
aS'nimbussanl'
p85
aS'#000000'
p86
aF10.0
aI0
aI00
aI00
aI01
aI01
aI01
aI00
aI00
aI00
aa(lp87
I167874
aF90.1
aF111.644
aVp1
p88
aS'dejavuserif'
p89
aS'#000000'
p90
aF12.0
aI1
aI01
aI01
aI00
aI00
aI00
aI00
aI00
aI00
aa(lp91
I127485
aF151.336
aF111.644
aVp1
p92
aS'dejavuserif'
p93
aS'#000000'
p94
aF12.0
aI1
aI01
aI01
aI00
aI00
aI00
aI00
aI00
aI00
aa(lp95
I77936
aF95.9
aF130.57
aVp1
p96
aS'nimbussanl'
p97
aS'#000000'
p98
aF10.0
aI0
aI01
aI00
aI00
aI00
aI00
aI00
aI00
aI00
aa(lp99
I87610
aF95.9
aF150.71
aVp1
p100
aS'nimbussanl'
p101
aS'#000000'
p102
aF10.0
aI0
aI01
aI00
aI00
aI00
aI00
aI00
aI00
aI00
aa(lp103
I190806
aF141.25
aF150.71
aVp1
p104
aS'nimbussanl'
p105
aS'#000000'
p106
aF10.0
aI0
aI00
aI00
aI00
aI00
aI00
aI00
aI00
aI00
aa(lp107
I166593
aF163.22
aF150.71
aVp1
p108
aS'nimbussanl'
p109
aS'#000000'
p110
aF10.0
aI0
aI00
aI00
aI00
aI00
aI00
aI00
aI00
aI00
aa(lp111
I234378
aF179.2
aF150.71
aVp1
p112
aS'nimbussanl'
p113
aS'#000000'
p114
aF10.0
aI0
aI00
aI00
aI00
aI00
aI00
aI00
aI00
aI00
aa(lp115
I167874
aF240.04
aF150.71
aVp1
p116
aS'nimbussanl'
p117
aS'#000000'
p118
aF10.0
aI0
aI00
aI00
aI00
aI00
aI00
aI00
aI00
aI00
aa(lp119
I135639
aF278.7
aF150.71
aVp1
p120
aS'nimbussanl'
p121
aS'#000000'
p122
aF10.0
aI0
aI00
aI00
aI00
aI00
aI00
aI00
aI00
aI00
aa(lp123
I194354
aF296.88
aF150.71
aVp1
p124
aS'nimbussanl'
p125
aS'#000000'
p126
aF10.0
aI0
aI00
aI00
aI00
aI00
aI00
aI00
aI00
aI00
aa(lp127
I36013
aF321.15
aF150.71
aVp1
p128
aS'nimbussanl'
p129
aS'#000000'
p130
aF10.0
aI0
aI00
aI00
aI00
aI00
aI00
aI00
aI00
aI00
aa(lp131
I144489
aF349.81
aF150.71
aVp1
p132
aS'nimbussanl'
p133
aS'#000000'
p134
aF10.0
aI0
aI00
aI00
aI00
aI00
aI00
aI00
aI00
aI00
aa(lp135
I234378
aF368.49
aF150.71
aVp1
p136
aS'nimbussanl'
p137
aS'#000000'
p138
aF10.0
aI0
aI01
aI00
aI00
aI00
aI00
aI00
aI00
aI00
aa(lp139
I68032
aF418.33
aF150.71
aVp1
p140
aS'nimbussanl'
p141
aS'#000000'
p142
aF10.0
aI0
aI01
aI00
aI00
aI00
aI00
aI00
aI00
aI00
aa(lp143
I135639
aF487.46
aF150.71
aVp1
p144
aS'nimbussanl'
p145
aS'#000000'
p146
aF10.0
aI0
aI00
aI00
aI00
aI00
aI00
aI00
aI00
aI00
aa(lp147
I16329
aF505.64
aF150.71
aVp1
p148
aS'nimbussanl'
p149
aS'#000000'
p150
aF10.0
aI0
aI00
aI00
aI00
aI00
aI00
aI00
aI00
aI00
aa(lp151
I229426
aF95.9
aF163.31
aVp1
p152
aS'nimbussanl'
p153
aS'#000000'
p154
aF10.0
aI0
aI00
aI00
aI00
aI00
aI00
aI00
aI00
aI00
aa(lp155
I218914
aF162.53
aF163.31
aVp1
p156
aS'nimbussanl'
p157
aS'#000000'
p158
aF10.0
aI0
aI00
aI00
aI00
aI00
aI00
aI00
aI00
aI00
aa(lp159
I208573
aF200.4
aF163.31
aVp1
p160
aS'nimbussanl'
p161
aS'#000000'
p162
aF10.0
aI0
aI00
aI00
aI00
aI00
aI00
aI00
aI00
aI00
aa(lp163
I15102
aF238.66
aF163.31
aVp1
p164
aS'nimbussanl'
p165
aS'#000000'
p166
aF10.0
aI0
aI00
aI00
aI00
aI00
aI00
aI00
aI00
aI00
aa(lp167
I151248
aF269.82
aF163.31
aVp1
p168
aS'nimbussanl'
p169
aS'#000000'
p170
aF10.0
aI0
aI00
aI00
aI00
aI00
aI00
aI00
aI00
aI00
aa(lp171
I219882
aF307.68
aF163.31
aVp1
p172
aS'nimbussanl'
p173
aS'#000000'
p174
aF10.0
aI0
aI00
aI00
aI00
aI00
aI00
aI00
aI00
aI00
aa(lp175
I234378
aF333.26
aF163.31
aVp1
p176
aS'nimbussanl'
p177
aS'#000000'
p178
aF10.0
aI0
aI00
aI00
aI00
aI00
aI00
aI00
aI00
aI00
aa(lp179
I85218
aF367.14
aF163.31
aVp1
p180
aS'nimbussanl'
p181
aS'#000000'
p182
aF10.0
aI0
aI00
aI00
aI00
aI00
aI00
aI00
aI00
aI00
aa(lp183
I208573
aF396.11
aF163.31
aVp1
p184
aS'nimbussanl'
p185
aS'#000000'
p186
aF10.0
aI0
aI00
aI00
aI00
aI00
aI00
aI00
aI00
aI00
aa(lp187
I179418
aF434.47
aF163.31
aVp1
p188
aS'nimbussanl'
p189
aS'#000000'
p190
aF10.0
aI0
aI00
aI00
aI00
aI00
aI00
aI00
aI00
aI00
aa(lp191
I154721
aF479.43
aF163.31
aVp1
p192
aS'nimbussanl'
p193
aS'#000000'
p194
aF10.0
aI0
aI00
aI00
aI00
aI00
aI00
aI00
aI00
aI00
aa(lp195
I16329
aF505.61
aF163.31
aVp1
p196
aS'nimbussanl'
p197
aS'#000000'
p198
aF10.0
aI0
aI00
aI00
aI00
aI00
aI00
aI00
aI00
aI00
aa(lp199
I212664
aF95.9
aF176.01
aVp1
p200
aS'nimbussanl'
p201
aS'#000000'
p202
aF10.0
aI0
aI00
aI00
aI00
aI00
aI00
aI00
aI00
aI00
aa(lp203
I89480
aF160.13
aF176.01
aVp1
p204
aS'nimbussanl'
p205
aS'#000000'
p206
aF10.0
aI0
aI00
aI00
aI00
aI00
aI00
aI00
aI00
aI00
aa(lp207
I198377
aF183.4
aF176.01
aVp1
p208
aS'nimbussanl'
p209
aS'#000000'
p210
aF10.0
aI0
aI00
aI00
aI00
aI00
aI00
aI00
aI00
aI00
aa(lp211
I106148
aF219.87
aF176.01
aVp1
p212
aS'nimbussanl'
p213
aS'#000000'
p214
aF10.0
aI0
aI00
aI00
aI00
aI00
aI00
aI00
aI00
aI00
aa(lp215
I85218
aF280.21
aF176.01
aVp1
p216
aS'nimbussanl'
p217
aS'#000000'
p218
aF10.0
aI0
aI00
aI00
aI00
aI00
aI00
aI00
aI00
aI00
aa(lp219
I68658
aF311.78
aF176.01
aVp1
p220
aS'nimbussanl'
p221
aS'#000000'
p222
aF10.0
aI0
aI00
aI00
aI00
aI00
aI00
aI00
aI00
aI00
aa(lp223
I127763
aF359.43
aF176.01
aVp1
p224
aS'nimbussanl'
p225
aS'#000000'
p226
aF10.0
aI0
aI00
aI00
aI00
aI00
aI00
aI00
aI00
aI00
aa(lp227
I135639
aF421.97
aF176.01
aVp1
p228
aS'nimbussanl'
p229
aS'#000000'
p230
aF10.0
aI0
aI00
aI00
aI00
aI00
aI00
aI00
aI00
aI00
aa(lp231
I219882
aF444.65
aF176.01
aVp1
p232
aS'nimbussanl'
p233
aS'#000000'
p234
aF10.0
aI0
aI00
aI00
aI00
aI00
aI00
aI00
aI00
aI00
aa(lp235
I36013
aF472.83
aF176.01
aVp1
p236
aS'nimbussanl'
p237
aS'#000000'
p238
aF10.0
aI0
aI00
aI00
aI00
aI00
aI00
aI00
aI00
aI00
aa(lp239
I192651
aF505.99
aF176.01
aVp1
p240
aS'nimbussanl'
p241
aS'#000000'
p242
aF10.0
aI0
aI00
aI00
aI00
aI00
aI00
aI00
aI00
aI00
aa(lp243
I234378
aF95.9
aF188.61
aVp1
p244
aS'nimbussanl'
p245
aS'#000000'
p246
aF10.0
aI0
aI00
aI00
aI00
aI00
aI00
aI00
aI00
aI00
aa(lp247
I154721
aF129.205
aF188.61
ag244
aS'nimbussanl'
p248
aS'#000000'
p249
aF10.0
aI0
aI00
aI00
aI00
aI00
aI00
aI00
aI00
aI00
aa(lp250
I144483
aF139.435
aF188.61
ag244
aS'nimbussanl'
p251
aS'#000000'
p252
aF10.0
aI0
aI00
aI00
aI00
aI00
aI00
aI00
aI00
aI00
aa(lp253
I234378
aF149.665
aF188.61
ag244
aS'nimbussanl'
p254
aS'#000000'
p255
aF10.0
aI0
aI00
aI00
aI00
aI00
aI00
aI00
aI00
aI00
aa(lp256
I234378
aF201.43
aF188.61
ag244
aS'nimbussanl'
p257
aS'#000000'
p258
aF10.0
aI0
aI00
aI00
aI00
aI00
aI00
aI00
aI00
aI00
aa(lp259
I234378
aF252.195
aF188.61
ag244
aS'nimbussanl'
p260
aS'#000000'
p261
aF10.0
aI0
aI00
aI00
aI00
aI00
aI00
aI00
aI00
aI00
aa(lp262
I165938
aF90.1
aF218.91
aVp1
p263
aS'nimbussanl'
p264
aS'#000000'
p265
aF10.0
aI1
aI01
aI01
aI00
aI00
aI00
aI00
aI00
aI00
aa(lp266
I23021
aF156.2024
aF218.91
ag263
aS'nimbussanl'
p267
aS'#000000'
p268
aF10.0
aI1
aI01
aI01
aI00
aI00
aI00
aI00
aI00
aI00
aa(lp269
I34923
aF144.1
aF247.87
aVp1
p270
aS'nimbussanl'
p271
aS'#000000'
p272
aF10.0
aI0
aI01
aI00
aI00
aI00
aI00
aI00
aI00
aI00
aa(lp273
I234378
aF195.71475609756098
aF247.87
ag270
aS'nimbussanl'
p274
aS'#000000'
p275
aF10.0
aI0
aI00
aI00
aI00
aI00
aI00
aI00
aI00
aI00
aa(lp276
I165938
aF233.52548780487805
aF247.87
ag270
aS'nimbussanl'
p277
aS'#000000'
p278
aF10.0
aI0
aI00
aI00
aI00
aI00
aI00
aI00
aI00
aI00
aa(lp279
I169745
aF289.74158536585367
aF247.87
ag270
aS'nimbussanl'
p280
aS'#000000'
p281
aF10.0
aI0
aI00
aI00
aI00
aI00
aI00
aI00
aI00
aI00
aa(lp282
I78615
aF309.1469512195122
aF247.87
ag270
aS'nimbussanl'
p283
aS'#000000'
p284
aF10.0
aI0
aI01
aI00
aI00
aI00
aI00
aI00
aI00
aI00
aa(lp285
I40824
aF328.5523170731707
aF247.87
ag270
aS'nimbussanl'
p286
aS'#000000'
p287
aF10.0
aI0
aI00
aI00
aI00
aI00
aI00
aI00
aI00
aI00
aa(lp288
I234378
aF347.9576829268292
aF247.87
ag270
aS'nimbussanl'
p289
aS'#000000'
p290
aF10.0
aI0
aI00
aI00
aI00
aI00
aI00
aI00
aI00
aI00
aa(lp291
I144489
aF329.96439024390236
aF247.87
ag270
aS'nimbussanl'
p292
aS'#000000'
p293
aF10.0
aI0
aI00
aI00
aI00
aI00
aI00
aI00
aI00
aI00
aa(lp294
I60220
aF382.1670731707316
aF247.87
ag270
aS'nimbussanl'
p295
aS'#000000'
p296
aF10.0
aI0
aI00
aI00
aI00
aI00
aI00
aI00
aI00
aI00
aa(lp297
I135639
aF400.18048780487794
aF247.87
ag270
aS'nimbussanl'
p298
aS'#000000'
p299
aF10.0
aI0
aI00
aI00
aI00
aI00
aI00
aI00
aI00
aI00
aa(lp300
I117435
aF439.3831707317072
aF247.87
ag270
aS'nimbussanl'
p301
aS'#000000'
p302
aF10.0
aI0
aI00
aI00
aI00
aI00
aI00
aI00
aI00
aI00
aa(lp303
I234378
aF480.7952439024389
aF247.87
ag270
aS'nimbussanl'
p304
aS'#000000'
p305
aF10.0
aI0
aI00
aI00
aI00
aI00
aI00
aI00
aI00
aI00
aa(lp306
I68032
aF144.1
aF260.37
aVp1
p307
aS'nimbussanl'
p308
aS'#000000'
p309
aF10.0
aI0
aI00
aI00
aI00
aI00
aI00
aI00
aI00
aI00
aa(lp310
I234378
aF199.11833333333334
aF260.37
ag307
aS'nimbussanl'
p311
aS'#000000'
p312
aF10.0
aI0
aI00
aI00
aI00
aI00
aI00
aI00
aI00
aI00
aa(lp313
I142554
aF215.22
aF260.37
aVp1
p314
aS'nimbussanl'
p315
aS'#000000'
p316
aF10.0
aI0
aI00
aI00
aI00
aI00
aI00
aI00
aI00
aI00
aa(lp317
I144489
aF278.06
aF260.37
aVp1
p318
aS'nimbussanl'
p319
aS'#000000'
p320
aF10.0
aI0
aI00
aI00
aI00
aI00
aI00
aI00
aI00
aI00
aa(lp321
I184171
aF297.53
aF260.37
aVp1
p322
aS'nimbussanl'
p323
aS'#000000'
p324
aF10.0
aI0
aI00
aI00
aI00
aI00
aI00
aI00
aI00
aI00
aa(lp325
I182411
aF364.76
aF260.37
aVp1
p326
aS'nimbussanl'
p327
aS'#000000'
p328
aF10.0
aI0
aI00
aI00
aI00
aI00
aI00
aI00
aI00
aI00
aa(lp329
I206505
aF400.91
aF260.37
aVp1
p330
aS'nimbussanl'
p331
aS'#000000'
p332
aF10.0
aI0
aI00
aI00
aI00
aI00
aI00
aI00
aI00
aI00
aa(lp333
I112491
aF434.37
aF260.37
aVp1
p334
aS'nimbussanl'
p335
aS'#000000'
p336
aF10.0
aI0
aI00
aI00
aI00
aI00
aI00
aI00
aI00
aI00
aa(lp337
I89958
aF468.84
aF260.37
aVp1
p338
aS'nimbussanl'
p339
aS'#000000'
p340
aF10.0
aI0
aI00
aI00
aI00
aI00
aI00
aI00
aI00
aI00
aa(lp341
I183170
aF144.1
aF272.77
aVp1
p342
aS'nimbussanl'
p343
aS'#000000'
p344
aF10.0
aI0
aI01
aI00
aI00
aI00
aI00
aI00
aI00
aI00
aa(lp345
I143195
aF221.48869047619047
aF272.77
ag342
aS'nimbussanl'
p346
aS'#000000'
p347
aF10.0
aI0
aI00
aI00
aI00
aI00
aI00
aI00
aI00
aI00
aa(lp348
I234378
aF267.42321428571427
aF272.77
ag342
aS'nimbussanl'
p349
aS'#000000'
p350
aF10.0
aI0
aI00
aI00
aI00
aI00
aI00
aI00
aI00
aI00
aa(lp351
I8691
aF322.34464285714284
aF272.77
ag342
aS'nimbussanl'
p352
aS'#000000'
p353
aF10.0
aI0
aI00
aI00
aI00
aI00
aI00
aI00
aI00
aI00
aa(lp354
I234378
aF350.30535714285713
aF272.77
ag342
aS'nimbussanl'
p355
aS'#000000'
p356
aF10.0
aI0
aI00
aI00
aI00
aI00
aI00
aI00
aI00
aI00
aa(lp357
I144489
aF373.77261904761906
aF272.77
ag342
aS'nimbussanl'
p358
aS'#000000'
p359
aF10.0
aI0
aI00
aI00
aI00
aI00
aI00
aI00
aI00
aI00
aa(lp360
I17350
aF383.75952380952384
aF272.77
ag342
aS'nimbussanl'
p361
aS'#000000'
p362
aF10.0
aI0
aI00
aI00
aI00
aI00
aI00
aI00
aI00
aI00
aa(lp363
I123665
aF365.239880952381
aF272.77
ag342
aS'nimbussanl'
p364
aS'#000000'
p365
aF10.0
aI0
aI00
aI00
aI00
aI00
aI00
aI00
aI00
aI00
aa(lp366
I85218
aF448.6678571428572
aF272.77
ag342
aS'nimbussanl'
p367
aS'#000000'
p368
aF10.0
aI0
aI00
aI00
aI00
aI00
aI00
aI00
aI00
aI00
aa(lp369
I108443
aF463.14821428571435
aF272.77
ag342
aS'nimbussanl'
p370
aS'#000000'
p371
aF10.0
aI0
aI00
aI00
aI00
aI00
aI00
aI00
aI00
aI00
aa(lp372
I234378
aF144.1
aF285.17
aVp1
p373
aS'nimbussanl'
p374
aS'#000000'
p375
aF10.0
aI0
aI00
aI00
aI00
aI00
aI00
aI00
aI00
aI00
aa(lp376
I195547
aF144.1
aF312.32
aVp1
p377
aS'dejavusans'
p378
aS'#323232'
p379
aF10.0
aI0
aI01
aI00
aI00
aI00
aI00
aI00
aI00
aI00
aa(lp380
I234378
aF182.08
aF312.32
aVp1
p381
aS'dejavusans'
p382
aS'#323232'
p383
aF10.0
aI0
aI01
aI00
aI00
aI00
aI00
aI00
aI00
aI00
aa(lp384
I234378
aF254.42
aF312.32
aVp1
p385
aS'dejavusans'
p386
aS'#323232'
p387
aF10.0
aI0
aI01
aI00
aI00
aI00
aI00
aI00
aI00
aI00
aa(lp388
I135639
aF285.06
aF312.32
aVp1
p389
aS'dejavusans'
p390
aS'#323232'
p391
aF10.0
aI0
aI00
aI00
aI00
aI00
aI00
aI00
aI00
aI00
aa(lp392
I117435
aF299.23
aF312.32
aVp1
p393
aS'dejavusans'
p394
aS'#323232'
p395
aF10.0
aI0
aI00
aI00
aI00
aI00
aI00
aI00
aI00
aI00
aa(lp396
I85218
aF352.78
aF312.32
aVp1
p397
aS'dejavusans'
p398
aS'#323232'
p399
aF10.0
aI0
aI00
aI00
aI00
aI00
aI00
aI00
aI00
aI00
aa(lp400
I83126
aF376.66
aF312.32
aVp1
p401
aS'dejavusans'
p402
aS'#323232'
p403
aF10.0
aI0
aI00
aI00
aI00
aI00
aI00
aI00
aI00
aI00
aa(lp404
I144489
aF460.79
aF312.32
aVp1
p405
aS'dejavusans'
p406
aS'#323232'
p407
aF10.0
aI0
aI00
aI00
aI00
aI00
aI00
aI00
aI00
aI00
aa(lp408
I234378
aF475.47
aF312.32
aVp1
p409
aS'dejavusans'
p410
aS'#323232'
p411
aF10.0
aI0
aI00
aI00
aI00
aI00
aI00
aI00
aI00
aI00
aa(lp412
I51428
aF499.50500000000005
aF312.32
ag409
aS'dejavusans'
p413
aS'#323232'
p414
aF10.0
aI0
aI00
aI00
aI00
aI00
aI00
aI00
aI00
aI00
aa(lp415
I234378
aF144.1
aF324.82
aVp1
p416
aS'dejavusans'
p417
aS'#323232'
p418
aF10.0
aI0
aI00
aI00
aI00
aI00
aI00
aI00
aI00
aI00
aa(lp419
I234378
aF213.74
aF324.82
aVp1
p420
aS'dejavusans'
p421
aS'#323232'
p422
aF10.0
aI0
aI00
aI00
aI00
aI00
aI00
aI00
aI00
aI00
aa(lp423
I21716
aF244.0
aF324.57
aVp1
p424
aS'nimbussanl'
p425
aS'#323232'
p426
aF10.0
aI0
aI01
aI00
aI00
aI00
aI00
aI00
aI00
aI00
aa(lp427
I234378
aF264.31714285714287
aF324.57
ag424
aS'nimbussanl'
p428
aS'#323232'
p429
aF10.0
aI0
aI00
aI00
aI00
aI00
aI00
aI00
aI00
aI00
aa(lp430
I234378
aF269.3964285714286
aF324.57
ag424
aS'nimbussanl'
p431
aS'#323232'
p432
aF10.0
aI0
aI01
aI01
aI01
aI00
aI00
aI00
aI00
aI00
aa(lp433
I234378
aF284.71357142857147
aF324.57
ag424
aS'nimbussanl'
p434
aS'#323232'
p435
aF10.0
aI0
aI00
aI00
aI00
aI00
aI00
aI00
aI00
aI00
aa(lp436
I89217
aF294.7928571428572
aF324.57
ag424
aS'nimbussanl'
p437
aS'#323232'
p438
aF10.0
aI0
aI01
aI00
aI00
aI00
aI00
aI00
aI00
aI00
aa(lp439
I234378
aF324.01
aF324.57
aVp1
p440
aS'nimbussanl'
p441
aS'#323232'
p442
aF10.0
aI0
aI01
aI00
aI00
aI00
aI00
aI00
aI00
aI00
aa(lp443
I234378
aF360.5077777777778
aF324.57
ag440
aS'nimbussanl'
p444
aS'#323232'
p445
aF10.0
aI0
aI00
aI00
aI00
aI00
aI00
aI00
aI00
aI00
aa(lp446
I148996
aF373.97
aF324.57
aVp1
p447
aS'nimbussanl'
p448
aS'#323232'
p449
aF10.0
aI0
aI01
aI00
aI00
aI00
aI00
aI00
aI00
aI00
aa(lp450
I115769
aF411.83
aF324.57
aVp1
p451
aS'nimbussanl'
p452
aS'#323232'
p453
aF10.0
aI0
aI00
aI00
aI00
aI00
aI00
aI00
aI00
aI00
aa(lp454
I234378
aF467.37
aF324.57
aVp1
p455
aS'nimbussanl'
p456
aS'#323232'
p457
aF10.0
aI0
aI00
aI00
aI01
aI01
aI00
aI00
aI00
aI00
aa(lp458
I234378
aF471.535
aF324.57
ag455
aS'nimbussanl'
p459
aS'#323232'
p460
aF10.0
aI0
aI00
aI00
aI00
aI00
aI00
aI00
aI00
aI00
aa(lp461
I234378
aF475.70000000000005
aF324.57
ag455
aS'nimbussanl'
p462
aS'#323232'
p463
aF10.0
aI0
aI00
aI00
aI01
aI01
aI00
aI00
aI00
aI00
aa(lp464
I234378
aF479.86500000000007
aF324.57
ag455
aS'nimbussanl'
p465
aS'#323232'
p466
aF10.0
aI0
aI00
aI00
aI00
aI00
aI00
aI00
aI00
aI00
aa(lp467
I234378
aF492.93
aF324.57
aVp1
p468
aS'nimbussanl'
p469
aS'#323232'
p470
aF10.0
aI0
aI01
aI00
aI00
aI00
aI00
aI00
aI00
aI00
aa(lp471
I234378
aF517.6585714285715
aF324.57
ag468
aS'nimbussanl'
p472
aS'#323232'
p473
aF10.0
aI0
aI00
aI00
aI00
aI00
aI00
aI00
aI00
aI00
aa(lp474
I176767
aF144.1
aF336.97
aVp1
p475
aS'nimbussanl'
p476
aS'#323232'
p477
aF10.0
aI0
aI01
aI00
aI00
aI00
aI00
aI00
aI00
aI00
aa(lp478
I234378
aF188.33736842105262
aF336.97
ag475
aS'nimbussanl'
p479
aS'#323232'
p480
aF10.0
aI0
aI00
aI00
aI00
aI00
aI00
aI00
aI00
aI00
aa(lp481
I17350
aF194.25263157894736
aF336.97
ag475
aS'nimbussanl'
p482
aS'#323232'
p483
aF10.0
aI0
aI01
aI00
aI00
aI00
aI00
aI00
aI00
aI00
aa(lp484
I234378
aF209.99842105263156
aF336.97
ag475
aS'nimbussanl'
p485
aS'#323232'
p486
aF10.0
aI0
aI00
aI00
aI00
aI00
aI00
aI00
aI00
aI00
aa(lp487
I85218
aF250.32052631578944
aF336.97
ag475
aS'nimbussanl'
p488
aS'#323232'
p489
aF10.0
aI0
aI00
aI00
aI00
aI00
aI00
aI00
aI00
aI00
aa(lp490
I100065
aF266.06631578947366
aF336.97
ag475
aS'nimbussanl'
p491
aS'#323232'
p492
aF10.0
aI0
aI00
aI00
aI00
aI00
aI00
aI00
aI00
aI00
aa(lp493
I2002
aF286.72736842105263
aF336.97
ag475
aS'nimbussanl'
p494
aS'#323232'
p495
aF10.0
aI0
aI00
aI00
aI00
aI00
aI00
aI00
aI00
aI00
aa(lp496
I234378
aF306.3884210526316
aF336.97
ag475
aS'nimbussanl'
p497
aS'#323232'
p498
aF10.0
aI0
aI00
aI00
aI00
aI00
aI00
aI00
aI00
aI00
aa(lp499
I121293
aF144.1
aF349.97
aVp1
p500
aS'nimbussanl'
p501
aS'#000000'
p502
aF10.0
aI0
aI01
aI00
aI00
aI00
aI00
aI00
aI00
aI00
aa(lp503
I86755
aF186.42646341463416
aF349.97
ag500
aS'nimbussanl'
p504
aS'#000000'
p505
aF10.0
aI0
aI01
aI00
aI00
aI00
aI00
aI00
aI00
aI00
aa(lp506
I64620
aF201.2019512195122
aF349.97
ag500
aS'nimbussanl'
p507
aS'#000000'
p508
aF10.0
aI0
aI01
aI01
aI00
aI00
aI00
aI00
aI00
aI00
aa(lp509
I89958
aF206.7937804878049
aF349.97
ag500
aS'nimbussanl'
p510
aS'#000000'
p511
aF10.0
aI0
aI00
aI00
aI00
aI00
aI00
aI00
aI00
aI00
aa(lp512
I234378
aF238.93658536585366
aF349.97
ag500
aS'nimbussanl'
p513
aS'#000000'
p514
aF10.0
aI0
aI00
aI00
aI00
aI00
aI00
aI00
aI00
aI00
aa(lp515
I86755
aF244.52841463414634
aF349.97
ag500
aS'nimbussanl'
p516
aS'#000000'
p517
aF10.0
aI0
aI01
aI01
aI00
aI00
aI00
aI00
aI00
aI00
aa(lp518
I234378
aF259.3039024390244
aF349.97
ag500
aS'nimbussanl'
p519
aS'#000000'
p520
aF10.0
aI0
aI01
aI00
aI00
aI00
aI00
aI00
aI00
aI00
aa(lp521
I85218
aF301.63036585365853
aF349.97
ag500
aS'nimbussanl'
p522
aS'#000000'
p523
aF10.0
aI0
aI00
aI00
aI00
aI00
aI00
aI00
aI00
aI00
aa(lp524
I234378
aF316.40585365853656
aF349.97
ag500
aS'nimbussanl'
p525
aS'#000000'
p526
aF10.0
aI0
aI01
aI00
aI00
aI00
aI00
aI00
aI00
aI00
aa(lp527
I108443
aF335.7731707317073
aF349.97
ag500
aS'nimbussanl'
p528
aS'#000000'
p529
aF10.0
aI0
aI01
aI00
aI00
aI00
aI00
aI00
aI00
aI00
aa(lp530
I123665
aF364.3241463414634
aF349.97
ag500
aS'nimbussanl'
p531
aS'#000000'
p532
aF10.0
aI0
aI00
aI00
aI00
aI00
aI00
aI00
aI00
aI00
aa(lp533
I100815
aF415.8342682926829
aF349.97
ag500
aS'nimbussanl'
p534
aS'#000000'
p535
aF10.0
aI0
aI00
aI00
aI00
aI00
aI00
aI00
aI00
aI00
aa(lp536
I234378
aF457.16073170731704
aF349.97
ag500
aS'nimbussanl'
p537
aS'#000000'
p538
aF10.0
aI0
aI00
aI00
aI00
aI00
aI00
aI00
aI00
aI00
aa(lp539
I62551
aF462.7525609756097
aF349.97
ag500
aS'nimbussanl'
p540
aS'#000000'
p541
aF10.0
aI0
aI01
aI00
aI00
aI00
aI00
aI00
aI00
aI00
aa(lp542
I61354
aF144.1
aF362.47
aVp1
p543
aS'nimbussanl'
p544
aS'#000000'
p545
aF10.0
aI0
aI00
aI00
aI00
aI00
aI00
aI00
aI00
aI00
aa(lp546
I127763
aF190.72307692307692
aF362.47
ag543
aS'nimbussanl'
p547
aS'#000000'
p548
aF10.0
aI0
aI00
aI00
aI00
aI00
aI00
aI00
aI00
aI00
aa(lp549
I144483
aF232.78384615384616
aF362.47
ag543
aS'nimbussanl'
p550
aS'#000000'
p551
aF10.0
aI0
aI00
aI00
aI00
aI00
aI00
aI00
aI00
aI00
aa(lp552
I234378
aF242.90846153846155
aF362.47
ag543
aS'nimbussanl'
p553
aS'#000000'
p554
aF10.0
aI0
aI00
aI00
aI00
aI00
aI00
aI00
aI00
aI00
aa(lp555
I85218
aF294.0938461538462
aF362.47
ag543
aS'nimbussanl'
p556
aS'#000000'
p557
aF10.0
aI0
aI00
aI00
aI00
aI00
aI00
aI00
aI00
aI00
aa(lp558
I234378
aF308.78076923076924
aF362.47
ag543
aS'nimbussanl'
p559
aS'#000000'
p560
aF10.0
aI0
aI00
aI00
aI00
aI00
aI00
aI00
aI00
aI00
aa(lp561
I86755
aF359.9661538461539
aF362.47
ag543
aS'nimbussanl'
p562
aS'#000000'
p563
aF10.0
aI0
aI01
aI01
aI00
aI00
aI00
aI00
aI00
aI00
aa(lp564
I234378
aF374.6530769230769
aF362.47
ag543
aS'nimbussanl'
p565
aS'#000000'
p566
aF10.0
aI0
aI00
aI00
aI00
aI00
aI00
aI00
aI00
aI00
aa(lp567
I234378
aF412.15153846153845
aF362.47
ag543
aS'nimbussanl'
p568
aS'#000000'
p569
aF10.0
aI0
aI00
aI00
aI01
aI01
aI00
aI00
aI00
aI00
aa(lp570
I234378
aF416.71384615384613
aF362.47
ag543
aS'nimbussanl'
p571
aS'#000000'
p572
aF10.0
aI0
aI00
aI00
aI00
aI00
aI00
aI00
aI00
aI00
aa(lp573
I225568
aF421.2761538461538
aF362.47
ag543
aS'nimbussanl'
p574
aS'#000000'
p575
aF10.0
aI0
aI00
aI00
aI00
aI00
aI00
aI00
aI00
aI00
aa(lp576
I35425
aF426.8384615384615
aF362.47
ag543
aS'nimbussanl'
p577
aS'#000000'
p578
aF10.0
aI0
aI00
aI00
aI00
aI00
aI00
aI00
aI00
aI00
aa(lp579
I190806
aF450.65
aF362.47
ag543
aS'nimbussanl'
p580
aS'#000000'
p581
aF10.0
aI0
aI00
aI00
aI00
aI00
aI00
aI00
aI00
aI00
aa(lp582
I234378
aF144.1
aF374.87
aVp1
p583
aS'nimbussanl'
p584
aS'#000000'
p585
aF10.0
aI0
aI01
aI00
aI00
aI00
aI00
aI00
aI00
aI00
aa(lp586
I222718
aF144.1
aF387.77
aVp1
p587
aS'nimbussanl'
p588
aS'#323232'
p589
aF10.0
aI0
aI01
aI00
aI00
aI00
aI00
aI00
aI00
aI00
aa(lp590
I85218
aF183.58820512820512
aF387.77
ag587
aS'nimbussanl'
p591
aS'#323232'
p592
aF10.0
aI0
aI00
aI00
aI00
aI00
aI00
aI00
aI00
aI00
aa(lp593
I36088
aF199.02128205128204
aF387.77
ag587
aS'nimbussanl'
p594
aS'#323232'
p595
aF10.0
aI0
aI00
aI00
aI00
aI00
aI00
aI00
aI00
aI00
aa(lp596
I37066
aF219.26538461538462
aF387.77
ag587
aS'nimbussanl'
p597
aS'#323232'
p598
aF10.0
aI0
aI00
aI00
aI00
aI00
aI00
aI00
aI00
aI00
aa(lp599
I169745
aF249.13153846153847
aF387.77
ag587
aS'nimbussanl'
p600
aS'#323232'
p601
aF10.0
aI0
aI00
aI00
aI00
aI00
aI00
aI00
aI00
aI00
aa(lp602
I234378
aF269.375641025641
aF387.77
ag587
aS'nimbussanl'
p603
aS'#323232'
p604
aF10.0
aI0
aI01
aI01
aI00
aI00
aI00
aI00
aI00
aI00
aa(lp605
I234378
aF288.61974358974356
aF387.77
ag587
aS'nimbussanl'
p606
aS'#323232'
p607
aF10.0
aI0
aI00
aI00
aI00
aI00
aI00
aI00
aI00
aI00
aa(lp608
I144690
aF294.4307692307692
aF387.77
ag587
aS'nimbussanl'
p609
aS'#323232'
p610
aF10.0
aI0
aI01
aI00
aI00
aI00
aI00
aI00
aI00
aI00
aa(lp611
I85218
aF290.29692307692306
aF387.77
ag587
aS'nimbussanl'
p612
aS'#323232'
p613
aF10.0
aI0
aI00
aI00
aI00
aI00
aI00
aI00
aI00
aI00
aa(lp614
I234378
aF339.73
aF387.77
ag587
aS'nimbussanl'
p615
aS'#323232'
p616
aF10.0
aI0
aI00
aI00
aI00
aI00
aI00
aI00
aI00
aI00
aa(lp617
I144489
aF379.21820512820517
aF387.77
ag587
aS'nimbussanl'
p618
aS'#323232'
p619
aF10.0
aI0
aI00
aI00
aI00
aI00
aI00
aI00
aI00
aI00
aa(lp620
I234378
aF389.8402564102565
aF387.77
ag587
aS'nimbussanl'
p621
aS'#323232'
p622
aF10.0
aI0
aI00
aI00
aI00
aI00
aI00
aI00
aI00
aI00
aa(lp623
I234378
aF429.3284615384616
aF387.77
ag587
aS'nimbussanl'
p624
aS'#323232'
p625
aF10.0
aI0
aI00
aI00
aI00
aI00
aI00
aI00
aI00
aI00
aa(lp626
I85218
aF144.1
aF400.27
aVp1
p627
aS'nimbussanl'
p628
aS'#323232'
p629
aF10.0
aI0
aI00
aI00
aI00
aI00
aI00
aI00
aI00
aI00
aa(lp630
I234378
aF158.98837837837837
aF400.27
ag627
aS'nimbussanl'
p631
aS'#323232'
p632
aF10.0
aI0
aI00
aI00
aI00
aI00
aI00
aI00
aI00
aI00
aa(lp633
I234378
aF205.28297297297297
aF400.27
ag627
aS'nimbussanl'
p634
aS'#323232'
p635
aF10.0
aI0
aI00
aI00
aI00
aI00
aI00
aI00
aI00
aI00
aa(lp636
I197030
aF210.91243243243244
aF400.27
ag627
aS'nimbussanl'
p637
aS'#323232'
p638
aF10.0
aI0
aI01
aI01
aI00
aI00
aI00
aI00
aI00
aI00
aa(lp639
I62551
aF216.5418918918919
aF400.27
ag627
aS'nimbussanl'
p640
aS'#323232'
p641
aF10.0
aI0
aI00
aI00
aI00
aI00
aI00
aI00
aI00
aI00
aa(lp642
I173426
aF236.05972972972975
aF400.27
ag627
aS'nimbussanl'
p643
aS'#323232'
p644
aF10.0
aI0
aI00
aI00
aI00
aI00
aI00
aI00
aI00
aI00
aa(lp645
I234378
aF274.0954054054054
aF400.27
ag627
aS'nimbussanl'
p646
aS'#323232'
p647
aF10.0
aI0
aI00
aI00
aI00
aI00
aI00
aI00
aI00
aI00
aa(lp648
I234378
aF316.76054054054055
aF400.27
ag627
aS'nimbussanl'
p649
aS'#323232'
p650
aF10.0
aI0
aI00
aI00
aI00
aI00
aI00
aI00
aI00
aI00
aa(lp651
I234378
aF340.90783783783786
aF400.27
ag627
aS'nimbussanl'
p652
aS'#323232'
p653
aF10.0
aI0
aI01
aI01
aI00
aI00
aI00
aI00
aI00
aI00
aa(lp654
I162177
aF355.79621621621624
aF400.27
ag627
aS'nimbussanl'
p655
aS'#323232'
p656
aF10.0
aI0
aI00
aI00
aI00
aI00
aI00
aI00
aI00
aI00
aa(lp657
I16331
aF375.31405405405405
aF400.27
ag627
aS'nimbussanl'
p658
aS'#323232'
p659
aF10.0
aI0
aI00
aI00
aI00
aI00
aI00
aI00
aI00
aI00
aa(lp660
I101954
aF385.572972972973
aF400.27
ag627
aS'nimbussanl'
p661
aS'#323232'
p662
aF10.0
aI0
aI00
aI00
aI00
aI00
aI00
aI00
aI00
aI00
aa(lp663
I73086
aF409.7202702702703
aF400.27
ag627
aS'nimbussanl'
p664
aS'#323232'
p665
aF10.0
aI0
aI00
aI00
aI00
aI00
aI00
aI00
aI00
aI00
aa(lp666
I234378
aF442.1264864864865
aF400.27
ag627
aS'nimbussanl'
p667
aS'#323232'
p668
aF10.0
aI0
aI00
aI00
aI00
aI00
aI00
aI00
aI00
aI00
aa(lp669
I117203
aF144.1
aF412.67
aVp1
p670
aS'nimbussanl'
p671
aS'#323232'
p672
aF10.0
aI0
aI00
aI00
aI00
aI00
aI00
aI00
aI00
aI00
aa(lp673
I73086
aF182.52506666666665
aF412.67
ag670
aS'nimbussanl'
p674
aS'#323232'
p675
aF10.0
aI0
aI00
aI00
aI00
aI00
aI00
aI00
aI00
aI00
aa(lp676
I85218
aF216.272
aF412.67
ag670
aS'nimbussanl'
p677
aS'#323232'
p678
aF10.0
aI0
aI00
aI00
aI00
aI00
aI00
aI00
aI00
aI00
aa(lp679
I70647
aF231.3064
aF412.67
ag670
aS'nimbussanl'
p680
aS'#323232'
p681
aF10.0
aI0
aI00
aI00
aI00
aI00
aI00
aI00
aI00
aI00
aa(lp682
I234378
aF255.69706666666667
aF412.67
ag670
aS'nimbussanl'
p683
aS'#323232'
p684
aF10.0
aI0
aI00
aI00
aI00
aI00
aI00
aI00
aI00
aI00
aa(lp685
I234378
aF294.12213333333335
aF412.67
ag670
aS'nimbussanl'
p686
aS'#323232'
p687
aF10.0
aI0
aI00
aI00
aI00
aI00
aI00
aI00
aI00
aI00
aa(lp688
I143195
aF318.5128
aF412.67
ag670
aS'nimbussanl'
p689
aS'#323232'
p690
aF10.0
aI0
aI01
aI00
aI00
aI00
aI00
aI00
aI00
aI00
aa(lp691
I217975
aF366.2941333333334
aF412.67
ag670
aS'nimbussanl'
p692
aS'#323232'
p693
aF10.0
aI0
aI01
aI00
aI00
aI00
aI00
aI00
aI00
aI00
aa(lp694
I85218
aF363.3973333333334
aF412.67
ag670
aS'nimbussanl'
p695
aS'#323232'
p696
aF10.0
aI0
aI00
aI00
aI00
aI00
aI00
aI00
aI00
aI00
aa(lp697
I160909
aF424.4317333333334
aF412.67
ag670
aS'nimbussanl'
p698
aS'#323232'
p699
aF10.0
aI0
aI01
aI00
aI00
aI00
aI00
aI00
aI00
aI00
aa(lp700
I234378
aF444.14426666666674
aF412.67
ag670
aS'nimbussanl'
p701
aS'#323232'
p702
aF10.0
aI0
aI01
aI01
aI00
aI00
aI00
aI00
aI00
aI00
aa(lp703
I128359
aF144.1
aF425.67
aVp1
p704
aS'nimbussanl'
p705
aS'#000000'
p706
aF10.0
aI0
aI01
aI00
aI00
aI00
aI00
aI00
aI00
aI00
aa(lp707
I234378
aF185.39702127659575
aF425.67
ag704
aS'nimbussanl'
p708
aS'#000000'
p709
aF10.0
aI0
aI00
aI00
aI00
aI00
aI00
aI00
aI00
aI00
aa(lp710
I85218
aF226.69404255319148
aF425.67
ag704
aS'nimbussanl'
p711
aS'#000000'
p712
aF10.0
aI0
aI00
aI00
aI00
aI00
aI00
aI00
aI00
aI00
aa(lp713
I234378
aF241.1263829787234
aF425.67
ag704
aS'nimbussanl'
p714
aS'#000000'
p715
aF10.0
aI0
aI00
aI00
aI00
aI00
aI00
aI00
aI00
aI00
aa(lp716
I234378
aF309.288085106383
aF425.67
ag704
aS'nimbussanl'
p717
aS'#000000'
p718
aF10.0
aI0
aI00
aI00
aI00
aI00
aI00
aI00
aI00
aI00
aa(lp719
I234378
aF336.15276595744683
aF425.67
ag704
aS'nimbussanl'
p720
aS'#000000'
p721
aF10.0
aI0
aI00
aI00
aI00
aI00
aI00
aI00
aI00
aI00
aa(lp722
I190917
aF144.1
aF438.67
aVp1
p723
aS'nimbussanl'
p724
aS'#000000'
p725
aF10.0
aI0
aI01
aI00
aI00
aI00
aI00
aI00
aI00
aI00
aa(lp726
I234378
aF171.73435294117647
aF438.67
ag723
aS'nimbussanl'
p727
aS'#000000'
p728
aF10.0
aI0
aI00
aI00
aI00
aI00
aI00
aI00
aI00
aI00
aa(lp729
I135639
aF212.68588235294118
aF438.67
ag723
aS'nimbussanl'
p730
aS'#000000'
p731
aF10.0
aI0
aI00
aI00
aI00
aI00
aI00
aI00
aI00
aI00
aa(lp732
I234378
aF222.564
aF438.67
ag723
aS'nimbussanl'
p733
aS'#000000'
p734
aF10.0
aI0
aI00
aI00
aI00
aI00
aI00
aI00
aI00
aI00
aa(lp735
I85218
aF267.9545882352941
aF438.67
ag723
aS'nimbussanl'
p736
aS'#000000'
p737
aF10.0
aI0
aI00
aI00
aI00
aI00
aI00
aI00
aI00
aI00
aa(lp738
I234378
aF282.27176470588233
aF438.67
ag723
aS'nimbussanl'
p739
aS'#000000'
p740
aF10.0
aI0
aI00
aI00
aI00
aI00
aI00
aI00
aI00
aI00
aa(lp741
I166593
aF285.223294117647
aF438.67
ag723
aS'nimbussanl'
p742
aS'#000000'
p743
aF10.0
aI0
aI00
aI00
aI00
aI00
aI00
aI00
aI00
aI00
aa(lp744
I234378
aF328.66235294117644
aF438.67
ag723
aS'nimbussanl'
p745
aS'#000000'
p746
aF10.0
aI0
aI00
aI00
aI00
aI00
aI00
aI00
aI00
aI00
aa(lp747
I119499
aF369.6138823529411
aF438.67
ag723
aS'nimbussanl'
p748
aS'#000000'
p749
aF10.0
aI0
aI00
aI00
aI00
aI00
aI00
aI00
aI00
aI00
aa(lp750
I89480
aF406.12635294117644
aF438.67
ag723
aS'nimbussanl'
p751
aS'#000000'
p752
aF10.0
aI0
aI00
aI00
aI00
aI00
aI00
aI00
aI00
aI00
aa(lp753
I3609
aF416.0044705882353
aF438.67
ag723
aS'nimbussanl'
p754
aS'#000000'
p755
aF10.0
aI0
aI00
aI00
aI00
aI00
aI00
aI00
aI00
aI00
aa(lp756
I234378
aF448.0778823529412
aF438.67
ag723
aS'nimbussanl'
p757
aS'#000000'
p758
aF10.0
aI0
aI00
aI00
aI00
aI00
aI00
aI00
aI00
aI00
aa(lp759
I234378
aF479.15129411764707
aF438.67
ag723
aS'nimbussanl'
p760
aS'#000000'
p761
aF10.0
aI0
aI00
aI00
aI00
aI00
aI00
aI00
aI00
aI00
aa(lp762
I51933
aF144.1
aF451.17
aVp1
p763
aS'nimbussanl'
p764
aS'#000000'
p765
aF10.0
aI0
aI01
aI00
aI00
aI00
aI00
aI00
aI00
aI00
aa(lp766
I75236
aF174.37
aF451.17
aVp1
p767
aS'nimbussanl'
p768
aS'#000000'
p769
aF10.0
aI0
aI00
aI00
aI00
aI00
aI00
aI00
aI00
aI00
aa(lp770
I85218
aF211.83
aF451.17
aVp1
p771
aS'nimbussanl'
p772
aS'#000000'
p773
aF10.0
aI0
aI00
aI00
aI00
aI00
aI00
aI00
aI00
aI00
aa(lp774
I149323
aF235.4
aF451.17
aVp1
p775
aS'nimbussanl'
p776
aS'#000000'
p777
aF10.0
aI0
aI00
aI00
aI00
aI00
aI00
aI00
aI00
aI00
aa(lp778
I169745
aF286.73
aF451.17
aVp1
p779
aS'nimbussanl'
p780
aS'#000000'
p781
aF10.0
aI0
aI00
aI00
aI00
aI00
aI00
aI00
aI00
aI00
aa(lp782
I41890
aF311.4
aF451.17
aVp1
p783
aS'nimbussanl'
p784
aS'#000000'
p785
aF10.0
aI0
aI00
aI00
aI00
aI00
aI00
aI00
aI00
aI00
aa(lp786
I234378
aF328.27
aF451.17
aVp1
p787
aS'nimbussanl'
p788
aS'#000000'
p789
aF10.0
aI0
aI00
aI00
aI00
aI00
aI00
aI00
aI00
aI00
aa(lp790
I144489
aF360.73
aF451.17
aVp1
p791
aS'nimbussanl'
p792
aS'#000000'
p793
aF10.0
aI0
aI00
aI00
aI00
aI00
aI00
aI00
aI00
aI00
aa(lp794
I153177
aF376.01
aF451.17
aVp1
p795
aS'nimbussanl'
p796
aS'#000000'
p797
aF10.0
aI0
aI00
aI00
aI00
aI00
aI00
aI00
aI00
aI00
aa(lp798
I89480
aF441.25
aF451.17
aVp1
p799
aS'nimbussanl'
p800
aS'#000000'
p801
aF10.0
aI0
aI00
aI00
aI00
aI00
aI00
aI00
aI00
aI00
aa(lp802
I77578
aF456.43
aF451.17
aVp1
p803
aS'nimbussanl'
p804
aS'#000000'
p805
aF10.0
aI0
aI00
aI00
aI00
aI00
aI00
aI00
aI00
aI00
aa(lp806
I177958
aF491.68
aF451.17
aVp1
p807
aS'nimbussanl'
p808
aS'#000000'
p809
aF10.0
aI0
aI00
aI00
aI00
aI00
aI00
aI00
aI00
aI00
aa(lp810
I234378
aF144.1
aF463.57
aVp1
p811
aS'nimbussanl'
p812
aS'#000000'
p813
aF10.0
aI0
aI00
aI00
aI00
aI00
aI00
aI00
aI00
aI00
aa(lp814
I186191
aF148.43925925925925
aF463.57
ag811
aS'nimbussanl'
p815
aS'#000000'
p816
aF10.0
aI0
aI00
aI00
aI00
aI00
aI00
aI00
aI00
aI00
aa(lp817
I234378
aF201.51037037037037
aF463.57
ag811
aS'nimbussanl'
p818
aS'#000000'
p819
aF10.0
aI0
aI00
aI00
aI00
aI00
aI00
aI00
aI00
aI00
aa(lp820
I234378
aF253.5814814814815
aF463.57
ag811
aS'nimbussanl'
p821
aS'#000000'
p822
aF10.0
aI0
aI00
aI00
aI00
aI00
aI00
aI00
aI00
aI00
aa(lp823
I228990
aF144.1
aF476.57
aVp1
p824
aS'nimbussanl'
p825
aS'#000000'
p826
aF10.0
aI0
aI01
aI00
aI00
aI00
aI00
aI00
aI00
aI00
aa(lp827
I111798
aF175.86
aF476.57
aVp1
p828
aS'nimbussanl'
p829
aS'#000000'
p830
aF10.0
aI0
aI00
aI00
aI00
aI00
aI00
aI00
aI00
aI00
aa(lp831
I144489
aF246.39
aF476.57
aVp1
p832
aS'nimbussanl'
p833
aS'#000000'
p834
aF10.0
aI0
aI00
aI00
aI00
aI00
aI00
aI00
aI00
aI00
aa(lp835
I44084
aF261.96
aF476.57
aVp1
p836
aS'nimbussanl'
p837
aS'#000000'
p838
aF10.0
aI0
aI01
aI00
aI00
aI00
aI00
aI00
aI00
aI00
aa(lp839
I234378
aF298.11
aF476.57
aVp1
p840
aS'nimbussanl'
p841
aS'#000000'
p842
aF10.0
aI0
aI01
aI00
aI00
aI00
aI00
aI00
aI00
aI00
aa(lp843
I131978
aF343.75
aF476.57
aVp1
p844
aS'nimbussanl'
p845
aS'#000000'
p846
aF10.0
aI0
aI01
aI00
aI00
aI00
aI00
aI00
aI00
aI00
aa(lp847
I234378
aF398.6675
aF476.57
ag844
aS'nimbussanl'
p848
aS'#000000'
p849
aF10.0
aI0
aI00
aI00
aI00
aI00
aI00
aI00
aI00
aI00
aa(lp850
I234378
aF410.96
aF476.57
aVp1
p851
aS'nimbussanl'
p852
aS'#000000'
p853
aF10.0
aI0
aI01
aI01
aI00
aI00
aI00
aI00
aI00
aI00
aa(lp854
I51660
aF449.93
aF476.57
aVp1
p855
aS'nimbussanl'
p856
aS'#000000'
p857
aF10.0
aI0
aI01
aI00
aI00
aI00
aI00
aI00
aI00
aI00
aa(lp858
I234378
aF482.67
aF476.57
aVp1
p859
aS'nimbussanl'
p860
aS'#000000'
p861
aF10.0
aI0
aI01
aI00
aI00
aI00
aI00
aI00
aI00
aI00
aa(lp862
I68032
aF144.1
aF489.07
aVp1
p863
aS'nimbussanl'
p864
aS'#000000'
p865
aF10.0
aI0
aI01
aI00
aI00
aI00
aI00
aI00
aI00
aI00
aa(lp866
I131978
aF200.91583333333332
aF489.07
ag863
aS'nimbussanl'
p867
aS'#000000'
p868
aF10.0
aI0
aI00
aI00
aI00
aI00
aI00
aI00
aI00
aI00
aa(lp869
I234378
aF256.7316666666667
aF489.07
ag863
aS'nimbussanl'
p870
aS'#000000'
p871
aF10.0
aI0
aI00
aI00
aI00
aI00
aI00
aI00
aI00
aI00
aa(lp872
I81006
aF144.1
aF501.97
aVp1
p873
aS'nimbussanl'
p874
aS'#000000'
p875
aF10.0
aI0
aI01
aI00
aI00
aI00
aI00
aI00
aI00
aI00
aa(lp876
I234378
aF179.16
aF501.97
aVp1
p877
aS'nimbussanl'
p878
aS'#000000'
p879
aF10.0
aI0
aI00
aI00
aI00
aI00
aI00
aI00
aI00
aI00
aa(lp880
I234378
aF220.587
aF501.97
ag877
aS'nimbussanl'
p881
aS'#000000'
p882
aF10.0
aI0
aI00
aI00
aI00
aI00
aI00
aI00
aI00
aI00
aa(lp883
I80286
aF232.49
aF501.97
aVp1
p884
aS'nimbussanl'
p885
aS'#000000'
p886
aF10.0
aI0
aI00
aI00
aI00
aI00
aI00
aI00
aI00
aI00
aa(lp887
I85218
aF276.94
aF501.97
aVp1
p888
aS'nimbussanl'
p889
aS'#000000'
p890
aF10.0
aI0
aI00
aI00
aI00
aI00
aI00
aI00
aI00
aI00
aa(lp891
I128359
aF300.91
aF501.97
aVp1
p892
aS'nimbussanl'
p893
aS'#000000'
p894
aF10.0
aI0
aI00
aI00
aI00
aI00
aI00
aI00
aI00
aI00
aa(lp895
I210461
aF347.57
aF501.97
aVp1
p896
aS'nimbussanl'
p897
aS'#000000'
p898
aF10.0
aI0
aI00
aI00
aI00
aI00
aI00
aI00
aI00
aI00
aa(lp899
I155968
aF377.03
aF501.97
aVp1
p900
aS'nimbussanl'
p901
aS'#000000'
p902
aF10.0
aI0
aI00
aI00
aI00
aI00
aI00
aI00
aI00
aI00
aa(lp903
I169745
aF411.48
aF501.97
aVp1
p904
aS'nimbussanl'
p905
aS'#000000'
p906
aF10.0
aI0
aI00
aI00
aI00
aI00
aI00
aI00
aI00
aI00
aa(lp907
I228990
aF436.55
aF501.97
aVp1
p908
aS'nimbussanl'
p909
aS'#000000'
p910
aF10.0
aI0
aI00
aI00
aI00
aI00
aI00
aI00
aI00
aI00
aa(lp911
I47770
aF466.02
aF501.97
aVp1
p912
aS'nimbussanl'
p913
aS'#000000'
p914
aF10.0
aI0
aI00
aI00
aI00
aI00
aI00
aI00
aI00
aI00
aa(lp915
I144509
aF144.1
aF514.47
aVp1
p916
aS'nimbussanl'
p917
aS'#000000'
p918
aF10.0
aI0
aI00
aI00
aI00
aI00
aI00
aI00
aI00
aI00
aa(lp919
I234378
aF204.59449999999998
aF514.47
ag916
aS'nimbussanl'
p920
aS'#000000'
p921
aF10.0
aI0
aI00
aI00
aI00
aI00
aI00
aI00
aI00
aI00
aa(lp922
I51933
aF90.1
aF553.31
aVp1
p923
aS'nimbussanl'
p924
aS'#000000'
p925
aF10.0
aI1
aI01
aI01
aI00
aI00
aI00
aI00
aI00
aI00
aa(lp926
I60220
aF112.8312
aF553.31
ag923
aS'nimbussanl'
p927
aS'#000000'
p928
aF10.0
aI1
aI01
aI01
aI00
aI00
aI00
aI00
aI00
aI00
aa(lp929
I234378
aF126.1
aF580.01
aVp1
p930
aS'nimbussanl'
p931
aS'#000000'
p932
aF10.0
aI1
aI00
aI00
aI01
aI01
aI00
aI00
aI00
aI00
aa(lp933
I234378
aF130.285
aF580.01
ag930
aS'nimbussanl'
p934
aS'#000000'
p935
aF10.0
aI1
aI00
aI00
aI00
aI00
aI00
aI00
aI00
aI00
aa(lp936
I163337
aF177.1
aF580.27
aVp1
p937
aS'nimbussanl'
p938
aS'#000000'
p939
aF10.0
aI0
aI01
aI00
aI00
aI00
aI00
aI00
aI00
aI00
aa(lp940
I123583
aF221.20374999999999
aF580.27
ag937
aS'nimbussanl'
p941
aS'#000000'
p942
aF10.0
aI0
aI00
aI00
aI00
aI00
aI00
aI00
aI00
aI00
aa(lp943
I16331
aF255.72888888888886
aF580.27
ag937
aS'nimbussanl'
p944
aS'#000000'
p945
aF10.0
aI0
aI00
aI00
aI00
aI00
aI00
aI00
aI00
aI00
aa(lp946
I166593
aF263.30749999999995
aF580.27
ag937
aS'nimbussanl'
p947
aS'#000000'
p948
aF10.0
aI0
aI00
aI00
aI00
aI00
aI00
aI00
aI00
aI00
aa(lp949
I149270
aF272.0968055555555
aF580.27
ag937
aS'nimbussanl'
p950
aS'#000000'
p951
aF10.0
aI0
aI01
aI00
aI00
aI00
aI00
aI00
aI00
aI00
aa(lp952
I175409
aF316.20055555555547
aF580.27
ag937
aS'nimbussanl'
p953
aS'#000000'
p954
aF10.0
aI0
aI01
aI00
aI00
aI00
aI00
aI00
aI00
aI00
aa(lp955
I135639
aF312.3577777777777
aF580.27
ag937
aS'nimbussanl'
p956
aS'#000000'
p957
aF10.0
aI0
aI00
aI00
aI00
aI00
aI00
aI00
aI00
aI00
aa(lp958
I234378
aF346.9363888888888
aF580.27
ag937
aS'nimbussanl'
p959
aS'#000000'
p960
aF10.0
aI0
aI01
aI01
aI00
aI00
aI00
aI00
aI00
aI00
aa(lp961
I60419
aF362.30430555555546
aF580.27
ag937
aS'nimbussanl'
p962
aS'#000000'
p963
aF10.0
aI0
aI01
aI00
aI00
aI00
aI00
aI00
aI00
aI00
aa(lp964
I85218
aF406.40805555555545
aF580.27
ag937
aS'nimbussanl'
p965
aS'#000000'
p966
aF10.0
aI0
aI00
aI00
aI00
aI00
aI00
aI00
aI00
aI00
aa(lp967
I234378
aF421.7759722222221
aF580.27
ag937
aS'nimbussanl'
p968
aS'#000000'
p969
aF10.0
aI0
aI00
aI00
aI00
aI00
aI00
aI00
aI00
aI00
aa(lp970
I234378
aF479.2476388888888
aF580.27
ag937
aS'nimbussanl'
p971
aS'#000000'
p972
aF10.0
aI0
aI00
aI00
aI00
aI00
aI00
aI00
aI00
aI00
aa(lp973
I131049
aF177.1
aF592.87
aVp1
p974
aS'nimbussanl'
p975
aS'#000000'
p976
aF10.0
aI0
aI00
aI00
aI00
aI00
aI00
aI00
aI00
aI00
aa(lp977
I37515
aF195.12666666666667
aF592.87
ag974
aS'nimbussanl'
p978
aS'#000000'
p979
aF10.0
aI0
aI01
aI00
aI00
aI00
aI00
aI00
aI00
aI01
aa(lp980
I234378
aF208.89666666666668
aF592.87
ag974
aS'nimbussanl'
p981
aS'#000000'
p982
aF10.0
aI0
aI00
aI00
aI01
aI01
aI01
aI00
aI00
aI00
aa(lp983
I89480
aF226.92333333333335
aF592.87
ag974
aS'nimbussanl'
p984
aS'#000000'
p985
aF10.0
aI0
aI00
aI00
aI00
aI00
aI00
aI00
aI00
aI00
aa(lp986
I36403
aF236.43666666666667
aF592.87
ag974
aS'nimbussanl'
p987
aS'#000000'
p988
aF10.0
aI0
aI00
aI00
aI00
aI00
aI00
aI00
aI00
aI00
aa(lp989
I132955
aF254.46333333333334
aF592.87
ag974
aS'nimbussanl'
p990
aS'#000000'
p991
aF10.0
aI0
aI00
aI00
aI00
aI00
aI00
aI00
aI00
aI00
aa(lp992
I234378
aF271.49
aF592.87
ag974
aS'nimbussanl'
p993
aS'#000000'
p994
aF10.0
aI0
aI00
aI00
aI00
aI00
aI00
aI00
aI00
aI00
aa(lp995
I234378
aF126.1
aF620.31
aVp1
p996
aS'nimbussanl'
p997
aS'#000000'
p998
aF10.0
aI1
aI00
aI00
aI01
aI01
aI00
aI00
aI00
aI00
aa(lp999
I234378
aF130.285
aF620.31
ag996
aS'nimbussanl'
p1000
aS'#000000'
p1001
aF10.0
aI1
aI00
aI00
aI00
aI00
aI00
aI00
aI00
aI00
aa(lp1002
I65415
aF177.1
aF620.57
aVp1
p1003
aS'nimbussanl'
p1004
aS'#000000'
p1005
aF10.0
aI0
aI01
aI00
aI00
aI00
aI00
aI00
aI00
aI00
aa(lp1006
I125458
aF226.152
aF620.57
ag1003
aS'nimbussanl'
p1007
aS'#000000'
p1008
aF10.0
aI0
aI00
aI00
aI00
aI00
aI00
aI00
aI00
aI00
aa(lp1009
I16331
aF255.98319999999998
aF620.57
ag1003
aS'nimbussanl'
p1010
aS'#000000'
p1011
aF10.0
aI0
aI00
aI00
aI00
aI00
aI00
aI00
aI00
aI00
aa(lp1012
I166593
aF263.5936
aF620.57
ag1003
aS'nimbussanl'
p1013
aS'#000000'
p1014
aF10.0
aI0
aI00
aI00
aI00
aI00
aI00
aI00
aI00
aI00
aa(lp1015
I55966
aF272.3988
aF620.57
ag1003
aS'nimbussanl'
p1016
aS'#000000'
p1017
aF10.0
aI0
aI01
aI00
aI00
aI00
aI00
aI00
aI00
aI00
aa(lp1018
I234378
aF302.23
aF620.57
ag1003
aS'nimbussanl'
p1019
aS'#000000'
p1020
aF10.0
aI0
aI01
aI00
aI00
aI00
aI00
aI00
aI00
aI00
aa(lp1021
I132100
aF341.6716
aF620.57
ag1003
aS'nimbussanl'
p1022
aS'#000000'
p1023
aF10.0
aI0
aI01
aI00
aI00
aI00
aI00
aI00
aI00
aI00
aa(lp1024
I135639
aF375.1132
aF620.57
ag1003
aS'nimbussanl'
p1025
aS'#000000'
p1026
aF10.0
aI0
aI00
aI00
aI00
aI00
aI00
aI00
aI00
aI00
aa(lp1027
I234378
aF418.89
aF620.57
aVp1
p1028
aS'nimbussanl'
p1029
aS'#000000'
p1030
aF10.0
aI0
aI01
aI00
aI00
aI00
aI00
aI00
aI00
aI00
aa(lp1031
I234378
aF447.02421052631576
aF620.57
ag1028
aS'nimbussanl'
p1032
aS'#000000'
p1033
aF10.0
aI0
aI01
aI00
aI00
aI00
aI00
aI00
aI00
aI00
aa(lp1034
I234378
aF512.1463157894736
aF620.57
ag1028
aS'nimbussanl'
p1035
aS'#000000'
p1036
aF10.0
aI0
aI00
aI00
aI00
aI00
aI00
aI00
aI00
aI00
aa(lp1037
I131049
aF177.1
aF633.17
aVp1
p1038
aS'nimbussanl'
p1039
aS'#000000'
p1040
aF10.0
aI0
aI00
aI00
aI00
aI00
aI00
aI00
aI00
aI00
aa(lp1041
I234378
aF197.48923076923077
aF633.17
ag1038
aS'nimbussanl'
p1042
aS'#000000'
p1043
aF10.0
aI0
aI01
aI00
aI00
aI00
aI00
aI00
aI00
aI01
aa(lp1044
I234378
aF213.03115384615384
aF633.17
ag1038
aS'nimbussanl'
p1045
aS'#000000'
p1046
aF10.0
aI0
aI00
aI00
aI01
aI01
aI01
aI00
aI00
aI00
aa(lp1047
I89480
aF233.42038461538462
aF633.17
ag1038
aS'nimbussanl'
p1048
aS'#000000'
p1049
aF10.0
aI0
aI00
aI00
aI00
aI00
aI00
aI00
aI00
aI00
aa(lp1050
I37515
aF244.115
aF633.17
ag1038
aS'nimbussanl'
p1051
aS'#000000'
p1052
aF10.0
aI0
aI01
aI00
aI00
aI00
aI00
aI00
aI00
aI01
aa(lp1053
I234378
aF259.6569230769231
aF633.17
ag1038
aS'nimbussanl'
p1054
aS'#000000'
p1055
aF10.0
aI0
aI00
aI00
aI01
aI01
aI01
aI00
aI00
aI00
aa(lp1056
I234378
aF279.04615384615386
aF633.17
ag1038
aS'nimbussanl'
p1057
aS'#000000'
p1058
aF10.0
aI0
aI00
aI00
aI00
aI00
aI00
aI00
aI00
aI00
aa(lp1059
I234378
aF126.1
aF660.51
aVp1
p1060
aS'nimbussanl'
p1061
aS'#000000'
p1062
aF10.0
aI1
aI00
aI00
aI01
aI01
aI00
aI00
aI00
aI00
aa(lp1063
I234378
aF130.285
aF660.51
ag1060
aS'nimbussanl'
p1064
aS'#000000'
p1065
aF10.0
aI1
aI00
aI00
aI00
aI00
aI00
aI00
aI00
aI00
aa(lp1066
I65415
aF177.1
aF660.77
aVp1
p1067
aS'nimbussanl'
p1068
aS'#000000'
p1069
aF10.0
aI0
aI01
aI00
aI00
aI00
aI00
aI00
aI00
aI00
aa(lp1070
I125458
aF226.00454545454545
aF660.77
ag1067
aS'nimbussanl'
p1071
aS'#000000'
p1072
aF10.0
aI0
aI00
aI00
aI00
aI00
aI00
aI00
aI00
aI00
aa(lp1073
I16331
aF255.74727272727273
aF660.77
ag1067
aS'nimbussanl'
p1074
aS'#000000'
p1075
aF10.0
aI0
aI00
aI00
aI00
aI00
aI00
aI00
aI00
aI00
aa(lp1076
I166593
aF263.3281818181818
aF660.77
ag1067
aS'nimbussanl'
p1077
aS'#000000'
p1078
aF10.0
aI0
aI00
aI00
aI00
aI00
aI00
aI00
aI00
aI00
aa(lp1079
I55966
aF272.11863636363637
aF660.77
ag1067
aS'nimbussanl'
p1080
aS'#000000'
p1081
aF10.0
aI0
aI01
aI00
aI00
aI00
aI00
aI00
aI00
aI00
aa(lp1082
I234378
aF301.86136363636365
aF660.77
ag1067
aS'nimbussanl'
p1083
aS'#000000'
p1084
aF10.0
aI0
aI01
aI00
aI00
aI00
aI00
aI00
aI00
aI00
aa(lp1085
I132100
aF341.185
aF660.77
ag1067
aS'nimbussanl'
p1086
aS'#000000'
p1087
aF10.0
aI0
aI01
aI00
aI00
aI00
aI00
aI00
aI00
aI00
aa(lp1088
I234378
aF380.50863636363636
aF660.77
ag1067
aS'nimbussanl'
p1089
aS'#000000'
p1090
aF10.0
aI0
aI00
aI00
aI00
aI00
aI00
aI00
aI00
aI00
aa(lp1091
I234378
aF385.2990909090909
aF660.77
ag1067
aS'nimbussanl'
p1092
aS'#000000'
p1093
aF10.0
aI0
aI01
aI00
aI00
aI00
aI00
aI00
aI00
aI00
aa(lp1094
I234378
aF404.4609090909091
aF660.77
ag1067
aS'nimbussanl'
p1095
aS'#000000'
p1096
aF10.0
aI0
aI00
aI00
aI00
aI00
aI00
aI00
aI00
aI00
aa(lp1097
I95887
aF410.2513636363637
aF660.77
ag1067
aS'nimbussanl'
p1098
aS'#000000'
p1099
aF10.0
aI0
aI01
aI00
aI00
aI00
aI00
aI00
aI00
aI00
aa(lp1100
I234378
aF443.78454545454554
aF660.77
ag1067
aS'nimbussanl'
p1101
aS'#000000'
p1102
aF10.0
aI0
aI00
aI00
aI00
aI00
aI00
aI00
aI00
aI00
aa(lp1103
I135639
aF427.5750000000001
aF660.77
ag1067
aS'nimbussanl'
p1104
aS'#000000'
p1105
aF10.0
aI0
aI00
aI00
aI00
aI00
aI00
aI00
aI00
aI00
aa(lp1106
I234378
aF494.7
aF660.77
aVp1
p1107
aS'nimbussanl'
p1108
aS'#000000'
p1109
aF10.0
aI0
aI01
aI01
aI00
aI00
aI00
aI00
aI00
aI00
aa(lp1110
I234378
aF177.1
aF673.41
aVp1
p1111
aS'nimbussanl'
p1112
aS'#000000'
p1113
aF10.0
aI1
aI01
aI00
aI00
aI00
aI00
aI00
aI00
aI00
aa(lp1114
I234378
aF211.701
aF673.41
ag1111
aS'nimbussanl'
p1115
aS'#000000'
p1116
aF10.0
aI1
aI00
aI00
aI00
aI00
aI00
aI00
aI00
aI00
aa(lp1117
I234378
aF217.644
aF673.41
ag1111
aS'nimbussanl'
p1118
aS'#000000'
p1119
aF10.0
aI1
aI01
aI01
aI00
aI00
aI00
aI00
aI00
aI00
aa(lp1120
I234378
aF227.473
aF673.41
ag1111
aS'nimbussanl'
p1121
aS'#000000'
p1122
aF10.0
aI1
aI00
aI00
aI00
aI00
aI00
aI00
aI00
aI00
aa(lp1123
I131049
aF238.41600000000003
aF673.41
ag1111
aS'nimbussanl'
p1124
aS'#000000'
p1125
aF10.0
aI1
aI00
aI00
aI00
aI00
aI00
aI00
aI00
aI00
aa(lp1126
I37515
aF259.18800000000005
aF673.41
ag1111
aS'nimbussanl'
p1127
aS'#000000'
p1128
aF10.0
aI1
aI01
aI00
aI00
aI00
aI00
aI00
aI00
aI01
aa(lp1129
I234378
aF275.01700000000005
aF673.41
ag1111
aS'nimbussanl'
p1130
aS'#000000'
p1131
aF10.0
aI1
aI00
aI00
aI01
aI01
aI01
aI00
aI00
aI00
aa(lp1132
I89480
aF295.78900000000004
aF673.41
ag1111
aS'nimbussanl'
p1133
aS'#000000'
p1134
aF10.0
aI1
aI00
aI00
aI00
aI00
aI00
aI00
aI00
aI00
aa(lp1135
I234378
aF306.67500000000007
aF673.41
ag1111
aS'nimbussanl'
p1136
aS'#000000'
p1137
aF10.0
aI1
aI01
aI00
aI00
aI00
aI00
aI00
aI00
aI01
aa(lp1138
I234378
aF322.5040000000001
aF673.41
ag1111
aS'nimbussanl'
p1139
aS'#000000'
p1140
aF10.0
aI1
aI00
aI00
aI01
aI01
aI01
aI00
aI00
aI00
aa(lp1141
I234378
aF342.27600000000007
aF673.41
ag1111
aS'nimbussanl'
p1142
aS'#000000'
p1143
aF10.0
aI1
aI00
aI00
aI00
aI00
aI00
aI00
aI00
aI00
aa(lp1144
I234378
aF126.1
aF701.21
aVp1
p1145
aS'nimbussanl'
p1146
aS'#000000'
p1147
aF10.0
aI1
aI00
aI00
aI01
aI01
aI00
aI00
aI00
aI00
aa(lp1148
I234378
aF130.285
aF701.21
ag1145
aS'nimbussanl'
p1149
aS'#000000'
p1150
aF10.0
aI1
aI00
aI00
aI00
aI00
aI00
aI00
aI00
aI00
aa(lp1151
I65415
aF177.1
aF701.47
aVp1
p1152
aS'nimbussanl'
p1153
aS'#000000'
p1154
aF10.0
aI0
aI01
aI00
aI00
aI00
aI00
aI00
aI00
aI00
aa(lp1155
I125458
aF225.34794520547945
aF701.47
ag1152
aS'nimbussanl'
p1156
aS'#000000'
p1157
aF10.0
aI0
aI00
aI00
aI00
aI00
aI00
aI00
aI00
aI00
aa(lp1158
I16331
aF254.69671232876712
aF701.47
ag1152
aS'nimbussanl'
p1159
aS'#000000'
p1160
aF10.0
aI0
aI00
aI00
aI00
aI00
aI00
aI00
aI00
aI00
aa(lp1161
I166593
aF262.146301369863
aF701.47
ag1152
aS'nimbussanl'
p1162
aS'#000000'
p1163
aF10.0
aI0
aI00
aI00
aI00
aI00
aI00
aI00
aI00
aI00
aa(lp1164
I55966
aF271.87109589041097
aF701.47
ag1152
aS'nimbussanl'
p1165
aS'#000000'
p1166
aF10.0
aI0
aI01
aI00
aI00
aI00
aI00
aI00
aI00
aI00
aa(lp1167
I234378
aF301.2198630136986
aF701.47
ag1152
aS'nimbussanl'
p1168
aS'#000000'
p1169
aF10.0
aI0
aI01
aI00
aI00
aI00
aI00
aI00
aI00
aI00
aa(lp1170
I132100
aF340.0182191780822
aF701.47
ag1152
aS'nimbussanl'
p1171
aS'#000000'
p1172
aF10.0
aI0
aI01
aI00
aI00
aI00
aI00
aI00
aI00
aI00
aa(lp1173
I135639
aF372.81657534246574
aF701.47
ag1152
aS'nimbussanl'
p1174
aS'#000000'
p1175
aF10.0
aI0
aI00
aI00
aI00
aI00
aI00
aI00
aI00
aI00
aa(lp1176
I233063
aF389.26616438356166
aF701.47
ag1152
aS'nimbussanl'
p1177
aS'#000000'
p1178
aF10.0
aI0
aI01
aI01
aI00
aI00
aI00
aI00
aI00
aI00
aa(lp1179
I103747
aF394.9909589041096
aF701.47
ag1152
aS'nimbussanl'
p1180
aS'#000000'
p1181
aF10.0
aI0
aI01
aI00
aI00
aI00
aI00
aI00
aI00
aI00
aa(lp1182
I234378
aF409.16534246575344
aF701.47
ag1152
aS'nimbussanl'
p1183
aS'#000000'
p1184
aF10.0
aI0
aI00
aI00
aI00
aI00
aI00
aI00
aI00
aI00
aa(lp1185
I164802
aF414.8901369863014
aF701.47
ag1152
aS'nimbussanl'
p1186
aS'#000000'
p1187
aF10.0
aI0
aI01
aI00
aI00
aI00
aI00
aI00
aI00
aI00
aa(lp1188
I234378
aF438.51410958904114
aF701.47
ag1152
aS'nimbussanl'
p1189
aS'#000000'
p1190
aF10.0
aI0
aI00
aI00
aI00
aI00
aI00
aI00
aI00
aI00
aa(lp1191
I102025
aF443.2389041095891
aF701.47
ag1152
aS'nimbussanl'
p1192
aS'#000000'
p1193
aF10.0
aI0
aI01
aI00
aI00
aI00
aI00
aI00
aI00
aI00
aa(lp1194
I192651
aF177.1
aF714.11
aVp1
p1195
aS'nimbussanl'
p1196
aS'#000000'
p1197
aF10.0
aI1
aI00
aI00
aI00
aI00
aI00
aI00
aI00
aI00
aa(lp1198
I234378
aF188.4942857142857
aF714.11
ag1195
aS'nimbussanl'
p1199
aS'#000000'
p1200
aF10.0
aI1
aI01
aI00
aI00
aI00
aI00
aI00
aI00
aI00
aa(lp1201
I234378
aF240.46571428571428
aF714.11
ag1195
aS'nimbussanl'
p1202
aS'#000000'
p1203
aF10.0
aI1
aI00
aI00
aI00
aI00
aI00
aI00
aI00
aI00
aa(lp1204
I234378
aF177.1
aF27.01
aVp2
p1205
aS'nimbussanl'
p1206
aS'#000000'
p1207
aF10.0
aI1
aI00
aI00
aI00
aI00
aI00
aI00
aI00
aI00
aa(lp1208
I234378
aF181.69053571428572
aF27.01
ag1205
aS'nimbussanl'
p1209
aS'#000000'
p1210
aF10.0
aI1
aI00
aI00
aI00
aI00
aI00
aI00
aI00
aI00
aa(lp1211
I234378
aF204.6432142857143
aF27.01
ag1205
aS'nimbussanl'
p1212
aS'#000000'
p1213
aF10.0
aI1
aI00
aI00
aI00
aI00
aI00
aI00
aI00
aI00
aa(lp1214
I234378
aF209.23375000000001
aF27.01
ag1205
aS'nimbussanl'
p1215
aS'#000000'
p1216
aF10.0
aI1
aI00
aI00
aI00
aI00
aI00
aI00
aI00
aI00
aa(lp1217
I234378
aF212.82428571428574
aF27.01
ag1205
aS'nimbussanl'
p1218
aS'#000000'
p1219
aF10.0
aI1
aI00
aI00
aI00
aI00
aI00
aI00
aI00
aI00
aa(lp1220
I234378
aF218.41482142857146
aF27.01
ag1205
aS'nimbussanl'
p1221
aS'#000000'
p1222
aF10.0
aI1
aI00
aI00
aI00
aI00
aI00
aI00
aI00
aI00
aa(lp1223
I234378
aF232.1864285714286
aF27.01
ag1205
aS'nimbussanl'
p1224
aS'#000000'
p1225
aF10.0
aI1
aI00
aI00
aI00
aI00
aI00
aI00
aI00
aI00
aa(lp1226
I234378
aF236.7769642857143
aF27.01
ag1205
aS'nimbussanl'
p1227
aS'#000000'
p1228
aF10.0
aI1
aI00
aI00
aI00
aI00
aI00
aI00
aI00
aI00
aa(lp1229
I234378
aF271.68232142857147
aF27.01
ag1205
aS'nimbussanl'
p1230
aS'#000000'
p1231
aF10.0
aI1
aI00
aI00
aI00
aI00
aI00
aI00
aI00
aI00
aa(lp1232
I31679
aF287.27285714285716
aF27.01
ag1205
aS'nimbussanl'
p1233
aS'#000000'
p1234
aF10.0
aI1
aI00
aI00
aI00
aI00
aI00
aI00
aI00
aI00
aa(lp1235
I234378
aF277.4539285714286
aF27.01
ag1205
aS'nimbussanl'
p1236
aS'#000000'
p1237
aF10.0
aI1
aI00
aI00
aI00
aI00
aI00
aI00
aI00
aI00
aa(lp1238
I234378
aF301.0444642857143
aF27.01
ag1205
aS'nimbussanl'
p1239
aS'#000000'
p1240
aF10.0
aI1
aI00
aI00
aI00
aI00
aI00
aI00
aI00
aI00
aa(lp1241
I234378
aF305.635
aF27.01
ag1205
aS'nimbussanl'
p1242
aS'#000000'
p1243
aF10.0
aI1
aI00
aI00
aI00
aI00
aI00
aI00
aI00
aI00
aa(lp1244
I131049
aF311.2255357142857
aF27.01
ag1205
aS'nimbussanl'
p1245
aS'#000000'
p1246
aF10.0
aI1
aI00
aI00
aI00
aI00
aI00
aI00
aI00
aI00
aa(lp1247
I61519
aF330.58767857142857
aF27.01
ag1205
aS'nimbussanl'
p1248
aS'#000000'
p1249
aF10.0
aI1
aI01
aI00
aI00
aI00
aI00
aI00
aI00
aI01
aa(lp1250
I234378
aF345.3592857142857
aF27.01
ag1205
aS'nimbussanl'
p1251
aS'#000000'
p1252
aF10.0
aI1
aI00
aI00
aI01
aI01
aI01
aI00
aI00
aI00
aa(lp1253
I89480
aF364.72142857142853
aF27.01
ag1205
aS'nimbussanl'
p1254
aS'#000000'
p1255
aF10.0
aI1
aI00
aI00
aI00
aI00
aI00
aI00
aI00
aI00
aa(lp1256
I37515
aF374.9025
aF27.01
ag1205
aS'nimbussanl'
p1257
aS'#000000'
p1258
aF10.0
aI1
aI01
aI00
aI00
aI00
aI00
aI00
aI00
aI01
aa(lp1259
I234378
aF389.6741071428571
aF27.01
ag1205
aS'nimbussanl'
p1260
aS'#000000'
p1261
aF10.0
aI1
aI00
aI00
aI01
aI01
aI01
aI00
aI00
aI00
aa(lp1262
I234378
aF365.03625
aF27.01
ag1205
aS'nimbussanl'
p1263
aS'#000000'
p1264
aF10.0
aI1
aI00
aI00
aI00
aI00
aI00
aI00
aI00
aI00
aa(lp1265
I149270
aF90.1
aF163.21
aVp2
p1266
aS'nimbussanl'
p1267
aS'#000000'
p1268
aF10.0
aI1
aI01
aI01
aI00
aI00
aI00
aI00
aI00
aI00
aa(lp1269
I234378
aF136.1675
aF163.21
ag1266
aS'nimbussanl'
p1270
aS'#000000'
p1271
aF10.0
aI1
aI01
aI01
aI00
aI00
aI00
aI00
aI00
aI00
aa(lp1272
I69610
aF179.6
aF178.61
aVp2
p1273
aS'nimbussanl'
p1274
aS'#000000'
p1275
aF10.0
aI1
aI01
aI00
aI00
aI00
aI00
aI00
aI00
aI00
aa(lp1276
I96401
aF424.4
aF178.61
aVp2
p1277
aS'nimbussanl'
p1278
aS'#000000'
p1279
aF10.0
aI1
aI01
aI00
aI00
aI00
aI00
aI00
aI00
aI00
aa(lp1280
I234378
aF86.3
aF193.47
aVp2
p1281
aS'nimbussanl'
p1282
aS'#000000'
p1283
aF10.0
aI0
aI01
aI00
aI00
aI00
aI00
aI00
aI00
aI00
aa(lp1284
I84662
aF179.6
aF193.31
aVp2
p1285
aS'nimbussanl'
p1286
aS'#000000'
p1287
aF10.0
aI1
aI01
aI00
aI00
aI00
aI00
aI00
aI00
aI00
aa(lp1288
I21716
aF201.80888888888887
aF193.31
ag1285
aS'nimbussanl'
p1289
aS'#000000'
p1290
aF10.0
aI1
aI01
aI00
aI00
aI00
aI00
aI00
aI00
aI00
aa(lp1291
I233063
aF424.4
aF193.47
aVp2
p1292
aS'nimbussanl'
p1293
aS'#000000'
p1294
aF10.0
aI0
aI01
aI01
aI00
aI00
aI00
aI00
aI00
aI00
aa(lp1295
I234378
aF429.66999999999996
aF193.47
ag1292
aS'nimbussanl'
p1296
aS'#000000'
p1297
aF10.0
aI0
aI00
aI00
aI00
aI00
aI00
aI00
aI00
aI00
aa(lp1298
I233063
aF432.93999999999994
aF193.47
ag1292
aS'nimbussanl'
p1299
aS'#000000'
p1300
aF10.0
aI0
aI01
aI01
aI00
aI00
aI00
aI00
aI00
aI00
aa(lp1301
I21716
aF86.3
aF213.91
aVp2
p1302
aS'nimbussanl'
p1303
aS'#000000'
p1304
aF10.0
aI1
aI01
aI01
aI00
aI00
aI00
aI00
aI00
aI00
aa(lp1305
I234378
aF107.48181818181818
aF213.91
ag1302
aS'nimbussanl'
p1306
aS'#000000'
p1307
aF10.0
aI1
aI01
aI00
aI00
aI00
aI00
aI00
aI00
aI00
aa(lp1308
I234378
aF179.6
aF207.97
aVp2
p1309
aS'nimbussanl'
p1310
aS'#000000'
p1311
aF10.0
aI0
aI01
aI00
aI01
aI00
aI00
aI00
aI00
aI00
aa(lp1312
I234378
aF211.3614705882353
aF207.97
ag1309
aS'nimbussanl'
p1313
aS'#000000'
p1314
aF10.0
aI0
aI00
aI00
aI00
aI00
aI00
aI00
aI00
aI00
aa(lp1315
I225568
aF215.89882352941177
aF207.97
ag1309
aS'nimbussanl'
p1316
aS'#000000'
p1317
aF10.0
aI0
aI00
aI00
aI00
aI00
aI00
aI00
aI00
aI00
aa(lp1318
I234378
aF220.43617647058824
aF207.97
ag1309
aS'nimbussanl'
p1319
aS'#000000'
p1320
aF10.0
aI0
aI00
aI00
aI00
aI00
aI00
aI00
aI00
aI00
aa(lp1321
I176767
aF224.9735294117647
aF207.97
ag1309
aS'nimbussanl'
p1322
aS'#000000'
p1323
aF10.0
aI0
aI01
aI00
aI00
aI00
aI00
aI00
aI00
aI00
aa(lp1324
I234378
aF255.80970588235294
aF207.97
ag1309
aS'nimbussanl'
p1325
aS'#000000'
p1326
aF10.0
aI0
aI00
aI00
aI00
aI00
aI00
aI00
aI00
aI00
aa(lp1327
I148996
aF270.34705882352944
aF207.97
ag1309
aS'nimbussanl'
p1328
aS'#000000'
p1329
aF10.0
aI0
aI01
aI00
aI00
aI00
aI00
aI00
aI00
aI00
aa(lp1330
I234378
aF280.5711764705883
aF207.97
ag1309
aS'nimbussanl'
p1331
aS'#000000'
p1332
aF10.0
aI0
aI00
aI00
aI00
aI00
aI00
aI00
aI00
aI00
aa(lp1333
I208006
aF302.1085294117648
aF207.97
ag1309
aS'nimbussanl'
p1334
aS'#000000'
p1335
aF10.0
aI0
aI01
aI00
aI00
aI00
aI00
aI00
aI00
aI00
aa(lp1336
I123665
aF374.99
aF207.97
aVp2
p1337
aS'nimbussanl'
p1338
aS'#000000'
p1339
aF10.0
aI0
aI00
aI00
aI00
aI00
aI00
aI00
aI00
aI00
aa(lp1340
I68032
aF179.6
aF220.37
aVp2
p1341
aS'nimbussanl'
p1342
aS'#000000'
p1343
aF10.0
aI0
aI00
aI00
aI00
aI00
aI00
aI00
aI00
aI00
aa(lp1344
I234378
aF424.4
aF214.17
aVp2
p1345
aS'nimbussanl'
p1346
aS'#000000'
p1347
aF10.0
aI0
aI01
aI00
aI00
aI00
aI00
aI00
aI00
aI00
aa(lp1348
I82213
aF86.3
aF234.57
aVp2
p1349
aS'nimbussanl'
p1350
aS'#000000'
p1351
aF10.0
aI0
aI01
aI00
aI00
aI00
aI00
aI00
aI00
aI00
aa(lp1352
I207716
aF132.271875
aF234.57
ag1349
aS'nimbussanl'
p1353
aS'#000000'
p1354
aF10.0
aI0
aI01
aI00
aI00
aI00
aI00
aI00
aI00
aI00
aa(lp1355
I208006
aF179.6
aF234.57
aVp2
p1356
aS'nimbussanl'
p1357
aS'#000000'
p1358
aF10.0
aI0
aI01
aI00
aI00
aI00
aI00
aI00
aI00
aI00
aa(lp1359
I234378
aF213.23137931034483
aF234.57
ag1356
aS'nimbussanl'
p1360
aS'#000000'
p1361
aF10.0
aI0
aI00
aI00
aI00
aI00
aI00
aI00
aI00
aI00
aa(lp1362
I234378
aF219.0358620689655
aF234.57
ag1356
aS'nimbussanl'
p1363
aS'#000000'
p1364
aF10.0
aI0
aI01
aI00
aI00
aI00
aI00
aI00
aI00
aI00
aa(lp1365
I234378
aF253.66724137931033
aF234.57
ag1356
aS'nimbussanl'
p1366
aS'#000000'
p1367
aF10.0
aI0
aI00
aI00
aI01
aI00
aI00
aI00
aI00
aI00
aa(lp1368
I234378
aF251.27620689655168
aF234.57
ag1356
aS'nimbussanl'
p1369
aS'#000000'
p1370
aF10.0
aI0
aI00
aI00
aI00
aI00
aI00
aI00
aI00
aI00
aa(lp1371
I234378
aF269.08068965517236
aF234.57
ag1356
aS'nimbussanl'
p1372
aS'#000000'
p1373
aF10.0
aI0
aI01
aI00
aI00
aI00
aI00
aI00
aI00
aI00
aa(lp1374
I234378
aF278.6896551724137
aF234.57
ag1356
aS'nimbussanl'
p1375
aS'#000000'
p1376
aF10.0
aI0
aI00
aI00
aI00
aI00
aI00
aI00
aI00
aI00
aa(lp1377
I234378
aF283.4941379310344
aF234.57
ag1356
aS'nimbussanl'
p1378
aS'#000000'
p1379
aF10.0
aI0
aI00
aI00
aI01
aI01
aI01
aI00
aI00
aI00
aa(lp1380
I234378
aF302.7120689655172
aF234.57
ag1356
aS'nimbussanl'
p1381
aS'#000000'
p1382
aF10.0
aI0
aI00
aI00
aI00
aI00
aI00
aI00
aI00
aI00
aa(lp1383
I234378
aF86.3
aF248.77
aVp2
p1384
aS'nimbussanl'
p1385
aS'#000000'
p1386
aF10.0
aI0
aI01
aI00
aI00
aI00
aI00
aI00
aI00
aI00
aa(lp1387
I234378
aF179.6
aF248.77
aVp2
p1388
aS'nimbussanl'
p1389
aS'#000000'
p1390
aF10.0
aI0
aI01
aI00
aI00
aI00
aI00
aI00
aI00
aI00
aa(lp1391
I234378
aF205.368
aF248.77
ag1388
aS'nimbussanl'
p1392
aS'#000000'
p1393
aF10.0
aI0
aI00
aI00
aI00
aI00
aI00
aI00
aI00
aI00
aa(lp1394
I45445
aF211.5216
aF248.77
ag1388
aS'nimbussanl'
p1395
aS'#000000'
p1396
aF10.0
aI0
aI01
aI00
aI00
aI00
aI00
aI00
aI00
aI00
aa(lp1397
I234378
aF234.4432
aF248.77
ag1388
aS'nimbussanl'
p1398
aS'#000000'
p1399
aF10.0
aI0
aI00
aI00
aI00
aI00
aI00
aI00
aI00
aI00
aa(lp1400
I234378
aF235.5968
aF248.77
ag1388
aS'nimbussanl'
p1401
aS'#000000'
p1402
aF10.0
aI0
aI01
aI01
aI00
aI00
aI00
aI00
aI00
aI00
aa(lp1403
I108443
aF265.0576
aF248.77
ag1388
aS'nimbussanl'
p1404
aS'#000000'
p1405
aF10.0
aI0
aI01
aI00
aI00
aI00
aI00
aI00
aI00
aI00
aa(lp1406
I234378
aF424.4
aF248.77
aVp2
p1407
aS'nimbussanl'
p1408
aS'#000000'
p1409
aF10.0
aI0
aI01
aI01
aI00
aI00
aI00
aI00
aI00
aI00
aa(lp1410
I212447
aF437.4233333333333
aF248.77
ag1407
aS'nimbussanl'
p1411
aS'#000000'
p1412
aF10.0
aI0
aI01
aI00
aI00
aI00
aI00
aI00
aI00
aI00
aa(lp1413
I234378
aF86.3
aF262.97
aVp2
p1414
aS'nimbussanl'
p1415
aS'#000000'
p1416
aF10.0
aI0
aI01
aI00
aI00
aI00
aI00
aI00
aI00
aI00
aa(lp1417
I234378
aF143.67823529411766
aF262.97
ag1414
aS'nimbussanl'
p1418
aS'#000000'
p1419
aF10.0
aI0
aI01
aI00
aI00
aI00
aI00
aI00
aI00
aI00
aa(lp1420
I223319
aF179.6
aF262.97
aVp2
p1421
aS'nimbussanl'
p1422
aS'#000000'
p1423
aF10.0
aI0
aI01
aI00
aI00
aI00
aI00
aI00
aI00
aI00
aa(lp1424
I234378
aF212.07333333333332
aF262.97
ag1421
aS'nimbussanl'
p1425
aS'#000000'
p1426
aF10.0
aI0
aI00
aI00
aI00
aI00
aI00
aI00
aI00
aI00
aa(lp1427
I80365
aF217.71238095238095
aF262.97
ag1421
aS'nimbussanl'
p1428
aS'#000000'
p1429
aF10.0
aI0
aI01
aI00
aI00
aI00
aI00
aI00
aI00
aI00
aa(lp1430
I234378
aF232.62952380952382
aF262.97
ag1421
aS'nimbussanl'
p1431
aS'#000000'
p1432
aF10.0
aI0
aI01
aI00
aI00
aI00
aI00
aI00
aI00
aI00
aa(lp1433
I234378
aF256.8247619047619
aF262.97
ag1421
aS'nimbussanl'
p1434
aS'#000000'
p1435
aF10.0
aI0
aI01
aI01
aI01
aI00
aI00
aI00
aI00
aI00
aa(lp1436
I234378
aF275.38095238095235
aF262.97
ag1421
aS'nimbussanl'
p1437
aS'#000000'
p1438
aF10.0
aI0
aI00
aI00
aI00
aI00
aI00
aI00
aI00
aI00
aa(lp1439
I234378
aF280.02
aF262.97
ag1421
aS'nimbussanl'
p1440
aS'#000000'
p1441
aF10.0
aI0
aI00
aI00
aI01
aI01
aI00
aI00
aI00
aI00
aa(lp1442
I234378
aF282.6590476190476
aF262.97
ag1421
aS'nimbussanl'
p1443
aS'#000000'
p1444
aF10.0
aI0
aI00
aI00
aI00
aI00
aI00
aI00
aI00
aI00
aa(lp1445
I234378
aF270.29809523809524
aF262.97
ag1421
aS'nimbussanl'
p1446
aS'#000000'
p1447
aF10.0
aI0
aI00
aI00
aI00
aI00
aI00
aI00
aI00
aI00
aa(lp1448
I180850
aF294.9371428571429
aF262.97
ag1421
aS'nimbussanl'
p1449
aS'#000000'
p1450
aF10.0
aI0
aI01
aI00
aI00
aI00
aI00
aI00
aI00
aI00
aa(lp1451
I234378
aF342.32761904761907
aF262.97
ag1421
aS'nimbussanl'
p1452
aS'#000000'
p1453
aF10.0
aI0
aI01
aI01
aI00
aI00
aI00
aI00
aI00
aI00
aa(lp1454
I234378
aF424.4
aF262.97
aVp2
p1455
aS'nimbussanl'
p1456
aS'#000000'
p1457
aF10.0
aI0
aI01
aI01
aI00
aI00
aI00
aI00
aI00
aI00
aa(lp1458
I68365
aF437.25555555555553
aF262.97
ag1455
aS'nimbussanl'
p1459
aS'#000000'
p1460
aF10.0
aI0
aI01
aI00
aI00
aI00
aI00
aI00
aI00
aI00
aa(lp1461
I221291
aF86.3
aF278.37
aVp2
p1462
aS'nimbussanl'
p1463
aS'#000000'
p1464
aF10.0
aI0
aI01
aI00
aI00
aI00
aI00
aI00
aI00
aI00
aa(lp1465
I109247
aF106.10941176470588
aF278.37
ag1462
aS'nimbussanl'
p1466
aS'#000000'
p1467
aF10.0
aI0
aI01
aI00
aI00
aI00
aI00
aI00
aI00
aI00
aa(lp1468
I156028
aF140.02588235294118
aF278.37
ag1462
aS'nimbussanl'
p1469
aS'#000000'
p1470
aF10.0
aI0
aI01
aI00
aI00
aI00
aI00
aI00
aI00
aI00
aa(lp1471
I234378
aF179.6
aF278.37
aVp2
p1472
aS'nimbussanl'
p1473
aS'#000000'
p1474
aF10.0
aI0
aI01
aI00
aI00
aI00
aI00
aI00
aI00
aI00
aa(lp1475
I234378
aF229.23636363636365
aF278.37
ag1472
aS'nimbussanl'
p1476
aS'#000000'
p1477
aF10.0
aI0
aI00
aI00
aI00
aI00
aI00
aI00
aI00
aI00
aa(lp1478
I234378
aF235.20000000000002
aF278.37
ag1472
aS'nimbussanl'
p1479
aS'#000000'
p1480
aF10.0
aI0
aI01
aI01
aI00
aI00
aI00
aI00
aI00
aI00
aa(lp1481
I234378
aF245.09090909090912
aF278.37
ag1472
aS'nimbussanl'
p1482
aS'#000000'
p1483
aF10.0
aI0
aI00
aI00
aI00
aI00
aI00
aI00
aI00
aI00
aa(lp1484
I234378
aF255.0545454545455
aF278.37
ag1472
aS'nimbussanl'
p1485
aS'#000000'
p1486
aF10.0
aI0
aI01
aI00
aI00
aI00
aI00
aI00
aI00
aI00
aa(lp1487
I68032
aF280.87272727272733
aF278.37
ag1472
aS'nimbussanl'
p1488
aS'#000000'
p1489
aF10.0
aI0
aI01
aI00
aI00
aI00
aI00
aI00
aI00
aI00
aa(lp1490
I221291
aF86.3
aF294.97
aVp2
p1491
aS'nimbussanl'
p1492
aS'#000000'
p1493
aF10.0
aI0
aI01
aI00
aI00
aI00
aI00
aI00
aI00
aI00
aa(lp1494
I56042
aF107.71
aF294.97
ag1491
aS'nimbussanl'
p1495
aS'#000000'
p1496
aF10.0
aI0
aI01
aI00
aI00
aI00
aI00
aI00
aI00
aI00
aa(lp1497
I156028
aF139.325
aF294.97
ag1491
aS'nimbussanl'
p1498
aS'#000000'
p1499
aF10.0
aI0
aI01
aI00
aI00
aI00
aI00
aI00
aI00
aI00
aa(lp1500
I35163
aF179.6
aF294.97
aVp2
p1501
aS'nimbussanl'
p1502
aS'#000000'
p1503
aF10.0
aI0
aI01
aI00
aI00
aI00
aI00
aI00
aI00
aI00
aa(lp1504
I123665
aF86.3
aF311.57
aVp2
p1505
aS'nimbussanl'
p1506
aS'#000000'
p1507
aF10.0
aI0
aI01
aI00
aI00
aI00
aI00
aI00
aI00
aI00
aa(lp1508
I96642
aF136.82444444444445
aF311.57
ag1505
aS'nimbussanl'
p1509
aS'#000000'
p1510
aF10.0
aI0
aI01
aI00
aI00
aI00
aI00
aI00
aI00
aI00
aa(lp1511
I234378
aF179.6
aF311.57
aVp2
p1512
aS'nimbussanl'
p1513
aS'#000000'
p1514
aF10.0
aI0
aI01
aI01
aI00
aI00
aI00
aI00
aI00
aI00
aa(lp1515
I17350
aF196.029
aF311.57
ag1512
aS'nimbussanl'
p1516
aS'#000000'
p1517
aF10.0
aI0
aI01
aI00
aI00
aI00
aI00
aI00
aI00
aI00
aa(lp1518
I213957
aF212.458
aF311.57
ag1512
aS'nimbussanl'
p1519
aS'#000000'
p1520
aF10.0
aI0
aI00
aI00
aI00
aI00
aI00
aI00
aI00
aI00
aa(lp1521
I234378
aF243.316
aF311.57
ag1512
aS'nimbussanl'
p1522
aS'#000000'
p1523
aF10.0
aI0
aI00
aI00
aI00
aI00
aI00
aI00
aI00
aI00
aa(lp1524
I110786
aF249.459
aF311.57
ag1512
aS'nimbussanl'
p1525
aS'#000000'
p1526
aF10.0
aI0
aI01
aI00
aI00
aI00
aI00
aI00
aI00
aI00
aa(lp1527
I234378
aF272.317
aF311.57
ag1512
aS'nimbussanl'
p1528
aS'#000000'
p1529
aF10.0
aI0
aI00
aI00
aI00
aI00
aI00
aI00
aI00
aI00
aa(lp1530
I234378
aF287.46
aF311.57
ag1512
aS'nimbussanl'
p1531
aS'#000000'
p1532
aF10.0
aI0
aI01
aI01
aI00
aI00
aI00
aI00
aI00
aI00
aa(lp1533
I144509
aF86.3
aF328.784
aVp2
p1534
aS'dejavusans'
p1535
aS'#000000'
p1536
aF9.5
aI0
aI01
aI00
aI00
aI00
aI00
aI00
aI00
aI00
aa(lp1537
I17350
aF179.6
aF328.784
aVp2
p1538
aS'dejavusans'
p1539
aS'#000000'
p1540
aF9.5
aI0
aI01
aI00
aI00
aI00
aI00
aI00
aI00
aI00
aa(lp1541
I234378
aF203.378
aF328.784
aVp2
p1542
aS'dejavusans'
p1543
aS'#000000'
p1544
aF9.5
aI0
aI01
aI00
aI00
aI00
aI00
aI00
aI00
aI00
aa(lp1545
I234378
aF241.52155555555555
aF328.784
ag1542
aS'dejavusans'
p1546
aS'#000000'
p1547
aF9.5
aI0
aI00
aI00
aI00
aI00
aI00
aI00
aI00
aI00
aa(lp1548
I106895
aF249.453
aF328.784
aVp2
p1549
aS'dejavusans'
p1550
aS'#000000'
p1551
aF9.5
aI0
aI01
aI01
aI00
aI00
aI00
aI00
aI00
aI00
aa(lp1552
I234378
aF272.2606
aF328.784
ag1549
aS'dejavusans'
p1553
aS'#000000'
p1554
aF9.5
aI0
aI00
aI00
aI00
aI00
aI00
aI00
aI00
aI00
aa(lp1555
I89217
aF280.955
aF328.784
aVp2
p1556
aS'dejavusans'
p1557
aS'#000000'
p1558
aF9.5
aI0
aI01
aI01
aI00
aI00
aI00
aI00
aI00
aI00
aa(lp1559
I124531
aF90.1
aF381.344
aVp2
p1560
aS'dejavuserif'
p1561
aS'#000000'
p1562
aF12.0
aI1
aI01
aI01
aI00
aI00
aI00
aI00
aI00
aI00
aa(lp1563
I234378
aF156.332
aF381.344
ag1560
aS'dejavuserif'
p1564
aS'#000000'
p1565
aF12.0
aI1
aI00
aI00
aI00
aI00
aI00
aI00
aI00
aI00
aa(lp1566
I103666
aF163.6911111111111
aF381.344
ag1560
aS'dejavuserif'
p1567
aS'#000000'
p1568
aF12.0
aI1
aI01
aI01
aI00
aI00
aI00
aI00
aI00
aI00
aa(lp1569
I171311
aF86.3
aF398.01
aVp2
p1570
aS'nimbussanl'
p1571
aS'#000000'
p1572
aF10.0
aI1
aI01
aI00
aI00
aI00
aI00
aI00
aI00
aI00
aa(lp1573
I41479
aF215.3
aF398.01
aVp2
p1574
aS'nimbussanl'
p1575
aS'#000000'
p1576
aF10.0
aI1
aI01
aI00
aI00
aI00
aI00
aI00
aI00
aI00
aa(lp1577
I234378
aF247.04379310344828
aF398.01
ag1574
aS'nimbussanl'
p1578
aS'#000000'
p1579
aF10.0
aI1
aI00
aI00
aI00
aI00
aI00
aI00
aI00
aI00
aa(lp1580
I153079
aF251.57862068965517
aF398.01
ag1574
aS'nimbussanl'
p1581
aS'#000000'
p1582
aF10.0
aI1
aI01
aI00
aI00
aI00
aI00
aI00
aI00
aI00
aa(lp1583
I234378
aF285.9268965517241
aF398.01
ag1574
aS'nimbussanl'
p1584
aS'#000000'
p1585
aF10.0
aI1
aI00
aI00
aI00
aI00
aI00
aI00
aI00
aI00
aa(lp1586
I51981
aF302.461724137931
aF398.01
ag1574
aS'nimbussanl'
p1587
aS'#000000'
p1588
aF10.0
aI1
aI01
aI00
aI00
aI00
aI00
aI00
aI00
aI00
aa(lp1589
I234378
aF418.8
aF398.01
aVp2
p1590
aS'nimbussanl'
p1591
aS'#000000'
p1592
aF10.0
aI1
aI01
aI00
aI00
aI00
aI00
aI00
aI00
aI00
aa(lp1593
I144489
aF458.3
aF398.01
aVp2
p1594
aS'nimbussanl'
p1595
aS'#000000'
p1596
aF10.0
aI1
aI01
aI00
aI00
aI00
aI00
aI00
aI00
aI00
aa(lp1597
I234378
aF470.7688888888889
aF398.01
ag1594
aS'nimbussanl'
p1598
aS'#000000'
p1599
aF10.0
aI1
aI01
aI00
aI00
aI00
aI00
aI00
aI00
aI00
aa(lp1600
I192638
aF86.3
aF412.61
aVp2
p1601
aS'nimbussanl'
p1602
aS'#000000'
p1603
aF10.0
aI1
aI01
aI01
aI00
aI00
aI00
aI00
aI00
aI00
aa(lp1604
I234378
aF98.63199999999999
aF412.61
ag1601
aS'nimbussanl'
p1605
aS'#000000'
p1606
aF10.0
aI1
aI01
aI01
aI00
aI00
aI00
aI00
aI00
aI00
aa(lp1607
I234378
aF115.63
aF412.61
ag1601
aS'nimbussanl'
p1608
aS'#000000'
p1609
aF10.0
aI1
aI00
aI00
aI00
aI00
aI00
aI00
aI00
aI00
aa(lp1610
I109432
aF121.29599999999999
aF412.61
ag1601
aS'nimbussanl'
p1611
aS'#000000'
p1612
aF10.0
aI1
aI01
aI00
aI00
aI00
aI00
aI00
aI00
aI00
aa(lp1613
I192028
aF179.94
aF412.87
aVp2
p1614
aS'nimbussanl'
p1615
aS'#000000'
p1616
aF10.0
aI0
aI00
aI00
aI00
aI00
aI00
aI00
aI00
aI00
aa(lp1617
I199937
aF86.3
aF425.47
aVp2
p1618
aS'nimbussanl'
p1619
aS'#000000'
p1620
aF10.0
aI0
aI01
aI00
aI00
aI00
aI00
aI00
aI00
aI00
aa(lp1621
I234378
aF138.2475
aF425.47
ag1618
aS'nimbussanl'
p1622
aS'#000000'
p1623
aF10.0
aI0
aI00
aI00
aI00
aI00
aI00
aI00
aI00
aI00
aa(lp1624
I199937
aF215.3
aF412.67
aVp2
p1625
aS'nimbussanl'
p1626
aS'#000000'
p1627
aF10.0
aI0
aI01
aI00
aI00
aI00
aI00
aI00
aI00
aI00
aa(lp1628
I41479
aF268.9940740740741
aF412.67
ag1625
aS'nimbussanl'
p1629
aS'#000000'
p1630
aF10.0
aI0
aI01
aI00
aI00
aI00
aI00
aI00
aI00
aI00
aa(lp1631
I234378
aF303.5266666666667
aF412.67
ag1625
aS'nimbussanl'
p1632
aS'#000000'
p1633
aF10.0
aI0
aI01
aI00
aI00
aI00
aI00
aI00
aI00
aI00
aa(lp1634
I234378
aF426.7
aF425.87
aVp2
p1635
aS'nimbussanl'
p1636
aS'#000000'
p1637
aF10.0
aI0
aI00
aI00
aI01
aI01
aI01
aI00
aI00
aI00
aa(lp1638
I234378
aF477.9
aF425.61
aVp2
p1639
aS'nimbussanl'
p1640
aS'#000000'
p1641
aF10.0
aI1
aI00
aI00
aI01
aI01
aI01
aI00
aI00
aI00
aa(lp1642
I234378
aF487.575
aF425.61
ag1639
aS'nimbussanl'
p1643
aS'#000000'
p1644
aF10.0
aI1
aI00
aI00
aI00
aI00
aI00
aI00
aI00
aI00
aa(lp1645
I234378
aF492.41249999999997
aF425.61
ag1639
aS'nimbussanl'
p1646
aS'#000000'
p1647
aF10.0
aI1
aI00
aI00
aI01
aI01
aI00
aI00
aI00
aI00
aa(lp1648
I234378
aF215.3
aF439.07
aVp2
p1649
aS'nimbussanl'
p1650
aS'#000000'
p1651
aF10.0
aI0
aI01
aI00
aI00
aI00
aI00
aI00
aI00
aI00
aa(lp1652
I153079
aF257.529
aF439.07
ag1649
aS'nimbussanl'
p1653
aS'#000000'
p1654
aF10.0
aI0
aI01
aI00
aI00
aI00
aI00
aI00
aI00
aI00
aa(lp1655
I234378
aF86.3
aF453.21
aVp2
p1656
aS'nimbussanl'
p1657
aS'#000000'
p1658
aF10.0
aI1
aI01
aI01
aI00
aI00
aI00
aI00
aI00
aI00
aa(lp1659
I147619
aF215.3
aF453.47
aVp2
p1660
aS'nimbussanl'
p1661
aS'#000000'
p1662
aF10.0
aI0
aI01
aI01
aI00
aI00
aI00
aI00
aI00
aI00
aa(lp1663
I234378
aF225.40758620689655
aF453.47
ag1660
aS'nimbussanl'
p1664
aS'#000000'
p1665
aF10.0
aI0
aI00
aI00
aI00
aI00
aI00
aI00
aI00
aI00
aa(lp1666
I234378
aF231.46137931034482
aF453.47
ag1660
aS'nimbussanl'
p1667
aS'#000000'
p1668
aF10.0
aI0
aI01
aI00
aI00
aI00
aI00
aI00
aI00
aI00
aa(lp1669
I234378
aF282.99931034482756
aF453.47
ag1660
aS'nimbussanl'
p1670
aS'#000000'
p1671
aF10.0
aI0
aI01
aI01
aI00
aI00
aI00
aI00
aI00
aI00
aa(lp1672
I234378
aF278.1068965517241
aF453.47
ag1660
aS'nimbussanl'
p1673
aS'#000000'
p1674
aF10.0
aI0
aI00
aI00
aI00
aI00
aI00
aI00
aI00
aI00
aa(lp1675
I109144
aF298.1606896551724
aF453.47
ag1660
aS'nimbussanl'
p1676
aS'#000000'
p1677
aF10.0
aI0
aI01
aI01
aI00
aI00
aI00
aI00
aI00
aI00
aa(lp1678
I234378
aF294.32206896551725
aF453.47
ag1660
aS'nimbussanl'
p1679
aS'#000000'
p1680
aF10.0
aI0
aI00
aI00
aI00
aI00
aI00
aI00
aI00
aI00
aa(lp1681
I186485
aF319.37586206896555
aF453.47
ag1660
aS'nimbussanl'
p1682
aS'#000000'
p1683
aF10.0
aI0
aI01
aI00
aI00
aI00
aI00
aI00
aI00
aI00
aa(lp1684
I234378
aF426.7
aF453.47
aVp2
p1685
aS'nimbussanl'
p1686
aS'#000000'
p1687
aF10.0
aI0
aI00
aI00
aI01
aI01
aI01
aI00
aI00
aI00
aa(lp1688
I234378
aF477.9
aF453.21
aVp2
p1689
aS'nimbussanl'
p1690
aS'#000000'
p1691
aF10.0
aI1
aI00
aI00
aI01
aI01
aI01
aI00
aI00
aI00
aa(lp1692
I234378
aF487.575
aF453.21
ag1689
aS'nimbussanl'
p1693
aS'#000000'
p1694
aF10.0
aI1
aI00
aI00
aI00
aI00
aI00
aI00
aI00
aI00
aa(lp1695
I234378
aF492.41249999999997
aF453.21
ag1689
aS'nimbussanl'
p1696
aS'#000000'
p1697
aF10.0
aI1
aI00
aI00
aI01
aI01
aI00
aI00
aI00
aI00
aa(lp1698
I234378
aF86.3
aF467.91
aVp2
p1699
aS'nimbussanl'
p1700
aS'#000000'
p1701
aF10.0
aI1
aI01
aI01
aI00
aI00
aI00
aI00
aI00
aI00
aa(lp1702
I26776
aF215.3
aF468.07
aVp2
p1703
aS'nimbussanl'
p1704
aS'#000000'
p1705
aF10.0
aI0
aI01
aI01
aI00
aI00
aI00
aI00
aI00
aI00
aa(lp1706
I234378
aF220.2947619047619
aF468.07
ag1703
aS'nimbussanl'
p1707
aS'#000000'
p1708
aF10.0
aI0
aI00
aI00
aI00
aI00
aI00
aI00
aI00
aI00
aa(lp1709
I59734
aF225.2895238095238
aF468.07
ag1703
aS'nimbussanl'
p1710
aS'#000000'
p1711
aF10.0
aI0
aI01
aI01
aI00
aI00
aI00
aI00
aI00
aI00
aa(lp1712
I234378
aF228.28428571428572
aF468.07
ag1703
aS'nimbussanl'
p1713
aS'#000000'
p1714
aF10.0
aI0
aI00
aI00
aI00
aI00
aI00
aI00
aI00
aI00
aa(lp1715
I19153
aF235.27904761904762
aF468.07
ag1703
aS'nimbussanl'
p1716
aS'#000000'
p1717
aF10.0
aI0
aI01
aI01
aI00
aI00
aI00
aI00
aI00
aI00
aa(lp1718
I234378
aF236.27380952380952
aF468.07
ag1703
aS'nimbussanl'
p1719
aS'#000000'
p1720
aF10.0
aI0
aI00
aI00
aI00
aI00
aI00
aI00
aI00
aI00
aa(lp1721
I234378
aF246.26857142857142
aF468.07
ag1703
aS'nimbussanl'
p1722
aS'#000000'
p1723
aF10.0
aI0
aI01
aI01
aI00
aI00
aI00
aI00
aI00
aI00
aa(lp1724
I234378
aF248.25809523809522
aF468.07
ag1703
aS'nimbussanl'
p1725
aS'#000000'
p1726
aF10.0
aI0
aI00
aI00
aI00
aI00
aI00
aI00
aI00
aI00
aa(lp1727
I109144
aF261.2528571428571
aF468.07
ag1703
aS'nimbussanl'
p1728
aS'#000000'
p1729
aF10.0
aI0
aI01
aI01
aI00
aI00
aI00
aI00
aI00
aI00
aa(lp1730
I234378
aF264.2371428571428
aF468.07
ag1703
aS'nimbussanl'
p1731
aS'#000000'
p1732
aF10.0
aI0
aI00
aI00
aI00
aI00
aI00
aI00
aI00
aI00
aa(lp1733
I186485
aF282.23190476190473
aF468.07
ag1703
aS'nimbussanl'
p1734
aS'#000000'
p1735
aF10.0
aI0
aI01
aI00
aI00
aI00
aI00
aI00
aI00
aI00
aa(lp1736
I234378
aF426.7
aF468.07
aVp2
p1737
aS'nimbussanl'
p1738
aS'#000000'
p1739
aF10.0
aI0
aI00
aI00
aI01
aI01
aI01
aI00
aI00
aI00
aa(lp1740
I234378
aF477.9
aF467.91
aVp2
p1741
aS'nimbussanl'
p1742
aS'#000000'
p1743
aF10.0
aI1
aI00
aI00
aI01
aI01
aI01
aI00
aI00
aI00
aa(lp1744
I234378
aF487.575
aF467.91
ag1741
aS'nimbussanl'
p1745
aS'#000000'
p1746
aF10.0
aI1
aI00
aI00
aI00
aI00
aI00
aI00
aI00
aI00
aa(lp1747
I234378
aF492.41249999999997
aF467.91
ag1741
aS'nimbussanl'
p1748
aS'#000000'
p1749
aF10.0
aI1
aI00
aI00
aI01
aI01
aI00
aI00
aI00
aI00
aa(lp1750
I177958
aF90.1
aF507.51
aVp2
p1751
aS'nimbussanl'
p1752
aS'#000000'
p1753
aF10.0
aI1
aI01
aI01
aI00
aI00
aI00
aI00
aI00
aI00
aa(lp1754
I44901
aF126.63277777777778
aF507.51
ag1751
aS'nimbussanl'
p1755
aS'#000000'
p1756
aF10.0
aI1
aI01
aI01
aI00
aI00
aI00
aI00
aI00
aI00
aa(lp1757
I85218
aF183.47
aF507.51
ag1751
aS'nimbussanl'
p1758
aS'#000000'
p1759
aF10.0
aI1
aI01
aI01
aI00
aI00
aI00
aI00
aI00
aI00
aa(lp1760
I168808
aF199.69833333333332
aF507.51
ag1751
aS'nimbussanl'
p1761
aS'#000000'
p1762
aF10.0
aI1
aI01
aI01
aI00
aI00
aI00
aI00
aI00
aI00
aa(lp1763
I177958
aF90.1
aF549.21
aVp2
p1764
aS'nimbussanl'
p1765
aS'#000000'
p1766
aF10.0
aI1
aI01
aI00
aI00
aI00
aI00
aI00
aI00
aI00
aa(lp1767
I234378
aF124.54599999999999
aF549.21
ag1764
aS'nimbussanl'
p1768
aS'#000000'
p1769
aF10.0
aI1
aI00
aI00
aI01
aI01
aI00
aI00
aI00
aI00
aa(lp1770
I234378
aF129.32399999999998
aF549.21
ag1764
aS'nimbussanl'
p1771
aS'#000000'
p1772
aF10.0
aI1
aI00
aI00
aI00
aI00
aI00
aI00
aI00
aI00
aa(lp1773
I234378
aF90.1
aF576.036
aVp2
p1774
aS'nimbusromno9l'
p1775
aS'#000000'
p1776
aF11.0
aI0
aI01
aI01
aI00
aI00
aI00
aI00
aI00
aI00
aa(lp1777
I108443
aF106.75685
aF576.036
ag1774
aS'nimbusromno9l'
p1778
aS'#000000'
p1779
aF11.0
aI0
aI01
aI00
aI00
aI00
aI00
aI00
aI00
aI00
aa(lp1780
I234378
aF139.07055
aF576.036
ag1774
aS'nimbusromno9l'
p1781
aS'#000000'
p1782
aF11.0
aI0
aI01
aI00
aI00
aI00
aI00
aI00
aI00
aI00
aa(lp1783
I234378
aF99.7
aF603.37
aVp2
p1784
aS'nimbussanl'
p1785
aS'#000000'
p1786
aF10.0
aI0
aI01
aI01
aI00
aI00
aI00
aI00
aI00
aI00
aa(lp1787
I91539
aF113.92808510638298
aF603.37
ag1784
aS'nimbussanl'
p1788
aS'#000000'
p1789
aF10.0
aI0
aI01
aI00
aI00
aI00
aI00
aI00
aI00
aI00
aa(lp1790
I234378
aF131.56553191489363
aF603.37
ag1784
aS'nimbussanl'
p1791
aS'#000000'
p1792
aF10.0
aI0
aI00
aI00
aI00
aI00
aI00
aI00
aI00
aI00
aa(lp1793
I210945
aF136.97489361702128
aF603.37
ag1784
aS'nimbussanl'
p1794
aS'#000000'
p1795
aF10.0
aI0
aI00
aI00
aI00
aI00
aI00
aI00
aI00
aI00
aa(lp1796
I234378
aF164.43106382978723
aF603.37
ag1784
aS'nimbussanl'
p1797
aS'#000000'
p1798
aF10.0
aI0
aI01
aI00
aI00
aI00
aI00
aI00
aI00
aI00
aa(lp1799
I234378
aF169.06851063829788
aF603.37
ag1784
aS'nimbussanl'
p1800
aS'#000000'
p1801
aF10.0
aI0
aI00
aI00
aI00
aI00
aI00
aI00
aI00
aI00
aa(lp1802
I234378
aF187.47787234042553
aF603.37
ag1784
aS'nimbussanl'
p1803
aS'#000000'
p1804
aF10.0
aI0
aI00
aI00
aI00
aI00
aI00
aI00
aI00
aI00
aa(lp1805
I234378
aF201.70595744680853
aF603.37
ag1784
aS'nimbussanl'
p1806
aS'#000000'
p1807
aF10.0
aI0
aI00
aI00
aI00
aI00
aI00
aI00
aI00
aI00
aa(lp1808
I166593
aF210.39021276595747
aF603.37
ag1784
aS'nimbussanl'
p1809
aS'#000000'
p1810
aF10.0
aI0
aI00
aI00
aI00
aI00
aI00
aI00
aI00
aI00
aa(lp1811
I98123
aF247.79957446808513
aF603.37
ag1784
aS'nimbussanl'
p1812
aS'#000000'
p1813
aF10.0
aI0
aI00
aI00
aI00
aI00
aI00
aI00
aI00
aI00
aa(lp1814
I83353
aF288.4838297872341
aF603.37
ag1784
aS'nimbussanl'
p1815
aS'#000000'
p1816
aF10.0
aI0
aI01
aI00
aI00
aI00
aI00
aI00
aI00
aI00
aa(lp1817
I169566
aF315.94000000000005
aF603.37
ag1784
aS'nimbussanl'
p1818
aS'#000000'
p1819
aF10.0
aI0
aI01
aI00
aI00
aI00
aI00
aI00
aI00
aI00
aa(lp1820
I129282
aF347.80553191489366
aF603.37
ag1784
aS'nimbussanl'
p1821
aS'#000000'
p1822
aF10.0
aI0
aI01
aI00
aI00
aI00
aI00
aI00
aI00
aI00
aa(lp1823
I234378
aF392.89914893617026
aF603.37
ag1784
aS'nimbussanl'
p1824
aS'#000000'
p1825
aF10.0
aI0
aI00
aI00
aI00
aI00
aI00
aI00
aI00
aI00
aa(lp1826
I234378
aF397.30851063829795
aF603.37
ag1784
aS'nimbussanl'
p1827
aS'#000000'
p1828
aF10.0
aI0
aI01
aI01
aI00
aI00
aI00
aI00
aI00
aI00
aa(lp1829
I234378
aF410.53659574468094
aF603.37
ag1784
aS'nimbussanl'
p1830
aS'#000000'
p1831
aF10.0
aI0
aI00
aI00
aI00
aI00
aI00
aI00
aI00
aI00
aa(lp1832
I154322
aF415.9459574468086
aF603.37
ag1784
aS'nimbussanl'
p1833
aS'#000000'
p1834
aF10.0
aI0
aI00
aI00
aI00
aI00
aI00
aI00
aI00
aI00
aa(lp1835
I89480
aF461.0395744680852
aF603.37
ag1784
aS'nimbussanl'
p1836
aS'#000000'
p1837
aF10.0
aI0
aI00
aI00
aI00
aI00
aI00
aI00
aI00
aI00
aa(lp1838
I127387
aF90.1
aF615.77
aVp2
p1839
aS'nimbussanl'
p1840
aS'#000000'
p1841
aF10.0
aI0
aI00
aI00
aI00
aI00
aI00
aI00
aI00
aI00
aa(lp1842
I166593
aF131.34415730337076
aF615.77
ag1839
aS'nimbussanl'
p1843
aS'#000000'
p1844
aF10.0
aI0
aI00
aI00
aI00
aI00
aI00
aI00
aI00
aI00
aa(lp1845
I14603
aF136.81573033707863
aF615.77
ag1839
aS'nimbussanl'
p1846
aS'#000000'
p1847
aF10.0
aI0
aI00
aI00
aI00
aI00
aI00
aI00
aI00
aI00
aa(lp1848
I234378
aF173.58831460674156
aF615.77
ag1839
aS'nimbussanl'
p1849
aS'#000000'
p1850
aF10.0
aI0
aI00
aI00
aI00
aI00
aI00
aI00
aI00
aI00
aa(lp1851
I85218
aF210.3608988764045
aF615.77
ag1839
aS'nimbussanl'
p1852
aS'#000000'
p1853
aF10.0
aI0
aI00
aI00
aI00
aI00
aI00
aI00
aI00
aI00
aa(lp1854
I108443
aF224.7756179775281
aF615.77
ag1839
aS'nimbussanl'
p1855
aS'#000000'
p1856
aF10.0
aI0
aI00
aI00
aI00
aI00
aI00
aI00
aI00
aI00
aa(lp1857
I129342
aF252.6050561797753
aF615.77
ag1839
aS'nimbussanl'
p1858
aS'#000000'
p1859
aF10.0
aI0
aI00
aI00
aI00
aI00
aI00
aI00
aI00
aI00
aa(lp1860
I175989
aF289.3776404494382
aF615.77
ag1839
aS'nimbussanl'
p1861
aS'#000000'
p1862
aF10.0
aI0
aI00
aI00
aI00
aI00
aI00
aI00
aI00
aI00
aa(lp1863
I113929
aF308.2639325842697
aF615.77
ag1839
aS'nimbussanl'
p1864
aS'#000000'
p1865
aF10.0
aI0
aI00
aI00
aI00
aI00
aI00
aI00
aI00
aI00
aa(lp1866
I147316
aF327.1502247191012
aF615.77
ag1839
aS'nimbussanl'
p1867
aS'#000000'
p1868
aF10.0
aI0
aI00
aI00
aI00
aI00
aI00
aI00
aI00
aI00
aa(lp1869
I194354
aF359.45123595505623
aF615.77
ag1839
aS'nimbussanl'
p1870
aS'#000000'
p1871
aF10.0
aI0
aI00
aI00
aI00
aI00
aI00
aI00
aI00
aI00
aa(lp1872
I93350
aF373.8659550561798
aF615.77
ag1839
aS'nimbussanl'
p1873
aS'#000000'
p1874
aF10.0
aI0
aI00
aI00
aI00
aI00
aI00
aI00
aI00
aI00
aa(lp1875
I55730
aF406.1669662921349
aF615.77
ag1839
aS'nimbussanl'
p1876
aS'#000000'
p1877
aF10.0
aI0
aI00
aI00
aI00
aI00
aI00
aI00
aI00
aI00
aa(lp1878
I85218
aF373.5248314606742
aF615.77
ag1839
aS'nimbussanl'
p1879
aS'#000000'
p1880
aF10.0
aI0
aI00
aI00
aI00
aI00
aI00
aI00
aI00
aI00
aa(lp1881
I234378
aF90.1
aF628.17
aVp2
p1882
aS'nimbussanl'
p1883
aS'#000000'
p1884
aF10.0
aI0
aI00
aI00
aI00
aI00
aI00
aI00
aI00
aI00
aa(lp1885
I144489
aF145.10423529411764
aF628.17
ag1882
aS'nimbussanl'
p1886
aS'#000000'
p1887
aF10.0
aI0
aI00
aI00
aI00
aI00
aI00
aI00
aI00
aI00
aa(lp1888
I194354
aF155.1049411764706
aF628.17
ag1882
aS'nimbussanl'
p1889
aS'#000000'
p1890
aF10.0
aI0
aI00
aI00
aI00
aI00
aI00
aI00
aI00
aI00
aa(lp1891
I91539
aF169.606
aF628.17
ag1882
aS'nimbussanl'
p1892
aS'#000000'
p1893
aF10.0
aI0
aI01
aI00
aI00
aI00
aI00
aI00
aI00
aI00
aa(lp1894
I59734
aF174.6074117647059
aF628.17
ag1882
aS'nimbussanl'
p1895
aS'#000000'
p1896
aF10.0
aI0
aI00
aI00
aI00
aI00
aI00
aI00
aI00
aI00
aa(lp1897
I234378
aF194.10776470588235
aF628.17
ag1882
aS'nimbussanl'
p1898
aS'#000000'
p1899
aF10.0
aI0
aI00
aI00
aI00
aI00
aI00
aI00
aI00
aI00
aa(lp1900
I8691
aF235.6109411764706
aF628.17
ag1882
aS'nimbussanl'
p1901
aS'#000000'
p1902
aF10.0
aI0
aI00
aI00
aI00
aI00
aI00
aI00
aI00
aI00
aa(lp1903
I194354
aF235.6130588235294
aF628.17
ag1882
aS'nimbussanl'
p1904
aS'#000000'
p1905
aF10.0
aI0
aI00
aI00
aI00
aI00
aI00
aI00
aI00
aI00
aa(lp1906
I45177
aF278.11411764705883
aF628.17
ag1882
aS'nimbussanl'
p1907
aS'#000000'
p1908
aF10.0
aI0
aI00
aI00
aI00
aI00
aI00
aI00
aI00
aI00
aa(lp1909
I234378
aF305.11623529411764
aF628.17
ag1882
aS'nimbussanl'
p1910
aS'#000000'
p1911
aF10.0
aI0
aI00
aI00
aI00
aI00
aI00
aI00
aI00
aI00
aa(lp1912
I194354
aF310.6165882352941
aF628.17
ag1882
aS'nimbussanl'
p1913
aS'#000000'
p1914
aF10.0
aI0
aI01
aI00
aI00
aI00
aI00
aI00
aI00
aI00
aa(lp1915
I234378
aF325.11764705882354
aF628.17
ag1882
aS'nimbussanl'
p1916
aS'#000000'
p1917
aF10.0
aI0
aI00
aI00
aI00
aI00
aI00
aI00
aI00
aI00
aa(lp1918
I113929
aF362.1204705882353
aF628.17
ag1882
aS'nimbussanl'
p1919
aS'#000000'
p1920
aF10.0
aI0
aI00
aI00
aI00
aI00
aI00
aI00
aI00
aI00
aa(lp1921
I147316
aF381.1218823529412
aF628.17
ag1882
aS'nimbussanl'
p1922
aS'#000000'
p1923
aF10.0
aI0
aI00
aI00
aI00
aI00
aI00
aI00
aI00
aI00
aa(lp1924
I194354
aF347.6243529411765
aF628.17
ag1882
aS'nimbussanl'
p1925
aS'#000000'
p1926
aF10.0
aI0
aI00
aI00
aI00
aI00
aI00
aI00
aI00
aI00
aa(lp1927
I234378
aF90.1
aF640.57
aVp2
p1928
aS'nimbussanl'
p1929
aS'#000000'
p1930
aF10.0
aI0
aI00
aI00
aI00
aI00
aI00
aI00
aI00
aI00
aa(lp1931
I85218
aF138.57241379310344
aF640.57
ag1928
aS'nimbussanl'
p1932
aS'#000000'
p1933
aF10.0
aI0
aI00
aI00
aI00
aI00
aI00
aI00
aI00
aI00
aa(lp1934
I145512
aF153.81413793103448
aF640.57
ag1928
aS'nimbussanl'
p1935
aS'#000000'
p1936
aF10.0
aI0
aI00
aI00
aI00
aI00
aI00
aI00
aI00
aI00
aa(lp1937
I234378
aF202.28655172413792
aF640.57
ag1928
aS'nimbussanl'
p1938
aS'#000000'
p1939
aF10.0
aI0
aI00
aI00
aI00
aI00
aI00
aI00
aI00
aI00
aa(lp1940
I144489
aF246.01172413793103
aF640.57
ag1928
aS'nimbussanl'
p1941
aS'#000000'
p1942
aF10.0
aI0
aI00
aI00
aI00
aI00
aI00
aI00
aI00
aI00
aa(lp1943
I83353
aF256.5062068965517
aF640.57
ag1928
aS'nimbussanl'
p1944
aS'#000000'
p1945
aF10.0
aI0
aI01
aI00
aI00
aI00
aI00
aI00
aI00
aI00
aa(lp1946
I89958
aF285.9896551724138
aF640.57
ag1928
aS'nimbussanl'
p1947
aS'#000000'
p1948
aF10.0
aI0
aI01
aI00
aI00
aI00
aI00
aI00
aI00
aI00
aa(lp1949
I234378
aF319.2203448275862
aF640.57
ag1928
aS'nimbussanl'
p1950
aS'#000000'
p1951
aF10.0
aI0
aI00
aI00
aI00
aI00
aI00
aI00
aI00
aI00
aa(lp1952
I128677
aF324.96758620689656
aF640.57
ag1928
aS'nimbussanl'
p1953
aS'#000000'
p1954
aF10.0
aI0
aI01
aI00
aI00
aI00
aI00
aI00
aI00
aI00
aa(lp1955
I153177
aF354.45103448275864
aF640.57
ag1928
aS'nimbussanl'
p1956
aS'#000000'
p1957
aF10.0
aI0
aI01
aI00
aI00
aI00
aI00
aI00
aI00
aI00
aa(lp1958
I234378
aF382.9234482758621
aF640.57
ag1928
aS'nimbussanl'
p1959
aS'#000000'
p1960
aF10.0
aI0
aI00
aI00
aI00
aI00
aI00
aI00
aI00
aI00
aa(lp1961
I83140
aF407.67068965517245
aF640.57
ag1928
aS'nimbussanl'
p1962
aS'#000000'
p1963
aF10.0
aI0
aI01
aI00
aI00
aI00
aI00
aI00
aI00
aI00
aa(lp1964
I91539
aF405.90137931034485
aF640.57
ag1928
aS'nimbussanl'
p1965
aS'#000000'
p1966
aF10.0
aI0
aI01
aI00
aI00
aI00
aI00
aI00
aI00
aI00
aa(lp1967
I234378
aF427.8903448275862
aF640.57
ag1928
aS'nimbussanl'
p1968
aS'#000000'
p1969
aF10.0
aI0
aI00
aI00
aI00
aI00
aI00
aI00
aI00
aI00
aa(lp1970
I85218
aF90.1
aF652.97
aVp2
p1971
aS'nimbussanl'
p1972
aS'#000000'
p1973
aF10.0
aI0
aI00
aI00
aI00
aI00
aI00
aI00
aI00
aI00
aa(lp1974
I152900
aF106.40107142857143
aF652.97
ag1971
aS'nimbussanl'
p1975
aS'#000000'
p1976
aF10.0
aI0
aI01
aI00
aI00
aI00
aI00
aI00
aI00
aI00
aa(lp1977
I234378
aF158.40464285714285
aF652.97
ag1971
aS'nimbussanl'
p1978
aS'#000000'
p1979
aF10.0
aI0
aI00
aI00
aI00
aI00
aI00
aI00
aI00
aI00
aa(lp1980
I234378
aF163.505
aF652.97
ag1971
aS'nimbussanl'
p1981
aS'#000000'
p1982
aF10.0
aI0
aI01
aI01
aI00
aI00
aI00
aI00
aI00
aI00
aa(lp1983
I234378
aF178.8060714285714
aF652.97
ag1971
aS'nimbussanl'
p1984
aS'#000000'
p1985
aF10.0
aI0
aI00
aI00
aI00
aI00
aI00
aI00
aI00
aI00
aa(lp1986
I89958
aF184.90642857142856
aF652.97
ag1971
aS'nimbussanl'
p1987
aS'#000000'
p1988
aF10.0
aI0
aI01
aI00
aI00
aI00
aI00
aI00
aI00
aI00
aa(lp1989
I234378
aF90.1
aF679.37
aVp2
p1990
aS'nimbussanl'
p1991
aS'#000000'
p1992
aF10.0
aI0
aI01
aI00
aI00
aI00
aI00
aI00
aI00
aI00
aa(lp1993
I234378
aF157.97764705882352
aF679.37
ag1990
aS'nimbussanl'
p1994
aS'#000000'
p1995
aF10.0
aI0
aI00
aI00
aI00
aI00
aI00
aI00
aI00
aI00
aa(lp1996
I62551
aF90.1
aF705.77
aVp2
p1997
aS'nimbussanl'
p1998
aS'#000000'
p1999
aF10.0
aI0
aI01
aI00
aI00
aI00
aI00
aI00
aI00
aI00
aa(lp2000
I234378
aF110.67747126436781
aF705.77
ag1997
aS'nimbussanl'
p2001
aS'#000000'
p2002
aF10.0
aI0
aI00
aI00
aI00
aI00
aI00
aI00
aI00
aI00
aa(lp2003
I135639
aF165.5155172413793
aF705.77
ag1997
aS'nimbussanl'
p2004
aS'#000000'
p2005
aF10.0
aI0
aI00
aI00
aI00
aI00
aI00
aI00
aI00
aI00
aa(lp2006
I117435
aF176.30425287356323
aF705.77
ag1997
aS'nimbussanl'
p2007
aS'#000000'
p2008
aF10.0
aI0
aI00
aI00
aI00
aI00
aI00
aI00
aI00
aI00
aa(lp2009
I234378
aF220.35356321839083
aF705.77
ag1997
aS'nimbussanl'
p2010
aS'#000000'
p2011
aF10.0
aI0
aI00
aI00
aI00
aI00
aI00
aI00
aI00
aI00
aa(lp2012
I234378
aF226.24793103448278
aF705.77
ag1997
aS'nimbussanl'
p2013
aS'#000000'
p2014
aF10.0
aI0
aI01
aI00
aI00
aI00
aI00
aI00
aI00
aI00
aa(lp2015
I234378
aF247.6141379310345
aF705.77
ag1997
aS'nimbussanl'
p2016
aS'#000000'
p2017
aF10.0
aI0
aI00
aI00
aI00
aI00
aI00
aI00
aI00
aI00
aa(lp2018
I221291
aF261.50850574712643
aF705.77
ag1997
aS'nimbussanl'
p2019
aS'#000000'
p2020
aF10.0
aI0
aI01
aI00
aI00
aI00
aI00
aI00
aI00
aI00
aa(lp2021
I56042
aF282.08597701149426
aF705.77
ag1997
aS'nimbussanl'
p2022
aS'#000000'
p2023
aF10.0
aI0
aI01
aI00
aI00
aI00
aI00
aI00
aI00
aI00
aa(lp2024
I61195
aF312.452183908046
aF705.77
ag1997
aS'nimbussanl'
p2025
aS'#000000'
p2026
aF10.0
aI0
aI00
aI00
aI00
aI00
aI00
aI00
aI00
aI00
aa(lp2027
I234378
aF317.71275862068967
aF705.77
ag1997
aS'nimbussanl'
p2028
aS'#000000'
p2029
aF10.0
aI0
aI00
aI00
aI00
aI00
aI00
aI00
aI00
aI00
aa(lp2030
I195671
aF352.60712643678164
aF705.77
ag1997
aS'nimbussanl'
p2031
aS'#000000'
p2032
aF10.0
aI0
aI00
aI00
aI00
aI00
aI00
aI00
aI00
aI00
aa(lp2033
I85218
aF417.23390804597705
aF705.77
ag1997
aS'nimbussanl'
p2034
aS'#000000'
p2035
aF10.0
aI0
aI00
aI00
aI00
aI00
aI00
aI00
aI00
aI00
aa(lp2036
I234378
aF432.9170114942529
aF705.77
ag1997
aS'nimbussanl'
p2037
aS'#000000'
p2038
aF10.0
aI0
aI00
aI00
aI00
aI00
aI00
aI00
aI00
aI00
aa(lp2039
I190806
aF90.1
aF718.17
aVp2
p2040
aS'nimbussanl'
p2041
aS'#000000'
p2042
aF10.0
aI0
aI00
aI00
aI00
aI00
aI00
aI00
aI00
aI00
aa(lp2043
I234378
aF104.35723684210527
aF718.17
ag2040
aS'nimbussanl'
p2044
aS'#000000'
p2045
aF10.0
aI0
aI01
aI01
aI00
aI00
aI00
aI00
aI00
aI00
aa(lp2046
I234378
aF118.61447368421054
aF718.17
ag2040
aS'nimbussanl'
p2047
aS'#000000'
p2048
aF10.0
aI0
aI01
aI00
aI00
aI00
aI00
aI00
aI00
aI00
aa(lp2049
I83126
aF159.38618421052632
aF718.17
ag2040
aS'nimbussanl'
p2050
aS'#000000'
p2051
aF10.0
aI0
aI00
aI00
aI00
aI00
aI00
aI00
aI00
aI00
aa(lp2052
I190806
aF189.25328947368422
aF718.17
ag2040
aS'nimbussanl'
p2053
aS'#000000'
p2054
aF10.0
aI0
aI00
aI00
aI00
aI00
aI00
aI00
aI00
aI00
aa(lp2055
I108443
aF236.5105263157895
aF718.17
ag2040
aS'nimbussanl'
p2056
aS'#000000'
p2057
aF10.0
aI0
aI00
aI00
aI00
aI00
aI00
aI00
aI00
aI00
aa(lp2058
I89958
aF264.02500000000003
aF718.17
ag2040
aS'nimbussanl'
p2059
aS'#000000'
p2060
aF10.0
aI0
aI00
aI00
aI00
aI00
aI00
aI00
aI00
aI00
aa(lp2061
I16331
aF295.958552631579
aF718.17
ag2040
aS'nimbussanl'
p2062
aS'#000000'
p2063
aF10.0
aI0
aI00
aI00
aI00
aI00
aI00
aI00
aI00
aI00
aa(lp2064
I38609
aF305.79671052631585
aF718.17
ag2040
aS'nimbussanl'
p2065
aS'#000000'
p2066
aF10.0
aI0
aI00
aI00
aI00
aI00
aI00
aI00
aI00
aI00
aa(lp2067
I144489
aF324.4730263157895
aF718.17
ag2040
aS'nimbussanl'
p2068
aS'#000000'
p2069
aF10.0
aI0
aI00
aI00
aI00
aI00
aI00
aI00
aI00
aI00
aa(lp2070
I46544
aF334.3111842105264
aF718.17
ag2040
aS'nimbussanl'
p2071
aS'#000000'
p2072
aF10.0
aI0
aI00
aI00
aI00
aI00
aI00
aI00
aI00
aI00
aa(lp2073
I177958
aF352.98750000000007
aF718.17
ag2040
aS'nimbussanl'
p2074
aS'#000000'
p2075
aF10.0
aI0
aI00
aI00
aI00
aI00
aI00
aI00
aI00
aI00
aa(lp2076
I234378
aF383.921052631579
aF718.17
ag2040
aS'nimbussanl'
p2077
aS'#000000'
p2078
aF10.0
aI0
aI00
aI00
aI00
aI00
aI00
aI00
aI00
aI00
aa(lp2079
I234378
aF90.1
aF27.07
aVp3
p2080
aS'nimbussanl'
p2081
aS'#000000'
p2082
aF10.0
aI0
aI01
aI00
aI00
aI00
aI00
aI00
aI00
aI00
aa(lp2083
I234378
aF147.53384615384616
aF27.07
ag2080
aS'nimbussanl'
p2084
aS'#000000'
p2085
aF10.0
aI0
aI00
aI00
aI00
aI00
aI00
aI00
aI00
aI00
aa(lp2086
I25931
aF90.1
aF53.47
aVp3
p2087
aS'nimbussanl'
p2088
aS'#000000'
p2089
aF10.0
aI0
aI01
aI00
aI00
aI00
aI00
aI00
aI00
aI00
aa(lp2090
I104149
aF118.15121951219513
aF53.47
ag2087
aS'nimbussanl'
p2091
aS'#000000'
p2092
aF10.0
aI0
aI01
aI00
aI00
aI00
aI00
aI00
aI00
aI00
aa(lp2093
I234378
aF136.18536585365854
aF53.47
ag2087
aS'nimbussanl'
p2094
aS'#000000'
p2095
aF10.0
aI0
aI00
aI00
aI00
aI00
aI00
aI00
aI00
aI00
aa(lp2096
I165851
aF141.69390243902438
aF53.47
ag2087
aS'nimbussanl'
p2097
aS'#000000'
p2098
aF10.0
aI0
aI01
aI00
aI00
aI00
aI00
aI00
aI00
aI00
aa(lp2099
I234378
aF174.25365853658536
aF53.47
ag2087
aS'nimbussanl'
p2100
aS'#000000'
p2101
aF10.0
aI0
aI01
aI01
aI00
aI00
aI00
aI00
aI00
aI00
aa(lp2102
I234378
aF183.27073170731708
aF53.47
ag2087
aS'nimbussanl'
p2103
aS'#000000'
p2104
aF10.0
aI0
aI00
aI00
aI00
aI00
aI00
aI00
aI00
aI00
aa(lp2105
I54779
aF188.77926829268293
aF53.47
ag2087
aS'nimbussanl'
p2106
aS'#000000'
p2107
aF10.0
aI0
aI01
aI00
aI00
aI00
aI00
aI00
aI00
aI00
aa(lp2108
I156204
aF212.3219512195122
aF53.47
ag2087
aS'nimbussanl'
p2109
aS'#000000'
p2110
aF10.0
aI0
aI01
aI00
aI00
aI00
aI00
aI00
aI00
aI00
aa(lp2111
I234378
aF214.84756097560975
aF53.47
ag2087
aS'nimbussanl'
p2112
aS'#000000'
p2113
aF10.0
aI0
aI00
aI00
aI00
aI00
aI00
aI00
aI00
aI00
aa(lp2114
I233798
aF231.3560975609756
aF53.47
ag2087
aS'nimbussanl'
p2115
aS'#000000'
p2116
aF10.0
aI0
aI00
aI00
aI00
aI00
aI00
aI00
aI00
aI00
aa(lp2117
I96642
aF90.1
aF79.87
aVp3
p2118
aS'nimbussanl'
p2119
aS'#000000'
p2120
aF10.0
aI0
aI01
aI00
aI00
aI00
aI00
aI00
aI00
aI00
aa(lp2121
I104149
aF118.24294117647058
aF79.87
ag2118
aS'nimbussanl'
p2122
aS'#000000'
p2123
aF10.0
aI0
aI01
aI00
aI00
aI00
aI00
aI00
aI00
aI00
aa(lp2124
I234378
aF136.33823529411762
aF79.87
ag2118
aS'nimbussanl'
p2125
aS'#000000'
p2126
aF10.0
aI0
aI00
aI00
aI00
aI00
aI00
aI00
aI00
aI00
aa(lp2127
I148996
aF141.8620588235294
aF79.87
ag2118
aS'nimbussanl'
p2128
aS'#000000'
p2129
aF10.0
aI0
aI01
aI00
aI00
aI00
aI00
aI00
aI00
aI00
aa(lp2130
I234378
aF169.005
aF79.87
ag2118
aS'nimbussanl'
p2131
aS'#000000'
p2132
aF10.0
aI0
aI00
aI00
aI00
aI00
aI00
aI00
aI00
aI00
aa(lp2133
I89217
aF174.52882352941177
aF79.87
ag2118
aS'nimbussanl'
p2134
aS'#000000'
p2135
aF10.0
aI0
aI01
aI00
aI00
aI00
aI00
aI00
aI00
aI00
aa(lp2136
I234378
aF193.62411764705882
aF79.87
ag2118
aS'nimbussanl'
p2137
aS'#000000'
p2138
aF10.0
aI0
aI01
aI00
aI00
aI00
aI00
aI00
aI00
aI00
aa(lp2139
I234378
aF90.1
aF106.27
aVp3
p2140
aS'nimbussanl'
p2141
aS'#000000'
p2142
aF10.0
aI0
aI01
aI00
aI00
aI00
aI00
aI00
aI00
aI00
aa(lp2143
I234378
aF138.91764705882352
aF106.27
ag2140
aS'nimbussanl'
p2144
aS'#000000'
p2145
aF10.0
aI0
aI00
aI00
aI00
aI00
aI00
aI00
aI00
aI00
aa(lp2146
I86755
aF144.79941176470587
aF106.27
ag2140
aS'nimbussanl'
p2147
aS'#000000'
p2148
aF10.0
aI0
aI01
aI01
aI00
aI00
aI00
aI00
aI00
aI00
aa(lp2149
I61195
aF160.44470588235293
aF106.27
ag2140
aS'nimbussanl'
p2150
aS'#000000'
p2151
aF10.0
aI0
aI01
aI00
aI00
aI00
aI00
aI00
aI00
aI00
aa(lp2152
I104374
aF195.61705882352942
aF106.27
ag2140
aS'nimbussanl'
p2153
aS'#000000'
p2154
aF10.0
aI0
aI00
aI00
aI00
aI00
aI00
aI00
aI00
aI00
aa(lp2155
I234378
aF90.1
aF133.27
aVp3
p2156
aS'nimbussanl'
p2157
aS'#000000'
p2158
aF10.0
aI0
aI01
aI00
aI00
aI00
aI00
aI00
aI00
aI00
aa(lp2159
I234378
aF128.91899999999998
aF133.27
ag2156
aS'nimbussanl'
p2160
aS'#000000'
p2161
aF10.0
aI0
aI00
aI00
aI00
aI00
aI00
aI00
aI00
aI00
aa(lp2162
I45445
aF134.77137499999998
aF133.27
ag2156
aS'nimbussanl'
p2163
aS'#000000'
p2164
aF10.0
aI0
aI01
aI00
aI00
aI00
aI00
aI00
aI00
aI00
aa(lp2165
I120031
aF90.1
aF159.87
aVp3
p2166
aS'nimbussanl'
p2167
aS'#000000'
p2168
aF10.0
aI0
aI01
aI00
aI00
aI00
aI00
aI00
aI00
aI00
aa(lp2169
I234378
aF125.22372093023256
aF159.87
ag2166
aS'nimbussanl'
p2170
aS'#000000'
p2171
aF10.0
aI0
aI00
aI00
aI00
aI00
aI00
aI00
aI00
aI00
aa(lp2172
I234378
aF130.61418604651163
aF159.87
ag2166
aS'nimbussanl'
p2173
aS'#000000'
p2174
aF10.0
aI0
aI00
aI00
aI01
aI01
aI01
aI00
aI00
aI00
aa(lp2175
I234378
aF140.39511627906978
aF159.87
ag2166
aS'nimbussanl'
p2176
aS'#000000'
p2177
aF10.0
aI0
aI01
aI00
aI00
aI00
aI00
aI00
aI00
aI00
aa(lp2178
I234378
aF167.7379069767442
aF159.87
ag2166
aS'nimbussanl'
p2179
aS'#000000'
p2180
aF10.0
aI0
aI00
aI00
aI00
aI00
aI00
aI00
aI00
aI00
aa(lp2181
I37515
aF172.12837209302327
aF159.87
ag2166
aS'nimbussanl'
p2182
aS'#000000'
p2183
aF10.0
aI0
aI01
aI00
aI00
aI00
aI00
aI00
aI00
aI01
aa(lp2184
I234378
aF186.29976744186047
aF159.87
ag2166
aS'nimbussanl'
p2185
aS'#000000'
p2186
aF10.0
aI0
aI00
aI00
aI01
aI01
aI01
aI00
aI00
aI00
aa(lp2187
I89480
aF204.86162790697674
aF159.87
ag2166
aS'nimbussanl'
p2188
aS'#000000'
p2189
aF10.0
aI0
aI00
aI00
aI00
aI00
aI00
aI00
aI00
aI00
aa(lp2190
I36403
aF214.64255813953488
aF159.87
ag2166
aS'nimbussanl'
p2191
aS'#000000'
p2192
aF10.0
aI0
aI00
aI00
aI00
aI00
aI00
aI00
aI00
aI00
aa(lp2193
I132955
aF233.20441860465115
aF159.87
ag2166
aS'nimbussanl'
p2194
aS'#000000'
p2195
aF10.0
aI0
aI00
aI00
aI00
aI00
aI00
aI00
aI00
aI00
aa(lp2196
I234378
aF250.76627906976742
aF159.87
ag2166
aS'nimbussanl'
p2197
aS'#000000'
p2198
aF10.0
aI0
aI00
aI00
aI00
aI00
aI00
aI00
aI00
aI00
aa(lp2199
I210461
aF90.1
aF186.264
aVp3
p2200
aS'dejavusans'
p2201
aS'#000000'
p2202
aF12.0
aI0
aI01
aI00
aI00
aI00
aI00
aI00
aI00
aI00
aa(lp2203
I340
aF125.656
aF186.264
aVp3
p2204
aS'dejavusans'
p2205
aS'#000000'
p2206
aF12.0
aI0
aI01
aI00
aI00
aI00
aI00
aI00
aI00
aI00
aa(lp2207
I234378
aF148.54240000000001
aF186.264
ag2204
aS'dejavusans'
p2208
aS'#000000'
p2209
aF12.0
aI0
aI00
aI00
aI00
aI00
aI00
aI00
aI00
aI00
aa(lp2210
I234378
aF158.116
aF186.264
aVp3
p2211
aS'dejavusans'
p2212
aS'#000000'
p2213
aF12.0
aI0
aI00
aI00
aI01
aI01
aI01
aI00
aI00
aI00
aa(lp2214
I177958
aF90.1
aF214.31
aVp3
p2215
aS'nimbussanl'
p2216
aS'#000000'
p2217
aF10.0
aI1
aI01
aI00
aI00
aI00
aI00
aI00
aI00
aI00
aa(lp2218
I234378
aF124.54599999999999
aF214.31
ag2215
aS'nimbussanl'
p2219
aS'#000000'
p2220
aF10.0
aI1
aI00
aI00
aI01
aI01
aI00
aI00
aI00
aI00
aa(lp2221
I234378
aF129.32399999999998
aF214.31
ag2215
aS'nimbussanl'
p2222
aS'#000000'
p2223
aF10.0
aI1
aI00
aI00
aI00
aI00
aI00
aI00
aI00
aI00
aa(lp2224
I234378
aF90.1
aF241.136
aVp3
p2225
aS'nimbusromno9l'
p2226
aS'#000000'
p2227
aF11.0
aI0
aI01
aI01
aI00
aI00
aI00
aI00
aI00
aI00
aa(lp2228
I234378
aF107.58263157894737
aF241.136
ag2225
aS'nimbusromno9l'
p2229
aS'#000000'
p2230
aF11.0
aI0
aI01
aI00
aI00
aI00
aI00
aI00
aI00
aI00
aa(lp2231
I207716
aF152.5363157894737
aF241.136
ag2225
aS'nimbusromno9l'
p2232
aS'#000000'
p2233
aF11.0
aI0
aI01
aI00
aI00
aI00
aI00
aI00
aI00
aI00
aa(lp2234
I234378
aF99.7
aF268.37
aVp3
p2235
aS'nimbussanl'
p2236
aS'#000000'
p2237
aF10.0
aI0
aI01
aI01
aI00
aI00
aI00
aI00
aI00
aI00
aa(lp2238
I91539
aF113.92808510638298
aF268.37
ag2235
aS'nimbussanl'
p2239
aS'#000000'
p2240
aF10.0
aI0
aI01
aI00
aI00
aI00
aI00
aI00
aI00
aI00
aa(lp2241
I234378
aF131.56553191489363
aF268.37
ag2235
aS'nimbussanl'
p2242
aS'#000000'
p2243
aF10.0
aI0
aI00
aI00
aI00
aI00
aI00
aI00
aI00
aI00
aa(lp2244
I210945
aF136.97489361702128
aF268.37
ag2235
aS'nimbussanl'
p2245
aS'#000000'
p2246
aF10.0
aI0
aI00
aI00
aI00
aI00
aI00
aI00
aI00
aI00
aa(lp2247
I234378
aF164.43106382978723
aF268.37
ag2235
aS'nimbussanl'
p2248
aS'#000000'
p2249
aF10.0
aI0
aI01
aI00
aI00
aI00
aI00
aI00
aI00
aI00
aa(lp2250
I234378
aF169.06851063829788
aF268.37
ag2235
aS'nimbussanl'
p2251
aS'#000000'
p2252
aF10.0
aI0
aI00
aI00
aI00
aI00
aI00
aI00
aI00
aI00
aa(lp2253
I234378
aF187.47787234042553
aF268.37
ag2235
aS'nimbussanl'
p2254
aS'#000000'
p2255
aF10.0
aI0
aI00
aI00
aI00
aI00
aI00
aI00
aI00
aI00
aa(lp2256
I234378
aF201.70595744680853
aF268.37
ag2235
aS'nimbussanl'
p2257
aS'#000000'
p2258
aF10.0
aI0
aI00
aI00
aI00
aI00
aI00
aI00
aI00
aI00
aa(lp2259
I166593
aF210.39021276595747
aF268.37
ag2235
aS'nimbussanl'
p2260
aS'#000000'
p2261
aF10.0
aI0
aI00
aI00
aI00
aI00
aI00
aI00
aI00
aI00
aa(lp2262
I98123
aF247.79957446808513
aF268.37
ag2235
aS'nimbussanl'
p2263
aS'#000000'
p2264
aF10.0
aI0
aI00
aI00
aI00
aI00
aI00
aI00
aI00
aI00
aa(lp2265
I83353
aF288.4838297872341
aF268.37
ag2235
aS'nimbussanl'
p2266
aS'#000000'
p2267
aF10.0
aI0
aI01
aI00
aI00
aI00
aI00
aI00
aI00
aI00
aa(lp2268
I169566
aF315.94000000000005
aF268.37
ag2235
aS'nimbussanl'
p2269
aS'#000000'
p2270
aF10.0
aI0
aI01
aI00
aI00
aI00
aI00
aI00
aI00
aI00
aa(lp2271
I129282
aF347.80553191489366
aF268.37
ag2235
aS'nimbussanl'
p2272
aS'#000000'
p2273
aF10.0
aI0
aI01
aI00
aI00
aI00
aI00
aI00
aI00
aI00
aa(lp2274
I234378
aF392.89914893617026
aF268.37
ag2235
aS'nimbussanl'
p2275
aS'#000000'
p2276
aF10.0
aI0
aI00
aI00
aI00
aI00
aI00
aI00
aI00
aI00
aa(lp2277
I234378
aF397.30851063829795
aF268.37
ag2235
aS'nimbussanl'
p2278
aS'#000000'
p2279
aF10.0
aI0
aI01
aI01
aI00
aI00
aI00
aI00
aI00
aI00
aa(lp2280
I234378
aF410.53659574468094
aF268.37
ag2235
aS'nimbussanl'
p2281
aS'#000000'
p2282
aF10.0
aI0
aI00
aI00
aI00
aI00
aI00
aI00
aI00
aI00
aa(lp2283
I154322
aF415.9459574468086
aF268.37
ag2235
aS'nimbussanl'
p2284
aS'#000000'
p2285
aF10.0
aI0
aI00
aI00
aI00
aI00
aI00
aI00
aI00
aI00
aa(lp2286
I89480
aF461.0395744680852
aF268.37
ag2235
aS'nimbussanl'
p2287
aS'#000000'
p2288
aF10.0
aI0
aI00
aI00
aI00
aI00
aI00
aI00
aI00
aI00
aa(lp2289
I127387
aF90.1
aF280.77
aVp3
p2290
aS'nimbussanl'
p2291
aS'#000000'
p2292
aF10.0
aI0
aI00
aI00
aI00
aI00
aI00
aI00
aI00
aI00
aa(lp2293
I166593
aF131.34415730337076
aF280.77
ag2290
aS'nimbussanl'
p2294
aS'#000000'
p2295
aF10.0
aI0
aI00
aI00
aI00
aI00
aI00
aI00
aI00
aI00
aa(lp2296
I14603
aF136.81573033707863
aF280.77
ag2290
aS'nimbussanl'
p2297
aS'#000000'
p2298
aF10.0
aI0
aI00
aI00
aI00
aI00
aI00
aI00
aI00
aI00
aa(lp2299
I234378
aF173.58831460674156
aF280.77
ag2290
aS'nimbussanl'
p2300
aS'#000000'
p2301
aF10.0
aI0
aI00
aI00
aI00
aI00
aI00
aI00
aI00
aI00
aa(lp2302
I85218
aF210.3608988764045
aF280.77
ag2290
aS'nimbussanl'
p2303
aS'#000000'
p2304
aF10.0
aI0
aI00
aI00
aI00
aI00
aI00
aI00
aI00
aI00
aa(lp2305
I108443
aF224.7756179775281
aF280.77
ag2290
aS'nimbussanl'
p2306
aS'#000000'
p2307
aF10.0
aI0
aI00
aI00
aI00
aI00
aI00
aI00
aI00
aI00
aa(lp2308
I129342
aF252.6050561797753
aF280.77
ag2290
aS'nimbussanl'
p2309
aS'#000000'
p2310
aF10.0
aI0
aI00
aI00
aI00
aI00
aI00
aI00
aI00
aI00
aa(lp2311
I175989
aF289.3776404494382
aF280.77
ag2290
aS'nimbussanl'
p2312
aS'#000000'
p2313
aF10.0
aI0
aI00
aI00
aI00
aI00
aI00
aI00
aI00
aI00
aa(lp2314
I113929
aF308.2639325842697
aF280.77
ag2290
aS'nimbussanl'
p2315
aS'#000000'
p2316
aF10.0
aI0
aI00
aI00
aI00
aI00
aI00
aI00
aI00
aI00
aa(lp2317
I147316
aF327.1502247191012
aF280.77
ag2290
aS'nimbussanl'
p2318
aS'#000000'
p2319
aF10.0
aI0
aI00
aI00
aI00
aI00
aI00
aI00
aI00
aI00
aa(lp2320
I194354
aF359.45123595505623
aF280.77
ag2290
aS'nimbussanl'
p2321
aS'#000000'
p2322
aF10.0
aI0
aI00
aI00
aI00
aI00
aI00
aI00
aI00
aI00
aa(lp2323
I93350
aF373.8659550561798
aF280.77
ag2290
aS'nimbussanl'
p2324
aS'#000000'
p2325
aF10.0
aI0
aI00
aI00
aI00
aI00
aI00
aI00
aI00
aI00
aa(lp2326
I55730
aF406.1669662921349
aF280.77
ag2290
aS'nimbussanl'
p2327
aS'#000000'
p2328
aF10.0
aI0
aI00
aI00
aI00
aI00
aI00
aI00
aI00
aI00
aa(lp2329
I85218
aF373.5248314606742
aF280.77
ag2290
aS'nimbussanl'
p2330
aS'#000000'
p2331
aF10.0
aI0
aI00
aI00
aI00
aI00
aI00
aI00
aI00
aI00
aa(lp2332
I234378
aF90.1
aF293.17
aVp3
p2333
aS'nimbussanl'
p2334
aS'#000000'
p2335
aF10.0
aI0
aI00
aI00
aI00
aI00
aI00
aI00
aI00
aI00
aa(lp2336
I144489
aF145.10423529411764
aF293.17
ag2333
aS'nimbussanl'
p2337
aS'#000000'
p2338
aF10.0
aI0
aI00
aI00
aI00
aI00
aI00
aI00
aI00
aI00
aa(lp2339
I194354
aF155.1049411764706
aF293.17
ag2333
aS'nimbussanl'
p2340
aS'#000000'
p2341
aF10.0
aI0
aI00
aI00
aI00
aI00
aI00
aI00
aI00
aI00
aa(lp2342
I91539
aF169.606
aF293.17
ag2333
aS'nimbussanl'
p2343
aS'#000000'
p2344
aF10.0
aI0
aI01
aI00
aI00
aI00
aI00
aI00
aI00
aI00
aa(lp2345
I59734
aF174.6074117647059
aF293.17
ag2333
aS'nimbussanl'
p2346
aS'#000000'
p2347
aF10.0
aI0
aI00
aI00
aI00
aI00
aI00
aI00
aI00
aI00
aa(lp2348
I234378
aF194.10776470588235
aF293.17
ag2333
aS'nimbussanl'
p2349
aS'#000000'
p2350
aF10.0
aI0
aI00
aI00
aI00
aI00
aI00
aI00
aI00
aI00
aa(lp2351
I8691
aF235.6109411764706
aF293.17
ag2333
aS'nimbussanl'
p2352
aS'#000000'
p2353
aF10.0
aI0
aI00
aI00
aI00
aI00
aI00
aI00
aI00
aI00
aa(lp2354
I194354
aF235.6130588235294
aF293.17
ag2333
aS'nimbussanl'
p2355
aS'#000000'
p2356
aF10.0
aI0
aI00
aI00
aI00
aI00
aI00
aI00
aI00
aI00
aa(lp2357
I45177
aF278.11411764705883
aF293.17
ag2333
aS'nimbussanl'
p2358
aS'#000000'
p2359
aF10.0
aI0
aI00
aI00
aI00
aI00
aI00
aI00
aI00
aI00
aa(lp2360
I234378
aF305.11623529411764
aF293.17
ag2333
aS'nimbussanl'
p2361
aS'#000000'
p2362
aF10.0
aI0
aI00
aI00
aI00
aI00
aI00
aI00
aI00
aI00
aa(lp2363
I194354
aF310.6165882352941
aF293.17
ag2333
aS'nimbussanl'
p2364
aS'#000000'
p2365
aF10.0
aI0
aI01
aI00
aI00
aI00
aI00
aI00
aI00
aI00
aa(lp2366
I234378
aF325.11764705882354
aF293.17
ag2333
aS'nimbussanl'
p2367
aS'#000000'
p2368
aF10.0
aI0
aI00
aI00
aI00
aI00
aI00
aI00
aI00
aI00
aa(lp2369
I113929
aF362.1204705882353
aF293.17
ag2333
aS'nimbussanl'
p2370
aS'#000000'
p2371
aF10.0
aI0
aI00
aI00
aI00
aI00
aI00
aI00
aI00
aI00
aa(lp2372
I147316
aF381.1218823529412
aF293.17
ag2333
aS'nimbussanl'
p2373
aS'#000000'
p2374
aF10.0
aI0
aI00
aI00
aI00
aI00
aI00
aI00
aI00
aI00
aa(lp2375
I194354
aF347.6243529411765
aF293.17
ag2333
aS'nimbussanl'
p2376
aS'#000000'
p2377
aF10.0
aI0
aI00
aI00
aI00
aI00
aI00
aI00
aI00
aI00
aa(lp2378
I234378
aF90.1
aF305.57
aVp3
p2379
aS'nimbussanl'
p2380
aS'#000000'
p2381
aF10.0
aI0
aI00
aI00
aI00
aI00
aI00
aI00
aI00
aI00
aa(lp2382
I85218
aF138.57241379310344
aF305.57
ag2379
aS'nimbussanl'
p2383
aS'#000000'
p2384
aF10.0
aI0
aI00
aI00
aI00
aI00
aI00
aI00
aI00
aI00
aa(lp2385
I145512
aF153.81413793103448
aF305.57
ag2379
aS'nimbussanl'
p2386
aS'#000000'
p2387
aF10.0
aI0
aI00
aI00
aI00
aI00
aI00
aI00
aI00
aI00
aa(lp2388
I234378
aF202.28655172413792
aF305.57
ag2379
aS'nimbussanl'
p2389
aS'#000000'
p2390
aF10.0
aI0
aI00
aI00
aI00
aI00
aI00
aI00
aI00
aI00
aa(lp2391
I144489
aF246.01172413793103
aF305.57
ag2379
aS'nimbussanl'
p2392
aS'#000000'
p2393
aF10.0
aI0
aI00
aI00
aI00
aI00
aI00
aI00
aI00
aI00
aa(lp2394
I83353
aF256.5062068965517
aF305.57
ag2379
aS'nimbussanl'
p2395
aS'#000000'
p2396
aF10.0
aI0
aI01
aI00
aI00
aI00
aI00
aI00
aI00
aI00
aa(lp2397
I89958
aF285.9896551724138
aF305.57
ag2379
aS'nimbussanl'
p2398
aS'#000000'
p2399
aF10.0
aI0
aI01
aI00
aI00
aI00
aI00
aI00
aI00
aI00
aa(lp2400
I234378
aF319.2203448275862
aF305.57
ag2379
aS'nimbussanl'
p2401
aS'#000000'
p2402
aF10.0
aI0
aI00
aI00
aI00
aI00
aI00
aI00
aI00
aI00
aa(lp2403
I128677
aF324.96758620689656
aF305.57
ag2379
aS'nimbussanl'
p2404
aS'#000000'
p2405
aF10.0
aI0
aI01
aI00
aI00
aI00
aI00
aI00
aI00
aI00
aa(lp2406
I153177
aF354.45103448275864
aF305.57
ag2379
aS'nimbussanl'
p2407
aS'#000000'
p2408
aF10.0
aI0
aI01
aI00
aI00
aI00
aI00
aI00
aI00
aI00
aa(lp2409
I234378
aF382.9234482758621
aF305.57
ag2379
aS'nimbussanl'
p2410
aS'#000000'
p2411
aF10.0
aI0
aI00
aI00
aI00
aI00
aI00
aI00
aI00
aI00
aa(lp2412
I83140
aF407.67068965517245
aF305.57
ag2379
aS'nimbussanl'
p2413
aS'#000000'
p2414
aF10.0
aI0
aI01
aI00
aI00
aI00
aI00
aI00
aI00
aI00
aa(lp2415
I91539
aF405.90137931034485
aF305.57
ag2379
aS'nimbussanl'
p2416
aS'#000000'
p2417
aF10.0
aI0
aI01
aI00
aI00
aI00
aI00
aI00
aI00
aI00
aa(lp2418
I234378
aF427.8903448275862
aF305.57
ag2379
aS'nimbussanl'
p2419
aS'#000000'
p2420
aF10.0
aI0
aI00
aI00
aI00
aI00
aI00
aI00
aI00
aI00
aa(lp2421
I85218
aF90.1
aF317.97
aVp3
p2422
aS'nimbussanl'
p2423
aS'#000000'
p2424
aF10.0
aI0
aI00
aI00
aI00
aI00
aI00
aI00
aI00
aI00
aa(lp2425
I152900
aF106.40107142857143
aF317.97
ag2422
aS'nimbussanl'
p2426
aS'#000000'
p2427
aF10.0
aI0
aI01
aI00
aI00
aI00
aI00
aI00
aI00
aI00
aa(lp2428
I234378
aF158.40464285714285
aF317.97
ag2422
aS'nimbussanl'
p2429
aS'#000000'
p2430
aF10.0
aI0
aI00
aI00
aI00
aI00
aI00
aI00
aI00
aI00
aa(lp2431
I234378
aF163.505
aF317.97
ag2422
aS'nimbussanl'
p2432
aS'#000000'
p2433
aF10.0
aI0
aI01
aI01
aI00
aI00
aI00
aI00
aI00
aI00
aa(lp2434
I234378
aF178.8060714285714
aF317.97
ag2422
aS'nimbussanl'
p2435
aS'#000000'
p2436
aF10.0
aI0
aI00
aI00
aI00
aI00
aI00
aI00
aI00
aI00
aa(lp2437
I89958
aF184.90642857142856
aF317.97
ag2422
aS'nimbussanl'
p2438
aS'#000000'
p2439
aF10.0
aI0
aI01
aI00
aI00
aI00
aI00
aI00
aI00
aI00
aa(lp2440
I234378
aF90.1
aF344.37
aVp3
p2441
aS'nimbussanl'
p2442
aS'#000000'
p2443
aF10.0
aI0
aI01
aI00
aI00
aI00
aI00
aI00
aI00
aI00
aa(lp2444
I234378
aF157.97764705882352
aF344.37
ag2441
aS'nimbussanl'
p2445
aS'#000000'
p2446
aF10.0
aI0
aI00
aI00
aI00
aI00
aI00
aI00
aI00
aI00
aa(lp2447
I62551
aF90.1
aF370.77
aVp3
p2448
aS'nimbussanl'
p2449
aS'#000000'
p2450
aF10.0
aI0
aI01
aI00
aI00
aI00
aI00
aI00
aI00
aI00
aa(lp2451
I234378
aF110.63045454545454
aF370.77
ag2448
aS'nimbussanl'
p2452
aS'#000000'
p2453
aF10.0
aI0
aI00
aI00
aI00
aI00
aI00
aI00
aI00
aI00
aa(lp2454
I135639
aF165.33920454545455
aF370.77
ag2448
aS'nimbussanl'
p2455
aS'#000000'
p2456
aF10.0
aI0
aI00
aI00
aI00
aI00
aI00
aI00
aI00
aI00
aa(lp2457
I117435
aF176.1044318181818
aF370.77
ag2448
aS'nimbussanl'
p2458
aS'#000000'
p2459
aF10.0
aI0
aI00
aI00
aI00
aI00
aI00
aI00
aI00
aI00
aa(lp2460
I234378
aF220.04795454545453
aF370.77
ag2448
aS'nimbussanl'
p2461
aS'#000000'
p2462
aF10.0
aI0
aI00
aI00
aI00
aI00
aI00
aI00
aI00
aI00
aa(lp2463
I234378
aF225.93056818181816
aF370.77
ag2448
aS'nimbussanl'
p2464
aS'#000000'
p2465
aF10.0
aI0
aI01
aI00
aI00
aI00
aI00
aI00
aI00
aI00
aa(lp2466
I234378
aF247.22625
aF370.77
ag2448
aS'nimbussanl'
p2467
aS'#000000'
p2468
aF10.0
aI0
aI00
aI00
aI00
aI00
aI00
aI00
aI00
aI00
aa(lp2469
I195671
aF261.1088636363636
aF370.77
ag2448
aS'nimbussanl'
p2470
aS'#000000'
p2471
aF10.0
aI0
aI00
aI00
aI00
aI00
aI00
aI00
aI00
aI00
aa(lp2472
I85218
aF325.58284090909086
aF370.77
ag2448
aS'nimbussanl'
p2473
aS'#000000'
p2474
aF10.0
aI0
aI00
aI00
aI00
aI00
aI00
aI00
aI00
aI00
aa(lp2475
I234378
aF341.2306818181818
aF370.77
ag2448
aS'nimbussanl'
p2476
aS'#000000'
p2477
aF10.0
aI0
aI00
aI00
aI00
aI00
aI00
aI00
aI00
aI00
aa(lp2478
I190806
aF386.17420454545453
aF370.77
ag2448
aS'nimbussanl'
p2479
aS'#000000'
p2480
aF10.0
aI0
aI00
aI00
aI00
aI00
aI00
aI00
aI00
aI00
aa(lp2481
I234378
aF401.82204545454545
aF370.77
ag2448
aS'nimbussanl'
p2482
aS'#000000'
p2483
aF10.0
aI0
aI01
aI01
aI00
aI00
aI00
aI00
aI00
aI00
aa(lp2484
I118012
aF417.46988636363636
aF370.77
ag2448
aS'nimbussanl'
p2485
aS'#000000'
p2486
aF10.0
aI0
aI01
aI00
aI00
aI00
aI00
aI00
aI00
aI00
aa(lp2487
I234378
aF438.00034090909094
aF370.77
ag2448
aS'nimbussanl'
p2488
aS'#000000'
p2489
aF10.0
aI0
aI01
aI00
aI00
aI00
aI00
aI00
aI00
aI00
aa(lp2490
I85218
aF426.53079545454545
aF370.77
ag2448
aS'nimbussanl'
p2491
aS'#000000'
p2492
aF10.0
aI0
aI00
aI00
aI00
aI00
aI00
aI00
aI00
aI00
aa(lp2493
I234378
aF90.1
aF383.17
aVp3
p2494
aS'nimbussanl'
p2495
aS'#000000'
p2496
aF10.0
aI0
aI01
aI00
aI00
aI00
aI00
aI00
aI00
aI00
aa(lp2497
I83126
aF130.98762886597936
aF383.17
ag2494
aS'nimbussanl'
p2498
aS'#000000'
p2499
aF10.0
aI0
aI00
aI00
aI00
aI00
aI00
aI00
aI00
aI00
aa(lp2500
I16331
aF194.0350515463917
aF383.17
ag2494
aS'nimbussanl'
p2501
aS'#000000'
p2502
aF10.0
aI0
aI00
aI00
aI00
aI00
aI00
aI00
aI00
aI00
aa(lp2503
I38609
aF203.8989690721649
aF383.17
ag2494
aS'nimbussanl'
p2504
aS'#000000'
p2505
aF10.0
aI0
aI00
aI00
aI00
aI00
aI00
aI00
aI00
aI00
aa(lp2506
I144489
aF222.62680412371128
aF383.17
ag2494
aS'nimbussanl'
p2507
aS'#000000'
p2508
aF10.0
aI0
aI00
aI00
aI00
aI00
aI00
aI00
aI00
aI00
aa(lp2509
I194354
aF232.49072164948447
aF383.17
ag2494
aS'nimbussanl'
p2510
aS'#000000'
p2511
aF10.0
aI0
aI00
aI00
aI00
aI00
aI00
aI00
aI00
aI00
aa(lp2512
I144643
aF246.78659793814427
aF383.17
ag2494
aS'nimbussanl'
p2513
aS'#000000'
p2514
aF10.0
aI0
aI01
aI00
aI00
aI00
aI00
aI00
aI00
aI00
aa(lp2515
I234378
aF277.8103092783505
aF383.17
ag2494
aS'nimbussanl'
p2516
aS'#000000'
p2517
aF10.0
aI0
aI00
aI00
aI00
aI00
aI00
aI00
aI00
aI00
aa(lp2518
I22476
aF283.2422680412371
aF383.17
ag2494
aS'nimbussanl'
p2519
aS'#000000'
p2520
aF10.0
aI0
aI01
aI00
aI00
aI00
aI00
aI00
aI00
aI00
aa(lp2521
I22474
aF293.1061855670103
aF383.17
ag2494
aS'nimbussanl'
p2522
aS'#000000'
p2523
aF10.0
aI0
aI00
aI00
aI00
aI00
aI00
aI00
aI00
aI00
aa(lp2524
I16329
aF303.9701030927835
aF383.17
ag2494
aS'nimbussanl'
p2525
aS'#000000'
p2526
aF10.0
aI0
aI00
aI00
aI00
aI00
aI00
aI00
aI00
aI00
aa(lp2527
I234378
aF313.83402061855674
aF383.17
ag2494
aS'nimbussanl'
p2528
aS'#000000'
p2529
aF10.0
aI0
aI01
aI00
aI00
aI00
aI00
aI00
aI00
aI00
aa(lp2530
I89958
aF350.2896907216495
aF383.17
ag2494
aS'nimbussanl'
p2531
aS'#000000'
p2532
aF10.0
aI0
aI00
aI00
aI00
aI00
aI00
aI00
aI00
aI00
aa(lp2533
I123665
aF382.3134020618557
aF383.17
ag2494
aS'nimbussanl'
p2534
aS'#000000'
p2535
aF10.0
aI0
aI00
aI00
aI00
aI00
aI00
aI00
aI00
aI00
aa(lp2536
I234378
aF432.0649484536083
aF383.17
ag2494
aS'nimbussanl'
p2537
aS'#000000'
p2538
aF10.0
aI0
aI00
aI00
aI00
aI00
aI00
aI00
aI00
aI00
aa(lp2539
I169745
aF90.1
aF395.57
aVp3
p2540
aS'nimbussanl'
p2541
aS'#323232'
p2542
aF10.0
aI0
aI00
aI00
aI00
aI00
aI00
aI00
aI00
aI00
aa(lp2543
I86755
aF109.84883720930232
aF395.57
ag2540
aS'nimbussanl'
p2544
aS'#323232'
p2545
aF10.0
aI0
aI01
aI01
aI00
aI00
aI00
aI00
aI00
aI00
aa(lp2546
I234378
aF124.91046511627906
aF395.57
ag2540
aS'nimbussanl'
p2547
aS'#323232'
p2548
aF10.0
aI0
aI00
aI00
aI00
aI00
aI00
aI00
aI00
aI00
aa(lp2549
I234378
aF163.4081395348837
aF395.57
ag2540
aS'nimbussanl'
p2550
aS'#323232'
p2551
aF10.0
aI0
aI00
aI00
aI01
aI01
aI00
aI00
aI00
aI00
aa(lp2552
I234378
aF168.0953488372093
aF395.57
ag2540
aS'nimbussanl'
p2553
aS'#323232'
p2554
aF10.0
aI0
aI00
aI00
aI00
aI00
aI00
aI00
aI00
aI00
aa(lp2555
I225568
aF172.78255813953487
aF395.57
ag2540
aS'nimbussanl'
p2556
aS'#323232'
p2557
aF10.0
aI0
aI00
aI00
aI00
aI00
aI00
aI00
aI00
aI00
aa(lp2558
I63022
aF178.46976744186045
aF395.57
ag2540
aS'nimbussanl'
p2559
aS'#323232'
p2560
aF10.0
aI0
aI00
aI00
aI00
aI00
aI00
aI00
aI00
aI00
aa(lp2561
I78776
aF212.28023255813952
aF395.57
ag2540
aS'nimbussanl'
p2562
aS'#323232'
p2563
aF10.0
aI0
aI00
aI00
aI00
aI00
aI00
aI00
aI00
aI00
aa(lp2564
I190806
aF232.02906976744185
aF395.57
ag2540
aS'nimbussanl'
p2565
aS'#323232'
p2566
aF10.0
aI0
aI00
aI00
aI00
aI00
aI00
aI00
aI00
aI00
aa(lp2567
I234378
aF247.0906976744186
aF395.57
ag2540
aS'nimbussanl'
p2568
aS'#323232'
p2569
aF10.0
aI0
aI01
aI01
aI00
aI00
aI00
aI00
aI00
aI00
aa(lp2570
I234378
aF238.15232558139536
aF395.57
ag2540
aS'nimbussanl'
p2571
aS'#323232'
p2572
aF10.0
aI0
aI00
aI00
aI00
aI00
aI00
aI00
aI00
aI00
aa(lp2573
I234378
aF90.1
aF421.97
aVp3
p2574
aS'nimbussanl'
p2575
aS'#000000'
p2576
aF10.0
aI0
aI01
aI00
aI00
aI00
aI00
aI00
aI00
aI00
aa(lp2577
I234378
aF147.53384615384616
aF421.97
ag2574
aS'nimbussanl'
p2578
aS'#000000'
p2579
aF10.0
aI0
aI00
aI00
aI00
aI00
aI00
aI00
aI00
aI00
aa(lp2580
I25931
aF90.1
aF448.37
aVp3
p2581
aS'nimbussanl'
p2582
aS'#000000'
p2583
aF10.0
aI0
aI01
aI00
aI00
aI00
aI00
aI00
aI00
aI00
aa(lp2584
I104149
aF118.636
aF448.37
ag2581
aS'nimbussanl'
p2585
aS'#000000'
p2586
aF10.0
aI0
aI01
aI00
aI00
aI00
aI00
aI00
aI00
aI00
aa(lp2587
I234378
aF136.99333333333334
aF448.37
ag2581
aS'nimbussanl'
p2588
aS'#000000'
p2589
aF10.0
aI0
aI00
aI00
aI00
aI00
aI00
aI00
aI00
aI00
aa(lp2590
I234378
aF142.58266666666668
aF448.37
ag2581
aS'nimbussanl'
p2591
aS'#000000'
p2592
aF10.0
aI0
aI01
aI01
aI00
aI00
aI00
aI00
aI00
aI00
aa(lp2593
I234378
aF156.35066666666668
aF448.37
ag2581
aS'nimbussanl'
p2594
aS'#000000'
p2595
aF10.0
aI0
aI00
aI00
aI00
aI00
aI00
aI00
aI00
aI00
aa(lp2596
I234378
aF160.94000000000003
aF448.37
ag2581
aS'nimbussanl'
p2597
aS'#000000'
p2598
aF10.0
aI0
aI01
aI00
aI00
aI00
aI00
aI00
aI00
aI00
aa(lp2599
I234378
aF181.47600000000003
aF448.37
ag2581
aS'nimbussanl'
p2600
aS'#000000'
p2601
aF10.0
aI0
aI00
aI00
aI00
aI00
aI00
aI00
aI00
aI00
aa(lp2602
I46281
aF194.06533333333337
aF448.37
ag2581
aS'nimbussanl'
p2603
aS'#000000'
p2604
aF10.0
aI0
aI01
aI00
aI00
aI00
aI00
aI00
aI00
aI00
aa(lp2605
I234378
aF222.60133333333337
aF448.37
ag2581
aS'nimbussanl'
p2606
aS'#000000'
p2607
aF10.0
aI0
aI00
aI00
aI00
aI00
aI00
aI00
aI00
aI00
aa(lp2608
I234378
aF220.95866666666672
aF448.37
ag2581
aS'nimbussanl'
p2609
aS'#000000'
p2610
aF10.0
aI0
aI00
aI00
aI00
aI00
aI00
aI00
aI00
aI00
aa(lp2611
I208006
aF246.54800000000006
aF448.37
ag2581
aS'nimbussanl'
p2612
aS'#000000'
p2613
aF10.0
aI0
aI01
aI00
aI00
aI00
aI00
aI00
aI00
aI00
aa(lp2614
I96642
aF90.1
aF474.77
aVp3
p2615
aS'nimbussanl'
p2616
aS'#000000'
p2617
aF10.0
aI0
aI01
aI00
aI00
aI00
aI00
aI00
aI00
aI00
aa(lp2618
I104149
aF118.625
aF474.77
ag2615
aS'nimbussanl'
p2619
aS'#000000'
p2620
aF10.0
aI0
aI01
aI00
aI00
aI00
aI00
aI00
aI00
aI00
aa(lp2621
I234378
aF136.975
aF474.77
ag2615
aS'nimbussanl'
p2622
aS'#000000'
p2623
aF10.0
aI0
aI00
aI00
aI00
aI00
aI00
aI00
aI00
aI00
aa(lp2624
I234378
aF142.5625
aF474.77
ag2615
aS'nimbussanl'
p2625
aS'#000000'
p2626
aF10.0
aI0
aI01
aI00
aI00
aI00
aI00
aI00
aI00
aI00
aa(lp2627
I234378
aF171.0875
aF474.77
ag2615
aS'nimbussanl'
p2628
aS'#000000'
p2629
aF10.0
aI0
aI00
aI00
aI01
aI01
aI00
aI00
aI00
aI00
aa(lp2630
I234378
aF175.675
aF474.77
ag2615
aS'nimbussanl'
p2631
aS'#000000'
p2632
aF10.0
aI0
aI00
aI00
aI00
aI00
aI00
aI00
aI00
aI00
aa(lp2633
I234378
aF180.26250000000002
aF474.77
ag2615
aS'nimbussanl'
p2634
aS'#000000'
p2635
aF10.0
aI0
aI00
aI00
aI01
aI01
aI00
aI00
aI00
aI00
aa(lp2636
I234378
aF184.85000000000002
aF474.77
ag2615
aS'nimbussanl'
p2637
aS'#000000'
p2638
aF10.0
aI0
aI00
aI00
aI00
aI00
aI00
aI00
aI00
aI00
aa(lp2639
I234378
aF190.43750000000003
aF474.77
ag2615
aS'nimbussanl'
p2640
aS'#000000'
p2641
aF10.0
aI0
aI01
aI01
aI00
aI00
aI00
aI00
aI00
aI00
aa(lp2642
I234378
aF199.20000000000002
aF474.77
ag2615
aS'nimbussanl'
p2643
aS'#000000'
p2644
aF10.0
aI0
aI00
aI00
aI00
aI00
aI00
aI00
aI00
aI00
aa(lp2645
I234378
aF209.78750000000002
aF474.77
ag2615
aS'nimbussanl'
p2646
aS'#000000'
p2647
aF10.0
aI0
aI01
aI01
aI00
aI00
aI00
aI00
aI00
aI00
aa(lp2648
I234378
aF213.55
aF474.77
ag2615
aS'nimbussanl'
p2649
aS'#000000'
p2650
aF10.0
aI0
aI00
aI00
aI00
aI00
aI00
aI00
aI00
aI00
aa(lp2651
I176767
aF229.13750000000002
aF474.77
ag2615
aS'nimbussanl'
p2652
aS'#000000'
p2653
aF10.0
aI0
aI01
aI00
aI00
aI00
aI00
aI00
aI00
aI00
aa(lp2654
I234378
aF249.425
aF474.77
ag2615
aS'nimbussanl'
p2655
aS'#000000'
p2656
aF10.0
aI0
aI00
aI00
aI00
aI00
aI00
aI00
aI00
aI00
aa(lp2657
I106895
aF276.01250000000005
aF474.77
ag2615
aS'nimbussanl'
p2658
aS'#000000'
p2659
aF10.0
aI0
aI01
aI01
aI00
aI00
aI00
aI00
aI00
aI00
aa(lp2660
I17350
aF295.36250000000007
aF474.77
ag2615
aS'nimbussanl'
p2661
aS'#000000'
p2662
aF10.0
aI0
aI00
aI00
aI00
aI00
aI00
aI00
aI00
aI00
aa(lp2663
I234378
aF310.12500000000006
aF474.77
ag2615
aS'nimbussanl'
p2664
aS'#000000'
p2665
aF10.0
aI0
aI00
aI00
aI00
aI00
aI00
aI00
aI00
aI00
aa(lp2666
I234378
aF304.82500000000005
aF474.77
ag2615
aS'nimbussanl'
p2667
aS'#000000'
p2668
aF10.0
aI0
aI00
aI00
aI00
aI00
aI00
aI00
aI00
aI00
aa(lp2669
I234378
aF90.1
aF501.17
aVp3
p2670
aS'nimbussanl'
p2671
aS'#000000'
p2672
aF10.0
aI0
aI01
aI00
aI00
aI00
aI00
aI00
aI00
aI00
aa(lp2673
I234378
aF138.91764705882352
aF501.17
ag2670
aS'nimbussanl'
p2674
aS'#000000'
p2675
aF10.0
aI0
aI00
aI00
aI00
aI00
aI00
aI00
aI00
aI00
aa(lp2676
I86755
aF144.79941176470587
aF501.17
ag2670
aS'nimbussanl'
p2677
aS'#000000'
p2678
aF10.0
aI0
aI01
aI01
aI00
aI00
aI00
aI00
aI00
aI00
aa(lp2679
I61195
aF160.44470588235293
aF501.17
ag2670
aS'nimbussanl'
p2680
aS'#000000'
p2681
aF10.0
aI0
aI01
aI00
aI00
aI00
aI00
aI00
aI00
aI00
aa(lp2682
I104374
aF195.61705882352942
aF501.17
ag2670
aS'nimbussanl'
p2683
aS'#000000'
p2684
aF10.0
aI0
aI00
aI00
aI00
aI00
aI00
aI00
aI00
aI00
aa(lp2685
I234378
aF90.1
aF528.17
aVp3
p2686
aS'nimbussanl'
p2687
aS'#000000'
p2688
aF10.0
aI0
aI01
aI00
aI00
aI00
aI00
aI00
aI00
aI00
aa(lp2689
I234378
aF128.91899999999998
aF528.17
ag2686
aS'nimbussanl'
p2690
aS'#000000'
p2691
aF10.0
aI0
aI00
aI00
aI00
aI00
aI00
aI00
aI00
aI00
aa(lp2692
I45445
aF134.77137499999998
aF528.17
ag2686
aS'nimbussanl'
p2693
aS'#000000'
p2694
aF10.0
aI0
aI01
aI00
aI00
aI00
aI00
aI00
aI00
aI00
aa(lp2695
I120031
aF90.1
aF554.87
aVp3
p2696
aS'nimbussanl'
p2697
aS'#000000'
p2698
aF10.0
aI0
aI01
aI00
aI00
aI00
aI00
aI00
aI00
aI00
aa(lp2699
I234378
aF128.38571428571427
aF554.87
ag2696
aS'nimbussanl'
p2700
aS'#000000'
p2701
aF10.0
aI0
aI00
aI00
aI00
aI00
aI00
aI00
aI00
aI00
aa(lp2702
I234378
aF134.17142857142855
aF554.87
ag2696
aS'nimbussanl'
p2703
aS'#000000'
p2704
aF10.0
aI0
aI00
aI00
aI01
aI01
aI01
aI00
aI00
aI00
aa(lp2705
I234378
aF144.74285714285713
aF554.87
ag2696
aS'nimbussanl'
p2706
aS'#000000'
p2707
aF10.0
aI0
aI01
aI00
aI00
aI00
aI00
aI00
aI00
aI00
aa(lp2708
I234378
aF174.45714285714286
aF554.87
ag2696
aS'nimbussanl'
p2709
aS'#000000'
p2710
aF10.0
aI0
aI00
aI00
aI00
aI00
aI00
aI00
aI00
aI00
aa(lp2711
I37515
aF179.24285714285713
aF554.87
ag2696
aS'nimbussanl'
p2712
aS'#000000'
p2713
aF10.0
aI0
aI01
aI00
aI00
aI00
aI00
aI00
aI00
aI01
aa(lp2714
I234378
aF194.6
aF554.87
ag2696
aS'nimbussanl'
p2715
aS'#000000'
p2716
aF10.0
aI0
aI00
aI00
aI01
aI01
aI01
aI00
aI00
aI00
aa(lp2717
I89480
aF214.74285714285713
aF554.87
ag2696
aS'nimbussanl'
p2718
aS'#000000'
p2719
aF10.0
aI0
aI00
aI00
aI00
aI00
aI00
aI00
aI00
aI00
aa(lp2720
I37515
aF213.31428571428572
aF554.87
ag2696
aS'nimbussanl'
p2721
aS'#000000'
p2722
aF10.0
aI0
aI01
aI00
aI00
aI00
aI00
aI00
aI00
aI01
aa(lp2723
I234378
aF240.67142857142858
aF554.87
ag2696
aS'nimbussanl'
p2724
aS'#000000'
p2725
aF10.0
aI0
aI00
aI00
aI01
aI01
aI01
aI00
aI00
aI00
aa(lp2726
I234378
aF259.81428571428575
aF554.87
ag2696
aS'nimbussanl'
p2727
aS'#000000'
p2728
aF10.0
aI0
aI00
aI00
aI00
aI00
aI00
aI00
aI00
aI00
aa(lp2729
I210461
aF90.1
aF581.264
aVp3
p2730
aS'dejavusans'
p2731
aS'#000000'
p2732
aF12.0
aI0
aI01
aI00
aI00
aI00
aI00
aI00
aI00
aI00
aa(lp2733
I340
aF125.656
aF581.264
aVp3
p2734
aS'dejavusans'
p2735
aS'#000000'
p2736
aF12.0
aI0
aI01
aI00
aI00
aI00
aI00
aI00
aI00
aI00
aa(lp2737
I234378
aF148.54240000000001
aF581.264
ag2734
aS'dejavusans'
p2738
aS'#000000'
p2739
aF12.0
aI0
aI00
aI00
aI00
aI00
aI00
aI00
aI00
aI00
aa(lp2740
I234378
aF158.116
aF581.264
aVp3
p2741
aS'dejavusans'
p2742
aS'#000000'
p2743
aF12.0
aI0
aI00
aI00
aI01
aI01
aI01
aI00
aI00
aI00
aa(lp2744
I177958
aF90.1
aF636.11
aVp3
p2745
aS'nimbussanl'
p2746
aS'#000000'
p2747
aF10.0
aI1
aI01
aI00
aI00
aI00
aI00
aI00
aI00
aI00
aa(lp2748
I234378
aF124.54599999999999
aF636.11
ag2745
aS'nimbussanl'
p2749
aS'#000000'
p2750
aF10.0
aI1
aI00
aI00
aI01
aI01
aI00
aI00
aI00
aI00
aa(lp2751
I234378
aF129.32399999999998
aF636.11
ag2745
aS'nimbussanl'
p2752
aS'#000000'
p2753
aF10.0
aI1
aI00
aI00
aI00
aI00
aI00
aI00
aI00
aI00
aa(lp2754
I119502
aF90.1
aF662.936
aVp3
p2755
aS'nimbusromno9l'
p2756
aS'#000000'
p2757
aF11.0
aI0
aI01
aI00
aI00
aI00
aI00
aI00
aI00
aI00
aa(lp2758
I224637
aF125.53824999999999
aF662.936
ag2755
aS'nimbusromno9l'
p2759
aS'#000000'
p2760
aF11.0
aI0
aI01
aI00
aI00
aI00
aI00
aI00
aI00
aI00
aa(lp2761
I182333
aF90.1
aF690.17
aVp3
p2762
aS'nimbussanl'
p2763
aS'#000000'
p2764
aF10.0
aI0
aI01
aI01
aI00
aI00
aI00
aI00
aI00
aI00
aa(lp2765
I234378
aF99.99431578947367
aF690.17
ag2762
aS'nimbussanl'
p2766
aS'#000000'
p2767
aF10.0
aI0
aI00
aI00
aI00
aI00
aI00
aI00
aI00
aI00
aa(lp2768
I119502
aF104.44147368421052
aF690.17
ag2762
aS'nimbussanl'
p2769
aS'#000000'
p2770
aF10.0
aI0
aI01
aI00
aI00
aI00
aI00
aI00
aI00
aI00
aa(lp2771
I224637
aF136.5715789473684
aF690.17
ag2762
aS'nimbussanl'
p2772
aS'#000000'
p2773
aF10.0
aI0
aI01
aI00
aI00
aI00
aI00
aI00
aI00
aI00
aa(lp2774
I234378
aF172.14884210526316
aF690.17
ag2762
aS'nimbussanl'
p2775
aS'#000000'
p2776
aF10.0
aI0
aI00
aI00
aI00
aI00
aI00
aI00
aI00
aI00
aa(lp2777
I22474
aF177.596
aF690.17
ag2762
aS'nimbussanl'
p2778
aS'#000000'
p2779
aF10.0
aI0
aI00
aI00
aI00
aI00
aI00
aI00
aI00
aI00
aa(lp2780
I166593
aF176.4903157894737
aF690.17
ag2762
aS'nimbussanl'
p2781
aS'#000000'
p2782
aF10.0
aI0
aI00
aI00
aI00
aI00
aI00
aI00
aI00
aI00
aa(lp2783
I207716
aF192.93747368421054
aF690.17
ag2762
aS'nimbussanl'
p2784
aS'#000000'
p2785
aF10.0
aI0
aI00
aI00
aI00
aI00
aI00
aI00
aI00
aI00
aa(lp2786
I175989
aF220.6204210526316
aF690.17
ag2762
aS'nimbussanl'
p2787
aS'#000000'
p2788
aF10.0
aI0
aI00
aI00
aI00
aI00
aI00
aI00
aI00
aI00
aa(lp2789
I192651
aF239.40905263157896
aF690.17
ag2762
aS'nimbussanl'
p2790
aS'#000000'
p2791
aF10.0
aI0
aI00
aI00
aI00
aI00
aI00
aI00
aI00
aI00
aa(lp2792
I212682
aF249.30336842105265
aF690.17
ag2762
aS'nimbussanl'
p2793
aS'#000000'
p2794
aF10.0
aI0
aI00
aI00
aI00
aI00
aI00
aI00
aI00
aI00
aa(lp2795
I167373
aF285.8806315789474
aF690.17
ag2762
aS'nimbussanl'
p2796
aS'#000000'
p2797
aF10.0
aI0
aI00
aI00
aI00
aI00
aI00
aI00
aI00
aI00
aa(lp2798
I85218
aF331.3522105263158
aF690.17
ag2762
aS'nimbussanl'
p2799
aS'#000000'
p2800
aF10.0
aI0
aI00
aI00
aI00
aI00
aI00
aI00
aI00
aI00
aa(lp2801
I136475
aF345.6936842105263
aF690.17
ag2762
aS'nimbussanl'
p2802
aS'#000000'
p2803
aF10.0
aI0
aI00
aI00
aI00
aI00
aI00
aI00
aI00
aI00
aa(lp2804
I234378
aF382.27094736842105
aF690.17
ag2762
aS'nimbussanl'
p2805
aS'#000000'
p2806
aF10.0
aI0
aI00
aI00
aI00
aI00
aI00
aI00
aI00
aI00
aa(lp2807
I28937
aF414.4010526315789
aF690.17
ag2762
aS'nimbussanl'
p2808
aS'#000000'
p2809
aF10.0
aI0
aI00
aI00
aI00
aI00
aI00
aI00
aI00
aI00
aa(lp2810
I194354
aF450.97831578947364
aF690.17
ag2762
aS'nimbussanl'
p2811
aS'#000000'
p2812
aF10.0
aI0
aI00
aI00
aI00
aI00
aI00
aI00
aI00
aI00
aa(lp2813
I137949
aF90.1
aF702.57
aVp3
p2814
aS'nimbussanl'
p2815
aS'#000000'
p2816
aF10.0
aI0
aI00
aI00
aI00
aI00
aI00
aI00
aI00
aI00
aa(lp2817
I60220
aF108.5659793814433
aF702.57
ag2814
aS'nimbussanl'
p2818
aS'#000000'
p2819
aF10.0
aI0
aI00
aI00
aI00
aI00
aI00
aI00
aI00
aI00
aa(lp2820
I144489
aF153.23092783505155
aF702.57
ag2814
aS'nimbussanl'
p2821
aS'#000000'
p2822
aF10.0
aI0
aI00
aI00
aI00
aI00
aI00
aI00
aI00
aI00
aa(lp2823
I166593
aF162.96391752577318
aF702.57
ag2814
aS'nimbussanl'
p2824
aS'#000000'
p2825
aF10.0
aI0
aI00
aI00
aI00
aI00
aI00
aI00
aI00
aI00
aa(lp2826
I119502
aF168.330412371134
aF702.57
ag2814
aS'nimbussanl'
p2827
aS'#000000'
p2828
aF10.0
aI0
aI00
aI00
aI00
aI00
aI00
aI00
aI00
aI00
aa(lp2829
I85218
aF199.8958762886598
aF702.57
ag2814
aS'nimbussanl'
p2830
aS'#000000'
p2831
aF10.0
aI0
aI00
aI00
aI00
aI00
aI00
aI00
aI00
aI00
aa(lp2832
I72602
aF213.99536082474228
aF702.57
ag2814
aS'nimbussanl'
p2833
aS'#000000'
p2834
aF10.0
aI0
aI00
aI00
aI00
aI00
aI00
aI00
aI00
aI00
aa(lp2835
I1629
aF232.46134020618558
aF702.57
ag2814
aS'nimbussanl'
p2836
aS'#000000'
p2837
aF10.0
aI0
aI00
aI00
aI00
aI00
aI00
aI00
aI00
aI00
aa(lp2838
I167737
aF255.2938144329897
aF702.57
ag2814
aS'nimbussanl'
p2839
aS'#000000'
p2840
aF10.0
aI0
aI00
aI00
aI00
aI00
aI00
aI00
aI00
aI00
aa(lp2841
I89480
aF273.759793814433
aF702.57
ag2814
aS'nimbussanl'
p2842
aS'#000000'
p2843
aF10.0
aI0
aI00
aI00
aI00
aI00
aI00
aI00
aI00
aI00
aa(lp2844
I36355
aF283.49278350515465
aF702.57
ag2814
aS'nimbussanl'
p2845
aS'#000000'
p2846
aF10.0
aI0
aI00
aI00
aI00
aI00
aI00
aI00
aI00
aI00
aa(lp2847
I184062
aF323.7912371134021
aF702.57
ag2814
aS'nimbussanl'
p2848
aS'#000000'
p2849
aF10.0
aI0
aI00
aI00
aI00
aI00
aI00
aI00
aI00
aI00
aa(lp2850
I25729
aF368.4561855670103
aF702.57
ag2814
aS'nimbussanl'
p2851
aS'#000000'
p2852
aF10.0
aI0
aI00
aI00
aI00
aI00
aI00
aI00
aI00
aI00
aa(lp2853
I190806
aF386.9221649484536
aF702.57
ag2814
aS'nimbussanl'
p2854
aS'#000000'
p2855
aF10.0
aI0
aI00
aI00
aI00
aI00
aI00
aI00
aI00
aI00
aa(lp2856
I168867
aF401.02164948453606
aF702.57
ag2814
aS'nimbussanl'
p2857
aS'#000000'
p2858
aF10.0
aI0
aI01
aI01
aI00
aI00
aI00
aI00
aI00
aI00
aa(lp2859
I126678
aF415.1211340206185
aF702.57
ag2814
aS'nimbussanl'
p2860
aS'#000000'
p2861
aF10.0
aI0
aI00
aI00
aI00
aI00
aI00
aI00
aI00
aI00
aa(lp2862
I234378
aF458.78608247422676
aF702.57
ag2814
aS'nimbussanl'
p2863
aS'#000000'
p2864
aF10.0
aI0
aI00
aI00
aI00
aI00
aI00
aI00
aI00
aI00
aa(lp2865
I11475
aF90.1
aF714.97
aVp3
p2866
aS'nimbussanl'
p2867
aS'#000000'
p2868
aF10.0
aI0
aI00
aI00
aI00
aI00
aI00
aI00
aI00
aI00
aa(lp2869
I166558
aF113.00654761904761
aF714.97
ag2866
aS'nimbussanl'
p2870
aS'#000000'
p2871
aF10.0
aI0
aI00
aI00
aI00
aI00
aI00
aI00
aI00
aI00
aa(lp2872
I85218
aF149.0570238095238
aF714.97
ag2866
aS'nimbussanl'
p2873
aS'#000000'
p2874
aF10.0
aI0
aI00
aI00
aI00
aI00
aI00
aI00
aI00
aI00
aa(lp2875
I119502
aF163.20095238095237
aF714.97
ag2866
aS'nimbussanl'
p2876
aS'#000000'
p2877
aF10.0
aI0
aI00
aI00
aI00
aI00
aI00
aI00
aI00
aI00
aa(lp2878
I104909
aF194.87011904761903
aF714.97
ag2866
aS'nimbussanl'
p2879
aS'#000000'
p2880
aF10.0
aI0
aI00
aI00
aI00
aI00
aI00
aI00
aI00
aI00
aa(lp2881
I190806
aF248.44583333333333
aF714.97
ag2866
aS'nimbussanl'
p2882
aS'#000000'
p2883
aF10.0
aI0
aI00
aI00
aI00
aI00
aI00
aI00
aI00
aI00
aa(lp2884
I234378
aF262.5897619047619
aF714.97
ag2866
aS'nimbussanl'
p2885
aS'#000000'
p2886
aF10.0
aI0
aI00
aI00
aI00
aI00
aI00
aI00
aI00
aI00
aa(lp2887
I63022
aF294.25892857142856
aF714.97
ag2866
aS'nimbussanl'
p2888
aS'#000000'
p2889
aF10.0
aI0
aI00
aI00
aI00
aI00
aI00
aI00
aI00
aI00
aa(lp2890
I190806
aF305.92809523809524
aF714.97
ag2866
aS'nimbussanl'
p2891
aS'#000000'
p2892
aF10.0
aI0
aI00
aI00
aI00
aI00
aI00
aI00
aI00
aI00
aa(lp2893
I234378
aF340.0720238095238
aF714.97
ag2866
aS'nimbussanl'
p2894
aS'#000000'
p2895
aF10.0
aI0
aI01
aI00
aI00
aI00
aI00
aI00
aI00
aI00
aa(lp2896
I35885
aF367.35988095238093
aF714.97
ag2866
aS'nimbussanl'
p2897
aS'#000000'
p2898
aF10.0
aI0
aI00
aI00
aI00
aI00
aI00
aI00
aI00
aI00
aa(lp2899
I25931
aF390.26642857142855
aF714.97
ag2866
aS'nimbussanl'
p2900
aS'#000000'
p2901
aF10.0
aI0
aI00
aI00
aI00
aI00
aI00
aI00
aI00
aI00
aa(lp2902
I234378
aF416.5542857142857
aF714.97
ag2866
aS'nimbussanl'
p2903
aS'#000000'
p2904
aF10.0
aI0
aI00
aI00
aI00
aI00
aI00
aI00
aI00
aI00
aa(lp2905
I234378
aF90.1
aF27.07
aVp4
p2906
aS'nimbussanl'
p2907
aS'#000000'
p2908
aF10.0
aI0
aI01
aI00
aI00
aI00
aI00
aI00
aI00
aI00
aa(lp2909
I234378
aF157.97764705882352
aF27.07
ag2906
aS'nimbussanl'
p2910
aS'#000000'
p2911
aF10.0
aI0
aI00
aI00
aI00
aI00
aI00
aI00
aI00
aI00
aa(lp2912
I90127
aF90.1
aF53.47
aVp4
p2913
aS'nimbussanl'
p2914
aS'#000000'
p2915
aF10.0
aI0
aI01
aI00
aI00
aI00
aI00
aI00
aI00
aI00
aa(lp2916
I190806
aF142.43252747252745
aF53.47
ag2913
aS'nimbussanl'
p2917
aS'#000000'
p2918
aF10.0
aI0
aI00
aI00
aI00
aI00
aI00
aI00
aI00
aI00
aa(lp2919
I234378
aF157.4323076923077
aF53.47
ag2913
aS'nimbussanl'
p2920
aS'#000000'
p2921
aF10.0
aI0
aI01
aI00
aI00
aI00
aI00
aI00
aI00
aI00
aa(lp2922
I104617
aF200.43164835164833
aF53.47
ag2913
aS'nimbussanl'
p2923
aS'#000000'
p2924
aF10.0
aI0
aI00
aI00
aI00
aI00
aI00
aI00
aI00
aI00
aa(lp2925
I63022
aF224.76461538461535
aF53.47
ag2913
aS'nimbussanl'
p2926
aS'#000000'
p2927
aF10.0
aI0
aI00
aI00
aI00
aI00
aI00
aI00
aI00
aI00
aa(lp2928
I144690
aF258.4307692307692
aF53.47
ag2913
aS'nimbussanl'
p2929
aS'#000000'
p2930
aF10.0
aI0
aI00
aI00
aI00
aI00
aI00
aI00
aI00
aI00
aa(lp2931
I234378
aF286.4303296703297
aF53.47
ag2913
aS'nimbussanl'
p2932
aS'#000000'
p2933
aF10.0
aI0
aI00
aI00
aI00
aI00
aI00
aI00
aI00
aI00
aa(lp2934
I130791
aF292.0969230769231
aF53.47
ag2913
aS'nimbussanl'
p2935
aS'#000000'
p2936
aF10.0
aI0
aI00
aI00
aI00
aI00
aI00
aI00
aI00
aI00
aa(lp2937
I210461
aF325.76307692307694
aF53.47
ag2913
aS'nimbussanl'
p2938
aS'#000000'
p2939
aF10.0
aI0
aI00
aI00
aI00
aI00
aI00
aI00
aI00
aI00
aa(lp2940
I234378
aF330.42945054945056
aF53.47
ag2913
aS'nimbussanl'
p2941
aS'#000000'
p2942
aF10.0
aI0
aI00
aI00
aI00
aI00
aI00
aI00
aI00
aI00
aa(lp2943
I234378
aF350.09604395604396
aF53.47
ag2913
aS'nimbussanl'
p2944
aS'#000000'
p2945
aF10.0
aI0
aI00
aI00
aI00
aI00
aI00
aI00
aI00
aI00
aa(lp2946
I234378
aF356.09560439560437
aF53.47
ag2913
aS'nimbussanl'
p2947
aS'#000000'
p2948
aF10.0
aI0
aI00
aI00
aI00
aI00
aI00
aI00
aI00
aI00
aa(lp2949
I141687
aF383.76219780219776
aF53.47
ag2913
aS'nimbussanl'
p2950
aS'#000000'
p2951
aF10.0
aI0
aI00
aI00
aI00
aI00
aI00
aI00
aI00
aI00
aa(lp2952
I169745
aF436.09472527472525
aF53.47
ag2913
aS'nimbussanl'
p2953
aS'#000000'
p2954
aF10.0
aI0
aI00
aI00
aI00
aI00
aI00
aI00
aI00
aI00
aa(lp2955
I136483
aF455.7610989010989
aF53.47
ag2913
aS'nimbussanl'
p2956
aS'#000000'
p2957
aF10.0
aI0
aI00
aI00
aI00
aI00
aI00
aI00
aI00
aI00
aa(lp2958
I207716
aF90.1
aF65.87
aVp4
p2959
aS'nimbussanl'
p2960
aS'#000000'
p2961
aF10.0
aI0
aI00
aI00
aI00
aI00
aI00
aI00
aI00
aI00
aa(lp2962
I85218
aF118.39052631578946
aF65.87
ag2959
aS'nimbussanl'
p2963
aS'#000000'
p2964
aF10.0
aI0
aI00
aI00
aI00
aI00
aI00
aI00
aI00
aI00
aa(lp2965
I209115
aF133.0357894736842
aF65.87
ag2959
aS'nimbussanl'
p2966
aS'#000000'
p2967
aF10.0
aI0
aI00
aI00
aI00
aI00
aI00
aI00
aI00
aI00
aa(lp2968
I9657
aF147.68105263157892
aF65.87
ag2959
aS'nimbussanl'
p2969
aS'#000000'
p2970
aF10.0
aI0
aI00
aI00
aI00
aI00
aI00
aI00
aI00
aI00
aa(lp2971
I144489
aF171.42315789473682
aF65.87
ag2959
aS'nimbussanl'
p2972
aS'#000000'
p2973
aF10.0
aI0
aI00
aI00
aI00
aI00
aI00
aI00
aI00
aI00
aa(lp2974
I33301
aF181.51999999999998
aF65.87
ag2959
aS'nimbussanl'
p2975
aS'#000000'
p2976
aF10.0
aI0
aI00
aI00
aI00
aI00
aI00
aI00
aI00
aI00
aa(lp2977
I190806
aF214.35894736842104
aF65.87
ag2959
aS'nimbussanl'
p2978
aS'#000000'
p2979
aF10.0
aI0
aI00
aI00
aI00
aI00
aI00
aI00
aI00
aI00
aa(lp2980
I234378
aF229.00421052631577
aF65.87
ag2959
aS'nimbussanl'
p2981
aS'#000000'
p2982
aF10.0
aI0
aI01
aI00
aI00
aI00
aI00
aI00
aI00
aI00
aa(lp2983
I35885
aF257.29473684210524
aF65.87
ag2959
aS'nimbussanl'
p2984
aS'#000000'
p2985
aF10.0
aI0
aI00
aI00
aI00
aI00
aI00
aI00
aI00
aI00
aa(lp2986
I234378
aF281.03684210526313
aF65.87
ag2959
aS'nimbussanl'
p2987
aS'#000000'
p2988
aF10.0
aI0
aI00
aI00
aI00
aI00
aI00
aI00
aI00
aI00
aa(lp2989
I234378
aF312.87578947368416
aF65.87
ag2959
aS'nimbussanl'
p2990
aS'#000000'
p2991
aF10.0
aI0
aI00
aI00
aI00
aI00
aI00
aI00
aI00
aI00
aa(lp2992
I234378
aF90.1
aF92.27
aVp4
p2993
aS'nimbussanl'
p2994
aS'#000000'
p2995
aF10.0
aI0
aI01
aI00
aI00
aI00
aI00
aI00
aI00
aI00
aa(lp2996
I234378
aF147.53384615384616
aF92.27
ag2993
aS'nimbussanl'
p2997
aS'#000000'
p2998
aF10.0
aI0
aI00
aI00
aI00
aI00
aI00
aI00
aI00
aI00
aa(lp2999
I25931
aF90.1
aF118.67
aVp4
p3000
aS'nimbussanl'
p3001
aS'#000000'
p3002
aF10.0
aI0
aI01
aI00
aI00
aI00
aI00
aI00
aI00
aI00
aa(lp3003
I104149
aF120.00814814814814
aF118.67
ag3000
aS'nimbussanl'
p3004
aS'#000000'
p3005
aF10.0
aI0
aI01
aI00
aI00
aI00
aI00
aI00
aI00
aI00
aa(lp3006
I234378
aF139.28024691358024
aF118.67
ag3000
aS'nimbussanl'
p3007
aS'#000000'
p3008
aF10.0
aI0
aI00
aI00
aI00
aI00
aI00
aI00
aI00
aI00
aa(lp3009
I208006
aF145.09827160493828
aF118.67
ag3000
aS'nimbussanl'
p3010
aS'#000000'
p3011
aF10.0
aI0
aI01
aI00
aI00
aI00
aI00
aI00
aI00
aI00
aa(lp3012
I123665
aF179.82444444444445
aF118.67
ag3000
aS'nimbussanl'
p3013
aS'#000000'
p3014
aF10.0
aI0
aI00
aI00
aI00
aI00
aI00
aI00
aI00
aI00
aa(lp3015
I68032
aF233.82271604938273
aF118.67
ag3000
aS'nimbussanl'
p3016
aS'#000000'
p3017
aF10.0
aI0
aI00
aI00
aI00
aI00
aI00
aI00
aI00
aI00
aa(lp3018
I234378
aF286.820987654321
aF118.67
ag3000
aS'nimbussanl'
p3019
aS'#000000'
p3020
aF10.0
aI0
aI00
aI00
aI00
aI00
aI00
aI00
aI00
aI00
aa(lp3021
I234378
aF292.639012345679
aF118.67
ag3000
aS'nimbussanl'
p3022
aS'#000000'
p3023
aF10.0
aI0
aI01
aI01
aI00
aI00
aI00
aI00
aI00
aI00
aa(lp3024
I115769
aF312.9111111111111
aF118.67
ag3000
aS'nimbussanl'
p3025
aS'#000000'
p3026
aF10.0
aI0
aI01
aI00
aI00
aI00
aI00
aI00
aI00
aI00
aa(lp3027
I234378
aF340.2733333333333
aF118.67
ag3000
aS'nimbussanl'
p3028
aS'#000000'
p3029
aF10.0
aI0
aI00
aI00
aI00
aI00
aI00
aI00
aI00
aI00
aa(lp3030
I173460
aF362.0913580246913
aF118.67
ag3000
aS'nimbussanl'
p3031
aS'#000000'
p3032
aF10.0
aI0
aI01
aI00
aI00
aI00
aI00
aI00
aI00
aI00
aa(lp3033
I234378
aF378.45358024691353
aF118.67
ag3000
aS'nimbussanl'
p3034
aS'#000000'
p3035
aF10.0
aI0
aI00
aI00
aI00
aI00
aI00
aI00
aI00
aI00
aa(lp3036
I234378
aF411.27160493827154
aF118.67
ag3000
aS'nimbussanl'
p3037
aS'#000000'
p3038
aF10.0
aI0
aI01
aI01
aI00
aI00
aI00
aI00
aI00
aI00
aa(lp3039
I230071
aF426.7256790123456
aF118.67
ag3000
aS'nimbussanl'
p3040
aS'#000000'
p3041
aF10.0
aI0
aI01
aI00
aI00
aI00
aI00
aI00
aI00
aI00
aa(lp3042
I42569
aF90.1
aF131.07
aVp4
p3043
aS'nimbussanl'
p3044
aS'#000000'
p3045
aF10.0
aI0
aI00
aI00
aI00
aI00
aI00
aI00
aI00
aI00
aa(lp3046
I234378
aF159.7046875
aF131.07
ag3043
aS'nimbussanl'
p3047
aS'#000000'
p3048
aF10.0
aI0
aI00
aI00
aI00
aI00
aI00
aI00
aI00
aI00
aa(lp3049
I148110
aF165.345
aF131.07
ag3043
aS'nimbussanl'
p3050
aS'#000000'
p3051
aF10.0
aI0
aI01
aI00
aI00
aI00
aI00
aI00
aI00
aI00
aa(lp3052
I61195
aF189.5465625
aF131.07
ag3043
aS'nimbussanl'
p3053
aS'#000000'
p3054
aF10.0
aI0
aI00
aI00
aI00
aI00
aI00
aI00
aI00
aI00
aa(lp3055
I144509
aF223.02875
aF131.07
ag3043
aS'nimbussanl'
p3056
aS'#000000'
p3057
aF10.0
aI0
aI00
aI00
aI00
aI00
aI00
aI00
aI00
aI00
aa(lp3058
I234378
aF254.35281250000003
aF131.07
ag3043
aS'nimbussanl'
p3059
aS'#000000'
p3060
aF10.0
aI0
aI00
aI00
aI00
aI00
aI00
aI00
aI00
aI00
aa(lp3061
I119502
aF288.993125
aF131.07
ag3043
aS'nimbussanl'
p3062
aS'#000000'
p3063
aF10.0
aI0
aI01
aI00
aI00
aI00
aI00
aI00
aI00
aI00
aa(lp3064
I115769
aF322.47531250000003
aF131.07
ag3043
aS'nimbussanl'
p3065
aS'#000000'
p3066
aF10.0
aI0
aI01
aI00
aI00
aI00
aI00
aI00
aI00
aI00
aa(lp3067
I234378
aF364.238125
aF131.07
ag3043
aS'nimbussanl'
p3068
aS'#000000'
p3069
aF10.0
aI0
aI00
aI00
aI00
aI00
aI00
aI00
aI00
aI00
aa(lp3070
I96642
aF90.1
aF157.47
aVp4
p3071
aS'nimbussanl'
p3072
aS'#000000'
p3073
aF10.0
aI0
aI01
aI00
aI00
aI00
aI00
aI00
aI00
aI00
aa(lp3074
I104149
aF118.59028571428571
aF157.47
ag3071
aS'nimbussanl'
p3075
aS'#000000'
p3076
aF10.0
aI0
aI01
aI00
aI00
aI00
aI00
aI00
aI00
aI00
aa(lp3077
I234378
aF136.91714285714286
aF157.47
ag3071
aS'nimbussanl'
p3078
aS'#000000'
p3079
aF10.0
aI0
aI00
aI00
aI00
aI00
aI00
aI00
aI00
aI00
aa(lp3080
I234378
aF142.49885714285716
aF157.47
ag3071
aS'nimbussanl'
p3081
aS'#000000'
p3082
aF10.0
aI0
aI01
aI01
aI01
aI00
aI00
aI00
aI00
aI00
aa(lp3083
I234378
aF160.8257142857143
aF157.47
ag3071
aS'nimbussanl'
p3084
aS'#000000'
p3085
aF10.0
aI0
aI00
aI00
aI00
aI00
aI00
aI00
aI00
aI00
aa(lp3086
I148996
aF166.4074285714286
aF157.47
ag3071
aS'nimbussanl'
p3087
aS'#000000'
p3088
aF10.0
aI0
aI01
aI00
aI00
aI00
aI00
aI00
aI00
aI00
aa(lp3089
I176767
aF194.8977142857143
aF157.47
ag3071
aS'nimbussanl'
p3090
aS'#000000'
p3091
aF10.0
aI0
aI00
aI00
aI00
aI00
aI00
aI00
aI00
aI00
aa(lp3092
I234378
aF90.1
aF184.47
aVp4
p3093
aS'nimbussanl'
p3094
aS'#000000'
p3095
aF10.0
aI0
aI01
aI00
aI00
aI00
aI00
aI00
aI00
aI00
aa(lp3096
I234378
aF131.5633043478261
aF184.47
ag3093
aS'nimbussanl'
p3097
aS'#000000'
p3098
aF10.0
aI0
aI00
aI00
aI00
aI00
aI00
aI00
aI00
aI00
aa(lp3099
I234378
aF137.74621739130436
aF184.47
ag3093
aS'nimbussanl'
p3100
aS'#000000'
p3101
aF10.0
aI0
aI01
aI01
aI00
aI00
aI00
aI00
aI00
aI00
aa(lp3102
I234378
aF149.1120434782609
aF184.47
ag3093
aS'nimbussanl'
p3103
aS'#000000'
p3104
aF10.0
aI0
aI01
aI01
aI00
aI00
aI00
aI00
aI00
aI00
aa(lp3105
I96642
aF165.66078260869565
aF184.47
ag3093
aS'nimbussanl'
p3106
aS'#000000'
p3107
aF10.0
aI0
aI01
aI00
aI00
aI00
aI00
aI00
aI00
aI00
aa(lp3108
I120031
aF90.1
aF211.07
aVp4
p3109
aS'nimbussanl'
p3110
aS'#000000'
p3111
aF10.0
aI0
aI01
aI00
aI00
aI00
aI00
aI00
aI00
aI00
aa(lp3112
I234378
aF128.17619047619047
aF211.07
ag3109
aS'nimbussanl'
p3113
aS'#000000'
p3114
aF10.0
aI0
aI00
aI00
aI00
aI00
aI00
aI00
aI00
aI00
aa(lp3115
I234378
aF133.93571428571428
aF211.07
ag3109
aS'nimbussanl'
p3116
aS'#000000'
p3117
aF10.0
aI0
aI00
aI00
aI01
aI01
aI01
aI00
aI00
aI00
aa(lp3118
I234378
aF144.4547619047619
aF211.07
ag3109
aS'nimbussanl'
p3119
aS'#000000'
p3120
aF10.0
aI0
aI01
aI00
aI00
aI00
aI00
aI00
aI00
aI00
aa(lp3121
I234378
aF174.01190476190476
aF211.07
ag3109
aS'nimbussanl'
p3122
aS'#000000'
p3123
aF10.0
aI0
aI00
aI00
aI00
aI00
aI00
aI00
aI00
aI00
aa(lp3124
I234378
aF178.77142857142857
aF211.07
ag3109
aS'nimbussanl'
p3125
aS'#000000'
p3126
aF10.0
aI0
aI01
aI00
aI00
aI00
aI00
aI00
aI00
aI01
aa(lp3127
I234378
aF194.05
aF211.07
ag3109
aS'nimbussanl'
p3128
aS'#000000'
p3129
aF10.0
aI0
aI00
aI00
aI01
aI01
aI01
aI00
aI00
aI00
aa(lp3130
I89480
aF214.08809523809526
aF211.07
ag3109
aS'nimbussanl'
p3131
aS'#000000'
p3132
aF10.0
aI0
aI00
aI00
aI00
aI00
aI00
aI00
aI00
aI00
aa(lp3133
I37515
aF224.6071428571429
aF211.07
ag3109
aS'nimbussanl'
p3134
aS'#000000'
p3135
aF10.0
aI0
aI01
aI00
aI00
aI00
aI00
aI00
aI00
aI01
aa(lp3136
I234378
aF239.88571428571433
aF211.07
ag3109
aS'nimbussanl'
p3137
aS'#000000'
p3138
aF10.0
aI0
aI00
aI00
aI01
aI01
aI01
aI00
aI00
aI00
aa(lp3139
I234378
aF258.92380952380955
aF211.07
ag3109
aS'nimbussanl'
p3140
aS'#000000'
p3141
aF10.0
aI0
aI00
aI00
aI00
aI00
aI00
aI00
aI00
aI00
aa(lp3142
I210461
aF90.1
aF237.464
aVp4
p3143
aS'dejavusans'
p3144
aS'#000000'
p3145
aF12.0
aI0
aI01
aI00
aI00
aI00
aI00
aI00
aI00
aI00
aa(lp3146
I340
aF125.656
aF237.464
aVp4
p3147
aS'dejavusans'
p3148
aS'#000000'
p3149
aF12.0
aI0
aI01
aI00
aI00
aI00
aI00
aI00
aI00
aI00
aa(lp3150
I234378
aF148.54240000000001
aF237.464
ag3147
aS'dejavusans'
p3151
aS'#000000'
p3152
aF12.0
aI0
aI00
aI00
aI00
aI00
aI00
aI00
aI00
aI00
aa(lp3153
I234378
aF158.116
aF237.464
aVp4
p3154
aS'dejavusans'
p3155
aS'#000000'
p3156
aF12.0
aI0
aI00
aI00
aI01
aI01
aI01
aI00
aI00
aI00
aa(lp3157
I177958
aF90.1
aF292.31
aVp4
p3158
aS'nimbussanl'
p3159
aS'#000000'
p3160
aF10.0
aI1
aI01
aI00
aI00
aI00
aI00
aI00
aI00
aI00
aa(lp3161
I234378
aF124.54599999999999
aF292.31
ag3158
aS'nimbussanl'
p3162
aS'#000000'
p3163
aF10.0
aI1
aI00
aI00
aI01
aI01
aI00
aI00
aI00
aI00
aa(lp3164
I234378
aF129.32399999999998
aF292.31
ag3158
aS'nimbussanl'
p3165
aS'#000000'
p3166
aF10.0
aI1
aI00
aI00
aI00
aI00
aI00
aI00
aI00
aI00
aa(lp3167
I234378
aF90.1
aF319.17
aVp4
p3168
aS'nimbussanl'
p3169
aS'#000000'
p3170
aF10.0
aI0
aI01
aI00
aI00
aI00
aI00
aI00
aI00
aI00
aa(lp3171
I234378
aF114.53333333333333
aF319.17
ag3168
aS'nimbussanl'
p3172
aS'#000000'
p3173
aF10.0
aI0
aI01
aI00
aI00
aI00
aI00
aI00
aI00
aI00
aa(lp3174
I234378
aF90.1
aF345.57
aVp4
p3175
aS'nimbussanl'
p3176
aS'#000000'
p3177
aF10.0
aI0
aI01
aI00
aI00
aI00
aI00
aI00
aI00
aI00
aa(lp3178
I234378
aF114.33152173913044
aF345.57
ag3175
aS'nimbussanl'
p3179
aS'#000000'
p3180
aF10.0
aI0
aI01
aI00
aI00
aI00
aI00
aI00
aI00
aI00
aa(lp3181
I22474
aF129.2704347826087
aF345.57
ag3175
aS'nimbussanl'
p3182
aS'#000000'
p3183
aF10.0
aI0
aI00
aI00
aI00
aI00
aI00
aI00
aI00
aI00
aa(lp3184
I166593
aF130.56304347826088
aF345.57
ag3175
aS'nimbussanl'
p3185
aS'#000000'
p3186
aF10.0
aI0
aI00
aI00
aI00
aI00
aI00
aI00
aI00
aI00
aa(lp3187
I108443
aF145.20934782608697
aF345.57
ag3175
aS'nimbussanl'
p3188
aS'#000000'
p3189
aF10.0
aI0
aI00
aI00
aI00
aI00
aI00
aI00
aI00
aI00
aa(lp3190
I164851
aF174.0871739130435
aF345.57
ag3175
aS'nimbussanl'
p3191
aS'#000000'
p3192
aF10.0
aI0
aI00
aI00
aI00
aI00
aI00
aI00
aI00
aI00
aa(lp3193
I153177
aF198.31869565217394
aF345.57
ag3175
aS'nimbussanl'
p3194
aS'#000000'
p3195
aF10.0
aI0
aI00
aI00
aI00
aI00
aI00
aI00
aI00
aI00
aa(lp3196
I119502
aF245.7817391304348
aF345.57
ag3175
aS'nimbussanl'
p3197
aS'#000000'
p3198
aF10.0
aI0
aI00
aI00
aI00
aI00
aI00
aI00
aI00
aI00
aa(lp3199
I175989
aF279.3058695652174
aF345.57
ag3175
aS'nimbussanl'
p3200
aS'#000000'
p3201
aF10.0
aI0
aI00
aI00
aI00
aI00
aI00
aI00
aI00
aI00
aa(lp3202
I234378
aF298.89108695652175
aF345.57
ag3175
aS'nimbussanl'
p3203
aS'#000000'
p3204
aF10.0
aI0
aI00
aI00
aI00
aI00
aI00
aI00
aI00
aI00
aa(lp3205
I49042
aF323.12260869565216
aF345.57
ag3175
aS'nimbussanl'
p3206
aS'#000000'
p3207
aF10.0
aI0
aI00
aI00
aI00
aI00
aI00
aI00
aI00
aI00
aa(lp3208
I123814
aF304.0615217391304
aF345.57
ag3175
aS'nimbussanl'
p3209
aS'#000000'
p3210
aF10.0
aI0
aI00
aI00
aI00
aI00
aI00
aI00
aI00
aI00
aa(lp3211
I61342
aF366.93934782608693
aF345.57
ag3175
aS'nimbussanl'
p3212
aS'#000000'
p3213
aF10.0
aI0
aI00
aI00
aI00
aI00
aI00
aI00
aI00
aI00
aa(lp3214
I234378
aF386.5245652173913
aF345.57
ag3175
aS'nimbussanl'
p3215
aS'#000000'
p3216
aF10.0
aI0
aI00
aI00
aI00
aI00
aI00
aI00
aI00
aI00
aa(lp3217
I92229
aF415.4023913043478
aF345.57
ag3175
aS'nimbussanl'
p3218
aS'#000000'
p3219
aF10.0
aI0
aI00
aI00
aI00
aI00
aI00
aI00
aI00
aI00
aa(lp3220
I192651
aF453.5728260869565
aF345.57
ag3175
aS'nimbussanl'
p3221
aS'#000000'
p3222
aF10.0
aI0
aI00
aI00
aI00
aI00
aI00
aI00
aI00
aI00
aa(lp3223
I234378
aF90.1
aF357.97
aVp4
p3224
aS'nimbussanl'
p3225
aS'#000000'
p3226
aF10.0
aI0
aI00
aI00
aI00
aI00
aI00
aI00
aI00
aI00
aa(lp3227
I61342
aF113.51956521739129
aF357.97
ag3224
aS'nimbussanl'
p3228
aS'#000000'
p3229
aF10.0
aI0
aI00
aI00
aI00
aI00
aI00
aI00
aI00
aI00
aa(lp3230
I108443
aF132.45521739130433
aF357.97
ag3224
aS'nimbussanl'
p3231
aS'#000000'
p3232
aF10.0
aI0
aI00
aI00
aI00
aI00
aI00
aI00
aI00
aI00
aa(lp3233
I54779
aF160.35869565217388
aF357.97
ag3224
aS'nimbussanl'
p3234
aS'#000000'
p3235
aF10.0
aI0
aI00
aI00
aI00
aI00
aI00
aI00
aI00
aI00
aa(lp3236
I234378
aF182.77826086956517
aF357.97
ag3224
aS'nimbussanl'
p3237
aS'#000000'
p3238
aF10.0
aI0
aI00
aI00
aI00
aI00
aI00
aI00
aI00
aI00
aa(lp3239
I234378
aF188.26217391304343
aF357.97
ag3224
aS'nimbussanl'
p3240
aS'#000000'
p3241
aF10.0
aI0
aI01
aI00
aI00
aI00
aI00
aI00
aI00
aI00
aa(lp3242
I234378
aF211.68173913043472
aF357.97
ag3224
aS'nimbussanl'
p3243
aS'#000000'
p3244
aF10.0
aI0
aI01
aI00
aI00
aI00
aI00
aI00
aI00
aI00
aa(lp3245
I22474
aF226.1334782608695
aF357.97
ag3224
aS'nimbussanl'
p3246
aS'#000000'
p3247
aF10.0
aI0
aI00
aI00
aI00
aI00
aI00
aI00
aI00
aI00
aa(lp3248
I166593
aF227.10130434782604
aF357.97
ag3224
aS'nimbussanl'
p3249
aS'#000000'
p3250
aF10.0
aI0
aI00
aI00
aI00
aI00
aI00
aI00
aI00
aI00
aa(lp3251
I111461
aF241.5852173913043
aF357.97
ag3224
aS'nimbussanl'
p3252
aS'#000000'
p3253
aF10.0
aI0
aI00
aI00
aI00
aI00
aI00
aI00
aI00
aI00
aa(lp3254
I16331
aF256.03695652173906
aF357.97
ag3224
aS'nimbussanl'
p3255
aS'#000000'
p3256
aF10.0
aI0
aI00
aI00
aI00
aI00
aI00
aI00
aI00
aI00
aa(lp3257
I49042
aF225.00478260869556
aF357.97
ag3224
aS'nimbussanl'
p3258
aS'#000000'
p3259
aF10.0
aI0
aI00
aI00
aI00
aI00
aI00
aI00
aI00
aI00
aa(lp3260
I138208
aF280.4565217391304
aF357.97
ag3224
aS'nimbussanl'
p3261
aS'#000000'
p3262
aF10.0
aI0
aI00
aI00
aI00
aI00
aI00
aI00
aI00
aI00
aa(lp3263
I119502
aF290.4243478260869
aF357.97
ag3224
aS'nimbussanl'
p3264
aS'#000000'
p3265
aF10.0
aI0
aI00
aI00
aI00
aI00
aI00
aI00
aI00
aI00
aa(lp3266
I234378
aF322.8117391304347
aF357.97
ag3224
aS'nimbussanl'
p3267
aS'#000000'
p3268
aF10.0
aI0
aI00
aI00
aI00
aI00
aI00
aI00
aI00
aI00
aa(lp3269
I175989
aF359.6830434782608
aF357.97
ag3224
aS'nimbussanl'
p3270
aS'#000000'
p3271
aF10.0
aI0
aI00
aI00
aI00
aI00
aI00
aI00
aI00
aI00
aa(lp3272
I49042
aF308.61869565217387
aF357.97
ag3224
aS'nimbussanl'
p3273
aS'#000000'
p3274
aF10.0
aI0
aI00
aI00
aI00
aI00
aI00
aI00
aI00
aI00
aa(lp3275
I209676
aF393.07043478260863
aF357.97
ag3224
aS'nimbussanl'
p3276
aS'#000000'
p3277
aF10.0
aI0
aI00
aI00
aI00
aI00
aI00
aI00
aI00
aI00
aa(lp3278
I111461
aF367.0060869565217
aF357.97
ag3224
aS'nimbussanl'
p3279
aS'#000000'
p3280
aF10.0
aI0
aI00
aI00
aI00
aI00
aI00
aI00
aI00
aI00
aa(lp3281
I190806
aF426.45782608695646
aF357.97
ag3224
aS'nimbussanl'
p3282
aS'#000000'
p3283
aF10.0
aI0
aI00
aI00
aI00
aI00
aI00
aI00
aI00
aI00
aa(lp3284
I100651
aF90.1
aF370.37
aVp4
p3285
aS'nimbussanl'
p3286
aS'#000000'
p3287
aF10.0
aI0
aI00
aI00
aI00
aI00
aI00
aI00
aI00
aI00
aa(lp3288
I49042
aF109.04157303370786
aF370.37
ag3285
aS'nimbussanl'
p3289
aS'#000000'
p3290
aF10.0
aI0
aI00
aI00
aI00
aI00
aI00
aI00
aI00
aI00
aa(lp3291
I203832
aF123.49775280898876
aF370.37
ag3285
aS'nimbussanl'
p3292
aS'#000000'
p3293
aF10.0
aI0
aI00
aI00
aI00
aI00
aI00
aI00
aI00
aI00
aa(lp3294
I234378
aF136.95393258426967
aF370.37
ag3285
aS'nimbussanl'
p3295
aS'#000000'
p3296
aF10.0
aI0
aI00
aI00
aI00
aI00
aI00
aI00
aI00
aI00
aa(lp3297
I194354
aF142.43932584269663
aF370.37
ag3285
aS'nimbussanl'
p3298
aS'#000000'
p3299
aF10.0
aI0
aI01
aI00
aI00
aI00
aI00
aI00
aI00
aI00
aa(lp3300
I119502
aF156.89550561797753
aF370.37
ag3285
aS'nimbussanl'
p3301
aS'#000000'
p3302
aF10.0
aI0
aI00
aI00
aI00
aI00
aI00
aI00
aI00
aI00
aa(lp3303
I22474
aF189.2932584269663
aF370.37
ag3285
aS'nimbussanl'
p3304
aS'#000000'
p3305
aF10.0
aI0
aI00
aI00
aI00
aI00
aI00
aI00
aI00
aI00
aa(lp3306
I234378
aF199.26404494382024
aF370.37
ag3285
aS'nimbussanl'
p3307
aS'#000000'
p3308
aF10.0
aI0
aI00
aI00
aI00
aI00
aI00
aI00
aI00
aI00
aa(lp3309
I192651
aF227.17640449438204
aF370.37
ag3285
aS'nimbussanl'
p3310
aS'#000000'
p3311
aF10.0
aI0
aI00
aI00
aI00
aI00
aI00
aI00
aI00
aI00
aa(lp3312
I234378
aF237.14719101123598
aF370.37
ag3285
aS'nimbussanl'
p3313
aS'#000000'
p3314
aF10.0
aI0
aI01
aI00
aI00
aI00
aI00
aI00
aI00
aI00
aa(lp3315
I234378
aF259.5741573033708
aF370.37
ag3285
aS'nimbussanl'
p3316
aS'#000000'
p3317
aF10.0
aI0
aI00
aI00
aI00
aI00
aI00
aI00
aI00
aI00
aa(lp3318
I218914
aF265.0595505617977
aF370.37
ag3285
aS'nimbussanl'
p3319
aS'#000000'
p3320
aF10.0
aI0
aI00
aI00
aI00
aI00
aI00
aI00
aI00
aI00
aa(lp3321
I22474
aF262.4865168539325
aF370.37
ag3285
aS'nimbussanl'
p3322
aS'#000000'
p3323
aF10.0
aI0
aI00
aI00
aI00
aI00
aI00
aI00
aI00
aI00
aa(lp3324
I223517
aF298.45730337078646
aF370.37
ag3285
aS'nimbussanl'
p3325
aS'#000000'
p3326
aF10.0
aI0
aI00
aI00
aI00
aI00
aI00
aI00
aI00
aI00
aa(lp3327
I16331
aF321.88426966292127
aF370.37
ag3285
aS'nimbussanl'
p3328
aS'#000000'
p3329
aF10.0
aI0
aI00
aI00
aI00
aI00
aI00
aI00
aI00
aI00
aa(lp3330
I194354
aF331.8550561797752
aF370.37
ag3285
aS'nimbussanl'
p3331
aS'#000000'
p3332
aF10.0
aI0
aI00
aI00
aI00
aI00
aI00
aI00
aI00
aI00
aa(lp3333
I214224
aF346.3112359550561
aF370.37
ag3285
aS'nimbussanl'
p3334
aS'#000000'
p3335
aF10.0
aI0
aI00
aI00
aI00
aI00
aI00
aI00
aI00
aI00
aa(lp3336
I234378
aF365.25280898876395
aF370.37
ag3285
aS'nimbussanl'
p3337
aS'#000000'
p3338
aF10.0
aI0
aI00
aI00
aI00
aI00
aI00
aI00
aI00
aI00
aa(lp3339
I230564
aF397.6505617977527
aF370.37
ag3285
aS'nimbussanl'
p3340
aS'#000000'
p3341
aF10.0
aI0
aI00
aI00
aI00
aI00
aI00
aI00
aI00
aI00
aa(lp3342
I192651
aF370.0775280898875
aF370.37
ag3285
aS'nimbussanl'
p3343
aS'#000000'
p3344
aF10.0
aI0
aI00
aI00
aI00
aI00
aI00
aI00
aI00
aI00
aa(lp3345
I234378
aF90.1
aF382.77
aVp4
p3346
aS'nimbussanl'
p3347
aS'#000000'
p3348
aF10.0
aI0
aI00
aI00
aI00
aI00
aI00
aI00
aI00
aI00
aa(lp3349
I234378
aF90.1
aF409.17
aVp4
p3350
aS'nimbussanl'
p3351
aS'#000000'
p3352
aF10.0
aI0
aI01
aI00
aI00
aI00
aI00
aI00
aI00
aI00
aa(lp3353
I234378
aF157.97764705882352
aF409.17
ag3350
aS'nimbussanl'
p3354
aS'#000000'
p3355
aF10.0
aI0
aI00
aI00
aI00
aI00
aI00
aI00
aI00
aI00
aa(lp3356
I16331
aF90.1
aF435.57
aVp4
p3357
aS'nimbussanl'
p3358
aS'#000000'
p3359
aF10.0
aI0
aI01
aI00
aI00
aI00
aI00
aI00
aI00
aI00
aa(lp3360
I166593
aF100.45088888888888
aF435.57
ag3357
aS'nimbussanl'
p3361
aS'#000000'
p3362
aF10.0
aI0
aI00
aI00
aI00
aI00
aI00
aI00
aI00
aI00
aa(lp3363
I100815
aF106.12633333333332
aF435.57
ag3357
aS'nimbussanl'
p3364
aS'#000000'
p3365
aF10.0
aI0
aI01
aI00
aI00
aI00
aI00
aI00
aI00
aI00
aa(lp3366
I105322
aF149.20533333333333
aF435.57
ag3357
aS'nimbussanl'
p3367
aS'#000000'
p3368
aF10.0
aI0
aI00
aI00
aI00
aI00
aI00
aI00
aI00
aI00
aa(lp3369
I135639
aF178.60888888888888
aF435.57
ag3357
aS'nimbussanl'
p3370
aS'#000000'
p3371
aF10.0
aI0
aI00
aI00
aI00
aI00
aI00
aI00
aI00
aI00
aa(lp3372
I144690
aF197.9597777777778
aF435.57
ag3357
aS'nimbussanl'
p3373
aS'#000000'
p3374
aF10.0
aI0
aI00
aI00
aI00
aI00
aI00
aI00
aI00
aI00
aa(lp3375
I85218
aF227.01244444444444
aF435.57
ag3357
aS'nimbussanl'
p3376
aS'#000000'
p3377
aF10.0
aI0
aI00
aI00
aI00
aI00
aI00
aI00
aI00
aI00
aa(lp3378
I83126
aF242.03877777777777
aF435.57
ag3357
aS'nimbussanl'
p3379
aS'#000000'
p3380
aF10.0
aI0
aI00
aI00
aI00
aI00
aI00
aI00
aI00
aI00
aa(lp3381
I144489
aF308.495
aF435.57
ag3357
aS'nimbussanl'
p3382
aS'#000000'
p3383
aF10.0
aI0
aI00
aI00
aI00
aI00
aI00
aI00
aI00
aI00
aa(lp3384
I80286
aF318.8458888888889
aF435.57
ag3357
aS'nimbussanl'
p3385
aS'#000000'
p3386
aF10.0
aI0
aI00
aI00
aI00
aI00
aI00
aI00
aI00
aI00
aa(lp3387
I234378
aF352.574
aF435.57
ag3357
aS'nimbussanl'
p3388
aS'#000000'
p3389
aF10.0
aI0
aI01
aI01
aI00
aI00
aI00
aI00
aI00
aI00
aa(lp3390
I115769
aF362.9248888888889
aF435.57
ag3357
aS'nimbussanl'
p3391
aS'#000000'
p3392
aF10.0
aI0
aI00
aI00
aI00
aI00
aI00
aI00
aI00
aI00
aa(lp3393
I85218
aF363.0038888888889
aF435.57
ag3357
aS'nimbussanl'
p3394
aS'#000000'
p3395
aF10.0
aI0
aI00
aI00
aI00
aI00
aI00
aI00
aI00
aI00
aa(lp3396
I234378
aF421.0302222222223
aF435.57
ag3357
aS'nimbussanl'
p3397
aS'#000000'
p3398
aF10.0
aI0
aI01
aI00
aI00
aI00
aI00
aI00
aI00
aI00
aa(lp3399
I234378
aF445.4074444444445
aF435.57
ag3357
aS'nimbussanl'
p3400
aS'#000000'
p3401
aF10.0
aI0
aI01
aI00
aI00
aI00
aI00
aI00
aI00
aI00
aa(lp3402
I123665
aF90.1
aF447.97
aVp4
p3403
aS'nimbussanl'
p3404
aS'#000000'
p3405
aF10.0
aI0
aI00
aI00
aI00
aI00
aI00
aI00
aI00
aI00
aa(lp3406
I234378
aF90.1
aF474.37
aVp4
p3407
aS'nimbussanl'
p3408
aS'#000000'
p3409
aF10.0
aI0
aI01
aI00
aI00
aI00
aI00
aI00
aI00
aI00
aa(lp3410
I234378
aF147.53384615384616
aF474.37
ag3407
aS'nimbussanl'
p3411
aS'#000000'
p3412
aF10.0
aI0
aI00
aI00
aI00
aI00
aI00
aI00
aI00
aI00
aa(lp3413
I25931
aF90.1
aF500.77
aVp4
p3414
aS'nimbussanl'
p3415
aS'#000000'
p3416
aF10.0
aI0
aI01
aI00
aI00
aI00
aI00
aI00
aI00
aI00
aa(lp3417
I104149
aF119.4744
aF500.77
ag3414
aS'nimbussanl'
p3418
aS'#000000'
p3419
aF10.0
aI0
aI01
aI00
aI00
aI00
aI00
aI00
aI00
aI00
aa(lp3420
I234378
aF138.39066666666668
aF500.77
ag3414
aS'nimbussanl'
p3421
aS'#000000'
p3422
aF10.0
aI0
aI00
aI00
aI00
aI00
aI00
aI00
aI00
aI00
aa(lp3423
I234378
aF144.11973333333333
aF500.77
ag3414
aS'nimbussanl'
p3424
aS'#000000'
p3425
aF10.0
aI0
aI01
aI01
aI01
aI00
aI00
aI00
aI00
aI00
aa(lp3426
I234378
aF164.036
aF500.77
ag3414
aS'nimbussanl'
p3427
aS'#000000'
p3428
aF10.0
aI0
aI01
aI01
aI00
aI00
aI00
aI00
aI00
aI00
aa(lp3429
I234378
aF174.95226666666667
aF500.77
ag3414
aS'nimbussanl'
p3430
aS'#000000'
p3431
aF10.0
aI0
aI00
aI00
aI01
aI01
aI00
aI00
aI00
aI00
aa(lp3432
I234378
aF188.68133333333333
aF500.77
ag3414
aS'nimbussanl'
p3433
aS'#000000'
p3434
aF10.0
aI0
aI00
aI00
aI00
aI00
aI00
aI00
aI00
aI00
aa(lp3435
I234378
aF193.41039999999998
aF500.77
ag3414
aS'nimbussanl'
p3436
aS'#000000'
p3437
aF10.0
aI0
aI00
aI00
aI01
aI01
aI00
aI00
aI00
aI00
aa(lp3438
I234378
aF198.13946666666664
aF500.77
ag3414
aS'nimbussanl'
p3439
aS'#000000'
p3440
aF10.0
aI0
aI00
aI00
aI00
aI00
aI00
aI00
aI00
aI00
aa(lp3441
I234378
aF203.8685333333333
aF500.77
ag3414
aS'nimbussanl'
p3442
aS'#000000'
p3443
aF10.0
aI0
aI01
aI01
aI00
aI00
aI00
aI00
aI00
aI00
aa(lp3444
I234378
aF214.32666666666663
aF500.77
ag3414
aS'nimbussanl'
p3445
aS'#000000'
p3446
aF10.0
aI0
aI01
aI01
aI00
aI00
aI00
aI00
aI00
aI00
aa(lp3447
I234378
aF220.51386666666662
aF500.77
ag3414
aS'nimbussanl'
p3448
aS'#000000'
p3449
aF10.0
aI0
aI00
aI00
aI00
aI00
aI00
aI00
aI00
aI00
aa(lp3450
I234378
aF234.24293333333327
aF500.77
ag3414
aS'nimbussanl'
p3451
aS'#000000'
p3452
aF10.0
aI0
aI01
aI01
aI00
aI00
aI00
aI00
aI00
aI00
aa(lp3453
I234378
aF236.7010666666666
aF500.77
ag3414
aS'nimbussanl'
p3454
aS'#000000'
p3455
aF10.0
aI0
aI01
aI01
aI00
aI00
aI00
aI00
aI00
aI00
aa(lp3456
I234378
aF242.8882666666666
aF500.77
ag3414
aS'nimbussanl'
p3457
aS'#000000'
p3458
aF10.0
aI0
aI00
aI00
aI00
aI00
aI00
aI00
aI00
aI00
aa(lp3459
I208006
aF264.61733333333325
aF500.77
ag3414
aS'nimbussanl'
p3460
aS'#000000'
p3461
aF10.0
aI0
aI01
aI00
aI00
aI00
aI00
aI00
aI00
aI00
aa(lp3462
I123665
aF298.72079999999994
aF500.77
ag3414
aS'nimbussanl'
p3463
aS'#000000'
p3464
aF10.0
aI0
aI00
aI00
aI00
aI00
aI00
aI00
aI00
aI00
aa(lp3465
I68032
aF351.7405333333333
aF500.77
ag3414
aS'nimbussanl'
p3466
aS'#000000'
p3467
aF10.0
aI0
aI00
aI00
aI00
aI00
aI00
aI00
aI00
aI00
aa(lp3468
I96642
aF90.1
aF527.17
aVp4
p3469
aS'nimbussanl'
p3470
aS'#000000'
p3471
aF10.0
aI0
aI01
aI00
aI00
aI00
aI00
aI00
aI00
aI00
aa(lp3472
I104149
aF118.59028571428571
aF527.17
ag3469
aS'nimbussanl'
p3473
aS'#000000'
p3474
aF10.0
aI0
aI01
aI00
aI00
aI00
aI00
aI00
aI00
aI00
aa(lp3475
I234378
aF136.91714285714286
aF527.17
ag3469
aS'nimbussanl'
p3476
aS'#000000'
p3477
aF10.0
aI0
aI00
aI00
aI00
aI00
aI00
aI00
aI00
aI00
aa(lp3478
I234378
aF142.49885714285716
aF527.17
ag3469
aS'nimbussanl'
p3479
aS'#000000'
p3480
aF10.0
aI0
aI01
aI01
aI01
aI00
aI00
aI00
aI00
aI00
aa(lp3481
I234378
aF160.8257142857143
aF527.17
ag3469
aS'nimbussanl'
p3482
aS'#000000'
p3483
aF10.0
aI0
aI00
aI00
aI00
aI00
aI00
aI00
aI00
aI00
aa(lp3484
I148996
aF166.4074285714286
aF527.17
ag3469
aS'nimbussanl'
p3485
aS'#000000'
p3486
aF10.0
aI0
aI01
aI00
aI00
aI00
aI00
aI00
aI00
aI00
aa(lp3487
I176767
aF194.8977142857143
aF527.17
ag3469
aS'nimbussanl'
p3488
aS'#000000'
p3489
aF10.0
aI0
aI00
aI00
aI00
aI00
aI00
aI00
aI00
aI00
aa(lp3490
I234378
aF90.1
aF554.17
aVp4
p3491
aS'nimbussanl'
p3492
aS'#000000'
p3493
aF10.0
aI0
aI01
aI00
aI00
aI00
aI00
aI00
aI00
aI00
aa(lp3494
I234378
aF131.5633043478261
aF554.17
ag3491
aS'nimbussanl'
p3495
aS'#000000'
p3496
aF10.0
aI0
aI00
aI00
aI00
aI00
aI00
aI00
aI00
aI00
aa(lp3497
I234378
aF137.74621739130436
aF554.17
ag3491
aS'nimbussanl'
p3498
aS'#000000'
p3499
aF10.0
aI0
aI01
aI01
aI00
aI00
aI00
aI00
aI00
aI00
aa(lp3500
I234378
aF149.1120434782609
aF554.17
ag3491
aS'nimbussanl'
p3501
aS'#000000'
p3502
aF10.0
aI0
aI01
aI01
aI00
aI00
aI00
aI00
aI00
aI00
aa(lp3503
I96642
aF165.66078260869565
aF554.17
ag3491
aS'nimbussanl'
p3504
aS'#000000'
p3505
aF10.0
aI0
aI01
aI00
aI00
aI00
aI00
aI00
aI00
aI00
aa(lp3506
I120031
aF90.1
aF580.87
aVp4
p3507
aS'nimbussanl'
p3508
aS'#000000'
p3509
aF10.0
aI0
aI01
aI00
aI00
aI00
aI00
aI00
aI00
aI00
aa(lp3510
I234378
aF126.79904761904761
aF580.87
ag3507
aS'nimbussanl'
p3511
aS'#000000'
p3512
aF10.0
aI0
aI00
aI00
aI00
aI00
aI00
aI00
aI00
aI00
aa(lp3513
I234378
aF132.38642857142855
aF580.87
ag3507
aS'nimbussanl'
p3514
aS'#000000'
p3515
aF10.0
aI0
aI00
aI00
aI01
aI01
aI01
aI00
aI00
aI00
aa(lp3516
I234378
aF142.56119047619046
aF580.87
ag3507
aS'nimbussanl'
p3517
aS'#000000'
p3518
aF10.0
aI0
aI01
aI00
aI00
aI00
aI00
aI00
aI00
aI00
aa(lp3519
I234378
aF171.0854761904762
aF580.87
ag3507
aS'nimbussanl'
p3520
aS'#000000'
p3521
aF10.0
aI0
aI00
aI00
aI00
aI00
aI00
aI00
aI00
aI00
aa(lp3522
I234378
aF175.67285714285714
aF580.87
ag3507
aS'nimbussanl'
p3523
aS'#000000'
p3524
aF10.0
aI0
aI00
aI00
aI00
aI00
aI00
aI00
aI00
aI01
aa(lp3525
I234378
aF190.435
aF580.87
ag3507
aS'nimbussanl'
p3526
aS'#000000'
p3527
aF10.0
aI0
aI00
aI00
aI01
aI01
aI01
aI00
aI00
aI00
aa(lp3528
I89480
aF209.78452380952382
aF580.87
ag3507
aS'nimbussanl'
p3529
aS'#000000'
p3530
aF10.0
aI0
aI00
aI00
aI00
aI00
aI00
aI00
aI00
aI00
aa(lp3531
I234378
aF219.95928571428573
aF580.87
ag3507
aS'nimbussanl'
p3532
aS'#000000'
p3533
aF10.0
aI0
aI00
aI00
aI00
aI00
aI00
aI00
aI00
aI01
aa(lp3534
I234378
aF234.7214285714286
aF580.87
ag3507
aS'nimbussanl'
p3535
aS'#000000'
p3536
aF10.0
aI0
aI00
aI00
aI01
aI01
aI01
aI00
aI00
aI00
aa(lp3537
I234378
aF253.0709523809524
aF580.87
ag3507
aS'nimbussanl'
p3538
aS'#000000'
p3539
aF10.0
aI0
aI00
aI00
aI00
aI00
aI00
aI00
aI00
aI00
aa(lp3540
I210461
aF90.1
aF607.264
aVp4
p3541
aS'dejavusans'
p3542
aS'#000000'
p3543
aF12.0
aI0
aI01
aI00
aI00
aI00
aI00
aI00
aI00
aI00
aa(lp3544
I340
aF125.656
aF607.264
aVp4
p3545
aS'dejavusans'
p3546
aS'#000000'
p3547
aF12.0
aI0
aI01
aI00
aI00
aI00
aI00
aI00
aI00
aI00
aa(lp3548
I234378
aF148.54240000000001
aF607.264
ag3545
aS'dejavusans'
p3549
aS'#000000'
p3550
aF12.0
aI0
aI00
aI00
aI00
aI00
aI00
aI00
aI00
aI00
aa(lp3551
I234378
aF158.116
aF607.264
aVp4
p3552
aS'dejavusans'
p3553
aS'#000000'
p3554
aF12.0
aI0
aI00
aI00
aI01
aI01
aI01
aI00
aI00
aI00
aa(lp3555
I177958
aF90.1
aF662.11
aVp4
p3556
aS'nimbussanl'
p3557
aS'#000000'
p3558
aF10.0
aI1
aI01
aI00
aI00
aI00
aI00
aI00
aI00
aI00
aa(lp3559
I234378
aF124.54599999999999
aF662.11
ag3556
aS'nimbussanl'
p3560
aS'#000000'
p3561
aF10.0
aI1
aI00
aI00
aI01
aI01
aI00
aI00
aI00
aI00
aa(lp3562
I234378
aF129.32399999999998
aF662.11
ag3556
aS'nimbussanl'
p3563
aS'#000000'
p3564
aF10.0
aI1
aI00
aI00
aI00
aI00
aI00
aI00
aI00
aI00
aa(lp3565
I234378
aF90.1
aF688.97
aVp4
p3566
aS'nimbussanl'
p3567
aS'#000000'
p3568
aF10.0
aI0
aI01
aI01
aI00
aI00
aI00
aI00
aI00
aI00
aa(lp3569
I83353
aF113.405
aF688.97
ag3566
aS'nimbussanl'
p3570
aS'#000000'
p3571
aF10.0
aI0
aI01
aI00
aI00
aI00
aI00
aI00
aI00
aI00
aa(lp3572
I89958
aF141.171
aF688.97
ag3566
aS'nimbussanl'
p3573
aS'#000000'
p3574
aF10.0
aI0
aI01
aI00
aI00
aI00
aI00
aI00
aI00
aI00
aa(lp3575
I234378
aF173.398
aF688.97
ag3566
aS'nimbussanl'
p3576
aS'#000000'
p3577
aF10.0
aI0
aI00
aI00
aI00
aI00
aI00
aI00
aI00
aI00
aa(lp3578
I234378
aF177.859
aF688.97
ag3566
aS'nimbussanl'
p3579
aS'#000000'
p3580
aF10.0
aI0
aI00
aI00
aI00
aI00
aI00
aI00
aI00
aI00
aa(lp3581
I234378
aF209.086
aF688.97
ag3566
aS'nimbussanl'
p3582
aS'#000000'
p3583
aF10.0
aI0
aI00
aI00
aI00
aI00
aI00
aI00
aI00
aI00
aa(lp3584
I234378
aF90.1
aF715.97
aVp4
p3585
aS'nimbussanl'
p3586
aS'#000000'
p3587
aF10.0
aI0
aI00
aI00
aI00
aI00
aI00
aI00
aI00
aI00
aa(lp3588
I234378
aF122.453
aF715.97
ag3585
aS'nimbussanl'
p3589
aS'#000000'
p3590
aF10.0
aI0
aI00
aI00
aI00
aI00
aI00
aI00
aI00
aI00
aa(lp3591
I104512
aF154.806
aF715.97
ag3585
aS'nimbussanl'
p3592
aS'#000000'
p3593
aF10.0
aI0
aI00
aI00
aI00
aI00
aI00
aI00
aI00
aI00
aa(lp3594
I234378
aF169.24300000000002
aF715.97
ag3585
aS'nimbussanl'
p3595
aS'#000000'
p3596
aF10.0
aI0
aI00
aI00
aI00
aI00
aI00
aI00
aI00
aI00
aa(lp3597
I89480
aF192.63800000000003
aF715.97
ag3585
aS'nimbussanl'
p3598
aS'#000000'
p3599
aF10.0
aI0
aI00
aI00
aI00
aI00
aI00
aI00
aI00
aI00
aa(lp3600
I229868
aF202.59600000000003
aF715.97
ag3585
aS'nimbussanl'
p3601
aS'#000000'
p3602
aF10.0
aI0
aI00
aI00
aI00
aI00
aI00
aI00
aI00
aI00
aa(lp3603
I41890
aF212.55400000000003
aF715.97
ag3585
aS'nimbussanl'
p3604
aS'#000000'
p3605
aF10.0
aI0
aI00
aI00
aI00
aI00
aI00
aI00
aI00
aI00
aa(lp3606
I89958
aF226.99100000000004
aF715.97
ag3585
aS'nimbussanl'
p3607
aS'#000000'
p3608
aF10.0
aI0
aI00
aI00
aI00
aI00
aI00
aI00
aI00
aI00
aa(lp3609
I21605
aF259.34400000000005
aF715.97
ag3585
aS'nimbussanl'
p3610
aS'#000000'
p3611
aF10.0
aI0
aI00
aI00
aI00
aI00
aI00
aI00
aI00
aI00
aa(lp3612
I234378
aF309.61300000000006
aF715.97
ag3585
aS'nimbussanl'
p3613
aS'#000000'
p3614
aF10.0
aI0
aI00
aI00
aI00
aI00
aI00
aI00
aI00
aI00
aa(lp3615
I194354
aF333.00800000000004
aF715.97
ag3585
aS'nimbussanl'
p3616
aS'#000000'
p3617
aF10.0
aI0
aI00
aI00
aI00
aI00
aI00
aI00
aI00
aI00
aa(lp3618
I234378
aF281.44500000000005
aF715.97
ag3585
aS'nimbussanl'
p3619
aS'#000000'
p3620
aF10.0
aI0
aI00
aI00
aI00
aI00
aI00
aI00
aI00
aI00
aa(lp3621
I144483
aF358.79800000000006
aF715.97
ag3585
aS'nimbussanl'
p3622
aS'#000000'
p3623
aF10.0
aI0
aI00
aI00
aI00
aI00
aI00
aI00
aI00
aI00
aa(lp3624
I218852
aF389.7560000000001
aF715.97
ag3585
aS'nimbussanl'
p3625
aS'#000000'
p3626
aF10.0
aI0
aI00
aI00
aI00
aI00
aI00
aI00
aI00
aI00
aa(lp3627
I108443
aF413.15100000000007
aF715.97
ag3585
aS'nimbussanl'
p3628
aS'#000000'
p3629
aF10.0
aI0
aI00
aI00
aI00
aI00
aI00
aI00
aI00
aI00
aa(lp3630
I54779
aF441.0250000000001
aF715.97
ag3585
aS'nimbussanl'
p3631
aS'#000000'
p3632
aF10.0
aI0
aI00
aI00
aI00
aI00
aI00
aI00
aI00
aI00
aa(lp3633
I234378
aF463.4200000000001
aF715.97
ag3585
aS'nimbussanl'
p3634
aS'#000000'
p3635
aF10.0
aI0
aI00
aI00
aI00
aI00
aI00
aI00
aI00
aI00
aa(lp3636
I234378
aF90.1
aF27.07
aVp5
p3637
aS'nimbussanl'
p3638
aS'#000000'
p3639
aF10.0
aI0
aI01
aI00
aI00
aI00
aI00
aI00
aI00
aI00
aa(lp3640
I234378
aF157.97764705882352
aF27.07
ag3637
aS'nimbussanl'
p3641
aS'#000000'
p3642
aF10.0
aI0
aI00
aI00
aI00
aI00
aI00
aI00
aI00
aI00
aa(lp3643
I90127
aF90.1
aF53.47
aVp5
p3644
aS'nimbussanl'
p3645
aS'#000000'
p3646
aF10.0
aI0
aI01
aI00
aI00
aI00
aI00
aI00
aI00
aI00
aa(lp3647
I190806
aF144.770375
aF53.47
ag3644
aS'nimbussanl'
p3648
aS'#000000'
p3649
aF10.0
aI0
aI00
aI00
aI00
aI00
aI00
aI00
aI00
aI00
aa(lp3650
I234378
aF160.40775
aF53.47
ag3644
aS'nimbussanl'
p3651
aS'#000000'
p3652
aF10.0
aI0
aI01
aI00
aI00
aI00
aI00
aI00
aI00
aI00
aa(lp3653
I104617
aF205.319875
aF53.47
ag3644
aS'nimbussanl'
p3654
aS'#000000'
p3655
aF10.0
aI0
aI00
aI00
aI00
aI00
aI00
aI00
aI00
aI00
aa(lp3656
I63022
aF230.7155
aF53.47
ag3644
aS'nimbussanl'
p3657
aS'#000000'
p3658
aF10.0
aI0
aI00
aI00
aI00
aI00
aI00
aI00
aI00
aI00
aa(lp3659
I234378
aF265.869375
aF53.47
ag3644
aS'nimbussanl'
p3660
aS'#000000'
p3661
aF10.0
aI0
aI00
aI00
aI00
aI00
aI00
aI00
aI00
aI00
aa(lp3662
I144489
aF305.902375
aF53.47
ag3644
aS'nimbussanl'
p3663
aS'#000000'
p3664
aF10.0
aI0
aI00
aI00
aI00
aI00
aI00
aI00
aI00
aI00
aa(lp3665
I80364
aF316.660625
aF53.47
ag3644
aS'nimbussanl'
p3666
aS'#000000'
p3667
aF10.0
aI0
aI00
aI00
aI00
aI00
aI00
aI00
aI00
aI00
aa(lp3668
I19160
aF332.298
aF53.47
ag3644
aS'nimbussanl'
p3669
aS'#000000'
p3670
aF10.0
aI0
aI00
aI00
aI00
aI00
aI00
aI00
aI00
aI00
aa(lp3671
I234378
aF362.57275
aF53.47
ag3644
aS'nimbussanl'
p3672
aS'#000000'
p3673
aF10.0
aI0
aI00
aI00
aI00
aI00
aI00
aI00
aI00
aI00
aa(lp3674
I234378
aF401.60575
aF53.47
ag3644
aS'nimbussanl'
p3675
aS'#000000'
p3676
aF10.0
aI0
aI00
aI00
aI00
aI00
aI00
aI00
aI00
aI00
aa(lp3677
I234378
aF407.484875
aF53.47
ag3644
aS'nimbussanl'
p3678
aS'#000000'
p3679
aF10.0
aI0
aI01
aI00
aI00
aI00
aI00
aI00
aI00
aI00
aa(lp3680
I234378
aF428.75962499999997
aF53.47
ag3644
aS'nimbussanl'
p3681
aS'#000000'
p3682
aF10.0
aI0
aI00
aI00
aI00
aI00
aI00
aI00
aI00
aI00
aa(lp3683
I141687
aF90.1
aF65.87
aVp5
p3684
aS'nimbussanl'
p3685
aS'#000000'
p3686
aF10.0
aI0
aI00
aI00
aI00
aI00
aI00
aI00
aI00
aI00
aa(lp3687
I147316
aF140.13243243243244
aF65.87
ag3684
aS'nimbussanl'
p3688
aS'#000000'
p3689
aF10.0
aI0
aI00
aI00
aI00
aI00
aI00
aI00
aI00
aI00
aa(lp3690
I89480
aF171.06216216216217
aF65.87
ag3684
aS'nimbussanl'
p3691
aS'#000000'
p3692
aF10.0
aI0
aI00
aI00
aI00
aI00
aI00
aI00
aI00
aI00
aa(lp3693
I136483
aF180.6135135135135
aF65.87
ag3684
aS'nimbussanl'
p3694
aS'#000000'
p3695
aF10.0
aI0
aI00
aI00
aI00
aI00
aI00
aI00
aI00
aI00
aa(lp3696
I207716
aF198.7162162162162
aF65.87
ag3684
aS'nimbussanl'
p3697
aS'#000000'
p3698
aF10.0
aI0
aI00
aI00
aI00
aI00
aI00
aI00
aI00
aI00
aa(lp3699
I234378
aF224.37027027027025
aF65.87
ag3684
aS'nimbussanl'
p3700
aS'#000000'
p3701
aF10.0
aI0
aI00
aI00
aI00
aI00
aI00
aI00
aI00
aI00
aa(lp3702
I234378
aF90.1
aF92.27
aVp5
p3703
aS'nimbussanl'
p3704
aS'#000000'
p3705
aF10.0
aI0
aI01
aI00
aI00
aI00
aI00
aI00
aI00
aI00
aa(lp3706
I234378
aF147.53384615384616
aF92.27
ag3703
aS'nimbussanl'
p3707
aS'#000000'
p3708
aF10.0
aI0
aI00
aI00
aI00
aI00
aI00
aI00
aI00
aI00
aa(lp3709
I25931
aF90.1
aF118.67
aVp5
p3710
aS'nimbussanl'
p3711
aS'#000000'
p3712
aF10.0
aI0
aI01
aI00
aI00
aI00
aI00
aI00
aI00
aI00
aa(lp3713
I104149
aF118.65912087912088
aF118.67
ag3710
aS'nimbussanl'
p3714
aS'#000000'
p3715
aF10.0
aI0
aI01
aI00
aI00
aI00
aI00
aI00
aI00
aI00
aa(lp3716
I234378
aF137.03186813186812
aF118.67
ag3710
aS'nimbussanl'
p3717
aS'#000000'
p3718
aF10.0
aI0
aI00
aI00
aI00
aI00
aI00
aI00
aI00
aI00
aa(lp3719
I234378
aF142.62505494505493
aF118.67
ag3710
aS'nimbussanl'
p3720
aS'#000000'
p3721
aF10.0
aI0
aI01
aI01
aI01
aI00
aI00
aI00
aI00
aI00
aa(lp3722
I234378
aF161.99780219780217
aF118.67
ag3710
aS'nimbussanl'
p3723
aS'#000000'
p3724
aF10.0
aI0
aI01
aI01
aI00
aI00
aI00
aI00
aI00
aI00
aa(lp3725
I234378
aF172.37054945054942
aF118.67
ag3710
aS'nimbussanl'
p3726
aS'#000000'
p3727
aF10.0
aI0
aI00
aI00
aI01
aI01
aI00
aI00
aI00
aI00
aa(lp3728
I234378
aF185.96373626373622
aF118.67
ag3710
aS'nimbussanl'
p3729
aS'#000000'
p3730
aF10.0
aI0
aI00
aI00
aI00
aI00
aI00
aI00
aI00
aI00
aa(lp3731
I234378
aF190.55692307692303
aF118.67
ag3710
aS'nimbussanl'
p3732
aS'#000000'
p3733
aF10.0
aI0
aI00
aI00
aI01
aI01
aI00
aI00
aI00
aI00
aa(lp3734
I234378
aF195.15010989010983
aF118.67
ag3710
aS'nimbussanl'
p3735
aS'#000000'
p3736
aF10.0
aI0
aI00
aI00
aI00
aI00
aI00
aI00
aI00
aI00
aa(lp3737
I234378
aF200.74329670329664
aF118.67
ag3710
aS'nimbussanl'
p3738
aS'#000000'
p3739
aF10.0
aI0
aI01
aI01
aI00
aI00
aI00
aI00
aI00
aI00
aa(lp3740
I234378
aF210.92967032967027
aF118.67
ag3710
aS'nimbussanl'
p3741
aS'#000000'
p3742
aF10.0
aI0
aI01
aI01
aI00
aI00
aI00
aI00
aI00
aI00
aa(lp3743
I234378
aF216.70923076923071
aF118.67
ag3710
aS'nimbussanl'
p3744
aS'#000000'
p3745
aF10.0
aI0
aI00
aI00
aI00
aI00
aI00
aI00
aI00
aI00
aa(lp3746
I234378
aF230.30241758241752
aF118.67
ag3710
aS'nimbussanl'
p3747
aS'#000000'
p3748
aF10.0
aI0
aI01
aI01
aI00
aI00
aI00
aI00
aI00
aI00
aa(lp3749
I234378
aF232.48879120879116
aF118.67
ag3710
aS'nimbussanl'
p3750
aS'#000000'
p3751
aF10.0
aI0
aI01
aI01
aI00
aI00
aI00
aI00
aI00
aI00
aa(lp3752
I234378
aF238.2683516483516
aF118.67
ag3710
aS'nimbussanl'
p3753
aS'#000000'
p3754
aF10.0
aI0
aI00
aI00
aI00
aI00
aI00
aI00
aI00
aI00
aa(lp3755
I180850
aF259.86153846153843
aF118.67
ag3710
aS'nimbussanl'
p3756
aS'#000000'
p3757
aF10.0
aI0
aI01
aI00
aI00
aI00
aI00
aI00
aI00
aI00
aa(lp3758
I234378
aF306.79340659340653
aF118.67
ag3710
aS'nimbussanl'
p3759
aS'#000000'
p3760
aF10.0
aI0
aI00
aI00
aI00
aI00
aI00
aI00
aI00
aI00
aa(lp3761
I234378
aF353.72527472527463
aF118.67
ag3710
aS'nimbussanl'
p3762
aS'#000000'
p3763
aF10.0
aI0
aI00
aI00
aI00
aI00
aI00
aI00
aI00
aI00
aa(lp3764
I89480
aF368.5048351648351
aF118.67
ag3710
aS'nimbussanl'
p3765
aS'#000000'
p3766
aF10.0
aI0
aI00
aI00
aI00
aI00
aI00
aI00
aI00
aI00
aa(lp3767
I147316
aF378.6912087912087
aF118.67
ag3710
aS'nimbussanl'
p3768
aS'#000000'
p3769
aF10.0
aI0
aI00
aI00
aI00
aI00
aI00
aI00
aI00
aI00
aa(lp3770
I180850
aF411.8435164835164
aF118.67
ag3710
aS'nimbussanl'
p3771
aS'#000000'
p3772
aF10.0
aI0
aI00
aI00
aI00
aI00
aI00
aI00
aI00
aI00
aa(lp3773
I234378
aF90.1
aF131.07
aVp5
p3774
aS'nimbussanl'
p3775
aS'#000000'
p3776
aF10.0
aI0
aI00
aI00
aI00
aI00
aI00
aI00
aI00
aI00
aa(lp3777
I96642
aF90.1
aF157.47
aVp5
p3778
aS'nimbussanl'
p3779
aS'#000000'
p3780
aF10.0
aI0
aI01
aI00
aI00
aI00
aI00
aI00
aI00
aI00
aa(lp3781
I104149
aF119.072
aF157.47
ag3778
aS'nimbussanl'
p3782
aS'#000000'
p3783
aF10.0
aI0
aI01
aI00
aI00
aI00
aI00
aI00
aI00
aI00
aa(lp3784
I234378
aF137.72
aF157.47
ag3778
aS'nimbussanl'
p3785
aS'#000000'
p3786
aF10.0
aI0
aI00
aI00
aI00
aI00
aI00
aI00
aI00
aI00
aa(lp3787
I234378
aF143.382
aF157.47
ag3778
aS'nimbussanl'
p3788
aS'#000000'
p3789
aF10.0
aI0
aI01
aI01
aI01
aI00
aI00
aI00
aI00
aI00
aa(lp3790
I234378
aF162.03
aF157.47
ag3778
aS'nimbussanl'
p3791
aS'#000000'
p3792
aF10.0
aI0
aI00
aI00
aI00
aI00
aI00
aI00
aI00
aI00
aa(lp3793
I148996
aF167.692
aF157.47
ag3778
aS'nimbussanl'
p3794
aS'#000000'
p3795
aF10.0
aI0
aI01
aI00
aI00
aI00
aI00
aI00
aI00
aI00
aa(lp3796
I176767
aF196.66400000000002
aF157.47
ag3778
aS'nimbussanl'
p3797
aS'#000000'
p3798
aF10.0
aI0
aI00
aI00
aI00
aI00
aI00
aI00
aI00
aI00
aa(lp3799
I234378
aF90.1
aF184.47
aVp5
p3800
aS'nimbussanl'
p3801
aS'#000000'
p3802
aF10.0
aI0
aI01
aI00
aI00
aI00
aI00
aI00
aI00
aI00
aa(lp3803
I234378
aF131.5633043478261
aF184.47
ag3800
aS'nimbussanl'
p3804
aS'#000000'
p3805
aF10.0
aI0
aI00
aI00
aI00
aI00
aI00
aI00
aI00
aI00
aa(lp3806
I234378
aF137.74621739130436
aF184.47
ag3800
aS'nimbussanl'
p3807
aS'#000000'
p3808
aF10.0
aI0
aI01
aI01
aI00
aI00
aI00
aI00
aI00
aI00
aa(lp3809
I234378
aF149.1120434782609
aF184.47
ag3800
aS'nimbussanl'
p3810
aS'#000000'
p3811
aF10.0
aI0
aI01
aI01
aI00
aI00
aI00
aI00
aI00
aI00
aa(lp3812
I96642
aF165.66078260869565
aF184.47
ag3800
aS'nimbussanl'
p3813
aS'#000000'
p3814
aF10.0
aI0
aI01
aI00
aI00
aI00
aI00
aI00
aI00
aI00
aa(lp3815
I120031
aF90.1
aF211.07
aVp5
p3816
aS'nimbussanl'
p3817
aS'#000000'
p3818
aF10.0
aI0
aI01
aI00
aI00
aI00
aI00
aI00
aI00
aI00
aa(lp3819
I234378
aF127.58292682926829
aF211.07
ag3816
aS'nimbussanl'
p3820
aS'#000000'
p3821
aF10.0
aI0
aI00
aI00
aI00
aI00
aI00
aI00
aI00
aI00
aa(lp3822
I234378
aF133.2682926829268
aF211.07
ag3816
aS'nimbussanl'
p3823
aS'#000000'
p3824
aF10.0
aI0
aI00
aI00
aI01
aI01
aI00
aI00
aI00
aI00
aa(lp3825
I234378
aF138.95365853658535
aF211.07
ag3816
aS'nimbussanl'
p3826
aS'#000000'
p3827
aF10.0
aI0
aI01
aI00
aI00
aI00
aI00
aI00
aI00
aI00
aa(lp3828
I234378
aF168.06585365853658
aF211.07
ag3816
aS'nimbussanl'
p3829
aS'#000000'
p3830
aF10.0
aI0
aI00
aI00
aI00
aI00
aI00
aI00
aI00
aI00
aa(lp3831
I234378
aF172.75121951219512
aF211.07
ag3816
aS'nimbussanl'
p3832
aS'#000000'
p3833
aF10.0
aI0
aI01
aI00
aI00
aI00
aI00
aI00
aI00
aI01
aa(lp3834
I234378
aF187.80731707317074
aF211.07
ag3816
aS'nimbussanl'
p3835
aS'#000000'
p3836
aF10.0
aI0
aI00
aI00
aI01
aI01
aI01
aI00
aI00
aI00
aa(lp3837
I89480
aF207.5487804878049
aF211.07
ag3816
aS'nimbussanl'
p3838
aS'#000000'
p3839
aF10.0
aI0
aI00
aI00
aI00
aI00
aI00
aI00
aI00
aI00
aa(lp3840
I37515
aF217.91951219512197
aF211.07
ag3816
aS'nimbussanl'
p3841
aS'#000000'
p3842
aF10.0
aI0
aI01
aI00
aI00
aI00
aI00
aI00
aI00
aI01
aa(lp3843
I234378
aF232.97560975609758
aF211.07
ag3816
aS'nimbussanl'
p3844
aS'#000000'
p3845
aF10.0
aI0
aI00
aI00
aI01
aI01
aI01
aI00
aI00
aI00
aa(lp3846
I234378
aF251.71707317073174
aF211.07
ag3816
aS'nimbussanl'
p3847
aS'#000000'
p3848
aF10.0
aI0
aI00
aI00
aI00
aI00
aI00
aI00
aI00
aI00
aa(lp3849
I210461
aF90.1
aF237.464
aVp5
p3850
aS'dejavusans'
p3851
aS'#000000'
p3852
aF12.0
aI0
aI01
aI00
aI00
aI00
aI00
aI00
aI00
aI00
aa(lp3853
I340
aF125.656
aF237.464
aVp5
p3854
aS'dejavusans'
p3855
aS'#000000'
p3856
aF12.0
aI0
aI01
aI00
aI00
aI00
aI00
aI00
aI00
aI00
aa(lp3857
I234378
aF148.54240000000001
aF237.464
ag3854
aS'dejavusans'
p3858
aS'#000000'
p3859
aF12.0
aI0
aI00
aI00
aI00
aI00
aI00
aI00
aI00
aI00
aa(lp3860
I234378
aF158.116
aF237.464
aVp5
p3861
aS'dejavusans'
p3862
aS'#000000'
p3863
aF12.0
aI0
aI00
aI00
aI01
aI01
aI00
aI00
aI00
aI00
aa(lp3864
I177958
aF90.1
aF265.51
aVp5
p3865
aS'nimbussanl'
p3866
aS'#000000'
p3867
aF10.0
aI1
aI01
aI00
aI00
aI00
aI00
aI00
aI00
aI00
aa(lp3868
I234378
aF124.54599999999999
aF265.51
ag3865
aS'nimbussanl'
p3869
aS'#000000'
p3870
aF10.0
aI1
aI00
aI00
aI01
aI01
aI00
aI00
aI00
aI00
aa(lp3871
I234378
aF129.32399999999998
aF265.51
ag3865
aS'nimbussanl'
p3872
aS'#000000'
p3873
aF10.0
aI1
aI00
aI00
aI00
aI00
aI00
aI00
aI00
aI00
aa(lp3874
I234378
aF90.1
aF292.37
aVp5
p3875
aS'nimbussanl'
p3876
aS'#000000'
p3877
aF10.0
aI0
aI01
aI00
aI00
aI00
aI00
aI00
aI00
aI00
aa(lp3878
I234378
aF123.20315789473683
aF292.37
ag3875
aS'nimbussanl'
p3879
aS'#000000'
p3880
aF10.0
aI0
aI01
aI00
aI00
aI00
aI00
aI00
aI00
aI00
aa(lp3881
I234378
aF167.0073684210526
aF292.37
ag3875
aS'nimbussanl'
p3882
aS'#000000'
p3883
aF10.0
aI0
aI00
aI00
aI01
aI01
aI01
aI00
aI00
aI00
aa(lp3884
I234378
aF90.1
aF319.37
aVp5
p3885
aS'nimbussanl'
p3886
aS'#000000'
p3887
aF10.0
aI0
aI01
aI00
aI00
aI00
aI00
aI00
aI00
aI00
aa(lp3888
I234378
aF127.97026086956521
aF319.37
ag3885
aS'nimbussanl'
p3889
aS'#000000'
p3890
aF10.0
aI0
aI00
aI00
aI01
aI01
aI01
aI00
aI00
aI00
aa(lp3891
I234378
aF142.79660869565217
aF319.37
ag3885
aS'nimbussanl'
p3892
aS'#000000'
p3893
aF10.0
aI0
aI00
aI00
aI00
aI00
aI00
aI00
aI00
aI00
aa(lp3894
I104512
aF176.05808695652172
aF319.37
ag3885
aS'nimbussanl'
p3895
aS'#000000'
p3896
aF10.0
aI0
aI00
aI00
aI00
aI00
aI00
aI00
aI00
aI00
aa(lp3897
I234378
aF190.88443478260868
aF319.37
ag3885
aS'nimbussanl'
p3898
aS'#000000'
p3899
aF10.0
aI0
aI00
aI00
aI00
aI00
aI00
aI00
aI00
aI00
aa(lp3900
I89480
aF214.92834782608693
aF319.37
ag3885
aS'nimbussanl'
p3901
aS'#000000'
p3902
aF10.0
aI0
aI00
aI00
aI00
aI00
aI00
aI00
aI00
aI00
aa(lp3903
I229868
aF225.14591304347823
aF319.37
ag3885
aS'nimbussanl'
p3904
aS'#000000'
p3905
aF10.0
aI0
aI00
aI00
aI00
aI00
aI00
aI00
aI00
aI00
aa(lp3906
I41890
aF235.36347826086953
aF319.37
ag3885
aS'nimbussanl'
p3907
aS'#000000'
p3908
aF10.0
aI0
aI00
aI00
aI00
aI00
aI00
aI00
aI00
aI00
aa(lp3909
I89958
aF210.1898260869565
aF319.37
ag3885
aS'nimbussanl'
p3910
aS'#000000'
p3911
aF10.0
aI0
aI00
aI00
aI00
aI00
aI00
aI00
aI00
aI00
aa(lp3912
I21605
aF283.45130434782607
aF319.37
ag3885
aS'nimbussanl'
p3913
aS'#000000'
p3914
aF10.0
aI0
aI00
aI00
aI00
aI00
aI00
aI00
aI00
aI00
aa(lp3915
I234378
aF335.14791304347824
aF319.37
ag3885
aS'nimbussanl'
p3916
aS'#000000'
p3917
aF10.0
aI0
aI00
aI00
aI00
aI00
aI00
aI00
aI00
aI00
aa(lp3918
I194354
aF359.1918260869565
aF319.37
ag3885
aS'nimbussanl'
p3919
aS'#000000'
p3920
aF10.0
aI0
aI00
aI00
aI00
aI00
aI00
aI00
aI00
aI00
aa(lp3921
I234378
aF303.0181739130434
aF319.37
ag3885
aS'nimbussanl'
p3922
aS'#000000'
p3923
aF10.0
aI0
aI01
aI00
aI00
aI00
aI00
aI00
aI00
aI00
aa(lp3924
I234378
aF340.88843478260867
aF319.37
ag3885
aS'nimbussanl'
p3925
aS'#000000'
p3926
aF10.0
aI0
aI00
aI00
aI01
aI01
aI01
aI00
aI00
aI00
aa(lp3927
I144483
aF400.7147826086956
aF319.37
ag3885
aS'nimbussanl'
p3928
aS'#000000'
p3929
aF10.0
aI0
aI00
aI00
aI00
aI00
aI00
aI00
aI00
aI00
aa(lp3930
I218852
aF436.9323478260869
aF319.37
ag3885
aS'nimbussanl'
p3931
aS'#000000'
p3932
aF10.0
aI0
aI00
aI00
aI00
aI00
aI00
aI00
aI00
aI00
aa(lp3933
I108443
aF90.1
aF331.936
aVp5
p3934
aS'nimbusromno9l'
p3935
aS'#000000'
p3936
aF11.0
aI0
aI00
aI00
aI00
aI00
aI00
aI00
aI00
aI00
aa(lp3937
I54779
aF120.12476923076923
aF331.936
ag3934
aS'nimbusromno9l'
p3938
aS'#000000'
p3939
aF11.0
aI0
aI00
aI00
aI00
aI00
aI00
aI00
aI00
aI00
aa(lp3940
I234378
aF144.31207692307692
aF331.936
ag3934
aS'nimbusromno9l'
p3941
aS'#000000'
p3942
aF11.0
aI0
aI00
aI00
aI00
aI00
aI00
aI00
aI00
aI00
aa(lp3943
I234378
aF90.1
aF359.27
aVp5
p3944
aS'nimbussanl'
p3945
aS'#000000'
p3946
aF10.0
aI0
aI01
aI00
aI00
aI00
aI00
aI00
aI00
aI00
aa(lp3947
I234378
aF163.23882352941175
aF359.27
ag3944
aS'nimbussanl'
p3948
aS'#000000'
p3949
aF10.0
aI0
aI00
aI00
aI00
aI00
aI00
aI00
aI00
aI00
aa(lp3950
I90127
aF90.1
aF385.67
aVp5
p3951
aS'nimbussanl'
p3952
aS'#000000'
p3953
aF10.0
aI0
aI01
aI00
aI00
aI00
aI00
aI00
aI00
aI00
aa(lp3954
I190806
aF143.1144705882353
aF385.67
ag3951
aS'nimbussanl'
p3955
aS'#000000'
p3956
aF10.0
aI0
aI00
aI00
aI00
aI00
aI00
aI00
aI00
aI00
aa(lp3957
I144690
aF158.30023529411764
aF385.67
ag3951
aS'nimbussanl'
p3958
aS'#000000'
p3959
aF10.0
aI0
aI00
aI00
aI00
aI00
aI00
aI00
aI00
aI00
aa(lp3960
I234378
aF186.67176470588234
aF385.67
ag3951
aS'nimbussanl'
p3961
aS'#000000'
p3962
aF10.0
aI0
aI00
aI00
aI00
aI00
aI00
aI00
aI00
aI00
aa(lp3963
I83126
aF192.40035294117646
aF385.67
ag3951
aS'nimbussanl'
p3964
aS'#000000'
p3965
aF10.0
aI0
aI00
aI00
aI00
aI00
aI00
aI00
aI00
aI00
aa(lp3966
I234378
aF242.60058823529414
aF385.67
ag3951
aS'nimbussanl'
p3967
aS'#000000'
p3968
aF10.0
aI0
aI00
aI00
aI00
aI00
aI00
aI00
aI00
aI00
aa(lp3969
I234378
aF264.32917647058827
aF385.67
ag3951
aS'nimbussanl'
p3970
aS'#000000'
p3971
aF10.0
aI0
aI01
aI00
aI00
aI00
aI00
aI00
aI00
aI00
aa(lp3972
I104617
aF307.88647058823534
aF385.67
ag3951
aS'nimbussanl'
p3973
aS'#000000'
p3974
aF10.0
aI0
aI00
aI00
aI00
aI00
aI00
aI00
aI00
aI00
aa(lp3975
I63022
aF332.5294117647059
aF385.67
ag3951
aS'nimbussanl'
p3976
aS'#000000'
p3977
aF10.0
aI0
aI00
aI00
aI00
aI00
aI00
aI00
aI00
aI00
aa(lp3978
I44160
aF366.62952941176474
aF385.67
ag3951
aS'nimbussanl'
p3979
aS'#000000'
p3980
aF10.0
aI0
aI00
aI00
aI00
aI00
aI00
aI00
aI00
aI00
aa(lp3981
I234378
aF350.72964705882356
aF385.67
ag3951
aS'nimbussanl'
p3982
aS'#000000'
p3983
aF10.0
aI0
aI00
aI00
aI00
aI00
aI00
aI00
aI00
aI00
aa(lp3984
I204548
aF405.4582352941177
aF385.67
ag3951
aS'nimbussanl'
p3985
aS'#000000'
p3986
aF10.0
aI0
aI00
aI00
aI00
aI00
aI00
aI00
aI00
aI00
aa(lp3987
I137307
aF439.5583529411765
aF385.67
ag3951
aS'nimbussanl'
p3988
aS'#000000'
p3989
aF10.0
aI0
aI00
aI00
aI00
aI00
aI00
aI00
aI00
aI00
aa(lp3990
I59639
aF90.1
aF398.07
aVp5
p3991
aS'nimbussanl'
p3992
aS'#000000'
p3993
aF10.0
aI0
aI00
aI00
aI00
aI00
aI00
aI00
aI00
aI00
aa(lp3994
I234378
aF137.13962264150945
aF398.07
ag3991
aS'nimbussanl'
p3995
aS'#000000'
p3996
aF10.0
aI0
aI00
aI00
aI00
aI00
aI00
aI00
aI00
aI00
aa(lp3997
I194347
aF142.84358490566038
aF398.07
ag3991
aS'nimbussanl'
p3998
aS'#000000'
p3999
aF10.0
aI0
aI00
aI00
aI00
aI00
aI00
aI00
aI00
aI00
aa(lp4000
I234378
aF190.88320754716983
aF398.07
ag3991
aS'nimbussanl'
p4001
aS'#000000'
p4002
aF10.0
aI0
aI00
aI00
aI00
aI00
aI00
aI00
aI00
aI00
aa(lp4003
I223003
aF234.21886792452833
aF398.07
ag3991
aS'nimbussanl'
p4004
aS'#000000'
p4005
aF10.0
aI0
aI00
aI00
aI00
aI00
aI00
aI00
aI00
aI00
aa(lp4006
I85218
aF272.85056603773586
aF398.07
ag3991
aS'nimbussanl'
p4007
aS'#000000'
p4008
aF10.0
aI0
aI00
aI00
aI00
aI00
aI00
aI00
aI00
aI00
aa(lp4009
I119791
aF287.9624528301887
aF398.07
ag3991
aS'nimbussanl'
p4010
aS'#000000'
p4011
aF10.0
aI0
aI00
aI00
aI00
aI00
aI00
aI00
aI00
aI00
aa(lp4012
I234378
aF316.1862264150943
aF398.07
ag3991
aS'nimbussanl'
p4013
aS'#000000'
p4014
aF10.0
aI0
aI00
aI00
aI00
aI00
aI00
aI00
aI00
aI00
aa(lp4015
I234378
aF90.1
aF424.47
aVp5
p4016
aS'nimbussanl'
p4017
aS'#000000'
p4018
aF10.0
aI0
aI01
aI00
aI00
aI00
aI00
aI00
aI00
aI00
aa(lp4019
I234378
aF147.53384615384616
aF424.47
ag4016
aS'nimbussanl'
p4020
aS'#000000'
p4021
aF10.0
aI0
aI00
aI00
aI00
aI00
aI00
aI00
aI00
aI00
aa(lp4022
I25931
aF90.1
aF450.87
aVp5
p4023
aS'nimbussanl'
p4024
aS'#000000'
p4025
aF10.0
aI0
aI01
aI00
aI00
aI00
aI00
aI00
aI00
aI00
aa(lp4026
I104149
aF118.06785714285714
aF450.87
ag4023
aS'nimbussanl'
p4027
aS'#000000'
p4028
aF10.0
aI0
aI01
aI00
aI00
aI00
aI00
aI00
aI00
aI00
aa(lp4029
I234378
aF136.04642857142858
aF450.87
ag4023
aS'nimbussanl'
p4030
aS'#000000'
p4031
aF10.0
aI0
aI00
aI00
aI00
aI00
aI00
aI00
aI00
aI00
aa(lp4032
I234378
aF141.54107142857143
aF450.87
ag4023
aS'nimbussanl'
p4033
aS'#000000'
p4034
aF10.0
aI0
aI01
aI01
aI01
aI00
aI00
aI00
aI00
aI00
aa(lp4035
I234378
aF160.51964285714286
aF450.87
ag4023
aS'nimbussanl'
p4036
aS'#000000'
p4037
aF10.0
aI0
aI01
aI01
aI00
aI00
aI00
aI00
aI00
aI00
aa(lp4038
I234378
aF170.49821428571428
aF450.87
ag4023
aS'nimbussanl'
p4039
aS'#000000'
p4040
aF10.0
aI0
aI00
aI00
aI01
aI01
aI00
aI00
aI00
aI00
aa(lp4041
I234378
aF183.99285714285713
aF450.87
ag4023
aS'nimbussanl'
p4042
aS'#000000'
p4043
aF10.0
aI0
aI00
aI00
aI00
aI00
aI00
aI00
aI00
aI00
aa(lp4044
I234378
aF188.48749999999998
aF450.87
ag4023
aS'nimbussanl'
p4045
aS'#000000'
p4046
aF10.0
aI0
aI00
aI00
aI01
aI01
aI00
aI00
aI00
aI00
aa(lp4047
I234378
aF193.98214285714283
aF450.87
ag4023
aS'nimbussanl'
p4048
aS'#000000'
p4049
aF10.0
aI0
aI00
aI00
aI00
aI00
aI00
aI00
aI00
aI00
aa(lp4050
I180850
aF199.47678571428568
aF450.87
ag4023
aS'nimbussanl'
p4051
aS'#000000'
p4052
aF10.0
aI0
aI01
aI00
aI00
aI00
aI00
aI00
aI00
aI00
aa(lp4053
I234378
aF245.42321428571427
aF450.87
ag4023
aS'nimbussanl'
p4054
aS'#000000'
p4055
aF10.0
aI0
aI00
aI00
aI00
aI00
aI00
aI00
aI00
aI00
aa(lp4056
I234378
aF291.3696428571428
aF450.87
ag4023
aS'nimbussanl'
p4057
aS'#000000'
p4058
aF10.0
aI0
aI00
aI00
aI00
aI00
aI00
aI00
aI00
aI00
aa(lp4059
I89480
aF305.8535714285714
aF450.87
ag4023
aS'nimbussanl'
p4060
aS'#000000'
p4061
aF10.0
aI0
aI00
aI00
aI00
aI00
aI00
aI00
aI00
aI00
aa(lp4062
I147316
aF315.8428571428571
aF450.87
ag4023
aS'nimbussanl'
p4063
aS'#000000'
p4064
aF10.0
aI0
aI00
aI00
aI00
aI00
aI00
aI00
aI00
aI00
aa(lp4065
I180850
aF348.3053571428571
aF450.87
ag4023
aS'nimbussanl'
p4066
aS'#000000'
p4067
aF10.0
aI0
aI00
aI00
aI00
aI00
aI00
aI00
aI00
aI00
aa(lp4068
I234378
aF394.25178571428563
aF450.87
ag4023
aS'nimbussanl'
p4069
aS'#000000'
p4070
aF10.0
aI0
aI00
aI00
aI00
aI00
aI00
aI00
aI00
aI00
aa(lp4071
I96642
aF90.1
aF477.27
aVp5
p4072
aS'nimbussanl'
p4073
aS'#000000'
p4074
aF10.0
aI0
aI01
aI00
aI00
aI00
aI00
aI00
aI00
aI00
aa(lp4075
I104149
aF119.072
aF477.27
ag4072
aS'nimbussanl'
p4076
aS'#000000'
p4077
aF10.0
aI0
aI01
aI00
aI00
aI00
aI00
aI00
aI00
aI00
aa(lp4078
I234378
aF137.72
aF477.27
ag4072
aS'nimbussanl'
p4079
aS'#000000'
p4080
aF10.0
aI0
aI00
aI00
aI00
aI00
aI00
aI00
aI00
aI00
aa(lp4081
I234378
aF143.382
aF477.27
ag4072
aS'nimbussanl'
p4082
aS'#000000'
p4083
aF10.0
aI0
aI01
aI01
aI01
aI00
aI00
aI00
aI00
aI00
aa(lp4084
I234378
aF162.03
aF477.27
ag4072
aS'nimbussanl'
p4085
aS'#000000'
p4086
aF10.0
aI0
aI00
aI00
aI00
aI00
aI00
aI00
aI00
aI00
aa(lp4087
I148996
aF167.692
aF477.27
ag4072
aS'nimbussanl'
p4088
aS'#000000'
p4089
aF10.0
aI0
aI01
aI00
aI00
aI00
aI00
aI00
aI00
aI00
aa(lp4090
I176767
aF196.66400000000002
aF477.27
ag4072
aS'nimbussanl'
p4091
aS'#000000'
p4092
aF10.0
aI0
aI00
aI00
aI00
aI00
aI00
aI00
aI00
aI00
aa(lp4093
I234378
aF90.1
aF504.27
aVp5
p4094
aS'nimbussanl'
p4095
aS'#000000'
p4096
aF10.0
aI0
aI01
aI00
aI00
aI00
aI00
aI00
aI00
aI00
aa(lp4097
I234378
aF131.5633043478261
aF504.27
ag4094
aS'nimbussanl'
p4098
aS'#000000'
p4099
aF10.0
aI0
aI00
aI00
aI00
aI00
aI00
aI00
aI00
aI00
aa(lp4100
I234378
aF137.74621739130436
aF504.27
ag4094
aS'nimbussanl'
p4101
aS'#000000'
p4102
aF10.0
aI0
aI01
aI01
aI00
aI00
aI00
aI00
aI00
aI00
aa(lp4103
I234378
aF149.1120434782609
aF504.27
ag4094
aS'nimbussanl'
p4104
aS'#000000'
p4105
aF10.0
aI0
aI01
aI01
aI00
aI00
aI00
aI00
aI00
aI00
aa(lp4106
I96642
aF165.66078260869565
aF504.27
ag4094
aS'nimbussanl'
p4107
aS'#000000'
p4108
aF10.0
aI0
aI01
aI00
aI00
aI00
aI00
aI00
aI00
aI00
aa(lp4109
I120031
aF90.1
aF530.87
aVp5
p4110
aS'nimbussanl'
p4111
aS'#000000'
p4112
aF10.0
aI0
aI01
aI00
aI00
aI00
aI00
aI00
aI00
aI00
aa(lp4113
I234378
aF126.35674418604651
aF530.87
ag4110
aS'nimbussanl'
p4114
aS'#000000'
p4115
aF10.0
aI0
aI00
aI00
aI00
aI00
aI00
aI00
aI00
aI00
aa(lp4116
I234378
aF131.88883720930232
aF530.87
ag4110
aS'nimbussanl'
p4117
aS'#000000'
p4118
aF10.0
aI0
aI00
aI00
aI01
aI01
aI00
aI00
aI00
aI00
aa(lp4119
I234378
aF136.42093023255813
aF530.87
ag4110
aS'nimbussanl'
p4120
aS'#000000'
p4121
aF10.0
aI0
aI00
aI00
aI00
aI00
aI00
aI00
aI00
aI00
aa(lp4122
I234378
aF138.95302325581395
aF530.87
ag4110
aS'nimbussanl'
p4123
aS'#000000'
p4124
aF10.0
aI0
aI00
aI00
aI01
aI01
aI00
aI00
aI00
aI00
aa(lp4125
I234378
aF146.48511627906976
aF530.87
ag4110
aS'nimbussanl'
p4126
aS'#000000'
p4127
aF10.0
aI0
aI01
aI00
aI00
aI00
aI00
aI00
aI00
aI00
aa(lp4128
I234378
aF173.67767441860462
aF530.87
ag4110
aS'nimbussanl'
p4129
aS'#000000'
p4130
aF10.0
aI0
aI00
aI00
aI00
aI00
aI00
aI00
aI00
aI00
aa(lp4131
I234378
aF179.20976744186044
aF530.87
ag4110
aS'nimbussanl'
p4132
aS'#000000'
p4133
aF10.0
aI0
aI01
aI00
aI00
aI00
aI00
aI00
aI00
aI01
aa(lp4134
I234378
aF193.80604651162787
aF530.87
ag4110
aS'nimbussanl'
p4135
aS'#000000'
p4136
aF10.0
aI0
aI00
aI00
aI01
aI01
aI01
aI00
aI00
aI00
aa(lp4137
I89480
aF212.9344186046511
aF530.87
ag4110
aS'nimbussanl'
p4138
aS'#000000'
p4139
aF10.0
aI0
aI00
aI00
aI00
aI00
aI00
aI00
aI00
aI00
aa(lp4140
I234378
aF222.99860465116274
aF530.87
ag4110
aS'nimbussanl'
p4141
aS'#000000'
p4142
aF10.0
aI0
aI00
aI00
aI00
aI00
aI00
aI00
aI00
aI01
aa(lp4143
I234378
aF225.59488372093017
aF530.87
ag4110
aS'nimbussanl'
p4144
aS'#000000'
p4145
aF10.0
aI0
aI00
aI00
aI01
aI01
aI01
aI00
aI00
aI00
aa(lp4146
I234378
aF255.72325581395341
aF530.87
ag4110
aS'nimbussanl'
p4147
aS'#000000'
p4148
aF10.0
aI0
aI00
aI00
aI00
aI00
aI00
aI00
aI00
aI00
aa(lp4149
I210461
aF90.1
aF557.264
aVp5
p4150
aS'dejavusans'
p4151
aS'#000000'
p4152
aF12.0
aI0
aI01
aI00
aI00
aI00
aI00
aI00
aI00
aI00
aa(lp4153
I340
aF125.656
aF557.264
aVp5
p4154
aS'dejavusans'
p4155
aS'#000000'
p4156
aF12.0
aI0
aI01
aI00
aI00
aI00
aI00
aI00
aI00
aI00
aa(lp4157
I234378
aF148.54240000000001
aF557.264
ag4154
aS'dejavusans'
p4158
aS'#000000'
p4159
aF12.0
aI0
aI00
aI00
aI00
aI00
aI00
aI00
aI00
aI00
aa(lp4160
I234378
aF158.116
aF557.264
aVp5
p4161
aS'dejavusans'
p4162
aS'#000000'
p4163
aF12.0
aI0
aI00
aI00
aI01
aI01
aI00
aI00
aI00
aI00
aa(lp4164
I103666
aF90.1
aF585.31
aVp5
p4165
aS'nimbussanl'
p4166
aS'#000000'
p4167
aF10.0
aI1
aI01
aI00
aI00
aI00
aI00
aI00
aI00
aI00
aa(lp4168
I234378
aF128.13555555555556
aF585.31
ag4165
aS'nimbussanl'
p4169
aS'#000000'
p4170
aF10.0
aI1
aI00
aI00
aI00
aI00
aI00
aI00
aI00
aI00
aa(lp4171
I234378
aF90.1
aF601.66
aVp5
p4172
aS'nimbusromno9l'
p4173
aS'#000000'
p4174
aF10.0
aI0
aI00
aI00
aI01
aI01
aI00
aI00
aI00
aI00
aa(lp4175
I27780
aF108.1
aF601.11
aVp5
p4176
aS'nimbussanl'
p4177
aS'#000000'
p4178
aF10.0
aI1
aI01
aI01
aI00
aI00
aI00
aI00
aI00
aI00
aa(lp4179
I234378
aF113.485
aF601.11
ag4176
aS'nimbussanl'
p4180
aS'#000000'
p4181
aF10.0
aI1
aI00
aI00
aI00
aI00
aI00
aI00
aI00
aI00
aa(lp4182
I59734
aF118.87
aF601.11
ag4176
aS'nimbussanl'
p4183
aS'#000000'
p4184
aF10.0
aI1
aI01
aI01
aI00
aI00
aI00
aI00
aI00
aI00
aa(lp4185
I234378
aF122.25500000000001
aF601.11
ag4176
aS'nimbussanl'
p4186
aS'#000000'
p4187
aF10.0
aI1
aI00
aI00
aI00
aI00
aI00
aI00
aI00
aI00
aa(lp4188
I128835
aF129.64000000000001
aF601.11
ag4176
aS'nimbussanl'
p4189
aS'#000000'
p4190
aF10.0
aI1
aI01
aI01
aI00
aI00
aI00
aI00
aI00
aI00
aa(lp4191
I234378
aF131.025
aF601.11
ag4176
aS'nimbussanl'
p4192
aS'#000000'
p4193
aF10.0
aI1
aI00
aI00
aI00
aI00
aI00
aI00
aI00
aI00
aa(lp4194
I62213
aF140.41
aF601.11
ag4176
aS'nimbussanl'
p4195
aS'#000000'
p4196
aF10.0
aI1
aI01
aI01
aI00
aI00
aI00
aI00
aI00
aI00
aa(lp4197
I234378
aF145.795
aF601.11
ag4176
aS'nimbussanl'
p4198
aS'#000000'
p4199
aF10.0
aI1
aI00
aI00
aI00
aI00
aI00
aI00
aI00
aI00
aa(lp4200
I234378
aF152.17999999999998
aF601.11
ag4176
aS'nimbussanl'
p4201
aS'#000000'
p4202
aF10.0
aI1
aI01
aI00
aI00
aI00
aI00
aI00
aI00
aI00
aa(lp4203
I234378
aF198.1
aF601.37
aVp5
p4204
aS'nimbussanl'
p4205
aS'#000000'
p4206
aF10.0
aI0
aI00
aI00
aI00
aI00
aI00
aI00
aI00
aI00
aa(lp4207
I234378
aF202.91
aF601.37
ag4204
aS'nimbussanl'
p4208
aS'#000000'
p4209
aF10.0
aI0
aI00
aI00
aI01
aI01
aI01
aI00
aI00
aI00
aa(lp4210
I128539
aF213.53
aF601.37
ag4204
aS'nimbussanl'
p4211
aS'#000000'
p4212
aF10.0
aI0
aI01
aI00
aI00
aI00
aI00
aI00
aI00
aI00
aa(lp4213
I234378
aF232.77
aF601.37
ag4204
aS'nimbussanl'
p4214
aS'#000000'
p4215
aF10.0
aI0
aI00
aI00
aI00
aI00
aI00
aI00
aI00
aI00
aa(lp4216
I181114
aF108.1
aF613.97
aVp5
p4217
aS'nimbussanl'
p4218
aS'#000000'
p4219
aF10.0
aI0
aI01
aI00
aI00
aI00
aI00
aI00
aI00
aI00
aa(lp4220
I98566
aF142.94294117647058
aF613.97
ag4217
aS'nimbussanl'
p4221
aS'#000000'
p4222
aF10.0
aI0
aI00
aI00
aI00
aI00
aI00
aI00
aI00
aI00
aa(lp4223
I234378
aF168.1164705882353
aF613.97
ag4217
aS'nimbussanl'
p4224
aS'#000000'
p4225
aF10.0
aI0
aI01
aI01
aI00
aI00
aI00
aI00
aI00
aI00
aa(lp4226
I234378
aF183.62058823529412
aF613.97
ag4217
aS'nimbussanl'
p4227
aS'#000000'
p4228
aF10.0
aI0
aI01
aI00
aI00
aI00
aI00
aI00
aI00
aI00
aa(lp4229
I234378
aF231.96764705882353
aF613.97
ag4217
aS'nimbussanl'
p4230
aS'#000000'
p4231
aF10.0
aI0
aI00
aI00
aI00
aI00
aI00
aI00
aI00
aI00
aa(lp4232
I234378
aF237.80235294117648
aF613.97
ag4217
aS'nimbussanl'
p4233
aS'#000000'
p4234
aF10.0
aI0
aI00
aI00
aI00
aI00
aI00
aI00
aI00
aI00
aa(lp4235
I234378
aF252.3064705882353
aF613.97
ag4217
aS'nimbussanl'
p4236
aS'#000000'
p4237
aF10.0
aI0
aI00
aI00
aI00
aI00
aI00
aI00
aI00
aI00
aa(lp4238
I234378
aF90.1
aF639.36
aVp5
p4239
aS'nimbusromno9l'
p4240
aS'#000000'
p4241
aF10.0
aI0
aI00
aI00
aI01
aI01
aI00
aI00
aI00
aI00
aa(lp4242
I234378
aF108.1
aF638.81
aVp5
p4243
aS'nimbussanl'
p4244
aS'#000000'
p4245
aF10.0
aI1
aI01
aI00
aI00
aI00
aI00
aI00
aI00
aI00
aa(lp4246
I234378
aF144.574375
aF638.81
ag4243
aS'nimbussanl'
p4247
aS'#000000'
p4248
aF10.0
aI1
aI00
aI00
aI00
aI00
aI00
aI00
aI00
aI00
aa(lp4249
I234378
aF150.785
aF638.81
ag4243
aS'nimbussanl'
p4250
aS'#000000'
p4251
aF10.0
aI1
aI01
aI00
aI00
aI00
aI00
aI00
aI00
aI00
aa(lp4252
I234378
aF182.04874999999998
aF638.81
ag4243
aS'nimbussanl'
p4253
aS'#000000'
p4254
aF10.0
aI1
aI00
aI00
aI00
aI00
aI00
aI00
aI00
aI00
aa(lp4255
I234378
aF198.1
aF639.07
aVp5
p4256
aS'nimbussanl'
p4257
aS'#000000'
p4258
aF10.0
aI0
aI00
aI00
aI00
aI00
aI00
aI00
aI00
aI00
aa(lp4259
I234378
aF202.91
aF639.07
ag4256
aS'nimbussanl'
p4260
aS'#000000'
p4261
aF10.0
aI0
aI00
aI00
aI01
aI01
aI01
aI00
aI00
aI00
aa(lp4262
I128539
aF213.53
aF639.07
ag4256
aS'nimbussanl'
p4263
aS'#000000'
p4264
aF10.0
aI0
aI01
aI00
aI00
aI00
aI00
aI00
aI00
aI00
aa(lp4265
I234378
aF232.77
aF639.07
ag4256
aS'nimbussanl'
p4266
aS'#000000'
p4267
aF10.0
aI0
aI00
aI00
aI00
aI00
aI00
aI00
aI00
aI00
aa(lp4268
I125458
aF72.9
aF651.67
aVp5
p4269
aS'nimbussanl'
p4270
aS'#000000'
p4271
aF10.0
aI0
aI01
aI00
aI00
aI00
aI00
aI00
aI00
aI00
aa(lp4272
I144483
aF112.54400000000001
aF651.67
ag4269
aS'nimbussanl'
p4273
aS'#000000'
p4274
aF10.0
aI0
aI00
aI00
aI00
aI00
aI00
aI00
aI00
aI00
aa(lp4275
I177958
aF126.42533333333334
aF651.67
ag4269
aS'nimbussanl'
p4276
aS'#000000'
p4277
aF10.0
aI0
aI00
aI00
aI00
aI00
aI00
aI00
aI00
aI00
aa(lp4278
I122648
aF172.51
aF651.67
ag4269
aS'nimbussanl'
p4279
aS'#000000'
p4280
aF10.0
aI0
aI01
aI01
aI00
aI00
aI00
aI00
aI00
aI00
aa(lp4281
I85218
aF212.154
aF651.67
ag4269
aS'nimbussanl'
p4282
aS'#000000'
p4283
aF10.0
aI0
aI01
aI01
aI00
aI00
aI00
aI00
aI00
aI00
aa(lp4284
I95215
aF232.476
aF651.67
ag4269
aS'nimbussanl'
p4285
aS'#000000'
p4286
aF10.0
aI0
aI01
aI01
aI00
aI00
aI00
aI00
aI00
aI00
aa(lp4287
I144489
aF285.0013333333333
aF651.67
ag4269
aS'nimbussanl'
p4288
aS'#000000'
p4289
aF10.0
aI0
aI01
aI01
aI00
aI00
aI00
aI00
aI00
aI00
aa(lp4290
I132957
aF298.88266666666664
aF651.67
ag4269
aS'nimbussanl'
p4291
aS'#000000'
p4292
aF10.0
aI0
aI01
aI01
aI00
aI00
aI00
aI00
aI00
aI00
aa(lp4293
I7520
aF90.1
aF676.91
aVp5
p4294
aS'nimbussanl'
p4295
aS'#000000'
p4296
aF10.0
aI1
aI01
aI01
aI00
aI00
aI00
aI00
aI00
aI00
aa(lp4297
I74911
aF133.3176
aF676.91
ag4294
aS'nimbussanl'
p4298
aS'#000000'
p4299
aF10.0
aI1
aI01
aI01
aI00
aI00
aI00
aI00
aI00
aI00
aa(lp4300
I158577
aF126.1
aF704.07
aVp5
p4301
aS'nimbussanl'
p4302
aS'#000000'
p4303
aF10.0
aI0
aI01
aI00
aI00
aI00
aI00
aI00
aI00
aI00
aa(lp4304
I234378
aF270.1
aF704.07
aVp5
p4305
aS'nimbussanl'
p4306
aS'#000000'
p4307
aF10.0
aI0
aI00
aI00
aI00
aI00
aI00
aI00
aI00
aI00
aa(lp4308
I234378
aF306.1
aF704.07
aVp5
p4309
aS'nimbussanl'
p4310
aS'#000000'
p4311
aF10.0
aI0
aI01
aI00
aI00
aI00
aI00
aI00
aI00
aI00
aa(lp4312
I234378
aF331.63846153846157
aF704.07
ag4309
aS'nimbussanl'
p4313
aS'#000000'
p4314
aF10.0
aI0
aI01
aI00
aI00
aI00
aI00
aI00
aI00
aI00
aa(lp4315
I46364
aF126.1
aF716.47
aVp5
p4316
aS'nimbussanl'
p4317
aS'#000000'
p4318
aF10.0
aI0
aI01
aI00
aI00
aI00
aI00
aI00
aI00
aI00
aa(lp4319
I234378
aF270.1
aF716.47
aVp5
p4320
aS'nimbussanl'
p4321
aS'#000000'
p4322
aF10.0
aI0
aI00
aI00
aI00
aI00
aI00
aI00
aI00
aI00
aa(lp4323
I234378
aF306.1
aF716.47
aVp5
p4324
aS'nimbussanl'
p4325
aS'#000000'
p4326
aF10.0
aI0
aI00
aI00
aI01
aI01
aI01
aI00
aI00
aI00
aa(lp4327
I234378
aF316.94
aF716.47
ag4324
aS'nimbussanl'
p4328
aS'#000000'
p4329
aF10.0
aI0
aI01
aI00
aI00
aI00
aI00
aI00
aI00
aI00
aa(lp4330
I234378
aF331.7
aF716.47
ag4324
aS'nimbussanl'
p4331
aS'#000000'
p4332
aF10.0
aI0
aI00
aI00
aI00
aI00
aI00
aI00
aI00
aI00
aa(lp4333
I132955
aF126.1
aF27.07
aVp6
p4334
aS'nimbussanl'
p4335
aS'#000000'
p4336
aF10.0
aI0
aI01
aI00
aI00
aI00
aI00
aI00
aI00
aI00
aa(lp4337
I144489
aF143.8353846153846
aF27.07
ag4334
aS'nimbussanl'
p4338
aS'#000000'
p4339
aF10.0
aI0
aI00
aI00
aI00
aI00
aI00
aI00
aI00
aI00
aa(lp4340
I132529
aF153.2030769230769
aF27.07
ag4334
aS'nimbussanl'
p4341
aS'#000000'
p4342
aF10.0
aI0
aI00
aI00
aI00
aI00
aI00
aI00
aI00
aI00
aa(lp4343
I234378
aF270.1
aF27.07
aVp6
p4344
aS'nimbussanl'
p4345
aS'#000000'
p4346
aF10.0
aI0
aI00
aI00
aI00
aI00
aI00
aI00
aI00
aI00
aa(lp4347
I234378
aF306.1
aF27.07
aVp6
p4348
aS'nimbussanl'
p4349
aS'#000000'
p4350
aF10.0
aI0
aI00
aI00
aI01
aI01
aI01
aI00
aI00
aI00
aa(lp4351
I234378
aF315.68545454545455
aF27.07
ag4348
aS'nimbussanl'
p4352
aS'#000000'
p4353
aF10.0
aI0
aI00
aI00
aI00
aI00
aI00
aI00
aI00
aI00
aa(lp4354
I234378
aF320.47818181818184
aF27.07
ag4348
aS'nimbussanl'
p4355
aS'#000000'
p4356
aF10.0
aI0
aI00
aI00
aI01
aI01
aI01
aI00
aI00
aI00
aa(lp4357
I234378
aF327.06363636363636
aF27.07
ag4348
aS'nimbussanl'
p4358
aS'#000000'
p4359
aF10.0
aI0
aI00
aI00
aI00
aI00
aI00
aI00
aI00
aI00
aa(lp4360
I234378
aF334.85636363636365
aF27.07
ag4348
aS'nimbussanl'
p4361
aS'#000000'
p4362
aF10.0
aI0
aI00
aI00
aI01
aI01
aI01
aI00
aI00
aI00
aa(lp4363
I234378
aF354.02727272727276
aF27.07
ag4348
aS'nimbussanl'
p4364
aS'#000000'
p4365
aF10.0
aI0
aI00
aI00
aI00
aI00
aI00
aI00
aI00
aI00
aa(lp4366
I16871
aF126.1
aF39.47
aVp6
p4367
aS'nimbussanl'
p4368
aS'#000000'
p4369
aF10.0
aI0
aI01
aI00
aI00
aI00
aI00
aI00
aI00
aI00
aa(lp4370
I234378
aF270.1
aF39.47
aVp6
p4371
aS'nimbussanl'
p4372
aS'#000000'
p4373
aF10.0
aI0
aI00
aI00
aI00
aI00
aI00
aI00
aI00
aI00
aa(lp4374
I104428
aF306.1
aF39.47
aVp6
p4375
aS'nimbussanl'
p4376
aS'#000000'
p4377
aF10.0
aI0
aI01
aI00
aI00
aI00
aI00
aI00
aI00
aI00
aa(lp4378
I234378
aF325.668
aF39.47
ag4375
aS'nimbussanl'
p4379
aS'#000000'
p4380
aF10.0
aI0
aI00
aI00
aI00
aI00
aI00
aI00
aI00
aI00
aa(lp4381
I64620
aF126.1
aF51.87
aVp6
p4382
aS'nimbussanl'
p4383
aS'#000000'
p4384
aF10.0
aI0
aI01
aI01
aI00
aI00
aI00
aI00
aI00
aI00
aa(lp4385
I169404
aF131.81666666666666
aF51.87
ag4382
aS'nimbussanl'
p4386
aS'#000000'
p4387
aF10.0
aI0
aI00
aI00
aI00
aI00
aI00
aI00
aI00
aI00
aa(lp4388
I234378
aF270.1
aF51.87
aVp6
p4389
aS'nimbussanl'
p4390
aS'#000000'
p4391
aF10.0
aI0
aI00
aI00
aI00
aI00
aI00
aI00
aI00
aI00
aa(lp4392
I234378
aF306.1
aF51.87
aVp6
p4393
aS'nimbussanl'
p4394
aS'#000000'
p4395
aF10.0
aI0
aI01
aI00
aI00
aI00
aI00
aI00
aI00
aI00
aa(lp4396
I234378
aF332.0425925925926
aF51.87
ag4393
aS'nimbussanl'
p4397
aS'#000000'
p4398
aF10.0
aI0
aI00
aI00
aI00
aI00
aI00
aI00
aI00
aI00
aa(lp4399
I234378
aF337.2311111111111
aF51.87
ag4393
aS'nimbussanl'
p4400
aS'#000000'
p4401
aF10.0
aI0
aI00
aI00
aI01
aI00
aI00
aI00
aI00
aI00
aa(lp4402
I234378
aF395.3048148148148
aF51.87
ag4393
aS'nimbussanl'
p4403
aS'#000000'
p4404
aF10.0
aI0
aI00
aI00
aI00
aI00
aI00
aI00
aI00
aI00
aa(lp4405
I234378
aF403.24740740740737
aF51.87
ag4393
aS'nimbussanl'
p4406
aS'#000000'
p4407
aF10.0
aI0
aI00
aI00
aI00
aI00
aI00
aI00
aI00
aI00
aa(lp4408
I234378
aF426.43592592592586
aF51.87
ag4393
aS'nimbussanl'
p4409
aS'#000000'
p4410
aF10.0
aI0
aI00
aI00
aI00
aI00
aI00
aI00
aI00
aI00
aa(lp4411
I54779
aF126.1
aF64.47
aVp6
p4412
aS'nimbussanl'
p4413
aS'#000000'
p4414
aF10.0
aI0
aI01
aI00
aI00
aI00
aI00
aI00
aI00
aI00
aa(lp4415
I234378
aF270.1
aF64.47
aVp6
p4416
aS'nimbussanl'
p4417
aS'#000000'
p4418
aF10.0
aI0
aI00
aI00
aI00
aI00
aI00
aI00
aI00
aI00
aa(lp4419
I234378
aF306.1
aF64.21
aVp6
p4420
aS'nimbussanl'
p4421
aS'#000000'
p4422
aF10.0
aI1
aI00
aI00
aI01
aI01
aI01
aI00
aI00
aI00
aa(lp4423
I234378
aF370.7114285714286
aF64.21
ag4420
aS'nimbussanl'
p4424
aS'#000000'
p4425
aF10.0
aI1
aI00
aI00
aI00
aI00
aI00
aI00
aI00
aI00
aa(lp4426
I118366
aF90.1
aF77.07
aVp6
p4427
aS'nimbussanl'
p4428
aS'#000000'
p4429
aF10.0
aI0
aI01
aI00
aI00
aI00
aI00
aI00
aI00
aI00
aa(lp4430
I234378
aF270.1
aF77.07
aVp6
p4431
aS'nimbussanl'
p4432
aS'#000000'
p4433
aF10.0
aI0
aI00
aI00
aI00
aI00
aI00
aI00
aI00
aI00
aa(lp4434
I71195
aF306.1
aF77.07
aVp6
p4435
aS'nimbussanl'
p4436
aS'#000000'
p4437
aF10.0
aI0
aI00
aI00
aI00
aI00
aI00
aI00
aI00
aI00
aa(lp4438
I201816
aF325.4034482758621
aF77.07
ag4435
aS'nimbussanl'
p4439
aS'#000000'
p4440
aF10.0
aI0
aI00
aI00
aI00
aI00
aI00
aI00
aI00
aI00
aa(lp4441
I234378
aF335.5551724137931
aF77.07
ag4435
aS'nimbussanl'
p4442
aS'#000000'
p4443
aF10.0
aI0
aI00
aI00
aI01
aI01
aI01
aI00
aI00
aI00
aa(lp4444
I234378
aF350.28275862068966
aF77.07
ag4435
aS'nimbussanl'
p4445
aS'#000000'
p4446
aF10.0
aI0
aI01
aI00
aI00
aI00
aI00
aI00
aI00
aI00
aa(lp4447
I234378
aF378.73793103448276
aF77.07
ag4435
aS'nimbussanl'
p4448
aS'#000000'
p4449
aF10.0
aI0
aI01
aI00
aI00
aI00
aI00
aI00
aI00
aI00
aa(lp4450
I27780
aF306.1
aF89.47
aVp6
p4451
aS'nimbussanl'
p4452
aS'#000000'
p4453
aF10.0
aI0
aI01
aI01
aI00
aI00
aI00
aI00
aI00
aI00
aa(lp4454
I234378
aF310.988
aF89.47
ag4451
aS'nimbussanl'
p4455
aS'#000000'
p4456
aF10.0
aI0
aI00
aI00
aI00
aI00
aI00
aI00
aI00
aI00
aa(lp4457
I131239
aF315.876
aF89.47
ag4451
aS'nimbussanl'
p4458
aS'#000000'
p4459
aF10.0
aI0
aI01
aI01
aI00
aI00
aI00
aI00
aI00
aI00
aa(lp4460
I234378
aF318.76399999999995
aF89.47
ag4451
aS'nimbussanl'
p4461
aS'#000000'
p4462
aF10.0
aI0
aI00
aI00
aI00
aI00
aI00
aI00
aI00
aI00
aa(lp4463
I111618
aF326.65199999999993
aF89.47
ag4451
aS'nimbussanl'
p4464
aS'#000000'
p4465
aF10.0
aI0
aI01
aI00
aI00
aI00
aI00
aI00
aI00
aI00
aa(lp4466
I234378
aF347.20399999999995
aF89.47
ag4451
aS'nimbussanl'
p4467
aS'#000000'
p4468
aF10.0
aI0
aI01
aI00
aI00
aI00
aI00
aI00
aI00
aI00
aa(lp4469
I234378
aF373.19599999999997
aF89.47
ag4451
aS'nimbussanl'
p4470
aS'#000000'
p4471
aF10.0
aI0
aI00
aI00
aI00
aI00
aI00
aI00
aI00
aI00
aa(lp4472
I234378
aF90.1
aF101.87
aVp6
p4473
aS'nimbussanl'
p4474
aS'#000000'
p4475
aF10.0
aI0
aI00
aI00
aI00
aI00
aI00
aI00
aI00
aI00
aa(lp4476
I1
aI0
aI0
aI0
aI0
aI0
aI0
aI0
aI0
aI0
aI0
aI0
aI0
aI0
aI0
aI0
aI0
aI0
aI0
aI0
aI0
aI0
aI0
aI0
aI0
aI0
aI0
aI1
aI1
aI0
aI0
aI0
aI0
aI0
aI0
aI0
aI0
aI0
aI0
aI0
aI0
aI0
aI0
aI0
aI0
aI0
aI0
aI0
aI0
aI0
aI0
aI0
aI0
aI0
aI0
aI0
aI0
aI0
aI0
aI0
aI0
aI0
aI0
aI0
aI0
aI0
aI0
aI0
aI0
aI0
aI0
aI0
aI1
aI1
aI0
aI0
aI0
aI0
aI0
aI0
aI0
aI0
aI0
aI0
aI0
aI0
aI0
aI0
aI0
aI0
aI0
aI0
aI0
aI0
aI0
aI0
aI0
aI0
aI0
aI0
aI0
aI0
aI0
aI0
aI0
aI0
aI0
aI0
aI0
aI0
aI0
aI0
aI0
aI0
aI0
aI0
aI0
aI0
aI0
aI0
aI0
aI0
aI0
aI0
aI0
aI0
aI0
aI0
aI0
aI0
aI0
aI0
aI0
aI0
aI0
aI0
aI0
aI0
aI0
aI0
aI0
aI0
aI0
aI0
aI0
aI0
aI0
aI0
aI0
aI0
aI0
aI0
aI0
aI0
aI0
aI0
aI0
aI0
aI0
aI0
aI0
aI0
aI0
aI0
aI0
aI0
aI0
aI0
aI0
aI0
aI0
aI0
aI0
aI0
aI0
aI0
aI0
aI0
aI0
aI0
aI0
aI0
aI0
aI0
aI0
aI0
aI0
aI0
aI0
aI0
aI0
aI0
aI0
aI0
aI0
aI0
aI0
aI0
aI0
aI0
aI0
aI0
aI0
aI0
aI0
aI0
aI0
aI0
aI0
aI0
aI0
aI0
aI0
aI0
aI0
aI0
aI0
aI0
aI0
aI0
aI0
aI0
aI0
aI0
aI0
aI0
aI0
aI0
aI0
aI0
aI0
aI0
aI0
aI0
aI0
aI0
aI0
aI0
aI0
aI0
aI0
aI0
aI0
aI0
aI0
aI0
aI0
aI0
aI0
aI0
aI0
aI0
aI0
aI0
aI0
aI0
aI0
aI0
aI0
aI0
aI0
aI0
aI0
aI0
aI0
aI0
aI0
aI0
aI1
aI1
aI0
aI0
aI0
aI0
aI0
aI0
aI0
aI0
aI0
aI0
aI0
aI0
aI0
aI0
aI0
aI0
aI0
aI0
aI0
aI0
aI0
aI0
aI0
aI0
aI0
aI0
aI0
aI0
aI0
aI0
aI0
aI0
aI0
aI0
aI0
aI0
aI0
aI0
aI0
aI0
aI0
aI0
aI0
aI0
aI0
aI0
aI0
aI0
aI0
aI0
aI0
aI0
aI0
aI0
aI0
aI0
aI0
aI0
aI0
aI0
aI0
aI0
aI0
aI0
aI0
aI0
aI0
aI0
aI0
aI0
aI0
aI0
aI0
aI0
aI0
aI0
aI0
aI0
aI0
aI0
aI0
aI0
aI0
aI0
aI0
aI0
aI0
aI0
aI0
aI0
aI0
aI0
aI0
aI0
aI0
aI0
aI0
aI0
aI0
aI0
aI0
aI0
aI0
aI0
aI0
aI0
aI0
aI1
aI1
aI0
aI0
aI0
aI0
aI0
aI0
aI0
aI0
aI0
aI0
aI0
aI0
aI0
aI0
aI0
aI0
aI0
aI0
aI0
aI0
aI0
aI0
aI0
aI0
aI0
aI0
aI0
aI0
aI0
aI0
aI0
aI0
aI0
aI0
aI0
aI0
aI0
aI0
aI0
aI0
aI0
aI0
aI0
aI0
aI0
aI0
aI0
aI0
aI0
aI0
aI0
aI0
aI0
aI0
aI0
aI0
aI0
aI0
aI0
aI0
aI0
aI0
aI0
aI0
aI0
aI0
aI0
aI0
aI0
aI0
aI0
aI0
aI0
aI0
aI0
aI0
aI0
aI0
aI0
aI0
aI0
aI0
aI0
aI0
aI0
aI0
aI1
aI1
aI1
aI0
aI0
aI0
aI0
aI0
aI0
aI0
aI0
aI0
aI0
aI0
aI0
aI0
aI0
aI0
aI0
aI0
aI0
aI0
aI0
aI0
aI0
aI0
aI0
aI0
aI0
aI0
aI0
aI0
aI0
aI0
aI0
aI0
aI0
aI0
aI0
aI0
aI0
aI0
aI0
aI0
aI0
aI0
aI0
aI0
aI0
aI0
aI0
aI0
aI0
aI0
aI0
aI0
aI0
aI1
aI1
aI1
aI1
aI0
aI0
aI0
aI0
aI0
aI0
aI0
aI0
aI0
aI0
aI0
aI0
aI0
aI0
aI0
aI0
aI0
aI0
aI0
aI0
aI0
aI0
aI0
aI0
aI0
aI0
aI0
aI0
aI0
aI0
aI0
aI0
aI0
aI0
aI0
aI0
aI0
aI0
aI0
aI0
aI0
aI0
aI0
aI0
aI0
aI0
aI0
aI0
aI0
aI0
aI0
aI0
aI0
aI0
aI0
aI0
aI0
aI0
aI0
aI0
aI0
aI0
aI0
aI0
aI0
aI0
aI0
aI0
aI0
aI0
aI0
aI0
aI0
aI0
aI0
aI0
aI0
aI0
aI0
aI0
aI0
aI0
aI0
aI0
aI0
aI0
aI0
aI0
aI0
aI0
aI0
aI0
aI0
aI0
aI0
aI0
aI0
aI0
aI0
aI0
aI0
aI0
aI0
aI0
aI0
aI0
aI0
aI0
aI0
aI0
aI0
aI0
aI0
aI0
aI0
aI0
aI0
aI0
aI0
aI0
aI0
aI0
aI0
aI0
aI0
aI0
aI0
aI0
aI0
aI0
aI0
aI0
aI0
aI0
aI0
aI0
aI0
aI0
aI0
aI0
aI0
aI0
aI0
aI0
aI0
aI0
aI0
aI0
aI0
aI0
aI0
aI0
aI0
aI0
aI0
aI0
aI0
aI0
aI0
aI0
aI0
aI0
aI0
aI0
aI0
aI0
aI0
aI0
aI0
aI0
aI0
aI0
aI0
aI0
aI0
aI0
aI0
aI0
aI0
aI0
aI0
aI0
aI0
aI0
aI0
aI0
aI0
aI0
aI0
aI0
aI0
aI0
aI0
aI0
aI0
aI0
aI0
aI0
aI0
aI0
aI0
aI0
aI0
aI0
aI0
aI0
aI0
aI0
aI0
aI0
aI0
aI0
aI0
aI0
aI0
aI0
aI0
aI0
aI0
aI0
aI0
aI0
aI0
aI0
aI0
aI0
aI0
aI0
aI0
aI0
aI0
aI0
aI0
aI0
aI0
aI0
aI0
aI0
aI0
aI0
aI0
aI0
aI0
aI0
aI0
aI0
aI0
aI0
aI0
aI0
aI0
aI0
aI0
aI0
aI0
aI0
aI0
aI0
aI0
aI0
aI0
aI0
aI0
aI0
aI0
aI0
aI0
aI0
aI0
aI0
aI0
aI0
aI0
aI0
aI0
aI0
aI0
aI0
aI0
aI0
aI0
aI0
aI0
aI0
aI0
aI0
aI0
aI0
aI0
aI0
aI0
aI0
aI0
aI0
aI0
aI0
aI0
aI0
aI0
aI0
aI0
aI0
aI0
aI0
aI0
aI0
aI0
aI0
aI0
aI0
aI0
aI0
aI0
aI0
aI0
aI0
aI0
aI0
aI0
aI0
aI0
aI0
aI0
aI0
aI0
aI0
aI0
aI0
aI0
aI0
aI0
aI0
aI0
aI0
aI0
aI0
aI0
aI0
aI0
aI0
aI0
aI0
aI0
aI0
aI0
aI0
aI0
aI0
aI0
aI0
aI0
aI0
aI0
aI0
aI0
aI0
aI0
aI0
aI0
aI0
aI0
aI0
aI0
aI0
aI0
aI0
aI0
aI0
aI0
aI0
aI0
aI0
aI0
aI0
aI0
aI0
aI0
aI0
aI0
aI0
aI0
aI0
aI0
aI0
aI0
aI0
aI0
aI0
aI0
aI0
aI0
aI0
aI0
aI0
aI0
aI0
aI0
aI0
aI0
aI0
aI0
aI0
aI0
aI0
aI0
aI0
aI0
aI0
aI0
aI0
aI0
aI0
aI0
aI0
aI0
aI0
aI0
aI0
aI0
aI0
aI0
aI0
aI0
aI0
aI0
aI0
aI0
aI0
aI0
aI0
aI0
aI0
aI0
aI0
aI0
aI0
aI0
aI0
aI0
aI0
aI0
aI0
aI0
aI0
aI0
aI0
aI0
aI0
aI0
aI0
aI0
aI0
aI0
aI0
aI0
aI0
aI0
aI0
aI0
aI0
aI0
aI0
aI0
aI0
aI0
aI0
aI0
aI0
aI0
aI0
aI0
aI0
aI0
aI0
aI0
aI0
aI0
aI0
aI0
aI0
aI0
aI0
aI0
aI0
aI0
aI0
aI0
aI0
aI0
aI0
aI0
aI0
aI0
aI0
aI0
aI0
aI0
aI0
aI0
aI0
aI0
aI0
aI0
aI0
aI0
aI0
aI0
aI0
aI0
aI0
aI0
aI0
aI0
aI0
aI0
aI0
aI0
aI0
aI0
aI0
aI0
aI0
aI0
aI0
aI0
aI0
aI0
aI0
aI0
aI0
aI0
aI0
aI0
aI0
aI0
aI0
aI0
aI0
aI0
aI0
aI0
aI0
aI0
aI0
aI0
aI0
aI0
aI0
aI0
aI0
aI0
aI0
aI0
aI0
aI0
aI0
aI0
aI0
aI0
aI0
aI0
aI0
aI0
aI0
aI0
aI0
aI0
aI0
aI0
aI0
aI0
aI0
aI0
aI0
aI0
aI0
aI0
aI0
aI0
aI0
aI0
aI0
aI0
aI0
aI0
aI0
aI0
aI0
aI0
aI0
aI0
aI0
aI0
aI0
aI0
aI0
aI0
aI0
aI0
aI0
aI0
aI0
aI0
aI0
aI0
aI0
aI0
aI0
aI0
aI0
aI0
aI0
aI0
aI0
aI0
aI0
aI0
aI0
aI0
aI0
aI0
aI0
aI0
aI0
aI0
aI0
aI0
aI0
aI0
aI0
aI0
aI0
aI0
aI0
aI0
aI0
aI0
aI0
aI0
aI0
aI0
aI0
aI0
aI0
aI0
aI0
aI0
aI0
aI0
aI0
aI0
aI0
aI0
aI0
aI0
aI0
aI0
aI0
aI0
aI0
aI0
aI0
aI0
aI0
aI0
aI0
aI0
aI0
aI0
aI0
aI0
aI0
aI0
aI0
aI0
aI0
aI0
aI0
aI0
aI0
aI0
aI0
aI0
aI0
aI0
aI0
aI0
aI0
aI0
aI0
aI0
aI0
aI0
aI0
aI0
aI0
aI0
aI0
aI0
aI0
aI0
aI0
aI0
aI0
aI0
aI0
aI0
aI0
aI0
aI0
aI0
aI0
aI0
aI0
aI0
aI0
aI0
aI0
aI0
aI0
aI0
aI0
aI0
aI0
aI0
aI0
aI0
aI0
aI0
aI0
aI0
aI0
aI0
aI0
aI0
aI0
aI0
aI0
aI0
aI0
aI0
aI0
aI0
aI0
aI0
aI0
aI0
aI0
aI0
aI0
aI0
aI0
aI0
aI0
aI0
aI0
aI0
aI0
aI0
aI0
aI0
aI0
aI0
aI0
aI0
aI0
aI1
aI1
aI0
aI0
aI0
aI0
aI0
aI0
aI0
aI0
aI0
aI0
aI0
aI0
aI0
aI0
aI0
aI0
aI0
aI0
aI0
aI0
aI0
aI0
aI0
aI0
aI0
aI0
aI0
aI0
aI0
aI0
aI0
aI0
aI0
aI0
aI0
aI0
aI0
aI0
aI1
aI1
aI0
aI0
aI0
aI0
aI0
aI0
aI0
aI0
aI0
aI0
aI0
aI0
aI0
aI0
aI0
aI0
aI0
aI0
aI0
aI0
aI0
aI0
aI0
aI0
aI0
aI0
aI0
aI0
aI0
aI0
aI0
aI0
aI0
aI0
aI0
aI0
aI0
aI0
aI0
aI0
aI0
aI0
aI0
aI0
aI0
aI0
aI0
aI0
aI0
aI0
aI0
atp4477
.