((lp0
(lp1
I234378
aF41.5
aF43.728
aVp1
p2
aS'dejavusans'
p3
aS'#000000'
p4
aF24.0
aI0
aI01
aI00
aI00
aI00
aI00
aI00
aI00
aI00
aa(lp5
I137937
aF130.228
aF43.728
aVp1
p6
aS'dejavusans'
p7
aS'#000000'
p8
aF24.0
aI0
aI01
aI00
aI00
aI00
aI00
aI00
aI00
aI00
aa(lp9
I234378
aF263.1
aF36.048
aVp1
p10
aS'dejavusans'
p11
aS'#000000'
p12
aF9.0
aI0
aI01
aI01
aI01
aI00
aI00
aI00
aI00
aI00
aa(lp13
I234378
aF274.009
aF36.048
ag10
aS'dejavusans'
p14
aS'#000000'
p15
aF9.0
aI0
aI00
aI00
aI01
aI01
aI01
aI00
aI00
aI00
aa(lp16
I234378
aF293.827
aF36.048
ag10
aS'dejavusans'
p17
aS'#000000'
p18
aF9.0
aI0
aI00
aI00
aI00
aI00
aI00
aI00
aI00
aI00
aa(lp19
I234378
aF305.661
aF36.048
aVp1
p20
aS'dejavusans'
p21
aS'#000000'
p22
aF9.0
aI0
aI01
aI01
aI00
aI00
aI00
aI00
aI00
aI00
aa(lp23
I29523
aF342.129
aF36.048
aVp1
p24
aS'dejavusans'
p25
aS'#000000'
p26
aF9.0
aI0
aI01
aI00
aI00
aI00
aI00
aI00
aI00
aI00
aa(lp27
I234378
aF370.7181428571429
aF36.048
ag24
aS'dejavusans'
p28
aS'#000000'
p29
aF9.0
aI0
aI00
aI00
aI00
aI00
aI00
aI00
aI00
aI00
aa(lp30
I234378
aF378.408
aF36.048
aVp1
p31
aS'dejavusans'
p32
aS'#000000'
p33
aF9.0
aI0
aI01
aI00
aI00
aI00
aI00
aI00
aI00
aI00
aa(lp34
I234378
aF394.41225000000003
aF36.048
ag31
aS'dejavusans'
p35
aS'#000000'
p36
aF9.0
aI0
aI00
aI00
aI00
aI00
aI00
aI00
aI00
aI00
aa(lp37
I62074
aF402.582
aF36.048
aVp1
p38
aS'dejavusans'
p39
aS'#000000'
p40
aF9.0
aI0
aI01
aI00
aI00
aI00
aI00
aI00
aI00
aI00
aa(lp41
I169744
aF431.364
aF36.048
aVp1
p42
aS'dejavusans'
p43
aS'#000000'
p44
aF9.0
aI0
aI01
aI00
aI00
aI00
aI00
aI00
aI00
aI00
aa(lp45
I25230
aF476.517
aF36.048
aVp1
p46
aS'dejavusans'
p47
aS'#000000'
p48
aF9.0
aI0
aI01
aI00
aI00
aI00
aI00
aI00
aI00
aI00
aa(lp49
I234378
aF504.8361428571429
aF36.048
ag46
aS'dejavusans'
p50
aS'#000000'
p51
aF9.0
aI0
aI00
aI00
aI00
aI00
aI00
aI00
aI00
aI00
aa(lp52
I188392
aF512.481
aF36.048
aVp1
p53
aS'dejavusans'
p54
aS'#000000'
p55
aF9.0
aI0
aI01
aI00
aI00
aI00
aI00
aI00
aI00
aI00
aa(lp56
I111618
aF534.765
aF36.048
aVp1
p57
aS'dejavusans'
p58
aS'#000000'
p59
aF9.0
aI0
aI01
aI00
aI00
aI00
aI00
aI00
aI00
aI00
aa(lp60
I234378
aF560.235
aF36.048
aVp1
p61
aS'dejavusans'
p62
aS'#000000'
p63
aF9.0
aI0
aI00
aI00
aI00
aI00
aI00
aI00
aI00
aI00
aa(lp64
I64620
aF564.096
aF36.048
ag61
aS'dejavusans'
p65
aS'#000000'
p66
aF9.0
aI0
aI01
aI01
aI00
aI00
aI00
aI00
aI00
aI00
aa(lp67
I234378
aF567.957
aF36.048
ag61
aS'dejavusans'
p68
aS'#000000'
p69
aF9.0
aI0
aI00
aI00
aI00
aI00
aI00
aI00
aI00
aI00
aa(lp70
I234378
aF571.818
aF36.048
ag61
aS'dejavusans'
p71
aS'#000000'
p72
aF9.0
aI0
aI00
aI00
aI00
aI00
aI00
aI00
aI00
aI00
aa(lp73
I52134
aF503.5
aF46.548
aVp1
p74
aS'dejavusans'
p75
aS'#000000'
p76
aF9.0
aI0
aI01
aI00
aI00
aI00
aI00
aI00
aI00
aI00
aa(lp77
I234378
aF541.66
aF46.548
aVp1
p78
aS'dejavusans'
p79
aS'#000000'
p80
aF9.0
aI0
aI00
aI00
aI01
aI01
aI01
aI00
aI00
aI00
aa(lp81
I234378
aF255.2
aF60.02
aVp1
p82
aS'dejavusans'
p83
aS'#000000'
p84
aF10.0
aI0
aI00
aI00
aI00
aI00
aI00
aI00
aI00
aI00
aa(lp85
I234378
aF261.976
aF60.02
ag82
aS'dejavusans'
p86
aS'#000000'
p87
aF10.0
aI0
aI00
aI00
aI01
aI01
aI01
aI00
aI00
aI00
aa(lp88
I234378
aF273.528
aF60.02
ag82
aS'dejavusans'
p89
aS'#000000'
p90
aF10.0
aI0
aI00
aI00
aI00
aI00
aI00
aI00
aI00
aI00
aa(lp91
I234378
aF290.46
aF60.02
aVp1
p92
aS'dejavusans'
p93
aS'#000000'
p94
aF10.0
aI0
aI00
aI00
aI01
aI01
aI01
aI00
aI00
aI00
aa(lp95
I234378
aF351.02363636363634
aF60.02
ag92
aS'dejavusans'
p96
aS'#000000'
p97
aF10.0
aI0
aI00
aI00
aI00
aI00
aI00
aI00
aI00
aI00
aa(lp98
I234378
aF366.67
aF60.02
aVp1
p99
aS'dejavusans'
p100
aS'#000000'
p101
aF10.0
aI0
aI00
aI00
aI01
aI01
aI01
aI00
aI00
aI00
aa(lp102
I234378
aF439.89
aF60.02
aVp1
p103
aS'dejavusans'
p104
aS'#000000'
p105
aF10.0
aI0
aI00
aI00
aI00
aI00
aI00
aI01
aI00
aI00
aa(lp106
I8740
aF57.4
aF74.72
aVp1
p107
aS'dejavusans'
p108
aS'#000000'
p109
aF10.0
aI0
aI01
aI00
aI00
aI00
aI00
aI00
aI00
aI00
aa(lp110
I144489
aF104.55
aF74.72
aVp1
p111
aS'dejavusans'
p112
aS'#000000'
p113
aF10.0
aI0
aI00
aI00
aI00
aI00
aI00
aI00
aI00
aI00
aa(lp114
I234378
aF120.43
aF74.72
aVp1
p115
aS'dejavusans'
p116
aS'#000000'
p117
aF10.0
aI0
aI00
aI00
aI00
aI00
aI00
aI00
aI00
aI00
aa(lp118
I43052
aF176.78
aF74.72
aVp1
p119
aS'dejavusans'
p120
aS'#000000'
p121
aF10.0
aI0
aI00
aI00
aI00
aI00
aI00
aI00
aI00
aI00
aa(lp122
I234378
aF238.52
aF74.72
aVp1
p123
aS'dejavusans'
p124
aS'#000000'
p125
aF10.0
aI0
aI00
aI00
aI00
aI00
aI00
aI00
aI00
aI00
aa(lp126
I131049
aF284.66
aF74.72
aVp1
p127
aS'dejavusans'
p128
aS'#000000'
p129
aF10.0
aI0
aI00
aI00
aI00
aI00
aI00
aI00
aI00
aI00
aa(lp130
I4526
aF314.14
aF74.72
aVp1
p131
aS'dejavusans'
p132
aS'#000000'
p133
aF10.0
aI0
aI00
aI00
aI00
aI00
aI00
aI00
aI00
aI00
aa(lp134
I89480
aF360.28
aF74.72
aVp1
p135
aS'dejavusans'
p136
aS'#000000'
p137
aF10.0
aI0
aI00
aI00
aI00
aI00
aI00
aI00
aI00
aI00
aa(lp138
I199246
aF376.56
aF74.72
aVp1
p139
aS'dejavusans'
p140
aS'#000000'
p141
aF10.0
aI0
aI00
aI00
aI00
aI00
aI00
aI00
aI00
aI00
aa(lp142
I169745
aF438.6
aF74.72
aVp1
p143
aS'dejavusans'
p144
aS'#000000'
p145
aF10.0
aI0
aI00
aI00
aI00
aI00
aI00
aI00
aI00
aI00
aa(lp146
I60220
aF466.07
aF74.72
aVp1
p147
aS'dejavusans'
p148
aS'#000000'
p149
aF10.0
aI0
aI00
aI00
aI00
aI00
aI00
aI00
aI00
aI00
aa(lp150
I135639
aF527.61
aF74.72
aVp1
p151
aS'dejavusans'
p152
aS'#000000'
p153
aF10.0
aI0
aI00
aI00
aI00
aI00
aI00
aI00
aI00
aI00
aa(lp154
I44084
aF542.98
aF74.72
aVp1
p155
aS'dejavusans'
p156
aS'#000000'
p157
aF10.0
aI0
aI01
aI00
aI00
aI00
aI00
aI00
aI00
aI00
aa(lp158
I234378
aF36.1
aF86.42
aVp1
p159
aS'dejavusans'
p160
aS'#000000'
p161
aF10.0
aI0
aI01
aI00
aI00
aI00
aI00
aI00
aI00
aI00
aa(lp162
I234378
aF83.94
aF86.42
aVp1
p163
aS'dejavusans'
p164
aS'#000000'
p165
aF10.0
aI0
aI01
aI00
aI00
aI00
aI00
aI00
aI00
aI00
aa(lp166
I234378
aF155.48
aF86.42
aVp1
p167
aS'dejavusans'
p168
aS'#000000'
p169
aF10.0
aI0
aI00
aI00
aI00
aI00
aI00
aI00
aI00
aI00
aa(lp170
I234378
aF208.41636363636363
aF86.42
ag167
aS'dejavusans'
p171
aS'#000000'
p172
aF10.0
aI0
aI00
aI00
aI00
aI00
aI00
aI00
aI00
aI00
aa(lp173
I82380
aF217.92
aF86.42
aVp1
p174
aS'dejavusans'
p175
aS'#000000'
p176
aF10.0
aI0
aI01
aI00
aI00
aI00
aI00
aI00
aI00
aI00
aa(lp177
I166593
aF262.06
aF86.42
aVp1
p178
aS'dejavusans'
p179
aS'#000000'
p180
aF10.0
aI0
aI00
aI00
aI00
aI00
aI00
aI00
aI00
aI00
aa(lp181
I230410
aF272.34
aF86.42
aVp1
p182
aS'dejavusans'
p183
aS'#000000'
p184
aF10.0
aI0
aI00
aI00
aI00
aI00
aI00
aI00
aI00
aI00
aa(lp185
I37654
aF316.09
aF86.42
aVp1
p186
aS'dejavusans'
p187
aS'#000000'
p188
aF10.0
aI0
aI00
aI00
aI00
aI00
aI00
aI00
aI00
aI00
aa(lp189
I197030
aF351.05
aF86.42
aVp1
p190
aS'dejavusans'
p191
aS'#000000'
p192
aF10.0
aI0
aI01
aI01
aI00
aI00
aI00
aI00
aI00
aI00
aa(lp193
I33705
aF358.13
aF86.42
aVp1
p194
aS'dejavusans'
p195
aS'#000000'
p196
aF10.0
aI0
aI00
aI00
aI00
aI00
aI00
aI00
aI00
aI00
aa(lp197
I150029
aF380.29
aF86.42
aVp1
p198
aS'dejavusans'
p199
aS'#000000'
p200
aF10.0
aI0
aI00
aI00
aI00
aI00
aI00
aI00
aI00
aI00
aa(lp201
I219882
aF436.03
aF86.42
aVp1
p202
aS'dejavusans'
p203
aS'#000000'
p204
aF10.0
aI0
aI00
aI00
aI00
aI00
aI00
aI00
aI00
aI00
aa(lp205
I127763
aF455.91
aF86.42
aVp1
p206
aS'dejavusans'
p207
aS'#000000'
p208
aF10.0
aI0
aI00
aI00
aI00
aI00
aI00
aI00
aI00
aI00
aa(lp209
I234378
aF507.41700000000003
aF86.42
ag206
aS'dejavusans'
p210
aS'#000000'
p211
aF10.0
aI0
aI00
aI00
aI00
aI00
aI00
aI00
aI00
aI00
aa(lp212
I8625
aF517.45
aF86.42
aVp1
p213
aS'dejavusans'
p214
aS'#000000'
p215
aF10.0
aI0
aI00
aI00
aI00
aI00
aI00
aI00
aI00
aI00
aa(lp216
I85218
aF36.1
aF98.02
aVp1
p217
aS'dejavusans'
p218
aS'#000000'
p219
aF10.0
aI0
aI00
aI00
aI00
aI00
aI00
aI00
aI00
aI00
aa(lp220
I234378
aF58.08
aF98.02
aVp1
p221
aS'dejavusans'
p222
aS'#000000'
p223
aF10.0
aI0
aI00
aI00
aI00
aI00
aI00
aI00
aI00
aI00
aa(lp224
I234378
aF81.77142857142857
aF98.02
ag221
aS'dejavusans'
p225
aS'#000000'
p226
aF10.0
aI0
aI00
aI00
aI00
aI00
aI00
aI00
aI00
aI00
aa(lp227
I72722
aF36.1
aF121.32
aVp1
p228
aS'dejavusans'
p229
aS'#252525'
p230
aF10.0
aI1
aI01
aI00
aI00
aI00
aI00
aI00
aI00
aI00
aa(lp231
I23021
aF109.85
aF121.32
aVp1
p232
aS'dejavusans'
p233
aS'#252525'
p234
aF10.0
aI1
aI01
aI00
aI00
aI00
aI00
aI00
aI00
aI00
aa(lp235
I234378
aF166.8
aF121.32
aVp1
p236
aS'dejavusans'
p237
aS'#000000'
p238
aF10.0
aI1
aI00
aI00
aI00
aI00
aI00
aI00
aI00
aI00
aa(lp239
I234378
aF173.42000000000002
aF121.32
ag236
aS'dejavusans'
p240
aS'#000000'
p241
aF10.0
aI1
aI00
aI00
aI01
aI01
aI00
aI00
aI00
aI00
aa(lp242
I234378
aF190.17
aF121.32
aVp1
p243
aS'dejavusans'
p244
aS'#000000'
p245
aF10.0
aI1
aI00
aI00
aI00
aI00
aI00
aI00
aI00
aI00
aa(lp246
I234378
aF219.71166666666664
aF121.32
ag243
aS'dejavusans'
p247
aS'#000000'
p248
aF10.0
aI1
aI00
aI00
aI00
aI00
aI00
aI00
aI00
aI00
aa(lp249
I230576
aF41.5
aF134.72
aVp1
p250
aS'dejavusans'
p251
aS'#000000'
p252
aF10.0
aI1
aI01
aI01
aI00
aI00
aI00
aI00
aI00
aI00
aa(lp253
I234378
aF45.245
aF134.72
ag250
aS'dejavusans'
p254
aS'#000000'
p255
aF10.0
aI1
aI00
aI00
aI00
aI00
aI00
aI00
aI00
aI00
aa(lp256
I232784
aF56.38
aF134.72
aVp1
p257
aS'dejavusans'
p258
aS'#000000'
p259
aF10.0
aI1
aI01
aI01
aI00
aI00
aI00
aI00
aI00
aI00
aa(lp260
I234378
aF61.025000000000006
aF134.72
ag257
aS'dejavusans'
p261
aS'#000000'
p262
aF10.0
aI1
aI00
aI00
aI00
aI00
aI00
aI00
aI00
aI00
aa(lp263
I31016
aF73.06
aF134.72
aVp1
p264
aS'dejavusans'
p265
aS'#000000'
p266
aF10.0
aI1
aI01
aI00
aI00
aI00
aI00
aI00
aI00
aI00
aa(lp267
I234378
aF123.21
aF134.72
aVp1
p268
aS'dejavusans'
p269
aS'#000000'
p270
aF10.0
aI1
aI01
aI00
aI00
aI00
aI00
aI00
aI00
aI00
aa(lp271
I164802
aF178.06
aF134.72
aVp1
p272
aS'dejavusans'
p273
aS'#000000'
p274
aF10.0
aI1
aI01
aI00
aI00
aI00
aI00
aI00
aI00
aI00
aa(lp275
I234378
aF213.53
aF134.72
aVp1
p276
aS'dejavusans'
p277
aS'#000000'
p278
aF10.0
aI1
aI01
aI00
aI00
aI00
aI00
aI00
aI00
aI00
aa(lp279
I234378
aF230.315
aF134.72
ag276
aS'dejavusans'
p280
aS'#000000'
p281
aF10.0
aI1
aI00
aI00
aI00
aI00
aI00
aI00
aI00
aI00
aa(lp282
I234378
aF41.5
aF146.42
aVp1
p283
aS'dejavusans'
p284
aS'#000000'
p285
aF10.0
aI1
aI01
aI00
aI00
aI00
aI00
aI00
aI00
aI00
aa(lp286
I234378
aF57.016
aF146.42
ag283
aS'dejavusans'
p287
aS'#000000'
p288
aF10.0
aI1
aI00
aI00
aI00
aI00
aI00
aI00
aI00
aI00
aa(lp289
I234378
aF62.187999999999995
aF146.42
ag283
aS'dejavusans'
p290
aS'#000000'
p291
aF10.0
aI1
aI00
aI00
aI00
aI00
aI00
aI00
aI00
aI00
aa(lp292
I234378
aF70.85
aF146.42
aVp1
p293
aS'dejavusans'
p294
aS'#000000'
p295
aF10.0
aI1
aI01
aI00
aI00
aI00
aI00
aI00
aI00
aI00
aa(lp296
I234378
aF364.9
aF134.72
aVp1
p297
aS'dejavusans'
p298
aS'#000000'
p299
aF10.0
aI0
aI01
aI00
aI00
aI00
aI00
aI00
aI00
aI01
aa(lp300
I234378
aF380.17
aF134.72
aVp1
p301
aS'dejavusans'
p302
aS'#000000'
p303
aF10.0
aI0
aI00
aI00
aI01
aI01
aI01
aI00
aI00
aI00
aa(lp304
I16334
aF404.15
aF134.72
aVp1
p305
aS'dejavusans'
p306
aS'#000000'
p307
aF10.0
aI0
aI01
aI00
aI00
aI00
aI00
aI00
aI00
aI00
aa(lp308
I102117
aF417.94
aF134.72
aVp1
p309
aS'dejavusans'
p310
aS'#000000'
p311
aF10.0
aI0
aI00
aI00
aI00
aI00
aI00
aI00
aI00
aI00
aa(lp312
I123665
aF466.8
aF134.72
aVp1
p313
aS'dejavusans'
p314
aS'#000000'
p315
aF10.0
aI1
aI01
aI00
aI00
aI00
aI00
aI00
aI00
aI00
aa(lp316
I100815
aF466.8
aF146.42
aVp1
p317
aS'dejavusans'
p318
aS'#000000'
p319
aF10.0
aI1
aI01
aI00
aI00
aI00
aI00
aI00
aI00
aI00
aa(lp320
I123583
aF41.5
aF158.02
aVp1
p321
aS'dejavusans'
p322
aS'#000000'
p323
aF10.0
aI0
aI01
aI00
aI00
aI00
aI00
aI00
aI00
aI00
aa(lp324
I16331
aF86.35
aF158.02
aVp1
p325
aS'dejavusans'
p326
aS'#000000'
p327
aF10.0
aI0
aI00
aI00
aI00
aI00
aI00
aI00
aI00
aI00
aa(lp328
I145945
aF101.73
aF158.02
aVp1
p329
aS'dejavusans'
p330
aS'#000000'
p331
aF10.0
aI0
aI01
aI00
aI00
aI00
aI00
aI00
aI00
aI00
aa(lp332
I178237
aF154.47
aF158.02
aVp1
p333
aS'dejavusans'
p334
aS'#000000'
p335
aF10.0
aI0
aI01
aI00
aI00
aI00
aI00
aI00
aI00
aI00
aa(lp336
I234378
aF209.59833333333333
aF158.02
ag333
aS'dejavusans'
p337
aS'#000000'
p338
aF10.0
aI0
aI00
aI00
aI00
aI00
aI00
aI00
aI00
aI00
aa(lp339
I197030
aF218.72
aF158.02
aVp1
p340
aS'dejavusans'
p341
aS'#000000'
p342
aF10.0
aI0
aI01
aI01
aI00
aI00
aI00
aI00
aI00
aI00
aa(lp343
I16326
aF225.7
aF158.02
aVp1
p344
aS'dejavusans'
p345
aS'#000000'
p346
aF10.0
aI0
aI00
aI00
aI00
aI00
aI00
aI00
aI00
aI00
aa(lp347
I90127
aF245.67
aF158.02
aVp1
p348
aS'dejavusans'
p349
aS'#000000'
p350
aF10.0
aI0
aI00
aI00
aI00
aI00
aI00
aI00
aI00
aI00
aa(lp351
I89480
aF307.01
aF158.02
aVp1
p352
aS'dejavusans'
p353
aS'#000000'
p354
aF10.0
aI0
aI00
aI00
aI00
aI00
aI00
aI00
aI00
aI00
aa(lp355
I20993
aF321.09
aF158.02
aVp1
p356
aS'dejavusans'
p357
aS'#000000'
p358
aF10.0
aI0
aI00
aI00
aI00
aI00
aI00
aI00
aI00
aI00
aa(lp359
I234378
aF345.67
aF158.02
aVp1
p360
aS'dejavusans'
p361
aS'#000000'
p362
aF10.0
aI0
aI00
aI00
aI00
aI00
aI00
aI00
aI00
aI00
aa(lp363
I131049
aF417.89
aF158.02
aVp1
p364
aS'dejavusans'
p365
aS'#000000'
p366
aF10.0
aI0
aI00
aI00
aI00
aI00
aI00
aI00
aI00
aI00
aa(lp367
I166245
aF445.26
aF158.02
aVp1
p368
aS'dejavusans'
p369
aS'#000000'
p370
aF10.0
aI0
aI01
aI00
aI00
aI00
aI00
aI00
aI00
aI00
aa(lp371
I234378
aF493.31
aF158.02
aVp1
p372
aS'dejavusans'
p373
aS'#000000'
p374
aF10.0
aI0
aI01
aI00
aI00
aI00
aI00
aI00
aI00
aI00
aa(lp375
I15726
aF539.77
aF158.02
aVp1
p376
aS'dejavusans'
p377
aS'#000000'
p378
aF10.0
aI0
aI00
aI00
aI00
aI00
aI00
aI00
aI00
aI00
aa(lp379
I166593
aF562.94
aF158.02
aVp1
p380
aS'dejavusans'
p381
aS'#000000'
p382
aF10.0
aI0
aI00
aI00
aI00
aI00
aI00
aI00
aI00
aI00
aa(lp383
I123583
aF41.5
aF169.72
aVp1
p384
aS'dejavusans'
p385
aS'#000000'
p386
aF10.0
aI0
aI00
aI00
aI00
aI00
aI00
aI00
aI00
aI00
aa(lp387
I234378
aF84.35
aF169.72
aVp1
p388
aS'dejavusans'
p389
aS'#000000'
p390
aF10.0
aI0
aI01
aI00
aI00
aI00
aI00
aI00
aI00
aI00
aa(lp391
I234378
aF126.25222222222222
aF169.72
ag388
aS'dejavusans'
p392
aS'#000000'
p393
aF10.0
aI0
aI00
aI00
aI00
aI00
aI00
aI00
aI00
aI00
aa(lp394
I131049
aF134.7
aF169.72
aVp1
p395
aS'dejavusans'
p396
aS'#000000'
p397
aF10.0
aI0
aI01
aI00
aI00
aI00
aI00
aI00
aI00
aI00
aa(lp398
I234378
aF162.58
aF169.72
aVp1
p399
aS'dejavusans'
p400
aS'#000000'
p401
aF10.0
aI0
aI00
aI00
aI00
aI00
aI00
aI00
aI00
aI00
aa(lp402
I89480
aF199.14
aF169.72
aVp1
p403
aS'dejavusans'
p404
aS'#000000'
p405
aF10.0
aI0
aI00
aI00
aI00
aI00
aI00
aI00
aI00
aI00
aa(lp406
I234378
aF212.33
aF169.72
aVp1
p407
aS'dejavusans'
p408
aS'#000000'
p409
aF10.0
aI0
aI00
aI00
aI00
aI00
aI00
aI00
aI00
aI00
aa(lp410
I144483
aF280.48
aF169.72
aVp1
p411
aS'dejavusans'
p412
aS'#000000'
p413
aF10.0
aI0
aI00
aI00
aI00
aI00
aI00
aI00
aI00
aI00
aa(lp414
I174268
aF296.16
aF169.72
aVp1
p415
aS'dejavusans'
p416
aS'#000000'
p417
aF10.0
aI0
aI00
aI00
aI00
aI00
aI00
aI00
aI00
aI00
aa(lp418
I121847
aF335.84
aF169.72
aVp1
p419
aS'dejavusans'
p420
aS'#000000'
p421
aF10.0
aI0
aI00
aI00
aI00
aI00
aI00
aI00
aI00
aI00
aa(lp422
I234378
aF358.22
aF169.72
aVp1
p423
aS'dejavusans'
p424
aS'#000000'
p425
aF10.0
aI0
aI00
aI00
aI00
aI00
aI00
aI00
aI00
aI00
aa(lp426
I234378
aF424.70000000000005
aF169.72
ag423
aS'dejavusans'
p427
aS'#000000'
p428
aF10.0
aI0
aI00
aI00
aI00
aI00
aI00
aI00
aI00
aI00
aa(lp429
I217158
aF50.0
aF183.32
aVp1
p430
aS'dejavusans'
p431
aS'#000000'
p432
aF10.0
aI0
aI01
aI00
aI00
aI00
aI00
aI00
aI00
aI00
aa(lp433
I16968
aF88.57
aF183.32
aVp1
p434
aS'dejavusans'
p435
aS'#000000'
p436
aF10.0
aI0
aI01
aI00
aI00
aI00
aI00
aI00
aI00
aI00
aa(lp437
I234378
aF118.84
aF183.32
aVp1
p438
aS'dejavusans'
p439
aS'#000000'
p440
aF10.0
aI0
aI01
aI00
aI00
aI00
aI00
aI00
aI00
aI00
aa(lp441
I17350
aF181.47
aF183.32
aVp1
p442
aS'dejavusans'
p443
aS'#000000'
p444
aF10.0
aI0
aI01
aI00
aI00
aI00
aI00
aI00
aI00
aI00
aa(lp445
I35885
aF209.34
aF183.32
aVp1
p446
aS'dejavusans'
p447
aS'#000000'
p448
aF10.0
aI0
aI00
aI00
aI00
aI00
aI00
aI00
aI00
aI00
aa(lp449
I123665
aF245.61
aF183.32
aVp1
p450
aS'dejavusans'
p451
aS'#000000'
p452
aF10.0
aI0
aI00
aI00
aI00
aI00
aI00
aI00
aI00
aI00
aa(lp453
I89480
aF306.74
aF183.32
aVp1
p454
aS'dejavusans'
p455
aS'#000000'
p456
aF10.0
aI0
aI00
aI00
aI00
aI00
aI00
aI00
aI00
aI00
aa(lp457
I54053
aF322.82
aF183.32
aVp1
p458
aS'dejavusans'
p459
aS'#000000'
p460
aF10.0
aI0
aI00
aI00
aI00
aI00
aI00
aI00
aI00
aI00
aa(lp461
I186242
aF372.46
aF183.32
aVp1
p462
aS'dejavusans'
p463
aS'#000000'
p464
aF10.0
aI0
aI01
aI00
aI00
aI00
aI00
aI00
aI00
aI00
aa(lp465
I164858
aF403.73
aF183.32
aVp1
p466
aS'dejavusans'
p467
aS'#000000'
p468
aF10.0
aI0
aI00
aI00
aI00
aI00
aI00
aI00
aI00
aI00
aa(lp469
I234378
aF437.19
aF183.32
aVp1
p470
aS'dejavusans'
p471
aS'#000000'
p472
aF10.0
aI0
aI00
aI00
aI00
aI00
aI00
aI00
aI00
aI00
aa(lp473
I46177
aF497.83
aF183.32
aVp1
p474
aS'dejavusans'
p475
aS'#000000'
p476
aF10.0
aI0
aI00
aI00
aI00
aI00
aI00
aI00
aI00
aI00
aa(lp477
I72784
aF529.59
aF183.32
aVp1
p478
aS'dejavusans'
p479
aS'#000000'
p480
aF10.0
aI0
aI00
aI00
aI00
aI00
aI00
aI00
aI00
aI00
aa(lp481
I98224
aF50.0
aF195.72
aVp1
p482
aS'dejavusans'
p483
aS'#000000'
p484
aF10.0
aI0
aI00
aI00
aI00
aI00
aI00
aI00
aI00
aI00
aa(lp485
I190806
aF91.17
aF195.72
aVp1
p486
aS'dejavusans'
p487
aS'#000000'
p488
aF10.0
aI0
aI00
aI00
aI00
aI00
aI00
aI00
aI00
aI00
aa(lp489
I83140
aF108.06
aF195.72
aVp1
p490
aS'dejavusans'
p491
aS'#000000'
p492
aF10.0
aI0
aI01
aI00
aI00
aI00
aI00
aI00
aI00
aI00
aa(lp493
I234378
aF146.12
aF195.72
aVp1
p494
aS'dejavusans'
p495
aS'#000000'
p496
aF10.0
aI0
aI01
aI00
aI00
aI00
aI00
aI00
aI00
aI00
aa(lp497
I234378
aF184.05125
aF195.72
ag494
aS'dejavusans'
p498
aS'#000000'
p499
aF10.0
aI0
aI00
aI00
aI00
aI00
aI00
aI00
aI00
aI00
aa(lp500
I187786
aF192.59
aF195.72
aVp1
p501
aS'dejavusans'
p502
aS'#000000'
p503
aF10.0
aI0
aI00
aI00
aI00
aI00
aI00
aI00
aI00
aI00
aa(lp504
I175989
aF218.86
aF195.72
aVp1
p505
aS'dejavusans'
p506
aS'#000000'
p507
aF10.0
aI0
aI00
aI00
aI00
aI00
aI00
aI00
aI00
aI00
aa(lp508
I209115
aF242.34
aF195.72
aVp1
p509
aS'dejavusans'
p510
aS'#000000'
p511
aF10.0
aI0
aI00
aI00
aI00
aI00
aI00
aI00
aI00
aI00
aa(lp512
I234378
aF265.02
aF195.72
aVp1
p513
aS'dejavusans'
p514
aS'#000000'
p515
aF10.0
aI0
aI00
aI00
aI00
aI00
aI00
aI00
aI00
aI00
aa(lp516
I221393
aF319.07
aF195.72
aVp1
p517
aS'dejavusans'
p518
aS'#000000'
p519
aF10.0
aI0
aI00
aI00
aI00
aI00
aI00
aI00
aI00
aI00
aa(lp520
I141063
aF336.95
aF195.72
aVp1
p521
aS'dejavusans'
p522
aS'#000000'
p523
aF10.0
aI0
aI01
aI00
aI00
aI00
aI00
aI00
aI00
aI00
aa(lp524
I164858
aF373.11
aF195.72
aVp1
p525
aS'dejavusans'
p526
aS'#000000'
p527
aF10.0
aI0
aI01
aI00
aI00
aI00
aI00
aI00
aI00
aI00
aa(lp528
I234378
aF400.83000000000004
aF195.72
ag525
aS'dejavusans'
p529
aS'#000000'
p530
aF10.0
aI0
aI00
aI00
aI00
aI00
aI00
aI00
aI00
aI00
aa(lp531
I234378
aF50.0
aF209.42
aVp1
p532
aS'dejavusans'
p533
aS'#000000'
p534
aF10.0
aI0
aI01
aI01
aI00
aI00
aI00
aI00
aI00
aI00
aa(lp535
I38609
aF83.58
aF209.42
aVp1
p536
aS'dejavusans'
p537
aS'#000000'
p538
aF10.0
aI0
aI01
aI00
aI00
aI00
aI00
aI00
aI00
aI00
aa(lp539
I144489
aF106.46
aF209.42
aVp1
p540
aS'dejavusans'
p541
aS'#000000'
p542
aF10.0
aI0
aI00
aI00
aI00
aI00
aI00
aI00
aI00
aI00
aa(lp543
I141063
aF119.25
aF209.42
aVp1
p544
aS'dejavusans'
p545
aS'#000000'
p546
aF10.0
aI0
aI01
aI00
aI00
aI00
aI00
aI00
aI00
aI00
aa(lp547
I164858
aF155.41
aF209.42
aVp1
p548
aS'dejavusans'
p549
aS'#000000'
p550
aF10.0
aI0
aI00
aI00
aI00
aI00
aI00
aI00
aI00
aI00
aa(lp551
I234378
aF185.98
aF209.42
aVp1
p552
aS'dejavusans'
p553
aS'#000000'
p554
aF10.0
aI0
aI00
aI00
aI00
aI00
aI00
aI00
aI00
aI00
aa(lp555
I35885
aF213.26
aF209.42
aVp1
p556
aS'dejavusans'
p557
aS'#000000'
p558
aF10.0
aI0
aI00
aI00
aI00
aI00
aI00
aI00
aI00
aI00
aa(lp559
I144483
aF246.63
aF209.42
aVp1
p560
aS'dejavusans'
p561
aS'#000000'
p562
aF10.0
aI0
aI00
aI00
aI00
aI00
aI00
aI00
aI00
aI00
aa(lp563
I234378
aF262.22
aF209.42
aVp1
p564
aS'dejavusans'
p565
aS'#000000'
p566
aF10.0
aI0
aI00
aI00
aI00
aI00
aI00
aI00
aI00
aI00
aa(lp567
I89480
aF302.28
aF209.42
aVp1
p568
aS'dejavusans'
p569
aS'#000000'
p570
aF10.0
aI0
aI00
aI00
aI00
aI00
aI00
aI00
aI00
aI00
aa(lp571
I193015
aF315.47
aF209.42
aVp1
p572
aS'dejavusans'
p573
aS'#000000'
p574
aF10.0
aI0
aI00
aI00
aI00
aI00
aI00
aI00
aI00
aI00
aa(lp575
I111804
aF344.54
aF209.42
aVp1
p576
aS'dejavusans'
p577
aS'#000000'
p578
aF10.0
aI0
aI00
aI00
aI00
aI00
aI00
aI00
aI00
aI00
aa(lp579
I234378
aF382.21
aF209.42
aVp1
p580
aS'dejavusans'
p581
aS'#000000'
p582
aF10.0
aI0
aI00
aI00
aI00
aI00
aI00
aI00
aI00
aI00
aa(lp583
I144489
aF439.25
aF209.42
aVp1
p584
aS'dejavusans'
p585
aS'#000000'
p586
aF10.0
aI0
aI00
aI00
aI00
aI00
aI00
aI00
aI00
aI00
aa(lp587
I217158
aF452.04
aF209.42
aVp1
p588
aS'dejavusans'
p589
aS'#000000'
p590
aF10.0
aI0
aI01
aI00
aI00
aI00
aI00
aI00
aI00
aI00
aa(lp591
I16968
aF487.7
aF209.42
aVp1
p592
aS'dejavusans'
p593
aS'#000000'
p594
aF10.0
aI0
aI01
aI00
aI00
aI00
aI00
aI00
aI00
aI00
aa(lp595
I234378
aF515.08
aF209.42
aVp1
p596
aS'dejavusans'
p597
aS'#000000'
p598
aF10.0
aI0
aI00
aI00
aI00
aI00
aI00
aI00
aI00
aI00
aa(lp599
I234378
aF546.615
aF209.42
ag596
aS'dejavusans'
p600
aS'#000000'
p601
aF10.0
aI0
aI00
aI00
aI00
aI00
aI00
aI00
aI00
aI00
aa(lp602
I64620
aF50.0
aF223.82
aVp1
p603
aS'dejavusans'
p604
aS'#000000'
p605
aF10.0
aI0
aI01
aI01
aI00
aI00
aI00
aI00
aI00
aI00
aa(lp606
I234378
aF55.988
aF223.82
ag603
aS'dejavusans'
p607
aS'#000000'
p608
aF10.0
aI0
aI01
aI01
aI00
aI00
aI00
aI00
aI00
aI00
aa(lp609
I17350
aF87.07
aF223.82
aVp1
p610
aS'dejavusans'
p611
aS'#000000'
p612
aF10.0
aI0
aI01
aI00
aI00
aI00
aI00
aI00
aI00
aI00
aa(lp613
I35885
aF112.34
aF223.82
aVp1
p614
aS'dejavusans'
p615
aS'#000000'
p616
aF10.0
aI0
aI00
aI00
aI00
aI00
aI00
aI00
aI00
aI00
aa(lp617
I156028
aF146.01
aF223.82
aVp1
p618
aS'dejavusans'
p619
aS'#000000'
p620
aF10.0
aI0
aI00
aI00
aI00
aI00
aI00
aI00
aI00
aI00
aa(lp621
I234378
aF163.658
aF223.82
ag618
aS'dejavusans'
p622
aS'#000000'
p623
aF10.0
aI0
aI00
aI00
aI00
aI00
aI00
aI00
aI00
aI00
aa(lp624
I218914
aF171.58
aF223.82
aVp1
p625
aS'dejavusans'
p626
aS'#000000'
p627
aF10.0
aI0
aI00
aI00
aI00
aI00
aI00
aI00
aI00
aI00
aa(lp628
I34704
aF204.23
aF223.82
aVp1
p629
aS'dejavusans'
p630
aS'#000000'
p631
aF10.0
aI0
aI00
aI00
aI00
aI00
aI00
aI00
aI00
aI00
aa(lp632
I112505
aF229.29
aF223.82
aVp1
p633
aS'dejavusans'
p634
aS'#000000'
p635
aF10.0
aI0
aI00
aI00
aI00
aI00
aI00
aI00
aI00
aI00
aa(lp636
I109680
aF279.54
aF223.82
aVp1
p637
aS'dejavusans'
p638
aS'#000000'
p639
aF10.0
aI0
aI00
aI00
aI00
aI00
aI00
aI00
aI00
aI00
aa(lp640
I51933
aF312.1
aF223.82
aVp1
p641
aS'dejavusans'
p642
aS'#000000'
p643
aF10.0
aI0
aI00
aI00
aI00
aI00
aI00
aI00
aI00
aI00
aa(lp644
I234378
aF339.87
aF223.82
aVp1
p645
aS'dejavusans'
p646
aS'#000000'
p647
aF10.0
aI0
aI00
aI00
aI00
aI00
aI00
aI00
aI00
aI00
aa(lp648
I89480
aF385.22
aF223.82
aVp1
p649
aS'dejavusans'
p650
aS'#000000'
p651
aF10.0
aI0
aI00
aI00
aI00
aI00
aI00
aI00
aI00
aI00
aa(lp652
I213747
aF398.7
aF223.82
aVp1
p653
aS'dejavusans'
p654
aS'#000000'
p655
aF10.0
aI0
aI00
aI00
aI00
aI00
aI00
aI00
aI00
aI00
aa(lp656
I15429
aF414.06
aF223.82
aVp1
p657
aS'dejavusans'
p658
aS'#000000'
p659
aF10.0
aI0
aI00
aI00
aI00
aI00
aI00
aI00
aI00
aI00
aa(lp660
I11352
aF430.24
aF223.82
aVp1
p661
aS'dejavusans'
p662
aS'#000000'
p663
aF10.0
aI0
aI01
aI00
aI00
aI00
aI00
aI00
aI00
aI00
aa(lp664
I224850
aF483.77
aF223.82
aVp1
p665
aS'dejavusans'
p666
aS'#000000'
p667
aF10.0
aI0
aI00
aI00
aI00
aI00
aI00
aI00
aI00
aI00
aa(lp668
I190806
aF555.71
aF223.82
aVp1
p669
aS'dejavusans'
p670
aS'#000000'
p671
aF10.0
aI0
aI00
aI00
aI00
aI00
aI00
aI00
aI00
aI00
aa(lp672
I234378
aF50.0
aF236.22
aVp1
p673
aS'dejavusans'
p674
aS'#000000'
p675
aF10.0
aI0
aI01
aI00
aI00
aI00
aI00
aI00
aI00
aI00
aa(lp676
I234378
aF94.145
aF236.22
ag673
aS'dejavusans'
p677
aS'#000000'
p678
aF10.0
aI0
aI00
aI00
aI00
aI00
aI00
aI00
aI00
aI00
aa(lp679
I234378
aF41.5
aF263.52
aVp1
p680
aS'dejavusans'
p681
aS'#000000'
p682
aF10.0
aI1
aI01
aI00
aI00
aI00
aI00
aI00
aI00
aI00
aa(lp683
I234378
aF77.77
aF263.52
aVp1
p684
aS'dejavusans'
p685
aS'#000000'
p686
aF10.0
aI1
aI01
aI00
aI00
aI00
aI00
aI00
aI00
aI00
aa(lp687
I234378
aF123.16555555555556
aF263.52
ag684
aS'dejavusans'
p688
aS'#000000'
p689
aF10.0
aI1
aI00
aI00
aI00
aI00
aI00
aI00
aI00
aI00
aa(lp690
I234378
aF132.33
aF263.52
aVp1
p691
aS'dejavusans'
p692
aS'#000000'
p693
aF10.0
aI1
aI01
aI00
aI00
aI00
aI00
aI00
aI00
aI00
aa(lp694
I234378
aF385.2
aF263.52
aVp1
p695
aS'dejavusans'
p696
aS'#000000'
p697
aF10.0
aI0
aI01
aI00
aI00
aI00
aI00
aI00
aI00
aI01
aa(lp698
I234378
aF400.37
aF263.52
aVp1
p699
aS'dejavusans'
p700
aS'#000000'
p701
aF10.0
aI0
aI00
aI00
aI01
aI01
aI01
aI00
aI00
aI00
aa(lp702
I27216
aF424.44
aF263.52
aVp1
p703
aS'dejavusans'
p704
aS'#000000'
p705
aF10.0
aI0
aI01
aI00
aI00
aI00
aI00
aI00
aI00
aI01
aa(lp706
I234378
aF443.22
aF263.52
aVp1
p707
aS'dejavusans'
p708
aS'#000000'
p709
aF10.0
aI0
aI00
aI00
aI01
aI01
aI01
aI00
aI00
aI00
aa(lp710
I234378
aF466.8
aF263.52
aVp1
p711
aS'dejavusans'
p712
aS'#000000'
p713
aF10.0
aI1
aI01
aI00
aI00
aI00
aI00
aI00
aI00
aI00
aa(lp714
I132100
aF466.8
aF275.12
aVp1
p715
aS'dejavusans'
p716
aS'#000000'
p717
aF10.0
aI1
aI01
aI00
aI00
aI00
aI00
aI00
aI00
aI00
aa(lp718
I197030
aF41.5
aF286.82
aVp1
p719
aS'dejavusans'
p720
aS'#000000'
p721
aF10.0
aI0
aI01
aI01
aI00
aI00
aI00
aI00
aI00
aI00
aa(lp722
I156038
aF47.68
aF286.82
aVp1
p723
aS'dejavusans'
p724
aS'#000000'
p725
aF10.0
aI0
aI00
aI00
aI00
aI00
aI00
aI00
aI00
aI00
aa(lp726
I38609
aF72.86
aF286.82
aVp1
p727
aS'dejavusans'
p728
aS'#000000'
p729
aF10.0
aI0
aI00
aI00
aI00
aI00
aI00
aI00
aI00
aI00
aa(lp730
I135639
aF96.54
aF286.82
aVp1
p731
aS'dejavusans'
p732
aS'#000000'
p733
aF10.0
aI0
aI00
aI00
aI00
aI00
aI00
aI00
aI00
aI00
aa(lp734
I117435
aF108.92
aF286.82
aVp1
p735
aS'dejavusans'
p736
aS'#000000'
p737
aF10.0
aI0
aI00
aI00
aI00
aI00
aI00
aI00
aI00
aI00
aa(lp738
I85218
aF160.66
aF286.82
aVp1
p739
aS'dejavusans'
p740
aS'#000000'
p741
aF10.0
aI0
aI00
aI00
aI00
aI00
aI00
aI00
aI00
aI00
aa(lp742
I127387
aF182.74
aF286.82
aVp1
p743
aS'dejavusans'
p744
aS'#000000'
p745
aF10.0
aI0
aI00
aI00
aI00
aI00
aI00
aI00
aI00
aI00
aa(lp746
I86794
aF239.78
aF286.82
aVp1
p747
aS'dejavusans'
p748
aS'#000000'
p749
aF10.0
aI0
aI00
aI00
aI00
aI00
aI00
aI00
aI00
aI00
aa(lp750
I204810
aF279.84
aF286.82
aVp1
p751
aS'dejavusans'
p752
aS'#000000'
p753
aF10.0
aI0
aI00
aI00
aI00
aI00
aI00
aI00
aI00
aI00
aa(lp754
I135639
aF319.1
aF286.82
aVp1
p755
aS'dejavusans'
p756
aS'#000000'
p757
aF10.0
aI0
aI00
aI00
aI00
aI00
aI00
aI00
aI00
aI00
aa(lp758
I63022
aF331.47
aF286.82
aVp1
p759
aS'dejavusans'
p760
aS'#000000'
p761
aF10.0
aI0
aI00
aI00
aI00
aI00
aI00
aI00
aI00
aI00
aa(lp762
I135639
aF373.13
aF286.82
aVp1
p763
aS'dejavusans'
p764
aS'#000000'
p765
aF10.0
aI0
aI00
aI00
aI00
aI00
aI00
aI00
aI00
aI00
aa(lp766
I234378
aF385.41
aF286.82
aVp1
p767
aS'dejavusans'
p768
aS'#000000'
p769
aF10.0
aI0
aI00
aI00
aI00
aI00
aI00
aI00
aI00
aI00
aa(lp770
I144489
aF417.58
aF286.82
aVp1
p771
aS'dejavusans'
p772
aS'#000000'
p773
aF10.0
aI0
aI00
aI00
aI00
aI00
aI00
aI00
aI00
aI00
aa(lp774
I17350
aF430.47
aF286.82
aVp1
p775
aS'dejavusans'
p776
aS'#000000'
p777
aF10.0
aI0
aI01
aI00
aI00
aI00
aI00
aI00
aI00
aI00
aa(lp778
I234378
aF455.44
aF286.82
aVp1
p779
aS'dejavusans'
p780
aS'#000000'
p781
aF10.0
aI0
aI01
aI00
aI00
aI00
aI00
aI00
aI00
aI00
aa(lp782
I144503
aF500.8
aF286.82
aVp1
p783
aS'dejavusans'
p784
aS'#000000'
p785
aF10.0
aI0
aI00
aI00
aI00
aI00
aI00
aI00
aI00
aI00
aa(lp786
I141687
aF514.19
aF286.82
aVp1
p787
aS'dejavusans'
p788
aS'#000000'
p789
aF10.0
aI0
aI00
aI00
aI00
aI00
aI00
aI00
aI00
aI00
aa(lp790
I169745
aF41.5
aF298.42
aVp1
p791
aS'dejavusans'
p792
aS'#000000'
p793
aF10.0
aI0
aI00
aI00
aI00
aI00
aI00
aI00
aI00
aI00
aa(lp794
I234378
aF65.87
aF298.42
aVp1
p795
aS'dejavusans'
p796
aS'#000000'
p797
aF10.0
aI0
aI00
aI00
aI01
aI01
aI00
aI00
aI00
aI00
aa(lp798
I234378
aF72.3
aF298.418
aVp1
p799
aS'dejavusans'
p800
aS'#000000'
p801
aF5.8
aI0
aI00
aI00
aI00
aI00
aI00
aI00
aI00
aI00
aa(lp802
I182558
aF81.39
aF298.42
aVp1
p803
aS'dejavusans'
p804
aS'#000000'
p805
aF10.0
aI0
aI00
aI00
aI00
aI00
aI00
aI00
aI00
aI00
aa(lp806
I156028
aF110.97
aF298.42
aVp1
p807
aS'dejavusans'
p808
aS'#000000'
p809
aF10.0
aI0
aI00
aI00
aI00
aI00
aI00
aI00
aI00
aI00
aa(lp810
I234378
aF128.618
aF298.42
ag807
aS'dejavusans'
p811
aS'#000000'
p812
aF10.0
aI0
aI00
aI00
aI00
aI00
aI00
aI00
aI00
aI00
aa(lp813
I64620
aF50.0
aF310.12
aVp1
p814
aS'dejavusans'
p815
aS'#000000'
p816
aF10.0
aI0
aI01
aI01
aI00
aI00
aI00
aI00
aI00
aI00
aa(lp817
I200640
aF56.675384615384615
aF310.12
ag814
aS'dejavusans'
p818
aS'#000000'
p819
aF10.0
aI0
aI01
aI00
aI00
aI00
aI00
aI00
aI00
aI00
aa(lp820
I22476
aF140.87
aF310.12
aVp1
p821
aS'dejavusans'
p822
aS'#000000'
p823
aF10.0
aI0
aI01
aI00
aI00
aI00
aI00
aI00
aI00
aI00
aa(lp824
I234378
aF153.74
aF310.12
aVp1
p825
aS'dejavusans'
p826
aS'#000000'
p827
aF10.0
aI0
aI00
aI00
aI00
aI00
aI00
aI00
aI00
aI00
aa(lp828
I234378
aF193.8
aF310.12
aVp1
p829
aS'dejavusans'
p830
aS'#000000'
p831
aF10.0
aI0
aI00
aI00
aI00
aI00
aI00
aI00
aI00
aI00
aa(lp832
I89480
aF233.86
aF310.12
aVp1
p833
aS'dejavusans'
p834
aS'#000000'
p835
aF10.0
aI0
aI00
aI00
aI00
aI00
aI00
aI00
aI00
aI00
aa(lp836
I29502
aF249.94
aF310.12
aVp1
p837
aS'dejavusans'
p838
aS'#000000'
p839
aF10.0
aI0
aI00
aI00
aI00
aI00
aI00
aI00
aI00
aI00
aa(lp840
I204917
aF286.31
aF310.12
aVp1
p841
aS'dejavusans'
p842
aS'#000000'
p843
aF10.0
aI0
aI00
aI00
aI00
aI00
aI00
aI00
aI00
aI00
aa(lp844
I190806
aF321.38
aF310.12
aVp1
p845
aS'dejavusans'
p846
aS'#000000'
p847
aF10.0
aI0
aI00
aI00
aI00
aI00
aI00
aI00
aI00
aI00
aa(lp848
I218852
aF341.16
aF310.12
aVp1
p849
aS'dejavusans'
p850
aS'#000000'
p851
aF10.0
aI0
aI00
aI00
aI00
aI00
aI00
aI00
aI00
aI00
aa(lp852
I234378
aF370.42
aF310.12
aVp1
p853
aS'dejavusans'
p854
aS'#000000'
p855
aF10.0
aI0
aI00
aI00
aI00
aI00
aI00
aI00
aI00
aI00
aa(lp856
I234378
aF423.4563636363637
aF310.12
ag853
aS'dejavusans'
p857
aS'#000000'
p858
aF10.0
aI0
aI00
aI00
aI00
aI00
aI00
aI00
aI00
aI00
aa(lp859
I69324
aF434.87
aF310.12
aVp1
p860
aS'dejavusans'
p861
aS'#000000'
p862
aF10.0
aI0
aI01
aI00
aI00
aI00
aI00
aI00
aI00
aI00
aa(lp863
I85218
aF482.02
aF310.12
aVp1
p864
aS'dejavusans'
p865
aS'#000000'
p866
aF10.0
aI0
aI00
aI00
aI00
aI00
aI00
aI00
aI00
aI00
aa(lp867
I167810
aF506.8
aF310.12
aVp1
p868
aS'dejavusans'
p869
aS'#000000'
p870
aF10.0
aI0
aI00
aI00
aI00
aI00
aI00
aI00
aI00
aI00
aa(lp871
I111915
aF541.66
aF310.12
aVp1
p872
aS'dejavusans'
p873
aS'#000000'
p874
aF10.0
aI0
aI00
aI00
aI00
aI00
aI00
aI00
aI00
aI00
aa(lp875
I38740
aF50.0
aF322.52
aVp1
p876
aS'dejavusans'
p877
aS'#000000'
p878
aF10.0
aI0
aI00
aI00
aI00
aI00
aI00
aI00
aI00
aI00
aa(lp879
I129342
aF96.76
aF322.52
aVp1
p880
aS'dejavusans'
p881
aS'#000000'
p882
aF10.0
aI0
aI00
aI00
aI00
aI00
aI00
aI00
aI00
aI00
aa(lp883
I234378
aF137.2577777777778
aF322.52
ag880
aS'dejavusans'
p884
aS'#000000'
p885
aF10.0
aI0
aI00
aI00
aI00
aI00
aI00
aI00
aI00
aI00
aa(lp886
I37654
aF145.53
aF322.52
aVp1
p887
aS'dejavusans'
p888
aS'#000000'
p889
aF10.0
aI0
aI00
aI00
aI00
aI00
aI00
aI00
aI00
aI00
aa(lp890
I200640
aF179.39
aF322.52
aVp1
p891
aS'dejavusans'
p892
aS'#000000'
p893
aF10.0
aI0
aI00
aI00
aI00
aI00
aI00
aI00
aI00
aI00
aa(lp894
I218768
aF246.84
aF322.52
aVp1
p895
aS'dejavusans'
p896
aS'#000000'
p897
aF10.0
aI0
aI00
aI00
aI00
aI00
aI00
aI00
aI00
aI00
aa(lp898
I61195
aF285.39
aF322.52
aVp1
p899
aS'dejavusans'
p900
aS'#000000'
p901
aF10.0
aI0
aI00
aI00
aI00
aI00
aI00
aI00
aI00
aI00
aa(lp902
I156038
aF326.87
aF322.52
aVp1
p903
aS'dejavusans'
p904
aS'#000000'
p905
aF10.0
aI0
aI00
aI00
aI00
aI00
aI00
aI00
aI00
aI00
aa(lp906
I216970
aF352.04
aF322.52
aVp1
p907
aS'dejavusans'
p908
aS'#000000'
p909
aF10.0
aI0
aI00
aI00
aI00
aI00
aI00
aI00
aI00
aI00
aa(lp910
I234378
aF376.99833333333333
aF322.52
ag907
aS'dejavusans'
p911
aS'#000000'
p912
aF10.0
aI0
aI00
aI00
aI00
aI00
aI00
aI00
aI00
aI00
aa(lp913
I234378
aF50.0
aF334.12
aVp1
p914
aS'dejavusans'
p915
aS'#000000'
p916
aF10.0
aI0
aI01
aI00
aI00
aI00
aI00
aI00
aI00
aI00
aa(lp917
I69324
aF83.07
aF334.12
aVp1
p918
aS'dejavusans'
p919
aS'#000000'
p920
aF10.0
aI0
aI01
aI00
aI00
aI00
aI00
aI00
aI00
aI00
aa(lp921
I223466
aF127.42
aF334.12
aVp1
p922
aS'dejavusans'
p923
aS'#000000'
p924
aF10.0
aI0
aI01
aI00
aI00
aI00
aI00
aI00
aI00
aI00
aa(lp925
I3971
aF180.68
aF334.12
aVp1
p926
aS'dejavusans'
p927
aS'#000000'
p928
aF10.0
aI0
aI01
aI00
aI00
aI00
aI00
aI00
aI00
aI00
aa(lp929
I29502
aF223.65
aF334.12
aVp1
p930
aS'dejavusans'
p931
aS'#000000'
p932
aF10.0
aI0
aI00
aI00
aI00
aI00
aI00
aI00
aI00
aI00
aa(lp933
I153177
aF257.32
aF334.12
aVp1
p934
aS'dejavusans'
p935
aS'#000000'
p936
aF10.0
aI0
aI00
aI00
aI00
aI00
aI00
aI00
aI00
aI00
aa(lp937
I156028
aF327.48
aF334.12
aVp1
p938
aS'dejavusans'
p939
aS'#000000'
p940
aF10.0
aI0
aI00
aI00
aI00
aI00
aI00
aI00
aI00
aI00
aa(lp941
I234378
aF345.12800000000004
aF334.12
ag938
aS'dejavusans'
p942
aS'#000000'
p943
aF10.0
aI0
aI00
aI00
aI00
aI00
aI00
aI00
aI00
aI00
aa(lp944
I190806
aF352.75
aF334.12
aVp1
p945
aS'dejavusans'
p946
aS'#000000'
p947
aF10.0
aI0
aI00
aI00
aI00
aI00
aI00
aI00
aI00
aI00
aa(lp948
I234378
aF369.74
aF334.12
aVp1
p949
aS'dejavusans'
p950
aS'#000000'
p951
aF10.0
aI0
aI00
aI00
aI00
aI00
aI00
aI00
aI00
aI00
aa(lp952
I234378
aF413.24600000000004
aF334.12
ag949
aS'dejavusans'
p953
aS'#000000'
p954
aF10.0
aI0
aI00
aI00
aI00
aI00
aI00
aI00
aI00
aI00
aa(lp955
I193973
aF421.29
aF334.12
aVp1
p956
aS'dejavusans'
p957
aS'#000000'
p958
aF10.0
aI0
aI01
aI00
aI00
aI00
aI00
aI00
aI00
aI00
aa(lp959
I33705
aF449.06
aF334.12
aVp1
p960
aS'dejavusans'
p961
aS'#000000'
p962
aF10.0
aI0
aI00
aI00
aI00
aI00
aI00
aI00
aI00
aI00
aa(lp963
I206661
aF470.24
aF334.12
aVp1
p964
aS'dejavusans'
p965
aS'#000000'
p966
aF10.0
aI0
aI00
aI00
aI00
aI00
aI00
aI00
aI00
aI00
aa(lp967
I83156
aF511.9
aF334.12
aVp1
p968
aS'dejavusans'
p969
aS'#000000'
p970
aF10.0
aI0
aI00
aI00
aI00
aI00
aI00
aI00
aI00
aI00
aa(lp971
I190806
aF50.0
aF346.52
aVp1
p972
aS'dejavusans'
p973
aS'#000000'
p974
aF10.0
aI0
aI00
aI00
aI00
aI00
aI00
aI00
aI00
aI00
aa(lp975
I234378
aF67.28
aF346.52
aVp1
p976
aS'dejavusans'
p977
aS'#000000'
p978
aF10.0
aI0
aI00
aI00
aI00
aI00
aI00
aI00
aI00
aI00
aa(lp979
I144489
aF128.43
aF346.52
aVp1
p980
aS'dejavusans'
p981
aS'#000000'
p982
aF10.0
aI0
aI00
aI00
aI00
aI00
aI00
aI00
aI00
aI00
aa(lp983
I60201
aF141.61
aF346.52
aVp1
p984
aS'dejavusans'
p985
aS'#000000'
p986
aF10.0
aI0
aI00
aI00
aI00
aI00
aI00
aI00
aI00
aI00
aa(lp987
I61195
aF160.48
aF346.52
aVp1
p988
aS'dejavusans'
p989
aS'#000000'
p990
aF10.0
aI0
aI00
aI00
aI00
aI00
aI00
aI00
aI00
aI00
aa(lp991
I131049
aF202.43
aF346.52
aVp1
p992
aS'dejavusans'
p993
aS'#000000'
p994
aF10.0
aI0
aI00
aI00
aI00
aI00
aI00
aI00
aI00
aI00
aa(lp995
I234378
aF229.3
aF346.52
aVp1
p996
aS'dejavusans'
p997
aS'#000000'
p998
aF10.0
aI0
aI00
aI00
aI00
aI00
aI00
aI00
aI00
aI00
aa(lp999
I234378
aF282.35
aF346.52
aVp1
p1000
aS'dejavusans'
p1001
aS'#000000'
p1002
aF10.0
aI0
aI00
aI00
aI00
aI00
aI00
aI00
aI00
aI00
aa(lp1003
I36403
aF322.81
aF346.52
aVp1
p1004
aS'dejavusans'
p1005
aS'#000000'
p1006
aF10.0
aI0
aI00
aI00
aI00
aI00
aI00
aI00
aI00
aI00
aa(lp1007
I93656
aF338.58
aF346.52
aVp1
p1008
aS'dejavusans'
p1009
aS'#000000'
p1010
aF10.0
aI0
aI00
aI00
aI00
aI00
aI00
aI00
aI00
aI00
aa(lp1011
I234378
aF396.72
aF346.52
aVp1
p1012
aS'dejavusans'
p1013
aS'#000000'
p1014
aF10.0
aI0
aI00
aI00
aI00
aI00
aI00
aI00
aI00
aI00
aa(lp1015
I234378
aF435.68
aF346.52
ag1012
aS'dejavusans'
p1016
aS'#000000'
p1017
aF10.0
aI0
aI00
aI00
aI00
aI00
aI00
aI00
aI00
aI00
aa(lp1018
I22476
aF444.16
aF346.52
aVp1
p1019
aS'dejavusans'
p1020
aS'#000000'
p1021
aF10.0
aI0
aI01
aI00
aI00
aI00
aI00
aI00
aI00
aI00
aa(lp1022
I22474
aF454.63
aF346.52
aVp1
p1023
aS'dejavusans'
p1024
aS'#000000'
p1025
aF10.0
aI0
aI00
aI00
aI00
aI00
aI00
aI00
aI00
aI00
aa(lp1026
I104546
aF466.11
aF346.52
aVp1
p1027
aS'dejavusans'
p1028
aS'#000000'
p1029
aF10.0
aI0
aI00
aI00
aI00
aI00
aI00
aI00
aI00
aI00
aa(lp1030
I41606
aF504.76
aF346.52
aVp1
p1031
aS'dejavusans'
p1032
aS'#000000'
p1033
aF10.0
aI0
aI00
aI00
aI00
aI00
aI00
aI00
aI00
aI00
aa(lp1034
I169745
aF547.81
aF346.52
aVp1
p1035
aS'dejavusans'
p1036
aS'#000000'
p1037
aF10.0
aI0
aI00
aI00
aI00
aI00
aI00
aI00
aI00
aI00
aa(lp1038
I234378
aF50.0
aF358.22
aVp1
p1039
aS'dejavusans'
p1040
aS'#000000'
p1041
aF10.0
aI0
aI00
aI00
aI00
aI00
aI00
aI00
aI00
aI00
aa(lp1042
I234378
aF117.49538461538462
aF358.22
ag1039
aS'dejavusans'
p1043
aS'#000000'
p1044
aF10.0
aI0
aI00
aI00
aI00
aI00
aI00
aI00
aI00
aI00
aa(lp1045
I166245
aF50.0
aF369.82
aVp1
p1046
aS'dejavusans'
p1047
aS'#000000'
p1048
aF10.0
aI0
aI01
aI00
aI00
aI00
aI00
aI00
aI00
aI00
aa(lp1049
I234378
aF100.65
aF369.82
aVp1
p1050
aS'dejavusans'
p1051
aS'#000000'
p1052
aF10.0
aI0
aI00
aI00
aI01
aI01
aI00
aI00
aI00
aI00
aa(lp1053
I166245
aF113.63
aF369.82
aVp1
p1054
aS'dejavusans'
p1055
aS'#000000'
p1056
aF10.0
aI0
aI01
aI00
aI00
aI00
aI00
aI00
aI00
aI00
aa(lp1057
I29731
aF164.28
aF369.82
aVp1
p1058
aS'dejavusans'
p1059
aS'#000000'
p1060
aF10.0
aI0
aI01
aI00
aI00
aI00
aI00
aI00
aI00
aI00
aa(lp1061
I16329
aF238.27
aF369.82
aVp1
p1062
aS'dejavusans'
p1063
aS'#000000'
p1064
aF10.0
aI0
aI01
aI00
aI00
aI00
aI00
aI00
aI00
aI00
aa(lp1065
I86925
aF258.05
aF369.82
aVp1
p1066
aS'dejavusans'
p1067
aS'#000000'
p1068
aF10.0
aI0
aI00
aI00
aI00
aI00
aI00
aI00
aI00
aI00
aa(lp1069
I177958
aF327.78
aF369.82
aVp1
p1070
aS'dejavusans'
p1071
aS'#000000'
p1072
aF10.0
aI0
aI00
aI00
aI00
aI00
aI00
aI00
aI00
aI00
aa(lp1073
I25729
aF369.12
aF369.82
aVp1
p1074
aS'dejavusans'
p1075
aS'#000000'
p1076
aF10.0
aI0
aI00
aI00
aI00
aI00
aI00
aI00
aI00
aI00
aa(lp1077
I192651
aF399.69
aF369.82
aVp1
p1078
aS'dejavusans'
p1079
aS'#000000'
p1080
aF10.0
aI0
aI00
aI00
aI00
aI00
aI00
aI00
aI00
aI00
aa(lp1081
I234378
aF418.56
aF369.82
aVp1
p1082
aS'dejavusans'
p1083
aS'#000000'
p1084
aF10.0
aI0
aI00
aI00
aI00
aI00
aI00
aI00
aI00
aI00
aa(lp1085
I85218
aF452.73
aF369.82
aVp1
p1086
aS'dejavusans'
p1087
aS'#000000'
p1088
aF10.0
aI0
aI00
aI00
aI00
aI00
aI00
aI00
aI00
aI00
aa(lp1089
I234378
aF478.11
aF369.82
aVp1
p1090
aS'dejavusans'
p1091
aS'#000000'
p1092
aF10.0
aI0
aI01
aI01
aI00
aI00
aI00
aI00
aI00
aI00
aa(lp1093
I27179
aF505.38
aF369.82
aVp1
p1094
aS'dejavusans'
p1095
aS'#000000'
p1096
aF10.0
aI0
aI00
aI00
aI00
aI00
aI00
aI00
aI00
aI00
aa(lp1097
I190806
aF555.93
aF369.82
aVp1
p1098
aS'dejavusans'
p1099
aS'#000000'
p1100
aF10.0
aI0
aI00
aI00
aI00
aI00
aI00
aI00
aI00
aI00
aa(lp1101
I144509
aF50.0
aF382.22
aVp1
p1102
aS'dejavusans'
p1103
aS'#000000'
p1104
aF10.0
aI0
aI00
aI00
aI00
aI00
aI00
aI00
aI00
aI00
aa(lp1105
I234378
aF124.66642857142857
aF382.22
ag1102
aS'dejavusans'
p1106
aS'#000000'
p1107
aF10.0
aI0
aI00
aI00
aI00
aI00
aI00
aI00
aI00
aI00
aa(lp1108
I22476
aF134.12
aF382.22
aVp1
p1109
aS'dejavusans'
p1110
aS'#000000'
p1111
aF10.0
aI0
aI01
aI00
aI00
aI00
aI00
aI00
aI00
aI00
aa(lp1112
I209115
aF144.6
aF382.22
aVp1
p1113
aS'dejavusans'
p1114
aS'#000000'
p1115
aF10.0
aI0
aI00
aI00
aI00
aI00
aI00
aI00
aI00
aI00
aa(lp1116
I173426
aF167.67
aF382.22
aVp1
p1117
aS'dejavusans'
p1118
aS'#000000'
p1119
aF10.0
aI0
aI00
aI00
aI00
aI00
aI00
aI00
aI00
aI00
aa(lp1120
I16331
aF216.92
aF382.22
aVp1
p1121
aS'dejavusans'
p1122
aS'#000000'
p1123
aF10.0
aI0
aI00
aI00
aI00
aI00
aI00
aI00
aI00
aI00
aa(lp1124
I162177
aF231.9
aF382.22
aVp1
p1125
aS'dejavusans'
p1126
aS'#000000'
p1127
aF10.0
aI0
aI00
aI00
aI00
aI00
aI00
aI00
aI00
aI00
aa(lp1128
I22476
aF258.87
aF382.22
aVp1
p1129
aS'dejavusans'
p1130
aS'#000000'
p1131
aF10.0
aI0
aI00
aI00
aI00
aI00
aI00
aI00
aI00
aI00
aa(lp1132
I33705
aF269.14
aF382.22
aVp1
p1133
aS'dejavusans'
p1134
aS'#000000'
p1135
aF10.0
aI0
aI00
aI00
aI00
aI00
aI00
aI00
aI00
aI00
aa(lp1136
I41226
aF290.71
aF382.22
aVp1
p1137
aS'dejavusans'
p1138
aS'#000000'
p1139
aF10.0
aI0
aI00
aI00
aI00
aI00
aI00
aI00
aI00
aI00
aa(lp1140
I128835
aF366.1
aF382.22
aVp1
p1141
aS'dejavusans'
p1142
aS'#000000'
p1143
aF10.0
aI0
aI00
aI00
aI00
aI00
aI00
aI00
aI00
aI00
aa(lp1144
I75081
aF376.09
aF382.22
aVp1
p1145
aS'dejavusans'
p1146
aS'#000000'
p1147
aF10.0
aI0
aI00
aI00
aI00
aI00
aI00
aI00
aI00
aI00
aa(lp1148
I144489
aF418.65
aF382.22
aVp1
p1149
aS'dejavusans'
p1150
aS'#000000'
p1151
aF10.0
aI0
aI00
aI00
aI00
aI00
aI00
aI00
aI00
aI00
aa(lp1152
I132957
aF431.93
aF382.22
aVp1
p1153
aS'dejavusans'
p1154
aS'#000000'
p1155
aF10.0
aI0
aI00
aI00
aI00
aI00
aI00
aI00
aI00
aI00
aa(lp1156
I45284
aF458.01
aF382.22
aVp1
p1157
aS'dejavusans'
p1158
aS'#000000'
p1159
aF10.0
aI0
aI00
aI00
aI00
aI00
aI00
aI00
aI00
aI00
aa(lp1160
I90159
aF510.17
aF382.22
aVp1
p1161
aS'dejavusans'
p1162
aS'#000000'
p1163
aF10.0
aI0
aI00
aI00
aI00
aI00
aI00
aI00
aI00
aI00
aa(lp1164
I234378
aF547.04
aF382.22
aVp1
p1165
aS'dejavusans'
p1166
aS'#000000'
p1167
aF10.0
aI0
aI00
aI00
aI00
aI00
aI00
aI00
aI00
aI00
aa(lp1168
I64620
aF551.5899999999999
aF382.22
ag1165
aS'dejavusans'
p1169
aS'#000000'
p1170
aF10.0
aI0
aI00
aI00
aI00
aI00
aI00
aI00
aI00
aI00
aa(lp1171
I234378
aF556.1399999999999
aF382.22
ag1165
aS'dejavusans'
p1172
aS'#000000'
p1173
aF10.0
aI0
aI00
aI00
aI00
aI00
aI00
aI00
aI00
aI00
aa(lp1174
I131239
aF560.6899999999998
aF382.22
ag1165
aS'dejavusans'
p1175
aS'#000000'
p1176
aF10.0
aI0
aI00
aI00
aI00
aI00
aI00
aI00
aI00
aI00
aa(lp1177
I234378
aF563.2399999999998
aF382.22
ag1165
aS'dejavusans'
p1178
aS'#000000'
p1179
aF10.0
aI0
aI00
aI00
aI00
aI00
aI00
aI00
aI00
aI00
aa(lp1180
I234378
aF50.0
aF393.92
aVp1
p1181
aS'dejavusans'
p1182
aS'#000000'
p1183
aF10.0
aI0
aI00
aI00
aI00
aI00
aI00
aI00
aI00
aI00
aa(lp1184
I234378
aF73.792
aF393.92
ag1181
aS'dejavusans'
p1185
aS'#000000'
p1186
aF10.0
aI0
aI00
aI00
aI00
aI00
aI00
aI00
aI00
aI00
aa(lp1187
I234378
aF82.86
aF393.92
aVp1
p1188
aS'dejavusans'
p1189
aS'#000000'
p1190
aF10.0
aI0
aI01
aI01
aI00
aI00
aI00
aI00
aI00
aI00
aa(lp1191
I234378
aF98.5275
aF393.92
ag1188
aS'dejavusans'
p1192
aS'#000000'
p1193
aF10.0
aI0
aI00
aI00
aI00
aI00
aI00
aI00
aI00
aI00
aa(lp1194
I169745
aF106.94
aF393.92
aVp1
p1195
aS'dejavusans'
p1196
aS'#000000'
p1197
aF10.0
aI0
aI00
aI00
aI00
aI00
aI00
aI00
aI00
aI00
aa(lp1198
I128835
aF131.4
aF393.92
aVp1
p1199
aS'dejavusans'
p1200
aS'#000000'
p1201
aF10.0
aI0
aI00
aI00
aI00
aI00
aI00
aI00
aI00
aI00
aa(lp1202
I75081
aF140.89
aF393.92
aVp1
p1203
aS'dejavusans'
p1204
aS'#000000'
p1205
aF10.0
aI0
aI00
aI00
aI00
aI00
aI00
aI00
aI00
aI00
aa(lp1206
I144489
aF183.06
aF393.92
aVp1
p1207
aS'dejavusans'
p1208
aS'#000000'
p1209
aF10.0
aI0
aI00
aI00
aI00
aI00
aI00
aI00
aI00
aI00
aa(lp1210
I234378
aF195.85
aF393.92
aVp1
p1211
aS'dejavusans'
p1212
aS'#000000'
p1213
aF10.0
aI0
aI00
aI00
aI00
aI00
aI00
aI00
aI00
aI00
aa(lp1214
I234378
aF234.7525
aF393.92
ag1211
aS'dejavusans'
p1215
aS'#000000'
p1216
aF10.0
aI0
aI00
aI00
aI00
aI00
aI00
aI00
aI00
aI00
aa(lp1217
I234378
aF50.0
aF405.52
aVp1
p1218
aS'dejavusans'
p1219
aS'#000000'
p1220
aF10.0
aI0
aI01
aI00
aI00
aI00
aI00
aI00
aI00
aI00
aa(lp1221
I190806
aF112.65
aF405.52
aVp1
p1222
aS'dejavusans'
p1223
aS'#000000'
p1224
aF10.0
aI0
aI00
aI00
aI00
aI00
aI00
aI00
aI00
aI00
aa(lp1225
I234378
aF130.83
aF405.52
aVp1
p1226
aS'dejavusans'
p1227
aS'#000000'
p1228
aF10.0
aI0
aI00
aI00
aI00
aI00
aI00
aI00
aI00
aI00
aa(lp1229
I234378
aF172.17
aF405.52
aVp1
p1230
aS'dejavusans'
p1231
aS'#000000'
p1232
aF10.0
aI0
aI01
aI00
aI00
aI00
aI00
aI00
aI00
aI00
aa(lp1233
I210388
aF204.6
aF405.52
aVp1
p1234
aS'dejavusans'
p1235
aS'#000000'
p1236
aF10.0
aI1
aI01
aI00
aI00
aI00
aI00
aI00
aI00
aI00
aa(lp1237
I234378
aF253.90666666666667
aF405.52
ag1234
aS'dejavusans'
p1238
aS'#000000'
p1239
aF10.0
aI1
aI00
aI00
aI00
aI00
aI00
aI00
aI00
aI00
aa(lp1240
I197030
aF264.48
aF405.52
aVp1
p1241
aS'dejavusans'
p1242
aS'#000000'
p1243
aF10.0
aI0
aI01
aI01
aI00
aI00
aI00
aI00
aI00
aI00
aa(lp1244
I118076
aF271.86
aF405.52
aVp1
p1245
aS'dejavusans'
p1246
aS'#000000'
p1247
aF10.0
aI0
aI00
aI00
aI00
aI00
aI00
aI00
aI00
aI00
aa(lp1248
I173426
aF295.04
aF405.52
aVp1
p1249
aS'dejavusans'
p1250
aS'#000000'
p1251
aF10.0
aI0
aI00
aI00
aI00
aI00
aI00
aI00
aI00
aI00
aa(lp1252
I85218
aF345.09
aF405.52
aVp1
p1253
aS'dejavusans'
p1254
aS'#000000'
p1255
aF10.0
aI0
aI00
aI00
aI00
aI00
aI00
aI00
aI00
aI00
aa(lp1256
I234378
aF368.26
aF405.52
aVp1
p1257
aS'dejavusans'
p1258
aS'#000000'
p1259
aF10.0
aI0
aI00
aI00
aI00
aI00
aI00
aI00
aI00
aI00
aa(lp1260
I206869
aF425.0
aF405.52
aVp1
p1261
aS'dejavusans'
p1262
aS'#000000'
p1263
aF10.0
aI0
aI00
aI00
aI00
aI00
aI00
aI00
aI00
aI00
aa(lp1264
I177958
aF467.76
aF405.52
aVp1
p1265
aS'dejavusans'
p1266
aS'#000000'
p1267
aF10.0
aI0
aI00
aI00
aI00
aI00
aI00
aI00
aI00
aI00
aa(lp1268
I89480
aF506.82
aF405.52
aVp1
p1269
aS'dejavusans'
p1270
aS'#000000'
p1271
aF10.0
aI0
aI00
aI00
aI00
aI00
aI00
aI00
aI00
aI00
aa(lp1272
I234378
aF521.2
aF405.52
aVp1
p1273
aS'dejavusans'
p1274
aS'#000000'
p1275
aF10.0
aI0
aI00
aI00
aI00
aI00
aI00
aI00
aI00
aI00
aa(lp1276
I121847
aF50.0
aF417.92
aVp1
p1277
aS'dejavusans'
p1278
aS'#000000'
p1279
aF10.0
aI0
aI00
aI00
aI00
aI00
aI00
aI00
aI00
aI00
aa(lp1280
I234378
aF71.388
aF417.92
ag1277
aS'dejavusans'
p1281
aS'#000000'
p1282
aF10.0
aI0
aI00
aI00
aI00
aI00
aI00
aI00
aI00
aI00
aa(lp1283
I85218
aF104.16
aF417.92
aVp1
p1284
aS'dejavusans'
p1285
aS'#000000'
p1286
aF10.0
aI0
aI00
aI00
aI00
aI00
aI00
aI00
aI00
aI00
aa(lp1287
I234378
aF126.14
aF417.92
aVp1
p1288
aS'dejavusans'
p1289
aS'#000000'
p1290
aF10.0
aI0
aI00
aI00
aI00
aI00
aI00
aI00
aI00
aI00
aa(lp1291
I35885
aF165.01
aF417.92
aVp1
p1292
aS'dejavusans'
p1293
aS'#000000'
p1294
aF10.0
aI0
aI00
aI00
aI00
aI00
aI00
aI00
aI00
aI00
aa(lp1295
I144483
aF198.38
aF417.92
aVp1
p1296
aS'dejavusans'
p1297
aS'#000000'
p1298
aF10.0
aI0
aI00
aI00
aI00
aI00
aI00
aI00
aI00
aI00
aa(lp1299
I60183
aF213.97
aF417.92
aVp1
p1300
aS'dejavusans'
p1301
aS'#000000'
p1302
aF10.0
aI0
aI01
aI00
aI00
aI00
aI00
aI00
aI00
aI00
aa(lp1303
I234378
aF239.26
aF417.92
aVp1
p1304
aS'dejavusans'
p1305
aS'#000000'
p1306
aF10.0
aI0
aI00
aI00
aI00
aI00
aI00
aI00
aI00
aI00
aa(lp1307
I73425
aF245.84
aF417.92
aVp1
p1308
aS'dejavusans'
p1309
aS'#000000'
p1310
aF10.0
aI0
aI01
aI00
aI00
aI00
aI00
aI00
aI00
aI00
aa(lp1311
I161588
aF265.42
aF417.92
aVp1
p1312
aS'dejavusans'
p1313
aS'#000000'
p1314
aF10.0
aI0
aI00
aI00
aI00
aI00
aI00
aI00
aI00
aI00
aa(lp1315
I234378
aF292.36857142857144
aF417.92
ag1312
aS'dejavusans'
p1316
aS'#000000'
p1317
aF10.0
aI0
aI00
aI00
aI00
aI00
aI00
aI00
aI00
aI00
aa(lp1318
I234378
aF41.5
aF441.22
aVp1
p1319
aS'dejavusans'
p1320
aS'#000000'
p1321
aF10.0
aI1
aI01
aI00
aI00
aI00
aI00
aI00
aI00
aI00
aa(lp1322
I164802
aF89.16
aF441.22
aVp1
p1323
aS'dejavusans'
p1324
aS'#000000'
p1325
aF10.0
aI1
aI01
aI00
aI00
aI00
aI00
aI00
aI00
aI00
aa(lp1326
I234378
aF120.74
aF441.22
aVp1
p1327
aS'dejavusans'
p1328
aS'#000000'
p1329
aF10.0
aI1
aI01
aI00
aI00
aI00
aI00
aI00
aI00
aI00
aa(lp1330
I234378
aF137.525
aF441.22
ag1327
aS'dejavusans'
p1331
aS'#000000'
p1332
aF10.0
aI1
aI00
aI00
aI00
aI00
aI00
aI00
aI00
aI00
aa(lp1333
I234378
aF146.71
aF441.22
aVp1
p1334
aS'dejavusans'
p1335
aS'#000000'
p1336
aF10.0
aI1
aI01
aI00
aI00
aI00
aI00
aI00
aI00
aI00
aa(lp1337
I234378
aF162.226
aF441.22
ag1334
aS'dejavusans'
p1338
aS'#000000'
p1339
aF10.0
aI1
aI00
aI00
aI00
aI00
aI00
aI00
aI00
aI00
aa(lp1340
I234378
aF167.398
aF441.22
ag1334
aS'dejavusans'
p1341
aS'#000000'
p1342
aF10.0
aI1
aI00
aI00
aI00
aI00
aI00
aI00
aI00
aI00
aa(lp1343
I142605
aF176.06
aF441.22
aVp1
p1344
aS'dejavusans'
p1345
aS'#000000'
p1346
aF10.0
aI1
aI01
aI00
aI00
aI00
aI00
aI00
aI00
aI00
aa(lp1347
I234378
aF377.9
aF441.22
aVp1
p1348
aS'dejavusans'
p1349
aS'#000000'
p1350
aF10.0
aI0
aI01
aI00
aI00
aI00
aI00
aI00
aI00
aI01
aa(lp1351
I234378
aF400.47
aF441.22
aVp1
p1352
aS'dejavusans'
p1353
aS'#000000'
p1354
aF10.0
aI0
aI00
aI00
aI01
aI01
aI01
aI00
aI00
aI00
aa(lp1355
I27216
aF424.45
aF441.22
aVp1
p1356
aS'dejavusans'
p1357
aS'#000000'
p1358
aF10.0
aI0
aI01
aI00
aI00
aI00
aI00
aI00
aI00
aI01
aa(lp1359
I234378
aF443.23
aF441.22
aVp1
p1360
aS'dejavusans'
p1361
aS'#000000'
p1362
aF10.0
aI0
aI00
aI00
aI01
aI01
aI01
aI00
aI00
aI00
aa(lp1363
I89147
aF466.8
aF441.22
aVp1
p1364
aS'dejavusans'
p1365
aS'#000000'
p1366
aF10.0
aI1
aI01
aI00
aI00
aI00
aI00
aI00
aI00
aI00
aa(lp1367
I100815
aF466.8
aF452.92
aVp1
p1368
aS'dejavusans'
p1369
aS'#000000'
p1370
aF10.0
aI1
aI01
aI00
aI00
aI00
aI00
aI00
aI00
aI00
aa(lp1371
I161038
aF50.0
aF464.52
aVp1
p1372
aS'dejavusans'
p1373
aS'#000000'
p1374
aF10.0
aI0
aI01
aI00
aI00
aI00
aI00
aI00
aI00
aI00
aa(lp1375
I58180
aF88.27
aF464.52
aVp1
p1376
aS'dejavusans'
p1377
aS'#000000'
p1378
aF10.0
aI0
aI01
aI00
aI00
aI00
aI00
aI00
aI00
aI00
aa(lp1379
I234378
aF131.07
aF464.52
aVp1
p1380
aS'dejavusans'
p1381
aS'#000000'
p1382
aF10.0
aI0
aI01
aI01
aI00
aI00
aI00
aI00
aI00
aI00
aa(lp1383
I164802
aF145.64
aF464.52
aVp1
p1384
aS'dejavusans'
p1385
aS'#000000'
p1386
aF10.0
aI0
aI01
aI00
aI00
aI00
aI00
aI00
aI00
aI00
aa(lp1387
I234378
aF168.68166666666664
aF464.52
ag1384
aS'dejavusans'
p1388
aS'#000000'
p1389
aF10.0
aI0
aI00
aI00
aI00
aI00
aI00
aI00
aI00
aI00
aa(lp1390
I161038
aF177.5
aF464.52
aVp1
p1391
aS'dejavusans'
p1392
aS'#000000'
p1393
aF10.0
aI0
aI01
aI00
aI00
aI00
aI00
aI00
aI00
aI00
aa(lp1394
I16968
aF215.77
aF464.52
aVp1
p1395
aS'dejavusans'
p1396
aS'#000000'
p1397
aF10.0
aI0
aI01
aI00
aI00
aI00
aI00
aI00
aI00
aI00
aa(lp1398
I234378
aF244.14
aF464.52
aVp1
p1399
aS'dejavusans'
p1400
aS'#000000'
p1401
aF10.0
aI0
aI01
aI00
aI00
aI00
aI00
aI00
aI00
aI00
aa(lp1402
I35885
aF306.89
aF464.52
aVp1
p1403
aS'dejavusans'
p1404
aS'#000000'
p1405
aF10.0
aI0
aI00
aI00
aI00
aI00
aI00
aI00
aI00
aI00
aa(lp1406
I229025
aF341.16
aF464.52
aVp1
p1407
aS'dejavusans'
p1408
aS'#000000'
p1409
aF10.0
aI0
aI00
aI00
aI00
aI00
aI00
aI00
aI00
aI00
aa(lp1410
I135639
aF361.73
aF464.52
aVp1
p1411
aS'dejavusans'
p1412
aS'#000000'
p1413
aF10.0
aI0
aI00
aI00
aI00
aI00
aI00
aI00
aI00
aI00
aa(lp1414
I142605
aF375.0
aF464.52
aVp1
p1415
aS'dejavusans'
p1416
aS'#000000'
p1417
aF10.0
aI0
aI01
aI00
aI00
aI00
aI00
aI00
aI00
aI00
aa(lp1418
I234378
aF399.96666666666664
aF464.52
ag1415
aS'dejavusans'
p1419
aS'#000000'
p1420
aF10.0
aI0
aI00
aI00
aI00
aI00
aI00
aI00
aI00
aI00
aa(lp1421
I197030
aF409.17
aF464.52
aVp1
p1422
aS'dejavusans'
p1423
aS'#000000'
p1424
aF10.0
aI0
aI01
aI01
aI00
aI00
aI00
aI00
aI00
aI00
aa(lp1425
I125458
aF416.25
aF464.52
aVp1
p1426
aS'dejavusans'
p1427
aS'#000000'
p1428
aF10.0
aI0
aI00
aI00
aI00
aI00
aI00
aI00
aI00
aI00
aa(lp1429
I190806
aF456.71
aF464.52
aVp1
p1430
aS'dejavusans'
p1431
aS'#000000'
p1432
aF10.0
aI0
aI00
aI00
aI00
aI00
aI00
aI00
aI00
aI00
aa(lp1433
I218852
aF474.59
aF464.52
aVp1
p1434
aS'dejavusans'
p1435
aS'#000000'
p1436
aF10.0
aI0
aI00
aI00
aI00
aI00
aI00
aI00
aI00
aI00
aa(lp1437
I177958
aF502.05
aF464.52
aVp1
p1438
aS'dejavusans'
p1439
aS'#000000'
p1440
aF10.0
aI0
aI01
aI00
aI00
aI00
aI00
aI00
aI00
aI00
aa(lp1441
I98566
aF540.4
aF464.52
aVp1
p1442
aS'dejavusans'
p1443
aS'#000000'
p1444
aF10.0
aI0
aI00
aI00
aI00
aI00
aI00
aI00
aI00
aI00
aa(lp1445
I231445
aF50.0
aF476.92
aVp1
p1446
aS'dejavusans'
p1447
aS'#000000'
p1448
aF10.0
aI0
aI00
aI00
aI00
aI00
aI00
aI00
aI00
aI00
aa(lp1449
I85218
aF108.53
aF476.92
aVp1
p1450
aS'dejavusans'
p1451
aS'#000000'
p1452
aF10.0
aI0
aI00
aI00
aI00
aI00
aI00
aI00
aI00
aI00
aa(lp1453
I183915
aF131.4
aF476.92
aVp1
p1454
aS'dejavusans'
p1455
aS'#000000'
p1456
aF10.0
aI0
aI00
aI00
aI00
aI00
aI00
aI00
aI00
aI00
aa(lp1457
I15359
aF172.56
aF476.92
aVp1
p1458
aS'dejavusans'
p1459
aS'#000000'
p1460
aF10.0
aI0
aI00
aI00
aI00
aI00
aI00
aI00
aI00
aI00
aa(lp1461
I127730
aF227.31
aF476.92
aVp1
p1462
aS'dejavusans'
p1463
aS'#000000'
p1464
aF10.0
aI0
aI00
aI00
aI00
aI00
aI00
aI00
aI00
aI00
aa(lp1465
I89480
aF275.87
aF476.92
aVp1
p1466
aS'dejavusans'
p1467
aS'#000000'
p1468
aF10.0
aI0
aI00
aI00
aI00
aI00
aI00
aI00
aI00
aI00
aa(lp1469
I218852
aF289.95
aF476.92
aVp1
p1470
aS'dejavusans'
p1471
aS'#000000'
p1472
aF10.0
aI0
aI00
aI00
aI00
aI00
aI00
aI00
aI00
aI00
aa(lp1473
I234378
aF317.31
aF476.92
aVp1
p1474
aS'dejavusans'
p1475
aS'#000000'
p1476
aF10.0
aI0
aI00
aI00
aI00
aI00
aI00
aI00
aI00
aI00
aa(lp1477
I234378
aF372.91615384615386
aF476.92
ag1474
aS'dejavusans'
p1478
aS'#000000'
p1479
aF10.0
aI0
aI00
aI00
aI00
aI00
aI00
aI00
aI00
aI00
aa(lp1480
I218914
aF381.66
aF476.92
aVp1
p1481
aS'dejavusans'
p1482
aS'#000000'
p1483
aF10.0
aI0
aI00
aI00
aI00
aI00
aI00
aI00
aI00
aI00
aa(lp1484
I234378
aF414.81
aF476.92
aVp1
p1485
aS'dejavusans'
p1486
aS'#000000'
p1487
aF10.0
aI0
aI00
aI00
aI00
aI00
aI00
aI00
aI00
aI00
aa(lp1488
I80364
aF472.46
aF476.92
aVp1
p1489
aS'dejavusans'
p1490
aS'#000000'
p1491
aF10.0
aI0
aI00
aI00
aI00
aI00
aI00
aI00
aI00
aI00
aa(lp1492
I234378
aF497.14
aF476.92
aVp1
p1493
aS'dejavusans'
p1494
aS'#000000'
p1495
aF10.0
aI0
aI00
aI00
aI00
aI00
aI00
aI00
aI00
aI00
aa(lp1496
I89480
aF542.49
aF476.92
aVp1
p1497
aS'dejavusans'
p1498
aS'#000000'
p1499
aF10.0
aI0
aI00
aI00
aI00
aI00
aI00
aI00
aI00
aI00
aa(lp1500
I192638
aF556.57
aF476.92
aVp1
p1501
aS'dejavusans'
p1502
aS'#000000'
p1503
aF10.0
aI0
aI00
aI00
aI00
aI00
aI00
aI00
aI00
aI00
aa(lp1504
I86196
aF50.0
aF488.62
aVp1
p1505
aS'dejavusans'
p1506
aS'#000000'
p1507
aF10.0
aI0
aI00
aI00
aI00
aI00
aI00
aI00
aI00
aI00
aa(lp1508
I35885
aF84.47
aF488.62
aVp1
p1509
aS'dejavusans'
p1510
aS'#000000'
p1511
aF10.0
aI0
aI00
aI00
aI00
aI00
aI00
aI00
aI00
aI00
aa(lp1512
I144483
aF117.84
aF488.62
aVp1
p1513
aS'dejavusans'
p1514
aS'#000000'
p1515
aF10.0
aI0
aI00
aI00
aI00
aI00
aI00
aI00
aI00
aI00
aa(lp1516
I202216
aF133.43
aF488.62
aVp1
p1517
aS'dejavusans'
p1518
aS'#000000'
p1519
aF10.0
aI0
aI00
aI00
aI00
aI00
aI00
aI00
aI00
aI00
aa(lp1520
I234378
aF192.84833333333333
aF488.62
ag1517
aS'dejavusans'
p1521
aS'#000000'
p1522
aF10.0
aI0
aI00
aI00
aI00
aI00
aI00
aI00
aI00
aI00
aa(lp1523
I106901
aF41.5
aF513.02
aVp1
p1524
aS'dejavusans'
p1525
aS'#000000'
p1526
aF10.0
aI1
aI01
aI00
aI00
aI00
aI00
aI00
aI00
aI00
aa(lp1527
I234378
aF113.75
aF513.02
aVp1
p1528
aS'dejavusans'
p1529
aS'#000000'
p1530
aF10.0
aI1
aI01
aI00
aI00
aI00
aI00
aI00
aI00
aI00
aa(lp1531
I234378
aF164.64499999999998
aF513.02
ag1528
aS'dejavusans'
p1532
aS'#000000'
p1533
aF10.0
aI1
aI00
aI00
aI00
aI00
aI00
aI00
aI00
aI00
aa(lp1534
I142605
aF173.79
aF513.02
aVp1
p1535
aS'dejavusans'
p1536
aS'#000000'
p1537
aF10.0
aI1
aI01
aI00
aI00
aI00
aI00
aI00
aI00
aI00
aa(lp1538
I234378
aF373.8
aF513.02
aVp1
p1539
aS'dejavusans'
p1540
aS'#000000'
p1541
aF10.0
aI0
aI01
aI00
aI00
aI00
aI00
aI00
aI00
aI01
aa(lp1542
I234378
aF396.48
aF513.02
aVp1
p1543
aS'dejavusans'
p1544
aS'#000000'
p1545
aF10.0
aI0
aI00
aI00
aI01
aI01
aI01
aI00
aI00
aI00
aa(lp1546
I234378
aF420.55
aF513.02
aVp1
p1547
aS'dejavusans'
p1548
aS'#000000'
p1549
aF10.0
aI0
aI01
aI00
aI00
aI00
aI00
aI00
aI00
aI01
aa(lp1550
I234378
aF443.23
aF513.02
aVp1
p1551
aS'dejavusans'
p1552
aS'#000000'
p1553
aF10.0
aI0
aI00
aI00
aI01
aI01
aI01
aI00
aI00
aI00
aa(lp1554
I234378
aF466.8
aF513.02
aVp1
p1555
aS'dejavusans'
p1556
aS'#000000'
p1557
aF10.0
aI1
aI01
aI00
aI00
aI00
aI00
aI00
aI00
aI00
aa(lp1558
I132100
aF466.8
aF524.72
aVp1
p1559
aS'dejavusans'
p1560
aS'#000000'
p1561
aF10.0
aI1
aI01
aI00
aI00
aI00
aI00
aI00
aI00
aI00
aa(lp1562
I43748
aF41.5
aF536.32
aVp1
p1563
aS'dejavusans'
p1564
aS'#000000'
p1565
aF10.0
aI0
aI01
aI00
aI00
aI00
aI00
aI00
aI00
aI00
aa(lp1566
I219882
aF71.77
aF536.32
aVp1
p1567
aS'dejavusans'
p1568
aS'#000000'
p1569
aF10.0
aI0
aI00
aI00
aI00
aI00
aI00
aI00
aI00
aI00
aa(lp1570
I234378
aF93.85
aF536.32
aVp1
p1571
aS'dejavusans'
p1572
aS'#000000'
p1573
aF10.0
aI0
aI00
aI00
aI00
aI00
aI00
aI00
aI00
aI00
aa(lp1574
I85218
aF124.51
aF536.32
aVp1
p1575
aS'dejavusans'
p1576
aS'#000000'
p1577
aF10.0
aI0
aI00
aI00
aI00
aI00
aI00
aI00
aI00
aI00
aa(lp1578
I234378
aF149.78
aF536.32
aVp1
p1579
aS'dejavusans'
p1580
aS'#000000'
p1581
aF10.0
aI0
aI00
aI00
aI00
aI00
aI00
aI00
aI00
aI00
aa(lp1582
I217810
aF230.99
aF536.32
aVp1
p1583
aS'dejavusans'
p1584
aS'#000000'
p1585
aF10.0
aI0
aI00
aI00
aI00
aI00
aI00
aI00
aI00
aI00
aa(lp1586
I234378
aF280.02
aF536.32
aVp1
p1587
aS'dejavusans'
p1588
aS'#000000'
p1589
aF10.0
aI0
aI01
aI00
aI00
aI00
aI00
aI00
aI00
aI00
aa(lp1590
I25931
aF344.86
aF536.32
aVp1
p1591
aS'dejavusans'
p1592
aS'#000000'
p1593
aF10.0
aI0
aI00
aI00
aI00
aI00
aI00
aI00
aI00
aI00
aa(lp1594
I234378
aF378.81
aF536.32
aVp1
p1595
aS'dejavusans'
p1596
aS'#000000'
p1597
aF10.0
aI0
aI00
aI00
aI00
aI00
aI00
aI00
aI00
aI00
aa(lp1598
I234378
aF443.3607692307692
aF536.32
ag1595
aS'dejavusans'
p1599
aS'#000000'
p1600
aF10.0
aI0
aI00
aI00
aI00
aI00
aI00
aI00
aI00
aI00
aa(lp1601
I141534
aF455.35
aF536.32
aVp1
p1602
aS'dejavusans'
p1603
aS'#000000'
p1604
aF10.0
aI0
aI00
aI00
aI00
aI00
aI00
aI00
aI00
aI00
aa(lp1605
I194354
aF519.0
aF536.32
aVp1
p1606
aS'dejavusans'
p1607
aS'#000000'
p1608
aF10.0
aI0
aI00
aI00
aI00
aI00
aI00
aI00
aI00
aI00
aa(lp1609
I990
aF541.97
aF536.32
aVp1
p1610
aS'dejavusans'
p1611
aS'#000000'
p1612
aF10.0
aI0
aI00
aI00
aI00
aI00
aI00
aI00
aI00
aI00
aa(lp1613
I207716
aF41.5
aF548.02
aVp1
p1614
aS'dejavusans'
p1615
aS'#000000'
p1616
aF10.0
aI0
aI00
aI00
aI00
aI00
aI00
aI00
aI00
aI00
aa(lp1617
I233134
aF80.87
aF548.02
aVp1
p1618
aS'dejavusans'
p1619
aS'#000000'
p1620
aF10.0
aI0
aI00
aI00
aI00
aI00
aI00
aI00
aI00
aI00
aa(lp1621
I85218
aF127.84
aF548.02
aVp1
p1622
aS'dejavusans'
p1623
aS'#000000'
p1624
aF10.0
aI0
aI00
aI00
aI00
aI00
aI00
aI00
aI00
aI00
aa(lp1625
I127387
aF149.82
aF548.02
aVp1
p1626
aS'dejavusans'
p1627
aS'#000000'
p1628
aF10.0
aI0
aI00
aI00
aI00
aI00
aI00
aI00
aI00
aI00
aa(lp1629
I194354
aF206.87
aF548.02
aVp1
p1630
aS'dejavusans'
p1631
aS'#000000'
p1632
aF10.0
aI0
aI00
aI00
aI00
aI00
aI00
aI00
aI00
aI00
aa(lp1633
I141150
aF226.45
aF548.02
aVp1
p1634
aS'dejavusans'
p1635
aS'#000000'
p1636
aF10.0
aI0
aI00
aI00
aI00
aI00
aI00
aI00
aI00
aI00
aa(lp1637
I103154
aF256.83
aF548.02
aVp1
p1638
aS'dejavusans'
p1639
aS'#000000'
p1640
aF10.0
aI0
aI00
aI00
aI00
aI00
aI00
aI00
aI00
aI00
aa(lp1641
I131049
aF283.5
aF548.02
aVp1
p1642
aS'dejavusans'
p1643
aS'#000000'
p1644
aF10.0
aI0
aI00
aI00
aI00
aI00
aI00
aI00
aI00
aI00
aa(lp1645
I207359
aF309.89
aF548.02
aVp1
p1646
aS'dejavusans'
p1647
aS'#000000'
p1648
aF10.0
aI0
aI00
aI00
aI00
aI00
aI00
aI00
aI00
aI00
aa(lp1649
I234378
aF344.75874999999996
aF548.02
ag1646
aS'dejavusans'
p1650
aS'#000000'
p1651
aF10.0
aI0
aI00
aI00
aI00
aI00
aI00
aI00
aI00
aI00
aa(lp1652
I177958
aF50.0
aF559.62
aVp1
p1653
aS'dejavusans'
p1654
aS'#000000'
p1655
aF10.0
aI0
aI01
aI00
aI00
aI00
aI00
aI00
aI00
aI00
aa(lp1656
I234378
aF88.45
aF559.62
aVp1
p1657
aS'dejavusans'
p1658
aS'#000000'
p1659
aF10.0
aI0
aI01
aI00
aI00
aI00
aI00
aI00
aI00
aI00
aa(lp1660
I207716
aF146.1
aF559.62
aVp1
p1661
aS'dejavusans'
p1662
aS'#000000'
p1663
aF10.0
aI0
aI01
aI00
aI00
aI00
aI00
aI00
aI00
aI00
aa(lp1664
I190806
aF187.57
aF559.62
aVp1
p1665
aS'dejavusans'
p1666
aS'#000000'
p1667
aF10.0
aI0
aI00
aI00
aI00
aI00
aI00
aI00
aI00
aI00
aa(lp1668
I234378
aF205.45
aF559.62
aVp1
p1669
aS'dejavusans'
p1670
aS'#000000'
p1671
aF10.0
aI0
aI01
aI01
aI00
aI00
aI00
aI00
aI00
aI00
aa(lp1672
I166593
aF247.17
aF559.62
aVp1
p1673
aS'dejavusans'
p1674
aS'#000000'
p1675
aF10.0
aI0
aI01
aI01
aI00
aI00
aI00
aI00
aI00
aI00
aa(lp1676
I234378
aF258.25
aF559.62
aVp1
p1677
aS'dejavusans'
p1678
aS'#000000'
p1679
aF10.0
aI0
aI00
aI00
aI00
aI00
aI00
aI00
aI00
aI00
aa(lp1680
I89480
aF301.21
aF559.62
aVp1
p1681
aS'dejavusans'
p1682
aS'#000000'
p1683
aF10.0
aI0
aI00
aI00
aI00
aI00
aI00
aI00
aI00
aI00
aa(lp1684
I183996
aF315.39
aF559.62
aVp1
p1685
aS'dejavusans'
p1686
aS'#000000'
p1687
aF10.0
aI0
aI00
aI00
aI00
aI00
aI00
aI00
aI00
aI00
aa(lp1688
I76482
aF358.75
aF559.62
aVp1
p1689
aS'dejavusans'
p1690
aS'#000000'
p1691
aF10.0
aI0
aI00
aI00
aI00
aI00
aI00
aI00
aI00
aI00
aa(lp1692
I51933
aF425.09
aF559.62
aVp1
p1693
aS'dejavusans'
p1694
aS'#000000'
p1695
aF10.0
aI0
aI00
aI00
aI00
aI00
aI00
aI00
aI00
aI00
aa(lp1696
I75739
aF453.46
aF559.62
aVp1
p1697
aS'dejavusans'
p1698
aS'#000000'
p1699
aF10.0
aI0
aI00
aI00
aI00
aI00
aI00
aI00
aI00
aI00
aa(lp1700
I192651
aF472.92
aF559.62
aVp1
p1701
aS'dejavusans'
p1702
aS'#000000'
p1703
aF10.0
aI0
aI00
aI00
aI00
aI00
aI00
aI00
aI00
aI00
aa(lp1704
I234378
aF489.4
aF559.62
aVp1
p1705
aS'dejavusans'
p1706
aS'#000000'
p1707
aF10.0
aI0
aI00
aI00
aI00
aI00
aI00
aI00
aI00
aI00
aa(lp1708
I85218
aF550.55
aF559.62
aVp1
p1709
aS'dejavusans'
p1710
aS'#000000'
p1711
aF10.0
aI0
aI00
aI00
aI00
aI00
aI00
aI00
aI00
aI00
aa(lp1712
I40515
aF50.0
aF572.02
aVp1
p1713
aS'dejavusans'
p1714
aS'#000000'
p1715
aF10.0
aI0
aI00
aI00
aI00
aI00
aI00
aI00
aI00
aI00
aa(lp1716
I224923
aF84.67
aF572.02
aVp1
p1717
aS'dejavusans'
p1718
aS'#000000'
p1719
aF10.0
aI0
aI00
aI00
aI00
aI00
aI00
aI00
aI00
aI00
aa(lp1720
I52628
aF143.12
aF572.02
aVp1
p1721
aS'dejavusans'
p1722
aS'#000000'
p1723
aF10.0
aI0
aI00
aI00
aI00
aI00
aI00
aI00
aI00
aI00
aa(lp1724
I135639
aF170.19
aF572.02
aVp1
p1725
aS'dejavusans'
p1726
aS'#000000'
p1727
aF10.0
aI0
aI00
aI00
aI00
aI00
aI00
aI00
aI00
aI00
aa(lp1728
I19490
aF183.46
aF572.02
aVp1
p1729
aS'dejavusans'
p1730
aS'#000000'
p1731
aF10.0
aI0
aI00
aI00
aI00
aI00
aI00
aI00
aI00
aI00
aa(lp1732
I144489
aF210.84
aF572.02
aVp1
p1733
aS'dejavusans'
p1734
aS'#000000'
p1735
aF10.0
aI0
aI00
aI00
aI00
aI00
aI00
aI00
aI00
aI00
aa(lp1736
I234378
aF224.62
aF572.02
aVp1
p1737
aS'dejavusans'
p1738
aS'#000000'
p1739
aF10.0
aI0
aI00
aI00
aI00
aI00
aI00
aI00
aI00
aI00
aa(lp1740
I85218
aF262.87
aF572.02
aVp1
p1741
aS'dejavusans'
p1742
aS'#000000'
p1743
aF10.0
aI0
aI00
aI00
aI00
aI00
aI00
aI00
aI00
aI00
aa(lp1744
I234378
aF285.84
aF572.02
aVp1
p1745
aS'dejavusans'
p1746
aS'#000000'
p1747
aF10.0
aI0
aI00
aI00
aI00
aI00
aI00
aI00
aI00
aI00
aa(lp1748
I35885
aF324.41
aF572.02
aVp1
p1749
aS'dejavusans'
p1750
aS'#000000'
p1751
aF10.0
aI0
aI00
aI00
aI00
aI00
aI00
aI00
aI00
aI00
aa(lp1752
I144483
aF358.68
aF572.02
aVp1
p1753
aS'dejavusans'
p1754
aS'#000000'
p1755
aF10.0
aI0
aI00
aI00
aI00
aI00
aI00
aI00
aI00
aI00
aa(lp1756
I234378
aF375.26
aF572.02
aVp1
p1757
aS'dejavusans'
p1758
aS'#000000'
p1759
aF10.0
aI0
aI00
aI00
aI00
aI00
aI00
aI00
aI00
aI00
aa(lp1760
I144489
aF427.8
aF572.02
aVp1
p1761
aS'dejavusans'
p1762
aS'#000000'
p1763
aF10.0
aI0
aI00
aI00
aI00
aI00
aI00
aI00
aI00
aI00
aa(lp1764
I52532
aF441.58
aF572.02
aVp1
p1765
aS'dejavusans'
p1766
aS'#000000'
p1767
aF10.0
aI0
aI00
aI00
aI00
aI00
aI00
aI00
aI00
aI00
aa(lp1768
I234378
aF488.12
aF572.02
aVp1
p1769
aS'dejavusans'
p1770
aS'#000000'
p1771
aF10.0
aI0
aI00
aI00
aI00
aI00
aI00
aI00
aI00
aI00
aa(lp1772
I144489
aF519.19
aF572.02
aVp1
p1773
aS'dejavusans'
p1774
aS'#000000'
p1775
aF10.0
aI0
aI00
aI00
aI00
aI00
aI00
aI00
aI00
aI00
aa(lp1776
I90974
aF532.97
aF572.02
aVp1
p1777
aS'dejavusans'
p1778
aS'#000000'
p1779
aF10.0
aI0
aI00
aI00
aI00
aI00
aI00
aI00
aI00
aI00
aa(lp1780
I234378
aF549.898
aF572.02
ag1777
aS'dejavusans'
p1781
aS'#000000'
p1782
aF10.0
aI0
aI00
aI00
aI00
aI00
aI00
aI00
aI00
aI00
aa(lp1783
I234378
aF558.34
aF572.02
aVp1
p1784
aS'dejavusans'
p1785
aS'#000000'
p1786
aF10.0
aI0
aI00
aI00
aI00
aI00
aI00
aI00
aI00
aI00
aa(lp1787
I166593
aF563.71
aF572.02
ag1784
aS'dejavusans'
p1788
aS'#000000'
p1789
aF10.0
aI0
aI01
aI01
aI00
aI00
aI00
aI00
aI00
aI00
aa(lp1790
I234378
aF50.0
aF583.72
aVp1
p1791
aS'dejavusans'
p1792
aS'#000000'
p1793
aF10.0
aI0
aI01
aI01
aI00
aI00
aI00
aI00
aI00
aI00
aa(lp1794
I177958
aF93.96
aF583.72
aVp1
p1795
aS'dejavusans'
p1796
aS'#000000'
p1797
aF10.0
aI0
aI01
aI00
aI00
aI00
aI00
aI00
aI00
aI00
aa(lp1798
I234378
aF127.27125
aF583.72
ag1795
aS'dejavusans'
p1799
aS'#000000'
p1800
aF10.0
aI0
aI00
aI00
aI00
aI00
aI00
aI00
aI00
aI00
aa(lp1801
I164858
aF50.0
aF595.32
aVp1
p1802
aS'dejavusans'
p1803
aS'#000000'
p1804
aF10.0
aI0
aI01
aI00
aI00
aI00
aI00
aI00
aI00
aI00
aa(lp1805
I153177
aF86.06
aF595.32
aVp1
p1806
aS'dejavusans'
p1807
aS'#000000'
p1808
aF10.0
aI0
aI01
aI00
aI00
aI00
aI00
aI00
aI00
aI00
aa(lp1809
I207716
aF158.8
aF595.32
aVp1
p1810
aS'dejavusans'
p1811
aS'#000000'
p1812
aF10.0
aI0
aI01
aI00
aI00
aI00
aI00
aI00
aI00
aI00
aa(lp1813
I166593
aF215.07
aF595.32
aVp1
p1814
aS'dejavusans'
p1815
aS'#000000'
p1816
aF10.0
aI0
aI01
aI01
aI00
aI00
aI00
aI00
aI00
aI00
aa(lp1817
I162759
aF228.75
aF595.32
aVp1
p1818
aS'dejavusans'
p1819
aS'#000000'
p1820
aF10.0
aI0
aI01
aI00
aI00
aI00
aI00
aI00
aI00
aI00
aa(lp1821
I39311
aF283.89
aF595.32
aVp1
p1822
aS'dejavusans'
p1823
aS'#000000'
p1824
aF10.0
aI0
aI01
aI00
aI00
aI00
aI00
aI00
aI00
aI00
aa(lp1825
I156028
aF331.14
aF595.32
aVp1
p1826
aS'dejavusans'
p1827
aS'#000000'
p1828
aF10.0
aI0
aI00
aI00
aI00
aI00
aI00
aI00
aI00
aI00
aa(lp1829
I190806
aF356.92
aF595.32
aVp1
p1830
aS'dejavusans'
p1831
aS'#000000'
p1832
aF10.0
aI0
aI00
aI00
aI00
aI00
aI00
aI00
aI00
aI00
aa(lp1833
I166593
aF377.6
aF595.32
aVp1
p1834
aS'dejavusans'
p1835
aS'#000000'
p1836
aF10.0
aI0
aI00
aI00
aI00
aI00
aI00
aI00
aI00
aI00
aa(lp1837
I170187
aF390.58
aF595.32
aVp1
p1838
aS'dejavusans'
p1839
aS'#000000'
p1840
aF10.0
aI0
aI01
aI00
aI00
aI00
aI00
aI00
aI00
aI00
aa(lp1841
I234378
aF442.64
aF595.32
aVp1
p1842
aS'dejavusans'
p1843
aS'#000000'
p1844
aF10.0
aI0
aI01
aI00
aI00
aI00
aI00
aI00
aI00
aI00
aa(lp1845
I2006
aF521.98
aF595.32
aVp1
p1846
aS'dejavusans'
p1847
aS'#000000'
p1848
aF10.0
aI0
aI01
aI00
aI00
aI00
aI00
aI00
aI00
aI00
aa(lp1849
I234378
aF50.0
aF607.72
aVp1
p1850
aS'dejavusans'
p1851
aS'#000000'
p1852
aF10.0
aI0
aI00
aI00
aI00
aI00
aI00
aI00
aI00
aI00
aa(lp1853
I41890
aF103.35
aF607.72
aVp1
p1854
aS'dejavusans'
p1855
aS'#000000'
p1856
aF10.0
aI0
aI00
aI00
aI00
aI00
aI00
aI00
aI00
aI00
aa(lp1857
I234378
aF118.13
aF607.72
aVp1
p1858
aS'dejavusans'
p1859
aS'#000000'
p1860
aF10.0
aI0
aI00
aI00
aI00
aI00
aI00
aI00
aI00
aI00
aa(lp1861
I85312
aF154.59
aF607.72
aVp1
p1862
aS'dejavusans'
p1863
aS'#000000'
p1864
aF10.0
aI0
aI00
aI00
aI00
aI00
aI00
aI00
aI00
aI00
aa(lp1865
I55039
aF205.94
aF607.72
aVp1
p1866
aS'dejavusans'
p1867
aS'#000000'
p1868
aF10.0
aI0
aI00
aI00
aI00
aI00
aI00
aI00
aI00
aI00
aa(lp1869
I234378
aF227.52
aF607.72
aVp1
p1870
aS'dejavusans'
p1871
aS'#000000'
p1872
aF10.0
aI0
aI00
aI00
aI00
aI00
aI00
aI00
aI00
aI00
aa(lp1873
I234378
aF273.8666666666667
aF607.72
ag1870
aS'dejavusans'
p1874
aS'#000000'
p1875
aF10.0
aI0
aI00
aI00
aI00
aI00
aI00
aI00
aI00
aI00
aa(lp1876
I234378
aF282.87
aF607.72
aVp1
p1877
aS'dejavusans'
p1878
aS'#000000'
p1879
aF10.0
aI0
aI00
aI00
aI00
aI00
aI00
aI00
aI00
aI00
aa(lp1880
I234378
aF324.43444444444447
aF607.72
ag1877
aS'dejavusans'
p1881
aS'#000000'
p1882
aF10.0
aI0
aI00
aI00
aI00
aI00
aI00
aI00
aI00
aI00
aa(lp1883
I167796
aF332.84
aF607.72
aVp1
p1884
aS'dejavusans'
p1885
aS'#000000'
p1886
aF10.0
aI0
aI00
aI00
aI00
aI00
aI00
aI00
aI00
aI00
aa(lp1887
I234378
aF385.3
aF607.72
aVp1
p1888
aS'dejavusans'
p1889
aS'#000000'
p1890
aF10.0
aI0
aI00
aI00
aI00
aI00
aI00
aI00
aI00
aI00
aa(lp1891
I234378
aF426.96
aF607.72
aVp1
p1892
aS'dejavusans'
p1893
aS'#000000'
p1894
aF10.0
aI0
aI00
aI00
aI00
aI00
aI00
aI00
aI00
aI00
aa(lp1895
I234378
aF440.955
aF607.72
ag1892
aS'dejavusans'
p1896
aS'#000000'
p1897
aF10.0
aI0
aI00
aI00
aI00
aI00
aI00
aI00
aI00
aI00
aa(lp1898
I52238
aF50.0
aF619.42
aVp1
p1899
aS'dejavusans'
p1900
aS'#000000'
p1901
aF10.0
aI0
aI01
aI00
aI00
aI00
aI00
aI00
aI00
aI00
aa(lp1902
I64856
aF74.27
aF619.42
aVp1
p1903
aS'dejavusans'
p1904
aS'#000000'
p1905
aF10.0
aI0
aI01
aI00
aI00
aI00
aI00
aI00
aI00
aI00
aa(lp1906
I234378
aF107.92
aF619.42
aVp1
p1907
aS'dejavusans'
p1908
aS'#000000'
p1909
aF10.0
aI0
aI01
aI00
aI00
aI00
aI00
aI00
aI00
aI00
aa(lp1910
I16329
aF163.57
aF619.42
aVp1
p1911
aS'dejavusans'
p1912
aS'#000000'
p1913
aF10.0
aI0
aI01
aI00
aI00
aI00
aI00
aI00
aI00
aI00
aa(lp1914
I234378
aF180.94
aF619.42
aVp1
p1915
aS'dejavusans'
p1916
aS'#000000'
p1917
aF10.0
aI0
aI01
aI00
aI00
aI00
aI00
aI00
aI00
aI00
aa(lp1918
I64856
aF217.29
aF619.42
aVp1
p1919
aS'dejavusans'
p1920
aS'#000000'
p1921
aF10.0
aI0
aI00
aI00
aI00
aI00
aI00
aI00
aI00
aI00
aa(lp1922
I163896
aF249.14
aF619.42
aVp1
p1923
aS'dejavusans'
p1924
aS'#000000'
p1925
aF10.0
aI0
aI00
aI00
aI00
aI00
aI00
aI00
aI00
aI00
aa(lp1926
I234378
aF293.09
aF619.42
aVp1
p1927
aS'dejavusans'
p1928
aS'#000000'
p1929
aF10.0
aI0
aI00
aI00
aI00
aI00
aI00
aI00
aI00
aI00
aa(lp1930
I190806
aF335.94
aF619.42
aVp1
p1931
aS'dejavusans'
p1932
aS'#000000'
p1933
aF10.0
aI0
aI00
aI00
aI00
aI00
aI00
aI00
aI00
aI00
aa(lp1934
I221833
aF353.82
aF619.42
aVp1
p1935
aS'dejavusans'
p1936
aS'#000000'
p1937
aF10.0
aI0
aI01
aI00
aI00
aI00
aI00
aI00
aI00
aI00
aa(lp1938
I234378
aF381.1116666666667
aF619.42
ag1935
aS'dejavusans'
p1939
aS'#000000'
p1940
aF10.0
aI0
aI00
aI00
aI00
aI00
aI00
aI00
aI00
aI00
aa(lp1941
I70726
aF390.78
aF619.42
aVp1
p1942
aS'dejavusans'
p1943
aS'#000000'
p1944
aF10.0
aI0
aI01
aI00
aI00
aI00
aI00
aI00
aI00
aI00
aa(lp1945
I234378
aF427.29375
aF619.42
ag1942
aS'dejavusans'
p1946
aS'#000000'
p1947
aF10.0
aI0
aI00
aI00
aI00
aI00
aI00
aI00
aI00
aI00
aa(lp1948
I234378
aF436.62
aF619.42
aVp1
p1949
aS'dejavusans'
p1950
aS'#000000'
p1951
aF10.0
aI0
aI01
aI01
aI00
aI00
aI00
aI00
aI00
aI00
aa(lp1952
I108443
aF474.08
aF619.42
aVp1
p1953
aS'dejavusans'
p1954
aS'#000000'
p1955
aF10.0
aI0
aI00
aI00
aI00
aI00
aI00
aI00
aI00
aI00
aa(lp1956
I234378
aF512.14
aF619.42
aVp1
p1957
aS'dejavusans'
p1958
aS'#000000'
p1959
aF10.0
aI0
aI00
aI00
aI00
aI00
aI00
aI00
aI00
aI00
aa(lp1960
I234378
aF563.7945454545454
aF619.42
ag1957
aS'dejavusans'
p1961
aS'#000000'
p1962
aF10.0
aI0
aI00
aI00
aI00
aI00
aI00
aI00
aI00
aI00
aa(lp1963
I125801
aF50.0
aF631.82
aVp1
p1964
aS'dejavusans'
p1965
aS'#000000'
p1966
aF10.0
aI0
aI01
aI00
aI00
aI00
aI00
aI00
aI00
aI00
aa(lp1967
I144489
aF74.18
aF631.82
aVp1
p1968
aS'dejavusans'
p1969
aS'#000000'
p1970
aF10.0
aI0
aI00
aI00
aI00
aI00
aI00
aI00
aI00
aI00
aa(lp1971
I104512
aF86.97
aF631.82
aVp1
p1972
aS'dejavusans'
p1973
aS'#000000'
p1974
aF10.0
aI0
aI00
aI00
aI00
aI00
aI00
aI00
aI00
aI00
aa(lp1975
I197416
aF102.05
aF631.82
aVp1
p1976
aS'dejavusans'
p1977
aS'#000000'
p1978
aF10.0
aI0
aI00
aI00
aI00
aI00
aI00
aI00
aI00
aI00
aa(lp1979
I89480
aF127.53
aF631.82
aVp1
p1980
aS'dejavusans'
p1981
aS'#000000'
p1982
aF10.0
aI0
aI00
aI00
aI00
aI00
aI00
aI00
aI00
aI00
aa(lp1983
I62551
aF140.81
aF631.82
aVp1
p1984
aS'dejavusans'
p1985
aS'#000000'
p1986
aF10.0
aI0
aI00
aI00
aI00
aI00
aI00
aI00
aI00
aI00
aa(lp1987
I51082
aF168.49
aF631.82
aVp1
p1988
aS'dejavusans'
p1989
aS'#000000'
p1990
aF10.0
aI0
aI00
aI00
aI00
aI00
aI00
aI00
aI00
aI00
aa(lp1991
I25230
aF188.76
aF631.82
aVp1
p1992
aS'dejavusans'
p1993
aS'#000000'
p1994
aF10.0
aI0
aI00
aI00
aI00
aI00
aI00
aI00
aI00
aI00
aa(lp1995
I190806
aF224.12
aF631.82
aVp1
p1996
aS'dejavusans'
p1997
aS'#000000'
p1998
aF10.0
aI0
aI00
aI00
aI00
aI00
aI00
aI00
aI00
aI00
aa(lp1999
I163896
aF241.01
aF631.82
aVp1
p2000
aS'dejavusans'
p2001
aS'#000000'
p2002
aF10.0
aI0
aI01
aI00
aI00
aI00
aI00
aI00
aI00
aI00
aa(lp2003
I85218
aF284.47
aF631.82
aVp1
p2004
aS'dejavusans'
p2005
aS'#000000'
p2006
aF10.0
aI0
aI00
aI00
aI00
aI00
aI00
aI00
aI00
aI00
aa(lp2007
I128400
aF306.45
aF631.82
aVp1
p2008
aS'dejavusans'
p2009
aS'#000000'
p2010
aF10.0
aI0
aI01
aI00
aI00
aI00
aI00
aI00
aI00
aI00
aa(lp2011
I234378
aF341.31
aF631.82
ag2008
aS'dejavusans'
p2012
aS'#000000'
p2013
aF10.0
aI0
aI00
aI00
aI00
aI00
aI00
aI00
aI00
aI00
aa(lp2014
I124531
aF36.1
aF662.82
aVp1
p2015
aS'dejavusans'
p2016
aS'#000000'
p2017
aF10.0
aI1
aI01
aI00
aI00
aI00
aI00
aI00
aI00
aI00
aa(lp2018
I24622
aF36.1
aF676.22
aVp1
p2019
aS'dejavusans'
p2020
aS'#000000'
p2021
aF10.0
aI0
aI01
aI00
aI00
aI00
aI00
aI00
aI00
aI00
aa(lp2022
I144489
aF83.25
aF676.22
aVp1
p2023
aS'dejavusans'
p2024
aS'#000000'
p2025
aF10.0
aI0
aI00
aI00
aI00
aI00
aI00
aI00
aI00
aI00
aa(lp2026
I199937
aF96.04
aF676.22
aVp1
p2027
aS'dejavusans'
p2028
aS'#000000'
p2029
aF10.0
aI0
aI01
aI00
aI00
aI00
aI00
aI00
aI00
aI00
aa(lp2030
I234378
aF159.19
aF676.22
aVp1
p2031
aS'dejavusans'
p2032
aS'#000000'
p2033
aF10.0
aI0
aI00
aI00
aI00
aI00
aI00
aI00
aI00
aI00
aa(lp2034
I109432
aF164.936
aF676.22
ag2031
aS'dejavusans'
p2035
aS'#000000'
p2036
aF10.0
aI0
aI01
aI00
aI00
aI00
aI00
aI00
aI00
aI00
aa(lp2037
I234378
aF210.904
aF676.22
ag2031
aS'dejavusans'
p2038
aS'#000000'
p2039
aF10.0
aI0
aI00
aI00
aI00
aI00
aI00
aI00
aI00
aI00
aa(lp2040
I131049
aF219.84
aF676.22
aVp1
p2041
aS'dejavusans'
p2042
aS'#000000'
p2043
aF10.0
aI0
aI00
aI00
aI00
aI00
aI00
aI00
aI00
aI00
aa(lp2044
I176113
aF246.22
aF676.22
aVp1
p2045
aS'dejavusans'
p2046
aS'#000000'
p2047
aF10.0
aI0
aI01
aI00
aI00
aI00
aI00
aI00
aI00
aI00
aa(lp2048
I234378
aF271.8
aF676.22
aVp1
p2049
aS'dejavusans'
p2050
aS'#000000'
p2051
aF10.0
aI0
aI01
aI00
aI00
aI00
aI00
aI00
aI00
aI00
aa(lp2052
I91495
aF314.77
aF676.22
aVp1
p2053
aS'dejavusans'
p2054
aS'#000000'
p2055
aF10.0
aI0
aI01
aI00
aI00
aI00
aI00
aI00
aI00
aI00
aa(lp2056
I234378
aF346.95
aF676.22
aVp1
p2057
aS'dejavusans'
p2058
aS'#000000'
p2059
aF10.0
aI0
aI01
aI00
aI00
aI00
aI00
aI00
aI00
aI00
aa(lp2060
I153079
aF387.22
aF676.22
aVp1
p2061
aS'dejavusans'
p2062
aS'#000000'
p2063
aF10.0
aI0
aI01
aI00
aI00
aI00
aI00
aI00
aI00
aI00
aa(lp2064
I234378
aF435.8927272727273
aF676.22
ag2061
aS'dejavusans'
p2065
aS'#000000'
p2066
aF10.0
aI0
aI00
aI00
aI00
aI00
aI00
aI00
aI00
aI00
aa(lp2067
I142605
aF443.97
aF676.22
aVp1
p2068
aS'dejavusans'
p2069
aS'#000000'
p2070
aF10.0
aI0
aI01
aI00
aI00
aI00
aI00
aI00
aI00
aI00
aa(lp2071
I234378
aF468.93666666666667
aF676.22
ag2068
aS'dejavusans'
p2072
aS'#000000'
p2073
aF10.0
aI0
aI00
aI00
aI00
aI00
aI00
aI00
aI00
aI00
aa(lp2074
I234378
aF480.33
aF676.22
aVp1
p2075
aS'dejavusans'
p2076
aS'#000000'
p2077
aF10.0
aI0
aI00
aI00
aI00
aI00
aI00
aI00
aI00
aI00
aa(lp2078
I101893
aF484.688
aF676.22
ag2075
aS'dejavusans'
p2079
aS'#000000'
p2080
aF10.0
aI0
aI01
aI00
aI00
aI00
aI00
aI00
aI00
aI01
aa(lp2081
I234378
aF505.3
aF676.22
aVp1
p2082
aS'dejavusans'
p2083
aS'#000000'
p2084
aF10.0
aI0
aI00
aI00
aI01
aI01
aI01
aI00
aI00
aI00
aa(lp2085
I234378
aF528.796
aF676.22
ag2082
aS'dejavusans'
p2086
aS'#000000'
p2087
aF10.0
aI0
aI00
aI00
aI00
aI00
aI00
aI00
aI00
aI00
aa(lp2088
I234378
aF36.1
aF690.92
aVp1
p2089
aS'dejavusans'
p2090
aS'#252525'
p2091
aF10.0
aI1
aI01
aI00
aI00
aI00
aI00
aI00
aI00
aI00
aa(lp2092
I84662
aF36.1
aF704.264
aVp1
p2093
aS'dejavusans'
p2094
aS'#000000'
p2095
aF12.0
aI1
aI01
aI00
aI00
aI00
aI00
aI00
aI00
aI00
aa(lp2096
I21716
aF71.368
aF704.264
aVp1
p2097
aS'dejavusans'
p2098
aS'#000000'
p2099
aF12.0
aI1
aI01
aI00
aI00
aI00
aI00
aI00
aI00
aI00
aa(lp2100
I17350
aF36.1
aF718.32
aVp1
p2101
aS'dejavusans'
p2102
aS'#000000'
p2103
aF10.0
aI1
aI01
aI00
aI00
aI00
aI00
aI00
aI00
aI00
aa(lp2104
I234378
aF63.89
aF718.32
aVp1
p2105
aS'dejavusans'
p2106
aS'#000000'
p2107
aF10.0
aI0
aI00
aI00
aI00
aI00
aI00
aI00
aI00
aI00
aa(lp2108
I234378
aF70.38
aF718.32
aVp1
p2109
aS'dejavusans'
p2110
aS'#000000'
p2111
aF10.0
aI0
aI01
aI01
aI01
aI00
aI00
aI00
aI00
aI00
aa(lp2112
I234378
aF90.5
aF718.32
ag2109
aS'dejavusans'
p2113
aS'#000000'
p2114
aF10.0
aI0
aI00
aI00
aI00
aI00
aI00
aI00
aI00
aI00
aa(lp2115
I148996
aF98.65
aF718.32
aVp1
p2116
aS'dejavusans'
p2117
aS'#000000'
p2118
aF10.0
aI0
aI01
aI00
aI00
aI00
aI00
aI00
aI00
aI00
aa(lp2119
I234378
aF129.02714285714285
aF718.32
ag2116
aS'dejavusans'
p2120
aS'#000000'
p2121
aF10.0
aI0
aI00
aI00
aI00
aI00
aI00
aI00
aI00
aI00
aa(lp2122
I176767
aF137.3
aF718.32
aVp1
p2123
aS'dejavusans'
p2124
aS'#000000'
p2125
aF10.0
aI0
aI01
aI00
aI00
aI00
aI00
aI00
aI00
aI00
aa(lp2126
I234378
aF184.406
aF718.32
ag2123
aS'dejavusans'
p2127
aS'#000000'
p2128
aF10.0
aI0
aI00
aI00
aI00
aI00
aI00
aI00
aI00
aI00
aa(lp2129
I100973
aF192.85
aF718.32
aVp1
p2130
aS'dejavusans'
p2131
aS'#000000'
p2132
aF10.0
aI0
aI01
aI00
aI00
aI00
aI00
aI00
aI00
aI00
aa(lp2133
I17350
aF234.32
aF718.32
aVp1
p2134
aS'dejavusans'
p2135
aS'#000000'
p2136
aF10.0
aI0
aI01
aI00
aI00
aI00
aI00
aI00
aI00
aI00
aa(lp2137
I119502
aF259.3
aF718.32
aVp1
p2138
aS'dejavusans'
p2139
aS'#000000'
p2140
aF10.0
aI0
aI00
aI00
aI00
aI00
aI00
aI00
aI00
aI00
aa(lp2141
I154254
aF298.25
aF718.32
aVp1
p2142
aS'dejavusans'
p2143
aS'#000000'
p2144
aF10.0
aI0
aI01
aI00
aI00
aI00
aI00
aI00
aI00
aI00
aa(lp2145
I234378
aF357.53
aF718.32
ag2142
aS'dejavusans'
p2146
aS'#000000'
p2147
aF10.0
aI0
aI00
aI00
aI00
aI00
aI00
aI00
aI00
aI00
aa(lp2148
I234378
aF365.69
aF718.32
aVp1
p2149
aS'dejavusans'
p2150
aS'#000000'
p2151
aF10.0
aI0
aI01
aI00
aI00
aI00
aI00
aI00
aI00
aI00
aa(lp2152
I234378
aF389.49
aF718.32
ag2149
aS'dejavusans'
p2153
aS'#000000'
p2154
aF10.0
aI0
aI00
aI00
aI00
aI00
aI00
aI00
aI00
aI00
aa(lp2155
I110786
aF397.47
aF718.32
aVp1
p2156
aS'dejavusans'
p2157
aS'#000000'
p2158
aF10.0
aI0
aI01
aI00
aI00
aI00
aI00
aI00
aI00
aI00
aa(lp2159
I121847
aF36.1
aF729.92
aVp1
p2160
aS'dejavusans'
p2161
aS'#000000'
p2162
aF10.0
aI1
aI01
aI00
aI00
aI00
aI00
aI00
aI00
aI00
aa(lp2163
I234378
aF62.57
aF729.92
aVp1
p2164
aS'dejavusans'
p2165
aS'#000000'
p2166
aF10.0
aI1
aI01
aI00
aI00
aI00
aI00
aI00
aI00
aI00
aa(lp2167
I234378
aF131.69
aF729.92
aVp1
p2168
aS'dejavusans'
p2169
aS'#000000'
p2170
aF10.0
aI0
aI00
aI00
aI00
aI00
aI00
aI00
aI00
aI00
aa(lp2171
I234378
aF138.18
aF729.92
aVp1
p2172
aS'dejavusans'
p2173
aS'#000000'
p2174
aF10.0
aI0
aI01
aI00
aI00
aI00
aI00
aI00
aI00
aI00
aa(lp2175
I234378
aF160.22166666666666
aF729.92
ag2172
aS'dejavusans'
p2176
aS'#000000'
p2177
aF10.0
aI0
aI00
aI00
aI00
aI00
aI00
aI00
aI00
aI00
aa(lp2178
I75399
aF167.84
aF729.92
aVp1
p2179
aS'dejavusans'
p2180
aS'#000000'
p2181
aF10.0
aI0
aI01
aI00
aI00
aI00
aI00
aI00
aI00
aI00
aa(lp2182
I234378
aF216.31111111111113
aF729.92
ag2179
aS'dejavusans'
p2183
aS'#000000'
p2184
aF10.0
aI0
aI00
aI00
aI00
aI00
aI00
aI00
aI00
aI00
aa(lp2185
I210388
aF225.58
aF729.92
aVp1
p2186
aS'dejavusans'
p2187
aS'#000000'
p2188
aF10.0
aI0
aI01
aI00
aI00
aI00
aI00
aI00
aI00
aI00
aa(lp2189
I234378
aF36.1
aF741.62
aVp1
p2190
aS'dejavusans'
p2191
aS'#000000'
p2192
aF10.0
aI1
aI01
aI00
aI00
aI00
aI00
aI00
aI00
aI00
aa(lp2193
I234378
aF92.59
aF741.62
aVp1
p2194
aS'dejavusans'
p2195
aS'#000000'
p2196
aF10.0
aI0
aI00
aI00
aI00
aI00
aI00
aI00
aI00
aI00
aa(lp2197
I234378
aF99.08
aF741.62
aVp1
p2198
aS'dejavusans'
p2199
aS'#000000'
p2200
aF10.0
aI0
aI01
aI00
aI00
aI00
aI00
aI00
aI00
aI00
aa(lp2201
I234378
aF132.72285714285715
aF741.62
ag2198
aS'dejavusans'
p2202
aS'#000000'
p2203
aF10.0
aI0
aI00
aI00
aI00
aI00
aI00
aI00
aI00
aI00
aa(lp2204
I234378
aF141.45
aF741.62
aVp1
p2205
aS'dejavusans'
p2206
aS'#000000'
p2207
aF10.0
aI0
aI01
aI00
aI00
aI00
aI00
aI00
aI00
aI00
aa(lp2208
I234378
aF172.73333333333332
aF741.62
ag2205
aS'dejavusans'
p2209
aS'#000000'
p2210
aF10.0
aI0
aI00
aI00
aI00
aI00
aI00
aI00
aI00
aI00
aa(lp2211
I45445
aF182.11
aF741.62
aVp1
p2212
aS'dejavusans'
p2213
aS'#000000'
p2214
aF10.0
aI0
aI01
aI00
aI00
aI00
aI00
aI00
aI00
aI00
aa(lp2215
I228643
aF36.1
aF36.02
aVp2
p2216
aS'dejavusans'
p2217
aS'#000000'
p2218
aF10.0
aI1
aI01
aI00
aI00
aI00
aI00
aI00
aI00
aI00
aa(lp2219
I234378
aF66.59
aF36.02
aVp2
p2220
aS'dejavusans'
p2221
aS'#000000'
p2222
aF10.0
aI0
aI00
aI00
aI00
aI00
aI00
aI00
aI00
aI00
aa(lp2223
I234378
aF75.57
aF36.02
aVp2
p2224
aS'dejavusans'
p2225
aS'#000000'
p2226
aF10.0
aI0
aI01
aI00
aI00
aI00
aI00
aI00
aI00
aI00
aa(lp2227
I234378
aF124.41545454545454
aF36.02
ag2224
aS'dejavusans'
p2228
aS'#000000'
p2229
aF10.0
aI0
aI00
aI00
aI00
aI00
aI00
aI00
aI00
aI00
aa(lp2230
I234378
aF135.01
aF36.02
aVp2
p2231
aS'dejavusans'
p2232
aS'#000000'
p2233
aF10.0
aI0
aI01
aI01
aI00
aI00
aI00
aI00
aI00
aI00
aa(lp2234
I234378
aF151.4125
aF36.02
ag2231
aS'dejavusans'
p2235
aS'#000000'
p2236
aF10.0
aI0
aI00
aI00
aI00
aI00
aI00
aI00
aI00
aI00
aa(lp2237
I234378
aF162.59
aF36.02
aVp2
p2238
aS'dejavusans'
p2239
aS'#000000'
p2240
aF10.0
aI0
aI01
aI01
aI00
aI00
aI00
aI00
aI00
aI00
aa(lp2241
I234378
aF178.5275
aF36.02
ag2238
aS'dejavusans'
p2242
aS'#000000'
p2243
aF10.0
aI0
aI00
aI00
aI00
aI00
aI00
aI00
aI00
aI00
aa(lp2244
I234378
aF189.56
aF36.02
aVp2
p2245
aS'dejavusans'
p2246
aS'#000000'
p2247
aF10.0
aI0
aI01
aI00
aI00
aI00
aI00
aI00
aI00
aI00
aa(lp2248
I234378
aF234.47555555555556
aF36.02
ag2245
aS'dejavusans'
p2249
aS'#000000'
p2250
aF10.0
aI0
aI00
aI00
aI00
aI00
aI00
aI00
aI00
aI00
aa(lp2251
I234378
aF245.8
aF36.02
aVp2
p2252
aS'dejavusans'
p2253
aS'#000000'
p2254
aF10.0
aI0
aI01
aI00
aI00
aI00
aI00
aI00
aI00
aI00
aa(lp2255
I234378
aF308.12615384615384
aF36.02
ag2252
aS'dejavusans'
p2256
aS'#000000'
p2257
aF10.0
aI0
aI00
aI00
aI00
aI00
aI00
aI00
aI00
aI00
aa(lp2258
I193682
aF319.03
aF36.02
aVp2
p2259
aS'dejavusans'
p2260
aS'#000000'
p2261
aF10.0
aI0
aI01
aI00
aI00
aI00
aI00
aI00
aI00
aI00
aa(lp2262
I234378
aF358.29
aF36.02
aVp2
p2263
aS'dejavusans'
p2264
aS'#000000'
p2265
aF10.0
aI0
aI01
aI00
aI00
aI00
aI00
aI00
aI00
aI00
aa(lp2266
I234378
aF406.098
aF36.02
ag2263
aS'dejavusans'
p2267
aS'#000000'
p2268
aF10.0
aI0
aI00
aI00
aI00
aI00
aI00
aI00
aI00
aI00
aa(lp2269
I234378
aF417.12
aF36.02
aVp2
p2270
aS'dejavusans'
p2271
aS'#000000'
p2272
aF10.0
aI0
aI01
aI00
aI00
aI00
aI00
aI00
aI00
aI00
aa(lp2273
I85218
aF465.77
aF36.02
aVp2
p2274
aS'dejavusans'
p2275
aS'#000000'
p2276
aF10.0
aI0
aI00
aI00
aI00
aI00
aI00
aI00
aI00
aI00
aa(lp2277
I234378
aF490.24
aF36.02
aVp2
p2278
aS'dejavusans'
p2279
aS'#000000'
p2280
aF10.0
aI0
aI01
aI01
aI00
aI00
aI00
aI00
aI00
aI00
aa(lp2281
I234378
aF520.5
aF36.02
aVp2
p2282
aS'dejavusans'
p2283
aS'#000000'
p2284
aF10.0
aI0
aI01
aI00
aI00
aI00
aI00
aI00
aI00
aI00
aa(lp2285
I234378
aF570.8433333333334
aF36.02
ag2282
aS'dejavusans'
p2286
aS'#000000'
p2287
aF10.0
aI0
aI00
aI00
aI00
aI00
aI00
aI00
aI00
aI00
aa(lp2288
I234378
aF36.1
aF47.72
aVp2
p2289
aS'dejavusans'
p2290
aS'#000000'
p2291
aF10.0
aI0
aI01
aI00
aI00
aI00
aI00
aI00
aI00
aI00
aa(lp2292
I234378
aF93.367
aF47.72
ag2289
aS'dejavusans'
p2293
aS'#000000'
p2294
aF10.0
aI0
aI00
aI00
aI00
aI00
aI00
aI00
aI00
aI00
aa(lp2295
I90780
aF36.1
aF59.32
aVp2
p2296
aS'dejavusans'
p2297
aS'#000000'
p2298
aF10.0
aI0
aI01
aI00
aI00
aI00
aI00
aI00
aI00
aI00
aa(lp2299
I127763
aF57.08
aF59.32
aVp2
p2300
aS'dejavusans'
p2301
aS'#000000'
p2302
aF10.0
aI0
aI00
aI00
aI00
aI00
aI00
aI00
aI00
aI00
aa(lp2303
I144483
aF114.42
aF59.32
aVp2
p2304
aS'dejavusans'
p2305
aS'#000000'
p2306
aF10.0
aI0
aI00
aI00
aI00
aI00
aI00
aI00
aI00
aI00
aa(lp2307
I234378
aF130.01
aF59.32
aVp2
p2308
aS'dejavusans'
p2309
aS'#000000'
p2310
aF10.0
aI0
aI01
aI00
aI00
aI00
aI00
aI00
aI00
aI00
aa(lp2311
I234378
aF200.75666666666666
aF59.32
ag2308
aS'dejavusans'
p2312
aS'#000000'
p2313
aF10.0
aI0
aI00
aI00
aI00
aI00
aI00
aI00
aI00
aI00
aa(lp2314
I144690
aF209.02
aF59.32
aVp2
p2315
aS'dejavusans'
p2316
aS'#000000'
p2317
aF10.0
aI0
aI01
aI00
aI00
aI00
aI00
aI00
aI00
aI00
aa(lp2318
I234378
aF246.68
aF59.32
aVp2
p2319
aS'dejavusans'
p2320
aS'#000000'
p2321
aF10.0
aI0
aI01
aI00
aI00
aI00
aI00
aI00
aI00
aI00
aa(lp2322
I85218
aF290.95
aF59.32
aVp2
p2323
aS'dejavusans'
p2324
aS'#000000'
p2325
aF10.0
aI0
aI00
aI00
aI00
aI00
aI00
aI00
aI00
aI00
aa(lp2326
I218852
aF312.93
aF59.32
aVp2
p2327
aS'dejavusans'
p2328
aS'#000000'
p2329
aF10.0
aI0
aI00
aI00
aI00
aI00
aI00
aI00
aI00
aI00
aa(lp2330
I234378
aF339.4
aF59.32
aVp2
p2331
aS'dejavusans'
p2332
aS'#000000'
p2333
aF10.0
aI0
aI00
aI00
aI00
aI00
aI00
aI00
aI00
aI00
aa(lp2334
I222718
aF36.1
aF71.02
aVp2
p2335
aS'dejavusans'
p2336
aS'#000000'
p2337
aF10.0
aI0
aI01
aI00
aI00
aI00
aI00
aI00
aI00
aI00
aa(lp2338
I169745
aF78.55
aF71.02
aVp2
p2339
aS'dejavusans'
p2340
aS'#000000'
p2341
aF10.0
aI0
aI00
aI00
aI00
aI00
aI00
aI00
aI00
aI00
aa(lp2342
I234378
aF102.83
aF71.02
aVp2
p2343
aS'dejavusans'
p2344
aS'#000000'
p2345
aF10.0
aI0
aI01
aI01
aI00
aI00
aI00
aI00
aI00
aI00
aa(lp2346
I234378
aF121.925
aF71.02
ag2343
aS'dejavusans'
p2347
aS'#000000'
p2348
aF10.0
aI0
aI00
aI00
aI00
aI00
aI00
aI00
aI00
aI00
aa(lp2349
I51660
aF131.5
aF71.02
aVp2
p2350
aS'dejavusans'
p2351
aS'#000000'
p2352
aF10.0
aI0
aI01
aI00
aI00
aI00
aI00
aI00
aI00
aI00
aa(lp2353
I131978
aF159.47
aF71.02
aVp2
p2354
aS'dejavusans'
p2355
aS'#000000'
p2356
aF10.0
aI0
aI01
aI00
aI00
aI00
aI00
aI00
aI00
aI00
aa(lp2357
I85218
aF227.42
aF71.02
aVp2
p2358
aS'dejavusans'
p2359
aS'#000000'
p2360
aF10.0
aI0
aI00
aI00
aI00
aI00
aI00
aI00
aI00
aI00
aa(lp2361
I234378
aF249.4
aF71.02
aVp2
p2362
aS'dejavusans'
p2363
aS'#000000'
p2364
aF10.0
aI0
aI01
aI00
aI00
aI00
aI00
aI00
aI00
aI00
aa(lp2365
I61195
aF290.18
aF71.02
aVp2
p2366
aS'dejavusans'
p2367
aS'#000000'
p2368
aF10.0
aI0
aI00
aI00
aI00
aI00
aI00
aI00
aI00
aI00
aa(lp2369
I153177
aF331.74
aF71.02
aVp2
p2370
aS'dejavusans'
p2371
aS'#000000'
p2372
aF10.0
aI0
aI00
aI00
aI00
aI00
aI00
aI00
aI00
aI00
aa(lp2373
I234378
aF395.4127272727273
aF71.02
ag2370
aS'dejavusans'
p2374
aS'#000000'
p2375
aF10.0
aI0
aI00
aI00
aI00
aI00
aI00
aI00
aI00
aI00
aa(lp2376
I234378
aF405.0
aF71.02
aVp2
p2377
aS'dejavusans'
p2378
aS'#000000'
p2379
aF10.0
aI0
aI01
aI01
aI00
aI00
aI00
aI00
aI00
aI00
aa(lp2380
I234378
aF422.96
aF71.02
ag2377
aS'dejavusans'
p2381
aS'#000000'
p2382
aF10.0
aI0
aI00
aI00
aI00
aI00
aI00
aI00
aI00
aI00
aa(lp2383
I234378
aF430.66
aF71.02
aVp2
p2384
aS'dejavusans'
p2385
aS'#000000'
p2386
aF10.0
aI0
aI01
aI00
aI00
aI00
aI00
aI00
aI00
aI00
aa(lp2387
I234378
aF469.7088888888889
aF71.02
ag2384
aS'dejavusans'
p2388
aS'#000000'
p2389
aF10.0
aI0
aI00
aI00
aI00
aI00
aI00
aI00
aI00
aI00
aa(lp2390
I183441
aF36.1
aF82.62
aVp2
p2391
aS'dejavusans'
p2392
aS'#000000'
p2393
aF10.0
aI1
aI01
aI00
aI00
aI00
aI00
aI00
aI00
aI00
aa(lp2394
I127763
aF69.27
aF82.62
aVp2
p2395
aS'dejavusans'
p2396
aS'#000000'
p2397
aF10.0
aI1
aI01
aI00
aI00
aI00
aI00
aI00
aI00
aI00
aa(lp2398
I144483
aF135.1
aF82.62
aVp2
p2399
aS'dejavusans'
p2400
aS'#000000'
p2401
aF10.0
aI0
aI00
aI00
aI00
aI00
aI00
aI00
aI00
aI00
aa(lp2402
I234378
aF36.1
aF94.32
aVp2
p2403
aS'dejavusans'
p2404
aS'#000000'
p2405
aF10.0
aI0
aI01
aI00
aI00
aI00
aI00
aI00
aI00
aI00
aa(lp2406
I234378
aF68.36
aF94.32
aVp2
p2407
aS'dejavusans'
p2408
aS'#000000'
p2409
aF10.0
aI0
aI00
aI00
aI00
aI00
aI00
aI00
aI00
aI00
aa(lp2410
I10716
aF123.03
aF94.32
aVp2
p2411
aS'dejavusans'
p2412
aS'#000000'
p2413
aF10.0
aI0
aI00
aI00
aI00
aI00
aI00
aI00
aI00
aI00
aa(lp2414
I234378
aF143.3
aF94.32
aVp2
p2415
aS'dejavusans'
p2416
aS'#000000'
p2417
aF10.0
aI0
aI01
aI00
aI00
aI00
aI00
aI00
aI00
aI00
aa(lp2418
I234378
aF179.0857142857143
aF94.32
ag2415
aS'dejavusans'
p2419
aS'#000000'
p2420
aF10.0
aI0
aI00
aI00
aI00
aI00
aI00
aI00
aI00
aI00
aa(lp2421
I234378
aF188.26
aF94.32
aVp2
p2422
aS'dejavusans'
p2423
aS'#000000'
p2424
aF10.0
aI0
aI01
aI00
aI00
aI00
aI00
aI00
aI00
aI00
aa(lp2425
I25931
aF36.1
aF105.92
aVp2
p2426
aS'dejavusans'
p2427
aS'#000000'
p2428
aF10.0
aI0
aI01
aI00
aI00
aI00
aI00
aI00
aI00
aI00
aa(lp2429
I104149
aF68.25
aF105.92
aVp2
p2430
aS'dejavusans'
p2431
aS'#000000'
p2432
aF10.0
aI0
aI00
aI00
aI00
aI00
aI00
aI00
aI00
aI00
aa(lp2433
I234378
aF91.82
aF105.92
aVp2
p2434
aS'dejavusans'
p2435
aS'#000000'
p2436
aF10.0
aI0
aI00
aI00
aI00
aI00
aI00
aI00
aI00
aI00
aa(lp2437
I10716
aF153.98
aF105.92
aVp2
p2438
aS'dejavusans'
p2439
aS'#000000'
p2440
aF10.0
aI0
aI00
aI00
aI00
aI00
aI00
aI00
aI00
aI00
aa(lp2441
I234378
aF174.25
aF105.92
aVp2
p2442
aS'dejavusans'
p2443
aS'#000000'
p2444
aF10.0
aI0
aI01
aI01
aI00
aI00
aI00
aI00
aI00
aI00
aa(lp2445
I234378
aF201.954
aF105.92
ag2442
aS'dejavusans'
p2446
aS'#000000'
p2447
aF10.0
aI0
aI01
aI01
aI00
aI00
aI00
aI00
aI00
aI00
aa(lp2448
I234378
aF255.71
aF105.92
aVp2
p2449
aS'dejavusans'
p2450
aS'#000000'
p2451
aF10.0
aI0
aI01
aI01
aI00
aI00
aI00
aI00
aI00
aI00
aa(lp2452
I234378
aF272.8475
aF105.92
ag2449
aS'dejavusans'
p2453
aS'#000000'
p2454
aF10.0
aI0
aI00
aI00
aI00
aI00
aI00
aI00
aI00
aI00
aa(lp2455
I234378
aF281.77
aF105.92
aVp2
p2456
aS'dejavusans'
p2457
aS'#000000'
p2458
aF10.0
aI0
aI01
aI00
aI00
aI00
aI00
aI00
aI00
aI00
aa(lp2459
I234378
aF330.0790909090909
aF105.92
ag2456
aS'dejavusans'
p2460
aS'#000000'
p2461
aF10.0
aI0
aI00
aI00
aI00
aI00
aI00
aI00
aI00
aI00
aa(lp2462
I234378
aF338.13
aF105.92
aVp2
p2463
aS'dejavusans'
p2464
aS'#000000'
p2465
aF10.0
aI0
aI01
aI01
aI00
aI00
aI00
aI00
aI00
aI00
aa(lp2466
I234378
aF359.298
aF105.92
ag2463
aS'dejavusans'
p2467
aS'#000000'
p2468
aF10.0
aI0
aI00
aI00
aI00
aI00
aI00
aI00
aI00
aI00
aa(lp2469
I234378
aF367.8
aF105.92
aVp2
p2470
aS'dejavusans'
p2471
aS'#000000'
p2472
aF10.0
aI0
aI01
aI01
aI00
aI00
aI00
aI00
aI00
aI00
aa(lp2473
I234378
aF394.47
aF105.92
aVp2
p2474
aS'dejavusans'
p2475
aS'#000000'
p2476
aF10.0
aI0
aI01
aI00
aI00
aI00
aI00
aI00
aI00
aI00
aa(lp2477
I234378
aF433.27000000000004
aF105.92
ag2474
aS'dejavusans'
p2478
aS'#000000'
p2479
aF10.0
aI0
aI00
aI00
aI00
aI00
aI00
aI00
aI00
aI00
aa(lp2480
I165851
aF441.33
aF105.92
aVp2
p2481
aS'dejavusans'
p2482
aS'#000000'
p2483
aF10.0
aI0
aI01
aI00
aI00
aI00
aI00
aI00
aI00
aI00
aa(lp2484
I234378
aF483.39
aF105.92
aVp2
p2485
aS'dejavusans'
p2486
aS'#000000'
p2487
aF10.0
aI0
aI01
aI01
aI00
aI00
aI00
aI00
aI00
aI00
aa(lp2488
I234378
aF36.1
aF117.62
aVp2
p2489
aS'dejavusans'
p2490
aS'#000000'
p2491
aF10.0
aI0
aI01
aI00
aI00
aI00
aI00
aI00
aI00
aI00
aa(lp2492
I10716
aF63.88
aF117.62
aVp2
p2493
aS'dejavusans'
p2494
aS'#000000'
p2495
aF10.0
aI0
aI00
aI00
aI00
aI00
aI00
aI00
aI00
aI00
aa(lp2496
I234378
aF84.15
aF117.62
aVp2
p2497
aS'dejavusans'
p2498
aS'#000000'
p2499
aF10.0
aI0
aI01
aI00
aI00
aI00
aI00
aI00
aI00
aI00
aa(lp2500
I61415
aF150.89
aF117.62
aVp2
p2501
aS'dejavusans'
p2502
aS'#000000'
p2503
aF10.0
aI0
aI01
aI00
aI00
aI00
aI00
aI00
aI00
aI00
aa(lp2504
I1
aI1
aI0
aI0
aI0
aI0
aI0
aI0
aI0
aI0
aI0
aI0
aI0
aI0
aI0
aI0
aI0
aI0
aI0
aI0
aI0
aI0
aI0
aI0
aI0
aI0
aI0
aI0
aI0
aI0
aI0
aI0
aI0
aI0
aI0
aI0
aI0
aI0
aI0
aI0
aI0
aI0
aI0
aI0
aI0
aI0
aI0
aI0
aI0
aI0
aI0
aI0
aI0
aI0
aI0
aI0
aI0
aI0
aI0
aI0
aI1
aI1
aI1
aI1
aI1
aI1
aI0
aI0
aI0
aI0
aI0
aI0
aI0
aI0
aI0
aI0
aI0
aI0
aI0
aI0
aI0
aI0
aI0
aI0
aI0
aI0
aI0
aI0
aI0
aI0
aI0
aI0
aI0
aI0
aI0
aI0
aI0
aI0
aI0
aI0
aI0
aI0
aI0
aI0
aI0
aI0
aI0
aI0
aI0
aI0
aI0
aI0
aI0
aI0
aI0
aI0
aI0
aI0
aI0
aI0
aI0
aI0
aI0
aI0
aI0
aI0
aI0
aI0
aI0
aI0
aI0
aI0
aI0
aI0
aI0
aI0
aI0
aI0
aI0
aI0
aI0
aI0
aI0
aI0
aI0
aI0
aI0
aI0
aI0
aI0
aI0
aI0
aI0
aI0
aI0
aI0
aI0
aI0
aI0
aI0
aI0
aI0
aI0
aI0
aI0
aI0
aI0
aI0
aI0
aI0
aI0
aI0
aI0
aI0
aI0
aI0
aI0
aI0
aI0
aI0
aI0
aI0
aI0
aI0
aI0
aI0
aI0
aI0
aI0
aI0
aI0
aI0
aI0
aI0
aI0
aI0
aI0
aI0
aI0
aI0
aI0
aI0
aI0
aI0
aI0
aI0
aI0
aI0
aI0
aI0
aI0
aI0
aI0
aI0
aI0
aI0
aI0
aI0
aI0
aI0
aI0
aI0
aI0
aI0
aI0
aI0
aI0
aI0
aI0
aI0
aI0
aI0
aI0
aI0
aI0
aI0
aI0
aI0
aI0
aI0
aI0
aI0
aI0
aI0
aI0
aI0
aI0
aI0
aI0
aI0
aI0
aI0
aI0
aI0
aI0
aI0
aI0
aI0
aI0
aI0
aI0
aI0
aI0
aI0
aI0
aI0
aI0
aI0
aI0
aI0
aI0
aI0
aI0
aI0
aI0
aI0
aI0
aI0
aI0
aI0
aI0
aI0
aI0
aI0
aI0
aI0
aI0
aI0
aI0
aI0
aI0
aI0
aI0
aI0
aI0
aI0
aI0
aI0
aI0
aI0
aI0
aI0
aI0
aI0
aI0
aI0
aI0
aI0
aI0
aI0
aI0
aI0
aI0
aI0
aI0
aI0
aI0
aI0
aI0
aI0
aI0
aI0
aI0
aI0
aI0
aI0
aI0
aI0
aI0
aI0
aI0
aI0
aI0
aI0
aI0
aI0
aI0
aI0
aI0
aI0
aI0
aI0
aI0
aI0
aI0
aI0
aI0
aI0
aI0
aI0
aI0
aI0
aI0
aI0
aI0
aI0
aI0
aI0
aI0
aI0
aI0
aI0
aI0
aI0
aI0
aI0
aI0
aI0
aI0
aI0
aI0
aI0
aI0
aI0
aI0
aI0
aI0
aI0
aI0
aI0
aI0
aI0
aI0
aI0
aI0
aI0
aI0
aI0
aI0
aI0
aI0
aI0
aI0
aI0
aI0
aI0
aI0
aI0
aI0
aI0
aI0
aI0
aI0
aI0
aI0
aI0
aI0
aI0
aI0
aI0
aI0
aI0
aI0
aI0
aI0
aI0
aI0
aI0
aI0
aI0
aI0
aI0
aI0
aI0
aI0
aI0
aI0
aI0
aI0
aI0
aI0
aI0
aI0
aI0
aI0
aI0
aI0
aI0
aI0
aI0
aI0
aI0
aI0
aI0
aI0
aI0
aI0
aI0
aI0
aI0
aI0
aI0
aI0
aI0
aI0
aI0
aI0
aI0
aI0
aI0
aI0
aI0
aI0
aI0
aI0
aI0
aI0
aI0
aI0
aI0
aI0
aI0
aI0
aI0
aI0
aI0
aI0
aI0
aI0
aI0
aI0
aI0
aI0
aI0
aI0
aI0
aI0
aI0
aI0
aI0
aI0
aI0
aI0
aI0
aI0
aI0
aI0
aI0
aI0
aI0
aI0
aI0
aI0
aI0
aI0
aI0
aI0
aI0
aI0
aI0
aI0
aI0
aI0
aI0
aI0
aI0
aI0
aI0
aI0
aI0
aI0
aI1
aI0
aI0
aI0
aI0
aI0
aI0
aI0
aI0
aI0
aI0
aI0
aI0
aI0
aI0
aI0
aI0
aI0
aI0
aI0
aI1
aI0
aI0
aI0
aI0
aI0
aI0
aI0
aI0
aI0
aI0
aI0
aI0
aI0
aI0
aI0
aI0
aI0
aI0
aI0
aI0
aI0
aI0
aI0
aI0
aI0
aI0
aI0
aI0
aI0
aI0
aI0
aI0
aI0
aI0
aI0
aI0
aI0
aI0
aI0
aI0
aI0
aI0
aI0
aI0
aI0
aI0
aI0
aI0
aI0
aI0
aI0
aI0
aI0
aI0
aI0
aI0
aI0
aI0
aI0
aI0
aI0
aI0
aI0
aI0
aI0
aI0
aI0
aI0
aI0
aI0
aI0
aI0
aI0
aI0
aI0
aI0
aI0
aI0
aI0
aI0
aI0
aI0
aI0
aI0
aI0
aI0
aI0
aI0
aI0
aI0
aI0
aI0
aI0
aI0
aI0
aI0
aI0
aI0
aI0
aI0
aI0
aI0
aI0
aI0
aI0
aI0
aI0
aI0
aI0
aI0
atp2505
.