((lp0
(lp1
I234378
aF40.9084
aF53.0111
aVp1
p2
aS'utopia'
p3
aS'#02304b'
p4
aF11.8479
aI1
aI00
aI00
aI00
aI00
aI00
aI00
aI00
aI00
aa(lp5
I234378
aF81.6357
aF53.0111
aVp1
p6
aS'utopia'
p7
aS'#02304b'
p8
aF11.8479
aI1
aI00
aI00
aI00
aI00
aI00
aI00
aI00
aI00
aa(lp9
I89480
aF46.8324
aF74.4677
aVp1
p10
aS'utopia'
p11
aS'#656565'
p12
aF8.88595
aI0
aI01
aI00
aI00
aI00
aI00
aI00
aI00
aI00
aa(lp13
I192638
aF59.4208
aF74.4677
aVp1
p14
aS'utopia'
p15
aS'#656565'
p16
aF8.88595
aI0
aI00
aI00
aI00
aI00
aI00
aI00
aI00
aI00
aa(lp17
I166593
aF71.2688
aF74.4677
aVp1
p18
aS'utopia'
p19
aS'#656565'
p20
aF8.88595
aI0
aI00
aI00
aI00
aI00
aI00
aI00
aI00
aI00
aa(lp21
I38609
aF77.9332
aF74.4677
aVp1
p22
aS'utopia'
p23
aS'#656565'
p24
aF8.88595
aI0
aI00
aI00
aI00
aI00
aI00
aI00
aI00
aI00
aa(lp25
I144489
aF96.4456
aF74.4677
aVp1
p26
aS'utopia'
p27
aS'#656565'
p28
aF8.88595
aI0
aI00
aI00
aI00
aI00
aI00
aI00
aI00
aI00
aa(lp29
I146309
aF106.813
aF74.4677
aVp1
p30
aS'utopia'
p31
aS'#656565'
p32
aF8.88595
aI0
aI00
aI00
aI00
aI00
aI00
aI00
aI00
aI00
aa(lp33
I234378
aF137.173
aF74.4677
aVp1
p34
aS'utopia'
p35
aS'#656565'
p36
aF8.88595
aI0
aI00
aI00
aI00
aI00
aI00
aI00
aI00
aI00
aa(lp37
I229426
aF172.717
aF74.4677
aVp1
p38
aS'utopia'
p39
aS'#656565'
p40
aF8.88595
aI0
aI00
aI00
aI00
aI00
aI00
aI00
aI00
aI00
aa(lp41
I37654
aF224.551
aF74.4677
aVp1
p42
aS'utopia'
p43
aS'#656565'
p44
aF8.88595
aI0
aI00
aI00
aI00
aI00
aI00
aI00
aI00
aI00
aa(lp45
I219882
aF251.209
aF74.4677
aVp1
p46
aS'utopia'
p47
aS'#656565'
p48
aF8.88595
aI0
aI00
aI00
aI00
aI00
aI00
aI00
aI00
aI00
aa(lp49
I86036
aF266.019
aF74.4677
aVp1
p50
aS'utopia'
p51
aS'#656565'
p52
aF8.88595
aI0
aI00
aI00
aI00
aI00
aI00
aI00
aI00
aI00
aa(lp53
I234378
aF301.563
aF74.4677
aVp1
p54
aS'utopia'
p55
aS'#656565'
p56
aF8.88595
aI0
aI00
aI00
aI00
aI00
aI00
aI00
aI00
aI00
aa(lp57
I10716
aF336.366
aF74.4677
aVp1
p58
aS'utopia'
p59
aS'#656565'
p60
aF8.88595
aI0
aI00
aI00
aI00
aI00
aI00
aI00
aI00
aI00
aa(lp61
I204917
aF351.917
aF74.4677
aVp1
p62
aS'utopia'
p63
aS'#656565'
p64
aF8.88595
aI0
aI00
aI00
aI00
aI00
aI00
aI00
aI00
aI00
aa(lp65
I51933
aF377.094
aF74.4677
aVp1
p66
aS'utopia'
p67
aS'#656565'
p68
aF8.88595
aI0
aI00
aI00
aI00
aI00
aI00
aI00
aI00
aI00
aa(lp69
I234378
aF394.95832
aF74.4677
ag66
aS'utopia'
p70
aS'#656565'
p71
aF8.88595
aI0
aI00
aI00
aI00
aI00
aI00
aI00
aI00
aI00
aa(lp72
I234378
aF40.9084
aF84.8346
aVp1
p73
aS'utopia'
p74
aS'#656565'
p75
aF8.88595
aI0
aI00
aI00
aI00
aI00
aI00
aI00
aI00
aI00
aa(lp76
I85218
aF100.889
aF84.8346
aVp1
p77
aS'utopia'
p78
aS'#656565'
p79
aF8.88595
aI0
aI00
aI00
aI00
aI00
aI00
aI00
aI00
aI00
aa(lp80
I126515
aF117.92
aF84.8346
aVp1
p81
aS'utopia'
p82
aS'#656565'
p83
aF8.88595
aI0
aI00
aI00
aI00
aI00
aI00
aI00
aI00
aI00
aa(lp84
I33705
aF161.609
aF84.8346
aVp1
p85
aS'utopia'
p86
aS'#656565'
p87
aF8.88595
aI0
aI00
aI00
aI00
aI00
aI00
aI00
aI00
aI00
aa(lp88
I192638
aF177.9
aF84.8346
aVp1
p89
aS'utopia'
p90
aS'#656565'
p91
aF8.88595
aI0
aI00
aI00
aI00
aI00
aI00
aI00
aI00
aI00
aa(lp92
I83565
aF189.748
aF84.8346
aVp1
p93
aS'utopia'
p94
aS'#656565'
p95
aF8.88595
aI0
aI00
aI00
aI00
aI00
aI00
aI00
aI00
aI00
aa(lp96
I208885
aF214.184
aF84.8346
aVp1
p97
aS'utopia'
p98
aS'#656565'
p99
aF8.88595
aI0
aI00
aI00
aI00
aI00
aI00
aI00
aI00
aI00
aa(lp100
I234378
aF241.4982625
aF84.8346
ag97
aS'utopia'
p101
aS'#656565'
p102
aF8.88595
aI0
aI00
aI00
aI00
aI00
aI00
aI00
aI00
aI00
aa(lp103
I234378
aF59.4208
aF124.081
aVp1
p104
aS'utopia'
p105
aS'#0d75b4'
p106
aF8.88595
aI0
aI00
aI00
aI00
aI00
aI00
aI01
aI00
aI00
aa(lp107
I234378
aF301.563
aF124.081
aVp1
p108
aS'utopia'
p109
aS'#000000'
p110
aF8.88595
aI0
aI00
aI00
aI01
aI01
aI01
aI00
aI00
aI00
aa(lp111
I15548
aF55.7183
aF158.884
aVp1
p112
aS'utopia'
p113
aS'#878787'
p114
aF8.88595
aI0
aI01
aI00
aI00
aI00
aI00
aI00
aI00
aI00
aa(lp115
I104542
aF89.0407
aF158.884
aVp1
p116
aS'utopia'
p117
aS'#878787'
p118
aF8.88595
aI0
aI01
aI00
aI00
aI00
aI00
aI00
aI00
aI00
aa(lp119
I234378
aF133.94655
aF158.884
ag116
aS'utopia'
p120
aS'#878787'
p121
aF8.88595
aI0
aI00
aI00
aI00
aI00
aI00
aI00
aI00
aI00
aa(lp122
I55966
aF142.356
aF158.884
aVp1
p123
aS'utopia'
p124
aS'#000000'
p125
aF8.88595
aI0
aI01
aI00
aI00
aI00
aI00
aI00
aI00
aI00
aa(lp126
I234378
aF169.755
aF158.884
aVp1
p127
aS'utopia'
p128
aS'#000000'
p129
aF8.88595
aI0
aI01
aI00
aI00
aI00
aI00
aI00
aI00
aI00
aa(lp130
I132100
aF206.779
aF158.884
aVp1
p131
aS'utopia'
p132
aS'#000000'
p133
aF8.88595
aI0
aI01
aI00
aI00
aI00
aI00
aI00
aI00
aI00
aa(lp134
I15548
aF55.7183
aF176.656
aVp1
p135
aS'utopia'
p136
aS'#878787'
p137
aF8.88595
aI0
aI01
aI00
aI00
aI00
aI00
aI00
aI00
aI00
aa(lp138
I2006
aF89.0407
aF176.656
aVp1
p139
aS'utopia'
p140
aS'#878787'
p141
aF8.88595
aI0
aI01
aI00
aI00
aI00
aI00
aI00
aI00
aI00
aa(lp142
I234378
aF124.77815
aF176.656
ag139
aS'utopia'
p143
aS'#878787'
p144
aF8.88595
aI0
aI00
aI00
aI00
aI00
aI00
aI00
aI00
aI00
aa(lp145
I234378
aF134.211
aF176.656
aVp1
p146
aS'utopia'
p147
aS'#000000'
p148
aF8.88595
aI0
aI01
aI00
aI00
aI00
aI00
aI00
aI00
aI00
aa(lp149
I234378
aF176.419
aF176.656
aVp1
p150
aS'utopia'
p151
aS'#000000'
p152
aF8.88595
aI0
aI01
aI00
aI00
aI00
aI00
aI00
aI00
aI00
aa(lp153
I15548
aF55.7183
aF194.428
aVp1
p154
aS'utopia'
p155
aS'#878787'
p156
aF8.88595
aI0
aI01
aI00
aI00
aI00
aI00
aI00
aI00
aI00
aa(lp157
I17057
aF89.0407
aF194.428
aVp1
p158
aS'utopia'
p159
aS'#878787'
p160
aF8.88595
aI0
aI01
aI00
aI00
aI00
aI00
aI00
aI00
aI00
aa(lp161
I234378
aF122.05430000000001
aF194.428
ag158
aS'utopia'
p162
aS'#878787'
p163
aF8.88595
aI0
aI00
aI00
aI00
aI00
aI00
aI00
aI00
aI00
aa(lp164
I234378
aF130.508
aF194.428
aVp1
p165
aS'utopia'
p166
aS'#000000'
p167
aF8.88595
aI0
aI01
aI00
aI00
aI00
aI00
aI00
aI00
aI00
aa(lp168
I234378
aF55.7183
aF212.2
aVp1
p169
aS'utopia'
p170
aS'#878787'
p171
aF8.88595
aI0
aI01
aI00
aI00
aI00
aI00
aI00
aI00
aI00
aa(lp172
I234378
aF70.62062
aF212.2
ag169
aS'utopia'
p173
aS'#878787'
p174
aF8.88595
aI0
aI00
aI00
aI00
aI00
aI00
aI00
aI00
aI00
aa(lp175
I17057
aF76.4522
aF212.2
aVp1
p176
aS'utopia'
p177
aS'#878787'
p178
aF8.88595
aI0
aI01
aI00
aI00
aI00
aI00
aI00
aI00
aI00
aa(lp179
I234378
aF109.4658
aF212.2
ag176
aS'utopia'
p180
aS'#878787'
p181
aF8.88595
aI0
aI00
aI00
aI00
aI00
aI00
aI00
aI00
aI00
aa(lp182
I234378
aF117.92
aF212.2
aVp1
p183
aS'utopia'
p184
aS'#000000'
p185
aF8.88595
aI0
aI01
aI00
aI00
aI00
aI00
aI00
aI00
aI00
aa(lp186
I234378
aF135.78432
aF212.2
ag183
aS'utopia'
p187
aS'#000000'
p188
aF8.88595
aI0
aI00
aI00
aI00
aI00
aI00
aI00
aI00
aI00
aa(lp189
I227337
aF142.356
aF212.2
aVp1
p190
aS'utopia'
p191
aS'#000000'
p192
aF8.88595
aI0
aI01
aI00
aI00
aI00
aI00
aI00
aI00
aI00
aa(lp193
I85540
aF171.236
aF212.2
aVp1
p194
aS'utopia'
p195
aS'#000000'
p196
aF8.88595
aI0
aI01
aI00
aI00
aI00
aI00
aI00
aI00
aI00
aa(lp197
I234378
aF209.741
aF212.2
aVp1
p198
aS'utopia'
p199
aS'#000000'
p200
aF8.88595
aI0
aI00
aI00
aI00
aI00
aI00
aI00
aI00
aI00
aa(lp201
I234378
aF213.91088000000002
aF212.2
ag198
aS'utopia'
p202
aS'#000000'
p203
aF8.88595
aI0
aI01
aI01
aI00
aI00
aI00
aI00
aI00
aI00
aa(lp204
I234378
aF222.25064000000003
aF212.2
ag198
aS'utopia'
p205
aS'#000000'
p206
aF8.88595
aI0
aI00
aI00
aI00
aI00
aI00
aI00
aI00
aI00
aa(lp207
I234378
aF226.42052000000004
aF212.2
ag198
aS'utopia'
p208
aS'#000000'
p209
aF8.88595
aI0
aI00
aI00
aI00
aI00
aI00
aI00
aI00
aI00
aa(lp210
I227337
aF232.697
aF212.2
aVp1
p211
aS'utopia'
p212
aS'#000000'
p213
aF8.88595
aI0
aI01
aI00
aI00
aI00
aI00
aI00
aI00
aI00
aa(lp214
I234378
aF261.576
aF212.2
aVp1
p215
aS'utopia'
p216
aS'#000000'
p217
aF8.88595
aI0
aI01
aI00
aI00
aI00
aI00
aI00
aI00
aI00
aa(lp218
I234378
aF286.753
aF212.2
aVp1
p219
aS'utopia'
p220
aS'#000000'
p221
aF8.88595
aI0
aI00
aI00
aI00
aI00
aI00
aI00
aI00
aI00
aa(lp222
I31679
aF291.0412
aF212.2
ag219
aS'utopia'
p223
aS'#000000'
p224
aF8.88595
aI0
aI01
aI01
aI00
aI00
aI00
aI00
aI00
aI00
aa(lp225
I234378
aF299.6176
aF212.2
ag219
aS'utopia'
p226
aS'#000000'
p227
aF8.88595
aI0
aI00
aI00
aI00
aI00
aI00
aI00
aI00
aI00
aa(lp228
I98580
aF55.7183
aF229.972
aVp1
p229
aS'utopia'
p230
aS'#878787'
p231
aF8.88595
aI0
aI01
aI00
aI00
aI00
aI00
aI00
aI00
aI00
aa(lp232
I166289
aF100.148
aF229.972
aVp1
p233
aS'utopia'
p234
aS'#878787'
p235
aF8.88595
aI0
aI01
aI00
aI00
aI00
aI00
aI00
aI00
aI00
aa(lp236
I234378
aF116.82751999999999
aF229.972
ag233
aS'utopia'
p237
aS'#878787'
p238
aF8.88595
aI0
aI00
aI00
aI00
aI00
aI00
aI00
aI00
aI00
aa(lp239
I22476
aF125.325
aF229.972
aVp1
p240
aS'utopia'
p241
aS'#000000'
p242
aF8.88595
aI0
aI01
aI01
aI00
aI00
aI00
aI00
aI00
aI00
aa(lp243
I234378
aF135.692
aF229.972
aVp1
p244
aS'utopia'
p245
aS'#000000'
p246
aF8.88595
aI0
aI01
aI00
aI00
aI00
aI00
aI00
aI00
aI00
aa(lp247
I207716
aF178.641
aF229.972
aVp1
p248
aS'utopia'
p249
aS'#000000'
p250
aF8.88595
aI0
aI01
aI00
aI00
aI00
aI00
aI00
aI00
aI00
aa(lp251
I234378
aF209.001
aF229.972
aVp1
p252
aS'utopia'
p253
aS'#000000'
p254
aF8.88595
aI0
aI01
aI00
aI00
aI00
aI00
aI00
aI00
aI00
aa(lp255
I176435
aF55.7183
aF247.744
aVp1
p256
aS'utopia'
p257
aS'#878787'
p258
aF8.88595
aI0
aI01
aI00
aI00
aI00
aI00
aI00
aI00
aI00
aa(lp259
I234378
aF71.80542
aF247.744
ag256
aS'utopia'
p260
aS'#878787'
p261
aF8.88595
aI0
aI00
aI00
aI00
aI00
aI00
aI00
aI00
aI00
aa(lp262
I234378
aF80.1547
aF247.744
aVp1
p263
aS'utopia'
p264
aS'#000000'
p265
aF8.88595
aI0
aI01
aI00
aI00
aI00
aI00
aI00
aI00
aI00
aa(lp266
I100815
aF117.18
aF247.744
aVp1
p267
aS'utopia'
p268
aS'#000000'
p269
aF8.88595
aI0
aI01
aI00
aI00
aI00
aI00
aI00
aI00
aI00
aa(lp270
I74589
aF55.7183
aF265.516
aVp1
p271
aS'utopia'
p272
aS'#878787'
p273
aF8.88595
aI0
aI01
aI00
aI00
aI00
aI00
aI00
aI00
aI00
aa(lp274
I234378
aF87.41545555555555
aF265.516
ag271
aS'utopia'
p275
aS'#878787'
p276
aF8.88595
aI0
aI00
aI00
aI00
aI00
aI00
aI00
aI00
aI00
aa(lp277
I22476
aF95.7051
aF265.516
aVp1
p278
aS'utopia'
p279
aS'#000000'
p280
aF8.88595
aI0
aI01
aI01
aI00
aI00
aI00
aI00
aI00
aI00
aa(lp281
I234378
aF105.30374
aF265.516
ag278
aS'utopia'
p282
aS'#000000'
p283
aF8.88595
aI0
aI01
aI00
aI00
aI00
aI00
aI00
aI00
aI00
aa(lp284
I234378
aF139.69830000000002
aF265.516
ag278
aS'utopia'
p285
aS'#000000'
p286
aF8.88595
aI0
aI00
aI00
aI00
aI00
aI00
aI00
aI00
aI00
aa(lp287
I234378
aF134.99762
aF265.516
ag278
aS'utopia'
p288
aS'#000000'
p289
aF8.88595
aI0
aI01
aI00
aI00
aI00
aI00
aI00
aI00
aI00
aa(lp290
I234378
aF183.824
aF265.516
aVp1
p291
aS'utopia'
p292
aS'#000000'
p293
aF8.88595
aI0
aI01
aI00
aI00
aI00
aI00
aI00
aI00
aI00
aa(lp294
I231013
aF55.7183
aF283.288
aVp1
p295
aS'utopia'
p296
aS'#878787'
p297
aF8.88595
aI0
aI01
aI00
aI00
aI00
aI00
aI00
aI00
aI00
aa(lp298
I234378
aF72.7498
aF283.288
aVp1
p299
aS'utopia'
p300
aS'#878787'
p301
aF8.88595
aI0
aI01
aI00
aI00
aI00
aI00
aI00
aI00
aI00
aa(lp302
I234378
aF91.25542857142857
aF283.288
ag299
aS'utopia'
p303
aS'#878787'
p304
aF8.88595
aI0
aI00
aI00
aI00
aI00
aI00
aI00
aI00
aI00
aa(lp305
I17350
aF98.6671
aF283.288
aVp1
p306
aS'utopia'
p307
aS'#000000'
p308
aF8.88595
aI0
aI01
aI00
aI00
aI00
aI00
aI00
aI00
aI00
aa(lp309
I234378
aF118.66
aF283.288
aVp1
p310
aS'utopia'
p311
aS'#000000'
p312
aF8.88595
aI0
aI00
aI00
aI00
aI00
aI00
aI00
aI00
aI00
aa(lp313
I89217
aF151.983
aF283.288
aVp1
p314
aS'utopia'
p315
aS'#000000'
p316
aF8.88595
aI0
aI00
aI00
aI00
aI00
aI00
aI00
aI00
aI00
aa(lp317
I234378
aF165.70052
aF283.288
ag314
aS'utopia'
p318
aS'#000000'
p319
aF8.88595
aI0
aI00
aI00
aI00
aI00
aI00
aI00
aI00
aI00
aa(lp320
I84662
aF171.236
aF283.288
aVp1
p321
aS'utopia'
p322
aS'#000000'
p323
aF8.88595
aI0
aI01
aI00
aI00
aI00
aI00
aI00
aI00
aI00
aa(lp324
I21716
aF192.71
aF283.288
aVp1
p325
aS'utopia'
p326
aS'#000000'
p327
aF8.88595
aI0
aI01
aI00
aI00
aI00
aI00
aI00
aI00
aI00
aa(lp328
I234378
aF207.61232
aF283.288
ag325
aS'utopia'
p329
aS'#000000'
p330
aF8.88595
aI0
aI00
aI00
aI00
aI00
aI00
aI00
aI00
aI00
aa(lp331
I234378
aF213.444
aF283.288
aVp1
p332
aS'utopia'
p333
aS'#000000'
p334
aF8.88595
aI0
aI01
aI00
aI00
aI00
aI00
aI00
aI00
aI00
aa(lp335
I234378
aF55.7183
aF293.654
aVp1
p336
aS'utopia'
p337
aS'#000000'
p338
aF8.88595
aI0
aI01
aI00
aI00
aI00
aI00
aI00
aI00
aI00
aa(lp339
I234378
aF108.09085833333333
aF293.654
ag336
aS'utopia'
p340
aS'#000000'
p341
aF8.88595
aI0
aI00
aI00
aI00
aI00
aI00
aI00
aI00
aI00
aa(lp342
I234378
aF114.958
aF293.654
aVp1
p343
aS'utopia'
p344
aS'#000000'
p345
aF8.88595
aI0
aI01
aI00
aI00
aI00
aI00
aI00
aI00
aI00
aa(lp346
I234378
aF157.148775
aF293.654
ag343
aS'utopia'
p347
aS'#000000'
p348
aF8.88595
aI0
aI00
aI00
aI00
aI00
aI00
aI00
aI00
aI00
aa(lp349
I260
aF163.09
aF293.654
aVp1
p350
aS'utopia'
p351
aS'#000000'
p352
aF8.88595
aI0
aI00
aI00
aI00
aI00
aI00
aI00
aI00
aI00
aa(lp353
I234378
aF211.38980833333335
aF293.654
ag350
aS'utopia'
p354
aS'#000000'
p355
aF8.88595
aI0
aI00
aI00
aI00
aI00
aI00
aI00
aI00
aI00
aa(lp356
I234378
aF217.887
aF293.654
aVp1
p357
aS'utopia'
p358
aS'#000000'
p359
aF8.88595
aI0
aI00
aI00
aI00
aI00
aI00
aI00
aI00
aI00
aa(lp360
I234378
aF246.29304444444443
aF293.654
ag357
aS'utopia'
p361
aS'#000000'
p362
aF8.88595
aI0
aI00
aI00
aI00
aI00
aI00
aI00
aI00
aI00
aa(lp363
I234378
aF251.95
aF293.654
aVp1
p364
aS'utopia'
p365
aS'#000000'
p366
aF8.88595
aI0
aI01
aI01
aI00
aI00
aI00
aI00
aI00
aI00
aa(lp367
I234378
aF263.14405
aF293.654
ag364
aS'utopia'
p368
aS'#000000'
p369
aF8.88595
aI0
aI00
aI00
aI00
aI00
aI00
aI00
aI00
aI00
aa(lp370
I148996
aF268.981
aF293.654
aVp1
p371
aS'utopia'
p372
aS'#000000'
p373
aF8.88595
aI0
aI01
aI00
aI00
aI00
aI00
aI00
aI00
aI00
aa(lp374
I234378
aF292.56434285714283
aF293.654
ag371
aS'utopia'
p375
aS'#000000'
p376
aF8.88595
aI0
aI00
aI00
aI00
aI00
aI00
aI00
aI00
aI00
aa(lp377
I176767
aF55.7183
aF304.021
aVp1
p378
aS'utopia'
p379
aS'#000000'
p380
aF8.88595
aI0
aI01
aI00
aI00
aI00
aI00
aI00
aI00
aI00
aa(lp381
I234378
aF93.80972
aF304.021
ag378
aS'utopia'
p382
aS'#000000'
p383
aF8.88595
aI0
aI00
aI00
aI00
aI00
aI00
aI00
aI00
aI00
aa(lp384
I234378
aF100.148
aF304.021
aVp1
p385
aS'utopia'
p386
aS'#000000'
p387
aF8.88595
aI0
aI00
aI00
aI00
aI00
aI00
aI00
aI00
aI00
aa(lp388
I234378
aF125.00077142857143
aF304.021
ag385
aS'utopia'
p389
aS'#000000'
p390
aF8.88595
aI0
aI00
aI00
aI00
aI00
aI00
aI00
aI00
aI00
aa(lp391
I234378
aF131.249
aF304.021
aVp1
p392
aS'utopia'
p393
aS'#000000'
p394
aF8.88595
aI0
aI01
aI00
aI00
aI00
aI00
aI00
aI00
aI00
aa(lp395
I234378
aF146.74372
aF304.021
ag392
aS'utopia'
p396
aS'#000000'
p397
aF8.88595
aI0
aI00
aI00
aI00
aI00
aI00
aI00
aI00
aI00
aa(lp398
I234378
aF152.723
aF304.021
aVp1
p399
aS'utopia'
p400
aS'#000000'
p401
aF8.88595
aI0
aI01
aI01
aI00
aI00
aI00
aI00
aI00
aI00
aa(lp402
I234378
aF165.583175
aF304.021
ag399
aS'utopia'
p403
aS'#000000'
p404
aF8.88595
aI0
aI00
aI00
aI00
aI00
aI00
aI00
aI00
aI00
aa(lp405
I234378
aF171.976
aF304.021
aVp1
p406
aS'utopia'
p407
aS'#000000'
p408
aF8.88595
aI0
aI01
aI01
aI00
aI00
aI00
aI00
aI00
aI00
aa(lp409
I234378
aF191.02512
aF304.021
ag406
aS'utopia'
p410
aS'#000000'
p411
aF8.88595
aI0
aI00
aI00
aI00
aI00
aI00
aI00
aI00
aI00
aa(lp412
I234378
aF197.894
aF304.021
aVp1
p413
aS'utopia'
p414
aS'#000000'
p415
aF8.88595
aI0
aI01
aI01
aI00
aI00
aI00
aI00
aI00
aI00
aa(lp416
I234378
aF209.08805
aF304.021
ag413
aS'utopia'
p417
aS'#000000'
p418
aF8.88595
aI0
aI00
aI00
aI00
aI00
aI00
aI00
aI00
aI00
aa(lp419
I234378
aF214.925
aF304.021
aVp1
p420
aS'utopia'
p421
aS'#000000'
p422
aF8.88595
aI0
aI01
aI00
aI00
aI00
aI00
aI00
aI00
aI00
aa(lp423
I234378
aF252.05481818181818
aF304.021
ag420
aS'utopia'
p424
aS'#000000'
p425
aF8.88595
aI0
aI00
aI00
aI00
aI00
aI00
aI00
aI00
aI00
aa(lp426
I234378
aF257.874
aF304.021
aVp1
p427
aS'utopia'
p428
aS'#000000'
p429
aF8.88595
aI0
aI01
aI01
aI00
aI00
aI00
aI00
aI00
aI00
aa(lp430
I234378
aF276.33072000000004
aF304.021
ag427
aS'utopia'
p431
aS'#000000'
p432
aF8.88595
aI0
aI00
aI00
aI00
aI00
aI00
aI00
aI00
aI00
aa(lp433
I17350
aF283.051
aF304.021
aVp1
p434
aS'utopia'
p435
aS'#000000'
p436
aF8.88595
aI0
aI01
aI00
aI00
aI00
aI00
aI00
aI00
aI00
aa(lp437
I234378
aF55.7183
aF314.388
aVp1
p438
aS'utopia'
p439
aS'#000000'
p440
aF8.88595
aI0
aI01
aI00
aI00
aI00
aI00
aI00
aI00
aI00
aa(lp441
I234378
aF86.09901111111111
aF314.388
ag438
aS'utopia'
p442
aS'#000000'
p443
aF8.88595
aI0
aI00
aI00
aI00
aI00
aI00
aI00
aI00
aI00
aa(lp444
I106895
aF92.0026
aF314.388
aVp1
p445
aS'utopia'
p446
aS'#000000'
p447
aF8.88595
aI0
aI01
aI01
aI00
aI00
aI00
aI00
aI00
aI00
aa(lp448
I234378
aF111.64412
aF314.388
ag445
aS'utopia'
p449
aS'#000000'
p450
aF8.88595
aI0
aI00
aI00
aI00
aI00
aI00
aI00
aI00
aI00
aa(lp451
I89217
aF118.66
aF314.388
aVp1
p452
aS'utopia'
p453
aS'#000000'
p454
aF8.88595
aI0
aI01
aI00
aI00
aI00
aI00
aI00
aI00
aI00
aa(lp455
I234378
aF134.15472
aF314.388
ag452
aS'utopia'
p456
aS'#000000'
p457
aF8.88595
aI0
aI00
aI00
aI00
aI00
aI00
aI00
aI00
aI00
aa(lp458
I234378
aF140.135
aF314.388
aVp1
p459
aS'utopia'
p460
aS'#000000'
p461
aF8.88595
aI0
aI01
aI01
aI00
aI00
aI00
aI00
aI00
aI00
aa(lp462
I234378
aF160.36892
aF314.388
ag459
aS'utopia'
p463
aS'#000000'
p464
aF8.88595
aI0
aI00
aI00
aI00
aI00
aI00
aI00
aI00
aI00
aa(lp465
I234378
aF167.533
aF314.388
aVp1
p466
aS'utopia'
p467
aS'#000000'
p468
aF8.88595
aI0
aI01
aI01
aI00
aI00
aI00
aI00
aI00
aI00
aa(lp469
I234378
aF188.95172
aF314.388
ag466
aS'utopia'
p470
aS'#000000'
p471
aF8.88595
aI0
aI00
aI00
aI00
aI00
aI00
aI00
aI00
aI00
aa(lp472
I234378
aF196.413
aF314.388
aVp1
p473
aS'utopia'
p474
aS'#000000'
p475
aF8.88595
aI0
aI01
aI01
aI00
aI00
aI00
aI00
aI00
aI00
aa(lp476
I34861
aF217.146
aF314.388
aVp1
p477
aS'utopia'
p478
aS'#000000'
p479
aF8.88595
aI0
aI01
aI00
aI00
aI00
aI00
aI00
aI00
aI00
aa(lp480
I234378
aF245.80697142857142
aF314.388
ag477
aS'utopia'
p481
aS'#000000'
p482
aF8.88595
aI0
aI00
aI00
aI00
aI00
aI00
aI00
aI00
aI00
aa(lp483
I234378
aF252.69
aF314.388
aVp1
p484
aS'utopia'
p485
aS'#000000'
p486
aF8.88595
aI0
aI01
aI01
aI00
aI00
aI00
aI00
aI00
aI00
aa(lp487
I234378
aF264.9948
aF314.388
ag484
aS'utopia'
p488
aS'#000000'
p489
aF8.88595
aI0
aI00
aI00
aI00
aI00
aI00
aI00
aI00
aI00
aa(lp490
I234378
aF271.203
aF314.388
aVp1
p491
aS'utopia'
p492
aS'#000000'
p493
aF8.88595
aI0
aI01
aI00
aI00
aI00
aI00
aI00
aI00
aI00
aa(lp494
I234378
aF300.2672666666666
aF314.388
ag491
aS'utopia'
p495
aS'#000000'
p496
aF8.88595
aI0
aI00
aI00
aI00
aI00
aI00
aI00
aI00
aI00
aa(lp497
I234378
aF55.7183
aF324.755
aVp1
p498
aS'utopia'
p499
aS'#000000'
p500
aF8.88595
aI0
aI01
aI01
aI00
aI00
aI00
aI00
aI00
aI00
aa(lp501
I234378
aF71.80542
aF324.755
ag498
aS'utopia'
p502
aS'#000000'
p503
aF8.88595
aI0
aI00
aI00
aI00
aI00
aI00
aI00
aI00
aI00
aa(lp504
I234378
aF77.9332
aF324.755
aVp1
p505
aS'utopia'
p506
aS'#000000'
p507
aF8.88595
aI0
aI01
aI00
aI00
aI00
aI00
aI00
aI00
aI00
aa(lp508
I234378
aF102.15125714285715
aF324.755
ag505
aS'utopia'
p509
aS'#000000'
p510
aF8.88595
aI0
aI00
aI00
aI00
aI00
aI00
aI00
aI00
aI00
aa(lp511
I234378
aF108.294
aF324.755
aVp1
p512
aS'utopia'
p513
aS'#000000'
p514
aF8.88595
aI0
aI01
aI01
aI00
aI00
aI00
aI00
aI00
aI00
aa(lp515
I234378
aF121.70955
aF324.755
ag512
aS'utopia'
p516
aS'#000000'
p517
aF8.88595
aI0
aI00
aI00
aI00
aI00
aI00
aI00
aI00
aI00
aa(lp518
I234378
aF128.287
aF324.755
aVp1
p519
aS'utopia'
p520
aS'#000000'
p521
aF8.88595
aI0
aI01
aI00
aI00
aI00
aI00
aI00
aI00
aI00
aa(lp522
I234378
aF146.89566666666667
aF324.755
ag519
aS'utopia'
p523
aS'#000000'
p524
aF8.88595
aI0
aI00
aI00
aI00
aI00
aI00
aI00
aI00
aI00
aa(lp525
I234378
aF152.723
aF324.755
aVp1
p526
aS'utopia'
p527
aS'#000000'
p528
aF8.88595
aI0
aI01
aI00
aI00
aI00
aI00
aI00
aI00
aI00
aa(lp529
I234378
aF176.88541666666669
aF324.755
ag526
aS'utopia'
p530
aS'#000000'
p531
aF8.88595
aI0
aI00
aI00
aI00
aI00
aI00
aI00
aI00
aI00
aa(lp532
I44279
aF183.824
aF324.755
aVp1
p533
aS'utopia'
p534
aS'#000000'
p535
aF8.88595
aI0
aI01
aI00
aI00
aI00
aI00
aI00
aI00
aI00
aa(lp536
I234378
aF196.1288
aF324.755
ag533
aS'utopia'
p537
aS'#000000'
p538
aF8.88595
aI0
aI00
aI00
aI00
aI00
aI00
aI00
aI00
aI00
aa(lp539
I234378
aF202.337
aF324.755
aVp1
p540
aS'utopia'
p541
aS'#000000'
p542
aF8.88595
aI0
aI01
aI01
aI01
aI00
aI00
aI00
aI00
aI00
aa(lp543
I234378
aF229.58474999999999
aF324.755
ag540
aS'utopia'
p544
aS'#000000'
p545
aF8.88595
aI0
aI00
aI00
aI00
aI00
aI00
aI00
aI00
aI00
aa(lp546
I234378
aF237.14
aF324.755
aVp1
p547
aS'utopia'
p548
aS'#000000'
p549
aF8.88595
aI0
aI00
aI00
aI00
aI00
aI00
aI00
aI00
aI00
aa(lp550
I51933
aF40.1679
aF361.798
aVp1
p551
aS'utopia'
p552
aS'#02304b'
p553
aF11.8479
aI1
aI01
aI00
aI00
aI00
aI00
aI00
aI00
aI00
aa(lp554
I60220
aF72.0093
aF361.798
aVp1
p555
aS'utopia'
p556
aS'#02304b'
p557
aF11.8479
aI1
aI01
aI00
aI00
aI00
aI00
aI00
aI00
aI00
aa(lp558
I234378
aF40.9084
aF393.515
aVp1
p559
aS'utopia'
p560
aS'#000000'
p561
aF10.3669
aI1
aI01
aI00
aI00
aI00
aI00
aI00
aI00
aI00
aa(lp562
I234378
aF91.2621
aF393.515
aVp1
p563
aS'utopia'
p564
aS'#000000'
p565
aF10.3669
aI1
aI01
aI00
aI00
aI00
aI00
aI00
aI00
aI00
aa(lp566
I234378
aF156.426
aF393.784
aVp1
p567
aS'utopia'
p568
aS'#656565'
p569
aF10.3669
aI0
aI00
aI00
aI00
aI00
aI00
aI00
aI00
aI00
aa(lp570
I15548
aF161.403425
aF393.784
ag567
aS'utopia'
p571
aS'#656565'
p572
aF10.3669
aI0
aI01
aI00
aI00
aI00
aI00
aI00
aI00
aI00
aa(lp573
I70289
aF198.634
aF393.784
aVp1
p574
aS'utopia'
p575
aS'#656565'
p576
aF10.3669
aI0
aI01
aI00
aI00
aI00
aI00
aI00
aI00
aI00
aa(lp577
I234378
aF241.98297777777776
aF393.784
ag574
aS'utopia'
p578
aS'#656565'
p579
aF10.3669
aI0
aI00
aI00
aI00
aI00
aI00
aI00
aI00
aI00
aa(lp580
I55966
aF40.9084
aF410.075
aVp1
p581
aS'utopia'
p582
aS'#656565'
p583
aF10.3669
aI0
aI01
aI00
aI00
aI00
aI00
aI00
aI00
aI00
aa(lp584
I234378
aF73.4902
aF410.075
aVp1
p585
aS'utopia'
p586
aS'#656565'
p587
aF10.3669
aI0
aI01
aI00
aI00
aI00
aI00
aI00
aI00
aI00
aa(lp588
I132100
aF116.439
aF410.075
aVp1
p589
aS'utopia'
p590
aS'#656565'
p591
aF10.3669
aI0
aI01
aI00
aI00
aI00
aI00
aI00
aI00
aI00
aa(lp592
I234378
aF164.571
aF410.075
aVp1
p593
aS'utopia'
p594
aS'#656565'
p595
aF10.3669
aI0
aI01
aI00
aI00
aI00
aI00
aI00
aI00
aI01
aa(lp596
I234378
aF183.824
aF410.075
aVp1
p597
aS'utopia'
p598
aS'#656565'
p599
aF10.3669
aI0
aI00
aI00
aI01
aI01
aI01
aI00
aI00
aI00
aa(lp600
I55966
aF40.9084
aF429.906
aVp1
p601
aS'utopia'
p602
aS'#656565'
p603
aF8.88595
aI0
aI00
aI00
aI00
aI00
aI00
aI00
aI00
aI00
aa(lp604
I234378
aF67.5663
aF429.906
aVp1
p605
aS'utopia'
p606
aS'#656565'
p607
aF8.88595
aI0
aI00
aI00
aI00
aI00
aI00
aI00
aI00
aI00
aa(lp608
I132100
aF103.851
aF429.906
aVp1
p609
aS'utopia'
p610
aS'#656565'
p611
aF8.88595
aI0
aI00
aI00
aI00
aI00
aI00
aI00
aI00
aI00
aa(lp612
I48671
aF40.9084
aF440.273
aVp1
p613
aS'utopia'
p614
aS'#656565'
p615
aF8.88595
aI0
aI01
aI00
aI00
aI00
aI00
aI00
aI00
aI00
aa(lp616
I129688
aF69.0473
aF440.273
aVp1
p617
aS'utopia'
p618
aS'#656565'
p619
aF8.88595
aI0
aI01
aI00
aI00
aI00
aI00
aI00
aI00
aI00
aa(lp620
I234378
aF97.1861
aF440.273
aVp1
p621
aS'utopia'
p622
aS'#656565'
p623
aF8.88595
aI0
aI00
aI00
aI00
aI00
aI00
aI00
aI00
aI00
aa(lp624
I234378
aF101.629
aF440.273
aVp1
p625
aS'utopia'
p626
aS'#656565'
p627
aF8.88595
aI0
aI00
aI00
aI01
aI01
aI01
aI00
aI00
aI00
aa(lp628
I128539
aF112.737
aF440.273
aVp1
p629
aS'utopia'
p630
aS'#656565'
p631
aF8.88595
aI0
aI01
aI00
aI00
aI00
aI00
aI00
aI00
aI00
aa(lp632
I144503
aF134.211
aF440.273
aVp1
p633
aS'utopia'
p634
aS'#656565'
p635
aF8.88595
aI0
aI00
aI00
aI00
aI00
aI00
aI00
aI00
aI00
aa(lp636
I166841
aF145.318
aF440.273
aVp1
p637
aS'utopia'
p638
aS'#656565'
p639
aF8.88595
aI0
aI00
aI00
aI00
aI00
aI00
aI00
aI00
aI00
aa(lp640
I47627
aF40.9084
aF473.488
aVp1
p641
aS'utopia'
p642
aS'#000000'
p643
aF10.3669
aI1
aI01
aI01
aI00
aI00
aI00
aI00
aI00
aI00
aa(lp644
I234378
aF67.5663
aF473.488
aVp1
p645
aS'utopia'
p646
aS'#000000'
p647
aF10.3669
aI1
aI01
aI01
aI00
aI00
aI00
aI00
aI00
aI00
aa(lp648
I55966
aF40.9084
aF490.049
aVp1
p649
aS'utopia'
p650
aS'#656565'
p651
aF10.3669
aI0
aI01
aI00
aI00
aI00
aI00
aI00
aI00
aI00
aa(lp652
I234378
aF73.4902
aF490.049
aVp1
p653
aS'utopia'
p654
aS'#656565'
p655
aF10.3669
aI0
aI01
aI00
aI00
aI00
aI00
aI00
aI00
aI00
aa(lp656
I132100
aF116.439
aF490.049
aVp1
p657
aS'utopia'
p658
aS'#656565'
p659
aF10.3669
aI0
aI01
aI00
aI00
aI00
aI00
aI00
aI00
aI00
aa(lp660
I234378
aF164.571
aF490.049
aVp1
p661
aS'utopia'
p662
aS'#656565'
p663
aF10.3669
aI0
aI01
aI00
aI00
aI00
aI00
aI00
aI00
aI01
aa(lp664
I234378
aF179.381
aF490.049
aVp1
p665
aS'utopia'
p666
aS'#656565'
p667
aF10.3669
aI0
aI00
aI00
aI01
aI01
aI01
aI00
aI00
aI00
aa(lp668
I89480
aF202.337
aF490.049
aVp1
p669
aS'utopia'
p670
aS'#656565'
p671
aF10.3669
aI0
aI01
aI00
aI00
aI00
aI00
aI00
aI00
aI00
aa(lp672
I234378
aF217.146
aF490.049
aVp1
p673
aS'utopia'
p674
aS'#656565'
p675
aF10.3669
aI0
aI01
aI00
aI00
aI00
aI00
aI00
aI00
aI01
aa(lp676
I234378
aF236.399
aF490.049
aVp1
p677
aS'utopia'
p678
aS'#656565'
p679
aF10.3669
aI0
aI00
aI00
aI01
aI01
aI01
aI00
aI00
aI00
aa(lp680
I123583
aF40.9084
aF509.879
aVp1
p681
aS'utopia'
p682
aS'#656565'
p683
aF8.88595
aI0
aI01
aI00
aI00
aI00
aI00
aI00
aI00
aI00
aa(lp684
I16331
aF76.4522
aF509.879
aVp1
p685
aS'utopia'
p686
aS'#656565'
p687
aF8.88595
aI0
aI00
aI00
aI00
aI00
aI00
aI00
aI00
aI00
aa(lp688
I166593
aF86.8192
aF509.879
aVp1
p689
aS'utopia'
p690
aS'#656565'
p691
aF8.88595
aI0
aI00
aI00
aI00
aI00
aI00
aI00
aI00
aI00
aa(lp692
I21716
aF93.4836
aF509.879
aVp1
p693
aS'utopia'
p694
aS'#656565'
p695
aF8.88595
aI0
aI01
aI00
aI00
aI00
aI00
aI00
aI00
aI00
aa(lp696
I100815
aF111.996
aF509.879
aVp1
p697
aS'utopia'
p698
aS'#656565'
p699
aF8.88595
aI0
aI01
aI00
aI00
aI00
aI00
aI00
aI00
aI00
aa(lp700
I234378
aF154.945
aF509.879
aVp1
p701
aS'utopia'
p702
aS'#656565'
p703
aF8.88595
aI0
aI00
aI00
aI00
aI00
aI00
aI00
aI00
aI00
aa(lp704
I212882
aF40.9084
aF543.095
aVp1
p705
aS'utopia'
p706
aS'#000000'
p707
aF10.3669
aI1
aI01
aI00
aI00
aI00
aI00
aI00
aI00
aI00
aa(lp708
I234378
aF75.7117
aF543.095
aVp1
p709
aS'utopia'
p710
aS'#000000'
p711
aF10.3669
aI1
aI00
aI00
aI00
aI00
aI00
aI00
aI00
aI00
aa(lp712
I234378
aF40.9084
aF559.655
aVp1
p713
aS'utopia'
p714
aS'#656565'
p715
aF10.3669
aI0
aI01
aI00
aI00
aI00
aI00
aI00
aI00
aI00
aa(lp716
I132100
aF83.8572
aF559.655
aVp1
p717
aS'utopia'
p718
aS'#656565'
p719
aF10.3669
aI0
aI01
aI00
aI00
aI00
aI00
aI00
aI00
aI00
aa(lp720
I37515
aF131.989
aF559.655
aVp1
p721
aS'utopia'
p722
aS'#656565'
p723
aF10.3669
aI0
aI01
aI00
aI00
aI00
aI00
aI00
aI00
aI01
aa(lp724
I234378
aF154.204
aF559.655
aVp1
p725
aS'utopia'
p726
aS'#656565'
p727
aF10.3669
aI0
aI00
aI00
aI01
aI01
aI01
aI00
aI00
aI00
aa(lp728
I89480
aF177.16
aF559.655
aVp1
p729
aS'utopia'
p730
aS'#656565'
p731
aF10.3669
aI0
aI01
aI00
aI00
aI00
aI00
aI00
aI00
aI00
aa(lp732
I27216
aF191.97
aF559.655
aVp1
p733
aS'utopia'
p734
aS'#656565'
p735
aF10.3669
aI0
aI01
aI00
aI00
aI00
aI00
aI00
aI00
aI01
aa(lp736
I234378
aF210.482
aF559.655
aVp1
p737
aS'utopia'
p738
aS'#656565'
p739
aF10.3669
aI0
aI00
aI00
aI01
aI01
aI01
aI00
aI00
aI00
aa(lp740
I123583
aF40.9084
aF579.486
aVp1
p741
aS'utopia'
p742
aS'#656565'
p743
aF8.88595
aI0
aI01
aI00
aI00
aI00
aI00
aI00
aI00
aI00
aa(lp744
I16331
aF76.4522
aF579.486
aVp1
p745
aS'utopia'
p746
aS'#656565'
p747
aF8.88595
aI0
aI00
aI00
aI00
aI00
aI00
aI00
aI00
aI00
aa(lp748
I166593
aF86.8192
aF579.486
aVp1
p749
aS'utopia'
p750
aS'#656565'
p751
aF8.88595
aI0
aI00
aI00
aI00
aI00
aI00
aI00
aI00
aI00
aa(lp752
I21716
aF93.4836
aF579.486
aVp1
p753
aS'utopia'
p754
aS'#656565'
p755
aF8.88595
aI0
aI01
aI00
aI00
aI00
aI00
aI00
aI00
aI00
aa(lp756
I100815
aF111.996
aF579.486
aVp1
p757
aS'utopia'
p758
aS'#656565'
p759
aF8.88595
aI0
aI01
aI00
aI00
aI00
aI00
aI00
aI00
aI00
aa(lp760
I234378
aF40.9084
aF612.702
aVp1
p761
aS'utopia'
p762
aS'#000000'
p763
aF10.3669
aI1
aI01
aI00
aI00
aI00
aI00
aI00
aI00
aI00
aa(lp764
I234378
aF65.3448
aF612.702
aVp1
p765
aS'utopia'
p766
aS'#000000'
p767
aF10.3669
aI1
aI01
aI00
aI00
aI00
aI00
aI00
aI00
aI00
aa(lp768
I234378
aF128.287
aF612.702
aVp1
p769
aS'utopia'
p770
aS'#000000'
p771
aF10.3669
aI1
aI01
aI00
aI00
aI00
aI00
aI00
aI00
aI00
aa(lp772
I234378
aF169.014
aF612.702
aVp1
p773
aS'utopia'
p774
aS'#000000'
p775
aF10.3669
aI1
aI00
aI00
aI00
aI00
aI00
aI00
aI00
aI00
aa(lp776
I234378
aF174.50374000000002
aF612.702
ag773
aS'utopia'
p777
aS'#000000'
p778
aF10.3669
aI1
aI01
aI01
aI00
aI00
aI00
aI00
aI00
aI00
aa(lp779
I234378
aF190.97296000000003
aF612.702
ag773
aS'utopia'
p780
aS'#000000'
p781
aF10.3669
aI1
aI00
aI00
aI00
aI00
aI00
aI00
aI00
aI00
aa(lp782
I207716
aF40.9084
aF629.262
aVp1
p783
aS'utopia'
p784
aS'#656565'
p785
aF10.3669
aI0
aI01
aI01
aI00
aI00
aI00
aI00
aI00
aI00
aa(lp786
I132100
aF83.1167
aF629.262
aVp1
p787
aS'utopia'
p788
aS'#656565'
p789
aF10.3669
aI0
aI01
aI01
aI00
aI00
aI00
aI00
aI00
aI00
aa(lp790
I37510
aF141.616
aF629.262
aVp1
p791
aS'utopia'
p792
aS'#656565'
p793
aF10.3669
aI0
aI01
aI00
aI00
aI00
aI00
aI00
aI00
aI01
aa(lp794
I234378
aF162.35
aF629.262
aVp1
p795
aS'utopia'
p796
aS'#656565'
p797
aF10.3669
aI0
aI00
aI00
aI01
aI01
aI01
aI00
aI00
aI00
aa(lp798
I89480
aF185.305
aF629.262
aVp1
p799
aS'utopia'
p800
aS'#656565'
p801
aF10.3669
aI0
aI01
aI00
aI00
aI00
aI00
aI00
aI00
aI00
aa(lp802
I234378
aF200.115
aF629.262
aVp1
p803
aS'utopia'
p804
aS'#656565'
p805
aF10.3669
aI0
aI01
aI00
aI00
aI00
aI00
aI00
aI00
aI01
aa(lp806
I234378
aF219.368
aF629.262
aVp1
p807
aS'utopia'
p808
aS'#656565'
p809
aF10.3669
aI0
aI00
aI00
aI01
aI01
aI01
aI00
aI00
aI00
aa(lp810
I123583
aF40.9084
aF649.092
aVp1
p811
aS'utopia'
p812
aS'#656565'
p813
aF8.88595
aI0
aI01
aI00
aI00
aI00
aI00
aI00
aI00
aI00
aa(lp814
I16331
aF76.4522
aF649.092
aVp1
p815
aS'utopia'
p816
aS'#656565'
p817
aF8.88595
aI0
aI00
aI00
aI00
aI00
aI00
aI00
aI00
aI00
aa(lp818
I166593
aF86.8192
aF649.092
aVp1
p819
aS'utopia'
p820
aS'#656565'
p821
aF8.88595
aI0
aI00
aI00
aI00
aI00
aI00
aI00
aI00
aI00
aa(lp822
I21716
aF93.4836
aF649.092
aVp1
p823
aS'utopia'
p824
aS'#656565'
p825
aF8.88595
aI0
aI01
aI00
aI00
aI00
aI00
aI00
aI00
aI00
aa(lp826
I100815
aF111.996
aF649.092
aVp1
p827
aS'utopia'
p828
aS'#656565'
p829
aF8.88595
aI0
aI01
aI00
aI00
aI00
aI00
aI00
aI00
aI00
aa(lp830
I124531
aF40.1679
aF684.654
aVp1
p831
aS'utopia'
p832
aS'#02304b'
p833
aF11.8479
aI1
aI01
aI00
aI00
aI00
aI00
aI00
aI00
aI00
aa(lp834
I234378
aF40.9084
aF712.938
aVp1
p835
aS'utopia'
p836
aS'#656565'
p837
aF10.3669
aI0
aI01
aI00
aI00
aI00
aI00
aI00
aI00
aI00
aa(lp838
I234378
aF117.18
aF712.938
aVp1
p839
aS'utopia'
p840
aS'#656565'
p841
aF10.3669
aI0
aI00
aI00
aI00
aI00
aI00
aI00
aI00
aI00
aa(lp842
I60201
aF123.103
aF712.938
aVp1
p843
aS'utopia'
p844
aS'#656565'
p845
aF10.3669
aI0
aI01
aI00
aI00
aI00
aI00
aI00
aI00
aI00
aa(lp846
I230071
aF143.097
aF712.938
aVp1
p847
aS'utopia'
p848
aS'#656565'
p849
aF10.3669
aI0
aI01
aI00
aI00
aI00
aI00
aI00
aI00
aI00
aa(lp850
I234378
aF169.755
aF712.938
aVp1
p851
aS'utopia'
p852
aS'#656565'
p853
aF10.3669
aI0
aI00
aI00
aI00
aI00
aI00
aI00
aI00
aI00
aa(lp854
I27780
aF40.9084
aF728.959
aVp1
p855
aS'utopia'
p856
aS'#000000'
p857
aF10.3669
aI1
aI01
aI01
aI00
aI00
aI00
aI00
aI00
aI00
aa(lp858
I234378
aF46.15191818181818
aF728.959
ag855
aS'utopia'
p859
aS'#000000'
p860
aF10.3669
aI1
aI00
aI00
aI00
aI00
aI00
aI00
aI00
aI00
aa(lp861
I2737
aF51.395436363636364
aF728.959
ag855
aS'utopia'
p862
aS'#000000'
p863
aF10.3669
aI1
aI01
aI00
aI00
aI00
aI00
aI00
aI00
aI00
aa(lp864
I234378
aF72.36950909090909
aF728.959
ag855
aS'utopia'
p865
aS'#000000'
p866
aF10.3669
aI1
aI00
aI00
aI00
aI00
aI00
aI00
aI00
aI00
aa(lp867
I27780
aF70.61302727272727
aF728.959
ag855
aS'utopia'
p868
aS'#000000'
p869
aF10.3669
aI1
aI01
aI01
aI00
aI00
aI00
aI00
aI00
aI00
aa(lp870
I234378
aF75.85654545454545
aF728.959
ag855
aS'utopia'
p871
aS'#000000'
p872
aF10.3669
aI1
aI00
aI00
aI00
aI00
aI00
aI00
aI00
aI00
aa(lp873
I64620
aF88.10006363636364
aF728.959
ag855
aS'utopia'
p874
aS'#000000'
p875
aF10.3669
aI1
aI01
aI01
aI00
aI00
aI00
aI00
aI00
aI00
aa(lp876
I234378
aF84.34358181818183
aF728.959
ag855
aS'utopia'
p877
aS'#000000'
p878
aF10.3669
aI1
aI00
aI00
aI00
aI00
aI00
aI00
aI00
aI00
aa(lp879
I234378
aF100.889
aF728.959
aVp1
p880
aS'utopia'
p881
aS'#000000'
p882
aF10.3669
aI1
aI00
aI00
aI00
aI00
aI00
aI00
aI00
aI00
aa(lp883
I24862
aF106.09796774193548
aF728.959
ag880
aS'utopia'
p884
aS'#000000'
p885
aF10.3669
aI1
aI01
aI00
aI00
aI00
aI00
aI00
aI00
aI00
aa(lp886
I234378
aF163.3966129032258
aF728.959
ag880
aS'utopia'
p887
aS'#000000'
p888
aF10.3669
aI1
aI00
aI00
aI00
aI00
aI00
aI00
aI00
aI00
aa(lp889
I183170
aF168.60558064516127
aF728.959
ag880
aS'utopia'
p890
aS'#000000'
p891
aF10.3669
aI1
aI01
aI00
aI00
aI00
aI00
aI00
aI00
aI00
aa(lp892
I234378
aF257.1580322580645
aF728.959
ag880
aS'utopia'
p893
aS'#000000'
p894
aF10.3669
aI1
aI00
aI00
aI00
aI00
aI00
aI00
aI00
aI00
aa(lp895
I234378
aF40.9084
aF749.222
aVp1
p896
aS'utopia'
p897
aS'#656565'
p898
aF10.3669
aI0
aI01
aI00
aI00
aI00
aI00
aI00
aI00
aI00
aa(lp899
I234378
aF67.5663
aF749.222
aVp1
p900
aS'utopia'
p901
aS'#656565'
p902
aF10.3669
aI0
aI01
aI00
aI00
aI00
aI00
aI00
aI00
aI00
aa(lp903
I149270
aF106.813
aF749.222
aVp1
p904
aS'utopia'
p905
aS'#656565'
p906
aF10.3669
aI0
aI01
aI00
aI00
aI00
aI00
aI00
aI00
aI00
aa(lp907
I153079
aF155.685
aF749.222
aVp1
p908
aS'utopia'
p909
aS'#656565'
p910
aF10.3669
aI0
aI01
aI00
aI00
aI00
aI00
aI00
aI00
aI00
aa(lp911
I234378
aF206.039
aF749.222
aVp1
p912
aS'utopia'
p913
aS'#656565'
p914
aF10.3669
aI0
aI00
aI00
aI00
aI00
aI00
aI00
aI00
aI00
aa(lp915
I234378
aF212.06885
aF749.222
ag912
aS'utopia'
p916
aS'#656565'
p917
aF10.3669
aI0
aI01
aI01
aI00
aI00
aI00
aI00
aI00
aI00
aa(lp918
I234378
aF236.18824999999998
aF749.222
ag912
aS'utopia'
p919
aS'#656565'
p920
aF10.3669
aI0
aI00
aI00
aI00
aI00
aI00
aI00
aI00
aI00
aa(lp921
I135639
aF248.988
aF749.222
aVp1
p922
aS'utopia'
p923
aS'#656565'
p924
aF10.3669
aI0
aI00
aI00
aI00
aI00
aI00
aI00
aI00
aI00
aa(lp925
I234378
aF260.836
aF749.222
aVp1
p926
aS'utopia'
p927
aS'#656565'
p928
aF10.3669
aI0
aI00
aI00
aI01
aI01
aI01
aI00
aI00
aI00
aa(lp929
I22476
aF40.1679
aF783.14
aVp1
p930
aS'utopia'
p931
aS'#02304b'
p932
aF11.8479
aI1
aI01
aI01
aI00
aI00
aI00
aI00
aI00
aI00
aa(lp933
I234378
aF54.2374
aF783.14
aVp1
p934
aS'utopia'
p935
aS'#02304b'
p936
aF11.8479
aI1
aI01
aI00
aI00
aI00
aI00
aI00
aI00
aI00
aa(lp937
I109610
aF48.3134
aF28.3259
aVp2
p938
aS'utopia'
p939
aS'#000000'
p940
aF8.88595
aI1
aI01
aI00
aI00
aI00
aI00
aI00
aI00
aI00
aa(lp941
I158577
aF69.7878
aF28.3259
aVp2
p942
aS'utopia'
p943
aS'#000000'
p944
aF8.88595
aI1
aI01
aI00
aI00
aI00
aI00
aI00
aI00
aI00
aa(lp945
I194179
aF188.267
aF28.3259
aVp2
p946
aS'utopia'
p947
aS'#000000'
p948
aF8.88595
aI1
aI01
aI00
aI00
aI00
aI00
aI00
aI00
aI00
aa(lp949
I177981
aF305.265
aF28.3259
aVp2
p950
aS'utopia'
p951
aS'#000000'
p952
aF8.88595
aI1
aI01
aI00
aI00
aI00
aI00
aI00
aI00
aI00
aa(lp953
I25729
aF324.518
aF28.3259
aVp2
p954
aS'utopia'
p955
aS'#000000'
p956
aF8.88595
aI1
aI01
aI00
aI00
aI00
aI00
aI00
aI00
aI00
aa(lp957
I60220
aF412.637
aF28.3259
aVp2
p958
aS'utopia'
p959
aS'#000000'
p960
aF8.88595
aI1
aI01
aI00
aI00
aI00
aI00
aI00
aI00
aI00
aa(lp961
I234378
aF48.3134
aF47.0694
aVp2
p962
aS'utopia'
p963
aS'#656565'
p964
aF8.88595
aI0
aI01
aI00
aI00
aI00
aI00
aI00
aI00
aI00
aa(lp965
I234378
aF188.267
aF47.0694
aVp2
p966
aS'utopia'
p967
aS'#656565'
p968
aF8.88595
aI0
aI00
aI00
aI01
aI01
aI00
aI00
aI00
aI00
aa(lp969
I234378
aF192.0465
aF47.0694
ag966
aS'utopia'
p970
aS'#656565'
p971
aF8.88595
aI0
aI00
aI00
aI00
aI00
aI00
aI00
aI00
aI00
aa(lp972
I234378
aF195.82600000000002
aF47.0694
ag966
aS'utopia'
p973
aS'#656565'
p974
aF8.88595
aI0
aI00
aI00
aI01
aI01
aI00
aI00
aI00
aI00
aa(lp975
I234378
aF317.113
aF47.0694
aVp2
p976
aS'utopia'
p977
aS'#656565'
p978
aF8.88595
aI0
aI00
aI00
aI01
aI01
aI01
aI00
aI00
aI00
aa(lp979
I234378
aF422.264
aF47.0694
aVp2
p980
aS'utopia'
p981
aS'#656565'
p982
aF8.88595
aI0
aI00
aI00
aI01
aI01
aI00
aI00
aI00
aI00
aa(lp983
I234378
aF428.928
aF47.0694
aVp2
p984
aS'utopia'
p985
aS'#656565'
p986
aF8.88595
aI0
aI01
aI00
aI00
aI00
aI00
aI00
aI00
aI00
aa(lp987
I234378
aF48.3134
aF65.5817
aVp2
p988
aS'utopia'
p989
aS'#656565'
p990
aF8.88595
aI0
aI01
aI01
aI00
aI00
aI00
aI00
aI00
aI00
aa(lp991
I234378
aF317.113
aF65.5817
aVp2
p992
aS'utopia'
p993
aS'#656565'
p994
aF8.88595
aI0
aI00
aI00
aI01
aI01
aI01
aI00
aI00
aI00
aa(lp995
I234378
aF422.264
aF65.5817
aVp2
p996
aS'utopia'
p997
aS'#656565'
p998
aF8.88595
aI0
aI00
aI00
aI01
aI01
aI00
aI00
aI00
aI00
aa(lp999
I234378
aF428.928
aF65.5817
aVp2
p1000
aS'utopia'
p1001
aS'#656565'
p1002
aF8.88595
aI0
aI01
aI00
aI00
aI00
aI00
aI00
aI00
aI00
aa(lp1003
I234378
aF48.3134
aF84.0941
aVp2
p1004
aS'utopia'
p1005
aS'#656565'
p1006
aF8.88595
aI0
aI01
aI00
aI00
aI00
aI00
aI00
aI00
aI00
aa(lp1007
I234378
aF317.113
aF84.0941
aVp2
p1008
aS'utopia'
p1009
aS'#656565'
p1010
aF8.88595
aI0
aI00
aI00
aI01
aI01
aI01
aI00
aI00
aI00
aa(lp1011
I234378
aF422.264
aF84.0941
aVp2
p1012
aS'utopia'
p1013
aS'#656565'
p1014
aF8.88595
aI0
aI00
aI00
aI01
aI01
aI00
aI00
aI00
aI00
aa(lp1015
I234378
aF428.928
aF84.0941
aVp2
p1016
aS'utopia'
p1017
aS'#656565'
p1018
aF8.88595
aI0
aI01
aI00
aI00
aI00
aI00
aI00
aI00
aI00
aa(lp1019
I195166
aF40.1679
aF134.466
aVp2
p1020
aS'utopia'
p1021
aS'#02304b'
p1022
aF11.8479
aI1
aI01
aI00
aI00
aI00
aI00
aI00
aI00
aI00
aa(lp1023
I136346
aF96.4456
aF134.466
aVp2
p1024
aS'utopia'
p1025
aS'#02304b'
p1026
aF11.8479
aI1
aI01
aI00
aI00
aI00
aI00
aI00
aI00
aI00
aa(lp1027
I195166
aF48.3134
aF162.356
aVp2
p1028
aS'utopia'
p1029
aS'#000000'
p1030
aF8.88595
aI1
aI01
aI00
aI00
aI00
aI00
aI00
aI00
aI00
aa(lp1031
I164378
aF177.16
aF162.356
aVp2
p1032
aS'utopia'
p1033
aS'#000000'
p1034
aF8.88595
aI1
aI01
aI00
aI00
aI00
aI00
aI00
aI00
aI00
aa(lp1035
I175077
aF296.379
aF162.356
aVp2
p1036
aS'utopia'
p1037
aS'#000000'
p1038
aF8.88595
aI1
aI01
aI00
aI00
aI00
aI00
aI00
aI00
aI00
aa(lp1039
I224291
aF397.087
aF162.356
aVp2
p1040
aS'utopia'
p1041
aS'#000000'
p1042
aF8.88595
aI1
aI01
aI00
aI00
aI00
aI00
aI00
aI00
aI00
aa(lp1043
I165206
aF497.054
aF162.356
aVp2
p1044
aS'utopia'
p1045
aS'#000000'
p1046
aF8.88595
aI1
aI01
aI00
aI00
aI00
aI00
aI00
aI00
aI00
aa(lp1047
I58002
aF48.3134
aF181.099
aVp2
p1048
aS'utopia'
p1049
aS'#656565'
p1050
aF8.88595
aI0
aI01
aI00
aI00
aI00
aI00
aI00
aI00
aI00
aa(lp1051
I185159
aF177.16
aF181.099
aVp2
p1052
aS'utopia'
p1053
aS'#656565'
p1054
aF8.88595
aI0
aI01
aI00
aI00
aI00
aI00
aI00
aI00
aI00
aa(lp1055
I144532
aF48.3134
aF199.611
aVp2
p1056
aS'utopia'
p1057
aS'#656565'
p1058
aF8.88595
aI0
aI01
aI00
aI00
aI00
aI00
aI00
aI00
aI00
aa(lp1059
I185159
aF177.16
aF199.611
aVp2
p1060
aS'utopia'
p1061
aS'#656565'
p1062
aF8.88595
aI0
aI01
aI00
aI00
aI00
aI00
aI00
aI00
aI00
aa(lp1063
I234378
aF40.1679
aF34.4987
aVp3
p1064
aS'utopia'
p1065
aS'#02304b'
p1066
aF11.8479
aI1
aI01
aI00
aI00
aI00
aI00
aI00
aI00
aI00
aa(lp1067
I709
aF40.9084
aF66.2156
aVp3
p1068
aS'utopia'
p1069
aS'#000000'
p1070
aF10.3669
aI1
aI01
aI00
aI00
aI00
aI00
aI00
aI00
aI00
aa(lp1071
I85218
aF92.7431
aF66.2156
aVp3
p1072
aS'utopia'
p1073
aS'#000000'
p1074
aF10.3669
aI1
aI00
aI00
aI00
aI00
aI00
aI00
aI00
aI00
aa(lp1075
I128633
aF113.477
aF66.2156
aVp3
p1076
aS'utopia'
p1077
aS'#000000'
p1078
aF10.3669
aI1
aI01
aI00
aI00
aI00
aI00
aI00
aI00
aI00
aa(lp1079
I89958
aF169.755
aF66.2156
aVp3
p1080
aS'utopia'
p1081
aS'#000000'
p1082
aF10.3669
aI1
aI01
aI00
aI00
aI00
aI00
aI00
aI00
aI00
aa(lp1083
I25931
aF40.9084
aF82.7761
aVp3
p1084
aS'utopia'
p1085
aS'#656565'
p1086
aF10.3669
aI0
aI01
aI00
aI00
aI00
aI00
aI00
aI00
aI00
aa(lp1087
I150008
aF72.0093
aF82.7761
aVp3
p1088
aS'utopia'
p1089
aS'#656565'
p1090
aF10.3669
aI0
aI01
aI00
aI00
aI00
aI00
aI00
aI00
aI00
aa(lp1091
I234378
aF118.392825
aF82.7761
ag1088
aS'utopia'
p1092
aS'#656565'
p1093
aF10.3669
aI0
aI00
aI00
aI00
aI00
aI00
aI00
aI00
aI00
aa(lp1094
I31679
aF123.54655
aF82.7761
ag1088
aS'utopia'
p1095
aS'#656565'
p1096
aF10.3669
aI0
aI01
aI01
aI00
aI00
aI00
aI00
aI00
aI00
aa(lp1097
I234378
aF140.875
aF82.7761
aVp3
p1098
aS'utopia'
p1099
aS'#656565'
p1100
aF10.3669
aI0
aI01
aI00
aI00
aI00
aI00
aI00
aI00
aI00
aa(lp1101
I60201
aF177.9
aF82.7761
aVp3
p1102
aS'utopia'
p1103
aS'#656565'
p1104
aF10.3669
aI0
aI01
aI00
aI00
aI00
aI00
aI00
aI00
aI00
aa(lp1105
I230071
aF197.894
aF82.7761
aVp3
p1106
aS'utopia'
p1107
aS'#656565'
p1108
aF10.3669
aI0
aI01
aI00
aI00
aI00
aI00
aI00
aI00
aI00
aa(lp1109
I131049
aF228.994
aF82.7761
aVp3
p1110
aS'utopia'
p1111
aS'#656565'
p1112
aF10.3669
aI0
aI00
aI00
aI00
aI00
aI00
aI00
aI00
aI00
aa(lp1113
I234378
aF253.431
aF82.7761
aVp3
p1114
aS'utopia'
p1115
aS'#656565'
p1116
aF10.3669
aI0
aI01
aI00
aI00
aI00
aI00
aI00
aI00
aI01
aa(lp1117
I234378
aF272.684
aF82.7761
aVp3
p1118
aS'utopia'
p1119
aS'#656565'
p1120
aF10.3669
aI0
aI00
aI00
aI01
aI01
aI01
aI00
aI00
aI00
aa(lp1121
I89480
aF295.639
aF82.7761
aVp3
p1122
aS'utopia'
p1123
aS'#656565'
p1124
aF10.3669
aI0
aI00
aI00
aI00
aI00
aI00
aI00
aI00
aI00
aa(lp1125
I102117
aF307.487
aF82.7761
aVp3
p1126
aS'utopia'
p1127
aS'#656565'
p1128
aF10.3669
aI0
aI01
aI00
aI00
aI00
aI00
aI00
aI00
aI00
aa(lp1129
I234378
aF40.9084
aF99.067
aVp3
p1130
aS'utopia'
p1131
aS'#656565'
p1132
aF10.3669
aI0
aI01
aI01
aI00
aI00
aI00
aI00
aI00
aI00
aa(lp1133
I109610
aF40.9084
aF115.195
aVp3
p1134
aS'utopia'
p1135
aS'#656565'
p1136
aF8.88595
aI0
aI01
aI00
aI00
aI00
aI00
aI00
aI00
aI00
aa(lp1137
I25729
aF58.6803
aF115.195
aVp3
p1138
aS'utopia'
p1139
aS'#656565'
p1140
aF8.88595
aI0
aI01
aI00
aI00
aI00
aI00
aI00
aI00
aI00
aa(lp1141
I234378
aF76.54462000000001
aF115.195
ag1138
aS'utopia'
p1142
aS'#656565'
p1143
aF8.88595
aI0
aI00
aI00
aI00
aI00
aI00
aI00
aI00
aI00
aa(lp1144
I21716
aF85.3382
aF115.195
aVp3
p1145
aS'utopia'
p1146
aS'#656565'
p1147
aF8.88595
aI0
aI01
aI00
aI00
aI00
aI00
aI00
aI00
aI00
aa(lp1148
I234378
aF103.851
aF115.195
aVp3
p1149
aS'utopia'
p1150
aS'#656565'
p1151
aF8.88595
aI0
aI00
aI00
aI00
aI00
aI00
aI00
aI00
aI00
aa(lp1152
I234378
aF107.95788666666667
aF115.195
ag1149
aS'utopia'
p1153
aS'#656565'
p1154
aF8.88595
aI0
aI01
aI00
aI00
aI00
aI00
aI00
aI00
aI00
aa(lp1155
I234378
aF167.533
aF115.195
aVp3
p1156
aS'utopia'
p1157
aS'#656565'
p1158
aF8.88595
aI0
aI00
aI00
aI00
aI00
aI00
aI00
aI00
aI00
aa(lp1159
I260
aF174.198
aF115.195
aVp3
p1160
aS'utopia'
p1161
aS'#656565'
p1162
aF8.88595
aI0
aI01
aI00
aI00
aI00
aI00
aI00
aI00
aI00
aa(lp1163
I234378
aF228.254
aF115.195
aVp3
p1164
aS'utopia'
p1165
aS'#656565'
p1166
aF8.88595
aI0
aI00
aI00
aI00
aI00
aI00
aI00
aI00
aI00
aa(lp1167
I234378
aF234.918
aF115.195
aVp3
p1168
aS'utopia'
p1169
aS'#656565'
p1170
aF8.88595
aI0
aI01
aI00
aI00
aI00
aI00
aI00
aI00
aI00
aa(lp1171
I234378
aF280.829
aF115.195
aVp3
p1172
aS'utopia'
p1173
aS'#656565'
p1174
aF8.88595
aI0
aI00
aI00
aI00
aI00
aI00
aI00
aI00
aI00
aa(lp1175
I234378
aF287.494
aF115.195
aVp3
p1176
aS'utopia'
p1177
aS'#656565'
p1178
aF8.88595
aI0
aI01
aI00
aI00
aI00
aI00
aI00
aI00
aI00
aa(lp1179
I234378
aF320.075
aF115.195
aVp3
p1180
aS'utopia'
p1181
aS'#656565'
p1182
aF8.88595
aI0
aI00
aI00
aI00
aI00
aI00
aI00
aI00
aI00
aa(lp1183
I234378
aF326.74
aF115.195
aVp3
p1184
aS'utopia'
p1185
aS'#656565'
p1186
aF8.88595
aI0
aI01
aI01
aI00
aI00
aI00
aI00
aI00
aI00
aa(lp1187
I234378
aF338.493925
aF115.195
ag1184
aS'utopia'
p1188
aS'#656565'
p1189
aF8.88595
aI0
aI00
aI00
aI00
aI00
aI00
aI00
aI00
aI00
aa(lp1190
I234378
aF344.512
aF115.195
aVp3
p1191
aS'utopia'
p1192
aS'#656565'
p1193
aF8.88595
aI0
aI00
aI00
aI00
aI00
aI00
aI00
aI00
aI00
aa(lp1194
I148996
aF348.955
aF115.195
aVp3
p1195
aS'utopia'
p1196
aS'#656565'
p1197
aF8.88595
aI0
aI01
aI00
aI00
aI00
aI00
aI00
aI00
aI00
aa(lp1198
I234378
aF376.353
aF115.195
aVp3
p1199
aS'utopia'
p1200
aS'#656565'
p1201
aF8.88595
aI0
aI00
aI00
aI01
aI01
aI00
aI00
aI00
aI00
aa(lp1202
I234378
aF383.018
aF115.195
aVp3
p1203
aS'utopia'
p1204
aS'#656565'
p1205
aF8.88595
aI0
aI00
aI00
aI00
aI00
aI00
aI00
aI00
aI00
aa(lp1206
I234378
aF388.0642333333333
aF115.195
ag1203
aS'utopia'
p1207
aS'#656565'
p1208
aF8.88595
aI0
aI01
aI01
aI00
aI00
aI00
aI00
aI00
aI00
aa(lp1209
I234378
aF400.049
aF115.195
aVp3
p1210
aS'utopia'
p1211
aS'#656565'
p1212
aF8.88595
aI0
aI01
aI01
aI00
aI00
aI00
aI00
aI00
aI00
aa(lp1213
I234378
aF415.3068071428571
aF115.195
ag1210
aS'utopia'
p1214
aS'#656565'
p1215
aF8.88595
aI0
aI00
aI00
aI00
aI00
aI00
aI00
aI00
aI00
aa(lp1216
I176767
aF420.3927428571428
aF115.195
ag1210
aS'utopia'
p1217
aS'#656565'
p1218
aF8.88595
aI0
aI01
aI01
aI00
aI00
aI00
aI00
aI00
aI00
aa(lp1219
I234378
aF456.1661642857143
aF115.195
ag1210
aS'utopia'
p1220
aS'#656565'
p1221
aF8.88595
aI0
aI00
aI00
aI00
aI00
aI00
aI00
aI00
aI00
aa(lp1222
I234378
aF473.358
aF115.195
aVp3
p1223
aS'utopia'
p1224
aS'#656565'
p1225
aF8.88595
aI0
aI01
aI00
aI00
aI00
aI00
aI00
aI00
aI00
aa(lp1226
I234378
aF518.528
aF115.195
aVp3
p1227
aS'utopia'
p1228
aS'#656565'
p1229
aF8.88595
aI0
aI00
aI00
aI00
aI00
aI00
aI00
aI00
aI00
aa(lp1230
I234378
aF522.971
aF115.195
aVp3
p1231
aS'utopia'
p1232
aS'#656565'
p1233
aF8.88595
aI0
aI01
aI00
aI00
aI00
aI00
aI00
aI00
aI00
aa(lp1234
I234378
aF547.1890571428571
aF115.195
ag1231
aS'utopia'
p1235
aS'#656565'
p1236
aF8.88595
aI0
aI00
aI00
aI00
aI00
aI00
aI00
aI00
aI00
aa(lp1237
I234378
aF40.9084
aF125.562
aVp3
p1238
aS'utopia'
p1239
aS'#656565'
p1240
aF8.88595
aI0
aI01
aI01
aI00
aI00
aI00
aI00
aI00
aI00
aa(lp1241
I234378
aF59.365120000000005
aF125.562
ag1238
aS'utopia'
p1242
aS'#656565'
p1243
aF8.88595
aI0
aI00
aI00
aI00
aI00
aI00
aI00
aI00
aI00
aa(lp1244
I234378
aF66.0853
aF125.562
aVp3
p1245
aS'utopia'
p1246
aS'#656565'
p1247
aF8.88595
aI0
aI01
aI01
aI00
aI00
aI00
aI00
aI00
aI00
aa(lp1248
I234378
aF78.945475
aF125.562
ag1245
aS'utopia'
p1249
aS'#656565'
p1250
aF8.88595
aI0
aI00
aI00
aI00
aI00
aI00
aI00
aI00
aI00
aa(lp1251
I25724
aF85.3382
aF125.562
aVp3
p1252
aS'utopia'
p1253
aS'#656565'
p1254
aF8.88595
aI0
aI01
aI01
aI00
aI00
aI00
aI00
aI00
aI00
aa(lp1255
I234378
aF133.42628
aF125.562
ag1252
aS'utopia'
p1256
aS'#656565'
p1257
aF8.88595
aI0
aI00
aI00
aI00
aI00
aI00
aI00
aI00
aI00
aa(lp1258
I234378
aF140.875
aF125.562
aVp3
p1259
aS'utopia'
p1260
aS'#656565'
p1261
aF8.88595
aI0
aI01
aI01
aI00
aI00
aI00
aI00
aI00
aI00
aa(lp1262
I234378
aF163.47852
aF125.562
ag1259
aS'utopia'
p1263
aS'#656565'
p1264
aF8.88595
aI0
aI00
aI00
aI00
aI00
aI00
aI00
aI00
aI00
aa(lp1265
I234378
aF171.236
aF125.562
aVp3
p1266
aS'utopia'
p1267
aS'#656565'
p1268
aF8.88595
aI0
aI01
aI01
aI00
aI00
aI00
aI00
aI00
aI00
aa(lp1269
I210461
aF40.9084
aF139.631
aVp3
p1270
aS'utopia'
p1271
aS'#656565'
p1272
aF8.88595
aI0
aI01
aI00
aI00
aI00
aI00
aI00
aI00
aI00
aa(lp1273
I340
aF65.3448
aF139.631
aVp3
p1274
aS'utopia'
p1275
aS'#656565'
p1276
aF8.88595
aI0
aI01
aI00
aI00
aI00
aI00
aI00
aI00
aI00
aa(lp1277
I234378
aF79.65472000000001
aF139.631
ag1274
aS'utopia'
p1278
aS'#656565'
p1279
aF8.88595
aI0
aI00
aI00
aI00
aI00
aI00
aI00
aI00
aI00
aa(lp1280
I234378
aF87.5597
aF139.631
aVp3
p1281
aS'utopia'
p1282
aS'#656565'
p1283
aF8.88595
aI0
aI00
aI00
aI01
aI01
aI01
aI00
aI00
aI00
aa(lp1284
I176435
aF40.9084
aF153.701
aVp3
p1285
aS'utopia'
p1286
aS'#656565'
p1287
aF8.88595
aI0
aI01
aI00
aI00
aI00
aI00
aI00
aI00
aI00
aa(lp1288
I234378
aF60.9018
aF153.701
aVp3
p1289
aS'utopia'
p1290
aS'#656565'
p1291
aF8.88595
aI0
aI00
aI00
aI00
aI00
aI00
aI00
aI00
aI00
aa(lp1292
I234378
aF67.5663
aF153.701
aVp3
p1293
aS'utopia'
p1294
aS'#656565'
p1295
aF8.88595
aI0
aI01
aI00
aI00
aI00
aI00
aI00
aI00
aI00
aa(lp1296
I234378
aF74.55463333333333
aF153.701
ag1293
aS'utopia'
p1297
aS'#656565'
p1298
aF8.88595
aI0
aI00
aI00
aI00
aI00
aI00
aI00
aI00
aI00
aa(lp1299
I150037
aF80.1547
aF153.701
aVp3
p1300
aS'utopia'
p1301
aS'#656565'
p1302
aF8.88595
aI0
aI01
aI00
aI00
aI00
aI00
aI00
aI00
aI00
aa(lp1303
I176435
aF40.9084
aF167.77
aVp3
p1304
aS'utopia'
p1305
aS'#656565'
p1306
aF8.88595
aI0
aI01
aI00
aI00
aI00
aI00
aI00
aI00
aI00
aa(lp1307
I66756
aF60.9018
aF167.77
aVp3
p1308
aS'utopia'
p1309
aS'#656565'
p1310
aF8.88595
aI0
aI01
aI00
aI00
aI00
aI00
aI00
aI00
aI00
aa(lp1311
I234378
aF105.12885833333334
aF167.77
ag1308
aS'utopia'
p1312
aS'#656565'
p1313
aF8.88595
aI0
aI00
aI00
aI00
aI00
aI00
aI00
aI00
aI00
aa(lp1314
I123583
aF113.477
aF167.77
aVp3
p1315
aS'utopia'
p1316
aS'#656565'
p1317
aF8.88595
aI0
aI01
aI00
aI00
aI00
aI00
aI00
aI00
aI00
aa(lp1318
I16331
aF149.021
aF167.77
aVp3
p1319
aS'utopia'
p1320
aS'#656565'
p1321
aF8.88595
aI0
aI00
aI00
aI00
aI00
aI00
aI00
aI00
aI00
aa(lp1322
I55966
aF159.388
aF167.77
aVp3
p1323
aS'utopia'
p1324
aS'#656565'
p1325
aF8.88595
aI0
aI01
aI00
aI00
aI00
aI00
aI00
aI00
aI00
aa(lp1326
I234378
aF186.786
aF167.77
aVp3
p1327
aS'utopia'
p1328
aS'#656565'
p1329
aF8.88595
aI0
aI01
aI00
aI00
aI00
aI00
aI00
aI00
aI00
aa(lp1330
I132100
aF223.811
aF167.77
aVp3
p1331
aS'utopia'
p1332
aS'#656565'
p1333
aF8.88595
aI0
aI01
aI00
aI00
aI00
aI00
aI00
aI00
aI00
aa(lp1334
I177958
aF40.9084
aF181.84
aVp3
p1335
aS'utopia'
p1336
aS'#656565'
p1337
aF8.88595
aI0
aI01
aI00
aI00
aI00
aI00
aI00
aI00
aI00
aa(lp1338
I234378
aF71.2688
aF181.84
aVp3
p1339
aS'utopia'
p1340
aS'#656565'
p1341
aF8.88595
aI0
aI01
aI00
aI00
aI00
aI00
aI00
aI00
aI00
aa(lp1342
I234378
aF96.6393375
aF181.84
ag1339
aS'utopia'
p1343
aS'#656565'
p1344
aF8.88595
aI0
aI00
aI00
aI00
aI00
aI00
aI00
aI00
aI00
aa(lp1345
I25931
aF104.591
aF181.84
aVp3
p1346
aS'utopia'
p1347
aS'#656565'
p1348
aF8.88595
aI0
aI01
aI00
aI00
aI00
aI00
aI00
aI00
aI00
aa(lp1349
I150008
aF129.768
aF181.84
aVp3
p1350
aS'utopia'
p1351
aS'#656565'
p1352
aF8.88595
aI0
aI00
aI00
aI00
aI00
aI00
aI00
aI00
aI00
aa(lp1353
I153177
aF168.274
aF181.84
aVp3
p1354
aS'utopia'
p1355
aS'#656565'
p1356
aF8.88595
aI0
aI01
aI00
aI00
aI00
aI00
aI00
aI00
aI00
aa(lp1357
I22474
aF222.33
aF181.84
aVp3
p1358
aS'utopia'
p1359
aS'#656565'
p1360
aF8.88595
aI0
aI00
aI00
aI00
aI00
aI00
aI00
aI00
aI00
aa(lp1361
I166593
aF230.475
aF181.84
aVp3
p1362
aS'utopia'
p1363
aS'#656565'
p1364
aF8.88595
aI0
aI00
aI00
aI00
aI00
aI00
aI00
aI00
aI00
aa(lp1365
I119502
aF237.14
aF181.84
aVp3
p1366
aS'utopia'
p1367
aS'#656565'
p1368
aF8.88595
aI0
aI00
aI00
aI00
aI00
aI00
aI00
aI00
aI00
aa(lp1369
I234378
aF266.76
aF181.84
aVp3
p1370
aS'utopia'
p1371
aS'#656565'
p1372
aF8.88595
aI0
aI00
aI00
aI00
aI00
aI00
aI00
aI00
aI00
aa(lp1373
I192651
aF297.86
aF181.84
aVp3
p1374
aS'utopia'
p1375
aS'#656565'
p1376
aF8.88595
aI0
aI00
aI00
aI00
aI00
aI00
aI00
aI00
aI00
aa(lp1377
I194354
aF309.708
aF181.84
aVp3
p1378
aS'utopia'
p1379
aS'#656565'
p1380
aF8.88595
aI0
aI00
aI00
aI00
aI00
aI00
aI00
aI00
aI00
aa(lp1381
I128633
aF324.518
aF181.84
aVp3
p1382
aS'utopia'
p1383
aS'#656565'
p1384
aF8.88595
aI0
aI01
aI00
aI00
aI00
aI00
aI00
aI00
aI00
aa(lp1385
I91539
aF371.17
aF181.84
aVp3
p1386
aS'utopia'
p1387
aS'#656565'
p1388
aF8.88595
aI0
aI01
aI00
aI00
aI00
aI00
aI00
aI00
aI00
aa(lp1389
I89480
aF393.384
aF181.84
aVp3
p1390
aS'utopia'
p1391
aS'#656565'
p1392
aF8.88595
aI0
aI00
aI00
aI00
aI00
aI00
aI00
aI00
aI00
aa(lp1393
I189446
aF403.751
aF181.84
aVp3
p1394
aS'utopia'
p1395
aS'#656565'
p1396
aF8.88595
aI0
aI00
aI00
aI00
aI00
aI00
aI00
aI00
aI00
aa(lp1397
I120218
aF420.042
aF181.84
aVp3
p1398
aS'utopia'
p1399
aS'#656565'
p1400
aF8.88595
aI0
aI01
aI00
aI00
aI00
aI00
aI00
aI00
aI00
aa(lp1401
I218914
aF461.51
aF181.84
aVp3
p1402
aS'utopia'
p1403
aS'#656565'
p1404
aF8.88595
aI0
aI00
aI00
aI00
aI00
aI00
aI00
aI00
aI00
aa(lp1405
I179418
aF487.427
aF181.84
aVp3
p1406
aS'utopia'
p1407
aS'#656565'
p1408
aF8.88595
aI0
aI00
aI00
aI00
aI00
aI00
aI00
aI00
aI00
aa(lp1409
I154185
aF520.009
aF181.84
aVp3
p1410
aS'utopia'
p1411
aS'#656565'
p1412
aF8.88595
aI0
aI00
aI00
aI00
aI00
aI00
aI00
aI00
aI00
aa(lp1413
I85218
aF40.9084
aF192.207
aVp3
p1414
aS'utopia'
p1415
aS'#656565'
p1416
aF8.88595
aI0
aI00
aI00
aI00
aI00
aI00
aI00
aI00
aI00
aa(lp1417
I16321
aF57.9398
aF192.207
aVp3
p1418
aS'utopia'
p1419
aS'#656565'
p1420
aF8.88595
aI0
aI00
aI00
aI00
aI00
aI00
aI00
aI00
aI00
aa(lp1421
I234378
aF68.29573333333333
aF192.207
ag1418
aS'utopia'
p1422
aS'#656565'
p1423
aF8.88595
aI0
aI00
aI00
aI00
aI00
aI00
aI00
aI00
aI00
aa(lp1424
I150008
aF88.3002
aF192.207
aVp3
p1425
aS'utopia'
p1426
aS'#656565'
p1427
aF8.88595
aI0
aI00
aI00
aI00
aI00
aI00
aI00
aI00
aI00
aa(lp1428
I234378
aF126.806
aF192.207
aVp3
p1429
aS'utopia'
p1430
aS'#656565'
p1431
aF8.88595
aI0
aI00
aI00
aI00
aI00
aI00
aI00
aI00
aI00
aa(lp1432
I89480
aF171.976
aF192.207
aVp3
p1433
aS'utopia'
p1434
aS'#656565'
p1435
aF8.88595
aI0
aI00
aI00
aI00
aI00
aI00
aI00
aI00
aI00
aa(lp1436
I25931
aF182.343
aF192.207
aVp3
p1437
aS'utopia'
p1438
aS'#656565'
p1439
aF8.88595
aI0
aI00
aI00
aI00
aI00
aI00
aI00
aI00
aI00
aa(lp1440
I234378
aF206.039
aF192.207
aVp3
p1441
aS'utopia'
p1442
aS'#656565'
p1443
aF8.88595
aI0
aI00
aI00
aI00
aI00
aI00
aI00
aI00
aI00
aa(lp1444
I22476
aF208.77686
aF192.207
ag1441
aS'utopia'
p1445
aS'#656565'
p1446
aF8.88595
aI0
aI01
aI00
aI00
aI00
aI00
aI00
aI00
aI00
aa(lp1447
I234378
aF216.406
aF192.207
aVp3
p1448
aS'utopia'
p1449
aS'#656565'
p1450
aF8.88595
aI0
aI00
aI00
aI00
aI00
aI00
aI00
aI00
aI00
aa(lp1451
I16329
aF242.323
aF192.207
aVp3
p1452
aS'utopia'
p1453
aS'#656565'
p1454
aF8.88595
aI0
aI00
aI00
aI00
aI00
aI00
aI00
aI00
aI00
aa(lp1455
I134493
aF254.171
aF192.207
aVp3
p1456
aS'utopia'
p1457
aS'#656565'
p1458
aF8.88595
aI0
aI00
aI00
aI00
aI00
aI00
aI00
aI00
aI00
aa(lp1459
I38609
aF286.013
aF192.207
aVp3
p1460
aS'utopia'
p1461
aS'#656565'
p1462
aF8.88595
aI0
aI00
aI00
aI00
aI00
aI00
aI00
aI00
aI00
aa(lp1463
I144489
aF304.525
aF192.207
aVp3
p1464
aS'utopia'
p1465
aS'#656565'
p1466
aF8.88595
aI0
aI00
aI00
aI00
aI00
aI00
aI00
aI00
aI00
aa(lp1467
I194354
aF314.892
aF192.207
aVp3
p1468
aS'utopia'
p1469
aS'#656565'
p1470
aF8.88595
aI0
aI00
aI00
aI00
aI00
aI00
aI00
aI00
aI00
aa(lp1471
I25931
aF329.702
aF192.207
aVp3
p1472
aS'utopia'
p1473
aS'#656565'
p1474
aF8.88595
aI0
aI00
aI00
aI00
aI00
aI00
aI00
aI00
aI00
aa(lp1475
I119502
aF353.398
aF192.207
aVp3
p1476
aS'utopia'
p1477
aS'#656565'
p1478
aF8.88595
aI0
aI00
aI00
aI00
aI00
aI00
aI00
aI00
aI00
aa(lp1479
I51791
aF383.018
aF192.207
aVp3
p1480
aS'utopia'
p1481
aS'#656565'
p1482
aF8.88595
aI0
aI00
aI00
aI00
aI00
aI00
aI00
aI00
aI00
aa(lp1483
I144489
aF416.34
aF192.207
aVp3
p1484
aS'utopia'
p1485
aS'#656565'
p1486
aF8.88595
aI0
aI00
aI00
aI00
aI00
aI00
aI00
aI00
aI00
aa(lp1487
I194354
aF426.707
aF192.207
aVp3
p1488
aS'utopia'
p1489
aS'#656565'
p1490
aF8.88595
aI0
aI00
aI00
aI00
aI00
aI00
aI00
aI00
aI00
aa(lp1491
I128633
aF441.517
aF192.207
aVp3
p1492
aS'utopia'
p1493
aS'#656565'
p1494
aF8.88595
aI0
aI01
aI00
aI00
aI00
aI00
aI00
aI00
aI00
aa(lp1495
I91539
aF488.168
aF192.207
aVp3
p1496
aS'utopia'
p1497
aS'#656565'
p1498
aF8.88595
aI0
aI01
aI00
aI00
aI00
aI00
aI00
aI00
aI00
aa(lp1499
I11472
aF510.383
aF192.207
aVp3
p1500
aS'utopia'
p1501
aS'#656565'
p1502
aF8.88595
aI0
aI00
aI00
aI00
aI00
aI00
aI00
aI00
aI00
aa(lp1503
I194354
aF40.9084
aF202.573
aVp3
p1504
aS'utopia'
p1505
aS'#656565'
p1506
aF8.88595
aI0
aI00
aI00
aI00
aI00
aI00
aI00
aI00
aI00
aa(lp1507
I102117
aF55.7183
aF202.573
aVp3
p1508
aS'utopia'
p1509
aS'#656565'
p1510
aF8.88595
aI0
aI00
aI00
aI00
aI00
aI00
aI00
aI00
aI00
aa(lp1511
I234378
aF87.5597
aF202.573
aVp3
p1512
aS'utopia'
p1513
aS'#656565'
p1514
aF8.88595
aI0
aI00
aI00
aI00
aI00
aI00
aI00
aI00
aI00
aa(lp1515
I52480
aF91.96398125
aF202.573
ag1512
aS'utopia'
p1516
aS'#656565'
p1517
aF8.88595
aI0
aI00
aI00
aI00
aI00
aI00
aI00
aI00
aI00
aa(lp1518
I89480
aF110.58110625
aF202.573
ag1512
aS'utopia'
p1519
aS'#656565'
p1520
aF8.88595
aI0
aI00
aI00
aI00
aI00
aI00
aI00
aI00
aI00
aa(lp1521
I224218
aF120.38966875
aF202.573
ag1512
aS'utopia'
p1522
aS'#656565'
p1523
aF8.88595
aI0
aI00
aI00
aI00
aI00
aI00
aI00
aI00
aI00
aa(lp1524
I234378
aF146.81535625
aF202.573
ag1512
aS'utopia'
p1525
aS'#656565'
p1526
aF8.88595
aI0
aI00
aI00
aI00
aI00
aI00
aI00
aI00
aI00
aa(lp1527
I83631
aF160.128
aF202.573
aVp3
p1528
aS'utopia'
p1529
aS'#656565'
p1530
aF8.88595
aI0
aI00
aI00
aI00
aI00
aI00
aI00
aI00
aI00
aa(lp1531
I144489
aF183.084
aF202.573
aVp3
p1532
aS'utopia'
p1533
aS'#656565'
p1534
aF8.88595
aI0
aI00
aI00
aI00
aI00
aI00
aI00
aI00
aI00
aa(lp1535
I234378
aF193.451
aF202.573
aVp3
p1536
aS'utopia'
p1537
aS'#656565'
p1538
aF8.88595
aI0
aI00
aI00
aI00
aI00
aI00
aI00
aI00
aI00
aa(lp1539
I234378
aF237.88
aF202.573
aVp3
p1540
aS'utopia'
p1541
aS'#656565'
p1542
aF8.88595
aI0
aI00
aI00
aI00
aI00
aI00
aI00
aI00
aI00
aa(lp1543
I234378
aF242.323
aF202.573
aVp3
p1544
aS'utopia'
p1545
aS'#656565'
p1546
aF8.88595
aI0
aI00
aI00
aI00
aI00
aI00
aI00
aI00
aI00
aa(lp1547
I85218
aF281.57
aF202.573
aVp3
p1548
aS'utopia'
p1549
aS'#656565'
p1550
aF8.88595
aI0
aI00
aI00
aI00
aI00
aI00
aI00
aI00
aI00
aa(lp1551
I154089
aF298.601
aF202.573
aVp3
p1552
aS'utopia'
p1553
aS'#656565'
p1554
aF8.88595
aI0
aI00
aI00
aI00
aI00
aI00
aI00
aI00
aI00
aa(lp1555
I234378
aF342.29
aF202.573
aVp3
p1556
aS'utopia'
p1557
aS'#656565'
p1558
aF8.88595
aI0
aI00
aI00
aI00
aI00
aI00
aI00
aI00
aI00
aa(lp1559
I89480
aF365.986
aF202.573
aVp3
p1560
aS'utopia'
p1561
aS'#656565'
p1562
aF8.88595
aI0
aI00
aI00
aI00
aI00
aI00
aI00
aI00
aI00
aa(lp1563
I234378
aF376.353
aF202.573
aVp3
p1564
aS'utopia'
p1565
aS'#656565'
p1566
aF8.88595
aI0
aI00
aI00
aI00
aI00
aI00
aI00
aI00
aI00
aa(lp1567
I234378
aF400.4276625
aF202.573
ag1564
aS'utopia'
p1568
aS'#656565'
p1569
aF8.88595
aI0
aI00
aI00
aI00
aI00
aI00
aI00
aI00
aI00
aa(lp1570
I234378
aF40.9084
aF239.492
aVp3
p1571
aS'utopia'
p1572
aS'#000000'
p1573
aF10.3669
aI1
aI01
aI01
aI00
aI00
aI00
aI00
aI00
aI00
aa(lp1574
I177958
aF89.7812
aF239.492
aVp3
p1575
aS'utopia'
p1576
aS'#000000'
p1577
aF10.3669
aI1
aI01
aI01
aI00
aI00
aI00
aI00
aI00
aI00
aa(lp1578
I234378
aF40.9084
aF256.052
aVp3
p1579
aS'utopia'
p1580
aS'#656565'
p1581
aF10.3669
aI0
aI01
aI01
aI00
aI00
aI00
aI00
aI00
aI00
aa(lp1582
I234378
aF80.70948461538462
aF256.052
ag1579
aS'utopia'
p1583
aS'#656565'
p1584
aF10.3669
aI0
aI00
aI00
aI00
aI00
aI00
aI00
aI00
aI00
aa(lp1585
I126359
aF86.39535384615385
aF256.052
ag1579
aS'utopia'
p1586
aS'#656565'
p1587
aF10.3669
aI0
aI01
aI01
aI00
aI00
aI00
aI00
aI00
aI00
aa(lp1588
I234378
aF92.08122307692308
aF256.052
ag1579
aS'utopia'
p1589
aS'#656565'
p1590
aF10.3669
aI0
aI00
aI00
aI00
aI00
aI00
aI00
aI00
aI00
aa(lp1591
I59734
aF87.76709230769231
aF256.052
ag1579
aS'utopia'
p1592
aS'#656565'
p1593
aF10.3669
aI0
aI01
aI01
aI00
aI00
aI00
aI00
aI00
aI00
aa(lp1594
I234378
aF101.45296153846154
aF256.052
ag1579
aS'utopia'
p1595
aS'#656565'
p1596
aF10.3669
aI0
aI00
aI00
aI00
aI00
aI00
aI00
aI00
aI00
aa(lp1597
I166593
aF109.13883076923076
aF256.052
ag1579
aS'utopia'
p1598
aS'#656565'
p1599
aF10.3669
aI0
aI01
aI01
aI00
aI00
aI00
aI00
aI00
aI00
aa(lp1600
I234378
aF121.622
aF256.052
aVp3
p1601
aS'utopia'
p1602
aS'#656565'
p1603
aF10.3669
aI0
aI01
aI00
aI00
aI00
aI00
aI00
aI00
aI00
aa(lp1604
I60201
aF158.647
aF256.052
aVp3
p1605
aS'utopia'
p1606
aS'#656565'
p1607
aF10.3669
aI0
aI01
aI00
aI00
aI00
aI00
aI00
aI00
aI00
aa(lp1608
I230071
aF178.641
aF256.052
aVp3
p1609
aS'utopia'
p1610
aS'#656565'
p1611
aF10.3669
aI0
aI01
aI00
aI00
aI00
aI00
aI00
aI00
aI00
aa(lp1612
I131049
aF209.741
aF256.052
aVp3
p1613
aS'utopia'
p1614
aS'#656565'
p1615
aF10.3669
aI0
aI00
aI00
aI00
aI00
aI00
aI00
aI00
aI00
aa(lp1616
I234378
aF234.178
aF256.052
aVp3
p1617
aS'utopia'
p1618
aS'#656565'
p1619
aF10.3669
aI0
aI01
aI00
aI00
aI00
aI00
aI00
aI00
aI01
aa(lp1620
I234378
aF248.988
aF256.052
aVp3
p1621
aS'utopia'
p1622
aS'#656565'
p1623
aF10.3669
aI0
aI00
aI00
aI01
aI01
aI01
aI00
aI00
aI00
aa(lp1624
I89480
aF271.943
aF256.052
aVp3
p1625
aS'utopia'
p1626
aS'#656565'
p1627
aF10.3669
aI0
aI00
aI00
aI00
aI00
aI00
aI00
aI00
aI00
aa(lp1628
I234378
aF283.791
aF256.052
aVp3
p1629
aS'utopia'
p1630
aS'#656565'
p1631
aF10.3669
aI0
aI01
aI00
aI00
aI00
aI00
aI00
aI00
aI01
aa(lp1632
I234378
aF303.044
aF256.052
aVp3
p1633
aS'utopia'
p1634
aS'#656565'
p1635
aF10.3669
aI0
aI00
aI00
aI01
aI01
aI01
aI00
aI00
aI00
aa(lp1636
I47627
aF40.9084
aF272.343
aVp3
p1637
aS'utopia'
p1638
aS'#656565'
p1639
aF10.3669
aI0
aI01
aI01
aI00
aI00
aI00
aI00
aI00
aI00
aa(lp1640
I234378
aF66.8258
aF272.343
aVp3
p1641
aS'utopia'
p1642
aS'#656565'
p1643
aF10.3669
aI0
aI01
aI01
aI00
aI00
aI00
aI00
aI00
aI00
aa(lp1644
I234378
aF146.21713333333332
aF272.343
ag1641
aS'utopia'
p1645
aS'#656565'
p1646
aF10.3669
aI0
aI00
aI00
aI00
aI00
aI00
aI00
aI00
aI00
aa(lp1647
I234378
aF152.83307777777776
aF272.343
ag1641
aS'utopia'
p1648
aS'#656565'
p1649
aF10.3669
aI0
aI01
aI01
aI00
aI00
aI00
aI00
aI00
aI00
aa(lp1650
I109610
aF40.9084
aF288.471
aVp3
p1651
aS'utopia'
p1652
aS'#656565'
p1653
aF8.88595
aI0
aI01
aI00
aI00
aI00
aI00
aI00
aI00
aI00
aa(lp1654
I25729
aF58.6803
aF288.471
aVp3
p1655
aS'utopia'
p1656
aS'#656565'
p1657
aF8.88595
aI0
aI01
aI00
aI00
aI00
aI00
aI00
aI00
aI00
aa(lp1658
I234378
aF76.54462000000001
aF288.471
ag1655
aS'utopia'
p1659
aS'#656565'
p1660
aF8.88595
aI0
aI00
aI00
aI00
aI00
aI00
aI00
aI00
aI00
aa(lp1661
I21716
aF85.3382
aF288.471
aVp3
p1662
aS'utopia'
p1663
aS'#656565'
p1664
aF8.88595
aI0
aI01
aI00
aI00
aI00
aI00
aI00
aI00
aI00
aa(lp1665
I234378
aF103.851
aF288.471
aVp3
p1666
aS'utopia'
p1667
aS'#656565'
p1668
aF8.88595
aI0
aI00
aI00
aI00
aI00
aI00
aI00
aI00
aI00
aa(lp1669
I234378
aF107.95788666666667
aF288.471
ag1666
aS'utopia'
p1670
aS'#656565'
p1671
aF8.88595
aI0
aI01
aI00
aI00
aI00
aI00
aI00
aI00
aI00
aa(lp1672
I234378
aF167.533
aF288.471
aVp3
p1673
aS'utopia'
p1674
aS'#656565'
p1675
aF8.88595
aI0
aI00
aI00
aI00
aI00
aI00
aI00
aI00
aI00
aa(lp1676
I260
aF174.198
aF288.471
aVp3
p1677
aS'utopia'
p1678
aS'#656565'
p1679
aF8.88595
aI0
aI01
aI00
aI00
aI00
aI00
aI00
aI00
aI00
aa(lp1680
I234378
aF228.254
aF288.471
aVp3
p1681
aS'utopia'
p1682
aS'#656565'
p1683
aF8.88595
aI0
aI00
aI00
aI00
aI00
aI00
aI00
aI00
aI00
aa(lp1684
I234378
aF234.918
aF288.471
aVp3
p1685
aS'utopia'
p1686
aS'#656565'
p1687
aF8.88595
aI0
aI01
aI00
aI00
aI00
aI00
aI00
aI00
aI00
aa(lp1688
I234378
aF280.829
aF288.471
aVp3
p1689
aS'utopia'
p1690
aS'#656565'
p1691
aF8.88595
aI0
aI00
aI00
aI00
aI00
aI00
aI00
aI00
aI00
aa(lp1692
I234378
aF287.494
aF288.471
aVp3
p1693
aS'utopia'
p1694
aS'#656565'
p1695
aF8.88595
aI0
aI01
aI00
aI00
aI00
aI00
aI00
aI00
aI00
aa(lp1696
I234378
aF320.075
aF288.471
aVp3
p1697
aS'utopia'
p1698
aS'#656565'
p1699
aF8.88595
aI0
aI00
aI00
aI00
aI00
aI00
aI00
aI00
aI00
aa(lp1700
I234378
aF326.74
aF288.471
aVp3
p1701
aS'utopia'
p1702
aS'#656565'
p1703
aF8.88595
aI0
aI01
aI01
aI00
aI00
aI00
aI00
aI00
aI00
aa(lp1704
I234378
aF338.493925
aF288.471
ag1701
aS'utopia'
p1705
aS'#656565'
p1706
aF8.88595
aI0
aI00
aI00
aI00
aI00
aI00
aI00
aI00
aI00
aa(lp1707
I234378
aF344.512
aF288.471
aVp3
p1708
aS'utopia'
p1709
aS'#656565'
p1710
aF8.88595
aI0
aI00
aI00
aI00
aI00
aI00
aI00
aI00
aI00
aa(lp1711
I148996
aF348.955
aF288.471
aVp3
p1712
aS'utopia'
p1713
aS'#656565'
p1714
aF8.88595
aI0
aI01
aI00
aI00
aI00
aI00
aI00
aI00
aI00
aa(lp1715
I234378
aF376.353
aF288.471
aVp3
p1716
aS'utopia'
p1717
aS'#656565'
p1718
aF8.88595
aI0
aI00
aI00
aI01
aI01
aI00
aI00
aI00
aI00
aa(lp1719
I234378
aF383.018
aF288.471
aVp3
p1720
aS'utopia'
p1721
aS'#656565'
p1722
aF8.88595
aI0
aI00
aI00
aI00
aI00
aI00
aI00
aI00
aI00
aa(lp1723
I234378
aF388.0642333333333
aF288.471
ag1720
aS'utopia'
p1724
aS'#656565'
p1725
aF8.88595
aI0
aI01
aI01
aI00
aI00
aI00
aI00
aI00
aI00
aa(lp1726
I234378
aF400.049
aF288.471
aVp3
p1727
aS'utopia'
p1728
aS'#656565'
p1729
aF8.88595
aI0
aI01
aI01
aI00
aI00
aI00
aI00
aI00
aI00
aa(lp1730
I234378
aF415.3068071428571
aF288.471
ag1727
aS'utopia'
p1731
aS'#656565'
p1732
aF8.88595
aI0
aI00
aI00
aI00
aI00
aI00
aI00
aI00
aI00
aa(lp1733
I176767
aF420.3927428571428
aF288.471
ag1727
aS'utopia'
p1734
aS'#656565'
p1735
aF8.88595
aI0
aI01
aI01
aI00
aI00
aI00
aI00
aI00
aI00
aa(lp1736
I234378
aF456.1661642857143
aF288.471
ag1727
aS'utopia'
p1737
aS'#656565'
p1738
aF8.88595
aI0
aI00
aI00
aI00
aI00
aI00
aI00
aI00
aI00
aa(lp1739
I234378
aF473.358
aF288.471
aVp3
p1740
aS'utopia'
p1741
aS'#656565'
p1742
aF8.88595
aI0
aI01
aI00
aI00
aI00
aI00
aI00
aI00
aI00
aa(lp1743
I234378
aF518.528
aF288.471
aVp3
p1744
aS'utopia'
p1745
aS'#656565'
p1746
aF8.88595
aI0
aI00
aI00
aI00
aI00
aI00
aI00
aI00
aI00
aa(lp1747
I234378
aF522.971
aF288.471
aVp3
p1748
aS'utopia'
p1749
aS'#656565'
p1750
aF8.88595
aI0
aI01
aI00
aI00
aI00
aI00
aI00
aI00
aI00
aa(lp1751
I234378
aF547.1890571428571
aF288.471
ag1748
aS'utopia'
p1752
aS'#656565'
p1753
aF8.88595
aI0
aI00
aI00
aI00
aI00
aI00
aI00
aI00
aI00
aa(lp1754
I234378
aF40.9084
aF298.838
aVp3
p1755
aS'utopia'
p1756
aS'#656565'
p1757
aF8.88595
aI0
aI01
aI01
aI00
aI00
aI00
aI00
aI00
aI00
aa(lp1758
I234378
aF59.365120000000005
aF298.838
ag1755
aS'utopia'
p1759
aS'#656565'
p1760
aF8.88595
aI0
aI00
aI00
aI00
aI00
aI00
aI00
aI00
aI00
aa(lp1761
I234378
aF66.0853
aF298.838
aVp3
p1762
aS'utopia'
p1763
aS'#656565'
p1764
aF8.88595
aI0
aI01
aI01
aI00
aI00
aI00
aI00
aI00
aI00
aa(lp1765
I234378
aF78.945475
aF298.838
ag1762
aS'utopia'
p1766
aS'#656565'
p1767
aF8.88595
aI0
aI00
aI00
aI00
aI00
aI00
aI00
aI00
aI00
aa(lp1768
I25724
aF85.3382
aF298.838
aVp3
p1769
aS'utopia'
p1770
aS'#656565'
p1771
aF8.88595
aI0
aI01
aI01
aI00
aI00
aI00
aI00
aI00
aI00
aa(lp1772
I234378
aF133.42628
aF298.838
ag1769
aS'utopia'
p1773
aS'#656565'
p1774
aF8.88595
aI0
aI00
aI00
aI00
aI00
aI00
aI00
aI00
aI00
aa(lp1775
I234378
aF140.875
aF298.838
aVp3
p1776
aS'utopia'
p1777
aS'#656565'
p1778
aF8.88595
aI0
aI01
aI01
aI00
aI00
aI00
aI00
aI00
aI00
aa(lp1779
I234378
aF163.47852
aF298.838
ag1776
aS'utopia'
p1780
aS'#656565'
p1781
aF8.88595
aI0
aI00
aI00
aI00
aI00
aI00
aI00
aI00
aI00
aa(lp1782
I234378
aF171.236
aF298.838
aVp3
p1783
aS'utopia'
p1784
aS'#656565'
p1785
aF8.88595
aI0
aI01
aI01
aI00
aI00
aI00
aI00
aI00
aI00
aa(lp1786
I210461
aF40.9084
aF312.907
aVp3
p1787
aS'utopia'
p1788
aS'#656565'
p1789
aF8.88595
aI0
aI01
aI00
aI00
aI00
aI00
aI00
aI00
aI00
aa(lp1790
I340
aF65.3448
aF312.907
aVp3
p1791
aS'utopia'
p1792
aS'#656565'
p1793
aF8.88595
aI0
aI01
aI00
aI00
aI00
aI00
aI00
aI00
aI00
aa(lp1794
I234378
aF79.65472000000001
aF312.907
ag1791
aS'utopia'
p1795
aS'#656565'
p1796
aF8.88595
aI0
aI00
aI00
aI00
aI00
aI00
aI00
aI00
aI00
aa(lp1797
I234378
aF87.5597
aF312.907
aVp3
p1798
aS'utopia'
p1799
aS'#656565'
p1800
aF8.88595
aI0
aI00
aI00
aI01
aI01
aI00
aI00
aI00
aI00
aa(lp1801
I176435
aF40.9084
aF326.977
aVp3
p1802
aS'utopia'
p1803
aS'#656565'
p1804
aF8.88595
aI0
aI01
aI00
aI00
aI00
aI00
aI00
aI00
aI00
aa(lp1805
I234378
aF60.9018
aF326.977
aVp3
p1806
aS'utopia'
p1807
aS'#656565'
p1808
aF8.88595
aI0
aI00
aI00
aI00
aI00
aI00
aI00
aI00
aI00
aa(lp1809
I234378
aF67.5663
aF326.977
aVp3
p1810
aS'utopia'
p1811
aS'#656565'
p1812
aF8.88595
aI0
aI01
aI00
aI00
aI00
aI00
aI00
aI00
aI00
aa(lp1813
I234378
aF74.55463333333333
aF326.977
ag1810
aS'utopia'
p1814
aS'#656565'
p1815
aF8.88595
aI0
aI00
aI00
aI00
aI00
aI00
aI00
aI00
aI00
aa(lp1816
I150037
aF80.1547
aF326.977
aVp3
p1817
aS'utopia'
p1818
aS'#656565'
p1819
aF8.88595
aI0
aI01
aI00
aI00
aI00
aI00
aI00
aI00
aI00
aa(lp1820
I176435
aF40.9084
aF341.046
aVp3
p1821
aS'utopia'
p1822
aS'#656565'
p1823
aF8.88595
aI0
aI01
aI00
aI00
aI00
aI00
aI00
aI00
aI00
aa(lp1824
I66756
aF60.9018
aF341.046
aVp3
p1825
aS'utopia'
p1826
aS'#656565'
p1827
aF8.88595
aI0
aI01
aI00
aI00
aI00
aI00
aI00
aI00
aI00
aa(lp1828
I234378
aF105.12885833333334
aF341.046
ag1825
aS'utopia'
p1829
aS'#656565'
p1830
aF8.88595
aI0
aI00
aI00
aI00
aI00
aI00
aI00
aI00
aI00
aa(lp1831
I169745
aF113.477
aF341.046
aVp3
p1832
aS'utopia'
p1833
aS'#656565'
p1834
aF8.88595
aI0
aI01
aI00
aI00
aI00
aI00
aI00
aI00
aI00
aa(lp1835
I194354
aF134.211
aF341.046
aVp3
p1836
aS'utopia'
p1837
aS'#656565'
p1838
aF8.88595
aI0
aI00
aI00
aI00
aI00
aI00
aI00
aI00
aI00
aa(lp1839
I234378
aF149.021
aF341.046
aVp3
p1840
aS'utopia'
p1841
aS'#656565'
p1842
aF8.88595
aI0
aI01
aI00
aI00
aI00
aI00
aI00
aI00
aI00
aa(lp1843
I129342
aF181.603
aF341.046
aVp3
p1844
aS'utopia'
p1845
aS'#656565'
p1846
aF8.88595
aI0
aI00
aI00
aI00
aI00
aI00
aI00
aI00
aI00
aa(lp1847
I234378
aF214.6166
aF341.046
ag1844
aS'utopia'
p1848
aS'#656565'
p1849
aF8.88595
aI0
aI00
aI00
aI00
aI00
aI00
aI00
aI00
aI00
aa(lp1850
I128677
aF220.849
aF341.046
aVp3
p1851
aS'utopia'
p1852
aS'#656565'
p1853
aF8.88595
aI0
aI00
aI00
aI00
aI00
aI00
aI00
aI00
aI00
aa(lp1854
I234378
aF248.988
aF341.046
aVp3
p1855
aS'utopia'
p1856
aS'#656565'
p1857
aF8.88595
aI0
aI00
aI00
aI00
aI00
aI00
aI00
aI00
aI00
aa(lp1858
I33705
aF283.791
aF341.046
aVp3
p1859
aS'utopia'
p1860
aS'#656565'
p1861
aF8.88595
aI0
aI00
aI00
aI00
aI00
aI00
aI00
aI00
aI00
aa(lp1862
I128113
aF300.082
aF341.046
aVp3
p1863
aS'utopia'
p1864
aS'#656565'
p1865
aF8.88595
aI0
aI00
aI00
aI00
aI00
aI00
aI00
aI00
aI00
aa(lp1866
I157027
aF330.442
aF341.046
aVp3
p1867
aS'utopia'
p1868
aS'#656565'
p1869
aF8.88595
aI0
aI00
aI00
aI00
aI00
aI00
aI00
aI00
aI00
aa(lp1870
I85218
aF359.322
aF341.046
aVp3
p1871
aS'utopia'
p1872
aS'#656565'
p1873
aF8.88595
aI0
aI00
aI00
aI00
aI00
aI00
aI00
aI00
aI00
aa(lp1874
I130570
aF376.353
aF341.046
aVp3
p1875
aS'utopia'
p1876
aS'#656565'
p1877
aF8.88595
aI0
aI00
aI00
aI00
aI00
aI00
aI00
aI00
aI00
aa(lp1878
I162177
aF408.935
aF341.046
aVp3
p1879
aS'utopia'
p1880
aS'#656565'
p1881
aF8.88595
aI0
aI00
aI00
aI00
aI00
aI00
aI00
aI00
aI00
aa(lp1882
I166593
aF429.669
aF341.046
aVp3
p1883
aS'utopia'
p1884
aS'#656565'
p1885
aF8.88595
aI0
aI00
aI00
aI00
aI00
aI00
aI00
aI00
aI00
aa(lp1886
I223466
aF436.333
aF341.046
aVp3
p1887
aS'utopia'
p1888
aS'#656565'
p1889
aF8.88595
aI0
aI00
aI00
aI00
aI00
aI00
aI00
aI00
aI00
aa(lp1890
I234378
aF471.137
aF341.046
aVp3
p1891
aS'utopia'
p1892
aS'#656565'
p1893
aF8.88595
aI0
aI00
aI00
aI00
aI00
aI00
aI00
aI00
aI00
aa(lp1894
I200489
aF475.8564333333333
aF341.046
ag1891
aS'utopia'
p1895
aS'#656565'
p1896
aF8.88595
aI0
aI00
aI00
aI00
aI00
aI00
aI00
aI00
aI00
aa(lp1897
I51082
aF487.427
aF341.046
aVp3
p1898
aS'utopia'
p1899
aS'#656565'
p1900
aF8.88595
aI0
aI00
aI00
aI00
aI00
aI00
aI00
aI00
aI00
aa(lp1901
I228446
aF502.978
aF341.046
aVp3
p1902
aS'utopia'
p1903
aS'#656565'
p1904
aF8.88595
aI0
aI00
aI00
aI00
aI00
aI00
aI00
aI00
aI00
aa(lp1905
I128677
aF525.933
aF341.046
aVp3
p1906
aS'utopia'
p1907
aS'#656565'
p1908
aF8.88595
aI0
aI01
aI00
aI00
aI00
aI00
aI00
aI00
aI00
aa(lp1909
I234378
aF40.9084
aF351.413
aVp3
p1910
aS'utopia'
p1911
aS'#656565'
p1912
aF8.88595
aI0
aI01
aI00
aI00
aI00
aI00
aI00
aI00
aI00
aa(lp1913
I234378
aF77.21835555555555
aF351.413
ag1910
aS'utopia'
p1914
aS'#656565'
p1915
aF8.88595
aI0
aI00
aI00
aI00
aI00
aI00
aI00
aI00
aI00
aa(lp1916
I85218
aF83.8572
aF351.413
aVp3
p1917
aS'utopia'
p1918
aS'#656565'
p1919
aF8.88595
aI0
aI00
aI00
aI00
aI00
aI00
aI00
aI00
aI00
aa(lp1920
I234378
aF96.717375
aF351.413
ag1917
aS'utopia'
p1921
aS'#656565'
p1922
aF8.88595
aI0
aI00
aI00
aI00
aI00
aI00
aI00
aI00
aI00
aa(lp1923
I135639
aF103.11
aF351.413
aVp3
p1924
aS'utopia'
p1925
aS'#656565'
p1926
aF8.88595
aI0
aI00
aI00
aI00
aI00
aI00
aI00
aI00
aI00
aa(lp1927
I194354
aF112.737
aF351.413
aVp3
p1928
aS'utopia'
p1929
aS'#656565'
p1930
aF8.88595
aI0
aI00
aI00
aI00
aI00
aI00
aI00
aI00
aI00
aa(lp1931
I61195
aF127.546
aF351.413
aVp3
p1932
aS'utopia'
p1933
aS'#656565'
p1934
aF8.88595
aI0
aI00
aI00
aI00
aI00
aI00
aI00
aI00
aI00
aa(lp1935
I234378
aF156.1561375
aF351.413
ag1932
aS'utopia'
p1936
aS'#656565'
p1937
aF8.88595
aI0
aI00
aI00
aI00
aI00
aI00
aI00
aI00
aI00
aa(lp1938
I203178
aF162.35
aF351.413
aVp3
p1939
aS'utopia'
p1940
aS'#656565'
p1941
aF8.88595
aI0
aI00
aI00
aI00
aI00
aI00
aI00
aI00
aI00
aa(lp1942
I218852
aF206.779
aF351.413
aVp3
p1943
aS'utopia'
p1944
aS'#656565'
p1945
aF8.88595
aI0
aI00
aI00
aI00
aI00
aI00
aI00
aI00
aI00
aa(lp1946
I176435
aF227.513
aF351.413
aVp3
p1947
aS'utopia'
p1948
aS'#656565'
p1949
aF8.88595
aI0
aI00
aI00
aI00
aI00
aI00
aI00
aI00
aI00
aa(lp1950
I16331
aF245.285
aF351.413
aVp3
p1951
aS'utopia'
p1952
aS'#656565'
p1953
aF8.88595
aI0
aI00
aI00
aI00
aI00
aI00
aI00
aI00
aI00
aa(lp1954
I194354
aF255.652
aF351.413
aVp3
p1955
aS'utopia'
p1956
aS'#656565'
p1957
aF8.88595
aI0
aI00
aI00
aI00
aI00
aI00
aI00
aI00
aI00
aa(lp1958
I138208
aF270.462
aF351.413
aVp3
p1959
aS'utopia'
p1960
aS'#656565'
p1961
aF8.88595
aI0
aI00
aI00
aI00
aI00
aI00
aI00
aI00
aI00
aa(lp1962
I89480
aF280.01504
aF351.413
ag1959
aS'utopia'
p1963
aS'#656565'
p1964
aF8.88595
aI0
aI00
aI00
aI00
aI00
aI00
aI00
aI00
aI00
aa(lp1965
I184015
aF294.158
aF351.413
aVp3
p1966
aS'utopia'
p1967
aS'#656565'
p1968
aF8.88595
aI0
aI00
aI00
aI00
aI00
aI00
aI00
aI00
aI00
aa(lp1969
I190806
aF331.183
aF351.413
aVp3
p1970
aS'utopia'
p1971
aS'#656565'
p1972
aF8.88595
aI0
aI00
aI00
aI00
aI00
aI00
aI00
aI00
aI00
aa(lp1973
I41890
aF345.252
aF351.413
aVp3
p1974
aS'utopia'
p1975
aS'#656565'
p1976
aF8.88595
aI0
aI00
aI00
aI00
aI00
aI00
aI00
aI00
aI00
aa(lp1977
I128677
aF356.36
aF351.413
aVp3
p1978
aS'utopia'
p1979
aS'#656565'
p1980
aF8.88595
aI0
aI00
aI00
aI00
aI00
aI00
aI00
aI00
aI00
aa(lp1981
I218768
aF381.8331857142857
aF351.413
ag1978
aS'utopia'
p1982
aS'#656565'
p1983
aF8.88595
aI0
aI00
aI00
aI00
aI00
aI00
aI00
aI00
aI00
aa(lp1984
I234378
aF415.599
aF351.413
aVp3
p1985
aS'utopia'
p1986
aS'#656565'
p1987
aF8.88595
aI0
aI00
aI00
aI00
aI00
aI00
aI00
aI00
aI00
aa(lp1988
I234378
aF450.35817
aF351.413
ag1985
aS'utopia'
p1989
aS'#656565'
p1990
aF8.88595
aI0
aI00
aI00
aI00
aI00
aI00
aI00
aI00
aI00
aa(lp1991
I194354
aF456.327
aF351.413
aVp3
p1992
aS'utopia'
p1993
aS'#656565'
p1994
aF8.88595
aI0
aI01
aI00
aI00
aI00
aI00
aI00
aI00
aI00
aa(lp1995
I128677
aF473.358
aF351.413
aVp3
p1996
aS'utopia'
p1997
aS'#656565'
p1998
aF8.88595
aI0
aI01
aI00
aI00
aI00
aI00
aI00
aI00
aI00
aa(lp1999
I223466
aF502.978
aF351.413
aVp3
p2000
aS'utopia'
p2001
aS'#656565'
p2002
aF8.88595
aI0
aI01
aI00
aI00
aI00
aI00
aI00
aI00
aI00
aa(lp2003
I92229
aF40.9084
aF361.78
aVp3
p2004
aS'utopia'
p2005
aS'#656565'
p2006
aF8.88595
aI0
aI00
aI00
aI00
aI00
aI00
aI00
aI00
aI00
aa(lp2007
I234378
aF75.7117
aF361.78
aVp3
p2008
aS'utopia'
p2009
aS'#656565'
p2010
aF8.88595
aI0
aI00
aI00
aI00
aI00
aI00
aI00
aI00
aI00
aa(lp2011
I177958
aF40.9084
aF375.85
aVp3
p2012
aS'utopia'
p2013
aS'#656565'
p2014
aF8.88595
aI0
aI01
aI00
aI00
aI00
aI00
aI00
aI00
aI00
aa(lp2015
I234378
aF71.2688
aF375.85
aVp3
p2016
aS'utopia'
p2017
aS'#656565'
p2018
aF8.88595
aI0
aI01
aI00
aI00
aI00
aI00
aI00
aI00
aI00
aa(lp2019
I234378
aF96.6393375
aF375.85
ag2016
aS'utopia'
p2020
aS'#656565'
p2021
aF8.88595
aI0
aI00
aI00
aI00
aI00
aI00
aI00
aI00
aI00
aa(lp2022
I90127
aF104.591
aF375.85
aVp3
p2023
aS'utopia'
p2024
aS'#656565'
p2025
aF8.88595
aI0
aI01
aI00
aI00
aI00
aI00
aI00
aI00
aI00
aa(lp2026
I190806
aF154.204
aF375.85
aVp3
p2027
aS'utopia'
p2028
aS'#656565'
p2029
aF8.88595
aI0
aI00
aI00
aI00
aI00
aI00
aI00
aI00
aI00
aa(lp2030
I202216
aF168.274
aF375.85
aVp3
p2031
aS'utopia'
p2032
aS'#656565'
p2033
aF8.88595
aI0
aI00
aI00
aI00
aI00
aI00
aI00
aI00
aI00
aa(lp2034
I166558
aF220.108
aF375.85
aVp3
p2035
aS'utopia'
p2036
aS'#656565'
p2037
aF8.88595
aI0
aI00
aI00
aI00
aI00
aI00
aI00
aI00
aI00
aa(lp2038
I234378
aF249.17226666666667
aF375.85
ag2035
aS'utopia'
p2039
aS'#656565'
p2040
aF8.88595
aI0
aI00
aI00
aI00
aI00
aI00
aI00
aI00
aI00
aa(lp2041
I234378
aF254.912
aF375.85
aVp3
p2042
aS'utopia'
p2043
aS'#656565'
p2044
aF8.88595
aI0
aI00
aI00
aI00
aI00
aI00
aI00
aI00
aI00
aa(lp2045
I169745
aF299.341
aF375.85
aVp3
p2046
aS'utopia'
p2047
aS'#656565'
p2048
aF8.88595
aI0
aI00
aI00
aI00
aI00
aI00
aI00
aI00
aI00
aa(lp2049
I25931
aF318.594
aF375.85
aVp3
p2050
aS'utopia'
p2051
aS'#656565'
p2052
aF8.88595
aI0
aI00
aI00
aI00
aI00
aI00
aI00
aI00
aI00
aa(lp2053
I78776
aF343.06905454545455
aF375.85
ag2050
aS'utopia'
p2054
aS'#656565'
p2055
aF8.88595
aI0
aI00
aI00
aI00
aI00
aI00
aI00
aI00
aI00
aa(lp2056
I85218
aF363.765
aF375.85
aVp3
p2057
aS'utopia'
p2058
aS'#656565'
p2059
aF8.88595
aI0
aI00
aI00
aI00
aI00
aI00
aI00
aI00
aI00
aa(lp2060
I79436
aF380.796
aF375.85
aVp3
p2061
aS'utopia'
p2062
aS'#656565'
p2063
aF8.88595
aI0
aI00
aI00
aI00
aI00
aI00
aI00
aI00
aI00
aa(lp2064
I234378
aF400.789
aF375.85
aVp3
p2065
aS'utopia'
p2066
aS'#656565'
p2067
aF8.88595
aI0
aI00
aI00
aI00
aI00
aI00
aI00
aI00
aI00
aa(lp2068
I22476
aF455.586
aF375.85
aVp3
p2069
aS'utopia'
p2070
aS'#656565'
p2071
aF8.88595
aI0
aI00
aI00
aI00
aI00
aI00
aI00
aI00
aI00
aa(lp2072
I234378
aF460.5996533333333
aF375.85
ag2069
aS'utopia'
p2073
aS'#656565'
p2074
aF8.88595
aI0
aI00
aI00
aI00
aI00
aI00
aI00
aI00
aI00
aa(lp2075
I68032
aF465.213
aF375.85
aVp3
p2076
aS'utopia'
p2077
aS'#656565'
p2078
aF8.88595
aI0
aI01
aI00
aI00
aI00
aI00
aI00
aI00
aI00
aa(lp2079
I144489
aF520.75
aF375.85
aVp3
p2080
aS'utopia'
p2081
aS'#656565'
p2082
aF8.88595
aI0
aI00
aI00
aI00
aI00
aI00
aI00
aI00
aI00
aa(lp2083
I25691
aF531.117
aF375.85
aVp3
p2084
aS'utopia'
p2085
aS'#656565'
p2086
aF8.88595
aI0
aI01
aI00
aI00
aI00
aI00
aI00
aI00
aI00
aa(lp2087
I89480
aF40.9084
aF386.216
aVp3
p2088
aS'utopia'
p2089
aS'#656565'
p2090
aF8.88595
aI0
aI00
aI00
aI00
aI00
aI00
aI00
aI00
aI00
aa(lp2091
I25691
aF51.2754
aF386.216
aVp3
p2092
aS'utopia'
p2093
aS'#656565'
p2094
aF8.88595
aI0
aI01
aI00
aI00
aI00
aI00
aI00
aI00
aI00
aa(lp2095
I202216
aF69.0473
aF386.216
aVp3
p2096
aS'utopia'
p2097
aS'#656565'
p2098
aF8.88595
aI0
aI00
aI00
aI00
aI00
aI00
aI00
aI00
aI00
aa(lp2099
I234378
aF116.66831666666667
aF386.216
ag2096
aS'utopia'
p2100
aS'#656565'
p2101
aF8.88595
aI0
aI00
aI00
aI00
aI00
aI00
aI00
aI00
aI00
aa(lp2102
I23621
aF123.103
aF386.216
aVp3
p2103
aS'utopia'
p2104
aS'#656565'
p2105
aF8.88595
aI0
aI01
aI00
aI00
aI00
aI00
aI00
aI00
aI00
aa(lp2106
I131049
aF155.685
aF386.216
aVp3
p2107
aS'utopia'
p2108
aS'#656565'
p2109
aF8.88595
aI0
aI00
aI00
aI00
aI00
aI00
aI00
aI00
aI00
aa(lp2110
I186242
aF177.9
aF386.216
aVp3
p2111
aS'utopia'
p2112
aS'#656565'
p2113
aF8.88595
aI0
aI01
aI00
aI00
aI00
aI00
aI00
aI00
aI00
aa(lp2114
I25691
aF202.337
aF386.216
aVp3
p2115
aS'utopia'
p2116
aS'#656565'
p2117
aF8.88595
aI0
aI01
aI00
aI00
aI00
aI00
aI00
aI00
aI00
aa(lp2118
I234378
aF215.75254999999999
aF386.216
ag2115
aS'utopia'
p2119
aS'#656565'
p2120
aF8.88595
aI0
aI00
aI00
aI00
aI00
aI00
aI00
aI00
aI00
aa(lp2121
I166245
aF222.33
aF386.216
aVp3
p2122
aS'utopia'
p2123
aS'#656565'
p2124
aF8.88595
aI0
aI01
aI00
aI00
aI00
aI00
aI00
aI00
aI00
aa(lp2125
I205190
aF258.614
aF386.216
aVp3
p2126
aS'utopia'
p2127
aS'#656565'
p2128
aF8.88595
aI0
aI01
aI00
aI00
aI00
aI00
aI00
aI00
aI00
aa(lp2129
I89480
aF282.31
aF386.216
aVp3
p2130
aS'utopia'
p2131
aS'#656565'
p2132
aF8.88595
aI0
aI00
aI00
aI00
aI00
aI00
aI00
aI00
aI00
aa(lp2133
I234378
aF292.677
aF386.216
aVp3
p2134
aS'utopia'
p2135
aS'#656565'
p2136
aF8.88595
aI0
aI01
aI00
aI00
aI00
aI00
aI00
aI00
aI00
aa(lp2137
I234378
aF331.183
aF386.216
aVp3
p2138
aS'utopia'
p2139
aS'#656565'
p2140
aF8.88595
aI0
aI01
aI00
aI00
aI00
aI00
aI00
aI00
aI00
aa(lp2141
I234378
aF362.3848875
aF386.216
ag2138
aS'utopia'
p2142
aS'#656565'
p2143
aF8.88595
aI0
aI00
aI00
aI00
aI00
aI00
aI00
aI00
aI00
aa(lp2144
I112275
aF368.948
aF386.216
aVp3
p2145
aS'utopia'
p2146
aS'#656565'
p2147
aF8.88595
aI0
aI01
aI00
aI00
aI00
aI00
aI00
aI00
aI00
aa(lp2148
I125078
aF388.201
aF386.216
aVp3
p2149
aS'utopia'
p2150
aS'#656565'
p2151
aF8.88595
aI0
aI00
aI00
aI00
aI00
aI00
aI00
aI00
aI00
aa(lp2152
I144489
aF416.34
aF386.216
aVp3
p2153
aS'utopia'
p2154
aS'#656565'
p2155
aF8.88595
aI0
aI00
aI00
aI00
aI00
aI00
aI00
aI00
aI00
aa(lp2156
I194354
aF426.707
aF386.216
aVp3
p2157
aS'utopia'
p2158
aS'#656565'
p2159
aF8.88595
aI0
aI00
aI00
aI00
aI00
aI00
aI00
aI00
aI00
aa(lp2160
I202216
aF441.517
aF386.216
aVp3
p2161
aS'utopia'
p2162
aS'#656565'
p2163
aF8.88595
aI0
aI00
aI00
aI00
aI00
aI00
aI00
aI00
aI00
aa(lp2164
I234378
aF493.351
aF386.216
aVp3
p2165
aS'utopia'
p2166
aS'#656565'
p2167
aF8.88595
aI0
aI00
aI00
aI00
aI00
aI00
aI00
aI00
aI00
aa(lp2168
I234378
aF516.307
aF386.216
aVp3
p2169
aS'utopia'
p2170
aS'#656565'
p2171
aF8.88595
aI0
aI01
aI00
aI00
aI00
aI00
aI00
aI00
aI00
aa(lp2172
I234378
aF40.9084
aF396.583
aVp3
p2173
aS'utopia'
p2174
aS'#656565'
p2175
aF8.88595
aI0
aI01
aI00
aI00
aI00
aI00
aI00
aI00
aI00
aa(lp2176
I234378
aF97.1861
aF396.583
aVp3
p2177
aS'utopia'
p2178
aS'#656565'
p2179
aF8.88595
aI0
aI00
aI00
aI00
aI00
aI00
aI00
aI00
aI00
aa(lp2180
I144489
aF119.401
aF396.583
aVp3
p2181
aS'utopia'
p2182
aS'#656565'
p2183
aF8.88595
aI0
aI00
aI00
aI00
aI00
aI00
aI00
aI00
aI00
aa(lp2184
I221291
aF129.768
aF396.583
aVp3
p2185
aS'utopia'
p2186
aS'#656565'
p2187
aF8.88595
aI0
aI00
aI00
aI00
aI00
aI00
aI00
aI00
aI00
aa(lp2188
I234378
aF151.242
aF396.583
aVp3
p2189
aS'utopia'
p2190
aS'#656565'
p2191
aF8.88595
aI0
aI00
aI00
aI00
aI00
aI00
aI00
aI00
aI00
aa(lp2192
I234378
aF174.198
aF396.583
aVp3
p2193
aS'utopia'
p2194
aS'#656565'
p2195
aF8.88595
aI0
aI01
aI00
aI00
aI00
aI00
aI00
aI00
aI00
aa(lp2196
I234378
aF215.3669090909091
aF396.583
ag2193
aS'utopia'
p2197
aS'#656565'
p2198
aF8.88595
aI0
aI00
aI00
aI00
aI00
aI00
aI00
aI00
aI00
aa(lp2199
I234378
aF221.589
aF396.583
aVp3
p2200
aS'utopia'
p2201
aS'#656565'
p2202
aF8.88595
aI0
aI01
aI00
aI00
aI00
aI00
aI00
aI00
aI00
aa(lp2203
I85218
aF260.836
aF396.583
aVp3
p2204
aS'utopia'
p2205
aS'#656565'
p2206
aF8.88595
aI0
aI00
aI00
aI00
aI00
aI00
aI00
aI00
aI00
aa(lp2207
I234378
aF277.867
aF396.583
aVp3
p2208
aS'utopia'
p2209
aS'#656565'
p2210
aF8.88595
aI0
aI01
aI01
aI00
aI00
aI00
aI00
aI00
aI00
aa(lp2211
I231432
aF300.082
aF396.583
aVp3
p2212
aS'utopia'
p2213
aS'#656565'
p2214
aF8.88595
aI0
aI01
aI00
aI00
aI00
aI00
aI00
aI00
aI00
aa(lp2215
I166558
aF334.145
aF396.583
aVp3
p2216
aS'utopia'
p2217
aS'#656565'
p2218
aF8.88595
aI0
aI01
aI00
aI00
aI00
aI00
aI00
aI00
aI00
aa(lp2219
I85218
aF368.208
aF396.583
aVp3
p2220
aS'utopia'
p2221
aS'#656565'
p2222
aF8.88595
aI0
aI00
aI00
aI00
aI00
aI00
aI00
aI00
aI00
aa(lp2223
I31703
aF385.239
aF396.583
aVp3
p2224
aS'utopia'
p2225
aS'#656565'
p2226
aF8.88595
aI0
aI01
aI00
aI00
aI00
aI00
aI00
aI00
aI00
aa(lp2227
I234378
aF411.156
aF396.583
aVp3
p2228
aS'utopia'
p2229
aS'#656565'
p2230
aF8.88595
aI0
aI01
aI00
aI00
aI00
aI00
aI00
aI00
aI00
aa(lp2231
I234378
aF435.593
aF396.583
aVp3
p2232
aS'utopia'
p2233
aS'#656565'
p2234
aF8.88595
aI0
aI01
aI01
aI00
aI00
aI00
aI00
aI00
aI00
aa(lp2235
I168459
aF450.403
aF396.583
aVp3
p2236
aS'utopia'
p2237
aS'#656565'
p2238
aF8.88595
aI0
aI01
aI00
aI00
aI00
aI00
aI00
aI00
aI00
aa(lp2239
I206620
aF479.282
aF396.583
aVp3
p2240
aS'utopia'
p2241
aS'#656565'
p2242
aF8.88595
aI0
aI01
aI00
aI00
aI00
aI00
aI00
aI00
aI00
aa(lp2243
I234378
aF495.96152
aF396.583
ag2240
aS'utopia'
p2244
aS'#656565'
p2245
aF8.88595
aI0
aI00
aI00
aI00
aI00
aI00
aI00
aI00
aI00
aa(lp2246
I184331
aF502.237
aF396.583
aVp3
p2247
aS'utopia'
p2248
aS'#656565'
p2249
aF8.88595
aI0
aI01
aI00
aI00
aI00
aI00
aI00
aI00
aI00
aa(lp2250
I21716
aF531.857
aF396.583
aVp3
p2251
aS'utopia'
p2252
aS'#656565'
p2253
aF8.88595
aI0
aI01
aI00
aI00
aI00
aI00
aI00
aI00
aI00
aa(lp2254
I234378
aF40.9084
aF406.95
aVp3
p2255
aS'utopia'
p2256
aS'#656565'
p2257
aF8.88595
aI0
aI00
aI00
aI00
aI00
aI00
aI00
aI00
aI00
aa(lp2258
I221291
aF90.5217
aF406.95
aVp3
p2259
aS'utopia'
p2260
aS'#656565'
p2261
aF8.88595
aI0
aI01
aI00
aI00
aI00
aI00
aI00
aI00
aI00
aa(lp2262
I56042
aF113.477
aF406.95
aVp3
p2263
aS'utopia'
p2264
aS'#656565'
p2265
aF8.88595
aI0
aI00
aI00
aI00
aI00
aI00
aI00
aI00
aI00
aa(lp2266
I190806
aF141.616
aF406.95
aVp3
p2267
aS'utopia'
p2268
aS'#656565'
p2269
aF8.88595
aI0
aI00
aI00
aI00
aI00
aI00
aI00
aI00
aI00
aa(lp2270
I194354
aF155.685
aF406.95
aVp3
p2271
aS'utopia'
p2272
aS'#656565'
p2273
aF8.88595
aI0
aI00
aI00
aI00
aI00
aI00
aI00
aI00
aI00
aa(lp2274
I101433
aF170.495
aF406.95
aVp3
p2275
aS'utopia'
p2276
aS'#656565'
p2277
aF8.88595
aI0
aI01
aI00
aI00
aI00
aI00
aI00
aI00
aI00
aa(lp2278
I210461
aF197.153
aF406.95
aVp3
p2279
aS'utopia'
p2280
aS'#656565'
p2281
aF8.88595
aI0
aI01
aI00
aI00
aI00
aI00
aI00
aI00
aI00
aa(lp2282
I234378
aF221.589
aF406.95
aVp3
p2283
aS'utopia'
p2284
aS'#656565'
p2285
aF8.88595
aI0
aI01
aI00
aI00
aI00
aI00
aI00
aI00
aI00
aa(lp2286
I234378
aF256.6785125
aF406.95
ag2283
aS'utopia'
p2287
aS'#656565'
p2288
aF8.88595
aI0
aI00
aI00
aI00
aI00
aI00
aI00
aI00
aI00
aa(lp2289
I234378
aF263.798
aF406.95
aVp3
p2290
aS'utopia'
p2291
aS'#656565'
p2292
aF8.88595
aI0
aI01
aI00
aI00
aI00
aI00
aI00
aI00
aI00
aa(lp2293
I185304
aF303.044
aF406.95
aVp3
p2294
aS'utopia'
p2295
aS'#656565'
p2296
aF8.88595
aI0
aI00
aI00
aI00
aI00
aI00
aI00
aI00
aI00
aa(lp2297
I89480
aF320.816
aF406.95
aVp3
p2298
aS'utopia'
p2299
aS'#656565'
p2300
aF8.88595
aI0
aI00
aI00
aI00
aI00
aI00
aI00
aI00
aI00
aa(lp2301
I210461
aF331.183
aF406.95
aVp3
p2302
aS'utopia'
p2303
aS'#656565'
p2304
aF8.88595
aI0
aI01
aI00
aI00
aI00
aI00
aI00
aI00
aI00
aa(lp2305
I234378
aF355.619
aF406.95
aVp3
p2306
aS'utopia'
p2307
aS'#656565'
p2308
aF8.88595
aI0
aI01
aI00
aI00
aI00
aI00
aI00
aI00
aI00
aa(lp2309
I85218
aF395.606
aF406.95
aVp3
p2310
aS'utopia'
p2311
aS'#656565'
p2312
aF8.88595
aI0
aI00
aI00
aI00
aI00
aI00
aI00
aI00
aI00
aa(lp2313
I234378
aF412.637
aF406.95
aVp3
p2314
aS'utopia'
p2315
aS'#656565'
p2316
aF8.88595
aI0
aI00
aI00
aI00
aI00
aI00
aI00
aI00
aI00
aa(lp2317
I228446
aF453.365
aF406.95
aVp3
p2318
aS'utopia'
p2319
aS'#656565'
p2320
aF8.88595
aI0
aI00
aI00
aI00
aI00
aI00
aI00
aI00
aI00
aa(lp2321
I234378
aF471.82172
aF406.95
ag2318
aS'utopia'
p2322
aS'#656565'
p2323
aF8.88595
aI0
aI00
aI00
aI00
aI00
aI00
aI00
aI00
aI00
aa(lp2324
I105322
aF478.541
aF406.95
aVp3
p2325
aS'utopia'
p2326
aS'#656565'
p2327
aF8.88595
aI0
aI01
aI00
aI00
aI00
aI00
aI00
aI00
aI00
aa(lp2328
I135639
aF514.826
aF406.95
aVp3
p2329
aS'utopia'
p2330
aS'#656565'
p2331
aF8.88595
aI0
aI00
aI00
aI00
aI00
aI00
aI00
aI00
aI00
aa(lp2332
I142554
aF40.9084
aF417.317
aVp3
p2333
aS'utopia'
p2334
aS'#656565'
p2335
aF8.88595
aI0
aI00
aI00
aI00
aI00
aI00
aI00
aI00
aI00
aa(lp2336
I85218
aF90.5217
aF417.317
aVp3
p2337
aS'utopia'
p2338
aS'#656565'
p2339
aF8.88595
aI0
aI00
aI00
aI00
aI00
aI00
aI00
aI00
aI00
aa(lp2340
I141687
aF107.553
aF417.317
aVp3
p2341
aS'utopia'
p2342
aS'#656565'
p2343
aF8.88595
aI0
aI00
aI00
aI00
aI00
aI00
aI00
aI00
aI00
aa(lp2344
I125078
aF152.723
aF417.317
aVp3
p2345
aS'utopia'
p2346
aS'#656565'
p2347
aF8.88595
aI0
aI00
aI00
aI00
aI00
aI00
aI00
aI00
aI00
aa(lp2348
I144489
aF180.862
aF417.317
aVp3
p2349
aS'utopia'
p2350
aS'#656565'
p2351
aF8.88595
aI0
aI00
aI00
aI00
aI00
aI00
aI00
aI00
aI00
aa(lp2352
I194354
aF191.229
aF417.317
aVp3
p2353
aS'utopia'
p2354
aS'#656565'
p2355
aF8.88595
aI0
aI00
aI00
aI00
aI00
aI00
aI00
aI00
aI00
aa(lp2356
I70370
aF206.039
aF417.317
aVp3
p2357
aS'utopia'
p2358
aS'#656565'
p2359
aF8.88595
aI0
aI00
aI00
aI00
aI00
aI00
aI00
aI00
aI00
aa(lp2360
I123665
aF234.918
aF417.317
aVp3
p2361
aS'utopia'
p2362
aS'#656565'
p2363
aF8.88595
aI0
aI00
aI00
aI00
aI00
aI00
aI00
aI00
aI00
aa(lp2364
I135639
aF280.829
aF417.317
aVp3
p2365
aS'utopia'
p2366
aS'#656565'
p2367
aF8.88595
aI0
aI00
aI00
aI00
aI00
aI00
aI00
aI00
aI00
aa(lp2368
I234378
aF290.456
aF417.317
aVp3
p2369
aS'utopia'
p2370
aS'#656565'
p2371
aF8.88595
aI0
aI01
aI00
aI00
aI00
aI00
aI00
aI00
aI00
aa(lp2372
I96642
aF328.961
aF417.317
aVp3
p2373
aS'utopia'
p2374
aS'#656565'
p2375
aF8.88595
aI0
aI00
aI00
aI00
aI00
aI00
aI00
aI00
aI00
aa(lp2376
I181870
aF355.619
aF417.317
aVp3
p2377
aS'utopia'
p2378
aS'#656565'
p2379
aF8.88595
aI0
aI00
aI00
aI00
aI00
aI00
aI00
aI00
aI00
aa(lp2380
I234378
aF379.6936625
aF417.317
ag2377
aS'utopia'
p2381
aS'#656565'
p2382
aF8.88595
aI0
aI00
aI00
aI00
aI00
aI00
aI00
aI00
aI00
aa(lp2383
I110106
aF385.239
aF417.317
aVp3
p2384
aS'utopia'
p2385
aS'#656565'
p2386
aF8.88595
aI0
aI01
aI00
aI00
aI00
aI00
aI00
aI00
aI00
aa(lp2387
I144489
aF419.302
aF417.317
aVp3
p2388
aS'utopia'
p2389
aS'#656565'
p2390
aF8.88595
aI0
aI00
aI00
aI00
aI00
aI00
aI00
aI00
aI00
aa(lp2391
I194354
aF429.669
aF417.317
aVp3
p2392
aS'utopia'
p2393
aS'#656565'
p2394
aF8.88595
aI0
aI00
aI00
aI00
aI00
aI00
aI00
aI00
aI00
aa(lp2395
I234378
aF444.479
aF417.317
aVp3
p2396
aS'utopia'
p2397
aS'#656565'
p2398
aF8.88595
aI0
aI00
aI00
aI00
aI00
aI00
aI00
aI00
aI00
aa(lp2399
I147288
aF465.213
aF417.317
aVp3
p2400
aS'utopia'
p2401
aS'#656565'
p2402
aF8.88595
aI0
aI00
aI00
aI00
aI00
aI00
aI00
aI00
aI00
aa(lp2403
I135639
aF491.13
aF417.317
aVp3
p2404
aS'utopia'
p2405
aS'#656565'
p2406
aF8.88595
aI0
aI00
aI00
aI00
aI00
aI00
aI00
aI00
aI00
aa(lp2407
I234378
aF500.756
aF417.317
aVp3
p2408
aS'utopia'
p2409
aS'#656565'
p2410
aF8.88595
aI0
aI01
aI01
aI00
aI00
aI00
aI00
aI00
aI00
aa(lp2411
I234378
aF511.7133666666666
aF417.317
ag2408
aS'utopia'
p2412
aS'#656565'
p2413
aF8.88595
aI0
aI00
aI00
aI00
aI00
aI00
aI00
aI00
aI00
aa(lp2414
I234378
aF517.19205
aF417.317
ag2408
aS'utopia'
p2415
aS'#656565'
p2416
aF8.88595
aI0
aI01
aI01
aI00
aI00
aI00
aI00
aI00
aI00
aa(lp2417
I233284
aF40.9084
aF427.684
aVp3
p2418
aS'utopia'
p2419
aS'#656565'
p2420
aF8.88595
aI0
aI01
aI00
aI00
aI00
aI00
aI00
aI00
aI00
aa(lp2421
I234378
aF40.9084
aF464.602
aVp3
p2422
aS'utopia'
p2423
aS'#000000'
p2424
aF10.3669
aI1
aI01
aI01
aI00
aI00
aI00
aI00
aI00
aI00
aa(lp2425
I8059
aF89.7812
aF464.602
aVp3
p2426
aS'utopia'
p2427
aS'#000000'
p2428
aF10.3669
aI1
aI01
aI01
aI00
aI00
aI00
aI00
aI00
aI00
aa(lp2429
I144489
aF146.059
aF464.602
aVp3
p2430
aS'utopia'
p2431
aS'#000000'
p2432
aF10.3669
aI1
aI01
aI01
aI00
aI00
aI00
aI00
aI00
aI00
aa(lp2433
I25931
aF162.35
aF464.602
aVp3
p2434
aS'utopia'
p2435
aS'#000000'
p2436
aF10.3669
aI1
aI01
aI01
aI00
aI00
aI00
aI00
aI00
aI00
aa(lp2437
I206869
aF40.9084
aF481.163
aVp3
p2438
aS'utopia'
p2439
aS'#656565'
p2440
aF10.3669
aI0
aI01
aI01
aI00
aI00
aI00
aI00
aI00
aI00
aa(lp2441
I177958
aF94.9646
aF481.163
aVp3
p2442
aS'utopia'
p2443
aS'#656565'
p2444
aF10.3669
aI0
aI01
aI01
aI00
aI00
aI00
aI00
aI00
aI00
aa(lp2445
I234378
aF146.059
aF481.163
aVp3
p2446
aS'utopia'
p2447
aS'#656565'
p2448
aF10.3669
aI0
aI01
aI00
aI00
aI00
aI00
aI00
aI00
aI00
aa(lp2449
I60201
aF183.084
aF481.163
aVp3
p2450
aS'utopia'
p2451
aS'#656565'
p2452
aF10.3669
aI0
aI01
aI00
aI00
aI00
aI00
aI00
aI00
aI00
aa(lp2453
I230071
aF203.077
aF481.163
aVp3
p2454
aS'utopia'
p2455
aS'#656565'
p2456
aF10.3669
aI0
aI01
aI00
aI00
aI00
aI00
aI00
aI00
aI00
aa(lp2457
I131049
aF234.178
aF481.163
aVp3
p2458
aS'utopia'
p2459
aS'#656565'
p2460
aF10.3669
aI0
aI00
aI00
aI00
aI00
aI00
aI00
aI00
aI00
aa(lp2461
I37515
aF258.614
aF481.163
aVp3
p2462
aS'utopia'
p2463
aS'#656565'
p2464
aF10.3669
aI0
aI01
aI00
aI00
aI00
aI00
aI00
aI00
aI01
aa(lp2465
I234378
aF280.829
aF481.163
aVp3
p2466
aS'utopia'
p2467
aS'#656565'
p2468
aF10.3669
aI0
aI00
aI00
aI01
aI01
aI01
aI00
aI00
aI00
aa(lp2469
I89480
aF303.784
aF481.163
aVp3
p2470
aS'utopia'
p2471
aS'#656565'
p2472
aF10.3669
aI0
aI00
aI00
aI00
aI00
aI00
aI00
aI00
aI00
aa(lp2473
I27216
aF315.632
aF481.163
aVp3
p2474
aS'utopia'
p2475
aS'#656565'
p2476
aF10.3669
aI0
aI01
aI00
aI00
aI00
aI00
aI00
aI00
aI01
aa(lp2477
I234378
aF334.145
aF481.163
aVp3
p2478
aS'utopia'
p2479
aS'#656565'
p2480
aF10.3669
aI0
aI00
aI00
aI01
aI01
aI01
aI00
aI00
aI00
aa(lp2481
I212882
aF40.9084
aF497.454
aVp3
p2482
aS'utopia'
p2483
aS'#656565'
p2484
aF10.3669
aI0
aI01
aI01
aI00
aI00
aI00
aI00
aI00
aI00
aa(lp2485
I234378
aF87.5597
aF497.454
aVp3
p2486
aS'utopia'
p2487
aS'#656565'
p2488
aF10.3669
aI0
aI01
aI01
aI00
aI00
aI00
aI00
aI00
aI00
aa(lp2489
I234378
aF142.7708
aF497.454
ag2486
aS'utopia'
p2490
aS'#656565'
p2491
aF10.3669
aI0
aI00
aI00
aI00
aI00
aI00
aI00
aI00
aI00
aa(lp2492
I234378
aF148.90536666666668
aF497.454
ag2486
aS'utopia'
p2493
aS'#656565'
p2494
aF10.3669
aI0
aI01
aI00
aI00
aI00
aI00
aI00
aI00
aI00
aa(lp2495
I109610
aF40.9084
aF513.582
aVp3
p2496
aS'utopia'
p2497
aS'#656565'
p2498
aF8.88595
aI0
aI01
aI00
aI00
aI00
aI00
aI00
aI00
aI00
aa(lp2499
I25729
aF58.6803
aF513.582
aVp3
p2500
aS'utopia'
p2501
aS'#656565'
p2502
aF8.88595
aI0
aI01
aI00
aI00
aI00
aI00
aI00
aI00
aI00
aa(lp2503
I234378
aF76.54462000000001
aF513.582
ag2500
aS'utopia'
p2504
aS'#656565'
p2505
aF8.88595
aI0
aI00
aI00
aI00
aI00
aI00
aI00
aI00
aI00
aa(lp2506
I21716
aF85.3382
aF513.582
aVp3
p2507
aS'utopia'
p2508
aS'#656565'
p2509
aF8.88595
aI0
aI01
aI00
aI00
aI00
aI00
aI00
aI00
aI00
aa(lp2510
I234378
aF103.851
aF513.582
aVp3
p2511
aS'utopia'
p2512
aS'#656565'
p2513
aF8.88595
aI0
aI00
aI00
aI00
aI00
aI00
aI00
aI00
aI00
aa(lp2514
I234378
aF107.95788666666667
aF513.582
ag2511
aS'utopia'
p2515
aS'#656565'
p2516
aF8.88595
aI0
aI01
aI00
aI00
aI00
aI00
aI00
aI00
aI00
aa(lp2517
I234378
aF167.533
aF513.582
aVp3
p2518
aS'utopia'
p2519
aS'#656565'
p2520
aF8.88595
aI0
aI00
aI00
aI00
aI00
aI00
aI00
aI00
aI00
aa(lp2521
I260
aF174.198
aF513.582
aVp3
p2522
aS'utopia'
p2523
aS'#656565'
p2524
aF8.88595
aI0
aI01
aI00
aI00
aI00
aI00
aI00
aI00
aI00
aa(lp2525
I234378
aF228.254
aF513.582
aVp3
p2526
aS'utopia'
p2527
aS'#656565'
p2528
aF8.88595
aI0
aI00
aI00
aI00
aI00
aI00
aI00
aI00
aI00
aa(lp2529
I234378
aF234.918
aF513.582
aVp3
p2530
aS'utopia'
p2531
aS'#656565'
p2532
aF8.88595
aI0
aI01
aI00
aI00
aI00
aI00
aI00
aI00
aI00
aa(lp2533
I234378
aF280.829
aF513.582
aVp3
p2534
aS'utopia'
p2535
aS'#656565'
p2536
aF8.88595
aI0
aI00
aI00
aI00
aI00
aI00
aI00
aI00
aI00
aa(lp2537
I234378
aF287.494
aF513.582
aVp3
p2538
aS'utopia'
p2539
aS'#656565'
p2540
aF8.88595
aI0
aI01
aI00
aI00
aI00
aI00
aI00
aI00
aI00
aa(lp2541
I234378
aF320.075
aF513.582
aVp3
p2542
aS'utopia'
p2543
aS'#656565'
p2544
aF8.88595
aI0
aI00
aI00
aI00
aI00
aI00
aI00
aI00
aI00
aa(lp2545
I234378
aF326.74
aF513.582
aVp3
p2546
aS'utopia'
p2547
aS'#656565'
p2548
aF8.88595
aI0
aI01
aI01
aI00
aI00
aI00
aI00
aI00
aI00
aa(lp2549
I234378
aF338.493925
aF513.582
ag2546
aS'utopia'
p2550
aS'#656565'
p2551
aF8.88595
aI0
aI00
aI00
aI00
aI00
aI00
aI00
aI00
aI00
aa(lp2552
I234378
aF344.512
aF513.582
aVp3
p2553
aS'utopia'
p2554
aS'#656565'
p2555
aF8.88595
aI0
aI00
aI00
aI00
aI00
aI00
aI00
aI00
aI00
aa(lp2556
I148996
aF348.955
aF513.582
aVp3
p2557
aS'utopia'
p2558
aS'#656565'
p2559
aF8.88595
aI0
aI01
aI00
aI00
aI00
aI00
aI00
aI00
aI00
aa(lp2560
I234378
aF376.353
aF513.582
aVp3
p2561
aS'utopia'
p2562
aS'#656565'
p2563
aF8.88595
aI0
aI00
aI00
aI01
aI01
aI00
aI00
aI00
aI00
aa(lp2564
I234378
aF383.018
aF513.582
aVp3
p2565
aS'utopia'
p2566
aS'#656565'
p2567
aF8.88595
aI0
aI00
aI00
aI00
aI00
aI00
aI00
aI00
aI00
aa(lp2568
I234378
aF388.0642333333333
aF513.582
ag2565
aS'utopia'
p2569
aS'#656565'
p2570
aF8.88595
aI0
aI01
aI01
aI00
aI00
aI00
aI00
aI00
aI00
aa(lp2571
I234378
aF400.049
aF513.582
aVp3
p2572
aS'utopia'
p2573
aS'#656565'
p2574
aF8.88595
aI0
aI01
aI01
aI00
aI00
aI00
aI00
aI00
aI00
aa(lp2575
I234378
aF414.019925
aF513.582
ag2572
aS'utopia'
p2576
aS'#656565'
p2577
aF8.88595
aI0
aI00
aI00
aI00
aI00
aI00
aI00
aI00
aI00
aa(lp2578
I234378
aF420.783
aF513.582
aVp3
p2579
aS'utopia'
p2580
aS'#656565'
p2581
aF8.88595
aI0
aI01
aI00
aI00
aI00
aI00
aI00
aI00
aI00
aa(lp2582
I234378
aF462.29498333333333
aF513.582
ag2579
aS'utopia'
p2583
aS'#656565'
p2584
aF8.88595
aI0
aI00
aI00
aI00
aI00
aI00
aI00
aI00
aI00
aa(lp2585
I234378
aF468.175
aF513.582
aVp3
p2586
aS'utopia'
p2587
aS'#656565'
p2588
aF8.88595
aI0
aI01
aI00
aI00
aI00
aI00
aI00
aI00
aI00
aa(lp2589
I234378
aF493.77985
aF513.582
ag2586
aS'utopia'
p2590
aS'#656565'
p2591
aF8.88595
aI0
aI00
aI00
aI00
aI00
aI00
aI00
aI00
aI00
aa(lp2592
I234378
aF498.047325
aF513.582
ag2586
aS'utopia'
p2593
aS'#656565'
p2594
aF8.88595
aI0
aI01
aI00
aI00
aI00
aI00
aI00
aI00
aI00
aa(lp2595
I234378
aF510.11722499999996
aF513.582
ag2586
aS'utopia'
p2596
aS'#656565'
p2597
aF8.88595
aI0
aI00
aI00
aI00
aI00
aI00
aI00
aI00
aI00
aa(lp2598
I234378
aF521.49
aF513.582
aVp3
p2599
aS'utopia'
p2600
aS'#656565'
p2601
aF8.88595
aI0
aI01
aI00
aI00
aI00
aI00
aI00
aI00
aI00
aa(lp2602
I234378
aF534.9055500000001
aF513.582
ag2599
aS'utopia'
p2603
aS'#656565'
p2604
aF8.88595
aI0
aI00
aI00
aI00
aI00
aI00
aI00
aI00
aI00
aa(lp2605
I210461
aF40.9084
aF527.651
aVp3
p2606
aS'utopia'
p2607
aS'#656565'
p2608
aF8.88595
aI0
aI01
aI00
aI00
aI00
aI00
aI00
aI00
aI00
aa(lp2609
I340
aF65.3448
aF527.651
aVp3
p2610
aS'utopia'
p2611
aS'#656565'
p2612
aF8.88595
aI0
aI01
aI00
aI00
aI00
aI00
aI00
aI00
aI00
aa(lp2613
I234378
aF79.65472000000001
aF527.651
ag2610
aS'utopia'
p2614
aS'#656565'
p2615
aF8.88595
aI0
aI00
aI00
aI00
aI00
aI00
aI00
aI00
aI00
aa(lp2616
I234378
aF87.5597
aF527.651
aVp3
p2617
aS'utopia'
p2618
aS'#656565'
p2619
aF8.88595
aI0
aI00
aI00
aI01
aI01
aI00
aI00
aI00
aI00
aa(lp2620
I176435
aF40.9084
aF541.721
aVp3
p2621
aS'utopia'
p2622
aS'#656565'
p2623
aF8.88595
aI0
aI01
aI00
aI00
aI00
aI00
aI00
aI00
aI00
aa(lp2624
I234378
aF60.9018
aF541.721
aVp3
p2625
aS'utopia'
p2626
aS'#656565'
p2627
aF8.88595
aI0
aI00
aI00
aI00
aI00
aI00
aI00
aI00
aI00
aa(lp2628
I150037
aF67.5663
aF541.721
aVp3
p2629
aS'utopia'
p2630
aS'#656565'
p2631
aF8.88595
aI0
aI01
aI00
aI00
aI00
aI00
aI00
aI00
aI00
aa(lp2632
I176435
aF40.9084
aF555.79
aVp3
p2633
aS'utopia'
p2634
aS'#656565'
p2635
aF8.88595
aI0
aI01
aI00
aI00
aI00
aI00
aI00
aI00
aI00
aa(lp2636
I66756
aF60.9018
aF555.79
aVp3
p2637
aS'utopia'
p2638
aS'#656565'
p2639
aF8.88595
aI0
aI01
aI00
aI00
aI00
aI00
aI00
aI00
aI00
aa(lp2640
I234378
aF105.12885833333334
aF555.79
ag2637
aS'utopia'
p2641
aS'#656565'
p2642
aF8.88595
aI0
aI00
aI00
aI00
aI00
aI00
aI00
aI00
aI00
aa(lp2643
I123583
aF119.401
aF555.79
aVp3
p2644
aS'utopia'
p2645
aS'#656565'
p2646
aF8.88595
aI0
aI01
aI00
aI00
aI00
aI00
aI00
aI00
aI00
aa(lp2647
I16331
aF154.945
aF555.79
aVp3
p2648
aS'utopia'
p2649
aS'#656565'
p2650
aF8.88595
aI0
aI00
aI00
aI00
aI00
aI00
aI00
aI00
aI00
aa(lp2651
I166593
aF165.312
aF555.79
aVp3
p2652
aS'utopia'
p2653
aS'#656565'
p2654
aF8.88595
aI0
aI00
aI00
aI00
aI00
aI00
aI00
aI00
aI00
aa(lp2655
I210461
aF171.976
aF555.79
aVp3
p2656
aS'utopia'
p2657
aS'#656565'
p2658
aF8.88595
aI0
aI01
aI00
aI00
aI00
aI00
aI00
aI00
aI00
aa(lp2659
I146209
aF196.413
aF555.79
aVp3
p2660
aS'utopia'
p2661
aS'#656565'
p2662
aF8.88595
aI0
aI01
aI00
aI00
aI00
aI00
aI00
aI00
aI00
aa(lp2663
I234378
aF227.6128285714286
aF555.79
ag2660
aS'utopia'
p2664
aS'#656565'
p2665
aF8.88595
aI0
aI00
aI00
aI00
aI00
aI00
aI00
aI00
aI00
aa(lp2666
I68032
aF240.842
aF555.79
aVp3
p2667
aS'utopia'
p2668
aS'#656565'
p2669
aF8.88595
aI0
aI01
aI00
aI00
aI00
aI00
aI00
aI00
aI00
aa(lp2670
I144489
aF296.379
aF555.79
aVp3
p2671
aS'utopia'
p2672
aS'#656565'
p2673
aF8.88595
aI0
aI00
aI00
aI00
aI00
aI00
aI00
aI00
aI00
aa(lp2674
I25691
aF306.746
aF555.79
aVp3
p2675
aS'utopia'
p2676
aS'#656565'
p2677
aF8.88595
aI0
aI01
aI00
aI00
aI00
aI00
aI00
aI00
aI00
aa(lp2678
I89480
aF324.518
aF555.79
aVp3
p2679
aS'utopia'
p2680
aS'#656565'
p2681
aF8.88595
aI0
aI00
aI00
aI00
aI00
aI00
aI00
aI00
aI00
aa(lp2682
I25691
aF334.885
aF555.79
aVp3
p2683
aS'utopia'
p2684
aS'#656565'
p2685
aF8.88595
aI0
aI01
aI00
aI00
aI00
aI00
aI00
aI00
aI00
aa(lp2686
I202216
aF352.657
aF555.79
aVp3
p2687
aS'utopia'
p2688
aS'#656565'
p2689
aF8.88595
aI0
aI00
aI00
aI00
aI00
aI00
aI00
aI00
aI00
aa(lp2690
I234378
aF397.94246
aF555.79
ag2687
aS'utopia'
p2691
aS'#656565'
p2692
aF8.88595
aI0
aI00
aI00
aI00
aI00
aI00
aI00
aI00
aI00
aa(lp2693
I23621
aF402.05931999999996
aF555.79
ag2687
aS'utopia'
p2694
aS'#656565'
p2695
aF8.88595
aI0
aI01
aI00
aI00
aI00
aI00
aI00
aI00
aI00
aa(lp2696
I131049
aF437.074
aF555.79
aVp3
p2697
aS'utopia'
p2698
aS'#656565'
p2699
aF8.88595
aI0
aI00
aI00
aI00
aI00
aI00
aI00
aI00
aI00
aa(lp2700
I186242
aF459.289
aF555.79
aVp3
p2701
aS'utopia'
p2702
aS'#656565'
p2703
aF8.88595
aI0
aI01
aI00
aI00
aI00
aI00
aI00
aI00
aI00
aa(lp2704
I25691
aF483.725
aF555.79
aVp3
p2705
aS'utopia'
p2706
aS'#656565'
p2707
aF8.88595
aI0
aI01
aI00
aI00
aI00
aI00
aI00
aI00
aI00
aa(lp2708
I234378
aF496.71995000000004
aF555.79
ag2705
aS'utopia'
p2709
aS'#656565'
p2710
aF8.88595
aI0
aI00
aI00
aI00
aI00
aI00
aI00
aI00
aI00
aa(lp2711
I166245
aF501.05160000000006
aF555.79
ag2705
aS'utopia'
p2712
aS'#656565'
p2713
aF8.88595
aI0
aI01
aI00
aI00
aI00
aI00
aI00
aI00
aI00
aa(lp2714
I205190
aF40.9084
aF566.157
aVp3
p2715
aS'utopia'
p2716
aS'#656565'
p2717
aF8.88595
aI0
aI01
aI00
aI00
aI00
aI00
aI00
aI00
aI00
aa(lp2718
I89480
aF64.6043
aF566.157
aVp3
p2719
aS'utopia'
p2720
aS'#656565'
p2721
aF8.88595
aI0
aI00
aI00
aI00
aI00
aI00
aI00
aI00
aI00
aa(lp2722
I234378
aF74.9712
aF566.157
aVp3
p2723
aS'utopia'
p2724
aS'#656565'
p2725
aF8.88595
aI0
aI01
aI00
aI00
aI00
aI00
aI00
aI00
aI00
aa(lp2726
I234378
aF113.477
aF566.157
aVp3
p2727
aS'utopia'
p2728
aS'#656565'
p2729
aF8.88595
aI0
aI01
aI00
aI00
aI00
aI00
aI00
aI00
aI00
aa(lp2730
I234378
aF144.6788875
aF566.157
ag2727
aS'utopia'
p2731
aS'#656565'
p2732
aF8.88595
aI0
aI00
aI00
aI00
aI00
aI00
aI00
aI00
aI00
aa(lp2733
I112275
aF157.166
aF566.157
aVp3
p2734
aS'utopia'
p2735
aS'#656565'
p2736
aF8.88595
aI0
aI01
aI00
aI00
aI00
aI00
aI00
aI00
aI00
aa(lp2737
I125078
aF176.419
aF566.157
aVp3
p2738
aS'utopia'
p2739
aS'#656565'
p2740
aF8.88595
aI0
aI00
aI00
aI00
aI00
aI00
aI00
aI00
aI00
aa(lp2741
I144489
aF204.558
aF566.157
aVp3
p2742
aS'utopia'
p2743
aS'#656565'
p2744
aF8.88595
aI0
aI00
aI00
aI00
aI00
aI00
aI00
aI00
aI00
aa(lp2745
I194354
aF214.925
aF566.157
aVp3
p2746
aS'utopia'
p2747
aS'#656565'
p2748
aF8.88595
aI0
aI00
aI00
aI00
aI00
aI00
aI00
aI00
aI00
aa(lp2749
I202216
aF229.735
aF566.157
aVp3
p2750
aS'utopia'
p2751
aS'#656565'
p2752
aF8.88595
aI0
aI00
aI00
aI00
aI00
aI00
aI00
aI00
aI00
aa(lp2753
I234378
aF281.57
aF566.157
aVp3
p2754
aS'utopia'
p2755
aS'#656565'
p2756
aF8.88595
aI0
aI00
aI00
aI00
aI00
aI00
aI00
aI00
aI00
aa(lp2757
I234378
aF304.525
aF566.157
aVp3
p2758
aS'utopia'
p2759
aS'#656565'
p2760
aF8.88595
aI0
aI01
aI00
aI00
aI00
aI00
aI00
aI00
aI00
aa(lp2761
I234378
aF321.8995
aF566.157
ag2758
aS'utopia'
p2762
aS'#656565'
p2763
aF8.88595
aI0
aI00
aI00
aI00
aI00
aI00
aI00
aI00
aI00
aa(lp2764
I110106
aF333.404
aF566.157
aVp3
p2765
aS'utopia'
p2766
aS'#656565'
p2767
aF8.88595
aI0
aI01
aI00
aI00
aI00
aI00
aI00
aI00
aI00
aa(lp2768
I144489
aF367.467
aF566.157
aVp3
p2769
aS'utopia'
p2770
aS'#656565'
p2771
aF8.88595
aI0
aI00
aI00
aI00
aI00
aI00
aI00
aI00
aI00
aa(lp2772
I194354
aF377.834
aF566.157
aVp3
p2773
aS'utopia'
p2774
aS'#656565'
p2775
aF8.88595
aI0
aI00
aI00
aI00
aI00
aI00
aI00
aI00
aI00
aa(lp2776
I234378
aF392.644
aF566.157
aVp3
p2777
aS'utopia'
p2778
aS'#656565'
p2779
aF8.88595
aI0
aI00
aI00
aI00
aI00
aI00
aI00
aI00
aI00
aa(lp2780
I147288
aF413.378
aF566.157
aVp3
p2781
aS'utopia'
p2782
aS'#656565'
p2783
aF8.88595
aI0
aI00
aI00
aI00
aI00
aI00
aI00
aI00
aI00
aa(lp2784
I135639
aF439.295
aF566.157
aVp3
p2785
aS'utopia'
p2786
aS'#656565'
p2787
aF8.88595
aI0
aI00
aI00
aI00
aI00
aI00
aI00
aI00
aI00
aa(lp2788
I234378
aF448.922
aF566.157
aVp3
p2789
aS'utopia'
p2790
aS'#656565'
p2791
aF8.88595
aI0
aI01
aI01
aI00
aI00
aI00
aI00
aI00
aI00
aa(lp2792
I234378
aF459.87936666666667
aF566.157
ag2789
aS'utopia'
p2793
aS'#656565'
p2794
aF8.88595
aI0
aI00
aI00
aI00
aI00
aI00
aI00
aI00
aI00
aa(lp2795
I234378
aF465.35805
aF566.157
ag2789
aS'utopia'
p2796
aS'#656565'
p2797
aF8.88595
aI0
aI01
aI01
aI00
aI00
aI00
aI00
aI00
aI00
aa(lp2798
I85218
aF483.725
aF566.157
aVp3
p2799
aS'utopia'
p2800
aS'#656565'
p2801
aF8.88595
aI0
aI00
aI00
aI00
aI00
aI00
aI00
aI00
aI00
aa(lp2802
I233284
aF500.756
aF566.157
aVp3
p2803
aS'utopia'
p2804
aS'#656565'
p2805
aF8.88595
aI0
aI01
aI00
aI00
aI00
aI00
aI00
aI00
aI00
aa(lp2806
I234378
aF518.02792
aF566.157
ag2803
aS'utopia'
p2807
aS'#656565'
p2808
aF8.88595
aI0
aI00
aI00
aI00
aI00
aI00
aI00
aI00
aI00
aa(lp2809
I177958
aF40.9084
aF580.226
aVp3
p2810
aS'utopia'
p2811
aS'#656565'
p2812
aF8.88595
aI0
aI01
aI00
aI00
aI00
aI00
aI00
aI00
aI00
aa(lp2813
I234378
aF71.2688
aF580.226
aVp3
p2814
aS'utopia'
p2815
aS'#656565'
p2816
aF8.88595
aI0
aI01
aI00
aI00
aI00
aI00
aI00
aI00
aI00
aa(lp2817
I234378
aF96.6393375
aF580.226
ag2814
aS'utopia'
p2818
aS'#656565'
p2819
aF8.88595
aI0
aI00
aI00
aI00
aI00
aI00
aI00
aI00
aI00
aa(lp2820
I234378
aF104.591
aF580.226
aVp3
p2821
aS'utopia'
p2822
aS'#656565'
p2823
aF8.88595
aI0
aI01
aI00
aI00
aI00
aI00
aI00
aI00
aI00
aa(lp2824
I8059
aF137.913
aF580.226
aVp3
p2825
aS'utopia'
p2826
aS'#656565'
p2827
aF8.88595
aI0
aI01
aI00
aI00
aI00
aI00
aI00
aI00
aI00
aa(lp2828
I190806
aF174.198
aF580.226
aVp3
p2829
aS'utopia'
p2830
aS'#656565'
p2831
aF8.88595
aI0
aI00
aI00
aI00
aI00
aI00
aI00
aI00
aI00
aa(lp2832
I212882
aF188.267
aF580.226
aVp3
p2833
aS'utopia'
p2834
aS'#656565'
p2835
aF8.88595
aI0
aI01
aI00
aI00
aI00
aI00
aI00
aI00
aI00
aa(lp2836
I234378
aF217.146
aF580.226
aVp3
p2837
aS'utopia'
p2838
aS'#656565'
p2839
aF8.88595
aI0
aI01
aI00
aI00
aI00
aI00
aI00
aI00
aI00
aa(lp2840
I234378
aF40.9084
aF617.145
aVp3
p2841
aS'utopia'
p2842
aS'#000000'
p2843
aF10.3669
aI1
aI01
aI01
aI00
aI00
aI00
aI00
aI00
aI00
aa(lp2844
I234378
aF58.919650000000004
aF617.145
ag2841
aS'utopia'
p2845
aS'#000000'
p2846
aF10.3669
aI1
aI00
aI00
aI00
aI00
aI00
aI00
aI00
aI00
aa(lp2847
I104866
aF64.9234
aF617.145
ag2841
aS'utopia'
p2848
aS'#000000'
p2849
aF10.3669
aI1
aI01
aI00
aI00
aI00
aI00
aI00
aI00
aI00
aa(lp2850
I234378
aF91.2621
aF617.145
aVp3
p2851
aS'utopia'
p2852
aS'#000000'
p2853
aF10.3669
aI1
aI01
aI00
aI00
aI00
aI00
aI00
aI00
aI00
aa(lp2854
I207716
aF148.28
aF617.145
aVp3
p2855
aS'utopia'
p2856
aS'#000000'
p2857
aF10.3669
aI1
aI01
aI00
aI00
aI00
aI00
aI00
aI00
aI00
aa(lp2858
I234378
aF180.69337142857142
aF617.145
ag2855
aS'utopia'
p2859
aS'#000000'
p2860
aF10.3669
aI1
aI00
aI00
aI00
aI00
aI00
aI00
aI00
aI00
aa(lp2861
I234378
aF40.9084
aF633.705
aVp3
p2862
aS'utopia'
p2863
aS'#656565'
p2864
aF10.3669
aI0
aI01
aI00
aI00
aI00
aI00
aI00
aI00
aI00
aa(lp2865
I234378
aF75.04133333333334
aF633.705
ag2862
aS'utopia'
p2866
aS'#656565'
p2867
aF10.3669
aI0
aI00
aI00
aI00
aI00
aI00
aI00
aI00
aI00
aa(lp2868
I234378
aF80.73015555555557
aF633.705
ag2862
aS'utopia'
p2869
aS'#656565'
p2870
aF10.3669
aI0
aI01
aI01
aI00
aI00
aI00
aI00
aI00
aI00
aa(lp2871
I234378
aF98.6671
aF633.705
aVp3
p2872
aS'utopia'
p2873
aS'#656565'
p2874
aF10.3669
aI0
aI01
aI00
aI00
aI00
aI00
aI00
aI00
aI00
aa(lp2875
I60201
aF135.692
aF633.705
aVp3
p2876
aS'utopia'
p2877
aS'#656565'
p2878
aF10.3669
aI0
aI01
aI00
aI00
aI00
aI00
aI00
aI00
aI00
aa(lp2879
I230071
aF155.685
aF633.705
aVp3
p2880
aS'utopia'
p2881
aS'#656565'
p2882
aF10.3669
aI0
aI01
aI00
aI00
aI00
aI00
aI00
aI00
aI00
aa(lp2883
I131049
aF186.786
aF633.705
aVp3
p2884
aS'utopia'
p2885
aS'#656565'
p2886
aF10.3669
aI0
aI00
aI00
aI00
aI00
aI00
aI00
aI00
aI00
aa(lp2887
I234378
aF211.222
aF633.705
aVp3
p2888
aS'utopia'
p2889
aS'#656565'
p2890
aF10.3669
aI0
aI01
aI00
aI00
aI00
aI00
aI00
aI00
aI01
aa(lp2891
I234378
aF231.216
aF633.705
aVp3
p2892
aS'utopia'
p2893
aS'#656565'
p2894
aF10.3669
aI0
aI00
aI00
aI01
aI01
aI01
aI00
aI00
aI00
aa(lp2895
I89480
aF254.171
aF633.705
aVp3
p2896
aS'utopia'
p2897
aS'#656565'
p2898
aF10.3669
aI0
aI00
aI00
aI00
aI00
aI00
aI00
aI00
aI00
aa(lp2899
I234378
aF266.019
aF633.705
aVp3
p2900
aS'utopia'
p2901
aS'#656565'
p2902
aF10.3669
aI0
aI01
aI00
aI00
aI00
aI00
aI00
aI00
aI01
aa(lp2903
I234378
aF285.272
aF633.705
aVp3
p2904
aS'utopia'
p2905
aS'#656565'
p2906
aF10.3669
aI0
aI00
aI00
aI01
aI01
aI01
aI00
aI00
aI00
aa(lp2907
I234378
aF40.9084
aF649.996
aVp3
p2908
aS'utopia'
p2909
aS'#656565'
p2910
aF10.3669
aI0
aI01
aI01
aI00
aI00
aI00
aI00
aI00
aI00
aa(lp2911
I234378
aF63.1233
aF649.996
aVp3
p2912
aS'utopia'
p2913
aS'#656565'
p2914
aF10.3669
aI0
aI01
aI00
aI00
aI00
aI00
aI00
aI00
aI00
aa(lp2915
I109610
aF40.9084
aF666.124
aVp3
p2916
aS'utopia'
p2917
aS'#656565'
p2918
aF8.88595
aI0
aI01
aI00
aI00
aI00
aI00
aI00
aI00
aI00
aa(lp2919
I25729
aF58.6803
aF666.124
aVp3
p2920
aS'utopia'
p2921
aS'#656565'
p2922
aF8.88595
aI0
aI01
aI00
aI00
aI00
aI00
aI00
aI00
aI00
aa(lp2923
I234378
aF76.54462000000001
aF666.124
ag2920
aS'utopia'
p2924
aS'#656565'
p2925
aF8.88595
aI0
aI00
aI00
aI00
aI00
aI00
aI00
aI00
aI00
aa(lp2926
I21716
aF85.3382
aF666.124
aVp3
p2927
aS'utopia'
p2928
aS'#656565'
p2929
aF8.88595
aI0
aI01
aI00
aI00
aI00
aI00
aI00
aI00
aI00
aa(lp2930
I234378
aF103.851
aF666.124
aVp3
p2931
aS'utopia'
p2932
aS'#656565'
p2933
aF8.88595
aI0
aI00
aI00
aI00
aI00
aI00
aI00
aI00
aI00
aa(lp2934
I234378
aF107.95788666666667
aF666.124
ag2931
aS'utopia'
p2935
aS'#656565'
p2936
aF8.88595
aI0
aI01
aI00
aI00
aI00
aI00
aI00
aI00
aI00
aa(lp2937
I234378
aF167.533
aF666.124
aVp3
p2938
aS'utopia'
p2939
aS'#656565'
p2940
aF8.88595
aI0
aI00
aI00
aI00
aI00
aI00
aI00
aI00
aI00
aa(lp2941
I260
aF174.198
aF666.124
aVp3
p2942
aS'utopia'
p2943
aS'#656565'
p2944
aF8.88595
aI0
aI01
aI00
aI00
aI00
aI00
aI00
aI00
aI00
aa(lp2945
I234378
aF228.254
aF666.124
aVp3
p2946
aS'utopia'
p2947
aS'#656565'
p2948
aF8.88595
aI0
aI00
aI00
aI00
aI00
aI00
aI00
aI00
aI00
aa(lp2949
I234378
aF234.918
aF666.124
aVp3
p2950
aS'utopia'
p2951
aS'#656565'
p2952
aF8.88595
aI0
aI01
aI00
aI00
aI00
aI00
aI00
aI00
aI00
aa(lp2953
I234378
aF280.829
aF666.124
aVp3
p2954
aS'utopia'
p2955
aS'#656565'
p2956
aF8.88595
aI0
aI00
aI00
aI00
aI00
aI00
aI00
aI00
aI00
aa(lp2957
I234378
aF287.494
aF666.124
aVp3
p2958
aS'utopia'
p2959
aS'#656565'
p2960
aF8.88595
aI0
aI01
aI00
aI00
aI00
aI00
aI00
aI00
aI00
aa(lp2961
I234378
aF320.075
aF666.124
aVp3
p2962
aS'utopia'
p2963
aS'#656565'
p2964
aF8.88595
aI0
aI00
aI00
aI00
aI00
aI00
aI00
aI00
aI00
aa(lp2965
I234378
aF326.74
aF666.124
aVp3
p2966
aS'utopia'
p2967
aS'#656565'
p2968
aF8.88595
aI0
aI01
aI01
aI00
aI00
aI00
aI00
aI00
aI00
aa(lp2969
I234378
aF338.493925
aF666.124
ag2966
aS'utopia'
p2970
aS'#656565'
p2971
aF8.88595
aI0
aI00
aI00
aI00
aI00
aI00
aI00
aI00
aI00
aa(lp2972
I234378
aF344.512
aF666.124
aVp3
p2973
aS'utopia'
p2974
aS'#656565'
p2975
aF8.88595
aI0
aI00
aI00
aI00
aI00
aI00
aI00
aI00
aI00
aa(lp2976
I148996
aF348.955
aF666.124
aVp3
p2977
aS'utopia'
p2978
aS'#656565'
p2979
aF8.88595
aI0
aI01
aI00
aI00
aI00
aI00
aI00
aI00
aI00
aa(lp2980
I234378
aF376.353
aF666.124
aVp3
p2981
aS'utopia'
p2982
aS'#656565'
p2983
aF8.88595
aI0
aI00
aI00
aI01
aI01
aI00
aI00
aI00
aI00
aa(lp2984
I234378
aF383.018
aF666.124
aVp3
p2985
aS'utopia'
p2986
aS'#656565'
p2987
aF8.88595
aI0
aI00
aI00
aI00
aI00
aI00
aI00
aI00
aI00
aa(lp2988
I234378
aF388.0642333333333
aF666.124
ag2985
aS'utopia'
p2989
aS'#656565'
p2990
aF8.88595
aI0
aI01
aI01
aI00
aI00
aI00
aI00
aI00
aI00
aa(lp2991
I234378
aF400.049
aF666.124
aVp3
p2992
aS'utopia'
p2993
aS'#656565'
p2994
aF8.88595
aI0
aI01
aI01
aI00
aI00
aI00
aI00
aI00
aI00
aa(lp2995
I234378
aF414.019925
aF666.124
ag2992
aS'utopia'
p2996
aS'#656565'
p2997
aF8.88595
aI0
aI00
aI00
aI00
aI00
aI00
aI00
aI00
aI00
aa(lp2998
I234378
aF420.783
aF666.124
aVp3
p2999
aS'utopia'
p3000
aS'#656565'
p3001
aF8.88595
aI0
aI01
aI00
aI00
aI00
aI00
aI00
aI00
aI00
aa(lp3002
I234378
aF462.29498333333333
aF666.124
ag2999
aS'utopia'
p3003
aS'#656565'
p3004
aF8.88595
aI0
aI00
aI00
aI00
aI00
aI00
aI00
aI00
aI00
aa(lp3005
I234378
aF468.175
aF666.124
aVp3
p3006
aS'utopia'
p3007
aS'#656565'
p3008
aF8.88595
aI0
aI01
aI00
aI00
aI00
aI00
aI00
aI00
aI00
aa(lp3009
I234378
aF493.77985
aF666.124
ag3006
aS'utopia'
p3010
aS'#656565'
p3011
aF8.88595
aI0
aI00
aI00
aI00
aI00
aI00
aI00
aI00
aI00
aa(lp3012
I234378
aF498.047325
aF666.124
ag3006
aS'utopia'
p3013
aS'#656565'
p3014
aF8.88595
aI0
aI01
aI00
aI00
aI00
aI00
aI00
aI00
aI00
aa(lp3015
I234378
aF510.11722499999996
aF666.124
ag3006
aS'utopia'
p3016
aS'#656565'
p3017
aF8.88595
aI0
aI00
aI00
aI00
aI00
aI00
aI00
aI00
aI00
aa(lp3018
I234378
aF521.49
aF666.124
aVp3
p3019
aS'utopia'
p3020
aS'#656565'
p3021
aF8.88595
aI0
aI01
aI00
aI00
aI00
aI00
aI00
aI00
aI00
aa(lp3022
I234378
aF534.9055500000001
aF666.124
ag3019
aS'utopia'
p3023
aS'#656565'
p3024
aF8.88595
aI0
aI00
aI00
aI00
aI00
aI00
aI00
aI00
aI00
aa(lp3025
I210461
aF40.9084
aF680.193
aVp3
p3026
aS'utopia'
p3027
aS'#656565'
p3028
aF8.88595
aI0
aI01
aI00
aI00
aI00
aI00
aI00
aI00
aI00
aa(lp3029
I340
aF65.3448
aF680.193
aVp3
p3030
aS'utopia'
p3031
aS'#656565'
p3032
aF8.88595
aI0
aI01
aI00
aI00
aI00
aI00
aI00
aI00
aI00
aa(lp3033
I234378
aF79.65472000000001
aF680.193
ag3030
aS'utopia'
p3034
aS'#656565'
p3035
aF8.88595
aI0
aI00
aI00
aI00
aI00
aI00
aI00
aI00
aI00
aa(lp3036
I234378
aF87.5597
aF680.193
aVp3
p3037
aS'utopia'
p3038
aS'#656565'
p3039
aF8.88595
aI0
aI00
aI00
aI01
aI01
aI00
aI00
aI00
aI00
aa(lp3040
I176435
aF40.9084
aF694.263
aVp3
p3041
aS'utopia'
p3042
aS'#656565'
p3043
aF8.88595
aI0
aI01
aI00
aI00
aI00
aI00
aI00
aI00
aI00
aa(lp3044
I234378
aF60.9018
aF694.263
aVp3
p3045
aS'utopia'
p3046
aS'#656565'
p3047
aF8.88595
aI0
aI00
aI00
aI00
aI00
aI00
aI00
aI00
aI00
aa(lp3048
I150037
aF67.5663
aF694.263
aVp3
p3049
aS'utopia'
p3050
aS'#656565'
p3051
aF8.88595
aI0
aI01
aI00
aI00
aI00
aI00
aI00
aI00
aI00
aa(lp3052
I176435
aF40.9084
aF708.332
aVp3
p3053
aS'utopia'
p3054
aS'#656565'
p3055
aF8.88595
aI0
aI01
aI00
aI00
aI00
aI00
aI00
aI00
aI00
aa(lp3056
I66756
aF60.9018
aF708.332
aVp3
p3057
aS'utopia'
p3058
aS'#656565'
p3059
aF8.88595
aI0
aI01
aI00
aI00
aI00
aI00
aI00
aI00
aI00
aa(lp3060
I234378
aF105.12885833333334
aF708.332
ag3057
aS'utopia'
p3061
aS'#656565'
p3062
aF8.88595
aI0
aI00
aI00
aI00
aI00
aI00
aI00
aI00
aI00
aa(lp3063
I68032
aF128.287
aF708.332
aVp3
p3064
aS'utopia'
p3065
aS'#656565'
p3066
aF8.88595
aI0
aI01
aI00
aI00
aI00
aI00
aI00
aI00
aI00
aa(lp3067
I144489
aF183.824
aF708.332
aVp3
p3068
aS'utopia'
p3069
aS'#656565'
p3070
aF8.88595
aI0
aI00
aI00
aI00
aI00
aI00
aI00
aI00
aI00
aa(lp3071
I80364
aF194.191
aF708.332
aVp3
p3072
aS'utopia'
p3073
aS'#656565'
p3074
aF8.88595
aI0
aI00
aI00
aI00
aI00
aI00
aI00
aI00
aI00
aa(lp3075
I234378
aF212.703
aF708.332
aVp3
p3076
aS'utopia'
p3077
aS'#656565'
p3078
aF8.88595
aI0
aI01
aI00
aI00
aI00
aI00
aI00
aI00
aI00
aa(lp3079
I166268
aF285.272
aF708.332
aVp3
p3080
aS'utopia'
p3081
aS'#656565'
p3082
aF8.88595
aI0
aI01
aI00
aI00
aI00
aI00
aI00
aI00
aI00
aa(lp3083
I135639
aF342.29
aF708.332
aVp3
p3084
aS'utopia'
p3085
aS'#656565'
p3086
aF8.88595
aI0
aI00
aI00
aI00
aI00
aI00
aI00
aI00
aI00
aa(lp3087
I234378
aF351.917
aF708.332
aVp3
p3088
aS'utopia'
p3089
aS'#656565'
p3090
aF8.88595
aI0
aI00
aI00
aI00
aI00
aI00
aI00
aI00
aI00
aa(lp3091
I207716
aF383.758
aF708.332
aVp3
p3092
aS'utopia'
p3093
aS'#656565'
p3094
aF8.88595
aI0
aI00
aI00
aI00
aI00
aI00
aI00
aI00
aI00
aa(lp3095
I234378
aF409.2454857142857
aF708.332
ag3092
aS'utopia'
p3096
aS'#656565'
p3097
aF8.88595
aI0
aI00
aI00
aI00
aI00
aI00
aI00
aI00
aI00
aa(lp3098
I24205
aF430.409
aF708.332
aVp3
p3099
aS'utopia'
p3100
aS'#656565'
p3101
aF8.88595
aI0
aI01
aI00
aI00
aI00
aI00
aI00
aI00
aI00
aa(lp3102
I112275
aF458.548
aF708.332
aVp3
p3103
aS'utopia'
p3104
aS'#656565'
p3105
aF8.88595
aI0
aI01
aI00
aI00
aI00
aI00
aI00
aI00
aI00
aa(lp3106
I121847
aF477.801
aF708.332
aVp3
p3107
aS'utopia'
p3108
aS'#656565'
p3109
aF8.88595
aI0
aI00
aI00
aI00
aI00
aI00
aI00
aI00
aI00
aa(lp3110
I12459
aF494.092
aF708.332
aVp3
p3111
aS'utopia'
p3112
aS'#656565'
p3113
aF8.88595
aI0
aI00
aI00
aI00
aI00
aI00
aI00
aI00
aI00
aa(lp3114
I78161
aF40.9084
aF718.699
aVp3
p3115
aS'utopia'
p3116
aS'#656565'
p3117
aF8.88595
aI0
aI01
aI00
aI00
aI00
aI00
aI00
aI00
aI00
aa(lp3118
I177958
aF40.9084
aF732.769
aVp3
p3119
aS'utopia'
p3120
aS'#656565'
p3121
aF8.88595
aI0
aI01
aI00
aI00
aI00
aI00
aI00
aI00
aI00
aa(lp3122
I234378
aF71.2688
aF732.769
aVp3
p3123
aS'utopia'
p3124
aS'#656565'
p3125
aF8.88595
aI0
aI01
aI00
aI00
aI00
aI00
aI00
aI00
aI00
aa(lp3126
I234378
aF96.6393375
aF732.769
ag3123
aS'utopia'
p3127
aS'#656565'
p3128
aF8.88595
aI0
aI00
aI00
aI00
aI00
aI00
aI00
aI00
aI00
aa(lp3129
I234378
aF104.591
aF732.769
aVp3
p3130
aS'utopia'
p3131
aS'#656565'
p3132
aF8.88595
aI0
aI01
aI01
aI00
aI00
aI00
aI00
aI00
aI00
aa(lp3133
I22474
aF123.103
aF732.769
aVp3
p3134
aS'utopia'
p3135
aS'#656565'
p3136
aF8.88595
aI0
aI00
aI00
aI00
aI00
aI00
aI00
aI00
aI00
aa(lp3137
I166593
aF131.249
aF732.769
aVp3
p3138
aS'utopia'
p3139
aS'#656565'
p3140
aF8.88595
aI0
aI00
aI00
aI00
aI00
aI00
aI00
aI00
aI00
aa(lp3141
I234378
aF137.913
aF732.769
aVp3
p3142
aS'utopia'
p3143
aS'#656565'
p3144
aF8.88595
aI0
aI00
aI00
aI00
aI00
aI00
aI00
aI00
aI00
aa(lp3145
I123665
aF183.084
aF732.769
aVp3
p3146
aS'utopia'
p3147
aS'#656565'
p3148
aF8.88595
aI0
aI00
aI00
aI00
aI00
aI00
aI00
aI00
aI00
aa(lp3149
I135639
aF228.994
aF732.769
aVp3
p3150
aS'utopia'
p3151
aS'#656565'
p3152
aF8.88595
aI0
aI00
aI00
aI00
aI00
aI00
aI00
aI00
aI00
aa(lp3153
I218914
aF238.621
aF732.769
aVp3
p3154
aS'utopia'
p3155
aS'#656565'
p3156
aF8.88595
aI0
aI00
aI00
aI00
aI00
aI00
aI00
aI00
aI00
aa(lp3157
I125720
aF264.538
aF732.769
aVp3
p3158
aS'utopia'
p3159
aS'#656565'
p3160
aF8.88595
aI0
aI00
aI00
aI00
aI00
aI00
aI00
aI00
aI00
aa(lp3161
I113929
aF286.753
aF732.769
aVp3
p3162
aS'utopia'
p3163
aS'#656565'
p3164
aF8.88595
aI0
aI00
aI00
aI00
aI00
aI00
aI00
aI00
aI00
aa(lp3165
I24205
aF302.303
aF732.769
aVp3
p3166
aS'utopia'
p3167
aS'#656565'
p3168
aF8.88595
aI0
aI00
aI00
aI00
aI00
aI00
aI00
aI00
aI00
aa(lp3169
I104866
aF328.961
aF732.769
aVp3
p3170
aS'utopia'
p3171
aS'#656565'
p3172
aF8.88595
aI0
aI00
aI00
aI00
aI00
aI00
aI00
aI00
aI00
aa(lp3173
I123665
aF348.214
aF732.769
aVp3
p3174
aS'utopia'
p3175
aS'#656565'
p3176
aF8.88595
aI0
aI00
aI00
aI00
aI00
aI00
aI00
aI00
aI00
aa(lp3177
I144489
aF394.125
aF732.769
aVp3
p3178
aS'utopia'
p3179
aS'#656565'
p3180
aF8.88595
aI0
aI00
aI00
aI00
aI00
aI00
aI00
aI00
aI00
aa(lp3181
I120218
aF404.492
aF732.769
aVp3
p3182
aS'utopia'
p3183
aS'#656565'
p3184
aF8.88595
aI0
aI00
aI00
aI00
aI00
aI00
aI00
aI00
aI00
aa(lp3185
I85218
aF444.479
aF732.769
aVp3
p3186
aS'utopia'
p3187
aS'#656565'
p3188
aF8.88595
aI0
aI00
aI00
aI00
aI00
aI00
aI00
aI00
aI00
aa(lp3189
I79436
aF461.51
aF732.769
aVp3
p3190
aS'utopia'
p3191
aS'#656565'
p3192
aF8.88595
aI0
aI00
aI00
aI00
aI00
aI00
aI00
aI00
aI00
aa(lp3193
I113929
aF481.503
aF732.769
aVp3
p3194
aS'utopia'
p3195
aS'#656565'
p3196
aF8.88595
aI0
aI00
aI00
aI00
aI00
aI00
aI00
aI00
aI00
aa(lp3197
I213747
aF497.054
aF732.769
aVp3
p3198
aS'utopia'
p3199
aS'#656565'
p3200
aF8.88595
aI0
aI00
aI00
aI00
aI00
aI00
aI00
aI00
aI00
aa(lp3201
I41890
aF508.902
aF732.769
aVp3
p3202
aS'utopia'
p3203
aS'#656565'
p3204
aF8.88595
aI0
aI00
aI00
aI00
aI00
aI00
aI00
aI00
aI00
aa(lp3205
I77579
aF40.9084
aF743.135
aVp3
p3206
aS'utopia'
p3207
aS'#656565'
p3208
aF8.88595
aI0
aI00
aI00
aI00
aI00
aI00
aI00
aI00
aI00
aa(lp3209
I85218
aF79.4142
aF743.135
aVp3
p3210
aS'utopia'
p3211
aS'#656565'
p3212
aF8.88595
aI0
aI00
aI00
aI00
aI00
aI00
aI00
aI00
aI00
aa(lp3213
I177271
aF96.4456
aF743.135
aVp3
p3214
aS'utopia'
p3215
aS'#656565'
p3216
aF8.88595
aI0
aI00
aI00
aI00
aI00
aI00
aI00
aI00
aI00
aa(lp3217
I234378
aF120.141
aF743.135
aVp3
p3218
aS'utopia'
p3219
aS'#656565'
p3220
aF8.88595
aI0
aI00
aI00
aI00
aI00
aI00
aI00
aI00
aI00
aa(lp3221
I218914
aF173.457
aF743.135
aVp3
p3222
aS'utopia'
p3223
aS'#656565'
p3224
aF8.88595
aI0
aI00
aI00
aI00
aI00
aI00
aI00
aI00
aI00
aa(lp3225
I234378
aF199.375
aF743.135
aVp3
p3226
aS'utopia'
p3227
aS'#656565'
p3228
aF8.88595
aI0
aI00
aI00
aI00
aI00
aI00
aI00
aI00
aI00
aa(lp3229
I234378
aF217.146
aF743.135
aVp3
p3230
aS'utopia'
p3231
aS'#656565'
p3232
aF8.88595
aI0
aI00
aI00
aI00
aI00
aI00
aI00
aI00
aI00
aa(lp3233
I192651
aF254.912
aF743.135
aVp3
p3234
aS'utopia'
p3235
aS'#656565'
p3236
aF8.88595
aI0
aI00
aI00
aI00
aI00
aI00
aI00
aI00
aI00
aa(lp3237
I52532
aF266.76
aF743.135
aVp3
p3238
aS'utopia'
p3239
aS'#656565'
p3240
aF8.88595
aI0
aI00
aI00
aI00
aI00
aI00
aI00
aI00
aI00
aa(lp3241
I177271
aF303.044
aF743.135
aVp3
p3242
aS'utopia'
p3243
aS'#656565'
p3244
aF8.88595
aI0
aI00
aI00
aI00
aI00
aI00
aI00
aI00
aI00
aa(lp3245
I234378
aF326.74
aF743.135
aVp3
p3246
aS'utopia'
p3247
aS'#656565'
p3248
aF8.88595
aI0
aI00
aI00
aI00
aI00
aI00
aI00
aI00
aI00
aa(lp3249
I197030
aF382.277
aF743.135
aVp3
p3250
aS'utopia'
p3251
aS'#656565'
p3252
aF8.88595
aI0
aI00
aI00
aI00
aI00
aI00
aI00
aI00
aI00
aa(lp3253
I234378
aF385.08275
aF743.135
ag3250
aS'utopia'
p3254
aS'#656565'
p3255
aF8.88595
aI0
aI00
aI00
aI00
aI00
aI00
aI00
aI00
aI00
aa(lp3256
I64620
aF387.88849999999996
aF743.135
ag3250
aS'utopia'
p3257
aS'#656565'
p3258
aF8.88595
aI0
aI00
aI00
aI00
aI00
aI00
aI00
aI00
aI00
aa(lp3259
I234378
aF388.69424999999995
aF743.135
ag3250
aS'utopia'
p3260
aS'#656565'
p3261
aF8.88595
aI0
aI00
aI00
aI00
aI00
aI00
aI00
aI00
aI00
aa(lp3262
I234378
aF395.606
aF743.135
aVp3
p3263
aS'utopia'
p3264
aS'#656565'
p3265
aF8.88595
aI0
aI01
aI01
aI00
aI00
aI00
aI00
aI00
aI00
aa(lp3266
I234378
aF416.683
aF743.135
ag3263
aS'utopia'
p3267
aS'#656565'
p3268
aF8.88595
aI0
aI00
aI00
aI00
aI00
aI00
aI00
aI00
aI00
aa(lp3269
I207716
aF423.004
aF743.135
aVp3
p3270
aS'utopia'
p3271
aS'#656565'
p3272
aF8.88595
aI0
aI01
aI00
aI00
aI00
aI00
aI00
aI00
aI00
aa(lp3273
I62551
aF453.365
aF743.135
aVp3
p3274
aS'utopia'
p3275
aS'#656565'
p3276
aF8.88595
aI0
aI00
aI00
aI00
aI00
aI00
aI00
aI00
aI00
aa(lp3277
I234378
aF474.099
aF743.135
aVp3
p3278
aS'utopia'
p3279
aS'#656565'
p3280
aF8.88595
aI0
aI00
aI00
aI00
aI00
aI00
aI00
aI00
aI00
aa(lp3281
I89480
aF519.269
aF743.135
aVp3
p3282
aS'utopia'
p3283
aS'#656565'
p3284
aF8.88595
aI0
aI00
aI00
aI00
aI00
aI00
aI00
aI00
aI00
aa(lp3285
I79694
aF529.636
aF743.135
aVp3
p3286
aS'utopia'
p3287
aS'#656565'
p3288
aF8.88595
aI0
aI00
aI00
aI00
aI00
aI00
aI00
aI00
aI00
aa(lp3289
I194354
aF40.9084
aF753.502
aVp3
p3290
aS'utopia'
p3291
aS'#656565'
p3292
aF8.88595
aI0
aI00
aI00
aI00
aI00
aI00
aI00
aI00
aI00
aa(lp3293
I123665
aF55.7183
aF753.502
aVp3
p3294
aS'utopia'
p3295
aS'#656565'
p3296
aF8.88595
aI0
aI00
aI00
aI00
aI00
aI00
aI00
aI00
aI00
aa(lp3297
I144483
aF101.629
aF753.502
aVp3
p3298
aS'utopia'
p3299
aS'#656565'
p3300
aF8.88595
aI0
aI00
aI00
aI00
aI00
aI00
aI00
aI00
aI00
aa(lp3301
I194354
aF114.218
aF753.502
aVp3
p3302
aS'utopia'
p3303
aS'#656565'
p3304
aF8.88595
aI0
aI00
aI00
aI00
aI00
aI00
aI00
aI00
aI00
aa(lp3305
I164516
aF129.027
aF753.502
aVp3
p3306
aS'utopia'
p3307
aS'#656565'
p3308
aF8.88595
aI0
aI00
aI00
aI00
aI00
aI00
aI00
aI00
aI00
aa(lp3309
I144489
aF150.502
aF753.502
aVp3
p3310
aS'utopia'
p3311
aS'#656565'
p3312
aF8.88595
aI0
aI00
aI00
aI00
aI00
aI00
aI00
aI00
aI00
aa(lp3313
I234378
aF160.869
aF753.502
aVp3
p3314
aS'utopia'
p3315
aS'#656565'
p3316
aF8.88595
aI0
aI00
aI00
aI00
aI00
aI00
aI00
aI00
aI00
aa(lp3317
I228173
aF199.375
aF753.502
aVp3
p3318
aS'utopia'
p3319
aS'#656565'
p3320
aF8.88595
aI0
aI00
aI00
aI00
aI00
aI00
aI00
aI00
aI00
aa(lp3321
I234378
aF219.21783333333332
aF753.502
ag3318
aS'utopia'
p3322
aS'#656565'
p3323
aF8.88595
aI0
aI00
aI00
aI00
aI00
aI00
aI00
aI00
aI00
aa(lp3324
I198478
aF225.292
aF753.502
aVp3
p3325
aS'utopia'
p3326
aS'#656565'
p3327
aF8.88595
aI0
aI01
aI00
aI00
aI00
aI00
aI00
aI00
aI00
aa(lp3328
I50379
aF247.507
aF753.502
aVp3
p3329
aS'utopia'
p3330
aS'#656565'
p3331
aF8.88595
aI0
aI00
aI00
aI00
aI00
aI00
aI00
aI00
aI00
aa(lp3332
I138783
aF266.76
aF753.502
aVp3
p3333
aS'utopia'
p3334
aS'#656565'
p3335
aF8.88595
aI0
aI00
aI00
aI00
aI00
aI00
aI00
aI00
aI00
aa(lp3336
I209676
aF303.784
aF753.502
aVp3
p3337
aS'utopia'
p3338
aS'#656565'
p3339
aF8.88595
aI0
aI00
aI00
aI00
aI00
aI00
aI00
aI00
aI00
aa(lp3340
I22476
aF323.037
aF753.502
aVp3
p3341
aS'utopia'
p3342
aS'#656565'
p3343
aF8.88595
aI0
aI00
aI00
aI00
aI00
aI00
aI00
aI00
aI00
aa(lp3344
I234378
aF330.442
aF753.502
aVp3
p3345
aS'utopia'
p3346
aS'#656565'
p3347
aF8.88595
aI0
aI00
aI00
aI00
aI00
aI00
aI00
aI00
aI00
aa(lp3348
I194354
aF346.733
aF753.502
aVp3
p3349
aS'utopia'
p3350
aS'#656565'
p3351
aF8.88595
aI0
aI00
aI00
aI00
aI00
aI00
aI00
aI00
aI00
aa(lp3352
I234378
aF361.543
aF753.502
aVp3
p3353
aS'utopia'
p3354
aS'#656565'
p3355
aF8.88595
aI0
aI01
aI01
aI00
aI00
aI00
aI00
aI00
aI00
aa(lp3356
I234378
aF380.056
aF753.502
aVp3
p3357
aS'utopia'
p3358
aS'#656565'
p3359
aF8.88595
aI0
aI00
aI00
aI00
aI00
aI00
aI00
aI00
aI00
aa(lp3360
I84662
aF384.51673999999997
aF753.502
ag3357
aS'utopia'
p3361
aS'#656565'
p3362
aF8.88595
aI0
aI01
aI00
aI00
aI00
aI00
aI00
aI00
aI00
aa(lp3363
I89958
aF404.492
aF753.502
aVp3
p3364
aS'utopia'
p3365
aS'#656565'
p3366
aF8.88595
aI0
aI01
aI00
aI00
aI00
aI00
aI00
aI00
aI00
aa(lp3367
I207716
aF438.555
aF753.502
aVp3
p3368
aS'utopia'
p3369
aS'#656565'
p3370
aF8.88595
aI0
aI01
aI00
aI00
aI00
aI00
aI00
aI00
aI00
aa(lp3371
I234378
aF463.63335
aF753.502
ag3368
aS'utopia'
p3372
aS'#656565'
p3373
aF8.88595
aI0
aI00
aI00
aI00
aI00
aI00
aI00
aI00
aI00
aa(lp3374
I234378
aF467.813075
aF753.502
ag3368
aS'utopia'
p3375
aS'#656565'
p3376
aF8.88595
aI0
aI00
aI00
aI00
aI00
aI00
aI00
aI00
aI00
aa(lp3377
I234378
aF40.9084
aF790.421
aVp3
p3378
aS'utopia'
p3379
aS'#000000'
p3380
aF10.3669
aI1
aI01
aI00
aI00
aI00
aI00
aI00
aI00
aI00
aa(lp3381
I61503
aF72.7498
aF790.421
aVp3
p3382
aS'utopia'
p3383
aS'#000000'
p3384
aF10.3669
aI1
aI01
aI00
aI00
aI00
aI00
aI00
aI00
aI00
aa(lp3385
I234378
aF110.2226
aF790.421
ag3382
aS'utopia'
p3386
aS'#000000'
p3387
aF10.3669
aI1
aI00
aI00
aI00
aI00
aI00
aI00
aI00
aI00
aa(lp3388
I234378
aF115.57585714285715
aF790.421
ag3382
aS'utopia'
p3389
aS'#000000'
p3390
aF10.3669
aI1
aI00
aI00
aI00
aI00
aI00
aI00
aI00
aI00
aa(lp3391
I89958
aF149.761
aF790.421
aVp3
p3392
aS'utopia'
p3393
aS'#000000'
p3394
aF10.3669
aI1
aI00
aI00
aI00
aI00
aI00
aI00
aI00
aI00
aa(lp3395
I234378
aF187.3852125
aF790.421
ag3392
aS'utopia'
p3396
aS'#000000'
p3397
aF10.3669
aI1
aI00
aI00
aI00
aI00
aI00
aI00
aI00
aI00
aa(lp3398
I111119
aF40.9084
aF28.7199
aVp4
p3399
aS'utopia'
p3400
aS'#656565'
p3401
aF10.3669
aI0
aI01
aI00
aI00
aI00
aI00
aI00
aI00
aI00
aa(lp3402
I91539
aF93.4836
aF28.7199
aVp4
p3403
aS'utopia'
p3404
aS'#656565'
p3405
aF10.3669
aI0
aI01
aI00
aI00
aI00
aI00
aI00
aI00
aI00
aa(lp3406
I40036
aF119.401
aF28.7199
aVp4
p3407
aS'utopia'
p3408
aS'#656565'
p3409
aF10.3669
aI0
aI01
aI00
aI00
aI00
aI00
aI00
aI00
aI00
aa(lp3410
I234378
aF154.6597846153846
aF28.7199
ag3407
aS'utopia'
p3411
aS'#656565'
p3412
aF10.3669
aI0
aI00
aI00
aI00
aI00
aI00
aI00
aI00
aI00
aa(lp3413
I91495
aF159.69675384615385
aF28.7199
ag3407
aS'utopia'
p3414
aS'#656565'
p3415
aF10.3669
aI0
aI00
aI00
aI00
aI00
aI00
aI00
aI00
aI00
aa(lp3416
I234378
aF187.527
aF28.7199
aVp4
p3417
aS'utopia'
p3418
aS'#656565'
p3419
aF10.3669
aI0
aI00
aI00
aI00
aI00
aI00
aI00
aI00
aI00
aa(lp3420
I234378
aF219.368
aF28.7199
aVp4
p3421
aS'utopia'
p3422
aS'#656565'
p3423
aF10.3669
aI0
aI01
aI00
aI00
aI00
aI00
aI00
aI00
aI00
aa(lp3424
I60201
aF256.393
aF28.7199
aVp4
p3425
aS'utopia'
p3426
aS'#656565'
p3427
aF10.3669
aI0
aI01
aI00
aI00
aI00
aI00
aI00
aI00
aI00
aa(lp3428
I230071
aF276.386
aF28.7199
aVp4
p3429
aS'utopia'
p3430
aS'#656565'
p3431
aF10.3669
aI0
aI01
aI00
aI00
aI00
aI00
aI00
aI00
aI00
aa(lp3432
I131049
aF307.487
aF28.7199
aVp4
p3433
aS'utopia'
p3434
aS'#656565'
p3435
aF10.3669
aI0
aI00
aI00
aI00
aI00
aI00
aI00
aI00
aI00
aa(lp3436
I234378
aF331.923
aF28.7199
aVp4
p3437
aS'utopia'
p3438
aS'#656565'
p3439
aF10.3669
aI0
aI01
aI00
aI00
aI00
aI00
aI00
aI00
aI01
aa(lp3440
I234378
aF346.733
aF28.7199
aVp4
p3441
aS'utopia'
p3442
aS'#656565'
p3443
aF10.3669
aI0
aI00
aI00
aI01
aI01
aI01
aI00
aI00
aI00
aa(lp3444
I89480
aF369.689
aF28.7199
aVp4
p3445
aS'utopia'
p3446
aS'#656565'
p3447
aF10.3669
aI0
aI00
aI00
aI00
aI00
aI00
aI00
aI00
aI00
aa(lp3448
I234378
aF381.537
aF28.7199
aVp4
p3449
aS'utopia'
p3450
aS'#656565'
p3451
aF10.3669
aI0
aI01
aI00
aI00
aI00
aI00
aI00
aI00
aI01
aa(lp3452
I234378
aF396.346
aF28.7199
aVp4
p3453
aS'utopia'
p3454
aS'#656565'
p3455
aF10.3669
aI0
aI00
aI00
aI01
aI01
aI01
aI00
aI00
aI00
aa(lp3456
I234378
aF40.9084
aF45.0108
aVp4
p3457
aS'utopia'
p3458
aS'#656565'
p3459
aF10.3669
aI0
aI01
aI01
aI00
aI00
aI00
aI00
aI00
aI00
aa(lp3460
I234378
aF63.1233
aF45.0108
aVp4
p3461
aS'utopia'
p3462
aS'#656565'
p3463
aF10.3669
aI0
aI01
aI00
aI00
aI00
aI00
aI00
aI00
aI00
aa(lp3464
I109610
aF40.9084
aF61.1388
aVp4
p3465
aS'utopia'
p3466
aS'#656565'
p3467
aF8.88595
aI0
aI01
aI00
aI00
aI00
aI00
aI00
aI00
aI00
aa(lp3468
I25729
aF58.6803
aF61.1388
aVp4
p3469
aS'utopia'
p3470
aS'#656565'
p3471
aF8.88595
aI0
aI01
aI00
aI00
aI00
aI00
aI00
aI00
aI00
aa(lp3472
I234378
aF76.54462000000001
aF61.1388
ag3469
aS'utopia'
p3473
aS'#656565'
p3474
aF8.88595
aI0
aI00
aI00
aI00
aI00
aI00
aI00
aI00
aI00
aa(lp3475
I84662
aF85.3382
aF61.1388
aVp4
p3476
aS'utopia'
p3477
aS'#656565'
p3478
aF8.88595
aI0
aI01
aI00
aI00
aI00
aI00
aI00
aI00
aI00
aa(lp3479
I21716
aF106.813
aF61.1388
aVp4
p3480
aS'utopia'
p3481
aS'#656565'
p3482
aF8.88595
aI0
aI01
aI00
aI00
aI00
aI00
aI00
aI00
aI00
aa(lp3483
I234378
aF125.325
aF61.1388
aVp4
p3484
aS'utopia'
p3485
aS'#656565'
p3486
aF8.88595
aI0
aI00
aI00
aI00
aI00
aI00
aI00
aI00
aI00
aa(lp3487
I234378
aF129.43188666666666
aF61.1388
ag3484
aS'utopia'
p3488
aS'#656565'
p3489
aF8.88595
aI0
aI01
aI00
aI00
aI00
aI00
aI00
aI00
aI00
aa(lp3490
I234378
aF189.008
aF61.1388
aVp4
p3491
aS'utopia'
p3492
aS'#656565'
p3493
aF8.88595
aI0
aI00
aI00
aI00
aI00
aI00
aI00
aI00
aI00
aa(lp3494
I260
aF195.672
aF61.1388
aVp4
p3495
aS'utopia'
p3496
aS'#656565'
p3497
aF8.88595
aI0
aI01
aI00
aI00
aI00
aI00
aI00
aI00
aI00
aa(lp3498
I234378
aF249.728
aF61.1388
aVp4
p3499
aS'utopia'
p3500
aS'#656565'
p3501
aF8.88595
aI0
aI00
aI00
aI00
aI00
aI00
aI00
aI00
aI00
aa(lp3502
I234378
aF256.393
aF61.1388
aVp4
p3503
aS'utopia'
p3504
aS'#656565'
p3505
aF8.88595
aI0
aI01
aI00
aI00
aI00
aI00
aI00
aI00
aI00
aa(lp3506
I234378
aF302.303
aF61.1388
aVp4
p3507
aS'utopia'
p3508
aS'#656565'
p3509
aF8.88595
aI0
aI00
aI00
aI00
aI00
aI00
aI00
aI00
aI00
aa(lp3510
I234378
aF304.952495
aF61.1388
ag3507
aS'utopia'
p3511
aS'#656565'
p3512
aF8.88595
aI0
aI00
aI00
aI00
aI00
aI00
aI00
aI00
aI00
aa(lp3513
I148996
aF309.708
aF61.1388
aVp4
p3514
aS'utopia'
p3515
aS'#656565'
p3516
aF8.88595
aI0
aI01
aI00
aI00
aI00
aI00
aI00
aI00
aI00
aa(lp3517
I234378
aF333.29134285714287
aF61.1388
ag3514
aS'utopia'
p3518
aS'#656565'
p3519
aF8.88595
aI0
aI00
aI00
aI00
aI00
aI00
aI00
aI00
aI00
aa(lp3520
I176767
aF339.328
aF61.1388
aVp4
p3521
aS'utopia'
p3522
aS'#656565'
p3523
aF8.88595
aI0
aI01
aI00
aI00
aI00
aI00
aI00
aI00
aI00
aa(lp3524
I234378
aF381.537
aF61.1388
aVp4
p3525
aS'utopia'
p3526
aS'#656565'
p3527
aF8.88595
aI0
aI00
aI00
aI00
aI00
aI00
aI00
aI00
aI00
aa(lp3528
I45445
aF385.346475
aF61.1388
ag3525
aS'utopia'
p3529
aS'#656565'
p3530
aF8.88595
aI0
aI01
aI00
aI00
aI00
aI00
aI00
aI00
aI00
aa(lp3531
I234378
aF401.203325
aF61.1388
ag3525
aS'utopia'
p3532
aS'#656565'
p3533
aF8.88595
aI0
aI00
aI00
aI00
aI00
aI00
aI00
aI00
aI00
aa(lp3534
I234378
aF414.118
aF61.1388
aVp4
p3535
aS'utopia'
p3536
aS'#656565'
p3537
aF8.88595
aI0
aI00
aI00
aI00
aI00
aI00
aI00
aI00
aI00
aa(lp3538
I234378
aF438.9707714285714
aF61.1388
ag3535
aS'utopia'
p3539
aS'#656565'
p3540
aF8.88595
aI0
aI00
aI00
aI00
aI00
aI00
aI00
aI00
aI00
aa(lp3541
I234378
aF445.219
aF61.1388
aVp4
p3542
aS'utopia'
p3543
aS'#656565'
p3544
aF8.88595
aI0
aI01
aI00
aI00
aI00
aI00
aI00
aI00
aI00
aa(lp3545
I210461
aF40.9084
aF75.2082
aVp4
p3546
aS'utopia'
p3547
aS'#656565'
p3548
aF8.88595
aI0
aI01
aI00
aI00
aI00
aI00
aI00
aI00
aI00
aa(lp3549
I340
aF65.3448
aF75.2082
aVp4
p3550
aS'utopia'
p3551
aS'#656565'
p3552
aF8.88595
aI0
aI01
aI00
aI00
aI00
aI00
aI00
aI00
aI00
aa(lp3553
I234378
aF79.65472000000001
aF75.2082
ag3550
aS'utopia'
p3554
aS'#656565'
p3555
aF8.88595
aI0
aI00
aI00
aI00
aI00
aI00
aI00
aI00
aI00
aa(lp3556
I234378
aF87.5597
aF75.2082
aVp4
p3557
aS'utopia'
p3558
aS'#656565'
p3559
aF8.88595
aI0
aI00
aI00
aI01
aI01
aI01
aI00
aI00
aI00
aa(lp3560
I176435
aF40.9084
aF89.2776
aVp4
p3561
aS'utopia'
p3562
aS'#656565'
p3563
aF8.88595
aI0
aI01
aI00
aI00
aI00
aI00
aI00
aI00
aI00
aa(lp3564
I234378
aF60.9018
aF89.2776
aVp4
p3565
aS'utopia'
p3566
aS'#656565'
p3567
aF8.88595
aI0
aI00
aI00
aI00
aI00
aI00
aI00
aI00
aI00
aa(lp3568
I150037
aF67.5663
aF89.2776
aVp4
p3569
aS'utopia'
p3570
aS'#656565'
p3571
aF8.88595
aI0
aI01
aI00
aI00
aI00
aI00
aI00
aI00
aI00
aa(lp3572
I176435
aF40.9084
aF103.347
aVp4
p3573
aS'utopia'
p3574
aS'#656565'
p3575
aF8.88595
aI0
aI01
aI00
aI00
aI00
aI00
aI00
aI00
aI00
aa(lp3576
I66756
aF60.9018
aF103.347
aVp4
p3577
aS'utopia'
p3578
aS'#656565'
p3579
aF8.88595
aI0
aI01
aI00
aI00
aI00
aI00
aI00
aI00
aI00
aa(lp3580
I234378
aF105.12885833333334
aF103.347
ag3577
aS'utopia'
p3581
aS'#656565'
p3582
aF8.88595
aI0
aI00
aI00
aI00
aI00
aI00
aI00
aI00
aI00
aa(lp3583
I125458
aF128.287
aF103.347
aVp4
p3584
aS'utopia'
p3585
aS'#656565'
p3586
aF8.88595
aI0
aI01
aI00
aI00
aI00
aI00
aI00
aI00
aI00
aa(lp3587
I16331
aF161.609
aF103.347
aVp4
p3588
aS'utopia'
p3589
aS'#656565'
p3590
aF8.88595
aI0
aI00
aI00
aI00
aI00
aI00
aI00
aI00
aI00
aa(lp3591
I166593
aF171.976
aF103.347
aVp4
p3592
aS'utopia'
p3593
aS'#656565'
p3594
aF8.88595
aI0
aI00
aI00
aI00
aI00
aI00
aI00
aI00
aI00
aa(lp3595
I43275
aF178.641
aF103.347
aVp4
p3596
aS'utopia'
p3597
aS'#656565'
p3598
aF8.88595
aI0
aI01
aI00
aI00
aI00
aI00
aI00
aI00
aI00
aa(lp3599
I175409
aF211.222
aF103.347
aVp4
p3600
aS'utopia'
p3601
aS'#656565'
p3602
aF8.88595
aI0
aI01
aI00
aI00
aI00
aI00
aI00
aI00
aI00
aa(lp3603
I234378
aF228.49392
aF103.347
ag3600
aS'utopia'
p3604
aS'#656565'
p3605
aF8.88595
aI0
aI00
aI00
aI00
aI00
aI00
aI00
aI00
aI00
aa(lp3606
I202216
aF249.728
aF103.347
aVp4
p3607
aS'utopia'
p3608
aS'#656565'
p3609
aF8.88595
aI0
aI01
aI00
aI00
aI00
aI00
aI00
aI00
aI00
aa(lp3610
I166558
aF303.784
aF103.347
aVp4
p3611
aS'utopia'
p3612
aS'#656565'
p3613
aF8.88595
aI0
aI00
aI00
aI00
aI00
aI00
aI00
aI00
aI00
aa(lp3614
I85218
aF336.366
aF103.347
aVp4
p3615
aS'utopia'
p3616
aS'#656565'
p3617
aF8.88595
aI0
aI00
aI00
aI00
aI00
aI00
aI00
aI00
aI00
aa(lp3618
I79436
aF353.398
aF103.347
aVp4
p3619
aS'utopia'
p3620
aS'#656565'
p3621
aF8.88595
aI0
aI00
aI00
aI00
aI00
aI00
aI00
aI00
aI00
aa(lp3622
I234378
aF373.391
aF103.347
aVp4
p3623
aS'utopia'
p3624
aS'#656565'
p3625
aF8.88595
aI0
aI00
aI00
aI00
aI00
aI00
aI00
aI00
aI00
aa(lp3626
I22476
aF428.188
aF103.347
aVp4
p3627
aS'utopia'
p3628
aS'#656565'
p3629
aF8.88595
aI0
aI00
aI00
aI00
aI00
aI00
aI00
aI00
aI00
aa(lp3630
I68032
aF450.403
aF103.347
aVp4
p3631
aS'utopia'
p3632
aS'#656565'
p3633
aF8.88595
aI0
aI01
aI00
aI00
aI00
aI00
aI00
aI00
aI00
aa(lp3634
I85218
aF505.94
aF103.347
aVp4
p3635
aS'utopia'
p3636
aS'#656565'
p3637
aF8.88595
aI0
aI00
aI00
aI00
aI00
aI00
aI00
aI00
aI00
aa(lp3638
I112275
aF522.971
aF103.347
aVp4
p3639
aS'utopia'
p3640
aS'#656565'
p3641
aF8.88595
aI0
aI00
aI00
aI00
aI00
aI00
aI00
aI00
aI00
aa(lp3642
I125078
aF40.9084
aF113.714
aVp4
p3643
aS'utopia'
p3644
aS'#656565'
p3645
aF8.88595
aI0
aI00
aI00
aI00
aI00
aI00
aI00
aI00
aI00
aa(lp3646
I144489
aF69.0473
aF113.714
aVp4
p3647
aS'utopia'
p3648
aS'#656565'
p3649
aF8.88595
aI0
aI00
aI00
aI00
aI00
aI00
aI00
aI00
aI00
aa(lp3650
I194354
aF79.4142
aF113.714
aVp4
p3651
aS'utopia'
p3652
aS'#656565'
p3653
aF8.88595
aI0
aI00
aI00
aI00
aI00
aI00
aI00
aI00
aI00
aa(lp3654
I123665
aF94.2241
aF113.714
aVp4
p3655
aS'utopia'
p3656
aS'#656565'
p3657
aF8.88595
aI0
aI00
aI00
aI00
aI00
aI00
aI00
aI00
aI00
aa(lp3658
I110106
aF154.945
aF113.714
aVp4
p3659
aS'utopia'
p3660
aS'#656565'
p3661
aF8.88595
aI0
aI01
aI00
aI00
aI00
aI00
aI00
aI00
aI00
aa(lp3662
I144489
aF189.008
aF113.714
aVp4
p3663
aS'utopia'
p3664
aS'#656565'
p3665
aF8.88595
aI0
aI00
aI00
aI00
aI00
aI00
aI00
aI00
aI00
aa(lp3666
I194354
aF199.375
aF113.714
aVp4
p3667
aS'utopia'
p3668
aS'#656565'
p3669
aF8.88595
aI0
aI00
aI00
aI00
aI00
aI00
aI00
aI00
aI00
aa(lp3670
I234378
aF214.184
aF113.714
aVp4
p3671
aS'utopia'
p3672
aS'#656565'
p3673
aF8.88595
aI0
aI00
aI00
aI00
aI00
aI00
aI00
aI00
aI00
aa(lp3674
I147288
aF234.918
aF113.714
aVp4
p3675
aS'utopia'
p3676
aS'#656565'
p3677
aF8.88595
aI0
aI00
aI00
aI00
aI00
aI00
aI00
aI00
aI00
aa(lp3678
I135639
aF260.836
aF113.714
aVp4
p3679
aS'utopia'
p3680
aS'#656565'
p3681
aF8.88595
aI0
aI00
aI00
aI00
aI00
aI00
aI00
aI00
aI00
aa(lp3682
I234378
aF270.462
aF113.714
aVp4
p3683
aS'utopia'
p3684
aS'#656565'
p3685
aF8.88595
aI0
aI01
aI01
aI00
aI00
aI00
aI00
aI00
aI00
aa(lp3686
I234378
aF285.543675
aF113.714
ag3683
aS'utopia'
p3687
aS'#656565'
p3688
aF8.88595
aI0
aI00
aI00
aI00
aI00
aI00
aI00
aI00
aI00
aa(lp3689
I177958
aF40.9084
aF127.783
aVp4
p3690
aS'utopia'
p3691
aS'#656565'
p3692
aF8.88595
aI0
aI01
aI00
aI00
aI00
aI00
aI00
aI00
aI00
aa(lp3693
I234378
aF71.2688
aF127.783
aVp4
p3694
aS'utopia'
p3695
aS'#656565'
p3696
aF8.88595
aI0
aI01
aI00
aI00
aI00
aI00
aI00
aI00
aI00
aa(lp3697
I234378
aF96.6393375
aF127.783
ag3694
aS'utopia'
p3698
aS'#656565'
p3699
aF8.88595
aI0
aI00
aI00
aI00
aI00
aI00
aI00
aI00
aI00
aa(lp3700
I234378
aF104.591
aF127.783
aVp4
p3701
aS'utopia'
p3702
aS'#656565'
p3703
aF8.88595
aI0
aI01
aI00
aI00
aI00
aI00
aI00
aI00
aI00
aa(lp3704
I61503
aF130.508
aF127.783
aVp4
p3705
aS'utopia'
p3706
aS'#656565'
p3707
aF8.88595
aI0
aI01
aI00
aI00
aI00
aI00
aI00
aI00
aI00
aa(lp3708
I22474
aF166.052
aF127.783
aVp4
p3709
aS'utopia'
p3710
aS'#656565'
p3711
aF8.88595
aI0
aI00
aI00
aI00
aI00
aI00
aI00
aI00
aI00
aa(lp3712
I16329
aF174.198
aF127.783
aVp4
p3713
aS'utopia'
p3714
aS'#656565'
p3715
aF8.88595
aI0
aI00
aI00
aI00
aI00
aI00
aI00
aI00
aI00
aa(lp3716
I234378
aF186.046
aF127.783
aVp4
p3717
aS'utopia'
p3718
aS'#656565'
p3719
aF8.88595
aI0
aI00
aI00
aI00
aI00
aI00
aI00
aI00
aI00
aa(lp3720
I89958
aF219.368
aF127.783
aVp4
p3721
aS'utopia'
p3722
aS'#656565'
p3723
aF8.88595
aI0
aI00
aI00
aI00
aI00
aI00
aI00
aI00
aI00
aa(lp3724
I169566
aF252.69
aF127.783
aVp4
p3725
aS'utopia'
p3726
aS'#656565'
p3727
aF8.88595
aI0
aI00
aI00
aI00
aI00
aI00
aI00
aI00
aI00
aa(lp3728
I92710
aF286.013
aF127.783
aVp4
p3729
aS'utopia'
p3730
aS'#656565'
p3731
aF8.88595
aI0
aI00
aI00
aI00
aI00
aI00
aI00
aI00
aI00
aa(lp3732
I84662
aF321.556
aF127.783
aVp4
p3733
aS'utopia'
p3734
aS'#656565'
p3735
aF8.88595
aI0
aI00
aI00
aI00
aI00
aI00
aI00
aI00
aI00
aa(lp3736
I89958
aF341.55
aF127.783
aVp4
p3737
aS'utopia'
p3738
aS'#656565'
p3739
aF8.88595
aI0
aI00
aI00
aI00
aI00
aI00
aI00
aI00
aI00
aa(lp3740
I207716
aF374.872
aF127.783
aVp4
p3741
aS'utopia'
p3742
aS'#656565'
p3743
aF8.88595
aI0
aI00
aI00
aI00
aI00
aI00
aI00
aI00
aI00
aa(lp3744
I85218
aF404.492
aF127.783
aVp4
p3745
aS'utopia'
p3746
aS'#656565'
p3747
aF8.88595
aI0
aI00
aI00
aI00
aI00
aI00
aI00
aI00
aI00
aa(lp3748
I234378
aF421.523
aF127.783
aVp4
p3749
aS'utopia'
p3750
aS'#656565'
p3751
aF8.88595
aI0
aI01
aI00
aI00
aI00
aI00
aI00
aI00
aI00
aa(lp3752
I234378
aF466.694
aF127.783
aVp4
p3753
aS'utopia'
p3754
aS'#656565'
p3755
aF8.88595
aI0
aI00
aI00
aI00
aI00
aI00
aI00
aI00
aI00
aa(lp3756
I234378
aF502.237
aF127.783
aVp4
p3757
aS'utopia'
p3758
aS'#656565'
p3759
aF8.88595
aI0
aI00
aI00
aI00
aI00
aI00
aI00
aI00
aI00
aa(lp3760
I89347
aF505.88942000000003
aF127.783
ag3757
aS'utopia'
p3761
aS'#656565'
p3762
aF8.88595
aI0
aI00
aI00
aI00
aI00
aI00
aI00
aI00
aI00
aa(lp3763
I144503
aF540.743
aF127.783
aVp4
p3764
aS'utopia'
p3765
aS'#656565'
p3766
aF8.88595
aI0
aI00
aI00
aI00
aI00
aI00
aI00
aI00
aI00
aa(lp3767
I146188
aF40.9084
aF138.15
aVp4
p3768
aS'utopia'
p3769
aS'#656565'
p3770
aF8.88595
aI0
aI00
aI00
aI00
aI00
aI00
aI00
aI00
aI00
aa(lp3771
I89347
aF58.6803
aF138.15
aVp4
p3772
aS'utopia'
p3773
aS'#656565'
p3774
aF8.88595
aI0
aI00
aI00
aI00
aI00
aI00
aI00
aI00
aI00
aa(lp3775
I234378
aF94.8494052631579
aF138.15
ag3772
aS'utopia'
p3776
aS'#656565'
p3777
aF8.88595
aI0
aI00
aI00
aI00
aI00
aI00
aI00
aI00
aI00
aa(lp3778
I234378
aF98.86819473684211
aF138.15
ag3772
aS'utopia'
p3779
aS'#656565'
p3780
aF8.88595
aI0
aI00
aI00
aI00
aI00
aI00
aI00
aI00
aI00
aa(lp3781
I192651
aF137.173
aF138.15
aVp4
p3782
aS'utopia'
p3783
aS'#656565'
p3784
aF8.88595
aI0
aI00
aI00
aI00
aI00
aI00
aI00
aI00
aI00
aa(lp3785
I194354
aF149.021
aF138.15
aVp4
p3786
aS'utopia'
p3787
aS'#656565'
p3788
aF8.88595
aI0
aI00
aI00
aI00
aI00
aI00
aI00
aI00
aI00
aa(lp3789
I120218
aF163.831
aF138.15
aVp4
p3790
aS'utopia'
p3791
aS'#656565'
p3792
aF8.88595
aI0
aI00
aI00
aI00
aI00
aI00
aI00
aI00
aI00
aa(lp3793
I22474
aF203.818
aF138.15
aVp4
p3794
aS'utopia'
p3795
aS'#656565'
p3796
aF8.88595
aI0
aI00
aI00
aI00
aI00
aI00
aI00
aI00
aI00
aa(lp3797
I234378
aF211.963
aF138.15
aVp4
p3798
aS'utopia'
p3799
aS'#656565'
p3800
aF8.88595
aI0
aI00
aI00
aI00
aI00
aI00
aI00
aI00
aI00
aa(lp3801
I16334
aF249.728
aF138.15
aVp4
p3802
aS'utopia'
p3803
aS'#656565'
p3804
aF8.88595
aI0
aI00
aI00
aI00
aI00
aI00
aI00
aI00
aI00
aa(lp3805
I194354
aF259.355
aF138.15
aVp4
p3806
aS'utopia'
p3807
aS'#656565'
p3808
aF8.88595
aI0
aI00
aI00
aI00
aI00
aI00
aI00
aI00
aI00
aa(lp3809
I234378
aF274.165
aF138.15
aVp4
p3810
aS'utopia'
p3811
aS'#656565'
p3812
aF8.88595
aI0
aI00
aI00
aI00
aI00
aI00
aI00
aI00
aI00
aa(lp3813
I89958
aF307.487
aF138.15
aVp4
p3814
aS'utopia'
p3815
aS'#656565'
p3816
aF8.88595
aI0
aI00
aI00
aI00
aI00
aI00
aI00
aI00
aI00
aa(lp3817
I96642
aF340.809
aF138.15
aVp4
p3818
aS'utopia'
p3819
aS'#656565'
p3820
aF8.88595
aI0
aI00
aI00
aI00
aI00
aI00
aI00
aI00
aI00
aa(lp3821
I79436
aF367.467
aF138.15
aVp4
p3822
aS'utopia'
p3823
aS'#656565'
p3824
aF8.88595
aI0
aI00
aI00
aI00
aI00
aI00
aI00
aI00
aI00
aa(lp3825
I22476
aF387.46
aF138.15
aVp4
p3826
aS'utopia'
p3827
aS'#656565'
p3828
aF8.88595
aI0
aI00
aI00
aI00
aI00
aI00
aI00
aI00
aI00
aa(lp3829
I234378
aF394.865
aF138.15
aVp4
p3830
aS'utopia'
p3831
aS'#656565'
p3832
aF8.88595
aI0
aI00
aI00
aI00
aI00
aI00
aI00
aI00
aI00
aa(lp3833
I194354
aF411.156
aF138.15
aVp4
p3834
aS'utopia'
p3835
aS'#656565'
p3836
aF8.88595
aI0
aI00
aI00
aI00
aI00
aI00
aI00
aI00
aI00
aa(lp3837
I84662
aF425.966
aF138.15
aVp4
p3838
aS'utopia'
p3839
aS'#656565'
p3840
aF8.88595
aI0
aI00
aI00
aI00
aI00
aI00
aI00
aI00
aI00
aa(lp3841
I89958
aF445.96
aF138.15
aVp4
p3842
aS'utopia'
p3843
aS'#656565'
p3844
aF8.88595
aI0
aI00
aI00
aI00
aI00
aI00
aI00
aI00
aI00
aa(lp3845
I96642
aF479.282
aF138.15
aVp4
p3846
aS'utopia'
p3847
aS'#656565'
p3848
aF8.88595
aI0
aI00
aI00
aI00
aI00
aI00
aI00
aI00
aI00
aa(lp3849
I37654
aF505.94
aF138.15
aVp4
p3850
aS'utopia'
p3851
aS'#656565'
p3852
aF8.88595
aI0
aI00
aI00
aI00
aI00
aI00
aI00
aI00
aI00
aa(lp3853
I19784
aF532.598
aF138.15
aVp4
p3854
aS'utopia'
p3855
aS'#656565'
p3856
aF8.88595
aI0
aI00
aI00
aI00
aI00
aI00
aI00
aI00
aI00
aa(lp3857
I230071
aF40.9084
aF148.517
aVp4
p3858
aS'utopia'
p3859
aS'#656565'
p3860
aF8.88595
aI0
aI00
aI00
aI00
aI00
aI00
aI00
aI00
aI00
aa(lp3861
I21605
aF60.9018
aF148.517
aVp4
p3862
aS'utopia'
p3863
aS'#656565'
p3864
aF8.88595
aI0
aI00
aI00
aI00
aI00
aI00
aI00
aI00
aI00
aa(lp3865
I22474
aF107.553
aF148.517
aVp4
p3866
aS'utopia'
p3867
aS'#656565'
p3868
aF8.88595
aI0
aI00
aI00
aI00
aI00
aI00
aI00
aI00
aI00
aa(lp3869
I234378
aF115.699
aF148.517
aVp4
p3870
aS'utopia'
p3871
aS'#656565'
p3872
aF8.88595
aI0
aI00
aI00
aI00
aI00
aI00
aI00
aI00
aI00
aa(lp3873
I212148
aF160.869
aF148.517
aVp4
p3874
aS'utopia'
p3875
aS'#656565'
p3876
aF8.88595
aI0
aI00
aI00
aI00
aI00
aI00
aI00
aI00
aI00
aa(lp3877
I134763
aF186.786
aF148.517
aVp4
p3878
aS'utopia'
p3879
aS'#656565'
p3880
aF8.88595
aI0
aI00
aI00
aI00
aI00
aI00
aI00
aI00
aI00
aa(lp3881
I231432
aF206.039
aF148.517
aVp4
p3882
aS'utopia'
p3883
aS'#656565'
p3884
aF8.88595
aI0
aI00
aI00
aI00
aI00
aI00
aI00
aI00
aI00
aa(lp3885
I234378
aF239.361
aF148.517
aVp4
p3886
aS'utopia'
p3887
aS'#656565'
p3888
aF8.88595
aI0
aI00
aI00
aI00
aI00
aI00
aI00
aI00
aI00
aa(lp3889
I234378
aF285.272
aF148.517
aVp4
p3890
aS'utopia'
p3891
aS'#656565'
p3892
aF8.88595
aI0
aI00
aI00
aI00
aI00
aI00
aI00
aI00
aI00
aa(lp3893
I234378
aF289.715
aF148.517
aVp4
p3894
aS'utopia'
p3895
aS'#656565'
p3896
aF8.88595
aI0
aI01
aI00
aI00
aI00
aI00
aI00
aI00
aI00
aa(lp3897
I61503
aF315.632
aF148.517
aVp4
p3898
aS'utopia'
p3899
aS'#656565'
p3900
aF8.88595
aI0
aI01
aI00
aI00
aI00
aI00
aI00
aI00
aI00
aa(lp3901
I22474
aF351.176
aF148.517
aVp4
p3902
aS'utopia'
p3903
aS'#656565'
p3904
aF8.88595
aI0
aI00
aI00
aI00
aI00
aI00
aI00
aI00
aI00
aa(lp3905
I234378
aF359.322
aF148.517
aVp4
p3906
aS'utopia'
p3907
aS'#656565'
p3908
aF8.88595
aI0
aI00
aI00
aI00
aI00
aI00
aI00
aI00
aI00
aa(lp3909
I190806
aF414.118
aF148.517
aVp4
p3910
aS'utopia'
p3911
aS'#656565'
p3912
aF8.88595
aI0
aI00
aI00
aI00
aI00
aI00
aI00
aI00
aI00
aa(lp3913
I157671
aF428.188
aF148.517
aVp4
p3914
aS'utopia'
p3915
aS'#656565'
p3916
aF8.88595
aI0
aI00
aI00
aI00
aI00
aI00
aI00
aI00
aI00
aa(lp3917
I13642
aF457.808
aF148.517
aVp4
p3918
aS'utopia'
p3919
aS'#656565'
p3920
aF8.88595
aI0
aI00
aI00
aI00
aI00
aI00
aI00
aI00
aI00
aa(lp3921
I234378
aF510.383
aF148.517
aVp4
p3922
aS'utopia'
p3923
aS'#656565'
p3924
aF8.88595
aI0
aI00
aI00
aI00
aI00
aI00
aI00
aI00
aI00
aa(lp3925
I144483
aF537.781
aF148.517
aVp4
p3926
aS'utopia'
p3927
aS'#656565'
p3928
aF8.88595
aI0
aI00
aI00
aI00
aI00
aI00
aI00
aI00
aI00
aa(lp3929
I194354
aF40.9084
aF158.884
aVp4
p3930
aS'utopia'
p3931
aS'#656565'
p3932
aF8.88595
aI0
aI00
aI00
aI00
aI00
aI00
aI00
aI00
aI00
aa(lp3933
I164516
aF55.7183
aF158.884
aVp4
p3934
aS'utopia'
p3935
aS'#656565'
p3936
aF8.88595
aI0
aI00
aI00
aI00
aI00
aI00
aI00
aI00
aI00
aa(lp3937
I144489
aF77.1927
aF158.884
aVp4
p3938
aS'utopia'
p3939
aS'#656565'
p3940
aF8.88595
aI0
aI00
aI00
aI00
aI00
aI00
aI00
aI00
aI00
aa(lp3941
I218852
aF87.5597
aF158.884
aVp4
p3942
aS'utopia'
p3943
aS'#656565'
p3944
aF8.88595
aI0
aI00
aI00
aI00
aI00
aI00
aI00
aI00
aI00
aa(lp3945
I202216
aF108.294
aF158.884
aVp4
p3946
aS'utopia'
p3947
aS'#656565'
p3948
aF8.88595
aI0
aI00
aI00
aI00
aI00
aI00
aI00
aI00
aI00
aa(lp3949
I234378
aF160.128
aF158.884
aVp4
p3950
aS'utopia'
p3951
aS'#656565'
p3952
aF8.88595
aI0
aI00
aI00
aI00
aI00
aI00
aI00
aI00
aI00
aa(lp3953
I197030
aF162.77601499999997
aF158.884
ag3950
aS'utopia'
p3954
aS'#656565'
p3955
aF8.88595
aI0
aI01
aI01
aI00
aI00
aI00
aI00
aI00
aI00
aa(lp3956
I62551
aF167.533
aF158.884
aVp4
p3957
aS'utopia'
p3958
aS'#656565'
p3959
aF8.88595
aI0
aI00
aI00
aI00
aI00
aI00
aI00
aI00
aI00
aa(lp3960
I125458
aF188.267
aF158.884
aVp4
p3961
aS'utopia'
p3962
aS'#656565'
p3963
aF8.88595
aI0
aI00
aI00
aI00
aI00
aI00
aI00
aI00
aI00
aa(lp3964
I190806
aF220.108
aF158.884
aVp4
p3965
aS'utopia'
p3966
aS'#656565'
p3967
aF8.88595
aI0
aI00
aI00
aI00
aI00
aI00
aI00
aI00
aI00
aa(lp3968
I194354
aF234.178
aF158.884
aVp4
p3969
aS'utopia'
p3970
aS'#656565'
p3971
aF8.88595
aI0
aI00
aI00
aI00
aI00
aI00
aI00
aI00
aI00
aa(lp3972
I1109
aF248.988
aF158.884
aVp4
p3973
aS'utopia'
p3974
aS'#656565'
p3975
aF8.88595
aI0
aI00
aI00
aI00
aI00
aI00
aI00
aI00
aI00
aa(lp3976
I234378
aF287.494
aF158.884
aVp4
p3977
aS'utopia'
p3978
aS'#656565'
p3979
aF8.88595
aI0
aI01
aI00
aI00
aI00
aI00
aI00
aI00
aI00
aa(lp3980
I234378
aF312.86453750000004
aF158.884
ag3977
aS'utopia'
p3981
aS'#656565'
p3982
aF8.88595
aI0
aI00
aI00
aI00
aI00
aI00
aI00
aI00
aI00
aa(lp3983
I161851
aF318.594
aF158.884
aVp4
p3984
aS'utopia'
p3985
aS'#656565'
p3986
aF8.88595
aI0
aI00
aI00
aI00
aI00
aI00
aI00
aI00
aI00
aa(lp3987
I154963
aF325.999
aF158.884
aVp4
p3988
aS'utopia'
p3989
aS'#656565'
p3990
aF8.88595
aI0
aI01
aI00
aI00
aI00
aI00
aI00
aI00
aI00
aa(lp3991
I49053
aF348.214
aF158.884
aVp4
p3992
aS'utopia'
p3993
aS'#656565'
p3994
aF8.88595
aI0
aI01
aI00
aI00
aI00
aI00
aI00
aI00
aI00
aa(lp3995
I171568
aF383.018
aF158.884
aVp4
p3996
aS'utopia'
p3997
aS'#656565'
p3998
aF8.88595
aI0
aI01
aI00
aI00
aI00
aI00
aI00
aI00
aI00
aa(lp3999
I234378
aF413.378
aF158.884
aVp4
p4000
aS'utopia'
p4001
aS'#656565'
p4002
aF8.88595
aI0
aI00
aI00
aI00
aI00
aI00
aI00
aI00
aI00
aa(lp4003
I148968
aF417.09736
aF158.884
ag4000
aS'utopia'
p4004
aS'#656565'
p4005
aF8.88595
aI0
aI01
aI00
aI00
aI00
aI00
aI00
aI00
aI00
aa(lp4006
I161851
aF452.624
aF158.884
aVp4
p4007
aS'utopia'
p4008
aS'#656565'
p4009
aF8.88595
aI0
aI00
aI00
aI00
aI00
aI00
aI00
aI00
aI00
aa(lp4010
I79647
aF460.029
aF158.884
aVp4
p4011
aS'utopia'
p4012
aS'#656565'
p4013
aF8.88595
aI0
aI01
aI00
aI00
aI00
aI00
aI00
aI00
aI00
aa(lp4014
I91539
aF525.933
aF158.884
aVp4
p4015
aS'utopia'
p4016
aS'#656565'
p4017
aF8.88595
aI0
aI01
aI00
aI00
aI00
aI00
aI00
aI00
aI00
aa(lp4018
I234378
aF40.9084
aF169.251
aVp4
p4019
aS'utopia'
p4020
aS'#656565'
p4021
aF8.88595
aI0
aI00
aI00
aI00
aI00
aI00
aI00
aI00
aI00
aa(lp4022
I148968
aF44.62776
aF169.251
ag4019
aS'utopia'
p4023
aS'#656565'
p4024
aF8.88595
aI0
aI01
aI00
aI00
aI00
aI00
aI00
aI00
aI00
aa(lp4025
I161851
aF80.1547
aF169.251
aVp4
p4026
aS'utopia'
p4027
aS'#656565'
p4028
aF8.88595
aI0
aI00
aI00
aI00
aI00
aI00
aI00
aI00
aI00
aa(lp4029
I93208
aF87.5597
aF169.251
aVp4
p4030
aS'utopia'
p4031
aS'#656565'
p4032
aF8.88595
aI0
aI01
aI00
aI00
aI00
aI00
aI00
aI00
aI00
aa(lp4033
I91539
aF110.515
aF169.251
aVp4
p4034
aS'utopia'
p4035
aS'#656565'
p4036
aF8.88595
aI0
aI01
aI00
aI00
aI00
aI00
aI00
aI00
aI00
aa(lp4037
I234378
aF132.73
aF169.251
aVp4
p4038
aS'utopia'
p4039
aS'#656565'
p4040
aF8.88595
aI0
aI00
aI00
aI00
aI00
aI00
aI00
aI00
aI00
aa(lp4041
I234378
aF137.173
aF169.251
aVp4
p4042
aS'utopia'
p4043
aS'#656565'
p4044
aF8.88595
aI0
aI01
aI00
aI00
aI00
aI00
aI00
aI00
aI00
aa(lp4045
I161851
aF176.419
aF169.251
aVp4
p4046
aS'utopia'
p4047
aS'#656565'
p4048
aF8.88595
aI0
aI00
aI00
aI00
aI00
aI00
aI00
aI00
aI00
aa(lp4049
I16936
aF183.824
aF169.251
aVp4
p4050
aS'utopia'
p4051
aS'#656565'
p4052
aF8.88595
aI0
aI01
aI00
aI00
aI00
aI00
aI00
aI00
aI00
aa(lp4053
I109130
aF233.437
aF169.251
aVp4
p4054
aS'utopia'
p4055
aS'#656565'
p4056
aF8.88595
aI0
aI01
aI00
aI00
aI00
aI00
aI00
aI00
aI00
aa(lp4057
I153843
aF266.76
aF169.251
aVp4
p4058
aS'utopia'
p4059
aS'#656565'
p4060
aF8.88595
aI0
aI01
aI00
aI00
aI00
aI00
aI00
aI00
aI00
aa(lp4061
I176139
aF293.418
aF169.251
aVp4
p4062
aS'utopia'
p4063
aS'#656565'
p4064
aF8.88595
aI0
aI01
aI00
aI00
aI00
aI00
aI00
aI00
aI00
aa(lp4065
I234378
aF320.075
aF169.251
aVp4
p4066
aS'utopia'
p4067
aS'#656565'
p4068
aF8.88595
aI0
aI00
aI00
aI00
aI00
aI00
aI00
aI00
aI00
aa(lp4069
I148968
aF323.79436
aF169.251
ag4066
aS'utopia'
p4070
aS'#656565'
p4071
aF8.88595
aI0
aI01
aI00
aI00
aI00
aI00
aI00
aI00
aI00
aa(lp4072
I234378
aF40.9084
aF206.169
aVp4
p4073
aS'utopia'
p4074
aS'#000000'
p4075
aF10.3669
aI1
aI01
aI01
aI00
aI00
aI00
aI00
aI00
aI00
aa(lp4076
I234378
aF63.1233
aF206.169
aVp4
p4077
aS'utopia'
p4078
aS'#000000'
p4079
aF10.3669
aI1
aI01
aI01
aI00
aI00
aI00
aI00
aI00
aI00
aa(lp4080
I103666
aF81.6357
aF206.169
aVp4
p4081
aS'utopia'
p4082
aS'#000000'
p4083
aF10.3669
aI1
aI01
aI01
aI00
aI00
aI00
aI00
aI00
aI00
aa(lp4084
I206869
aF40.9084
aF222.73
aVp4
p4085
aS'utopia'
p4086
aS'#656565'
p4087
aF10.3669
aI0
aI01
aI00
aI00
aI00
aI00
aI00
aI00
aI00
aa(lp4088
I76457
aF80.8952
aF222.73
aVp4
p4089
aS'utopia'
p4090
aS'#656565'
p4091
aF10.3669
aI0
aI00
aI00
aI00
aI00
aI00
aI00
aI00
aI00
aa(lp4092
I234378
aF107.553
aF222.73
aVp4
p4093
aS'utopia'
p4094
aS'#656565'
p4095
aF10.3669
aI0
aI00
aI00
aI00
aI00
aI00
aI00
aI00
aI00
aa(lp4096
I103666
aF146.799
aF222.73
aVp4
p4097
aS'utopia'
p4098
aS'#656565'
p4099
aF10.3669
aI0
aI00
aI00
aI00
aI00
aI00
aI00
aI00
aI00
aa(lp4100
I190806
aF186.046
aF222.73
aVp4
p4101
aS'utopia'
p4102
aS'#656565'
p4103
aF10.3669
aI0
aI00
aI00
aI00
aI00
aI00
aI00
aI00
aI00
aa(lp4104
I234378
aF200.856
aF222.73
aVp4
p4105
aS'utopia'
p4106
aS'#656565'
p4107
aF10.3669
aI0
aI00
aI00
aI00
aI00
aI00
aI00
aI00
aI00
aa(lp4108
I234378
aF243.804
aF222.73
aVp4
p4109
aS'utopia'
p4110
aS'#656565'
p4111
aF10.3669
aI0
aI01
aI00
aI00
aI00
aI00
aI00
aI00
aI00
aa(lp4112
I60201
aF280.829
aF222.73
aVp4
p4113
aS'utopia'
p4114
aS'#656565'
p4115
aF10.3669
aI0
aI01
aI00
aI00
aI00
aI00
aI00
aI00
aI00
aa(lp4116
I230071
aF300.822
aF222.73
aVp4
p4117
aS'utopia'
p4118
aS'#656565'
p4119
aF10.3669
aI0
aI01
aI00
aI00
aI00
aI00
aI00
aI00
aI00
aa(lp4120
I131049
aF331.923
aF222.73
aVp4
p4121
aS'utopia'
p4122
aS'#656565'
p4123
aF10.3669
aI0
aI00
aI00
aI00
aI00
aI00
aI00
aI00
aI00
aa(lp4124
I37510
aF356.36
aF222.73
aVp4
p4125
aS'utopia'
p4126
aS'#656565'
p4127
aF10.3669
aI0
aI01
aI00
aI00
aI00
aI00
aI00
aI00
aI01
aa(lp4128
I234378
aF377.094
aF222.73
aVp4
p4129
aS'utopia'
p4130
aS'#656565'
p4131
aF10.3669
aI0
aI00
aI00
aI01
aI01
aI01
aI00
aI00
aI00
aa(lp4132
I89480
aF400.049
aF222.73
aVp4
p4133
aS'utopia'
p4134
aS'#656565'
p4135
aF10.3669
aI0
aI00
aI00
aI00
aI00
aI00
aI00
aI00
aI00
aa(lp4136
I27216
aF411.897
aF222.73
aVp4
p4137
aS'utopia'
p4138
aS'#656565'
p4139
aF10.3669
aI0
aI01
aI00
aI00
aI00
aI00
aI00
aI00
aI01
aa(lp4140
I234378
aF430.409
aF222.73
aVp4
p4141
aS'utopia'
p4142
aS'#656565'
p4143
aF10.3669
aI0
aI00
aI00
aI01
aI01
aI01
aI00
aI00
aI00
aa(lp4144
I234378
aF40.9084
aF239.021
aVp4
p4145
aS'utopia'
p4146
aS'#656565'
p4147
aF10.3669
aI0
aI01
aI00
aI00
aI00
aI00
aI00
aI00
aI00
aa(lp4148
I109610
aF40.9084
aF255.149
aVp4
p4149
aS'utopia'
p4150
aS'#656565'
p4151
aF8.88595
aI0
aI01
aI00
aI00
aI00
aI00
aI00
aI00
aI00
aa(lp4152
I25729
aF58.6803
aF255.149
aVp4
p4153
aS'utopia'
p4154
aS'#656565'
p4155
aF8.88595
aI0
aI01
aI00
aI00
aI00
aI00
aI00
aI00
aI00
aa(lp4156
I234378
aF76.54462000000001
aF255.149
ag4153
aS'utopia'
p4157
aS'#656565'
p4158
aF8.88595
aI0
aI00
aI00
aI00
aI00
aI00
aI00
aI00
aI00
aa(lp4159
I233063
aF85.3382
aF255.149
aVp4
p4160
aS'utopia'
p4161
aS'#656565'
p4162
aF8.88595
aI0
aI00
aI00
aI00
aI00
aI00
aI00
aI00
aI00
aa(lp4163
I234378
aF91.624925
aF255.149
ag4160
aS'utopia'
p4164
aS'#656565'
p4165
aF8.88595
aI0
aI00
aI00
aI00
aI00
aI00
aI00
aI00
aI00
aa(lp4166
I84662
aF104.591
aF255.149
aVp4
p4167
aS'utopia'
p4168
aS'#656565'
p4169
aF8.88595
aI0
aI01
aI00
aI00
aI00
aI00
aI00
aI00
aI00
aa(lp4170
I21716
aF126.065
aF255.149
aVp4
p4171
aS'utopia'
p4172
aS'#656565'
p4173
aF8.88595
aI0
aI01
aI00
aI00
aI00
aI00
aI00
aI00
aI00
aa(lp4174
I234378
aF140.96732
aF255.149
ag4171
aS'utopia'
p4175
aS'#656565'
p4176
aF8.88595
aI0
aI00
aI00
aI00
aI00
aI00
aI00
aI00
aI00
aa(lp4177
I210461
aF40.9084
aF269.218
aVp4
p4178
aS'utopia'
p4179
aS'#656565'
p4180
aF8.88595
aI0
aI01
aI00
aI00
aI00
aI00
aI00
aI00
aI00
aa(lp4181
I340
aF65.3448
aF269.218
aVp4
p4182
aS'utopia'
p4183
aS'#656565'
p4184
aF8.88595
aI0
aI01
aI00
aI00
aI00
aI00
aI00
aI00
aI00
aa(lp4185
I234378
aF79.65472000000001
aF269.218
ag4182
aS'utopia'
p4186
aS'#656565'
p4187
aF8.88595
aI0
aI00
aI00
aI00
aI00
aI00
aI00
aI00
aI00
aa(lp4188
I234378
aF87.5597
aF269.218
aVp4
p4189
aS'utopia'
p4190
aS'#656565'
p4191
aF8.88595
aI0
aI00
aI00
aI01
aI01
aI00
aI00
aI00
aI00
aa(lp4192
I176435
aF40.9084
aF283.288
aVp4
p4193
aS'utopia'
p4194
aS'#656565'
p4195
aF8.88595
aI0
aI01
aI00
aI00
aI00
aI00
aI00
aI00
aI00
aa(lp4196
I234378
aF60.9018
aF283.288
aVp4
p4197
aS'utopia'
p4198
aS'#656565'
p4199
aF8.88595
aI0
aI00
aI00
aI00
aI00
aI00
aI00
aI00
aI00
aa(lp4200
I150037
aF67.5663
aF283.288
aVp4
p4201
aS'utopia'
p4202
aS'#656565'
p4203
aF8.88595
aI0
aI01
aI00
aI00
aI00
aI00
aI00
aI00
aI00
aa(lp4204
I176435
aF40.9084
aF297.357
aVp4
p4205
aS'utopia'
p4206
aS'#656565'
p4207
aF8.88595
aI0
aI01
aI00
aI00
aI00
aI00
aI00
aI00
aI00
aa(lp4208
I66756
aF60.9018
aF297.357
aVp4
p4209
aS'utopia'
p4210
aS'#656565'
p4211
aF8.88595
aI0
aI01
aI00
aI00
aI00
aI00
aI00
aI00
aI00
aa(lp4212
I234378
aF105.12885833333334
aF297.357
ag4209
aS'utopia'
p4213
aS'#656565'
p4214
aF8.88595
aI0
aI00
aI00
aI00
aI00
aI00
aI00
aI00
aI00
aa(lp4215
I123583
aF113.477
aF297.357
aVp4
p4216
aS'utopia'
p4217
aS'#656565'
p4218
aF8.88595
aI0
aI00
aI00
aI00
aI00
aI00
aI00
aI00
aI00
aa(lp4219
I16331
aF147.54
aF297.357
aVp4
p4220
aS'utopia'
p4221
aS'#656565'
p4222
aF8.88595
aI0
aI00
aI00
aI00
aI00
aI00
aI00
aI00
aI00
aa(lp4223
I166593
aF157.907
aF297.357
aVp4
p4224
aS'utopia'
p4225
aS'#656565'
p4226
aF8.88595
aI0
aI00
aI00
aI00
aI00
aI00
aI00
aI00
aI00
aa(lp4227
I150037
aF164.571
aF297.357
aVp4
p4228
aS'utopia'
p4229
aS'#656565'
p4230
aF8.88595
aI0
aI00
aI00
aI00
aI00
aI00
aI00
aI00
aI00
aa(lp4231
I177958
aF40.9084
aF311.426
aVp4
p4232
aS'utopia'
p4233
aS'#656565'
p4234
aF8.88595
aI0
aI01
aI00
aI00
aI00
aI00
aI00
aI00
aI00
aa(lp4235
I234378
aF71.2688
aF311.426
aVp4
p4236
aS'utopia'
p4237
aS'#656565'
p4238
aF8.88595
aI0
aI01
aI00
aI00
aI00
aI00
aI00
aI00
aI00
aa(lp4239
I234378
aF96.6393375
aF311.426
ag4236
aS'utopia'
p4240
aS'#656565'
p4241
aF8.88595
aI0
aI00
aI00
aI00
aI00
aI00
aI00
aI00
aI00
aa(lp4242
I206869
aF104.591
aF311.426
aVp4
p4243
aS'utopia'
p4244
aS'#656565'
p4245
aF8.88595
aI0
aI01
aI00
aI00
aI00
aI00
aI00
aI00
aI00
aa(lp4246
I76457
aF137.913
aF311.426
aVp4
p4247
aS'utopia'
p4248
aS'#656565'
p4249
aF8.88595
aI0
aI00
aI00
aI00
aI00
aI00
aI00
aI00
aI00
aa(lp4250
I234378
aF160.869
aF311.426
aVp4
p4251
aS'utopia'
p4252
aS'#656565'
p4253
aF8.88595
aI0
aI00
aI00
aI00
aI00
aI00
aI00
aI00
aI00
aa(lp4254
I103666
aF193.451
aF311.426
aVp4
p4255
aS'utopia'
p4256
aS'#656565'
p4257
aF8.88595
aI0
aI00
aI00
aI00
aI00
aI00
aI00
aI00
aI00
aa(lp4258
I190806
aF226.032
aF311.426
aVp4
p4259
aS'utopia'
p4260
aS'#656565'
p4261
aF8.88595
aI0
aI00
aI00
aI00
aI00
aI00
aI00
aI00
aI00
aa(lp4262
I234378
aF240.102
aF311.426
aVp4
p4263
aS'utopia'
p4264
aS'#656565'
p4265
aF8.88595
aI0
aI01
aI01
aI00
aI00
aI00
aI00
aI00
aI00
aa(lp4266
I234378
aF257.874
aF311.426
aVp4
p4267
aS'utopia'
p4268
aS'#656565'
p4269
aF8.88595
aI0
aI01
aI00
aI00
aI00
aI00
aI00
aI00
aI00
aa(lp4270
I177271
aF40.1679
aF354.393
aVp4
p4271
aS'utopia'
p4272
aS'#02304b'
p4273
aF11.8479
aI1
aI01
aI00
aI00
aI00
aI00
aI00
aI00
aI00
aa(lp4274
I234378
aF74.2307
aF354.393
aVp4
p4275
aS'utopia'
p4276
aS'#02304b'
p4277
aF11.8479
aI1
aI01
aI00
aI00
aI00
aI00
aI00
aI00
aI00
aa(lp4278
I7520
aF49.0539
aF378.705
aVp4
p4279
aS'utopia'
p4280
aS'#656565'
p4281
aF10.3669
aI1
aI01
aI00
aI00
aI00
aI00
aI00
aI00
aI00
aa(lp4282
I10865
aF93.4836
aF378.705
aVp4
p4283
aS'utopia'
p4284
aS'#656565'
p4285
aF10.3669
aI1
aI01
aI00
aI00
aI00
aI00
aI00
aI00
aI00
aa(lp4286
I132955
aF49.0539
aF394.362
aVp4
p4287
aS'utopia'
p4288
aS'#656565'
p4289
aF8.88595
aI0
aI01
aI00
aI00
aI00
aI00
aI00
aI00
aI00
aa(lp4290
I144489
aF69.7878
aF394.362
aVp4
p4291
aS'utopia'
p4292
aS'#656565'
p4293
aF8.88595
aI0
aI00
aI00
aI00
aI00
aI00
aI00
aI00
aI00
aa(lp4294
I132529
aF80.1547
aF394.362
aVp4
p4295
aS'utopia'
p4296
aS'#656565'
p4297
aF8.88595
aI0
aI01
aI00
aI00
aI00
aI00
aI00
aI00
aI00
aa(lp4298
I234378
aF98.76336666666667
aF394.362
ag4295
aS'utopia'
p4299
aS'#656565'
p4300
aF8.88595
aI0
aI00
aI00
aI00
aI00
aI00
aI00
aI00
aI00
aa(lp4301
I234378
aF104.591
aF394.362
aVp4
p4302
aS'utopia'
p4303
aS'#434343'
p4304
aF8.88595
aI0
aI00
aI00
aI01
aI01
aI01
aI00
aI00
aI00
aa(lp4305
I27216
aF115.699
aF394.362
aVp4
p4306
aS'utopia'
p4307
aS'#434343'
p4308
aF8.88595
aI0
aI01
aI00
aI00
aI00
aI00
aI00
aI00
aI01
aa(lp4309
I234378
aF131.249
aF394.362
aVp4
p4310
aS'utopia'
p4311
aS'#434343'
p4312
aF8.88595
aI0
aI00
aI00
aI01
aI01
aI01
aI00
aI00
aI00
aa(lp4313
I86794
aF293.418
aF382.407
aVp4
p4314
aS'utopia'
p4315
aS'#656565'
p4316
aF10.3669
aI1
aI01
aI00
aI00
aI00
aI00
aI00
aI00
aI00
aa(lp4317
I131455
aF331.923
aF382.407
aVp4
p4318
aS'utopia'
p4319
aS'#656565'
p4320
aF10.3669
aI1
aI01
aI00
aI00
aI00
aI00
aI00
aI00
aI00
aa(lp4321
I234378
aF349.695
aF382.407
aVp4
p4322
aS'utopia'
p4323
aS'#656565'
p4324
aF10.3669
aI1
aI01
aI00
aI00
aI00
aI00
aI00
aI00
aI00
aa(lp4325
I131455
aF293.418
aF398.064
aVp4
p4326
aS'utopia'
p4327
aS'#656565'
p4328
aF8.88595
aI0
aI01
aI00
aI00
aI00
aI00
aI00
aI00
aI00
aa(lp4329
I197416
aF308.968
aF398.064
aVp4
p4330
aS'utopia'
p4331
aS'#656565'
p4332
aF8.88595
aI0
aI01
aI00
aI00
aI00
aI00
aI00
aI00
aI00
aa(lp4333
I234378
aF326.23992000000004
aF398.064
ag4330
aS'utopia'
p4334
aS'#656565'
p4335
aF8.88595
aI0
aI00
aI00
aI00
aI00
aI00
aI00
aI00
aI00
aa(lp4336
I28425
aF332.664
aF398.064
aVp4
p4337
aS'utopia'
p4338
aS'#434343'
p4339
aF8.88595
aI0
aI01
aI00
aI00
aI00
aI00
aI00
aI00
aI00
aa(lp4340
I234378
aF378.575
aF398.064
aVp4
p4341
aS'utopia'
p4342
aS'#434343'
p4343
aF8.88595
aI0
aI00
aI00
aI00
aI00
aI00
aI00
aI00
aI00
aa(lp4344
I137944
aF383.1298636363636
aF398.064
ag4341
aS'utopia'
p4345
aS'#434343'
p4346
aF8.88595
aI0
aI01
aI00
aI00
aI00
aI00
aI00
aI00
aI00
aa(lp4347
I234378
aF414.1236363636363
aF398.064
ag4341
aS'utopia'
p4348
aS'#434343'
p4349
aF8.88595
aI0
aI00
aI00
aI00
aI00
aI00
aI00
aI00
aI00
aa(lp4350
I42298
aF428.67849999999993
aF398.064
ag4341
aS'utopia'
p4351
aS'#434343'
p4352
aF8.88595
aI0
aI01
aI00
aI00
aI00
aI00
aI00
aI00
aI00
aa(lp4353
I108944
aF49.0539
aF409.912
aVp4
p4354
aS'utopia'
p4355
aS'#656565'
p4356
aF8.88595
aI0
aI01
aI00
aI00
aI00
aI00
aI00
aI00
aI00
aa(lp4357
I234378
aF76.44544285714287
aF409.912
ag4354
aS'utopia'
p4358
aS'#656565'
p4359
aF8.88595
aI0
aI00
aI00
aI00
aI00
aI00
aI00
aI00
aI00
aa(lp4360
I104428
aF83.1167
aF409.912
aVp4
p4361
aS'utopia'
p4362
aS'#434343'
p4363
aF8.88595
aI0
aI01
aI00
aI00
aI00
aI00
aI00
aI00
aI00
aa(lp4364
I72722
aF293.418
aF413.615
aVp4
p4365
aS'utopia'
p4366
aS'#656565'
p4367
aF8.88595
aI0
aI01
aI00
aI00
aI00
aI00
aI00
aI00
aI00
aa(lp4368
I12510
aF346.733
aF413.615
aVp4
p4369
aS'utopia'
p4370
aS'#656565'
p4371
aF8.88595
aI0
aI01
aI00
aI00
aI00
aI00
aI00
aI00
aI00
aa(lp4372
I234378
aF369.0469142857143
aF413.615
ag4369
aS'utopia'
p4373
aS'#656565'
p4374
aF8.88595
aI0
aI00
aI00
aI00
aI00
aI00
aI00
aI00
aI00
aa(lp4375
I60201
aF374.872
aF413.615
aVp4
p4376
aS'utopia'
p4377
aS'#434343'
p4378
aF8.88595
aI0
aI01
aI00
aI00
aI00
aI00
aI00
aI00
aI00
aa(lp4379
I230071
aF391.903
aF413.615
aVp4
p4380
aS'utopia'
p4381
aS'#434343'
p4382
aF8.88595
aI0
aI01
aI00
aI00
aI00
aI00
aI00
aI00
aI00
aa(lp4383
I212271
aF49.0539
aF425.463
aVp4
p4384
aS'utopia'
p4385
aS'#656565'
p4386
aF8.88595
aI0
aI01
aI00
aI00
aI00
aI00
aI00
aI00
aI00
aa(lp4387
I12510
aF79.4142
aF425.463
aVp4
p4388
aS'utopia'
p4389
aS'#656565'
p4390
aF8.88595
aI0
aI01
aI00
aI00
aI00
aI00
aI00
aI00
aI00
aa(lp4391
I234378
aF101.72811428571428
aF425.463
ag4388
aS'utopia'
p4392
aS'#656565'
p4393
aF8.88595
aI0
aI00
aI00
aI00
aI00
aI00
aI00
aI00
aI00
aa(lp4394
I118865
aF107.553
aF425.463
aVp4
p4395
aS'utopia'
p4396
aS'#434343'
p4397
aF8.88595
aI0
aI01
aI00
aI00
aI00
aI00
aI00
aI00
aI00
aa(lp4398
I234378
aF133.68768749999998
aF425.463
ag4395
aS'utopia'
p4399
aS'#434343'
p4400
aF8.88595
aI0
aI00
aI00
aI00
aI00
aI00
aI00
aI00
aI00
aa(lp4401
I136874
aF138.04346875
aF425.463
ag4395
aS'utopia'
p4402
aS'#434343'
p4403
aF8.88595
aI0
aI00
aI00
aI00
aI00
aI00
aI00
aI00
aI00
aa(lp4404
I118366
aF49.0539
aF445.349
aVp4
p4405
aS'utopia'
p4406
aS'#656565'
p4407
aF10.3669
aI1
aI01
aI00
aI00
aI00
aI00
aI00
aI00
aI00
aa(lp4408
I234378
aF83.97235
aF445.349
ag4405
aS'utopia'
p4409
aS'#656565'
p4410
aF10.3669
aI1
aI00
aI00
aI00
aI00
aI00
aI00
aI00
aI00
aa(lp4411
I51933
aF293.418
aF433.502
aVp4
p4412
aS'utopia'
p4413
aS'#656565'
p4414
aF10.3669
aI1
aI01
aI00
aI00
aI00
aI00
aI00
aI00
aI00
aa(lp4415
I62768
aF321.556
aF433.502
aVp4
p4416
aS'utopia'
p4417
aS'#656565'
p4418
aF10.3669
aI1
aI01
aI00
aI00
aI00
aI00
aI00
aI00
aI00
aa(lp4419
I233063
aF49.0539
aF458.045
aVp4
p4420
aS'utopia'
p4421
aS'#000000'
p4422
aF8.88595
aI0
aI01
aI01
aI00
aI00
aI00
aI00
aI00
aI00
aa(lp4423
I234378
aF57.1993
aF458.045
aVp4
p4424
aS'utopia'
p4425
aS'#000000'
p4426
aF8.88595
aI0
aI00
aI00
aI01
aI01
aI01
aI00
aI00
aI00
aa(lp4427
I38691
aF72.7498
aF458.045
aVp4
p4428
aS'utopia'
p4429
aS'#000000'
p4430
aF8.88595
aI0
aI01
aI01
aI00
aI00
aI00
aI00
aI00
aI00
aa(lp4431
I234378
aF108.294
aF458.045
aVp4
p4432
aS'utopia'
p4433
aS'#000000'
p4434
aF8.88595
aI0
aI00
aI00
aI01
aI01
aI01
aI00
aI00
aI00
aa(lp4435
I234378
aF123.844
aF458.045
aVp4
p4436
aS'utopia'
p4437
aS'#000000'
p4438
aF8.88595
aI0
aI00
aI00
aI00
aI00
aI00
aI00
aI00
aI00
aa(lp4439
I234378
aF128.287
aF458.045
aVp4
p4440
aS'utopia'
p4441
aS'#000000'
p4442
aF8.88595
aI0
aI01
aI01
aI00
aI00
aI00
aI00
aI00
aI00
aa(lp4443
I234378
aF49.0539
aF468.411
aVp4
p4444
aS'utopia'
p4445
aS'#000000'
p4446
aF8.88595
aI0
aI00
aI00
aI01
aI01
aI01
aI00
aI00
aI00
aa(lp4447
I182663
aF49.0539
aF481.74
aVp4
p4448
aS'utopia'
p4449
aS'#656565'
p4450
aF8.88595
aI0
aI01
aI00
aI00
aI00
aI00
aI00
aI00
aI00
aa(lp4451
I82279
aF76.4522
aF481.74
aVp4
p4452
aS'utopia'
p4453
aS'#656565'
p4454
aF8.88595
aI0
aI01
aI00
aI00
aI00
aI00
aI00
aI00
aI00
aa(lp4455
I234378
aF96.09372
aF481.74
ag4452
aS'utopia'
p4456
aS'#656565'
p4457
aF8.88595
aI0
aI00
aI00
aI00
aI00
aI00
aI00
aI00
aI00
aa(lp4458
I234378
aF103.11
aF481.74
aVp4
p4459
aS'utopia'
p4460
aS'#000000'
p4461
aF8.88595
aI0
aI01
aI00
aI00
aI00
aI00
aI00
aI00
aI00
aa(lp4462
I31679
aF293.418
aF449.159
aVp4
p4463
aS'utopia'
p4464
aS'#656565'
p4465
aF8.88595
aI0
aI01
aI01
aI00
aI00
aI00
aI00
aI00
aI00
aa(lp4466
I51933
aF306.746
aF449.159
aVp4
p4467
aS'utopia'
p4468
aS'#656565'
p4469
aF8.88595
aI0
aI01
aI00
aI00
aI00
aI00
aI00
aI00
aI00
aa(lp4470
I12510
aF330.442
aF449.159
aVp4
p4471
aS'utopia'
p4472
aS'#656565'
p4473
aF8.88595
aI0
aI01
aI00
aI00
aI00
aI00
aI00
aI00
aI00
aa(lp4474
I234378
aF352.7559142857143
aF449.159
ag4471
aS'utopia'
p4475
aS'#656565'
p4476
aF8.88595
aI0
aI00
aI00
aI00
aI00
aI00
aI00
aI00
aI00
aa(lp4477
I109318
aF358.581
aF449.159
aVp4
p4478
aS'utopia'
p4479
aS'#434343'
p4480
aF8.88595
aI0
aI01
aI00
aI00
aI00
aI00
aI00
aI00
aI00
aa(lp4481
I234378
aF381.537
aF449.159
aVp4
p4482
aS'utopia'
p4483
aS'#434343'
p4484
aF8.88595
aI0
aI01
aI01
aI01
aI00
aI00
aI00
aI00
aI00
aa(lp4485
I222659
aF395.606
aF449.159
aVp4
p4486
aS'utopia'
p4487
aS'#434343'
p4488
aF8.88595
aI0
aI01
aI00
aI00
aI00
aI00
aI00
aI00
aI00
aa(lp4489
I234378
aF293.418
aF464.709
aVp4
p4490
aS'utopia'
p4491
aS'#656565'
p4492
aF8.88595
aI0
aI01
aI00
aI00
aI00
aI00
aI00
aI00
aI00
aa(lp4493
I234378
aF330.17652
aF464.709
ag4490
aS'utopia'
p4494
aS'#656565'
p4495
aF8.88595
aI0
aI00
aI00
aI00
aI00
aI00
aI00
aI00
aI00
aa(lp4496
I164802
aF336.366
aF464.709
aVp4
p4497
aS'utopia'
p4498
aS'#434343'
p4499
aF8.88595
aI0
aI01
aI00
aI00
aI00
aI00
aI00
aI00
aI00
aa(lp4500
I166771
aF293.418
aF484.596
aVp4
p4501
aS'utopia'
p4502
aS'#656565'
p4503
aF10.3669
aI1
aI01
aI00
aI00
aI00
aI00
aI00
aI00
aI00
aa(lp4504
I74833
aF349.695
aF484.596
aVp4
p4505
aS'utopia'
p4506
aS'#656565'
p4507
aF10.3669
aI1
aI01
aI00
aI00
aI00
aI00
aI00
aI00
aI00
aa(lp4508
I233758
aF293.418
aF500.253
aVp4
p4509
aS'utopia'
p4510
aS'#656565'
p4511
aF8.88595
aI0
aI01
aI00
aI00
aI00
aI00
aI00
aI00
aI00
aa(lp4512
I234378
aF327.0898222222222
aF500.253
ag4509
aS'utopia'
p4513
aS'#656565'
p4514
aF8.88595
aI0
aI00
aI00
aI00
aI00
aI00
aI00
aI00
aI00
aa(lp4515
I230332
aF333.404
aF500.253
aVp4
p4516
aS'utopia'
p4517
aS'#434343'
p4518
aF8.88595
aI0
aI01
aI00
aI00
aI00
aI00
aI00
aI00
aI00
aa(lp4519
I151511
aF293.418
aF515.803
aVp4
p4520
aS'utopia'
p4521
aS'#656565'
p4522
aF8.88595
aI0
aI01
aI00
aI00
aI00
aI00
aI00
aI00
aI00
aa(lp4523
I234378
aF334.145
aF515.803
aVp4
p4524
aS'utopia'
p4525
aS'#656565'
p4526
aF8.88595
aI0
aI01
aI00
aI00
aI00
aI00
aI00
aI00
aI00
aa(lp4527
I234378
aF375.9870909090909
aF515.803
ag4524
aS'utopia'
p4528
aS'#656565'
p4529
aF8.88595
aI0
aI00
aI00
aI00
aI00
aI00
aI00
aI00
aI00
aa(lp4530
I201816
aF382.277
aF515.803
aVp4
p4531
aS'utopia'
p4532
aS'#434343'
p4533
aF8.88595
aI0
aI01
aI00
aI00
aI00
aI00
aI00
aI00
aI00
aa(lp4534
I16915
aF308.227
aF158.884
aVp1
p4535
aS'utopia'
p4536
aS'#878787'
p4537
aF8.88595
aI0
aI01
aI00
aI00
aI00
aI00
aI00
aI00
aI00
aa(lp4538
I60220
aF330.442
aF158.884
aVp1
p4539
aS'utopia'
p4540
aS'#878787'
p4541
aF8.88595
aI0
aI01
aI00
aI00
aI00
aI00
aI00
aI00
aI00
aa(lp4542
I234378
aF372.28409090909093
aF158.884
ag4539
aS'utopia'
p4543
aS'#878787'
p4544
aF8.88595
aI0
aI00
aI00
aI00
aI00
aI00
aI00
aI00
aI00
aa(lp4545
I234378
aF380.796
aF158.884
aVp1
p4546
aS'utopia'
p4547
aS'#000000'
p4548
aF8.88595
aI0
aI00
aI00
aI01
aI01
aI00
aI00
aI00
aI00
aa(lp4549
I91136
aF387.46
aF158.884
aVp1
p4550
aS'utopia'
p4551
aS'#000000'
p4552
aF8.88595
aI0
aI01
aI00
aI00
aI00
aI00
aI00
aI00
aI00
aa(lp4553
I234378
aF403.18559999999997
aF158.884
ag4550
aS'utopia'
p4554
aS'#000000'
p4555
aF8.88595
aI0
aI00
aI00
aI00
aI00
aI00
aI00
aI00
aI00
aa(lp4556
I59734
aF407.11699999999996
aF158.884
ag4550
aS'utopia'
p4557
aS'#000000'
p4558
aF8.88595
aI0
aI00
aI00
aI00
aI00
aI00
aI00
aI00
aI00
aa(lp4559
I234378
aF411.04839999999996
aF158.884
ag4550
aS'utopia'
p4560
aS'#000000'
p4561
aF8.88595
aI0
aI00
aI00
aI00
aI00
aI00
aI00
aI00
aI00
aa(lp4562
I234378
aF417.08
aF158.884
aVp1
p4563
aS'utopia'
p4564
aS'#000000'
p4565
aF8.88595
aI0
aI00
aI00
aI01
aI01
aI00
aI00
aI00
aI00
aa(lp4566
I63729
aF423.745
aF158.884
aVp1
p4567
aS'utopia'
p4568
aS'#000000'
p4569
aF8.88595
aI0
aI01
aI00
aI00
aI00
aI00
aI00
aI00
aI00
aa(lp4570
I234378
aF446.4985625
aF158.884
ag4567
aS'utopia'
p4571
aS'#000000'
p4572
aF8.88595
aI0
aI00
aI00
aI00
aI00
aI00
aI00
aI00
aI00
aa(lp4573
I59734
aF451.04927499999997
aF158.884
ag4567
aS'utopia'
p4574
aS'#000000'
p4575
aF8.88595
aI0
aI00
aI00
aI00
aI00
aI00
aI00
aI00
aI00
aa(lp4576
I234378
aF455.59998749999994
aF158.884
ag4567
aS'utopia'
p4577
aS'#000000'
p4578
aF8.88595
aI0
aI00
aI00
aI00
aI00
aI00
aI00
aI00
aI00
aa(lp4579
I229300
aF308.227
aF176.656
aVp1
p4580
aS'utopia'
p4581
aS'#878787'
p4582
aF8.88595
aI0
aI01
aI00
aI00
aI00
aI00
aI00
aI00
aI00
aa(lp4583
I78894
aF338.588
aF176.656
aVp1
p4584
aS'utopia'
p4585
aS'#878787'
p4586
aF8.88595
aI0
aI01
aI00
aI00
aI00
aI00
aI00
aI00
aI00
aa(lp4587
I234378
aF360.9019142857143
aF176.656
ag4584
aS'utopia'
p4588
aS'#878787'
p4589
aF8.88595
aI0
aI00
aI00
aI00
aI00
aI00
aI00
aI00
aI00
aa(lp4590
I234378
aF368.948
aF176.656
aVp1
p4591
aS'utopia'
p4592
aS'#000000'
p4593
aF8.88595
aI0
aI01
aI00
aI00
aI00
aI00
aI00
aI00
aI00
aa(lp4594
I234378
aF380.796
aF176.656
aVp1
p4595
aS'utopia'
p4596
aS'#000000'
p4597
aF8.88595
aI0
aI00
aI00
aI01
aI01
aI00
aI00
aI00
aI00
aa(lp4598
I234378
aF384.5755
aF176.656
ag4595
aS'utopia'
p4599
aS'#000000'
p4600
aF8.88595
aI0
aI00
aI00
aI00
aI00
aI00
aI00
aI00
aI00
aa(lp4601
I234378
aF388.35499999999996
aF176.656
ag4595
aS'utopia'
p4602
aS'#000000'
p4603
aF8.88595
aI0
aI00
aI00
aI01
aI01
aI00
aI00
aI00
aI00
aa(lp4604
I234378
aF394.125
aF176.656
aVp1
p4605
aS'utopia'
p4606
aS'#000000'
p4607
aF8.88595
aI0
aI01
aI00
aI00
aI00
aI00
aI00
aI00
aI00
aa(lp4608
I234378
aF308.227
aF194.428
aVp1
p4609
aS'utopia'
p4610
aS'#878787'
p4611
aF8.88595
aI0
aI01
aI00
aI00
aI00
aI00
aI00
aI00
aI00
aa(lp4612
I234378
aF346.733
aF194.428
aVp1
p4613
aS'utopia'
p4614
aS'#878787'
p4615
aF8.88595
aI0
aI01
aI01
aI00
aI00
aI00
aI00
aI00
aI00
aa(lp4616
I234378
aF361.2593
aF194.428
ag4613
aS'utopia'
p4617
aS'#878787'
p4618
aF8.88595
aI0
aI00
aI00
aI00
aI00
aI00
aI00
aI00
aI00
aa(lp4619
I63091
aF370.429
aF194.428
aVp1
p4620
aS'utopia'
p4621
aS'#000000'
p4622
aF8.88595
aI0
aI01
aI00
aI00
aI00
aI00
aI00
aI00
aI00
aa(lp4623
I234378
aF387.46
aF194.428
aVp1
p4624
aS'utopia'
p4625
aS'#000000'
p4626
aF8.88595
aI0
aI01
aI00
aI00
aI00
aI00
aI00
aI00
aI00
aa(lp4627
I7204
aF308.227
aF212.2
aVp1
p4628
aS'utopia'
p4629
aS'#878787'
p4630
aF8.88595
aI0
aI01
aI00
aI00
aI00
aI00
aI00
aI00
aI00
aa(lp4631
I189220
aF340.809
aF212.2
aVp1
p4632
aS'utopia'
p4633
aS'#878787'
p4634
aF8.88595
aI0
aI01
aI00
aI00
aI00
aI00
aI00
aI00
aI00
aa(lp4635
I234378
aF366.93111428571433
aF212.2
ag4632
aS'utopia'
p4636
aS'#878787'
p4637
aF8.88595
aI0
aI00
aI00
aI00
aI00
aI00
aI00
aI00
aI00
aa(lp4638
I27780
aF375.613
aF212.2
aVp1
p4639
aS'utopia'
p4640
aS'#000000'
p4641
aF8.88595
aI0
aI01
aI01
aI00
aI00
aI00
aI00
aI00
aI00
aa(lp4642
I234378
aF379.93184545454545
aF212.2
ag4639
aS'utopia'
p4643
aS'#000000'
p4644
aF8.88595
aI0
aI00
aI00
aI00
aI00
aI00
aI00
aI00
aI00
aa(lp4645
I2737
aF384.2506909090909
aF212.2
ag4639
aS'utopia'
p4646
aS'#000000'
p4647
aF8.88595
aI0
aI01
aI00
aI00
aI00
aI00
aI00
aI00
aI00
aa(lp4648
I234378
aF401.5260727272727
aF212.2
ag4639
aS'utopia'
p4649
aS'#000000'
p4650
aF8.88595
aI0
aI00
aI00
aI00
aI00
aI00
aI00
aI00
aI00
aa(lp4651
I27780
aF398.8449181818182
aF212.2
ag4639
aS'utopia'
p4652
aS'#000000'
p4653
aF8.88595
aI0
aI01
aI01
aI00
aI00
aI00
aI00
aI00
aI00
aa(lp4654
I234378
aF403.1637636363636
aF212.2
ag4639
aS'utopia'
p4655
aS'#000000'
p4656
aF8.88595
aI0
aI00
aI00
aI00
aI00
aI00
aI00
aI00
aI00
aa(lp4657
I64620
aF414.4826090909091
aF212.2
ag4639
aS'utopia'
p4658
aS'#000000'
p4659
aF8.88595
aI0
aI01
aI01
aI00
aI00
aI00
aI00
aI00
aI00
aa(lp4660
I234378
aF409.80145454545453
aF212.2
ag4639
aS'utopia'
p4661
aS'#000000'
p4662
aF8.88595
aI0
aI00
aI00
aI00
aI00
aI00
aI00
aI00
aI00
aa(lp4663
I48671
aF308.227
aF229.972
aVp1
p4664
aS'utopia'
p4665
aS'#878787'
p4666
aF8.88595
aI0
aI01
aI00
aI00
aI00
aI00
aI00
aI00
aI00
aa(lp4667
I129688
aF336.366
aF229.972
aVp1
p4668
aS'utopia'
p4669
aS'#878787'
p4670
aF8.88595
aI0
aI00
aI00
aI00
aI00
aI00
aI00
aI00
aI00
aa(lp4671
I234378
aF360.58405714285715
aF229.972
ag4668
aS'utopia'
p4672
aS'#878787'
p4673
aF8.88595
aI0
aI00
aI00
aI00
aI00
aI00
aI00
aI00
aI00
aa(lp4674
I234378
aF368.948
aF229.972
aVp1
p4675
aS'utopia'
p4676
aS'#000000'
p4677
aF8.88595
aI0
aI00
aI00
aI01
aI01
aI01
aI00
aI00
aI00
aa(lp4678
I128539
aF380.056
aF229.972
aVp1
p4679
aS'utopia'
p4680
aS'#000000'
p4681
aF8.88595
aI0
aI01
aI00
aI00
aI00
aI00
aI00
aI00
aI00
aa(lp4682
I144503
aF401.53
aF229.972
aVp1
p4683
aS'utopia'
p4684
aS'#000000'
p4685
aF8.88595
aI0
aI00
aI00
aI00
aI00
aI00
aI00
aI00
aI00
aa(lp4686
I166841
aF412.637
aF229.972
aVp1
p4687
aS'utopia'
p4688
aS'#000000'
p4689
aF8.88595
aI0
aI00
aI00
aI00
aI00
aI00
aI00
aI00
aI00
aa(lp4690
I1
aI1
aI0
aI0
aI0
aI0
aI0
aI0
aI0
aI0
aI0
aI0
aI0
aI0
aI0
aI0
aI0
aI0
aI0
aI0
aI0
aI0
aI0
aI0
aI0
aI0
aI0
aI0
aI0
aI0
aI0
aI0
aI0
aI0
aI0
aI0
aI0
aI0
aI0
aI0
aI0
aI0
aI0
aI0
aI0
aI0
aI0
aI0
aI0
aI0
aI0
aI0
aI0
aI0
aI0
aI0
aI0
aI0
aI0
aI0
aI0
aI0
aI0
aI0
aI0
aI0
aI0
aI0
aI0
aI0
aI0
aI0
aI0
aI0
aI0
aI0
aI0
aI0
aI0
aI0
aI0
aI0
aI0
aI0
aI0
aI0
aI0
aI0
aI0
aI0
aI0
aI0
aI0
aI0
aI0
aI0
aI0
aI0
aI0
aI0
aI0
aI0
aI0
aI0
aI0
aI0
aI0
aI0
aI0
aI0
aI0
aI0
aI0
aI0
aI0
aI0
aI0
aI0
aI0
aI0
aI0
aI0
aI0
aI0
aI0
aI0
aI0
aI0
aI0
aI0
aI0
aI0
aI0
aI0
aI0
aI0
aI0
aI0
aI0
aI0
aI0
aI0
aI0
aI0
aI0
aI0
aI0
aI0
aI0
aI0
aI1
aI1
aI0
aI0
aI0
aI0
aI0
aI0
aI0
aI0
aI0
aI0
aI0
aI0
aI0
aI0
aI0
aI0
aI0
aI0
aI0
aI0
aI0
aI0
aI0
aI0
aI0
aI0
aI0
aI0
aI0
aI0
aI0
aI0
aI0
aI0
aI0
aI0
aI0
aI0
aI0
aI0
aI0
aI0
aI0
aI0
aI0
aI0
aI0
aI0
aI0
aI0
aI0
aI0
aI0
aI0
aI0
aI0
aI0
aI0
aI0
aI0
aI0
aI0
aI0
aI0
aI0
aI0
aI0
aI0
aI0
aI1
aI0
aI0
aI0
aI0
aI0
aI0
aI0
aI0
aI0
aI0
aI0
aI0
aI0
aI0
aI0
aI0
aI0
aI0
aI0
aI0
aI0
aI0
aI0
aI0
aI0
aI0
aI0
aI1
aI1
aI0
aI0
aI0
aI0
aI0
aI0
aI0
aI0
aI0
aI0
aI0
aI0
aI0
aI0
aI0
aI0
aI0
aI0
aI0
aI0
aI0
aI1
aI1
aI0
aI0
aI0
aI0
aI0
aI0
aI0
aI0
aI0
aI1
aI0
aI0
aI0
aI0
aI0
aI0
aI0
aI0
aI0
aI0
aI0
aI0
aI0
aI0
aI0
aI0
aI0
aI0
aI0
aI0
aI0
aI0
aI0
aI0
aI0
aI0
aI0
aI0
aI0
aI0
aI0
aI0
aI0
aI0
aI0
aI0
aI0
aI0
aI0
aI0
aI0
aI0
aI0
aI0
aI0
aI0
aI0
aI0
aI0
aI0
aI0
aI0
aI0
aI0
aI0
aI0
aI0
aI0
aI0
aI0
aI0
aI0
aI0
aI0
aI0
aI0
aI0
aI0
aI0
aI0
aI0
aI0
aI0
aI0
aI0
aI0
aI0
aI0
aI0
aI0
aI0
aI0
aI0
aI0
aI0
aI0
aI0
aI0
aI0
aI0
aI0
aI0
aI0
aI0
aI0
aI0
aI0
aI0
aI0
aI0
aI0
aI0
aI0
aI0
aI0
aI0
aI0
aI0
aI0
aI0
aI0
aI0
aI0
aI0
aI0
aI0
aI0
aI0
aI0
aI0
aI0
aI0
aI0
aI0
aI0
aI0
aI0
aI0
aI0
aI0
aI0
aI0
aI0
aI0
aI0
aI0
aI0
aI0
aI0
aI0
aI0
aI0
aI0
aI0
aI0
aI0
aI0
aI0
aI0
aI0
aI0
aI0
aI0
aI0
aI0
aI0
aI0
aI0
aI0
aI0
aI0
aI0
aI0
aI0
aI0
aI0
aI0
aI0
aI0
aI0
aI0
aI0
aI0
aI0
aI0
aI0
aI0
aI0
aI0
aI0
aI0
aI0
aI0
aI0
aI0
aI0
aI0
aI0
aI0
aI0
aI0
aI0
aI0
aI0
aI0
aI0
aI0
aI0
aI0
aI0
aI0
aI0
aI0
aI0
aI0
aI0
aI0
aI0
aI0
aI0
aI0
aI0
aI0
aI0
aI0
aI0
aI0
aI0
aI0
aI0
aI0
aI0
aI0
aI0
aI0
aI0
aI0
aI0
aI0
aI0
aI0
aI0
aI0
aI0
aI0
aI0
aI0
aI0
aI0
aI0
aI0
aI0
aI0
aI0
aI0
aI0
aI0
aI0
aI0
aI0
aI0
aI0
aI0
aI0
aI0
aI0
aI0
aI0
aI0
aI0
aI0
aI0
aI0
aI0
aI0
aI0
aI0
aI0
aI0
aI0
aI0
aI0
aI0
aI0
aI0
aI0
aI0
aI0
aI0
aI0
aI0
aI0
aI0
aI0
aI0
aI0
aI0
aI0
aI0
aI0
aI0
aI0
aI0
aI0
aI0
aI0
aI0
aI0
aI0
aI0
aI0
aI0
aI0
aI0
aI0
aI0
aI0
aI0
aI0
aI0
aI0
aI0
aI0
aI0
aI0
aI0
aI0
aI0
aI0
aI0
aI0
aI0
aI0
aI0
aI0
aI0
aI0
aI0
aI0
aI0
aI0
aI0
aI0
aI0
aI0
aI0
aI0
aI0
aI0
aI0
aI0
aI0
aI0
aI0
aI0
aI0
aI0
aI0
aI0
aI0
aI0
aI0
aI0
aI0
aI0
aI0
aI0
aI0
aI0
aI0
aI0
aI0
aI0
aI0
aI0
aI0
aI0
aI0
aI0
aI0
aI0
aI0
aI0
aI0
aI0
aI0
aI0
aI0
aI0
aI0
aI0
aI0
aI0
aI0
aI0
aI0
aI0
aI0
aI0
aI0
aI0
aI0
aI0
aI0
aI0
aI0
aI0
aI0
aI0
aI0
aI0
aI0
aI0
aI0
aI0
aI0
aI0
aI0
aI0
aI0
aI0
aI0
aI0
aI0
aI0
aI0
aI0
aI0
aI0
aI0
aI0
aI0
aI0
aI0
aI0
aI0
aI0
aI0
aI0
aI0
aI0
aI0
aI0
aI0
aI0
aI0
aI0
aI0
aI0
aI0
aI0
aI0
aI0
aI0
aI0
aI0
aI0
aI0
aI0
aI0
aI0
aI0
aI0
aI0
aI0
aI0
aI0
aI0
aI0
aI0
aI0
aI0
aI0
aI0
aI0
aI0
aI0
aI0
aI0
aI0
aI0
aI0
aI0
aI0
aI0
aI0
aI0
aI0
aI0
aI0
aI0
aI0
aI0
aI0
aI0
aI0
aI0
aI0
aI0
aI0
aI0
aI0
aI0
aI0
aI0
aI0
aI0
aI0
aI0
aI0
aI0
aI0
aI0
aI0
aI0
aI0
aI0
aI0
aI0
aI0
aI0
aI0
aI0
aI0
aI0
aI0
aI0
aI0
aI0
aI0
aI0
aI0
aI0
aI0
aI0
aI0
aI0
aI0
aI0
aI0
aI0
aI0
aI0
aI0
aI0
aI0
aI0
aI0
aI0
aI0
aI0
aI0
aI0
aI0
aI0
aI0
aI0
aI0
aI0
aI0
aI0
aI0
aI0
aI0
aI0
aI0
aI0
aI0
aI0
aI0
aI0
aI0
aI0
aI0
aI0
aI0
aI0
aI0
aI0
aI0
aI0
aI0
aI0
aI0
aI0
aI0
aI0
aI0
aI0
aI0
aI0
aI0
aI0
aI0
aI0
aI0
aI0
aI0
aI0
aI0
aI0
aI0
aI0
aI0
aI0
aI0
aI0
aI0
aI0
aI0
aI0
aI0
aI0
aI0
aI0
aI0
aI0
aI0
aI0
aI0
aI0
aI0
aI0
aI0
aI0
aI0
aI0
aI0
aI0
aI0
aI0
aI0
aI0
aI0
aI0
aI0
aI0
aI0
aI0
aI0
aI0
aI0
aI0
aI0
aI0
aI0
aI0
aI0
aI0
aI0
aI0
aI0
aI0
aI0
aI0
aI0
aI0
aI0
aI0
aI0
aI0
aI0
aI0
aI0
aI0
aI0
aI0
aI0
aI0
aI0
aI0
aI0
aI0
aI0
aI0
aI0
aI0
aI0
aI0
aI0
aI0
aI0
aI0
aI0
aI0
aI0
aI0
aI0
aI0
aI0
aI0
aI0
aI0
aI0
aI0
aI0
aI0
aI0
aI0
aI0
aI0
aI0
aI0
aI0
aI0
aI0
aI0
aI0
aI0
aI0
aI0
aI0
aI0
aI0
aI0
aI0
aI0
aI0
aI0
aI0
aI0
aI0
aI0
aI0
aI0
aI0
aI0
aI0
aI0
aI0
aI0
aI0
aI0
aI0
aI0
aI0
aI0
aI0
aI0
aI0
aI0
aI0
aI0
aI0
aI0
aI0
aI0
aI0
aI0
aI0
aI0
aI0
aI0
aI0
aI0
aI0
aI0
aI0
aI0
aI0
aI0
aI0
aI0
aI0
aI0
aI0
aI0
aI0
aI0
aI0
aI0
aI0
aI0
aI0
aI0
aI0
aI0
aI0
aI0
aI0
aI0
aI0
aI0
aI0
aI0
aI0
aI0
aI0
aI0
aI0
aI0
aI0
aI0
aI0
aI0
aI0
aI0
aI0
aI0
aI0
aI0
aI0
aI0
aI0
aI0
aI0
aI0
aI0
aI0
aI0
aI0
aI0
aI0
aI0
aI0
aI0
aI0
aI0
aI0
aI0
aI0
aI0
aI0
aI0
aI0
aI0
aI0
aI0
aI0
aI0
aI0
aI0
aI0
aI0
aI0
aI0
aI0
aI0
aI0
aI0
aI0
aI0
aI0
aI0
aI0
aI0
aI0
aI0
aI0
aI1
aI1
aI0
aI0
aI0
aI0
aI0
aI0
aI0
aI0
aI0
aI0
aI0
aI0
aI0
aI0
aI0
aI0
aI0
aI0
aI0
aI0
aI0
aI0
aI0
aI0
aI0
aI0
aI0
aI0
aI0
aI0
aI0
aI0
aI0
aI0
aI0
aI0
aI0
aI0
aI0
aI0
aI0
aI0
aI0
aI0
aI0
aI0
aI0
aI0
aI0
aI0
aI0
aI0
aI0
aI0
aI0
aI0
aI0
aI0
aI0
aI0
aI0
aI0
aI0
aI0
aI0
aI0
aI0
aI0
aI0
aI0
aI0
aI0
aI0
aI0
aI0
aI0
aI0
aI0
aI0
aI0
aI0
aI0
aI0
aI0
aI0
aI0
aI0
aI0
aI0
aI0
aI0
aI0
aI0
aI0
aI0
aI0
aI0
aI0
aI0
aI0
aI0
aI0
aI0
aI0
aI0
aI0
aI0
aI0
aI0
aI0
aI0
aI0
atp4691
.