((lp0
(lp1
I234378
aF72.1
aF86.231
aVp1
p2
aS'nimbussanl'
p3
aS'#000000'
p4
aF11.0
aI1
aI01
aI01
aI00
aI00
aI00
aI00
aI00
aI00
aa(lp5
I234378
aF132.62917647058822
aF86.231
ag2
aS'nimbussanl'
p6
aS'#000000'
p7
aF11.0
aI1
aI01
aI01
aI00
aI00
aI00
aI00
aI00
aI00
aa(lp8
I108443
aF126.2
aF100.331
aVp1
p9
aS'nimbussanl'
p10
aS'#000000'
p11
aF11.0
aI1
aI01
aI00
aI00
aI00
aI00
aI00
aI00
aI00
aa(lp12
I234378
aF224.36818181818182
aF100.331
ag9
aS'nimbussanl'
p13
aS'#000000'
p14
aF11.0
aI1
aI00
aI00
aI00
aI00
aI00
aI00
aI00
aI00
aa(lp15
I234378
aF242.72954545454547
aF100.331
ag9
aS'nimbussanl'
p16
aS'#000000'
p17
aF11.0
aI1
aI00
aI00
aI01
aI01
aI01
aI00
aI00
aI00
aa(lp18
I234378
aF276.45227272727277
aF100.331
ag9
aS'nimbussanl'
p19
aS'#000000'
p20
aF11.0
aI1
aI00
aI00
aI01
aI01
aI01
aI00
aI00
aI00
aa(lp21
I64620
aF365.0
aF114.531
aVp1
p22
aS'nimbussanl'
p23
aS'#000000'
p24
aF11.0
aI1
aI01
aI01
aI00
aI00
aI00
aI00
aI00
aI00
aa(lp25
I169404
aF372.2523214285714
aF114.531
ag22
aS'nimbussanl'
p26
aS'#000000'
p27
aF11.0
aI1
aI01
aI00
aI00
aI00
aI00
aI00
aI00
aI00
aa(lp28
I234378
aF397.26160714285714
aF114.531
ag22
aS'nimbussanl'
p29
aS'#000000'
p30
aF11.0
aI1
aI00
aI00
aI00
aI00
aI00
aI00
aI00
aI00
aa(lp31
I234378
aF403.51392857142855
aF114.531
ag22
aS'nimbussanl'
p32
aS'#000000'
p33
aF11.0
aI1
aI01
aI01
aI01
aI00
aI00
aI00
aI00
aI00
aa(lp34
I234378
aF473.28946428571425
aF114.531
ag22
aS'nimbussanl'
p35
aS'#000000'
p36
aF11.0
aI1
aI00
aI00
aI00
aI00
aI00
aI00
aI00
aI00
aa(lp37
I234378
aF504.5510714285714
aF114.531
ag22
aS'nimbussanl'
p38
aS'#000000'
p39
aF11.0
aI1
aI00
aI00
aI00
aI00
aI00
aI00
aI00
aI00
aa(lp40
I234378
aF510.8033928571428
aF114.531
ag22
aS'nimbussanl'
p41
aS'#000000'
p42
aF11.0
aI1
aI00
aI00
aI00
aI00
aI00
aI00
aI00
aI00
aa(lp43
I77936
aF72.1
aF142.331
aVp1
p44
aS'nimbussanl'
p45
aS'#000000'
p46
aF11.0
aI1
aI01
aI01
aI00
aI00
aI00
aI00
aI00
aI00
aa(lp47
I234378
aF131.45049999999998
aF142.331
ag44
aS'nimbussanl'
p48
aS'#000000'
p49
aF11.0
aI1
aI00
aI00
aI00
aI00
aI00
aI00
aI00
aI00
aa(lp50
I197030
aF81.1
aF156.417
aVp1
p51
aS'nimbussanl'
p52
aS'#000000'
p53
aF11.0
aI0
aI01
aI01
aI00
aI00
aI00
aI00
aI00
aI00
aa(lp54
I95356
aF90.175
aF156.417
aVp1
p55
aS'nimbussanl'
p56
aS'#000000'
p57
aF11.0
aI0
aI00
aI00
aI00
aI00
aI00
aI00
aI00
aI00
aa(lp58
I234378
aF119.358
aF156.417
aVp1
p59
aS'nimbussanl'
p60
aS'#000000'
p61
aF11.0
aI0
aI00
aI00
aI00
aI00
aI00
aI00
aI00
aI00
aa(lp62
I175989
aF188.317
aF156.417
aVp1
p63
aS'nimbussanl'
p64
aS'#000000'
p65
aF11.0
aI0
aI00
aI00
aI00
aI00
aI00
aI00
aI00
aI00
aa(lp66
I97584
aF212.693
aF156.417
aVp1
p67
aS'nimbussanl'
p68
aS'#000000'
p69
aF11.0
aI0
aI00
aI00
aI00
aI00
aI00
aI00
aI00
aI00
aa(lp70
I207511
aF251.083
aF156.417
aVp1
p71
aS'nimbussanl'
p72
aS'#000000'
p73
aF11.0
aI0
aI00
aI00
aI00
aI00
aI00
aI00
aI00
aI00
aa(lp74
I219882
aF304.169
aF156.417
aVp1
p75
aS'nimbussanl'
p76
aS'#000000'
p77
aF11.0
aI0
aI00
aI00
aI00
aI00
aI00
aI00
aI00
aI00
aa(lp78
I185620
aF324.827
aF156.417
aVp1
p79
aS'nimbussanl'
p80
aS'#000000'
p81
aF11.0
aI0
aI00
aI00
aI00
aI00
aI00
aI00
aI00
aI00
aa(lp82
I85218
aF357.706
aF156.417
aVp1
p83
aS'nimbussanl'
p84
aS'#000000'
p85
aF11.0
aI0
aI00
aI00
aI00
aI00
aI00
aI00
aI00
aI00
aa(lp86
I147972
aF381.994
aF156.417
aVp1
p87
aS'nimbussanl'
p88
aS'#000000'
p89
aF11.0
aI0
aI00
aI00
aI00
aI00
aI00
aI00
aI00
aI00
aa(lp90
I154721
aF421.077
aF156.417
aVp1
p91
aS'nimbussanl'
p92
aS'#000000'
p93
aF11.0
aI0
aI00
aI00
aI00
aI00
aI00
aI00
aI00
aI00
aa(lp94
I89480
aF442.34
aF156.417
aVp1
p95
aS'nimbussanl'
p96
aS'#000000'
p97
aF11.0
aI0
aI00
aI00
aI00
aI00
aI00
aI00
aI00
aI00
aa(lp98
I106371
aF457.52
aF156.417
aVp1
p99
aS'nimbussanl'
p100
aS'#000000'
p101
aF11.0
aI0
aI00
aI00
aI00
aI00
aI00
aI00
aI00
aI00
aa(lp102
I199506
aF490.399
aF156.417
aVp1
p103
aS'nimbussanl'
p104
aS'#000000'
p105
aF11.0
aI0
aI00
aI00
aI00
aI00
aI00
aI00
aI00
aI00
aa(lp106
I234378
aF81.1
aF170.117
aVp1
p107
aS'nimbussanl'
p108
aS'#000000'
p109
aF11.0
aI0
aI00
aI00
aI00
aI00
aI00
aI00
aI00
aI00
aa(lp110
I89480
aF144.19030208333334
aF170.117
ag107
aS'nimbussanl'
p111
aS'#000000'
p112
aF11.0
aI0
aI00
aI00
aI00
aI00
aI00
aI00
aI00
aI00
aa(lp113
I194354
aF154.74265625
aF170.117
ag107
aS'nimbussanl'
p114
aS'#000000'
p115
aF11.0
aI0
aI00
aI00
aI00
aI00
aI00
aI00
aI00
aI00
aa(lp116
I229426
aF170.0711875
aF170.117
ag107
aS'nimbussanl'
p117
aS'#000000'
p118
aF11.0
aI0
aI00
aI00
aI00
aI00
aI00
aI00
aI00
aI00
aa(lp119
I85218
aF228.3853125
aF170.117
ag107
aS'nimbussanl'
p120
aS'#000000'
p121
aF11.0
aI0
aI00
aI00
aI00
aI00
aI00
aI00
aI00
aI00
aa(lp122
I177828
aF243.71384375
aF170.117
ag107
aS'nimbussanl'
p123
aS'#000000'
p124
aF11.0
aI0
aI00
aI00
aI00
aI00
aI00
aI00
aI00
aI00
aa(lp125
I68032
aF263.8185520833333
aF170.117
ag107
aS'nimbussanl'
p126
aS'#000000'
p127
aF11.0
aI0
aI00
aI00
aI00
aI00
aI00
aI00
aI00
aI00
aa(lp128
I234378
aF316.3565
aF170.117
ag107
aS'nimbussanl'
p129
aS'#000000'
p130
aF11.0
aI0
aI00
aI00
aI00
aI00
aI00
aI00
aI00
aI00
aa(lp131
I197030
aF322.1326770833333
aF170.117
ag107
aS'nimbussanl'
p132
aS'#000000'
p133
aF11.0
aI0
aI01
aI01
aI00
aI00
aI00
aI00
aI00
aI00
aa(lp134
I62551
aF327.90885416666663
aF170.117
ag107
aS'nimbussanl'
p135
aS'#000000'
p136
aF11.0
aI0
aI00
aI00
aI00
aI00
aI00
aI00
aI00
aI00
aa(lp137
I194354
aF302.0135625
aF170.117
ag107
aS'nimbussanl'
p138
aS'#000000'
p139
aF11.0
aI0
aI00
aI00
aI00
aI00
aI00
aI00
aI00
aI00
aa(lp140
I45693
aF363.34209375
aF170.117
ag107
aS'nimbussanl'
p141
aS'#000000'
p142
aF11.0
aI0
aI00
aI00
aI00
aI00
aI00
aI00
aI00
aI00
aa(lp143
I89480
aF340.55151041666664
aF170.117
ag107
aS'nimbussanl'
p144
aS'#000000'
p145
aF11.0
aI0
aI00
aI00
aI00
aI00
aI00
aI00
aI00
aI00
aa(lp146
I128113
aF413.1038645833333
aF170.117
ag107
aS'nimbussanl'
p147
aS'#000000'
p148
aF11.0
aI0
aI00
aI00
aI00
aI00
aI00
aI00
aI00
aI00
aa(lp149
I2229
aF447.5371041666666
aF170.117
ag107
aS'nimbussanl'
p150
aS'#000000'
p151
aF11.0
aI0
aI00
aI00
aI00
aI00
aI00
aI00
aI00
aI00
aa(lp152
I135639
aF477.1941666666666
aF170.117
ag107
aS'nimbussanl'
p153
aS'#000000'
p154
aF11.0
aI0
aI00
aI00
aI00
aI00
aI00
aI00
aI00
aI00
aa(lp155
I80364
aF81.1
aF183.717
aVp1
p156
aS'nimbussanl'
p157
aS'#000000'
p158
aF11.0
aI0
aI00
aI00
aI00
aI00
aI00
aI00
aI00
aI00
aa(lp159
I234378
aF97.19216923076922
aF183.717
ag156
aS'nimbussanl'
p160
aS'#000000'
p161
aF11.0
aI0
aI00
aI00
aI00
aI00
aI00
aI00
aI00
aI00
aa(lp162
I85218
aF158.56084615384614
aF183.717
ag156
aS'nimbussanl'
p163
aS'#000000'
p164
aF11.0
aI0
aI00
aI00
aI00
aI00
aI00
aI00
aI00
aI00
aa(lp165
I9432
aF174.65301538461537
aF183.717
ag156
aS'nimbussanl'
p166
aS'#000000'
p167
aF11.0
aI0
aI00
aI00
aI00
aI00
aI00
aI00
aI00
aI00
aa(lp168
I234378
aF210.8680769230769
aF183.717
ag156
aS'nimbussanl'
p169
aS'#000000'
p170
aF11.0
aI0
aI00
aI00
aI00
aI00
aI00
aI00
aI00
aI00
aa(lp171
I89480
aF277.2674769230769
aF183.717
ag156
aS'nimbussanl'
p172
aS'#000000'
p173
aF11.0
aI0
aI00
aI00
aI00
aI00
aI00
aI00
aI00
aI00
aa(lp174
I222892
aF288.32892307692305
aF183.717
ag156
aS'nimbussanl'
p175
aS'#000000'
p176
aF11.0
aI0
aI00
aI00
aI00
aI00
aI00
aI00
aI00
aI00
aa(lp177
I219882
aF319.5132615384615
aF183.717
ag156
aS'nimbussanl'
p178
aS'#000000'
p179
aF11.0
aI0
aI00
aI00
aI00
aI00
aI00
aI00
aI00
aI00
aa(lp180
I234378
aF330.57470769230764
aF183.717
ag156
aS'nimbussanl'
p181
aS'#000000'
p182
aF11.0
aI0
aI00
aI00
aI00
aI00
aI00
aI00
aI00
aI00
aa(lp183
I234378
aF370.82049230769223
aF183.717
ag156
aS'nimbussanl'
p184
aS'#000000'
p185
aF11.0
aI0
aI00
aI00
aI00
aI00
aI00
aI00
aI00
aI00
aa(lp186
I165938
aF72.1
aF211.531
aVp1
p187
aS'nimbussanl'
p188
aS'#000000'
p189
aF11.0
aI1
aI01
aI01
aI00
aI00
aI00
aI00
aI00
aI00
aa(lp190
I60220
aF155.248
aF211.531
ag187
aS'nimbussanl'
p191
aS'#000000'
p192
aF11.0
aI1
aI01
aI01
aI00
aI00
aI00
aI00
aI00
aI00
aa(lp193
I234378
aF223.70466666666664
aF211.531
ag187
aS'nimbussanl'
p194
aS'#000000'
p195
aF11.0
aI1
aI00
aI00
aI00
aI00
aI00
aI00
aI00
aI00
aa(lp196
I197030
aF81.1
aF226.017
aVp1
p197
aS'nimbussanl'
p198
aS'#000000'
p199
aF11.0
aI0
aI01
aI01
aI00
aI00
aI00
aI00
aI00
aI00
aa(lp200
I16326
aF87.70017283950617
aF226.017
ag197
aS'nimbussanl'
p201
aS'#000000'
p202
aF11.0
aI0
aI00
aI00
aI00
aI00
aI00
aI00
aI00
aI00
aa(lp203
I123583
aF99.90051851851851
aF226.017
ag197
aS'nimbussanl'
p204
aS'#000000'
p205
aF11.0
aI0
aI00
aI00
aI00
aI00
aI00
aI00
aI00
aI00
aa(lp206
I16331
aF140.1017283950617
aF226.017
ag197
aS'nimbussanl'
p207
aS'#000000'
p208
aF11.0
aI0
aI00
aI00
aI00
aI00
aI00
aI00
aI00
aI00
aa(lp209
I166593
aF138.30207407407406
aF226.017
ag197
aS'nimbussanl'
p210
aS'#000000'
p211
aF11.0
aI0
aI00
aI00
aI00
aI00
aI00
aI00
aI00
aI00
aa(lp212
I43052
aF158.90224691358023
aF226.017
ag197
aS'nimbussanl'
p213
aS'#000000'
p214
aF11.0
aI0
aI01
aI00
aI00
aI00
aI00
aI00
aI00
aI00
aa(lp215
I48604
aF215.90397530864195
aF226.017
ag197
aS'nimbussanl'
p216
aS'#000000'
p217
aF11.0
aI0
aI01
aI00
aI00
aI00
aI00
aI00
aI00
aI00
aa(lp218
I190806
aF256.1051851851852
aF226.017
ag197
aS'nimbussanl'
p219
aS'#000000'
p220
aF11.0
aI0
aI00
aI00
aI00
aI00
aI00
aI00
aI00
aI00
aa(lp221
I234378
aF273.9057037037037
aF226.017
ag197
aS'nimbussanl'
p222
aS'#000000'
p223
aF11.0
aI0
aI01
aI01
aI00
aI00
aI00
aI00
aI00
aI00
aa(lp224
I234378
aF314.1069135802469
aF226.017
ag197
aS'nimbussanl'
p225
aS'#000000'
p226
aF11.0
aI0
aI01
aI00
aI00
aI00
aI00
aI00
aI00
aI00
aa(lp227
I234378
aF376.7088148148148
aF226.017
ag197
aS'nimbussanl'
p228
aS'#000000'
p229
aF11.0
aI0
aI01
aI00
aI01
aI00
aI00
aI00
aI00
aI00
aa(lp230
I36403
aF418.910024691358
aF226.017
ag197
aS'nimbussanl'
p231
aS'#000000'
p232
aF11.0
aI0
aI01
aI00
aI00
aI00
aI00
aI00
aI00
aI00
aa(lp233
I132955
aF442.3107160493827
aF226.017
ag197
aS'nimbussanl'
p234
aS'#000000'
p235
aF11.0
aI0
aI01
aI00
aI00
aI00
aI00
aI00
aI00
aI00
aa(lp236
I234378
aF464.71140740740736
aF226.017
ag197
aS'nimbussanl'
p237
aS'#000000'
p238
aF11.0
aI0
aI00
aI00
aI00
aI00
aI00
aI00
aI00
aI00
aa(lp239
I109610
aF72.1
aF254.031
aVp1
p240
aS'nimbussanl'
p241
aS'#000000'
p242
aF11.0
aI1
aI01
aI01
aI00
aI00
aI00
aI00
aI00
aI00
aa(lp243
I61336
aF104.10307692307691
aF254.031
ag240
aS'nimbussanl'
p244
aS'#000000'
p245
aF11.0
aI1
aI01
aI01
aI00
aI00
aI00
aI00
aI00
aI00
aa(lp246
I234378
aF141.30676923076922
aF254.031
ag240
aS'nimbussanl'
p247
aS'#000000'
p248
aF11.0
aI1
aI00
aI00
aI00
aI00
aI00
aI00
aI00
aI00
aa(lp249
I234378
aF72.1
aF268.131
aVp1
p250
aS'nimbussanl'
p251
aS'#000000'
p252
aF11.0
aI1
aI01
aI00
aI00
aI00
aI00
aI00
aI00
aI00
aa(lp253
I234378
aF141.2065
aF268.131
ag250
aS'nimbussanl'
p254
aS'#000000'
p255
aF11.0
aI1
aI01
aI00
aI00
aI00
aI00
aI00
aI00
aI00
aa(lp256
I234378
aF196.93
aF268.131
ag250
aS'nimbussanl'
p257
aS'#000000'
p258
aF11.0
aI1
aI00
aI00
aI00
aI00
aI00
aI00
aI00
aI00
aa(lp259
I165851
aF216.1
aF268.417
aVp1
p260
aS'nimbussanl'
p261
aS'#000000'
p262
aF11.0
aI0
aI01
aI00
aI00
aI00
aI00
aI00
aI00
aI00
aa(lp263
I234378
aF256.05783783783784
aF268.417
ag260
aS'nimbussanl'
p264
aS'#000000'
p265
aF11.0
aI0
aI01
aI01
aI00
aI00
aI00
aI00
aI00
aI00
aa(lp266
I234378
aF267.18864864864867
aF268.417
ag260
aS'nimbussanl'
p267
aS'#000000'
p268
aF11.0
aI0
aI00
aI00
aI00
aI00
aI00
aI00
aI00
aI00
aa(lp269
I21716
aF273.75405405405405
aF268.417
ag260
aS'nimbussanl'
p270
aS'#000000'
p271
aF11.0
aI0
aI01
aI01
aI00
aI00
aI00
aI00
aI00
aI00
aa(lp272
I234378
aF290.01567567567565
aF268.417
ag260
aS'nimbussanl'
p273
aS'#000000'
p274
aF11.0
aI0
aI00
aI00
aI00
aI00
aI00
aI00
aI00
aI00
aa(lp275
I234378
aF302.58108108108104
aF268.417
ag260
aS'nimbussanl'
p276
aS'#000000'
p277
aF11.0
aI0
aI01
aI01
aI01
aI00
aI00
aI00
aI00
aI00
aa(lp278
I234378
aF317.4081081081081
aF268.417
ag260
aS'nimbussanl'
p279
aS'#000000'
p280
aF11.0
aI0
aI00
aI00
aI00
aI00
aI00
aI00
aI00
aI00
aa(lp281
I234378
aF336.97351351351347
aF268.417
ag260
aS'nimbussanl'
p282
aS'#000000'
p283
aF11.0
aI0
aI01
aI01
aI01
aI00
aI00
aI00
aI00
aI00
aa(lp284
I234378
aF340.23513513513507
aF268.417
ag260
aS'nimbussanl'
p285
aS'#000000'
p286
aF11.0
aI0
aI00
aI00
aI00
aI00
aI00
aI00
aI00
aI00
aa(lp287
I234378
aF365.80054054054045
aF268.417
ag260
aS'nimbussanl'
p288
aS'#000000'
p289
aF11.0
aI0
aI01
aI00
aI00
aI00
aI00
aI00
aI00
aI00
aa(lp290
I234378
aF72.1
aF282.331
aVp1
p291
aS'nimbussanl'
p292
aS'#000000'
p293
aF11.0
aI1
aI01
aI00
aI00
aI00
aI00
aI00
aI00
aI00
aa(lp294
I234378
aF121.5780975609756
aF282.331
ag291
aS'nimbussanl'
p295
aS'#000000'
p296
aF11.0
aI1
aI00
aI00
aI00
aI00
aI00
aI00
aI00
aI00
aa(lp297
I234378
aF127.63121951219512
aF282.331
ag291
aS'nimbussanl'
p298
aS'#000000'
p299
aF11.0
aI1
aI01
aI00
aI00
aI00
aI00
aI00
aI00
aI00
aa(lp300
I234378
aF152.89682926829266
aF282.331
ag291
aS'nimbussanl'
p301
aS'#000000'
p302
aF11.0
aI1
aI00
aI00
aI00
aI00
aI00
aI00
aI00
aI00
aa(lp303
I234378
aF158.94995121951217
aF282.331
ag291
aS'nimbussanl'
p304
aS'#000000'
p305
aF11.0
aI1
aI01
aI01
aI00
aI00
aI00
aI00
aI00
aI00
aa(lp306
I234378
aF169.1093170731707
aF282.331
ag291
aS'nimbussanl'
p307
aS'#000000'
p308
aF11.0
aI1
aI00
aI00
aI00
aI00
aI00
aI00
aI00
aI00
aa(lp309
I144502
aF176.1624390243902
aF282.331
ag291
aS'nimbussanl'
p310
aS'#000000'
p311
aF11.0
aI1
aI01
aI01
aI00
aI00
aI00
aI00
aI00
aI00
aa(lp312
I225568
aF191.26868292682923
aF282.331
ag291
aS'nimbussanl'
p313
aS'#000000'
p314
aF11.0
aI1
aI01
aI01
aI00
aI00
aI00
aI00
aI00
aI00
aa(lp315
I234378
aF185.32180487804874
aF282.331
ag291
aS'nimbussanl'
p316
aS'#000000'
p317
aF11.0
aI1
aI00
aI00
aI00
aI00
aI00
aI00
aI00
aI00
aa(lp318
I234378
aF202.37492682926825
aF282.331
ag291
aS'nimbussanl'
p319
aS'#000000'
p320
aF11.0
aI1
aI01
aI00
aI00
aI00
aI00
aI00
aI00
aI00
aa(lp321
I234378
aF237.74678048780484
aF282.331
ag291
aS'nimbussanl'
p322
aS'#000000'
p323
aF11.0
aI1
aI00
aI00
aI00
aI00
aI00
aI00
aI00
aI00
aa(lp324
I115769
aF72.1
aF296.431
aVp1
p325
aS'nimbussanl'
p326
aS'#000000'
p327
aF11.0
aI1
aI01
aI00
aI00
aI00
aI00
aI00
aI00
aI00
aa(lp328
I234378
aF117.7700909090909
aF296.431
ag325
aS'nimbussanl'
p329
aS'#000000'
p330
aF11.0
aI1
aI00
aI00
aI00
aI00
aI00
aI00
aI00
aI00
aa(lp331
I148996
aF125.84454545454544
aF296.431
ag325
aS'nimbussanl'
p332
aS'#000000'
p333
aF11.0
aI1
aI01
aI00
aI00
aI00
aI00
aI00
aI00
aI00
aa(lp334
I234378
aF156.2912727272727
aF296.431
ag325
aS'nimbussanl'
p335
aS'#000000'
p336
aF11.0
aI1
aI00
aI00
aI00
aI00
aI00
aI00
aI00
aI00
aa(lp337
I223319
aF162.36572727272727
aF296.431
ag325
aS'nimbussanl'
p338
aS'#000000'
p339
aF11.0
aI1
aI01
aI00
aI00
aI00
aI00
aI00
aI00
aI00
aa(lp340
I75589
aF198.88690909090909
aF296.431
ag325
aS'nimbussanl'
p341
aS'#000000'
p342
aF11.0
aI1
aI01
aI00
aI00
aI00
aI00
aI00
aI00
aI00
aa(lp343
I234378
aF72.1
aF310.631
aVp1
p344
aS'nimbussanl'
p345
aS'#000000'
p346
aF11.0
aI1
aI01
aI00
aI00
aI00
aI00
aI00
aI00
aI00
aa(lp347
I234378
aF107.71697530864196
aF310.631
ag344
aS'nimbussanl'
p348
aS'#000000'
p349
aF11.0
aI1
aI00
aI00
aI00
aI00
aI00
aI00
aI00
aI00
aa(lp350
I234378
aF112.84037037037035
aF310.631
ag344
aS'nimbussanl'
p351
aS'#000000'
p352
aF11.0
aI1
aI01
aI00
aI00
aI00
aI00
aI00
aI00
aI00
aa(lp353
I225861
aF154.8275308641975
aF310.631
ag344
aS'nimbussanl'
p354
aS'#000000'
p355
aF11.0
aI1
aI01
aI01
aI00
aI00
aI00
aI00
aI00
aI00
aa(lp356
I234378
aF170.1977160493827
aF310.631
ag344
aS'nimbussanl'
p357
aS'#000000'
p358
aF11.0
aI1
aI00
aI00
aI00
aI00
aI00
aI00
aI00
aI00
aa(lp359
I234378
aF176.3211111111111
aF310.631
ag344
aS'nimbussanl'
p360
aS'#000000'
p361
aF11.0
aI1
aI01
aI00
aI00
aI00
aI00
aI00
aI00
aI00
aa(lp362
I221858
aF202.93808641975306
aF310.631
ag344
aS'nimbussanl'
p363
aS'#000000'
p364
aF11.0
aI1
aI01
aI00
aI00
aI00
aI00
aI00
aI00
aI00
aa(lp365
I68984
aF250.0486419753086
aF310.631
ag344
aS'nimbussanl'
p366
aS'#000000'
p367
aF11.0
aI1
aI01
aI00
aI00
aI00
aI00
aI00
aI00
aI00
aa(lp368
I234378
aF260.9124074074074
aF310.631
ag344
aS'nimbussanl'
p369
aS'#000000'
p370
aF11.0
aI1
aI00
aI00
aI00
aI00
aI00
aI00
aI00
aI00
aa(lp371
I234378
aF292.0358024691358
aF310.631
ag344
aS'nimbussanl'
p372
aS'#000000'
p373
aF11.0
aI1
aI01
aI01
aI00
aI00
aI00
aI00
aI00
aI00
aa(lp374
I100815
aF308.40598765432094
aF310.631
ag344
aS'nimbussanl'
p375
aS'#000000'
p376
aF11.0
aI1
aI01
aI00
aI00
aI00
aI00
aI00
aI00
aI00
aa(lp377
I234378
aF314.5165432098765
aF310.631
ag344
aS'nimbussanl'
p378
aS'#000000'
p379
aF11.0
aI1
aI00
aI00
aI00
aI00
aI00
aI00
aI00
aI00
aa(lp380
I234378
aF360.6399382716049
aF310.631
ag344
aS'nimbussanl'
p381
aS'#000000'
p382
aF11.0
aI1
aI01
aI00
aI00
aI00
aI00
aI00
aI00
aI00
aa(lp383
I234378
aF343.38030864197526
aF310.631
ag344
aS'nimbussanl'
p384
aS'#000000'
p385
aF11.0
aI1
aI00
aI00
aI00
aI00
aI00
aI00
aI00
aI00
aa(lp386
I234378
aF397.50370370370365
aF310.631
ag344
aS'nimbussanl'
p387
aS'#000000'
p388
aF11.0
aI1
aI01
aI01
aI00
aI00
aI00
aI00
aI00
aI00
aa(lp389
I234378
aF72.1
aF324.731
aVp1
p390
aS'nimbussanl'
p391
aS'#000000'
p392
aF11.0
aI1
aI01
aI00
aI00
aI00
aI00
aI00
aI00
aI00
aa(lp393
I234378
aF117.092
aF324.731
ag390
aS'nimbussanl'
p394
aS'#000000'
p395
aF11.0
aI1
aI00
aI00
aI00
aI00
aI00
aI00
aI00
aI00
aa(lp396
I234378
aF123.091
aF324.731
ag390
aS'nimbussanl'
p397
aS'#000000'
p398
aF11.0
aI1
aI01
aI00
aI00
aI00
aI00
aI00
aI00
aI00
aa(lp399
I234378
aF148.086
aF324.731
ag390
aS'nimbussanl'
p400
aS'#000000'
p401
aF11.0
aI1
aI00
aI00
aI00
aI00
aI00
aI00
aI00
aI00
aa(lp402
I45445
aF154.085
aF324.731
ag390
aS'nimbussanl'
p403
aS'#000000'
p404
aF11.0
aI1
aI01
aI00
aI00
aI00
aI00
aI00
aI00
aI00
aa(lp405
I123464
aF72.1
aF353.031
aVp1
p406
aS'nimbussanl'
p407
aS'#000000'
p408
aF11.0
aI1
aI01
aI01
aI00
aI00
aI00
aI00
aI00
aI00
aa(lp409
I234378
aF125.30088888888889
aF353.031
ag406
aS'nimbussanl'
p410
aS'#000000'
p411
aF11.0
aI1
aI00
aI00
aI00
aI00
aI00
aI00
aI00
aI00
aa(lp412
I56930
aF90.1
aF367.217
aVp1
p413
aS'nimbussanl'
p414
aS'#000000'
p415
aF11.0
aI0
aI01
aI00
aI00
aI00
aI00
aI00
aI00
aI00
aa(lp416
I114954
aF122.08586206896551
aF367.217
ag413
aS'nimbussanl'
p417
aS'#000000'
p418
aF11.0
aI0
aI00
aI00
aI00
aI00
aI00
aI00
aI00
aI00
aa(lp419
I234378
aF164.4003448275862
aF367.217
ag413
aS'nimbussanl'
p420
aS'#000000'
p421
aF11.0
aI0
aI00
aI00
aI00
aI00
aI00
aI00
aI00
aI00
aa(lp422
I195166
aF222.20775862068965
aF367.217
ag413
aS'nimbussanl'
p423
aS'#000000'
p424
aF11.0
aI0
aI00
aI00
aI00
aI00
aI00
aI00
aI00
aI00
aa(lp425
I234378
aF264.52224137931034
aF367.217
ag413
aS'nimbussanl'
p426
aS'#000000'
p427
aF11.0
aI0
aI00
aI00
aI00
aI00
aI00
aI00
aI00
aI00
aa(lp428
I233063
aF269.6865517241379
aF367.217
ag413
aS'nimbussanl'
p429
aS'#000000'
p430
aF11.0
aI0
aI01
aI01
aI00
aI00
aI00
aI00
aI00
aI00
aa(lp431
I234378
aF276.8508620689655
aF367.217
ag413
aS'nimbussanl'
p432
aS'#000000'
p433
aF11.0
aI0
aI00
aI00
aI00
aI00
aI00
aI00
aI00
aI00
aa(lp434
I21716
aF283.0151724137931
aF367.217
ag413
aS'nimbussanl'
p435
aS'#000000'
p436
aF11.0
aI0
aI01
aI01
aI00
aI00
aI00
aI00
aI00
aI00
aa(lp437
I234378
aF297.67241379310343
aF367.217
ag413
aS'nimbussanl'
p438
aS'#000000'
p439
aF11.0
aI0
aI00
aI00
aI00
aI00
aI00
aI00
aI00
aI00
aa(lp440
I77936
aF309.836724137931
aF367.217
ag413
aS'nimbussanl'
p441
aS'#000000'
p442
aF11.0
aI0
aI01
aI00
aI00
aI00
aI00
aI00
aI00
aI00
aa(lp443
I233063
aF336.31551724137927
aF367.217
ag413
aS'nimbussanl'
p444
aS'#000000'
p445
aF11.0
aI0
aI01
aI01
aI00
aI00
aI00
aI00
aI00
aI00
aa(lp446
I234378
aF343.47982758620685
aF367.217
ag413
aS'nimbussanl'
p447
aS'#000000'
p448
aF11.0
aI0
aI00
aI00
aI00
aI00
aI00
aI00
aI00
aI00
aa(lp449
I218862
aF368.64413793103444
aF367.217
ag413
aS'nimbussanl'
p450
aS'#000000'
p451
aF11.0
aI0
aI01
aI00
aI00
aI00
aI00
aI00
aI00
aI00
aa(lp452
I234378
aF395.46568965517235
aF367.217
ag413
aS'nimbussanl'
p453
aS'#000000'
p454
aF11.0
aI0
aI00
aI00
aI00
aI00
aI00
aI00
aI00
aI00
aa(lp455
I234378
aF441.9444827586206
aF367.217
ag413
aS'nimbussanl'
p456
aS'#000000'
p457
aF11.0
aI0
aI00
aI00
aI00
aI00
aI00
aI00
aI00
aI00
aa(lp458
I135639
aF393.1087931034482
aF367.217
ag413
aS'nimbussanl'
p459
aS'#000000'
p460
aF11.0
aI0
aI00
aI00
aI00
aI00
aI00
aI00
aI00
aI00
aa(lp461
I188458
aF459.43741379310336
aF367.217
ag413
aS'nimbussanl'
p462
aS'#000000'
p463
aF11.0
aI0
aI00
aI00
aI00
aI00
aI00
aI00
aI00
aI00
aa(lp464
I178246
aF90.1
aF381.117
aVp1
p465
aS'nimbussanl'
p466
aS'#000000'
p467
aF11.0
aI0
aI00
aI00
aI00
aI00
aI00
aI00
aI00
aI00
aa(lp468
I144489
aF110.46338461538461
aF381.117
ag465
aS'nimbussanl'
p469
aS'#000000'
p470
aF11.0
aI0
aI00
aI00
aI00
aI00
aI00
aI00
aI00
aI00
aa(lp471
I230071
aF121.14507692307691
aF381.117
ag465
aS'nimbussanl'
p472
aS'#000000'
p473
aF11.0
aI0
aI00
aI00
aI00
aI00
aI00
aI00
aI00
aI00
aa(lp474
I234378
aF140.50846153846152
aF381.117
ag465
aS'nimbussanl'
p475
aS'#000000'
p476
aF11.0
aI0
aI00
aI00
aI00
aI00
aI00
aI00
aI00
aI00
aa(lp477
I125458
aF90.1
aF394.817
aVp1
p478
aS'nimbussanl'
p479
aS'#000000'
p480
aF11.0
aI0
aI01
aI00
aI00
aI00
aI00
aI00
aI00
aI00
aa(lp481
I135639
aF121.42759999999998
aF394.817
ag478
aS'nimbussanl'
p482
aS'#000000'
p483
aF11.0
aI0
aI00
aI00
aI00
aI00
aI00
aI00
aI00
aI00
aa(lp484
I114954
aF132.53679999999997
aF394.817
ag478
aS'nimbussanl'
p485
aS'#000000'
p486
aF11.0
aI0
aI00
aI00
aI00
aI00
aI00
aI00
aI00
aI00
aa(lp487
I234378
aF173.97359999999998
aF394.817
ag478
aS'nimbussanl'
p488
aS'#000000'
p489
aF11.0
aI0
aI00
aI00
aI00
aI00
aI00
aI00
aI00
aI00
aa(lp490
I234378
aF210.3558
aF394.817
ag478
aS'nimbussanl'
p491
aS'#000000'
p492
aF11.0
aI0
aI00
aI00
aI00
aI00
aI00
aI00
aI00
aI00
aa(lp493
I89958
aF215.41039999999998
aF394.817
ag478
aS'nimbussanl'
p494
aS'#000000'
p495
aF11.0
aI0
aI01
aI00
aI00
aI00
aI00
aI00
aI00
aI00
aa(lp496
I234378
aF250.7926
aF394.817
ag478
aS'nimbussanl'
p497
aS'#000000'
p498
aF11.0
aI0
aI00
aI00
aI00
aI00
aI00
aI00
aI00
aI00
aa(lp499
I124698
aF256.8472
aF394.817
ag478
aS'nimbussanl'
p500
aS'#000000'
p501
aF11.0
aI0
aI01
aI00
aI00
aI00
aI00
aI00
aI00
aI00
aa(lp502
I234378
aF287.284
aF394.817
ag478
aS'nimbussanl'
p503
aS'#000000'
p504
aF11.0
aI0
aI00
aI00
aI00
aI00
aI00
aI00
aI00
aI00
aa(lp505
I223466
aF303.3386
aF394.817
ag478
aS'nimbussanl'
p506
aS'#000000'
p507
aF11.0
aI0
aI01
aI00
aI00
aI00
aI00
aI00
aI00
aI00
aa(lp508
I234378
aF338.7208
aF394.817
ag478
aS'nimbussanl'
p509
aS'#000000'
p510
aF11.0
aI0
aI00
aI00
aI00
aI00
aI00
aI00
aI00
aI00
aa(lp511
I228990
aF90.1
aF408.717
aVp1
p512
aS'nimbussanl'
p513
aS'#000000'
p514
aF11.0
aI0
aI01
aI00
aI00
aI00
aI00
aI00
aI00
aI00
aa(lp515
I127763
aF111.36065306122448
aF408.717
ag512
aS'nimbussanl'
p516
aS'#000000'
p517
aF11.0
aI0
aI00
aI00
aI00
aI00
aI00
aI00
aI00
aI00
aa(lp518
I135639
aF157.9471224489796
aF408.717
ag512
aS'nimbussanl'
p519
aS'#000000'
p520
aF11.0
aI0
aI00
aI00
aI00
aI00
aI00
aI00
aI00
aI00
aa(lp521
I234378
aF169.07744897959185
aF408.717
ag512
aS'nimbussanl'
p522
aS'#000000'
p523
aF11.0
aI0
aI00
aI00
aI00
aI00
aI00
aI00
aI00
aI00
aa(lp524
I85218
aF220.72908163265308
aF408.717
ag512
aS'nimbussanl'
p525
aS'#000000'
p526
aF11.0
aI0
aI00
aI00
aI00
aI00
aI00
aI00
aI00
aI00
aa(lp527
I132957
aF236.92457142857145
aF408.717
ag512
aS'nimbussanl'
p528
aS'#000000'
p529
aF11.0
aI0
aI00
aI00
aI00
aI00
aI00
aI00
aI00
aI00
aa(lp530
I234378
aF258.1852244897959
aF408.717
ag512
aS'nimbussanl'
p531
aS'#000000'
p532
aF11.0
aI0
aI00
aI00
aI00
aI00
aI00
aI00
aI00
aI00
aa(lp533
I234378
aF308.8368571428572
aF408.717
ag512
aS'nimbussanl'
p534
aS'#000000'
p535
aF11.0
aI0
aI00
aI00
aI00
aI00
aI00
aI00
aI00
aI00
aa(lp536
I228990
aF90.1
aF422.717
aVp1
p537
aS'nimbussanl'
p538
aS'#000000'
p539
aF11.0
aI0
aI01
aI00
aI00
aI00
aI00
aI00
aI00
aI00
aa(lp540
I111798
aF111.76239999999999
aF422.717
ag537
aS'nimbussanl'
p541
aS'#000000'
p542
aF11.0
aI0
aI00
aI00
aI00
aI00
aI00
aI00
aI00
aI00
aa(lp543
I135639
aF175.91519999999997
aF422.717
ag537
aS'nimbussanl'
p544
aS'#000000'
p545
aF11.0
aI0
aI00
aI00
aI00
aI00
aI00
aI00
aI00
aI00
aa(lp546
I51660
aF191.24639999999997
aF422.717
ag537
aS'nimbussanl'
p547
aS'#000000'
p548
aF11.0
aI0
aI00
aI00
aI00
aI00
aI00
aI00
aI00
aI00
aa(lp549
I131978
aF218.07439999999997
aF422.717
ag537
aS'nimbussanl'
p550
aS'#000000'
p551
aF11.0
aI0
aI00
aI00
aI00
aI00
aI00
aI00
aI00
aI00
aa(lp552
I234378
aF274.89599999999996
aF422.717
ag537
aS'nimbussanl'
p553
aS'#000000'
p554
aF11.0
aI0
aI00
aI00
aI00
aI00
aI00
aI00
aI00
aI00
aa(lp555
I169421
aF90.1
aF436.617
aVp1
p556
aS'nimbussanl'
p557
aS'#000000'
p558
aF11.0
aI0
aI01
aI00
aI00
aI00
aI00
aI00
aI00
aI00
aa(lp559
I195547
aF126.90719999999999
aF436.617
ag556
aS'nimbussanl'
p560
aS'#000000'
p561
aF11.0
aI0
aI00
aI00
aI00
aI00
aI00
aI00
aI00
aI00
aa(lp562
I144509
aF158.5990857142857
aF436.617
ag556
aS'nimbussanl'
p563
aS'#000000'
p564
aF11.0
aI0
aI00
aI00
aI00
aI00
aI00
aI00
aI00
aI00
aa(lp565
I234378
aF226.09817142857142
aF436.617
ag556
aS'nimbussanl'
p566
aS'#000000'
p567
aF11.0
aI0
aI00
aI00
aI00
aI00
aI00
aI00
aI00
aI00
aa(lp568
I191101
aF90.1
aF450.617
aVp1
p569
aS'nimbussanl'
p570
aS'#000000'
p571
aF11.0
aI0
aI01
aI00
aI00
aI00
aI00
aI00
aI00
aI00
aa(lp572
I45693
aF131.41945945945946
aF450.617
ag569
aS'nimbussanl'
p573
aS'#000000'
p574
aF11.0
aI0
aI00
aI00
aI00
aI00
aI00
aI00
aI00
aI00
aa(lp575
I78878
aF172.73891891891893
aF450.617
ag569
aS'nimbussanl'
p576
aS'#000000'
p577
aF11.0
aI0
aI00
aI00
aI00
aI00
aI00
aI00
aI00
aI00
aa(lp578
I177216
aF209.01844594594596
aF450.617
ag569
aS'nimbussanl'
p579
aS'#000000'
p580
aF11.0
aI0
aI00
aI00
aI00
aI00
aI00
aI00
aI00
aI00
aa(lp581
I80364
aF250.33790540540542
aF450.617
ag569
aS'nimbussanl'
p582
aS'#000000'
p583
aF11.0
aI0
aI00
aI00
aI00
aI00
aI00
aI00
aI00
aI00
aa(lp584
I234378
aF266.4577027027027
aF450.617
ag569
aS'nimbussanl'
p585
aS'#000000'
p586
aF11.0
aI0
aI00
aI00
aI00
aI00
aI00
aI00
aI00
aI00
aa(lp587
I85218
aF297.69729729729727
aF450.617
ag569
aS'nimbussanl'
p588
aS'#000000'
p589
aF11.0
aI0
aI00
aI00
aI00
aI00
aI00
aI00
aI00
aI00
aa(lp590
I234378
aF313.81709459459455
aF450.617
ag569
aS'nimbussanl'
p591
aS'#000000'
p592
aF11.0
aI0
aI00
aI00
aI00
aI00
aI00
aI00
aI00
aI00
aa(lp593
I2002
aF360.17648648648645
aF450.617
ag569
aS'nimbussanl'
p594
aS'#000000'
p595
aF11.0
aI0
aI00
aI00
aI00
aI00
aI00
aI00
aI00
aI00
aa(lp596
I127763
aF381.3362162162162
aF450.617
ag569
aS'nimbussanl'
p597
aS'#000000'
p598
aF11.0
aI0
aI00
aI00
aI00
aI00
aI00
aI00
aI00
aI00
aa(lp599
I128359
aF90.1
aF464.517
aVp1
p600
aS'nimbussanl'
p601
aS'#000000'
p602
aF11.0
aI0
aI01
aI00
aI00
aI00
aI00
aI00
aI00
aI00
aa(lp603
I234378
aF134.19877647058823
aF464.517
ag600
aS'nimbussanl'
p604
aS'#000000'
p605
aF11.0
aI0
aI00
aI00
aI00
aI00
aI00
aI00
aI00
aI00
aa(lp606
I135639
aF163.93129411764704
aF464.517
ag600
aS'nimbussanl'
p607
aS'#000000'
p608
aF11.0
aI0
aI00
aI00
aI00
aI00
aI00
aI00
aI00
aI00
aa(lp609
I166245
aF174.50879999999998
aF464.517
ag600
aS'nimbussanl'
p610
aS'#000000'
p611
aF11.0
aI0
aI00
aI00
aI00
aI00
aI00
aI00
aI00
aI00
aa(lp612
I123665
aF213.81882352941176
aF464.517
ag600
aS'nimbussanl'
p613
aS'#000000'
p614
aF11.0
aI0
aI00
aI00
aI00
aI00
aI00
aI00
aI00
aI00
aa(lp615
I68032
aF267.49510588235296
aF464.517
ag600
aS'nimbussanl'
p616
aS'#000000'
p617
aF11.0
aI0
aI00
aI00
aI00
aI00
aI00
aI00
aI00
aI00
aa(lp618
I234378
aF320.17138823529416
aF464.517
ag600
aS'nimbussanl'
p619
aS'#000000'
p620
aF11.0
aI0
aI00
aI00
aI00
aI00
aI00
aI00
aI00
aI00
aa(lp621
I147316
aF325.96014117647064
aF464.517
ag600
aS'nimbussanl'
p622
aS'#000000'
p623
aF11.0
aI0
aI00
aI00
aI00
aI00
aI00
aI00
aI00
aI00
aa(lp624
I234378
aF350.48141176470597
aF464.517
ag600
aS'nimbussanl'
p625
aS'#000000'
p626
aF11.0
aI0
aI00
aI00
aI00
aI00
aI00
aI00
aI00
aI00
aa(lp627
I3609
aF365.27016470588245
aF464.517
ag600
aS'nimbussanl'
p628
aS'#000000'
p629
aF11.0
aI0
aI00
aI00
aI00
aI00
aI00
aI00
aI00
aI00
aa(lp630
I234378
aF399.7914352941177
aF464.517
ag600
aS'nimbussanl'
p631
aS'#000000'
p632
aF11.0
aI0
aI00
aI00
aI00
aI00
aI00
aI00
aI00
aI00
aa(lp633
I234378
aF365.31270588235304
aF464.517
ag600
aS'nimbussanl'
p634
aS'#000000'
p635
aF11.0
aI0
aI00
aI00
aI00
aI00
aI00
aI00
aI00
aI00
aa(lp636
I195547
aF90.1
aF478.517
aVp1
p637
aS'nimbussanl'
p638
aS'#000000'
p639
aF11.0
aI0
aI01
aI00
aI00
aI00
aI00
aI00
aI00
aI00
aa(lp640
I149270
aF120.0517441860465
aF478.517
ag637
aS'nimbussanl'
p641
aS'#000000'
p642
aF11.0
aI0
aI00
aI00
aI00
aI00
aI00
aI00
aI00
aI00
aa(lp643
I110581
aF164.47936046511626
aF478.517
ag637
aS'nimbussanl'
p644
aS'#000000'
p645
aF11.0
aI0
aI00
aI00
aI00
aI00
aI00
aI00
aI00
aI00
aa(lp646
I85218
aF213.73226744186044
aF478.517
ag637
aS'nimbussanl'
p647
aS'#000000'
p648
aF11.0
aI0
aI00
aI00
aI00
aI00
aI00
aI00
aI00
aI00
aa(lp649
I228990
aF229.20813953488368
aF478.517
ag637
aS'nimbussanl'
p650
aS'#000000'
p651
aF11.0
aI0
aI00
aI00
aI00
aI00
aI00
aI00
aI00
aI00
aa(lp652
I85993
aF249.50930232558136
aF478.517
ag637
aS'nimbussanl'
p653
aS'#000000'
p654
aF11.0
aI0
aI00
aI00
aI00
aI00
aI00
aI00
aI00
aI00
aa(lp655
I234378
aF313.2380813953488
aF478.517
ag637
aS'nimbussanl'
p656
aS'#000000'
p657
aF11.0
aI0
aI00
aI00
aI00
aI00
aI00
aI00
aI00
aI00
aa(lp658
I120218
aF345.1898255813953
aF478.517
ag637
aS'nimbussanl'
p659
aS'#000000'
p660
aF11.0
aI0
aI00
aI00
aI00
aI00
aI00
aI00
aI00
aI00
aa(lp661
I19144
aF384.7921511627907
aF478.517
ag637
aS'nimbussanl'
p662
aS'#000000'
p663
aF11.0
aI0
aI00
aI00
aI00
aI00
aI00
aI00
aI00
aI00
aa(lp664
I234378
aF405.04505813953483
aF478.517
ag637
aS'nimbussanl'
p665
aS'#000000'
p666
aF11.0
aI0
aI00
aI00
aI00
aI00
aI00
aI00
aI00
aI00
aa(lp667
I234378
aF90.1
aF492.417
aVp1
p668
aS'nimbussanl'
p669
aS'#000000'
p670
aF11.0
aI0
aI01
aI00
aI00
aI00
aI00
aI00
aI00
aI00
aa(lp671
I234378
aF129.59140229885057
aF492.417
ag668
aS'nimbussanl'
p672
aS'#000000'
p673
aF11.0
aI0
aI01
aI00
aI00
aI00
aI00
aI00
aI00
aI00
aa(lp674
I103666
aF164.27137931034483
aF492.417
ag668
aS'nimbussanl'
p675
aS'#000000'
p676
aF11.0
aI0
aI00
aI00
aI00
aI00
aI00
aI00
aI00
aI00
aa(lp677
I135639
aF197.7627816091954
aF492.417
ag668
aS'nimbussanl'
p678
aS'#000000'
p679
aF11.0
aI0
aI00
aI00
aI00
aI00
aI00
aI00
aI00
aI00
aa(lp680
I174268
aF214.38563218390806
aF492.417
ag668
aS'nimbussanl'
p681
aS'#000000'
p682
aF11.0
aI0
aI00
aI00
aI00
aI00
aI00
aI00
aI00
aI00
aa(lp683
I234378
aF249.06560919540232
aF492.417
ag668
aS'nimbussanl'
p684
aS'#000000'
p685
aF11.0
aI0
aI00
aI00
aI00
aI00
aI00
aI00
aI00
aI00
aa(lp686
I10716
aF293.3684367816092
aF492.417
ag668
aS'nimbussanl'
p687
aS'#000000'
p688
aF11.0
aI0
aI00
aI00
aI00
aI00
aI00
aI00
aI00
aI00
aa(lp689
I233063
aF313.6141379310345
aF492.417
ag668
aS'nimbussanl'
p690
aS'#000000'
p691
aF11.0
aI0
aI01
aI01
aI00
aI00
aI00
aI00
aI00
aI00
aa(lp692
I234378
aF320.42556321839083
aF492.417
ag668
aS'nimbussanl'
p693
aS'#000000'
p694
aF11.0
aI0
aI00
aI00
aI00
aI00
aI00
aI00
aI00
aI00
aa(lp695
I45445
aF325.23698850574715
aF492.417
ag668
aS'nimbussanl'
p696
aS'#000000'
p697
aF11.0
aI0
aI01
aI00
aI00
aI00
aI00
aI00
aI00
aI00
aa(lp698
I234378
aF347.1055402298851
aF492.417
ag668
aS'nimbussanl'
p699
aS'#000000'
p700
aF11.0
aI0
aI00
aI00
aI00
aI00
aI00
aI00
aI00
aI00
aa(lp701
I21716
aF359.9169655172414
aF492.417
ag668
aS'nimbussanl'
p702
aS'#000000'
p703
aF11.0
aI0
aI01
aI01
aI00
aI00
aI00
aI00
aI00
aI00
aa(lp704
I234378
aF366.1626666666667
aF492.417
ag668
aS'nimbussanl'
p705
aS'#000000'
p706
aF11.0
aI0
aI00
aI00
aI00
aI00
aI00
aI00
aI00
aI00
aa(lp707
I77936
aF384.97409195402304
aF492.417
ag668
aS'nimbussanl'
p708
aS'#000000'
p709
aF11.0
aI0
aI01
aI00
aI00
aI00
aI00
aI00
aI00
aI00
aa(lp710
I233063
aF401.2769195402299
aF492.417
ag668
aS'nimbussanl'
p711
aS'#000000'
p712
aF11.0
aI0
aI01
aI01
aI00
aI00
aI00
aI00
aI00
aI00
aa(lp713
I234378
aF435.08834482758624
aF492.417
ag668
aS'nimbussanl'
p714
aS'#000000'
p715
aF11.0
aI0
aI00
aI00
aI00
aI00
aI00
aI00
aI00
aI00
aa(lp716
I234378
aF449.5226206896552
aF492.417
ag668
aS'nimbussanl'
p717
aS'#000000'
p718
aF11.0
aI0
aI00
aI00
aI00
aI00
aI00
aI00
aI00
aI00
aa(lp719
I234378
aF423.3340459770115
aF492.417
ag668
aS'nimbussanl'
p720
aS'#000000'
p721
aF11.0
aI0
aI00
aI00
aI00
aI00
aI00
aI00
aI00
aI00
aa(lp722
I177958
aF72.1
aF520.531
aVp1
p723
aS'nimbussanl'
p724
aS'#000000'
p725
aF11.0
aI1
aI01
aI01
aI00
aI00
aI00
aI00
aI00
aI00
aa(lp726
I60220
aF120.81568421052631
aF520.531
ag723
aS'nimbussanl'
p727
aS'#000000'
p728
aF11.0
aI1
aI01
aI01
aI00
aI00
aI00
aI00
aI00
aI00
aa(lp729
I234378
aF188.98094736842106
aF520.531
ag723
aS'nimbussanl'
p730
aS'#000000'
p731
aF11.0
aI1
aI00
aI00
aI00
aI00
aI00
aI00
aI00
aI00
aa(lp732
I25931
aF72.1
aF548.331
aVp1
p733
aS'nimbussanl'
p734
aS'#000000'
p735
aF11.0
aI1
aI01
aI00
aI00
aI00
aI00
aI00
aI00
aI00
aa(lp736
I234378
aF104.80799999999999
aF548.331
ag733
aS'nimbussanl'
p737
aS'#000000'
p738
aF11.0
aI1
aI00
aI00
aI00
aI00
aI00
aI00
aI00
aI00
aa(lp739
I16334
aF111.25933333333333
aF548.331
ag733
aS'nimbussanl'
p740
aS'#000000'
p741
aF11.0
aI1
aI01
aI01
aI00
aI00
aI00
aI00
aI00
aI00
aa(lp742
I220729
aF121.16199999999999
aF548.331
ag733
aS'nimbussanl'
p743
aS'#000000'
p744
aF11.0
aI1
aI01
aI01
aI00
aI00
aI00
aI00
aI00
aI00
aa(lp745
I27216
aF396.1
aF548.331
aVp1
p746
aS'nimbussanl'
p747
aS'#000000'
p748
aF11.0
aI1
aI01
aI00
aI00
aI00
aI00
aI00
aI00
aI01
aa(lp749
I234378
aF413.81083333333333
aF548.331
ag746
aS'nimbussanl'
p750
aS'#000000'
p751
aF11.0
aI1
aI00
aI00
aI01
aI01
aI01
aI00
aI00
aI00
aa(lp752
I102117
aF439.09194444444444
aF548.331
ag746
aS'nimbussanl'
p753
aS'#000000'
p754
aF11.0
aI1
aI01
aI00
aI00
aI00
aI00
aI00
aI00
aI00
aa(lp755
I176435
aF72.1
aF562.531
aVp1
p756
aS'nimbussanl'
p757
aS'#000000'
p758
aF11.0
aI1
aI01
aI00
aI00
aI00
aI00
aI00
aI00
aI00
aa(lp759
I234378
aF92.97766666666666
aF562.531
ag756
aS'nimbussanl'
p760
aS'#000000'
p761
aF11.0
aI1
aI00
aI00
aI00
aI00
aI00
aI00
aI00
aI00
aa(lp762
I234378
aF99.19708333333332
aF562.531
ag756
aS'nimbussanl'
p763
aS'#000000'
p764
aF11.0
aI1
aI01
aI00
aI00
aI00
aI00
aI00
aI00
aI00
aa(lp765
I100815
aF141.95241666666666
aF562.531
ag756
aS'nimbussanl'
p766
aS'#000000'
p767
aF11.0
aI1
aI00
aI00
aI00
aI00
aI00
aI00
aI00
aI00
aa(lp768
I12878
aF72.1
aF590.831
aVp1
p769
aS'nimbussanl'
p770
aS'#000000'
p771
aF11.0
aI1
aI01
aI00
aI00
aI00
aI00
aI00
aI00
aI00
aa(lp772
I234378
aF128.28772839506172
aF590.831
ag769
aS'nimbussanl'
p773
aS'#000000'
p774
aF11.0
aI1
aI00
aI00
aI00
aI00
aI00
aI00
aI00
aI00
aa(lp775
I165851
aF134.3957037037037
aF590.831
ag769
aS'nimbussanl'
p776
aS'#000000'
p777
aF11.0
aI1
aI01
aI00
aI00
aI00
aI00
aI00
aI00
aI00
aa(lp778
I234378
aF171.15153086419753
aF590.831
ag769
aS'nimbussanl'
p779
aS'#000000'
p780
aF11.0
aI1
aI01
aI00
aI00
aI00
aI00
aI00
aI00
aI00
aa(lp781
I234378
aF181.36748148148146
aF590.831
ag769
aS'nimbussanl'
p782
aS'#000000'
p783
aF11.0
aI1
aI00
aI00
aI00
aI00
aI00
aI00
aI00
aI00
aa(lp784
I21716
aF187.47545679012345
aF590.831
ag769
aS'nimbussanl'
p785
aS'#000000'
p786
aF11.0
aI1
aI01
aI01
aI00
aI00
aI00
aI00
aI00
aI00
aa(lp787
I234378
aF201.90735802469135
aF590.831
ag769
aS'nimbussanl'
p788
aS'#000000'
p789
aF11.0
aI1
aI00
aI00
aI00
aI00
aI00
aI00
aI00
aI00
aa(lp790
I234378
aF214.01533333333333
aF590.831
ag769
aS'nimbussanl'
p791
aS'#000000'
p792
aF11.0
aI1
aI01
aI00
aI00
aI00
aI00
aI00
aI00
aI00
aa(lp793
I234378
aF245.66318518518517
aF590.831
ag769
aS'nimbussanl'
p794
aS'#000000'
p795
aF11.0
aI1
aI01
aI00
aI00
aI00
aI00
aI00
aI00
aI00
aa(lp796
I234378
aF251.20306172839503
aF590.831
ag769
aS'nimbussanl'
p797
aS'#000000'
p798
aF11.0
aI1
aI00
aI00
aI00
aI00
aI00
aI00
aI00
aI00
aa(lp799
I218862
aF277.311037037037
aF590.831
ag769
aS'nimbussanl'
p800
aS'#000000'
p801
aF11.0
aI1
aI01
aI00
aI00
aI00
aI00
aI00
aI00
aI00
aa(lp802
I234378
aF303.85091358024687
aF590.831
ag769
aS'nimbussanl'
p803
aS'#000000'
p804
aF11.0
aI1
aI00
aI00
aI00
aI00
aI00
aI00
aI00
aI00
aa(lp805
I234378
aF312.82269135802466
aF590.831
ag769
aS'nimbussanl'
p806
aS'#000000'
p807
aF11.0
aI1
aI00
aI00
aI00
aI00
aI00
aI00
aI00
aI00
aa(lp808
I234378
aF355.93066666666664
aF590.831
ag769
aS'nimbussanl'
p809
aS'#000000'
p810
aF11.0
aI1
aI01
aI01
aI00
aI00
aI00
aI00
aI00
aI00
aa(lp811
I234378
aF329.2545925925926
aF590.831
ag769
aS'nimbussanl'
p812
aS'#000000'
p813
aF11.0
aI1
aI00
aI00
aI00
aI00
aI00
aI00
aI00
aI00
aa(lp814
I131892
aF377.36256790123457
aF590.831
ag769
aS'nimbussanl'
p815
aS'#000000'
p816
aF11.0
aI1
aI01
aI00
aI00
aI00
aI00
aI00
aI00
aI00
aa(lp817
I234378
aF362.1183950617284
aF590.831
ag769
aS'nimbussanl'
p818
aS'#000000'
p819
aF11.0
aI1
aI00
aI00
aI00
aI00
aI00
aI00
aI00
aI00
aa(lp820
I129488
aF419.2263703703704
aF590.831
ag769
aS'nimbussanl'
p821
aS'#000000'
p822
aF11.0
aI1
aI01
aI00
aI00
aI00
aI00
aI00
aI00
aI00
aa(lp823
I63022
aF72.1
aF604.931
aVp1
p824
aS'nimbussanl'
p825
aS'#000000'
p826
aF11.0
aI1
aI01
aI00
aI00
aI00
aI00
aI00
aI00
aI00
aa(lp827
I234378
aF117.00062499999999
aF604.931
ag824
aS'nimbussanl'
p828
aS'#000000'
p829
aF11.0
aI1
aI00
aI00
aI00
aI00
aI00
aI00
aI00
aI00
aa(lp830
I16334
aF85.6
aF619.117
aVp1
p831
aS'nimbussanl'
p832
aS'#000000'
p833
aF11.0
aI0
aI01
aI01
aI00
aI00
aI00
aI00
aI00
aI00
aa(lp834
I220729
aF94.53674725274725
aF619.117
ag831
aS'nimbussanl'
p835
aS'#000000'
p836
aF11.0
aI0
aI01
aI01
aI00
aI00
aI00
aI00
aI00
aI00
aa(lp837
I234378
aF102.50512087912088
aF619.117
ag831
aS'nimbussanl'
p838
aS'#000000'
p839
aF11.0
aI0
aI01
aI00
aI00
aI00
aI00
aI00
aI00
aI00
aa(lp840
I234378
aF123.37861538461539
aF619.117
ag831
aS'nimbussanl'
p841
aS'#000000'
p842
aF11.0
aI0
aI01
aI00
aI00
aI00
aI00
aI00
aI00
aI00
aa(lp843
I234378
aF164.1256043956044
aF619.117
ag831
aS'nimbussanl'
p844
aS'#000000'
p845
aF11.0
aI0
aI00
aI00
aI00
aI00
aI00
aI00
aI00
aI00
aa(lp846
I234378
aF169.09397802197802
aF619.117
ag831
aS'nimbussanl'
p847
aS'#000000'
p848
aF11.0
aI0
aI01
aI01
aI00
aI00
aI00
aI00
aI00
aI00
aa(lp849
I234378
aF183.9990989010989
aF619.117
ag831
aS'nimbussanl'
p850
aS'#000000'
p851
aF11.0
aI0
aI00
aI00
aI00
aI00
aI00
aI00
aI00
aI00
aa(lp852
I234378
aF189.96747252747252
aF619.117
ag831
aS'nimbussanl'
p853
aS'#000000'
p854
aF11.0
aI0
aI00
aI00
aI00
aI00
aI00
aI00
aI00
aI00
aa(lp855
I143195
aF230.71446153846153
aF619.117
ag831
aS'nimbussanl'
p856
aS'#000000'
p857
aF11.0
aI0
aI00
aI00
aI00
aI00
aI00
aI00
aI00
aI00
aa(lp858
I234378
aF241.39819780219779
aF619.117
ag831
aS'nimbussanl'
p859
aS'#000000'
p860
aF11.0
aI0
aI01
aI00
aI00
aI00
aI00
aI00
aI00
aI00
aa(lp861
I14859
aF302.2716923076923
aF619.117
ag831
aS'nimbussanl'
p862
aS'#000000'
p863
aF11.0
aI0
aI00
aI00
aI00
aI00
aI00
aI00
aI00
aI00
aa(lp864
I89480
aF343.01868131868133
aF619.117
ag831
aS'nimbussanl'
p865
aS'#000000'
p866
aF11.0
aI0
aI00
aI00
aI00
aI00
aI00
aI00
aI00
aI00
aa(lp867
I234378
aF353.95542857142857
aF619.117
ag831
aS'nimbussanl'
p868
aS'#000000'
p869
aF11.0
aI0
aI00
aI00
aI00
aI00
aI00
aI00
aI00
aI00
aa(lp870
I10716
aF384.76567032967034
aF619.117
ag831
aS'nimbussanl'
p871
aS'#000000'
p872
aF11.0
aI0
aI00
aI00
aI00
aI00
aI00
aI00
aI00
aI00
aa(lp873
I234378
aF405.6391648351648
aF619.117
ag831
aS'nimbussanl'
p874
aS'#000000'
p875
aF11.0
aI0
aI00
aI00
aI00
aI00
aI00
aI00
aI00
aI00
aa(lp876
I234378
aF435.4494065934066
aF619.117
ag831
aS'nimbussanl'
p877
aS'#000000'
p878
aF11.0
aI0
aI00
aI00
aI00
aI00
aI00
aI00
aI00
aI00
aa(lp879
I234378
aF441.41778021978024
aF619.117
ag831
aS'nimbussanl'
p880
aS'#000000'
p881
aF11.0
aI0
aI00
aI00
aI00
aI00
aI00
aI00
aI00
aI00
aa(lp882
I234378
aF471.16476923076925
aF619.117
ag831
aS'nimbussanl'
p883
aS'#000000'
p884
aF11.0
aI0
aI00
aI00
aI00
aI00
aI00
aI00
aI00
aI00
aa(lp885
I234378
aF85.6
aF632.717
aVp1
p886
aS'nimbussanl'
p887
aS'#000000'
p888
aF11.0
aI0
aI00
aI00
aI00
aI00
aI00
aI00
aI00
aI00
aa(lp889
I234378
aF138.93040229885057
aF632.717
ag886
aS'nimbussanl'
p890
aS'#000000'
p891
aF11.0
aI0
aI00
aI00
aI00
aI00
aI00
aI00
aI00
aI00
aa(lp892
I234378
aF144.77862068965516
aF632.717
ag886
aS'nimbussanl'
p893
aS'#000000'
p894
aF11.0
aI0
aI00
aI00
aI00
aI00
aI00
aI00
aI00
aI00
aa(lp895
I234378
aF159.32327586206895
aF632.717
ag886
aS'nimbussanl'
p896
aS'#000000'
p897
aF11.0
aI0
aI00
aI00
aI00
aI00
aI00
aI00
aI00
aI00
aa(lp898
I46544
aF165.17149425287354
aF632.717
ag886
aS'nimbussanl'
p899
aS'#000000'
p900
aF11.0
aI0
aI01
aI00
aI00
aI00
aI00
aI00
aI00
aI00
aa(lp901
I177958
aF185.56436781609193
aF632.717
ag886
aS'nimbussanl'
p902
aS'#000000'
p903
aF11.0
aI0
aI00
aI00
aI00
aI00
aI00
aI00
aI00
aI00
aa(lp904
I234378
aF220.50189655172412
aF632.717
ag886
aS'nimbussanl'
p905
aS'#000000'
p906
aF11.0
aI0
aI00
aI00
aI00
aI00
aI00
aI00
aI00
aI00
aa(lp907
I234378
aF260.2876436781609
aF632.717
ag886
aS'nimbussanl'
p908
aS'#000000'
p909
aF11.0
aI0
aI00
aI00
aI00
aI00
aI00
aI00
aI00
aI00
aa(lp910
I68032
aF300.0733908045977
aF632.717
ag886
aS'nimbussanl'
p911
aS'#000000'
p912
aF11.0
aI0
aI00
aI00
aI00
aI00
aI00
aI00
aI00
aI00
aa(lp913
I234378
aF304.40379310344827
aF632.717
ag886
aS'nimbussanl'
p914
aS'#000000'
p915
aF11.0
aI0
aI00
aI00
aI00
aI00
aI00
aI00
aI00
aI00
aa(lp916
I125078
aF359.2520114942529
aF632.717
ag886
aS'nimbussanl'
p917
aS'#000000'
p918
aF11.0
aI0
aI00
aI00
aI00
aI00
aI00
aI00
aI00
aI00
aa(lp919
I85218
aF394.1895402298851
aF632.717
ag886
aS'nimbussanl'
p920
aS'#000000'
p921
aF11.0
aI0
aI00
aI00
aI00
aI00
aI00
aI00
aI00
aI00
aa(lp922
I215357
aF409.7341954022989
aF632.717
ag886
aS'nimbussanl'
p923
aS'#000000'
p924
aF11.0
aI0
aI00
aI00
aI00
aI00
aI00
aI00
aI00
aI00
aa(lp925
I144489
aF415.21637931034485
aF632.717
ag886
aS'nimbussanl'
p926
aS'#000000'
p927
aF11.0
aI0
aI00
aI00
aI00
aI00
aI00
aI00
aI00
aI00
aa(lp928
I174268
aF85.6
aF646.417
aVp1
p929
aS'nimbussanl'
p930
aS'#000000'
p931
aF11.0
aI0
aI00
aI00
aI00
aI00
aI00
aI00
aI00
aI00
aa(lp932
I234378
aF122.61540697674418
aF646.417
ag929
aS'nimbussanl'
p933
aS'#000000'
p934
aF11.0
aI0
aI00
aI00
aI00
aI00
aI00
aI00
aI00
aI00
aa(lp935
I8691
aF164.77587209302325
aF646.417
ag929
aS'nimbussanl'
p936
aS'#000000'
p937
aF11.0
aI0
aI00
aI00
aI00
aI00
aI00
aI00
aI00
aI00
aa(lp938
I52532
aF196.64622093023254
aF646.417
ag929
aS'nimbussanl'
p939
aS'#000000'
p940
aF11.0
aI0
aI00
aI00
aI00
aI00
aI00
aI00
aI00
aI00
aa(lp941
I234378
aF243.95174418604648
aF646.417
ag929
aS'nimbussanl'
p942
aS'#000000'
p943
aF11.0
aI0
aI00
aI00
aI00
aI00
aI00
aI00
aI00
aI00
aa(lp944
I190806
aF286.11220930232554
aF646.417
ag929
aS'nimbussanl'
p945
aS'#000000'
p946
aF11.0
aI0
aI00
aI00
aI00
aI00
aI00
aI00
aI00
aI00
aa(lp947
I194354
aF302.5473837209302
aF646.417
ag929
aS'nimbussanl'
p948
aS'#000000'
p949
aF11.0
aI0
aI00
aI00
aI00
aI00
aI00
aI00
aI00
aI00
aa(lp950
I223466
aF318.9825581395349
aF646.417
ag929
aS'nimbussanl'
p951
aS'#000000'
p952
aF11.0
aI0
aI01
aI00
aI00
aI00
aI00
aI00
aI00
aI00
aa(lp953
I153177
aF355.9979651162791
aF646.417
ag929
aS'nimbussanl'
p954
aS'#000000'
p955
aF11.0
aI0
aI01
aI00
aI00
aI00
aI00
aI00
aI00
aI00
aa(lp956
I46827
aF408.4485465116279
aF646.417
ag929
aS'nimbussanl'
p957
aS'#000000'
p958
aF11.0
aI0
aI01
aI00
aI00
aI00
aI00
aI00
aI00
aI00
aa(lp959
I234378
aF440.3188953488372
aF646.417
ag929
aS'nimbussanl'
p960
aS'#000000'
p961
aF11.0
aI0
aI00
aI00
aI00
aI00
aI00
aI00
aI00
aI00
aa(lp962
I234378
aF445.4639534883721
aF646.417
ag929
aS'nimbussanl'
p963
aS'#000000'
p964
aF11.0
aI0
aI01
aI01
aI00
aI00
aI00
aI00
aI00
aI00
aa(lp965
I234378
aF460.8991279069768
aF646.417
ag929
aS'nimbussanl'
p966
aS'#000000'
p967
aF11.0
aI0
aI00
aI00
aI00
aI00
aI00
aI00
aI00
aI00
aa(lp968
I85218
aF467.0441860465117
aF646.417
ag929
aS'nimbussanl'
p969
aS'#000000'
p970
aF11.0
aI0
aI00
aI00
aI00
aI00
aI00
aI00
aI00
aI00
aa(lp971
I177271
aF85.6
aF660.017
aVp1
p972
aS'nimbussanl'
p973
aS'#000000'
p974
aF11.0
aI0
aI00
aI00
aI00
aI00
aI00
aI00
aI00
aI00
aa(lp975
I234378
aF111.31796703296703
aF660.017
ag972
aS'nimbussanl'
p976
aS'#000000'
p977
aF11.0
aI0
aI00
aI00
aI00
aI00
aI00
aI00
aI00
aI00
aa(lp978
I135639
aF146.9231208791209
aF660.017
ag972
aS'nimbussanl'
p979
aS'#000000'
p980
aF11.0
aI0
aI00
aI00
aI00
aI00
aI00
aI00
aI00
aI00
aa(lp981
I194354
aF141.8103076923077
aF660.017
ag972
aS'nimbussanl'
p982
aS'#000000'
p983
aF11.0
aI0
aI00
aI00
aI00
aI00
aI00
aI00
aI00
aI00
aa(lp984
I14859
aF173.64108791208793
aF660.017
ag972
aS'nimbussanl'
p985
aS'#000000'
p986
aF11.0
aI0
aI00
aI00
aI00
aI00
aI00
aI00
aI00
aI00
aa(lp987
I234378
aF213.1898351648352
aF660.017
ag972
aS'nimbussanl'
p988
aS'#000000'
p989
aF11.0
aI0
aI00
aI00
aI00
aI00
aI00
aI00
aI00
aI00
aa(lp990
I194354
aF219.1334285714286
aF660.017
ag972
aS'nimbussanl'
p991
aS'#000000'
p992
aF11.0
aI0
aI01
aI00
aI00
aI00
aI00
aI00
aI00
aI00
aa(lp993
I234378
aF234.96420879120882
aF660.017
ag972
aS'nimbussanl'
p994
aS'#000000'
p995
aF11.0
aI0
aI00
aI00
aI00
aI00
aI00
aI00
aI00
aI00
aa(lp996
I130950
aF275.5129560439561
aF660.017
ag972
aS'nimbussanl'
p997
aS'#000000'
p998
aF11.0
aI0
aI00
aI00
aI00
aI00
aI00
aI00
aI00
aI00
aa(lp999
I171360
aF311.1181098901099
aF660.017
ag972
aS'nimbussanl'
p1000
aS'#000000'
p1001
aF11.0
aI0
aI01
aI00
aI00
aI00
aI00
aI00
aI00
aI00
aa(lp1002
I234378
aF355.61045054945055
aF660.017
ag972
aS'nimbussanl'
p1003
aS'#000000'
p1004
aF11.0
aI0
aI00
aI00
aI00
aI00
aI00
aI00
aI00
aI00
aa(lp1005
I234378
aF361.5540439560439
aF660.017
ag972
aS'nimbussanl'
p1006
aS'#000000'
p1007
aF11.0
aI0
aI00
aI00
aI00
aI00
aI00
aI00
aI00
aI00
aa(lp1008
I198204
aF387.27201098901094
aF660.017
ag972
aS'nimbussanl'
p1009
aS'#000000'
p1010
aF11.0
aI0
aI00
aI00
aI00
aI00
aI00
aI00
aI00
aI00
aa(lp1011
I153177
aF412.98997802197795
aF660.017
ag972
aS'nimbussanl'
p1012
aS'#000000'
p1013
aF11.0
aI0
aI00
aI00
aI00
aI00
aI00
aI00
aI00
aI00
aa(lp1014
I234378
aF438.425912087912
aF660.017
ag972
aS'nimbussanl'
p1015
aS'#000000'
p1016
aF11.0
aI0
aI00
aI00
aI00
aI00
aI00
aI00
aI00
aI00
aa(lp1017
I134763
aF468.3695054945054
aF660.017
ag972
aS'nimbussanl'
p1018
aS'#000000'
p1019
aF11.0
aI0
aI01
aI00
aI00
aI00
aI00
aI00
aI00
aI00
aa(lp1020
I55097
aF85.6
aF673.717
aVp1
p1021
aS'nimbussanl'
p1022
aS'#000000'
p1023
aF11.0
aI0
aI01
aI00
aI00
aI00
aI00
aI00
aI00
aI00
aa(lp1024
I234378
aF143.70053333333334
aF673.717
ag1021
aS'nimbussanl'
p1025
aS'#000000'
p1026
aF11.0
aI0
aI00
aI00
aI00
aI00
aI00
aI00
aI00
aI00
aa(lp1027
I234378
aF149.54224444444446
aF673.717
ag1021
aS'nimbussanl'
p1028
aS'#000000'
p1029
aF11.0
aI0
aI01
aI00
aI00
aI00
aI00
aI00
aI00
aI00
aa(lp1030
I92630
aF189.27593333333334
aF673.717
ag1021
aS'nimbussanl'
p1031
aS'#000000'
p1032
aF11.0
aI0
aI01
aI00
aI00
aI00
aI00
aI00
aI00
aI00
aa(lp1033
I153177
aF224.16791111111112
aF673.717
ag1021
aS'nimbussanl'
p1034
aS'#000000'
p1035
aF11.0
aI0
aI01
aI00
aI00
aI00
aI00
aI00
aI00
aI00
aa(lp1036
I234378
aF243.58502222222222
aF673.717
ag1021
aS'nimbussanl'
p1037
aS'#000000'
p1038
aF11.0
aI0
aI00
aI00
aI00
aI00
aI00
aI00
aI00
aI00
aa(lp1039
I110153
aF278.42673333333335
aF673.717
ag1021
aS'nimbussanl'
p1040
aS'#000000'
p1041
aF11.0
aI0
aI00
aI00
aI00
aI00
aI00
aI00
aI00
aI00
aa(lp1042
I187910
aF313.31871111111116
aF673.717
ag1021
aS'nimbussanl'
p1043
aS'#000000'
p1044
aF11.0
aI0
aI00
aI00
aI00
aI00
aI00
aI00
aI00
aI00
aa(lp1045
I234378
aF308.89411111111116
aF673.717
ag1021
aS'nimbussanl'
p1046
aS'#000000'
p1047
aF11.0
aI0
aI00
aI00
aI00
aI00
aI00
aI00
aI00
aI00
aa(lp1048
I109247
aF362.7358222222223
aF673.717
ag1021
aS'nimbussanl'
p1049
aS'#000000'
p1050
aF11.0
aI0
aI01
aI00
aI00
aI00
aI00
aI00
aI00
aI00
aa(lp1051
I144489
aF342.6278000000001
aF673.717
ag1021
aS'nimbussanl'
p1052
aS'#000000'
p1053
aF11.0
aI0
aI00
aI00
aI00
aI00
aI00
aI00
aI00
aI00
aa(lp1054
I119502
aF408.31122222222234
aF673.717
ag1021
aS'nimbussanl'
p1055
aS'#000000'
p1056
aF11.0
aI0
aI01
aI00
aI00
aI00
aI00
aI00
aI00
aI00
aa(lp1057
I234378
aF374.20320000000015
aF673.717
ag1021
aS'nimbussanl'
p1058
aS'#000000'
p1059
aF11.0
aI0
aI00
aI00
aI00
aI00
aI00
aI00
aI00
aI00
aa(lp1060
I234378
aF448.0449111111113
aF673.717
ag1021
aS'nimbussanl'
p1061
aS'#000000'
p1062
aF11.0
aI0
aI00
aI00
aI00
aI00
aI00
aI00
aI00
aI00
aa(lp1063
I234378
aF462.5700444444446
aF673.717
ag1021
aS'nimbussanl'
p1064
aS'#000000'
p1065
aF11.0
aI0
aI00
aI00
aI00
aI00
aI00
aI00
aI00
aI00
aa(lp1066
I194354
aF468.4117555555557
aF673.717
ag1021
aS'nimbussanl'
p1067
aS'#000000'
p1068
aF11.0
aI0
aI01
aI00
aI00
aI00
aI00
aI00
aI00
aI00
aa(lp1069
I177958
aF85.6
aF687.317
aVp1
p1070
aS'nimbussanl'
p1071
aS'#000000'
p1072
aF11.0
aI0
aI00
aI00
aI00
aI00
aI00
aI00
aI00
aI00
aa(lp1073
I234378
aF120.6434111111111
aF687.317
ag1070
aS'nimbussanl'
p1074
aS'#000000'
p1075
aF11.0
aI0
aI00
aI00
aI00
aI00
aI00
aI00
aI00
aI00
aa(lp1076
I234378
aF160.55016666666666
aF687.317
ag1070
aS'nimbussanl'
p1077
aS'#000000'
p1078
aF11.0
aI0
aI00
aI00
aI00
aI00
aI00
aI00
aI00
aI00
aa(lp1079
I166558
aF219.9103
aF687.317
ag1070
aS'nimbussanl'
p1080
aS'#000000'
p1081
aF11.0
aI0
aI00
aI00
aI00
aI00
aI00
aI00
aI00
aI00
aa(lp1082
I234378
aF258.81705555555556
aF687.317
ag1070
aS'nimbussanl'
p1083
aS'#000000'
p1084
aF11.0
aI0
aI00
aI00
aI00
aI00
aI00
aI00
aI00
aI00
aa(lp1085
I116628
aF264.6804
aF687.317
ag1070
aS'nimbussanl'
p1086
aS'#000000'
p1087
aF11.0
aI0
aI00
aI00
aI00
aI00
aI00
aI00
aI00
aI00
aa(lp1088
I144489
aF286.99712222222223
aF687.317
ag1070
aS'nimbussanl'
p1089
aS'#000000'
p1090
aF11.0
aI0
aI00
aI00
aI00
aI00
aI00
aI00
aI00
aI00
aa(lp1091
I4526
aF300.7238111111111
aF687.317
ag1070
aS'nimbussanl'
p1092
aS'#000000'
p1093
aF11.0
aI0
aI00
aI00
aI00
aI00
aI00
aI00
aI00
aI00
aa(lp1094
I234378
aF316.76722222222224
aF687.317
ag1070
aS'nimbussanl'
p1095
aS'#000000'
p1096
aF11.0
aI0
aI00
aI00
aI00
aI00
aI00
aI00
aI00
aI00
aa(lp1097
I133618
aF340.6305666666667
aF687.317
ag1070
aS'nimbussanl'
p1098
aS'#000000'
p1099
aF11.0
aI0
aI00
aI00
aI00
aI00
aI00
aI00
aI00
aI00
aa(lp1100
I144690
aF380.53732222222226
aF687.317
ag1070
aS'nimbussanl'
p1101
aS'#000000'
p1102
aF11.0
aI0
aI00
aI00
aI00
aI00
aI00
aI00
aI00
aI00
aa(lp1103
I234378
aF374.71738888888893
aF687.317
ag1070
aS'nimbussanl'
p1104
aS'#000000'
p1105
aF11.0
aI0
aI00
aI00
aI00
aI00
aI00
aI00
aI00
aI00
aa(lp1106
I83126
aF415.5807333333334
aF687.317
ag1070
aS'nimbussanl'
p1107
aS'#000000'
p1108
aF11.0
aI0
aI00
aI00
aI00
aI00
aI00
aI00
aI00
aI00
aa(lp1109
I234378
aF432.6675555555556
aF687.317
ag1070
aS'nimbussanl'
p1110
aS'#000000'
p1111
aF11.0
aI0
aI00
aI00
aI00
aI00
aI00
aI00
aI00
aI00
aa(lp1112
I53211
aF85.6
aF72.017
aVp2
p1113
aS'nimbussanl'
p1114
aS'#000000'
p1115
aF11.0
aI0
aI00
aI00
aI00
aI00
aI00
aI00
aI00
aI00
aa(lp1116
I234378
aF109.80803370786516
aF72.017
ag1113
aS'nimbussanl'
p1117
aS'#000000'
p1118
aF11.0
aI0
aI00
aI00
aI00
aI00
aI00
aI00
aI00
aI00
aa(lp1119
I125078
aF115.6496404494382
aF72.017
ag1113
aS'nimbussanl'
p1120
aS'#000000'
p1121
aF11.0
aI0
aI00
aI00
aI00
aI00
aI00
aI00
aI00
aI00
aa(lp1122
I234378
aF140.54088764044943
aF72.017
ag1113
aS'nimbussanl'
p1123
aS'#000000'
p1124
aF11.0
aI0
aI00
aI00
aI00
aI00
aI00
aI00
aI00
aI00
aa(lp1125
I215357
aF155.38249438202246
aF72.017
ag1113
aS'nimbussanl'
p1126
aS'#000000'
p1127
aF11.0
aI0
aI00
aI00
aI00
aI00
aI00
aI00
aI00
aI00
aa(lp1128
I85218
aF204.7985617977528
aF72.017
ag1113
aS'nimbussanl'
p1129
aS'#000000'
p1130
aF11.0
aI0
aI00
aI00
aI00
aI00
aI00
aI00
aI00
aI00
aa(lp1131
I147316
aF220.3233820224719
aF72.017
ag1113
aS'nimbussanl'
p1132
aS'#000000'
p1133
aF11.0
aI0
aI00
aI00
aI00
aI00
aI00
aI00
aI00
aI00
aa(lp1134
I234378
aF254.21462921348314
aF72.017
ag1113
aS'nimbussanl'
p1135
aS'#000000'
p1136
aF11.0
aI0
aI00
aI00
aI00
aI00
aI00
aI00
aI00
aI00
aa(lp1137
I194354
aF260.0562359550562
aF72.017
ag1113
aS'nimbussanl'
p1138
aS'#000000'
p1139
aF11.0
aI0
aI01
aI00
aI00
aI00
aI00
aI00
aI00
aI00
aa(lp1140
I207716
aF275.5810561797753
aF72.017
ag1113
aS'nimbussanl'
p1141
aS'#000000'
p1142
aF11.0
aI0
aI00
aI00
aI00
aI00
aI00
aI00
aI00
aI00
aa(lp1143
I113929
aF305.6306966292135
aF72.017
ag1113
aS'nimbussanl'
p1144
aS'#000000'
p1145
aF11.0
aI0
aI00
aI00
aI00
aI00
aI00
aI00
aI00
aI00
aa(lp1146
I192638
aF325.9971235955056
aF72.017
ag1113
aS'nimbussanl'
p1147
aS'#000000'
p1148
aF11.0
aI0
aI00
aI00
aI00
aI00
aI00
aI00
aI00
aI00
aa(lp1149
I234378
aF336.6803370786517
aF72.017
ag1113
aS'nimbussanl'
p1150
aS'#000000'
p1151
aF11.0
aI0
aI00
aI00
aI00
aI00
aI00
aI00
aI00
aI00
aa(lp1152
I135639
aF323.254797752809
aF72.017
ag1113
aS'nimbussanl'
p1153
aS'#000000'
p1154
aF11.0
aI0
aI00
aI00
aI00
aI00
aI00
aI00
aI00
aI00
aa(lp1155
I114954
aF391.93801123595506
aF72.017
ag1113
aS'nimbussanl'
p1156
aS'#000000'
p1157
aF11.0
aI0
aI00
aI00
aI00
aI00
aI00
aI00
aI00
aI00
aa(lp1158
I234378
aF431.6708651685393
aF72.017
ag1113
aS'nimbussanl'
p1159
aS'#000000'
p1160
aF11.0
aI0
aI00
aI00
aI00
aI00
aI00
aI00
aI00
aI00
aa(lp1161
I234378
aF85.6
aF85.717
aVp2
p1162
aS'nimbussanl'
p1163
aS'#000000'
p1164
aF11.0
aI0
aI00
aI00
aI00
aI00
aI00
aI00
aI00
aI00
aa(lp1165
I51660
aF112.4225
aF85.717
ag1162
aS'nimbussanl'
p1166
aS'#000000'
p1167
aF11.0
aI0
aI00
aI00
aI00
aI00
aI00
aI00
aI00
aI00
aa(lp1168
I68032
aF139.245
aF85.717
ag1162
aS'nimbussanl'
p1169
aS'#000000'
p1170
aF11.0
aI0
aI00
aI00
aI00
aI00
aI00
aI00
aI00
aI00
aa(lp1171
I234378
aF197.05450000000002
aF85.717
ag1162
aS'nimbussanl'
p1172
aS'#000000'
p1173
aF11.0
aI0
aI00
aI00
aI00
aI00
aI00
aI00
aI00
aI00
aa(lp1174
I234378
aF264.19300000000004
aF85.717
ag1162
aS'nimbussanl'
p1175
aS'#000000'
p1176
aF11.0
aI0
aI00
aI00
aI00
aI00
aI00
aI00
aI00
aI00
aa(lp1177
I234378
aF72.1
aF113.031
aVp2
p1178
aS'nimbussanl'
p1179
aS'#000000'
p1180
aF11.0
aI1
aI01
aI00
aI00
aI00
aI00
aI00
aI00
aI00
aa(lp1181
I234378
aF101.5
aF113.031
ag1178
aS'nimbussanl'
p1182
aS'#000000'
p1183
aF11.0
aI1
aI01
aI00
aI00
aI00
aI00
aI00
aI00
aI00
aa(lp1184
I234378
aF185.98000000000002
aF113.031
ag1178
aS'nimbussanl'
p1185
aS'#000000'
p1186
aF11.0
aI1
aI00
aI00
aI00
aI00
aI00
aI00
aI00
aI00
aa(lp1187
I125458
aF90.1
aF127.117
aVp2
p1188
aS'nimbussanl'
p1189
aS'#000000'
p1190
aF11.0
aI0
aI01
aI00
aI00
aI00
aI00
aI00
aI00
aI00
aa(lp1191
I144483
aF122.38594117647058
aF127.117
ag1188
aS'nimbussanl'
p1192
aS'#000000'
p1193
aF11.0
aI0
aI00
aI00
aI00
aI00
aI00
aI00
aI00
aI00
aa(lp1194
I234378
aF133.8145882352941
aF127.117
ag1188
aS'nimbussanl'
p1195
aS'#000000'
p1196
aF11.0
aI0
aI01
aI01
aI00
aI00
aI00
aI00
aI00
aI00
aa(lp1197
I187910
aF150.4575588235294
aF127.117
ag1188
aS'nimbussanl'
p1198
aS'#000000'
p1199
aF11.0
aI0
aI01
aI00
aI00
aI00
aI00
aI00
aI00
aI00
aa(lp1200
I234378
aF197.38647058823528
aF127.117
ag1188
aS'nimbussanl'
p1201
aS'#000000'
p1202
aF11.0
aI0
aI00
aI00
aI00
aI00
aI00
aI00
aI00
aI00
aa(lp1203
I176435
aF203.60079411764704
aF127.117
ag1188
aS'nimbussanl'
p1204
aS'#000000'
p1205
aF11.0
aI0
aI00
aI00
aI00
aI00
aI00
aI00
aI00
aI00
aa(lp1206
I217810
aF225.4580882352941
aF127.117
ag1188
aS'nimbussanl'
p1207
aS'#000000'
p1208
aF11.0
aI0
aI00
aI00
aI00
aI00
aI00
aI00
aI00
aI00
aa(lp1209
I68032
aF268.1726764705882
aF127.117
ag1188
aS'nimbussanl'
p1210
aS'#000000'
p1211
aF11.0
aI0
aI00
aI00
aI00
aI00
aI00
aI00
aI00
aI00
aa(lp1212
I85218
aF326.53023529411763
aF127.117
ag1188
aS'nimbussanl'
p1213
aS'#000000'
p1214
aF11.0
aI0
aI00
aI00
aI00
aI00
aI00
aI00
aI00
aI00
aa(lp1215
I234378
aF343.17320588235293
aF127.117
ag1188
aS'nimbussanl'
p1216
aS'#000000'
p1217
aF11.0
aI0
aI00
aI00
aI00
aI00
aI00
aI00
aI00
aI00
aa(lp1218
I234378
aF405.74508823529413
aF127.117
ag1188
aS'nimbussanl'
p1219
aS'#000000'
p1220
aF11.0
aI0
aI00
aI00
aI00
aI00
aI00
aI00
aI00
aI00
aa(lp1221
I123583
aF90.1
aF141.117
aVp2
p1222
aS'nimbussanl'
p1223
aS'#000000'
p1224
aF11.0
aI0
aI01
aI00
aI00
aI00
aI00
aI00
aI00
aI00
aa(lp1225
I190806
aF128.73234146341463
aF141.117
ag1222
aS'nimbussanl'
p1226
aS'#000000'
p1227
aF11.0
aI0
aI00
aI00
aI00
aI00
aI00
aI00
aI00
aI00
aa(lp1228
I194354
aF145.86048780487803
aF141.117
ag1222
aS'nimbussanl'
p1229
aS'#000000'
p1230
aF11.0
aI0
aI00
aI00
aI00
aI00
aI00
aI00
aI00
aI00
aa(lp1231
I204810
aF162.98863414634144
aF141.117
ag1222
aS'nimbussanl'
p1232
aS'#000000'
p1233
aF11.0
aI0
aI00
aI00
aI00
aI00
aI00
aI00
aI00
aI00
aa(lp1234
I138748
aF201.62097560975607
aF141.117
ag1222
aS'nimbussanl'
p1235
aS'#000000'
p1236
aF11.0
aI0
aI01
aI00
aI00
aI00
aI00
aI00
aI00
aI00
aa(lp1237
I92630
aF267.1335609756097
aF141.117
ag1222
aS'nimbussanl'
p1238
aS'#000000'
p1239
aF11.0
aI0
aI01
aI00
aI00
aI00
aI00
aI00
aI00
aI00
aa(lp1240
I153177
aF305.76590243902433
aF141.117
ag1222
aS'nimbussanl'
p1241
aS'#000000'
p1242
aF11.0
aI0
aI01
aI00
aI00
aI00
aI00
aI00
aI00
aI00
aa(lp1243
I207716
aF360.52639024390237
aF141.117
ag1222
aS'nimbussanl'
p1244
aS'#000000'
p1245
aF11.0
aI0
aI01
aI00
aI00
aI00
aI00
aI00
aI00
aI00
aa(lp1246
I92630
aF393.7826829268292
aF141.117
ag1222
aS'nimbussanl'
p1247
aS'#000000'
p1248
aF11.0
aI0
aI00
aI00
aI00
aI00
aI00
aI00
aI00
aI00
aa(lp1249
I194354
aF373.41502439024384
aF141.117
ag1222
aS'nimbussanl'
p1250
aS'#000000'
p1251
aF11.0
aI0
aI00
aI00
aI00
aI00
aI00
aI00
aI00
aI00
aa(lp1252
I223466
aF449.5431707317073
aF141.117
ag1222
aS'nimbussanl'
p1253
aS'#000000'
p1254
aF11.0
aI0
aI00
aI00
aI00
aI00
aI00
aI00
aI00
aI00
aa(lp1255
I153177
aF90.1
aF155.017
aVp2
p1256
aS'nimbussanl'
p1257
aS'#000000'
p1258
aF11.0
aI0
aI00
aI00
aI00
aI00
aI00
aI00
aI00
aI00
aa(lp1259
I234378
aF147.06105263157895
aF155.017
ag1256
aS'nimbussanl'
p1260
aS'#000000'
p1261
aF11.0
aI0
aI00
aI00
aI00
aI00
aI00
aI00
aI00
aI00
aa(lp1262
I234378
aF186.2337894736842
aF155.017
ag1256
aS'nimbussanl'
p1263
aS'#000000'
p1264
aF11.0
aI0
aI00
aI00
aI00
aI00
aI00
aI00
aI00
aI00
aa(lp1265
I234378
aF90.1
aF168.717
aVp2
p1266
aS'nimbussanl'
p1267
aS'#000000'
p1268
aF11.0
aI0
aI01
aI00
aI00
aI00
aI00
aI00
aI00
aI00
aa(lp1269
I166593
aF120.33030769230768
aF168.717
ag1266
aS'nimbussanl'
p1270
aS'#000000'
p1271
aF11.0
aI0
aI00
aI00
aI00
aI00
aI00
aI00
aI00
aI00
aa(lp1272
I46281
aF131.22035164835165
aF168.717
ag1266
aS'nimbussanl'
p1273
aS'#000000'
p1274
aF11.0
aI0
aI00
aI00
aI00
aI00
aI00
aI00
aI00
aI00
aa(lp1275
I234378
aF161.5606153846154
aF168.717
ag1266
aS'nimbussanl'
p1276
aS'#000000'
p1277
aF11.0
aI0
aI01
aI01
aI00
aI00
aI00
aI00
aI00
aI00
aa(lp1278
I42219
aF177.23074725274728
aF168.717
ag1266
aS'nimbussanl'
p1279
aS'#000000'
p1280
aF11.0
aI0
aI01
aI00
aI00
aI00
aI00
aI00
aI00
aI00
aa(lp1281
I1644
aF197.7909230769231
aF168.717
ag1266
aS'nimbussanl'
p1282
aS'#000000'
p1283
aF11.0
aI0
aI00
aI00
aI00
aI00
aI00
aI00
aI00
aI00
aa(lp1284
I89480
aF219.8013186813187
aF168.717
ag1266
aS'nimbussanl'
p1285
aS'#000000'
p1286
aF11.0
aI0
aI00
aI00
aI00
aI00
aI00
aI00
aI00
aI00
aa(lp1287
I40515
aF253.5814065934066
aF168.717
ag1266
aS'nimbussanl'
p1288
aS'#000000'
p1289
aF11.0
aI0
aI00
aI00
aI00
aI00
aI00
aI00
aI00
aI00
aa(lp1290
I194354
aF283.92167032967035
aF168.717
ag1266
aS'nimbussanl'
p1291
aS'#000000'
p1292
aF11.0
aI0
aI00
aI00
aI00
aI00
aI00
aI00
aI00
aI00
aa(lp1293
I46827
aF299.5918021978022
aF168.717
ag1266
aS'nimbussanl'
p1294
aS'#000000'
p1295
aF11.0
aI0
aI00
aI00
aI00
aI00
aI00
aI00
aI00
aI00
aa(lp1296
I209762
aF329.932065934066
aF168.717
ag1266
aS'nimbussanl'
p1297
aS'#000000'
p1298
aF11.0
aI0
aI00
aI00
aI00
aI00
aI00
aI00
aI00
aI00
aa(lp1299
I90369
aF389.6125934065934
aF168.717
ag1266
aS'nimbussanl'
p1300
aS'#000000'
p1301
aF11.0
aI0
aI00
aI00
aI00
aI00
aI00
aI00
aI00
aI00
aa(lp1302
I218914
aF424.8429010989011
aF168.717
ag1266
aS'nimbussanl'
p1303
aS'#000000'
p1304
aF11.0
aI0
aI00
aI00
aI00
aI00
aI00
aI00
aI00
aI00
aa(lp1305
I113929
aF450.2931208791209
aF168.717
ag1266
aS'nimbussanl'
p1306
aS'#000000'
p1307
aF11.0
aI0
aI00
aI00
aI00
aI00
aI00
aI00
aI00
aI00
aa(lp1308
I192638
aF470.85329670329673
aF168.717
ag1266
aS'nimbussanl'
p1309
aS'#000000'
p1310
aF11.0
aI0
aI00
aI00
aI00
aI00
aI00
aI00
aI00
aI00
aa(lp1311
I234378
aF90.1
aF182.617
aVp2
p1312
aS'nimbussanl'
p1313
aS'#000000'
p1314
aF11.0
aI0
aI00
aI00
aI00
aI00
aI00
aI00
aI00
aI00
aa(lp1315
I89480
aF138.61576923076922
aF182.617
ag1312
aS'nimbussanl'
p1316
aS'#000000'
p1317
aF11.0
aI0
aI00
aI00
aI00
aI00
aI00
aI00
aI00
aI00
aa(lp1318
I194354
aF149.11892307692307
aF182.617
ag1312
aS'nimbussanl'
p1319
aS'#000000'
p1320
aF11.0
aI0
aI00
aI00
aI00
aI00
aI00
aI00
aI00
aI00
aa(lp1321
I180906
aF164.37365384615384
aF182.617
ag1312
aS'nimbussanl'
p1322
aS'#000000'
p1323
aF11.0
aI0
aI00
aI00
aI00
aI00
aI00
aI00
aI00
aI00
aa(lp1324
I234378
aF197.63469230769232
aF182.617
ag1312
aS'nimbussanl'
p1325
aS'#000000'
p1326
aF11.0
aI0
aI00
aI00
aI00
aI00
aI00
aI00
aI00
aI00
aa(lp1327
I163337
aF90.1
aF196.317
aVp2
p1328
aS'nimbussanl'
p1329
aS'#000000'
p1330
aF11.0
aI0
aI01
aI00
aI00
aI00
aI00
aI00
aI00
aI00
aa(lp1331
I123583
aF137.039375
aF196.317
ag1328
aS'nimbussanl'
p1332
aS'#000000'
p1333
aF11.0
aI0
aI00
aI00
aI00
aI00
aI00
aI00
aI00
aI00
aa(lp1334
I135639
aF169.77
aF196.317
ag1328
aS'nimbussanl'
p1335
aS'#000000'
p1336
aF11.0
aI0
aI00
aI00
aI00
aI00
aI00
aI00
aI00
aI00
aa(lp1337
I165851
aF184.97875000000002
aF196.317
ag1328
aS'nimbussanl'
p1338
aS'#000000'
p1339
aF11.0
aI0
aI01
aI00
aI00
aI00
aI00
aI00
aI00
aI00
aa(lp1340
I234378
aF221.70937500000002
aF196.317
ag1328
aS'nimbussanl'
p1341
aS'#000000'
p1342
aF11.0
aI0
aI01
aI01
aI00
aI00
aI00
aI00
aI00
aI00
aa(lp1343
I89480
aF232.91812500000003
aF196.317
ag1328
aS'nimbussanl'
p1344
aS'#000000'
p1345
aF11.0
aI0
aI00
aI00
aI00
aI00
aI00
aI00
aI00
aI00
aa(lp1346
I24205
aF244.12687500000004
aF196.317
ag1328
aS'nimbussanl'
p1347
aS'#000000'
p1348
aF11.0
aI0
aI00
aI00
aI00
aI00
aI00
aI00
aI00
aI00
aa(lp1349
I80364
aF275.75312500000007
aF196.317
ag1328
aS'nimbussanl'
p1350
aS'#000000'
p1351
aF11.0
aI0
aI00
aI00
aI00
aI00
aI00
aI00
aI00
aI00
aa(lp1352
I234378
aF292.0662500000001
aF196.317
ag1328
aS'nimbussanl'
p1353
aS'#000000'
p1354
aF11.0
aI0
aI00
aI00
aI00
aI00
aI00
aI00
aI00
aI00
aa(lp1355
I190806
aF328.7968750000001
aF196.317
ag1328
aS'nimbussanl'
p1356
aS'#000000'
p1357
aF11.0
aI0
aI00
aI00
aI00
aI00
aI00
aI00
aI00
aI00
aa(lp1358
I194354
aF345.1100000000001
aF196.317
ag1328
aS'nimbussanl'
p1359
aS'#000000'
p1360
aF11.0
aI0
aI00
aI00
aI00
aI00
aI00
aI00
aI00
aI00
aa(lp1361
I92630
aF361.42312500000014
aF196.317
ag1328
aS'nimbussanl'
p1362
aS'#000000'
p1363
aF11.0
aI0
aI00
aI00
aI00
aI00
aI00
aI00
aI00
aI00
aa(lp1364
I153177
aF398.1537500000002
aF196.317
ag1328
aS'nimbussanl'
p1365
aS'#000000'
p1366
aF11.0
aI0
aI00
aI00
aI00
aI00
aI00
aI00
aI00
aI00
aa(lp1367
I207716
aF450.19750000000016
aF196.317
ag1328
aS'nimbussanl'
p1368
aS'#000000'
p1369
aF11.0
aI0
aI00
aI00
aI00
aI00
aI00
aI00
aI00
aI00
aa(lp1370
I234378
aF480.82375000000013
aF196.317
ag1328
aS'nimbussanl'
p1371
aS'#000000'
p1372
aF11.0
aI0
aI00
aI00
aI00
aI00
aI00
aI00
aI00
aI00
aa(lp1373
I25931
aF72.1
aF237.531
aVp2
p1374
aS'nimbussanl'
p1375
aS'#000000'
p1376
aF11.0
aI1
aI01
aI00
aI00
aI00
aI00
aI00
aI00
aI00
aa(lp1377
I234378
aF101.15933333333332
aF237.531
ag1374
aS'nimbussanl'
p1378
aS'#000000'
p1379
aF11.0
aI1
aI00
aI00
aI00
aI00
aI00
aI00
aI00
aI00
aa(lp1380
I206865
aF107.00255555555555
aF237.531
ag1374
aS'nimbussanl'
p1381
aS'#000000'
p1382
aF11.0
aI1
aI01
aI00
aI00
aI00
aI00
aI00
aI00
aI00
aa(lp1383
I234378
aF146.74833333333333
aF237.531
ag1374
aS'nimbussanl'
p1384
aS'#000000'
p1385
aF11.0
aI1
aI01
aI00
aI00
aI00
aI00
aI00
aI00
aI00
aa(lp1386
I234378
aF360.1
aF237.531
aVp2
p1387
aS'nimbussanl'
p1388
aS'#000000'
p1389
aF11.0
aI1
aI01
aI00
aI00
aI00
aI00
aI00
aI00
aI01
aa(lp1390
I234378
aF382.0022
aF237.531
ag1387
aS'nimbussanl'
p1391
aS'#000000'
p1392
aF11.0
aI1
aI00
aI00
aI01
aI01
aI01
aI00
aI00
aI00
aa(lp1393
I89480
aF410.8718
aF237.531
ag1387
aS'nimbussanl'
p1394
aS'#000000'
p1395
aF11.0
aI1
aI00
aI00
aI00
aI00
aI00
aI00
aI00
aI00
aa(lp1396
I27216
aF425.8066
aF237.531
ag1387
aS'nimbussanl'
p1397
aS'#000000'
p1398
aF11.0
aI1
aI01
aI00
aI00
aI00
aI00
aI00
aI00
aI01
aa(lp1399
I234378
aF447.7088
aF237.531
ag1387
aS'nimbussanl'
p1400
aS'#000000'
p1401
aF11.0
aI1
aI00
aI00
aI01
aI01
aI01
aI00
aI00
aI00
aa(lp1402
I176435
aF72.1
aF251.731
aVp2
p1403
aS'nimbussanl'
p1404
aS'#000000'
p1405
aF11.0
aI1
aI01
aI00
aI00
aI00
aI00
aI00
aI00
aI00
aa(lp1406
I234378
aF92.97766666666666
aF251.731
ag1403
aS'nimbussanl'
p1407
aS'#000000'
p1408
aF11.0
aI1
aI00
aI00
aI00
aI00
aI00
aI00
aI00
aI00
aa(lp1409
I234378
aF99.19708333333332
aF251.731
ag1403
aS'nimbussanl'
p1410
aS'#000000'
p1411
aF11.0
aI1
aI01
aI00
aI00
aI00
aI00
aI00
aI00
aI00
aa(lp1412
I100815
aF141.95241666666666
aF251.731
ag1403
aS'nimbussanl'
p1413
aS'#000000'
p1414
aF11.0
aI1
aI00
aI00
aI00
aI00
aI00
aI00
aI00
aI00
aa(lp1415
I12878
aF72.1
aF265.831
aVp2
p1416
aS'nimbussanl'
p1417
aS'#000000'
p1418
aF11.0
aI1
aI01
aI00
aI00
aI00
aI00
aI00
aI00
aI00
aa(lp1419
I234378
aF131.95375
aF265.831
ag1416
aS'nimbussanl'
p1420
aS'#000000'
p1421
aF11.0
aI1
aI00
aI00
aI00
aI00
aI00
aI00
aI00
aI00
aa(lp1422
I21716
aF137.395
aF265.831
ag1416
aS'nimbussanl'
p1423
aS'#000000'
p1424
aF11.0
aI1
aI01
aI00
aI00
aI00
aI00
aI00
aI00
aI00
aa(lp1425
I234378
aF159.16000000000003
aF265.831
ag1416
aS'nimbussanl'
p1426
aS'#000000'
p1427
aF11.0
aI1
aI00
aI00
aI00
aI00
aI00
aI00
aI00
aI00
aa(lp1428
I234378
aF165.60125000000002
aF265.831
ag1416
aS'nimbussanl'
p1429
aS'#000000'
p1430
aF11.0
aI1
aI01
aI01
aI00
aI00
aI00
aI00
aI00
aI00
aa(lp1431
I234378
aF176.925
aF265.831
ag1416
aS'nimbussanl'
p1432
aS'#000000'
p1433
aF11.0
aI1
aI00
aI00
aI00
aI00
aI00
aI00
aI00
aI00
aa(lp1434
I234378
aF188.36625
aF265.831
ag1416
aS'nimbussanl'
p1435
aS'#000000'
p1436
aF11.0
aI1
aI01
aI01
aI00
aI00
aI00
aI00
aI00
aI00
aa(lp1437
I234378
aF194.69
aF265.831
ag1416
aS'nimbussanl'
p1438
aS'#000000'
p1439
aF11.0
aI1
aI00
aI00
aI00
aI00
aI00
aI00
aI00
aI00
aa(lp1440
I234378
aF211.13125
aF265.831
ag1416
aS'nimbussanl'
p1441
aS'#000000'
p1442
aF11.0
aI1
aI01
aI00
aI00
aI00
aI00
aI00
aI00
aI00
aa(lp1443
I234378
aF221.3375
aF265.831
ag1416
aS'nimbussanl'
p1444
aS'#000000'
p1445
aF11.0
aI1
aI00
aI00
aI00
aI00
aI00
aI00
aI00
aI00
aa(lp1446
I77592
aF244.77875
aF265.831
ag1416
aS'nimbussanl'
p1447
aS'#000000'
p1448
aF11.0
aI1
aI01
aI00
aI00
aI00
aI00
aI00
aI00
aI00
aa(lp1449
I110786
aF278.42625
aF265.831
ag1416
aS'nimbussanl'
p1450
aS'#000000'
p1451
aF11.0
aI1
aI01
aI00
aI00
aI00
aI00
aI00
aI00
aI00
aa(lp1452
I234378
aF279.07374999999996
aF265.831
ag1416
aS'nimbussanl'
p1453
aS'#000000'
p1454
aF11.0
aI1
aI00
aI00
aI00
aI00
aI00
aI00
aI00
aI00
aa(lp1455
I124270
aF317.515
aF265.831
ag1416
aS'nimbussanl'
p1456
aS'#000000'
p1457
aF11.0
aI1
aI01
aI00
aI00
aI00
aI00
aI00
aI00
aI00
aa(lp1458
I144502
aF340.28
aF265.831
ag1416
aS'nimbussanl'
p1459
aS'#000000'
p1460
aF11.0
aI1
aI01
aI01
aI00
aI00
aI00
aI00
aI00
aI00
aa(lp1461
I234378
aF310.16249999999997
aF265.831
ag1416
aS'nimbussanl'
p1462
aS'#000000'
p1463
aF11.0
aI1
aI00
aI00
aI00
aI00
aI00
aI00
aI00
aI00
aa(lp1464
I234378
aF357.60375
aF265.831
ag1416
aS'nimbussanl'
p1465
aS'#000000'
p1466
aF11.0
aI1
aI01
aI00
aI00
aI00
aI00
aI00
aI00
aI00
aa(lp1467
I225861
aF402.13374999999996
aF265.831
ag1416
aS'nimbussanl'
p1468
aS'#000000'
p1469
aF11.0
aI1
aI01
aI01
aI00
aI00
aI00
aI00
aI00
aI00
aa(lp1470
I234378
aF418.4575
aF265.831
ag1416
aS'nimbussanl'
p1471
aS'#000000'
p1472
aF11.0
aI1
aI00
aI00
aI00
aI00
aI00
aI00
aI00
aI00
aa(lp1473
I63022
aF72.1
aF280.031
aVp2
p1474
aS'nimbussanl'
p1475
aS'#000000'
p1476
aF11.0
aI1
aI01
aI00
aI00
aI00
aI00
aI00
aI00
aI00
aa(lp1477
I234378
aF108.863125
aF280.031
ag1474
aS'nimbussanl'
p1478
aS'#000000'
p1479
aF11.0
aI1
aI00
aI00
aI00
aI00
aI00
aI00
aI00
aI00
aa(lp1480
I110153
aF114.115
aF280.031
ag1474
aS'nimbussanl'
p1481
aS'#000000'
p1482
aF11.0
aI1
aI01
aI00
aI00
aI00
aI00
aI00
aI00
aI00
aa(lp1483
I18050
aF151.878125
aF280.031
ag1474
aS'nimbussanl'
p1484
aS'#000000'
p1485
aF11.0
aI1
aI00
aI00
aI00
aI00
aI00
aI00
aI00
aI00
aa(lp1486
I223466
aF194.893125
aF280.031
ag1474
aS'nimbussanl'
p1487
aS'#000000'
p1488
aF11.0
aI1
aI01
aI00
aI00
aI00
aI00
aI00
aI00
aI00
aa(lp1489
I200489
aF108.1
aF294.117
aVp2
p1490
aS'nimbussanl'
p1491
aS'#000000'
p1492
aF11.0
aI0
aI01
aI00
aI00
aI00
aI00
aI00
aI00
aI00
aa(lp1493
I62551
aF119.37845238095238
aF294.117
ag1490
aS'nimbussanl'
p1494
aS'#000000'
p1495
aF11.0
aI0
aI00
aI00
aI00
aI00
aI00
aI00
aI00
aI00
aa(lp1496
I234378
aF140.93535714285713
aF294.117
ag1490
aS'nimbussanl'
p1497
aS'#000000'
p1498
aF11.0
aI0
aI00
aI00
aI00
aI00
aI00
aI00
aI00
aI00
aa(lp1499
I234378
aF208.74529761904762
aF294.117
ag1490
aS'nimbussanl'
p1500
aS'#000000'
p1501
aF11.0
aI0
aI00
aI00
aI00
aI00
aI00
aI00
aI00
aI00
aa(lp1502
I234378
aF245.71988095238095
aF294.117
ag1490
aS'nimbussanl'
p1503
aS'#000000'
p1504
aF11.0
aI0
aI01
aI01
aI00
aI00
aI00
aI00
aI00
aI00
aa(lp1505
I14859
aF262.1375595238095
aF294.117
ag1490
aS'nimbussanl'
p1506
aS'#000000'
p1507
aF11.0
aI0
aI01
aI00
aI00
aI00
aI00
aI00
aI00
aI00
aa(lp1508
I190806
aF304.25136904761905
aF294.117
ag1490
aS'nimbussanl'
p1509
aS'#000000'
p1510
aF11.0
aI0
aI00
aI00
aI00
aI00
aI00
aI00
aI00
aI00
aa(lp1511
I16329
aF320.6690476190476
aF294.117
ag1490
aS'nimbussanl'
p1512
aS'#000000'
p1513
aF11.0
aI0
aI00
aI00
aI00
aI00
aI00
aI00
aI00
aI00
aa(lp1514
I97921
aF331.9475
aF294.117
ag1490
aS'nimbussanl'
p1515
aS'#000000'
p1516
aF11.0
aI0
aI00
aI00
aI00
aI00
aI00
aI00
aI00
aI00
aa(lp1517
I234378
aF374.06130952380954
aF294.117
ag1490
aS'nimbussanl'
p1518
aS'#000000'
p1519
aF11.0
aI0
aI01
aI01
aI00
aI00
aI00
aI00
aI00
aI00
aa(lp1520
I135639
aF382.4789880952381
aF294.117
ag1490
aS'nimbussanl'
p1521
aS'#000000'
p1522
aF11.0
aI0
aI00
aI00
aI00
aI00
aI00
aI00
aI00
aI00
aa(lp1523
I164802
aF401.7574404761905
aF294.117
ag1490
aS'nimbussanl'
p1524
aS'#000000'
p1525
aF11.0
aI0
aI01
aI00
aI00
aI00
aI00
aI00
aI00
aI00
aa(lp1526
I89480
aF428.4535714285714
aF294.117
ag1490
aS'nimbussanl'
p1527
aS'#000000'
p1528
aF11.0
aI0
aI00
aI00
aI00
aI00
aI00
aI00
aI00
aI00
aa(lp1529
I210289
aF439.7320238095238
aF294.117
ag1490
aS'nimbussanl'
p1530
aS'#000000'
p1531
aF11.0
aI0
aI00
aI00
aI00
aI00
aI00
aI00
aI00
aI00
aa(lp1532
I234378
aF471.567380952381
aF294.117
ag1490
aS'nimbussanl'
p1533
aS'#000000'
p1534
aF11.0
aI0
aI00
aI01
aI01
aI00
aI00
aI00
aI00
aI00
aa(lp1535
I234378
aF72.1
aF307.817
aVp2
p1536
aS'nimbussanl'
p1537
aS'#000000'
p1538
aF11.0
aI0
aI00
aI00
aI00
aI00
aI00
aI00
aI00
aI00
aa(lp1539
I234378
aF111.87131914893617
aF307.817
ag1536
aS'nimbussanl'
p1540
aS'#000000'
p1541
aF11.0
aI0
aI00
aI00
aI00
aI00
aI00
aI00
aI00
aI00
aa(lp1542
I110153
aF117.84273404255319
aF307.817
ag1536
aS'nimbussanl'
p1543
aS'#000000'
p1544
aF11.0
aI0
aI01
aI00
aI00
aI00
aI00
aI00
aI00
aI00
aa(lp1545
I18050
aF153.64263829787234
aF307.817
ag1536
aS'nimbussanl'
p1546
aS'#000000'
p1547
aF11.0
aI0
aI01
aI00
aI00
aI00
aI00
aI00
aI00
aI00
aa(lp1548
I223466
aF194.41395744680852
aF307.817
ag1536
aS'nimbussanl'
p1549
aS'#000000'
p1550
aF11.0
aI0
aI01
aI00
aI00
aI00
aI00
aI00
aI00
aI00
aa(lp1551
I14859
aF230.21386170212767
aF307.817
ag1536
aS'nimbussanl'
p1552
aS'#000000'
p1553
aF11.0
aI0
aI00
aI00
aI00
aI00
aI00
aI00
aI00
aI00
aa(lp1554
I234378
aF270.98518085106383
aF307.817
ag1536
aS'nimbussanl'
p1555
aS'#000000'
p1556
aF11.0
aI0
aI00
aI00
aI00
aI00
aI00
aI00
aI00
aI00
aa(lp1557
I117960
aF311.7565
aF307.817
ag1536
aS'nimbussanl'
p1558
aS'#000000'
p1559
aF11.0
aI0
aI00
aI00
aI00
aI00
aI00
aI00
aI00
aI00
aa(lp1560
I11832
aF332.6421595744681
aF307.817
ag1536
aS'nimbussanl'
p1561
aS'#000000'
p1562
aF11.0
aI0
aI00
aI00
aI00
aI00
aI00
aI00
aI00
aI00
aa(lp1563
I132957
aF363.4706489361702
aF307.817
ag1536
aS'nimbussanl'
p1564
aS'#000000'
p1565
aF11.0
aI0
aI00
aI00
aI00
aI00
aI00
aI00
aI00
aI00
aa(lp1566
I18050
aF384.3563085106383
aF307.817
ag1536
aS'nimbussanl'
p1567
aS'#000000'
p1568
aF11.0
aI0
aI00
aI00
aI00
aI00
aI00
aI00
aI00
aI00
aa(lp1569
I89480
aF425.1276276595745
aF307.817
ag1536
aS'nimbussanl'
p1570
aS'#000000'
p1571
aF11.0
aI0
aI00
aI00
aI00
aI00
aI00
aI00
aI00
aI00
aa(lp1572
I194354
aF436.0704574468085
aF307.817
ag1536
aS'nimbussanl'
p1573
aS'#000000'
p1574
aF11.0
aI0
aI00
aI00
aI00
aI00
aI00
aI00
aI00
aI00
aa(lp1575
I25691
aF451.9847021276596
aF307.817
ag1536
aS'nimbussanl'
p1576
aS'#000000'
p1577
aF11.0
aI0
aI00
aI00
aI00
aI00
aI00
aI00
aI00
aI00
aa(lp1578
I137949
aF467.8989468085107
aF307.817
ag1536
aS'nimbussanl'
p1579
aS'#000000'
p1580
aF11.0
aI0
aI00
aI00
aI00
aI00
aI00
aI00
aI00
aI00
aa(lp1581
I107466
aF72.1
aF321.417
aVp2
p1582
aS'nimbussanl'
p1583
aS'#000000'
p1584
aF11.0
aI0
aI00
aI00
aI00
aI00
aI00
aI00
aI00
aI00
aa(lp1585
I85235
aF92.25008333333332
aF321.417
ag1582
aS'nimbussanl'
p1586
aS'#000000'
p1587
aF11.0
aI0
aI00
aI00
aI00
aI00
aI00
aI00
aI00
aI00
aa(lp1588
I177271
aF107.61264583333332
aF321.417
ag1582
aS'nimbussanl'
p1589
aS'#000000'
p1590
aF11.0
aI0
aI00
aI00
aI00
aI00
aI00
aI00
aI00
aI00
aa(lp1591
I234378
aF132.55024999999998
aF321.417
ag1582
aS'nimbussanl'
p1592
aS'#000000'
p1593
aF11.0
aI0
aI00
aI00
aI00
aI00
aI00
aI00
aI00
aI00
aa(lp1594
I206996
aF171.85041666666663
aF321.417
ag1582
aS'nimbussanl'
p1595
aS'#000000'
p1596
aF11.0
aI0
aI00
aI00
aI00
aI00
aI00
aI00
aI00
aI00
aa(lp1597
I135639
aF215.93810416666662
aF321.417
ag1582
aS'nimbussanl'
p1598
aS'#000000'
p1599
aF11.0
aI0
aI00
aI00
aI00
aI00
aI00
aI00
aI00
aI00
aa(lp1600
I194354
aF199.51314583333328
aF321.417
ag1582
aS'nimbussanl'
p1601
aS'#000000'
p1602
aF11.0
aI0
aI00
aI00
aI00
aI00
aI00
aI00
aI00
aI00
aa(lp1603
I224218
aF241.87570833333328
aF321.417
ag1582
aS'nimbussanl'
p1604
aS'#000000'
p1605
aF11.0
aI0
aI00
aI00
aI00
aI00
aI00
aI00
aI00
aI00
aa(lp1606
I234378
aF270.6008333333333
aF321.417
ag1582
aS'nimbussanl'
p1607
aS'#000000'
p1608
aF11.0
aI0
aI00
aI00
aI00
aI00
aI00
aI00
aI00
aI00
aa(lp1609
I234378
aF72.1
aF349.531
aVp2
p1610
aS'nimbussanl'
p1611
aS'#000000'
p1612
aF11.0
aI1
aI01
aI00
aI00
aI00
aI00
aI00
aI00
aI00
aa(lp1613
I234378
aF101.5
aF349.531
ag1610
aS'nimbussanl'
p1614
aS'#000000'
p1615
aF11.0
aI1
aI01
aI00
aI00
aI00
aI00
aI00
aI00
aI00
aa(lp1616
I234378
aF185.98000000000002
aF349.531
ag1610
aS'nimbussanl'
p1617
aS'#000000'
p1618
aF11.0
aI1
aI00
aI00
aI00
aI00
aI00
aI00
aI00
aI00
aa(lp1619
I234378
aF90.1
aF363.717
aVp2
p1620
aS'nimbussanl'
p1621
aS'#000000'
p1622
aF11.0
aI0
aI01
aI00
aI00
aI00
aI00
aI00
aI00
aI00
aa(lp1623
I194354
aF137.323375
aF363.717
ag1620
aS'nimbussanl'
p1624
aS'#000000'
p1625
aF11.0
aI0
aI00
aI00
aI00
aI00
aI00
aI00
aI00
aI00
aa(lp1626
I153177
aF153.73116666666667
aF363.717
ag1620
aS'nimbussanl'
p1627
aS'#000000'
p1628
aF11.0
aI0
aI01
aI00
aI00
aI00
aI00
aI00
aI00
aI00
aa(lp1629
I96642
aF206.09047222222222
aF363.717
ag1620
aS'nimbussanl'
p1630
aS'#000000'
p1631
aF11.0
aI0
aI01
aI00
aI00
aI00
aI00
aI00
aI00
aI00
aa(lp1632
I234378
aF237.90605555555555
aF363.717
ag1620
aS'nimbussanl'
p1633
aS'#000000'
p1634
aF11.0
aI0
aI00
aI00
aI00
aI00
aI00
aI00
aI00
aI00
aa(lp1635
I190806
aF274.85756944444444
aF363.717
ag1620
aS'nimbussanl'
p1636
aS'#000000'
p1637
aF11.0
aI0
aI00
aI00
aI00
aI00
aI00
aI00
aI00
aI00
aa(lp1638
I194354
aF257.2653611111111
aF363.717
ag1620
aS'nimbussanl'
p1639
aS'#000000'
p1640
aF11.0
aI0
aI00
aI00
aI00
aI00
aI00
aI00
aI00
aI00
aa(lp1641
I110153
aF307.6731527777777
aF363.717
ag1620
aS'nimbussanl'
p1642
aS'#000000'
p1643
aF11.0
aI0
aI00
aI00
aI00
aI00
aI00
aI00
aI00
aI00
aa(lp1644
I18050
aF344.6246666666666
aF363.717
ag1620
aS'nimbussanl'
p1645
aS'#000000'
p1646
aF11.0
aI0
aI00
aI00
aI00
aI00
aI00
aI00
aI00
aI00
aa(lp1647
I223466
aF386.712111111111
aF363.717
ag1620
aS'nimbussanl'
p1648
aS'#000000'
p1649
aF11.0
aI0
aI00
aI00
aI00
aI00
aI00
aI00
aI00
aI00
aa(lp1650
I146950
aF90.1
aF377.617
aVp2
p1651
aS'nimbussanl'
p1652
aS'#000000'
p1653
aF11.0
aI0
aI01
aI00
aI00
aI00
aI00
aI00
aI00
aI00
aa(lp1654
I135639
aF145.63410975609756
aF377.617
ag1651
aS'nimbussanl'
p1655
aS'#000000'
p1656
aF11.0
aI0
aI00
aI00
aI00
aI00
aI00
aI00
aI00
aI00
aa(lp1657
I25931
aF156.5494024390244
aF377.617
ag1651
aS'nimbussanl'
p1658
aS'#000000'
p1659
aF11.0
aI0
aI00
aI00
aI00
aI00
aI00
aI00
aI00
aI00
aa(lp1660
I234378
aF187.2952804878049
aF377.617
ag1651
aS'nimbussanl'
p1661
aS'#000000'
p1662
aF11.0
aI0
aI00
aI00
aI00
aI00
aI00
aI00
aI00
aI00
aa(lp1663
I89480
aF242.82939024390245
aF377.617
ag1651
aS'nimbussanl'
p1664
aS'#000000'
p1665
aF11.0
aI0
aI00
aI00
aI00
aI00
aI00
aI00
aI00
aI00
aa(lp1666
I141534
aF253.74468292682928
aF377.617
ag1651
aS'nimbussanl'
p1667
aS'#000000'
p1668
aF11.0
aI0
aI00
aI00
aI00
aI00
aI00
aI00
aI00
aI00
aa(lp1669
I234378
aF304.3211463414634
aF377.617
ag1651
aS'nimbussanl'
p1670
aS'#000000'
p1671
aF11.0
aI0
aI00
aI00
aI00
aI00
aI00
aI00
aI00
aI00
aa(lp1672
I234378
aF364.8129024390244
aF377.617
ag1651
aS'nimbussanl'
p1673
aS'#000000'
p1674
aF11.0
aI0
aI00
aI00
aI00
aI00
aI00
aI00
aI00
aI00
aa(lp1675
I135639
aF339.5587804878049
aF377.617
ag1651
aS'nimbussanl'
p1676
aS'#000000'
p1677
aF11.0
aI0
aI00
aI00
aI00
aI00
aI00
aI00
aI00
aI00
aa(lp1678
I194354
aF406.4740731707317
aF377.617
ag1651
aS'nimbussanl'
p1679
aS'#000000'
p1680
aF11.0
aI0
aI00
aI00
aI00
aI00
aI00
aI00
aI00
aI00
aa(lp1681
I234378
aF422.3470121951219
aF377.617
ag1651
aS'nimbussanl'
p1682
aS'#000000'
p1683
aF11.0
aI0
aI01
aI01
aI00
aI00
aI00
aI00
aI00
aI00
aa(lp1684
I85218
aF403.21995121951215
aF377.617
ag1651
aS'nimbussanl'
p1685
aS'#000000'
p1686
aF11.0
aI0
aI00
aI00
aI00
aI00
aI00
aI00
aI00
aI00
aa(lp1687
I141799
aF90.1
aF391.617
aVp2
p1688
aS'nimbussanl'
p1689
aS'#000000'
p1690
aF11.0
aI0
aI00
aI00
aI00
aI00
aI00
aI00
aI00
aI00
aa(lp1691
I175989
aF150.9889107142857
aF391.617
ag1688
aS'nimbussanl'
p1692
aS'#000000'
p1693
aF11.0
aI0
aI00
aI00
aI00
aI00
aI00
aI00
aI00
aI00
aa(lp1694
I84932
aF170.41626785714286
aF391.617
ag1688
aS'nimbussanl'
p1695
aS'#000000'
p1696
aF11.0
aI0
aI00
aI00
aI00
aI00
aI00
aI00
aI00
aI00
aa(lp1697
I89480
aF185.2367857142857
aF391.617
ag1688
aS'nimbussanl'
p1698
aS'#000000'
p1699
aF11.0
aI0
aI00
aI00
aI00
aI00
aI00
aI00
aI00
aI00
aa(lp1700
I192638
aF195.45046428571428
aF391.617
ag1688
aS'nimbussanl'
p1701
aS'#000000'
p1702
aF11.0
aI0
aI00
aI00
aI00
aI00
aI00
aI00
aI00
aI00
aa(lp1703
I75654
aF205.66414285714285
aF391.617
ag1688
aS'nimbussanl'
p1704
aS'#000000'
p1705
aF11.0
aI0
aI00
aI00
aI00
aI00
aI00
aI00
aI00
aI00
aa(lp1706
I135639
aF257.339375
aF391.617
ag1688
aS'nimbussanl'
p1707
aS'#000000'
p1708
aF11.0
aI0
aI00
aI00
aI00
aI00
aI00
aI00
aI00
aI00
aa(lp1709
I194354
aF267.55305357142856
aF391.617
ag1688
aS'nimbussanl'
p1710
aS'#000000'
p1711
aF11.0
aI0
aI00
aI00
aI00
aI00
aI00
aI00
aI00
aI00
aa(lp1712
I234378
aF282.37357142857144
aF391.617
ag1688
aS'nimbussanl'
p1713
aS'#000000'
p1714
aF11.0
aI0
aI00
aI00
aI00
aI00
aI00
aI00
aI00
aI00
aa(lp1715
I234378
aF314.62144642857146
aF391.617
ag1688
aS'nimbussanl'
p1716
aS'#000000'
p1717
aF11.0
aI0
aI00
aI00
aI00
aI00
aI00
aI00
aI00
aI00
aa(lp1718
I234378
aF90.1
aF405.217
aVp2
p1719
aS'nimbussanl'
p1720
aS'#000000'
p1721
aF11.0
aI0
aI01
aI00
aI00
aI00
aI00
aI00
aI00
aI00
aa(lp1722
I177197
aF140.4811235955056
aF405.217
ag1719
aS'nimbussanl'
p1723
aS'#000000'
p1724
aF11.0
aI0
aI00
aI00
aI00
aI00
aI00
aI00
aI00
aI00
aa(lp1725
I37508
aF166.17168539325843
aF405.217
ag1719
aS'nimbussanl'
p1726
aS'#000000'
p1727
aF11.0
aI0
aI00
aI00
aI00
aI00
aI00
aI00
aI00
aI00
aa(lp1728
I135639
aF181.9860224719101
aF405.217
ag1719
aS'nimbussanl'
p1729
aS'#000000'
p1730
aF11.0
aI0
aI00
aI00
aI00
aI00
aI00
aI00
aI00
aI00
aa(lp1731
I194354
aF192.86224719101122
aF405.217
ag1719
aS'nimbussanl'
p1732
aS'#000000'
p1733
aF11.0
aI0
aI00
aI00
aI00
aI00
aI00
aI00
aI00
aI00
aa(lp1734
I234378
aF208.6765842696629
aF405.217
ag1719
aS'nimbussanl'
p1735
aS'#000000'
p1736
aF11.0
aI0
aI00
aI00
aI00
aI00
aI00
aI00
aI00
aI00
aa(lp1737
I89480
aF244.24337078651683
aF405.217
ag1719
aS'nimbussanl'
p1738
aS'#000000'
p1739
aF11.0
aI0
aI00
aI00
aI00
aI00
aI00
aI00
aI00
aI00
aa(lp1740
I17470
aF255.11959550561795
aF405.217
ag1719
aS'nimbussanl'
p1741
aS'#000000'
p1742
aF11.0
aI0
aI00
aI00
aI00
aI00
aI00
aI00
aI00
aI00
aa(lp1743
I199519
aF310.4388314606741
aF405.217
ag1719
aS'nimbussanl'
p1744
aS'#000000'
p1745
aF11.0
aI0
aI00
aI00
aI00
aI00
aI00
aI00
aI00
aI00
aa(lp1746
I194354
aF314.9437303370786
aF405.217
ag1719
aS'nimbussanl'
p1747
aS'#000000'
p1748
aF11.0
aI0
aI00
aI00
aI00
aI00
aI00
aI00
aI00
aI00
aa(lp1749
I234378
aF366.7580674157303
aF405.217
ag1719
aS'nimbussanl'
p1750
aS'#000000'
p1751
aF11.0
aI0
aI00
aI00
aI00
aI00
aI00
aI00
aI00
aI00
aa(lp1752
I234378
aF402.32485393258423
aF405.217
ag1719
aS'nimbussanl'
p1753
aS'#000000'
p1754
aF11.0
aI0
aI00
aI00
aI00
aI00
aI00
aI00
aI00
aI00
aa(lp1755
I8691
aF432.9535280898876
aF405.217
ag1719
aS'nimbussanl'
p1756
aS'#000000'
p1757
aF11.0
aI0
aI00
aI00
aI00
aI00
aI00
aI00
aI00
aI00
aa(lp1758
I194354
aF401.58220224719093
aF405.217
ag1719
aS'nimbussanl'
p1759
aS'#000000'
p1760
aF11.0
aI0
aI00
aI00
aI00
aI00
aI00
aI00
aI00
aI00
aa(lp1761
I177197
aF90.1
aF419.217
aVp2
p1762
aS'nimbussanl'
p1763
aS'#000000'
p1764
aF11.0
aI0
aI00
aI00
aI00
aI00
aI00
aI00
aI00
aI00
aa(lp1765
I234378
aF114.54749999999999
aF419.217
ag1762
aS'nimbussanl'
p1766
aS'#000000'
p1767
aF11.0
aI0
aI00
aI00
aI00
aI00
aI00
aI00
aI00
aI00
aa(lp1768
I125458
aF90.1
aF432.817
aVp2
p1769
aS'nimbussanl'
p1770
aS'#000000'
p1771
aF11.0
aI0
aI01
aI00
aI00
aI00
aI00
aI00
aI00
aI00
aa(lp1772
I135639
aF120.6447912087912
aF432.817
ag1769
aS'nimbussanl'
p1773
aS'#000000'
p1774
aF11.0
aI0
aI00
aI00
aI00
aI00
aI00
aI00
aI00
aI00
aa(lp1775
I194354
aF131.49305494505495
aF432.817
ag1769
aS'nimbussanl'
p1776
aS'#000000'
p1777
aF11.0
aI0
aI00
aI00
aI00
aI00
aI00
aI00
aI00
aI00
aa(lp1778
I234378
aF147.26545054945055
aF432.817
ag1769
aS'nimbussanl'
p1779
aS'#000000'
p1780
aF11.0
aI0
aI00
aI00
aI00
aI00
aI00
aI00
aI00
aI00
aa(lp1781
I10716
aF182.7343736263736
aF432.817
ag1769
aS'nimbussanl'
p1782
aS'#000000'
p1783
aF11.0
aI0
aI00
aI00
aI00
aI00
aI00
aI00
aI00
aI00
aa(lp1784
I185304
aF203.43090109890107
aF432.817
ag1769
aS'nimbussanl'
p1785
aS'#000000'
p1786
aF11.0
aI0
aI01
aI00
aI00
aI00
aI00
aI00
aI00
aI00
aa(lp1787
I234378
aF224.12742857142854
aF432.817
ag1769
aS'nimbussanl'
p1788
aS'#000000'
p1789
aF11.0
aI0
aI01
aI00
aI00
aI00
aI00
aI00
aI00
aI00
aa(lp1790
I234378
aF273.3687472527472
aF432.817
ag1769
aS'nimbussanl'
p1791
aS'#000000'
p1792
aF11.0
aI0
aI00
aI00
aI00
aI00
aI00
aI00
aI00
aI00
aa(lp1793
I37508
aF279.2928791208791
aF432.817
ag1769
aS'nimbussanl'
p1794
aS'#000000'
p1795
aF11.0
aI0
aI01
aI00
aI00
aI00
aI00
aI00
aI00
aI00
aa(lp1796
I141687
aF295.0652747252747
aF432.817
ag1769
aS'nimbussanl'
p1797
aS'#000000'
p1798
aF11.0
aI0
aI00
aI00
aI00
aI00
aI00
aI00
aI00
aI00
aa(lp1799
I234378
aF332.2307252747253
aF432.817
ag1769
aS'nimbussanl'
p1800
aS'#000000'
p1801
aF11.0
aI0
aI00
aI00
aI00
aI00
aI00
aI00
aI00
aI00
aa(lp1802
I234378
aF355.15485714285717
aF432.817
ag1769
aS'nimbussanl'
p1803
aS'#000000'
p1804
aF11.0
aI0
aI01
aI00
aI00
aI00
aI00
aI00
aI00
aI00
aa(lp1805
I234378
aF367.5479120879121
aF432.817
ag1769
aS'nimbussanl'
p1806
aS'#000000'
p1807
aF11.0
aI0
aI00
aI00
aI00
aI00
aI00
aI00
aI00
aI00
aa(lp1808
I137949
aF400.472043956044
aF432.817
ag1769
aS'nimbussanl'
p1809
aS'#000000'
p1810
aF11.0
aI0
aI01
aI00
aI00
aI00
aI00
aI00
aI00
aI00
aa(lp1811
I81847
aF421.16857142857145
aF432.817
ag1769
aS'nimbussanl'
p1812
aS'#000000'
p1813
aF11.0
aI0
aI00
aI00
aI00
aI00
aI00
aI00
aI00
aI00
aa(lp1814
I234378
aF442.10641758241763
aF432.817
ag1769
aS'nimbussanl'
p1815
aS'#000000'
p1816
aF11.0
aI0
aI00
aI00
aI00
aI00
aI00
aI00
aI00
aI00
aa(lp1817
I75204
aF90.1
aF446.817
aVp2
p1818
aS'nimbussanl'
p1819
aS'#000000'
p1820
aF11.0
aI0
aI01
aI00
aI00
aI00
aI00
aI00
aI00
aI00
aa(lp1821
I153177
aF131.42368421052632
aF446.817
ag1818
aS'nimbussanl'
p1822
aS'#000000'
p1823
aF11.0
aI0
aI01
aI00
aI00
aI00
aI00
aI00
aI00
aI00
aa(lp1824
I234378
aF189.02894736842106
aF446.817
ag1818
aS'nimbussanl'
p1825
aS'#000000'
p1826
aF11.0
aI0
aI00
aI00
aI00
aI00
aI00
aI00
aI00
aI00
aa(lp1827
I6594
aF90.1
aF460.417
aVp2
p1828
aS'nimbussanl'
p1829
aS'#000000'
p1830
aF11.0
aI0
aI01
aI00
aI00
aI00
aI00
aI00
aI00
aI00
aa(lp1831
I20593
aF120.48851219512194
aF460.417
ag1828
aS'nimbussanl'
p1832
aS'#000000'
p1833
aF11.0
aI0
aI00
aI00
aI00
aI00
aI00
aI00
aI00
aI00
aa(lp1834
I234378
aF174.3674512195122
aF460.417
ag1828
aS'nimbussanl'
p1835
aS'#000000'
p1836
aF11.0
aI0
aI00
aI00
aI00
aI00
aI00
aI00
aI00
aI00
aa(lp1837
I234378
aF180.26553658536585
aF460.417
ag1828
aS'nimbussanl'
p1838
aS'#000000'
p1839
aF11.0
aI0
aI00
aI00
aI00
aI00
aI00
aI00
aI00
aI00
aa(lp1840
I194354
aF225.3483048780488
aF460.417
ag1828
aS'nimbussanl'
p1841
aS'#000000'
p1842
aF11.0
aI0
aI00
aI00
aI00
aI00
aI00
aI00
aI00
aI00
aa(lp1843
I25931
aF241.04256097560977
aF460.417
ag1828
aS'nimbussanl'
p1844
aS'#000000'
p1845
aF11.0
aI0
aI00
aI00
aI00
aI00
aI00
aI00
aI00
aI00
aa(lp1846
I131049
aF271.43107317073174
aF460.417
ag1828
aS'nimbussanl'
p1847
aS'#000000'
p1848
aF11.0
aI0
aI00
aI00
aI00
aI00
aI00
aI00
aI00
aI00
aa(lp1849
I91463
aF292.0234146341464
aF460.417
ag1828
aS'nimbussanl'
p1850
aS'#000000'
p1851
aF11.0
aI0
aI00
aI00
aI00
aI00
aI00
aI00
aI00
aI00
aa(lp1852
I190806
aF332.20809756097566
aF460.417
ag1828
aS'nimbussanl'
p1853
aS'#000000'
p1854
aF11.0
aI0
aI00
aI00
aI00
aI00
aI00
aI00
aI00
aI00
aa(lp1855
I229969
aF347.90235365853664
aF460.417
ag1828
aS'nimbussanl'
p1856
aS'#000000'
p1857
aF11.0
aI0
aI00
aI00
aI00
aI00
aI00
aI00
aI00
aI00
aa(lp1858
I89480
aF363.5966097560976
aF460.417
ag1828
aS'nimbussanl'
p1859
aS'#000000'
p1860
aF11.0
aI0
aI00
aI00
aI00
aI00
aI00
aI00
aI00
aI00
aa(lp1861
I229969
aF367.39278048780494
aF460.417
ag1828
aS'nimbussanl'
p1862
aS'#000000'
p1863
aF11.0
aI0
aI00
aI00
aI00
aI00
aI00
aI00
aI00
aI00
aa(lp1864
I234378
aF390.0870365853659
aF460.417
ag1828
aS'nimbussanl'
p1865
aS'#000000'
p1866
aF11.0
aI0
aI00
aI00
aI00
aI00
aI00
aI00
aI00
aI00
aa(lp1867
I234378
aF361.4755487804879
aF460.417
ag1828
aS'nimbussanl'
p1868
aS'#000000'
p1869
aF11.0
aI0
aI00
aI00
aI00
aI00
aI00
aI00
aI00
aI00
aa(lp1870
I60534
aF425.37363414634154
aF460.417
ag1828
aS'nimbussanl'
p1871
aS'#000000'
p1872
aF11.0
aI0
aI00
aI00
aI00
aI00
aI00
aI00
aI00
aI00
aa(lp1873
I215246
aF90.1
aF474.417
aVp2
p1874
aS'nimbussanl'
p1875
aS'#000000'
p1876
aF11.0
aI0
aI00
aI00
aI00
aI00
aI00
aI00
aI00
aI00
aa(lp1877
I162796
aF130.22376470588236
aF474.417
ag1874
aS'nimbussanl'
p1878
aS'#000000'
p1879
aF11.0
aI0
aI00
aI00
aI00
aI00
aI00
aI00
aI00
aI00
aa(lp1880
I234378
aF165.45705882352942
aF474.417
ag1874
aS'nimbussanl'
p1881
aS'#000000'
p1882
aF11.0
aI0
aI00
aI00
aI00
aI00
aI00
aI00
aI00
aI00
aa(lp1883
I16331
aF205.5808235294118
aF474.417
ag1874
aS'nimbussanl'
p1884
aS'#000000'
p1885
aF11.0
aI0
aI00
aI00
aI00
aI00
aI00
aI00
aI00
aI00
aa(lp1886
I166593
aF190.36176470588236
aF474.417
ag1874
aS'nimbussanl'
p1887
aS'#000000'
p1888
aF11.0
aI0
aI00
aI00
aI00
aI00
aI00
aI00
aI00
aI00
aa(lp1889
I38609
aF222.25223529411767
aF474.417
ag1874
aS'nimbussanl'
p1890
aS'#000000'
p1891
aF11.0
aI0
aI00
aI00
aI00
aI00
aI00
aI00
aI00
aI00
aa(lp1892
I144489
aF242.81411764705885
aF474.417
ag1874
aS'nimbussanl'
p1893
aS'#000000'
p1894
aF11.0
aI0
aI00
aI00
aI00
aI00
aI00
aI00
aI00
aI00
aa(lp1895
I25931
aF253.59505882352943
aF474.417
ag1874
aS'nimbussanl'
p1896
aS'#000000'
p1897
aF11.0
aI0
aI00
aI00
aI00
aI00
aI00
aI00
aI00
aI00
aa(lp1898
I59734
aF261.9378823529412
aF474.417
ag1874
aS'nimbussanl'
p1899
aS'#000000'
p1900
aF11.0
aI0
aI00
aI00
aI00
aI00
aI00
aI00
aI00
aI00
aa(lp1901
I208746
aF289.8283529411765
aF474.417
ag1874
aS'nimbussanl'
p1902
aS'#000000'
p1903
aF11.0
aI0
aI00
aI00
aI00
aI00
aI00
aI00
aI00
aI00
aa(lp1904
I202216
aF329.95211764705886
aF474.417
ag1874
aS'nimbussanl'
p1905
aS'#000000'
p1906
aF11.0
aI0
aI00
aI00
aI00
aI00
aI00
aI00
aI00
aI00
aa(lp1907
I25931
aF72.1
aF501.731
aVp2
p1908
aS'nimbussanl'
p1909
aS'#000000'
p1910
aF11.0
aI1
aI01
aI00
aI00
aI00
aI00
aI00
aI00
aI00
aa(lp1911
I234378
aF101.79969999999999
aF501.731
ag1908
aS'nimbussanl'
p1912
aS'#000000'
p1913
aF11.0
aI1
aI00
aI00
aI00
aI00
aI00
aI00
aI00
aI00
aa(lp1914
I206500
aF107.74964999999999
aF501.731
ag1908
aS'nimbussanl'
p1915
aS'#000000'
p1916
aF11.0
aI1
aI01
aI00
aI00
aI00
aI00
aI00
aI00
aI00
aa(lp1917
I59680
aF133.49939999999998
aF501.731
ag1908
aS'nimbussanl'
p1918
aS'#000000'
p1919
aF11.0
aI1
aI01
aI00
aI00
aI00
aI00
aI00
aI00
aI00
aa(lp1920
I234378
aF324.1
aF501.731
aVp2
p1921
aS'nimbussanl'
p1922
aS'#000000'
p1923
aF11.0
aI1
aI01
aI00
aI00
aI00
aI00
aI00
aI00
aI01
aa(lp1924
I234378
aF342.062
aF501.731
ag1921
aS'nimbussanl'
p1925
aS'#000000'
p1926
aF11.0
aI1
aI00
aI00
aI01
aI01
aI01
aI00
aI00
aI00
aa(lp1927
I89480
aF365.678
aF501.731
ag1921
aS'nimbussanl'
p1928
aS'#000000'
p1929
aF11.0
aI1
aI00
aI00
aI00
aI00
aI00
aI00
aI00
aI00
aa(lp1930
I61519
aF377.986
aF501.731
ag1921
aS'nimbussanl'
p1931
aS'#000000'
p1932
aF11.0
aI1
aI01
aI00
aI00
aI00
aI00
aI00
aI00
aI01
aa(lp1933
I234378
aF395.948
aF501.731
ag1921
aS'nimbussanl'
p1934
aS'#000000'
p1935
aF11.0
aI1
aI00
aI00
aI01
aI01
aI01
aI00
aI00
aI00
aa(lp1936
I176435
aF72.1
aF515.831
aVp2
p1937
aS'nimbussanl'
p1938
aS'#000000'
p1939
aF11.0
aI1
aI01
aI00
aI00
aI00
aI00
aI00
aI00
aI00
aa(lp1940
I234378
aF92.19955555555555
aF515.831
ag1937
aS'nimbussanl'
p1941
aS'#000000'
p1942
aF11.0
aI1
aI00
aI00
aI00
aI00
aI00
aI00
aI00
aI00
aa(lp1943
I123665
aF98.22444444444443
aF515.831
ag1937
aS'nimbussanl'
p1944
aS'#000000'
p1945
aF11.0
aI1
aI01
aI00
aI00
aI00
aI00
aI00
aI00
aI00
aa(lp1946
I100815
aF154.4982222222222
aF515.831
ag1937
aS'nimbussanl'
p1947
aS'#000000'
p1948
aF11.0
aI1
aI00
aI00
aI00
aI00
aI00
aI00
aI00
aI00
aa(lp1949
I12878
aF72.1
aF530.031
aVp2
p1950
aS'nimbussanl'
p1951
aS'#000000'
p1952
aF11.0
aI1
aI01
aI00
aI00
aI00
aI00
aI00
aI00
aI00
aa(lp1953
I234378
aF128.6573088235294
aF530.031
ag1950
aS'nimbussanl'
p1954
aS'#000000'
p1955
aF11.0
aI1
aI00
aI00
aI00
aI00
aI00
aI00
aI00
aI00
aa(lp1956
I77936
aF134.79888235294118
aF530.031
ag1950
aS'nimbussanl'
p1957
aS'#000000'
p1958
aF11.0
aI1
aI01
aI00
aI00
aI00
aI00
aI00
aI00
aI00
aa(lp1959
I233063
aF182.07304411764707
aF530.031
ag1950
aS'nimbussanl'
p1960
aS'#000000'
p1961
aF11.0
aI1
aI01
aI01
aI00
aI00
aI00
aI00
aI00
aI00
aa(lp1962
I234378
aF187.21461764705884
aF530.031
ag1950
aS'nimbussanl'
p1963
aS'#000000'
p1964
aF11.0
aI1
aI00
aI00
aI00
aI00
aI00
aI00
aI00
aI00
aa(lp1965
I234378
aF193.35619117647062
aF530.031
ag1950
aS'nimbussanl'
p1966
aS'#000000'
p1967
aF11.0
aI1
aI01
aI00
aI00
aI00
aI00
aI00
aI00
aI00
aa(lp1968
I234378
aF216.20563235294122
aF530.031
ag1950
aS'nimbussanl'
p1969
aS'#000000'
p1970
aF11.0
aI1
aI00
aI00
aI00
aI00
aI00
aI00
aI00
aI00
aa(lp1971
I234378
aF230.347205882353
aF530.031
ag1950
aS'nimbussanl'
p1972
aS'#000000'
p1973
aF11.0
aI1
aI01
aI00
aI00
aI00
aI00
aI00
aI00
aI00
aa(lp1974
I221858
aF257.0550735294118
aF530.031
ag1950
aS'nimbussanl'
p1975
aS'#000000'
p1976
aF11.0
aI1
aI01
aI00
aI00
aI00
aI00
aI00
aI00
aI00
aa(lp1977
I68984
aF304.32923529411767
aF530.031
ag1950
aS'nimbussanl'
p1978
aS'#000000'
p1979
aF11.0
aI1
aI00
aI00
aI00
aI00
aI00
aI00
aI00
aI00
aa(lp1980
I234378
aF307.32025000000004
aF530.031
ag1950
aS'nimbussanl'
p1981
aS'#000000'
p1982
aF11.0
aI1
aI00
aI00
aI00
aI00
aI00
aI00
aI00
aI00
aa(lp1983
I234378
aF346.4618235294118
aF530.031
ag1950
aS'nimbussanl'
p1984
aS'#000000'
p1985
aF11.0
aI1
aI01
aI01
aI00
aI00
aI00
aI00
aI00
aI00
aa(lp1986
I234378
aF323.8865441176471
aF530.031
ag1950
aS'nimbussanl'
p1987
aS'#000000'
p1988
aF11.0
aI1
aI00
aI00
aI00
aI00
aI00
aI00
aI00
aI00
aa(lp1989
I144502
aF364.0281176470588
aF530.031
ag1950
aS'nimbussanl'
p1990
aS'#000000'
p1991
aF11.0
aI1
aI01
aI01
aI00
aI00
aI00
aI00
aI00
aI00
aa(lp1992
I225568
aF346.31126470588237
aF530.031
ag1950
aS'nimbussanl'
p1993
aS'#000000'
p1994
aF11.0
aI1
aI01
aI01
aI00
aI00
aI00
aI00
aI00
aI00
aa(lp1995
I63022
aF72.1
aF544.131
aVp2
p1996
aS'nimbussanl'
p1997
aS'#000000'
p1998
aF11.0
aI1
aI01
aI00
aI00
aI00
aI00
aI00
aI00
aI00
aa(lp1999
I234378
aF110.40445652173912
aF544.131
ag1996
aS'nimbussanl'
p2000
aS'#000000'
p2001
aF11.0
aI1
aI00
aI00
aI00
aI00
aI00
aI00
aI00
aI00
aa(lp2002
I62443
aF115.87652173913042
aF544.131
ag1996
aS'nimbussanl'
p2003
aS'#000000'
p2004
aF11.0
aI1
aI01
aI00
aI00
aI00
aI00
aI00
aI00
aI00
aa(lp2005
I185738
aF155.18097826086955
aF544.131
ag1996
aS'nimbussanl'
p2006
aS'#000000'
p2007
aF11.0
aI1
aI01
aI00
aI00
aI00
aI00
aI00
aI00
aI00
aa(lp2008
I73953
aF222.8457608695652
aF544.131
ag1996
aS'nimbussanl'
p2009
aS'#000000'
p2010
aF11.0
aI1
aI01
aI00
aI00
aI00
aI00
aI00
aI00
aI00
aa(lp2011
I234378
aF256.678152173913
aF544.131
ag1996
aS'nimbussanl'
p2012
aS'#000000'
p2013
aF11.0
aI1
aI01
aI00
aI00
aI00
aI00
aI00
aI00
aI00
aa(lp2014
I62443
aF72.1
aF558.317
aVp2
p2015
aS'nimbussanl'
p2016
aS'#000000'
p2017
aF11.0
aI0
aI01
aI00
aI00
aI00
aI00
aI00
aI00
aI00
aa(lp2018
I185738
aF110.68219540229885
aF558.317
ag2015
aS'nimbussanl'
p2019
aS'#000000'
p2020
aF11.0
aI0
aI01
aI00
aI00
aI00
aI00
aI00
aI00
aI00
aa(lp2021
I22474
aF176.10881609195403
aF558.317
ag2015
aS'nimbussanl'
p2022
aS'#000000'
p2023
aF11.0
aI0
aI00
aI00
aI00
aI00
aI00
aI00
aI00
aI00
aa(lp2024
I166593
aF179.84658620689655
aF558.317
ag2015
aS'nimbussanl'
p2025
aS'#000000'
p2026
aF11.0
aI0
aI00
aI00
aI00
aI00
aI00
aI00
aI00
aI00
aa(lp2027
I108443
aF194.2154712643678
aF558.317
ag2015
aS'nimbussanl'
p2028
aS'#000000'
p2029
aF11.0
aI0
aI01
aI00
aI00
aI00
aI00
aI00
aI00
aI00
aa(lp2030
I123665
aF227.4287816091954
aF558.317
ag2015
aS'nimbussanl'
p2031
aS'#000000'
p2032
aF11.0
aI0
aI00
aI00
aI00
aI00
aI00
aI00
aI00
aI00
aa(lp2033
I135639
aF287.4865172413793
aF558.317
ag2015
aS'nimbussanl'
p2034
aS'#000000'
p2035
aF11.0
aI0
aI00
aI00
aI00
aI00
aI00
aI00
aI00
aI00
aa(lp2036
I234378
aF299.22428735632184
aF558.317
ag2015
aS'nimbussanl'
p2037
aS'#000000'
p2038
aF11.0
aI0
aI01
aI01
aI00
aI00
aI00
aI00
aI00
aI00
aa(lp2039
I89480
aF281.33094252873565
aF558.317
ag2015
aS'nimbussanl'
p2040
aS'#000000'
p2041
aF11.0
aI0
aI00
aI00
aI00
aI00
aI00
aI00
aI00
aI00
aa(lp2042
I123814
aF328.06871264367817
aF558.317
ag2015
aS'nimbussanl'
p2043
aS'#000000'
p2044
aF11.0
aI0
aI00
aI00
aI00
aI00
aI00
aI00
aI00
aI00
aa(lp2045
I234378
aF361.2820229885058
aF558.317
ag2015
aS'nimbussanl'
p2046
aS'#000000'
p2047
aF11.0
aI0
aI00
aI00
aI00
aI00
aI00
aI00
aI00
aI00
aa(lp2048
I169745
aF415.97087356321845
aF558.317
ag2015
aS'nimbussanl'
p2049
aS'#000000'
p2050
aF11.0
aI0
aI00
aI00
aI00
aI00
aI00
aI00
aI00
aI00
aa(lp2051
I46281
aF438.4464137931035
aF558.317
ag2015
aS'nimbussanl'
p2052
aS'#000000'
p2053
aF11.0
aI0
aI00
aI00
aI00
aI00
aI00
aI00
aI00
aI00
aa(lp2054
I234378
aF471.6597241379311
aF558.317
ag2015
aS'nimbussanl'
p2055
aS'#000000'
p2056
aF11.0
aI0
aI01
aI01
aI00
aI00
aI00
aI00
aI00
aI00
aa(lp2057
I85218
aF72.1
aF571.917
aVp2
p2058
aS'nimbussanl'
p2059
aS'#000000'
p2060
aF11.0
aI0
aI00
aI00
aI00
aI00
aI00
aI00
aI00
aI00
aa(lp2061
I140882
aF88.3445652173913
aF571.917
ag2058
aS'nimbussanl'
p2062
aS'#000000'
p2063
aF11.0
aI0
aI01
aI00
aI00
aI00
aI00
aI00
aI00
aI00
aa(lp2064
I96642
aF119.83369565217392
aF571.917
ag2058
aS'nimbussanl'
p2065
aS'#000000'
p2066
aF11.0
aI0
aI00
aI00
aI00
aI00
aI00
aI00
aI00
aI00
aa(lp2067
I42569
aF151.32282608695652
aF571.917
ag2058
aS'nimbussanl'
p2068
aS'#000000'
p2069
aF11.0
aI0
aI00
aI00
aI00
aI00
aI00
aI00
aI00
aI00
aa(lp2070
I234378
aF227.54565217391303
aF571.917
ag2058
aS'nimbussanl'
p2071
aS'#000000'
p2072
aF11.0
aI0
aI00
aI00
aI00
aI00
aI00
aI00
aI00
aI00
aa(lp2073
I194354
aF233.62717391304346
aF571.917
ag2058
aS'nimbussanl'
p2074
aS'#000000'
p2075
aF11.0
aI0
aI01
aI00
aI00
aI00
aI00
aI00
aI00
aI00
aa(lp2076
I174268
aF249.87173913043478
aF571.917
ag2058
aS'nimbussanl'
p2077
aS'#000000'
p2078
aF11.0
aI0
aI00
aI00
aI00
aI00
aI00
aI00
aI00
aI00
aa(lp2079
I234378
aF286.44239130434784
aF571.917
ag2058
aS'nimbussanl'
p2080
aS'#000000'
p2081
aF11.0
aI0
aI00
aI00
aI00
aI00
aI00
aI00
aI00
aI00
aa(lp2082
I144489
aF328.09456521739133
aF571.917
ag2058
aS'nimbussanl'
p2083
aS'#000000'
p2084
aF11.0
aI0
aI00
aI00
aI00
aI00
aI00
aI00
aI00
aI00
aa(lp2085
I194354
aF339.2576086956522
aF571.917
ag2058
aS'nimbussanl'
p2086
aS'#000000'
p2087
aF11.0
aI0
aI00
aI00
aI00
aI00
aI00
aI00
aI00
aI00
aa(lp2088
I123665
aF355.5021739130435
aF571.917
ag2058
aS'nimbussanl'
p2089
aS'#000000'
p2090
aF11.0
aI0
aI00
aI00
aI00
aI00
aI00
aI00
aI00
aI00
aa(lp2091
I130950
aF412.3989130434783
aF571.917
ag2058
aS'nimbussanl'
p2092
aS'#000000'
p2093
aF11.0
aI0
aI00
aI00
aI00
aI00
aI00
aI00
aI00
aI00
aa(lp2094
I234378
aF448.96956521739133
aF571.917
ag2058
aS'nimbussanl'
p2095
aS'#000000'
p2096
aF11.0
aI0
aI00
aI00
aI00
aI00
aI00
aI00
aI00
aI00
aa(lp2097
I234378
aF72.1
aF585.617
aVp2
p2098
aS'nimbussanl'
p2099
aS'#000000'
p2100
aF11.0
aI0
aI00
aI00
aI00
aI00
aI00
aI00
aI00
aI00
aa(lp2101
I234378
aF116.68666666666667
aF585.617
ag2098
aS'nimbussanl'
p2102
aS'#000000'
p2103
aF11.0
aI0
aI00
aI00
aI00
aI00
aI00
aI00
aI00
aI00
aa(lp2104
I58462
aF127.683
aF585.617
aVp2
p2105
aS'nimbussanl'
p2106
aS'#000000'
p2107
aF11.0
aI0
aI00
aI00
aI00
aI00
aI00
aI00
aI00
aI00
aa(lp2108
I234378
aF168.98433333333332
aF585.617
ag2105
aS'nimbussanl'
p2109
aS'#000000'
p2110
aF11.0
aI0
aI00
aI00
aI00
aI00
aI00
aI00
aI00
aI00
aa(lp2111
I24443
aF179.669
aF585.617
aVp2
p2112
aS'nimbussanl'
p2113
aS'#000000'
p2114
aF11.0
aI0
aI00
aI00
aI00
aI00
aI00
aI00
aI00
aI00
aa(lp2115
I85218
aF221.733
aF585.617
aVp2
p2116
aS'nimbussanl'
p2117
aS'#000000'
p2118
aF11.0
aI0
aI00
aI00
aI00
aI00
aI00
aI00
aI00
aI00
aa(lp2119
I81137
aF245.526
aF585.617
aVp2
p2120
aS'nimbussanl'
p2121
aS'#000000'
p2122
aF11.0
aI0
aI00
aI00
aI00
aI00
aI00
aI00
aI00
aI00
aa(lp2123
I234378
aF273.7834285714286
aF585.617
ag2120
aS'nimbussanl'
p2124
aS'#000000'
p2125
aF11.0
aI0
aI00
aI00
aI00
aI00
aI00
aI00
aI00
aI00
aa(lp2126
I7562
aF284.015
aF585.617
aVp2
p2127
aS'nimbussanl'
p2128
aS'#000000'
p2129
aF11.0
aI0
aI00
aI00
aI00
aI00
aI00
aI00
aI00
aI00
aa(lp2130
I42569
aF336.485
aF585.617
aVp2
p2131
aS'nimbussanl'
p2132
aS'#000000'
p2133
aF11.0
aI0
aI00
aI00
aI00
aI00
aI00
aI00
aI00
aI00
aa(lp2134
I169745
aF418.358
aF585.617
aVp2
p2135
aS'nimbussanl'
p2136
aS'#000000'
p2137
aF11.0
aI0
aI00
aI00
aI00
aI00
aI00
aI00
aI00
aI00
aa(lp2138
I166593
aF443.328
aF585.617
aVp2
p2139
aS'nimbussanl'
p2140
aS'#000000'
p2141
aF11.0
aI0
aI00
aI00
aI00
aI00
aI00
aI00
aI00
aI00
aa(lp2142
I140882
aF454.911
aF585.617
aVp2
p2143
aS'nimbussanl'
p2144
aS'#000000'
p2145
aF11.0
aI0
aI00
aI00
aI00
aI00
aI00
aI00
aI00
aI00
aa(lp2146
I96642
aF494.555
aF585.617
aVp2
p2147
aS'nimbussanl'
p2148
aS'#000000'
p2149
aF11.0
aI0
aI00
aI00
aI00
aI00
aI00
aI00
aI00
aI00
aa(lp2150
I89480
aF530.525
aF585.617
aVp2
p2151
aS'nimbussanl'
p2152
aS'#000000'
p2153
aF11.0
aI0
aI00
aI00
aI00
aI00
aI00
aI00
aI00
aI00
aa(lp2154
I62807
aF72.1
aF599.217
aVp2
p2155
aS'nimbussanl'
p2156
aS'#000000'
p2157
aF11.0
aI0
aI00
aI00
aI00
aI00
aI00
aI00
aI00
aI00
aa(lp2158
I234378
aF102.36291764705882
aF599.217
ag2155
aS'nimbussanl'
p2159
aS'#000000'
p2160
aF11.0
aI0
aI00
aI00
aI00
aI00
aI00
aI00
aI00
aI00
aa(lp2161
I234378
aF151.13444705882353
aF599.217
ag2155
aS'nimbussanl'
p2162
aS'#000000'
p2163
aF11.0
aI0
aI00
aI00
aI00
aI00
aI00
aI00
aI00
aI00
aa(lp2164
I139844
aF157.0116
aF599.217
ag2155
aS'nimbussanl'
p2165
aS'#000000'
p2166
aF11.0
aI0
aI00
aI00
aI00
aI00
aI00
aI00
aI00
aI00
aa(lp2167
I144489
aF216.53743529411764
aF599.217
ag2155
aS'nimbussanl'
p2168
aS'#000000'
p2169
aF11.0
aI0
aI00
aI00
aI00
aI00
aI00
aI00
aI00
aI00
aa(lp2170
I80364
aF227.2917411764706
aF599.217
ag2155
aS'nimbussanl'
p2171
aS'#000000'
p2172
aF11.0
aI0
aI00
aI00
aI00
aI00
aI00
aI00
aI00
aI00
aa(lp2173
I234378
aF210.9232
aF599.217
ag2155
aS'nimbussanl'
p2174
aS'#000000'
p2175
aF11.0
aI0
aI00
aI00
aI00
aI00
aI00
aI00
aI00
aI00
aa(lp2176
I85218
aF292.6947294117647
aF599.217
ag2155
aS'nimbussanl'
p2177
aS'#000000'
p2178
aF11.0
aI0
aI00
aI00
aI00
aI00
aI00
aI00
aI00
aI00
aa(lp2179
I52628
aF308.32618823529407
aF599.217
ag2155
aS'nimbussanl'
p2180
aS'#000000'
p2181
aF11.0
aI0
aI00
aI00
aI00
aI00
aI00
aI00
aI00
aI00
aa(lp2182
I234378
aF276.8348
aF599.217
ag2155
aS'nimbussanl'
p2183
aS'#000000'
p2184
aF11.0
aI0
aI00
aI00
aI00
aI00
aI00
aI00
aI00
aI00
aa(lp2185
I33301
aF373.7291764705882
aF599.217
ag2155
aS'nimbussanl'
p2186
aS'#000000'
p2187
aF11.0
aI0
aI00
aI00
aI00
aI00
aI00
aI00
aI00
aI00
aa(lp2188
I234378
aF408.8692470588235
aF599.217
ag2155
aS'nimbussanl'
p2189
aS'#000000'
p2190
aF11.0
aI0
aI00
aI00
aI00
aI00
aI00
aI00
aI00
aI00
aa(lp2191
I234378
aF443.00931764705877
aF599.217
ag2155
aS'nimbussanl'
p2192
aS'#000000'
p2193
aF11.0
aI0
aI00
aI00
aI00
aI00
aI00
aI00
aI00
aI00
aa(lp2194
I234378
aF72.1
aF626.531
aVp2
p2195
aS'nimbussanl'
p2196
aS'#000000'
p2197
aF11.0
aI1
aI01
aI00
aI00
aI00
aI00
aI00
aI00
aI00
aa(lp2198
I234378
aF101.5
aF626.531
ag2195
aS'nimbussanl'
p2199
aS'#000000'
p2200
aF11.0
aI1
aI01
aI00
aI00
aI00
aI00
aI00
aI00
aI00
aa(lp2201
I234378
aF185.98000000000002
aF626.531
ag2195
aS'nimbussanl'
p2202
aS'#000000'
p2203
aF11.0
aI1
aI00
aI00
aI00
aI00
aI00
aI00
aI00
aI00
aa(lp2204
I234378
aF90.1
aF640.717
aVp2
p2205
aS'nimbussanl'
p2206
aS'#000000'
p2207
aF11.0
aI0
aI01
aI00
aI00
aI00
aI00
aI00
aI00
aI00
aa(lp2208
I135639
aF149.38794520547944
aF640.717
ag2205
aS'nimbussanl'
p2209
aS'#000000'
p2210
aF11.0
aI0
aI00
aI00
aI00
aI00
aI00
aI00
aI00
aI00
aa(lp2211
I166245
aF160.10260273972602
aF640.717
ag2205
aS'nimbussanl'
p2212
aS'#000000'
p2213
aF11.0
aI0
aI00
aI00
aI00
aI00
aI00
aI00
aI00
aI00
aa(lp2214
I202216
aF199.96123287671233
aF640.717
ag2205
aS'nimbussanl'
p2215
aS'#000000'
p2216
aF11.0
aI0
aI00
aI00
aI00
aI00
aI00
aI00
aI00
aI00
aa(lp2217
I122076
aF254.3918493150685
aF640.717
ag2205
aS'nimbussanl'
p2218
aS'#000000'
p2219
aF11.0
aI0
aI00
aI00
aI00
aI00
aI00
aI00
aI00
aI00
aa(lp2220
I165056
aF303.9651369863014
aF640.717
ag2205
aS'nimbussanl'
p2221
aS'#000000'
p2222
aF11.0
aI0
aI00
aI00
aI00
aI00
aI00
aI00
aI00
aI00
aa(lp2223
I144489
aF329.2517808219178
aF640.717
ag2205
aS'nimbussanl'
p2224
aS'#000000'
p2225
aF11.0
aI0
aI00
aI00
aI00
aI00
aI00
aI00
aI00
aI00
aa(lp2226
I194354
aF339.96643835616436
aF640.717
ag2205
aS'nimbussanl'
p2227
aS'#000000'
p2228
aF11.0
aI0
aI00
aI00
aI00
aI00
aI00
aI00
aI00
aI00
aa(lp2229
I123665
aF355.5384246575342
aF640.717
ag2205
aS'nimbussanl'
p2230
aS'#000000'
p2231
aF11.0
aI0
aI00
aI00
aI00
aI00
aI00
aI00
aI00
aI00
aa(lp2232
I234378
aF408.96904109589036
aF640.717
ag2205
aS'nimbussanl'
p2233
aS'#000000'
p2234
aF11.0
aI0
aI00
aI00
aI00
aI00
aI00
aI00
aI00
aI00
aa(lp2235
I234378
aF90.1
aF654.617
aVp2
p2236
aS'nimbussanl'
p2237
aS'#000000'
p2238
aF11.0
aI0
aI01
aI00
aI00
aI00
aI00
aI00
aI00
aI00
aa(lp2239
I194354
aF136.69006896551724
aF654.617
ag2236
aS'nimbussanl'
p2240
aS'#000000'
p2241
aF11.0
aI0
aI00
aI00
aI00
aI00
aI00
aI00
aI00
aI00
aa(lp2242
I204810
aF152.88675862068965
aF654.617
ag2236
aS'nimbussanl'
p2243
aS'#000000'
p2244
aF11.0
aI0
aI00
aI00
aI00
aI00
aI00
aI00
aI00
aI00
aa(lp2245
I234378
aF189.34570114942528
aF654.617
ag2236
aS'nimbussanl'
p2246
aS'#000000'
p2247
aF11.0
aI0
aI00
aI00
aI00
aI00
aI00
aI00
aI00
aI00
aa(lp2248
I234378
aF220.73908045977012
aF654.617
ag2236
aS'nimbussanl'
p2249
aS'#000000'
p2250
aF11.0
aI0
aI01
aI01
aI00
aI00
aI00
aI00
aI00
aI00
aa(lp2251
I234378
aF266.32914942528737
aF654.617
ag2236
aS'nimbussanl'
p2252
aS'#000000'
p2253
aF11.0
aI0
aI00
aI00
aI00
aI00
aI00
aI00
aI00
aI00
aa(lp2254
I89480
aF272.3947126436782
aF654.617
ag2236
aS'nimbussanl'
p2255
aS'#000000'
p2256
aF11.0
aI0
aI00
aI00
aI00
aI00
aI00
aI00
aI00
aI00
aa(lp2257
I24205
aF283.5258390804598
aF654.617
ag2236
aS'nimbussanl'
p2258
aS'#000000'
p2259
aF11.0
aI0
aI00
aI00
aI00
aI00
aI00
aI00
aI00
aI00
aa(lp2260
I46281
aF314.9192183908046
aF654.617
ag2236
aS'nimbussanl'
p2261
aS'#000000'
p2262
aF11.0
aI0
aI00
aI00
aI00
aI00
aI00
aI00
aI00
aI00
aa(lp2263
I137722
aF346.3125977011494
aF654.617
ag2236
aS'nimbussanl'
p2264
aS'#000000'
p2265
aF11.0
aI0
aI00
aI00
aI00
aI00
aI00
aI00
aI00
aI00
aa(lp2266
I201520
aF372.64041379310345
aF654.617
ag2236
aS'nimbussanl'
p2267
aS'#000000'
p2268
aF11.0
aI0
aI00
aI00
aI00
aI00
aI00
aI00
aI00
aI00
aa(lp2269
I85218
aF393.9026666666667
aF654.617
ag2236
aS'nimbussanl'
p2270
aS'#000000'
p2271
aF11.0
aI0
aI00
aI00
aI00
aI00
aI00
aI00
aI00
aI00
aa(lp2272
I109270
aF410.0993563218391
aF654.617
ag2236
aS'nimbussanl'
p2273
aS'#000000'
p2274
aF11.0
aI0
aI00
aI00
aI00
aI00
aI00
aI00
aI00
aI00
aa(lp2275
I22476
aF456.68942528735636
aF654.617
ag2236
aS'nimbussanl'
p2276
aS'#000000'
p2277
aF11.0
aI0
aI00
aI00
aI00
aI00
aI00
aI00
aI00
aI00
aa(lp2278
I16331
aF467.82055172413794
aF654.617
ag2236
aS'nimbussanl'
p2279
aS'#000000'
p2280
aF11.0
aI0
aI00
aI00
aI00
aI00
aI00
aI00
aI00
aI00
aa(lp2281
I194354
aF90.1
aF668.617
aVp2
p2282
aS'nimbussanl'
p2283
aS'#000000'
p2284
aF11.0
aI0
aI00
aI00
aI00
aI00
aI00
aI00
aI00
aI00
aa(lp2285
I180950
aF104.85522499999999
aF668.617
ag2282
aS'nimbussanl'
p2286
aS'#000000'
p2287
aF11.0
aI0
aI00
aI00
aI00
aI00
aI00
aI00
aI00
aI00
aa(lp2288
I34286
aF137.95074999999997
aF668.617
ag2282
aS'nimbussanl'
p2289
aS'#000000'
p2290
aF11.0
aI0
aI00
aI00
aI00
aI00
aI00
aI00
aI00
aI00
aa(lp2291
I89480
aF175.63134999999997
aF668.617
ag2282
aS'nimbussanl'
p2292
aS'#000000'
p2293
aF11.0
aI0
aI00
aI00
aI00
aI00
aI00
aI00
aI00
aI00
aa(lp2294
I194354
aF161.80149999999998
aF668.617
ag2282
aS'nimbussanl'
p2295
aS'#000000'
p2296
aF11.0
aI0
aI00
aI00
aI00
aI00
aI00
aI00
aI00
aI00
aa(lp2297
I123665
aF200.55672499999997
aF668.617
ag2282
aS'nimbussanl'
p2298
aS'#000000'
p2299
aF11.0
aI0
aI00
aI00
aI00
aI00
aI00
aI00
aI00
aI00
aa(lp2300
I234378
aF250.99254999999997
aF668.617
ag2282
aS'nimbussanl'
p2301
aS'#000000'
p2302
aF11.0
aI0
aI00
aI00
aI00
aI00
aI00
aI00
aI00
aI00
aa(lp2303
I234378
aF90.1
aF682.217
aVp2
p2304
aS'nimbussanl'
p2305
aS'#000000'
p2306
aF11.0
aI0
aI01
aI00
aI00
aI00
aI00
aI00
aI00
aI00
aa(lp2307
I194354
aF134.45003296703297
aF682.217
ag2304
aS'nimbussanl'
p2308
aS'#000000'
p2309
aF11.0
aI0
aI00
aI00
aI00
aI00
aI00
aI00
aI00
aI00
aa(lp2310
I133174
aF149.90004395604396
aF682.217
ag2304
aS'nimbussanl'
p2311
aS'#000000'
p2312
aF11.0
aI0
aI01
aI00
aI00
aI00
aI00
aI00
aI00
aI00
aa(lp2313
I166593
aF166.16672527472528
aF682.217
ag2304
aS'nimbussanl'
p2314
aS'#000000'
p2315
aF11.0
aI0
aI00
aI00
aI00
aI00
aI00
aI00
aI00
aI00
aa(lp2316
I52536
aF175.9833956043956
aF682.217
ag2304
aS'nimbussanl'
p2317
aS'#000000'
p2318
aF11.0
aI0
aI01
aI00
aI00
aI00
aI00
aI00
aI00
aI00
aa(lp2319
I174108
aF196.25007692307693
aF682.217
ag2304
aS'nimbussanl'
p2320
aS'#000000'
p2321
aF11.0
aI0
aI00
aI00
aI00
aI00
aI00
aI00
aI00
aI00
aa(lp2322
I190806
aF226.15009890109891
aF682.217
ag2304
aS'nimbussanl'
p2323
aS'#000000'
p2324
aF11.0
aI0
aI00
aI00
aI00
aI00
aI00
aI00
aI00
aI00
aa(lp2325
I194354
aF214.6001098901099
aF682.217
ag2304
aS'nimbussanl'
p2326
aS'#000000'
p2327
aF11.0
aI0
aI00
aI00
aI00
aI00
aI00
aI00
aI00
aI00
aa(lp2328
I123665
aF257.05012087912087
aF682.217
ag2304
aS'nimbussanl'
p2329
aS'#000000'
p2330
aF11.0
aI0
aI00
aI00
aI00
aI00
aI00
aI00
aI00
aI00
aa(lp2331
I234378
aF310.0334945054945
aF682.217
ag2304
aS'nimbussanl'
p2332
aS'#000000'
p2333
aF11.0
aI0
aI00
aI00
aI00
aI00
aI00
aI00
aI00
aI00
aa(lp2334
I218914
aF315.85016483516483
aF682.217
ag2304
aS'nimbussanl'
p2335
aS'#000000'
p2336
aF11.0
aI0
aI00
aI00
aI00
aI00
aI00
aI00
aI00
aI00
aa(lp2337
I113929
aF340.9335164835165
aF682.217
ag2304
aS'nimbussanl'
p2338
aS'#000000'
p2339
aF11.0
aI0
aI00
aI00
aI00
aI00
aI00
aI00
aI00
aI00
aa(lp2340
I234378
aF361.2001978021978
aF682.217
ag2304
aS'nimbussanl'
p2341
aS'#000000'
p2342
aF11.0
aI0
aI00
aI00
aI00
aI00
aI00
aI00
aI00
aI00
aa(lp2343
I41890
aF405.5502307692308
aF682.217
ag2304
aS'nimbussanl'
p2344
aS'#000000'
p2345
aF11.0
aI0
aI00
aI00
aI00
aI00
aI00
aI00
aI00
aI00
aa(lp2346
I194354
aF352.00024175824177
aF682.217
ag2304
aS'nimbussanl'
p2347
aS'#000000'
p2348
aF11.0
aI0
aI00
aI00
aI00
aI00
aI00
aI00
aI00
aI00
aa(lp2349
I234378
aF436.45025274725276
aF682.217
ag2304
aS'nimbussanl'
p2350
aS'#000000'
p2351
aF11.0
aI0
aI00
aI00
aI00
aI00
aI00
aI00
aI00
aI00
aa(lp2352
I234378
aF90.1
aF696.217
aVp2
p2353
aS'nimbussanl'
p2354
aS'#000000'
p2355
aF11.0
aI0
aI00
aI00
aI00
aI00
aI00
aI00
aI00
aI00
aa(lp2356
I192651
aF135.70803448275862
aF696.217
ag2353
aS'nimbussanl'
p2357
aS'#000000'
p2358
aF11.0
aI0
aI00
aI00
aI00
aI00
aI00
aI00
aI00
aI00
aa(lp2359
I194354
aF146.62093103448277
aF696.217
ag2353
aS'nimbussanl'
p2360
aS'#000000'
p2361
aF11.0
aI0
aI00
aI00
aI00
aI00
aI00
aI00
aI00
aI00
aa(lp2362
I123665
aF162.49027586206898
aF696.217
ag2353
aS'nimbussanl'
p2363
aS'#000000'
p2364
aF11.0
aI0
aI00
aI00
aI00
aI00
aI00
aI00
aI00
aI00
aa(lp2365
I234378
aF217.01120689655176
aF696.217
ag2353
aS'nimbussanl'
p2366
aS'#000000'
p2367
aF11.0
aI0
aI00
aI00
aI00
aI00
aI00
aI00
aI00
aI00
aa(lp2368
I234378
aF90.1
aF72.017
aVp3
p2369
aS'nimbussanl'
p2370
aS'#000000'
p2371
aF11.0
aI0
aI01
aI00
aI00
aI00
aI00
aI00
aI00
aI00
aa(lp2372
I194354
aF133.83429787234041
aF72.017
ag2369
aS'nimbussanl'
p2373
aS'#000000'
p2374
aF11.0
aI0
aI00
aI00
aI00
aI00
aI00
aI00
aI00
aI00
aa(lp2375
I234378
aF149.07906382978723
aF72.017
ag2369
aS'nimbussanl'
p2376
aS'#000000'
p2377
aF11.0
aI0
aI00
aI00
aI00
aI00
aI00
aI00
aI00
aI00
aa(lp2378
I174108
aF188.0651063829787
aF72.017
ag2369
aS'nimbussanl'
p2379
aS'#000000'
p2380
aF11.0
aI0
aI00
aI00
aI00
aI00
aI00
aI00
aI00
aI00
aa(lp2381
I190806
aF217.55463829787232
aF72.017
ag2369
aS'nimbussanl'
p2382
aS'#000000'
p2383
aF11.0
aI0
aI00
aI00
aI00
aI00
aI00
aI00
aI00
aI00
aa(lp2384
I194354
aF208.79940425531913
aF72.017
ag2369
aS'nimbussanl'
p2385
aS'#000000'
p2386
aF11.0
aI0
aI00
aI00
aI00
aI00
aI00
aI00
aI00
aI00
aa(lp2387
I123665
aF248.04417021276595
aF72.017
ag2369
aS'nimbussanl'
p2388
aS'#000000'
p2389
aF11.0
aI0
aI00
aI00
aI00
aI00
aI00
aI00
aI00
aI00
aa(lp2390
I89480
aF301.2749787234043
aF72.017
ag2369
aS'nimbussanl'
p2391
aS'#000000'
p2392
aF11.0
aI0
aI00
aI00
aI00
aI00
aI00
aI00
aI00
aI00
aa(lp2393
I234378
aF311.77148936170215
aF72.017
ag2369
aS'nimbussanl'
p2394
aS'#000000'
p2395
aF11.0
aI0
aI00
aI00
aI00
aI00
aI00
aI00
aI00
aI00
aa(lp2396
I194354
aF302.5057872340426
aF72.017
ag2369
aS'nimbussanl'
p2397
aS'#000000'
p2398
aF11.0
aI0
aI00
aI00
aI00
aI00
aI00
aI00
aI00
aI00
aa(lp2399
I162640
aF370.7505531914894
aF72.017
ag2369
aS'nimbussanl'
p2400
aS'#000000'
p2401
aF11.0
aI0
aI00
aI00
aI00
aI00
aI00
aI00
aI00
aI00
aa(lp2402
I85218
aF395.4918297872341
aF72.017
ag2369
aS'nimbussanl'
p2403
aS'#000000'
p2404
aF11.0
aI0
aI00
aI00
aI00
aI00
aI00
aI00
aI00
aI00
aa(lp2405
I139844
aF410.7365957446809
aF72.017
ag2369
aS'nimbussanl'
p2406
aS'#000000'
p2407
aF11.0
aI0
aI00
aI00
aI00
aI00
aI00
aI00
aI00
aI00
aa(lp2408
I180464
aF468.7156595744682
aF72.017
ag2369
aS'nimbussanl'
p2409
aS'#000000'
p2410
aF11.0
aI0
aI00
aI00
aI00
aI00
aI00
aI00
aI00
aI00
aa(lp2411
I121528
aF90.1
aF86.017
aVp3
p2412
aS'nimbussanl'
p2413
aS'#000000'
p2414
aF11.0
aI0
aI00
aI00
aI00
aI00
aI00
aI00
aI00
aI00
aa(lp2415
I135639
aF109.44066666666666
aF86.017
ag2412
aS'nimbussanl'
p2416
aS'#000000'
p2417
aF11.0
aI0
aI00
aI00
aI00
aI00
aI00
aI00
aI00
aI00
aa(lp2418
I194354
aF119.61099999999999
aF86.017
ag2412
aS'nimbussanl'
p2419
aS'#000000'
p2420
aF11.0
aI0
aI00
aI00
aI00
aI00
aI00
aI00
aI00
aI00
aa(lp2421
I123665
aF134.3665
aF86.017
ag2412
aS'nimbussanl'
p2422
aS'#000000'
p2423
aF11.0
aI0
aI00
aI00
aI00
aI00
aI00
aI00
aI00
aI00
aa(lp2424
I234378
aF184.80333333333334
aF86.017
ag2412
aS'nimbussanl'
p2425
aS'#000000'
p2426
aF11.0
aI0
aI00
aI00
aI00
aI00
aI00
aI00
aI00
aI00
aa(lp2427
I25931
aF72.1
aF113.331
aVp3
p2428
aS'nimbussanl'
p2429
aS'#000000'
p2430
aF11.0
aI1
aI01
aI00
aI00
aI00
aI00
aI00
aI00
aI00
aa(lp2431
I234378
aF107.46742857142857
aF113.331
ag2428
aS'nimbussanl'
p2432
aS'#000000'
p2433
aF11.0
aI1
aI00
aI00
aI00
aI00
aI00
aI00
aI00
aI00
aa(lp2434
I234378
aF113.362
aF113.331
ag2428
aS'nimbussanl'
p2435
aS'#000000'
p2436
aF11.0
aI1
aI01
aI01
aI00
aI00
aI00
aI00
aI00
aI00
aa(lp2437
I27216
aF288.1
aF113.331
aVp3
p2438
aS'nimbussanl'
p2439
aS'#000000'
p2440
aF11.0
aI1
aI01
aI00
aI00
aI00
aI00
aI00
aI00
aI01
aa(lp2441
I234378
aF305.3294
aF113.331
ag2438
aS'nimbussanl'
p2442
aS'#000000'
p2443
aF11.0
aI1
aI00
aI00
aI01
aI01
aI01
aI00
aI00
aI00
aa(lp2444
I89480
aF327.96860000000004
aF113.331
ag2438
aS'nimbussanl'
p2445
aS'#000000'
p2446
aF11.0
aI1
aI00
aI00
aI00
aI00
aI00
aI00
aI00
aI00
aa(lp2447
I234378
aF339.7882
aF113.331
ag2438
aS'nimbussanl'
p2448
aS'#000000'
p2449
aF11.0
aI1
aI01
aI00
aI00
aI00
aI00
aI00
aI00
aI01
aa(lp2450
I234378
aF357.0176
aF113.331
ag2438
aS'nimbussanl'
p2451
aS'#000000'
p2452
aF11.0
aI1
aI00
aI00
aI01
aI01
aI01
aI00
aI00
aI00
aa(lp2453
I176435
aF72.1
aF127.431
aVp3
p2454
aS'nimbussanl'
p2455
aS'#000000'
p2456
aF11.0
aI1
aI01
aI00
aI00
aI00
aI00
aI00
aI00
aI00
aa(lp2457
I234378
aF94.06479999999999
aF127.431
ag2454
aS'nimbussanl'
p2458
aS'#000000'
p2459
aF11.0
aI1
aI00
aI00
aI00
aI00
aI00
aI00
aI00
aI00
aa(lp2460
I3878
aF108.1
aF127.717
aVp3
p2461
aS'nimbussanl'
p2462
aS'#000000'
p2463
aF11.0
aI0
aI01
aI00
aI00
aI00
aI00
aI00
aI00
aI00
aa(lp2464
I147316
aF160.27037037037036
aF127.717
ag2461
aS'nimbussanl'
p2465
aS'#000000'
p2466
aF11.0
aI0
aI00
aI00
aI00
aI00
aI00
aI00
aI00
aI00
aa(lp2467
I132100
aF197.08962962962963
aF127.717
ag2461
aS'nimbussanl'
p2468
aS'#000000'
p2469
aF11.0
aI0
aI00
aI00
aI00
aI00
aI00
aI00
aI00
aI00
aa(lp2470
I12878
aF72.1
aF141.631
aVp3
p2471
aS'nimbussanl'
p2472
aS'#000000'
p2473
aF11.0
aI1
aI01
aI00
aI00
aI00
aI00
aI00
aI00
aI00
aa(lp2474
I234378
aF133.32274074074073
aF141.631
ag2471
aS'nimbussanl'
p2475
aS'#000000'
p2476
aF11.0
aI1
aI00
aI00
aI00
aI00
aI00
aI00
aI00
aI00
aa(lp2477
I233063
aF139.88844444444442
aF141.631
ag2471
aS'nimbussanl'
p2478
aS'#000000'
p2479
aF11.0
aI1
aI01
aI01
aI00
aI00
aI00
aI00
aI00
aI00
aa(lp2480
I234378
aF147.4541481481481
aF141.631
ag2471
aS'nimbussanl'
p2481
aS'#000000'
p2482
aF11.0
aI1
aI00
aI00
aI00
aI00
aI00
aI00
aI00
aI00
aa(lp2483
I234378
aF154.0198518518518
aF141.631
ag2471
aS'nimbussanl'
p2484
aS'#000000'
p2485
aF11.0
aI1
aI01
aI01
aI01
aI00
aI00
aI00
aI00
aI00
aa(lp2486
I234378
aF165.7169629629629
aF141.631
ag2471
aS'nimbussanl'
p2487
aS'#000000'
p2488
aF11.0
aI1
aI00
aI00
aI00
aI00
aI00
aI00
aI00
aI00
aa(lp2489
I234378
aF177.2826666666666
aF141.631
ag2471
aS'nimbussanl'
p2490
aS'#000000'
p2491
aF11.0
aI1
aI01
aI00
aI00
aI00
aI00
aI00
aI00
aI00
aa(lp2492
I66756
aF72.1
aF155.731
aVp3
p2493
aS'nimbussanl'
p2494
aS'#000000'
p2495
aF11.0
aI1
aI01
aI00
aI00
aI00
aI00
aI00
aI00
aI00
aa(lp2496
I234378
aF130.87574999999998
aF155.731
ag2493
aS'nimbussanl'
p2497
aS'#000000'
p2498
aF11.0
aI1
aI00
aI00
aI00
aI00
aI00
aI00
aI00
aI00
aa(lp2499
I234378
aF72.1
aF169.917
aVp3
p2500
aS'nimbussanl'
p2501
aS'#000000'
p2502
aF11.0
aI0
aI01
aI00
aI00
aI00
aI00
aI00
aI00
aI00
aa(lp2503
I22474
aF110.0171
aF169.917
ag2500
aS'nimbussanl'
p2504
aS'#000000'
p2505
aF11.0
aI0
aI00
aI00
aI00
aI00
aI00
aI00
aI00
aI00
aa(lp2506
I166593
aF115.56484285714285
aF169.917
ag2500
aS'nimbussanl'
p2507
aS'#000000'
p2508
aF11.0
aI0
aI00
aI00
aI00
aI00
aI00
aI00
aI00
aI00
aa(lp2509
I154203
aF127.83871428571427
aF169.917
ag2500
aS'nimbussanl'
p2510
aS'#000000'
p2511
aF11.0
aI0
aI00
aI00
aI00
aI00
aI00
aI00
aI00
aI00
aa(lp2512
I153843
aF171.0296857142857
aF169.917
ag2500
aS'nimbussanl'
p2513
aS'#000000'
p2514
aF11.0
aI0
aI00
aI00
aI00
aI00
aI00
aI00
aI00
aI00
aa(lp2515
I234378
aF203.67291428571428
aF169.917
ag2500
aS'nimbussanl'
p2516
aS'#000000'
p2517
aF11.0
aI0
aI00
aI00
aI00
aI00
aI00
aI00
aI00
aI00
aa(lp2518
I233871
aF252.13775714285714
aF169.917
ag2500
aS'nimbussanl'
p2519
aS'#000000'
p2520
aF11.0
aI0
aI00
aI00
aI00
aI00
aI00
aI00
aI00
aI00
aa(lp2521
I135639
aF273.7809857142857
aF169.917
ag2500
aS'nimbussanl'
p2522
aS'#000000'
p2523
aF11.0
aI0
aI00
aI00
aI00
aI00
aI00
aI00
aI00
aI00
aa(lp2524
I31679
aF296.32872857142854
aF169.917
ag2500
aS'nimbussanl'
p2525
aS'#000000'
p2526
aF11.0
aI0
aI01
aI01
aI00
aI00
aI00
aI00
aI00
aI00
aa(lp2527
I234378
aF306.8764714285714
aF169.917
ag2500
aS'nimbussanl'
p2528
aS'#000000'
p2529
aF11.0
aI0
aI00
aI00
aI00
aI00
aI00
aI00
aI00
aI00
aa(lp2530
I144134
aF313.15034285714285
aF169.917
ag2500
aS'nimbussanl'
p2531
aS'#000000'
p2532
aF11.0
aI0
aI00
aI00
aI00
aI00
aI00
aI00
aI00
aI00
aa(lp2533
I176802
aF366.88905714285715
aF169.917
ag2500
aS'nimbussanl'
p2534
aS'#000000'
p2535
aF11.0
aI0
aI00
aI00
aI00
aI00
aI00
aI00
aI00
aI00
aa(lp2536
I144489
aF383.71067142857146
aF169.917
ag2500
aS'nimbussanl'
p2537
aS'#000000'
p2538
aF11.0
aI0
aI00
aI00
aI00
aI00
aI00
aI00
aI00
aI00
aa(lp2539
I194354
aF452.37
aF169.917
aVp3
p2540
aS'nimbussanl'
p2541
aS'#000000'
p2542
aF11.0
aI0
aI00
aI00
aI00
aI00
aI00
aI00
aI00
aI00
aa(lp2543
I76457
aF468.66841176470587
aF169.917
ag2540
aS'nimbussanl'
p2544
aS'#000000'
p2545
aF11.0
aI0
aI00
aI00
aI00
aI00
aI00
aI00
aI00
aI00
aa(lp2546
I234378
aF495.16576470588234
aF169.917
ag2540
aS'nimbussanl'
p2547
aS'#000000'
p2548
aF11.0
aI0
aI00
aI00
aI00
aI00
aI00
aI00
aI00
aI00
aa(lp2549
I153843
aF72.1
aF183.517
aVp3
p2550
aS'nimbussanl'
p2551
aS'#000000'
p2552
aF11.0
aI0
aI00
aI00
aI00
aI00
aI00
aI00
aI00
aI00
aa(lp2553
I234378
aF105.265
aF183.517
aVp3
p2554
aS'nimbussanl'
p2555
aS'#000000'
p2556
aF11.0
aI0
aI00
aI00
aI00
aI00
aI00
aI00
aI00
aI00
aa(lp2557
I234378
aF147.1041111111111
aF183.517
ag2554
aS'nimbussanl'
p2558
aS'#000000'
p2559
aF11.0
aI0
aI00
aI00
aI00
aI00
aI00
aI00
aI00
aI00
aa(lp2560
I234378
aF158.648
aF183.517
aVp3
p2561
aS'nimbussanl'
p2562
aS'#000000'
p2563
aF11.0
aI0
aI01
aI00
aI00
aI00
aI00
aI00
aI00
aI00
aa(lp2564
I234378
aF201.614
aF183.517
aVp3
p2565
aS'nimbussanl'
p2566
aS'#000000'
p2567
aF11.0
aI0
aI00
aI00
aI00
aI00
aI00
aI00
aI00
aI00
aa(lp2568
I234378
aF225.704
aF183.517
aVp3
p2569
aS'nimbussanl'
p2570
aS'#000000'
p2571
aF11.0
aI0
aI00
aI00
aI00
aI00
aI00
aI00
aI00
aI00
aa(lp2572
I192678
aF275.38
aF183.517
aVp3
p2573
aS'nimbussanl'
p2574
aS'#000000'
p2575
aF11.0
aI0
aI00
aI00
aI00
aI00
aI00
aI00
aI00
aI00
aa(lp2576
I135639
aF323.219
aF183.517
aVp3
p2577
aS'nimbussanl'
p2578
aS'#000000'
p2579
aF11.0
aI0
aI00
aI00
aI00
aI00
aI00
aI00
aI00
aI00
aa(lp2580
I194354
aF337.992
aF183.517
aVp3
p2581
aS'nimbussanl'
p2582
aS'#000000'
p2583
aF11.0
aI0
aI00
aI00
aI00
aI00
aI00
aI00
aI00
aI00
aa(lp2584
I166245
aF359.563
aF183.517
aVp3
p2585
aS'nimbussanl'
p2586
aS'#000000'
p2587
aF11.0
aI0
aI00
aI00
aI00
aI00
aI00
aI00
aI00
aI00
aa(lp2588
I89480
aF401.8702
aF183.517
ag2585
aS'nimbussanl'
p2589
aS'#000000'
p2590
aF11.0
aI0
aI00
aI00
aI00
aI00
aI00
aI00
aI00
aI00
aa(lp2591
I166245
aF401.197
aF183.517
ag2585
aS'nimbussanl'
p2592
aS'#000000'
p2593
aF11.0
aI0
aI00
aI00
aI00
aI00
aI00
aI00
aI00
aI00
aa(lp2594
I38691
aF469.211
aF183.517
aVp3
p2595
aS'nimbussanl'
p2596
aS'#000000'
p2597
aF11.0
aI0
aI00
aI00
aI00
aI00
aI00
aI00
aI00
aI00
aa(lp2598
I234378
aF497.44957142857146
aF183.517
ag2595
aS'nimbussanl'
p2599
aS'#000000'
p2600
aF11.0
aI0
aI00
aI00
aI00
aI00
aI00
aI00
aI00
aI00
aa(lp2601
I210520
aF508.47
aF183.517
aVp3
p2602
aS'nimbussanl'
p2603
aS'#000000'
p2604
aF11.0
aI0
aI00
aI00
aI00
aI00
aI00
aI00
aI00
aI00
aa(lp2605
I154203
aF72.1
aF197.217
aVp3
p2606
aS'nimbussanl'
p2607
aS'#000000'
p2608
aF11.0
aI0
aI00
aI00
aI00
aI00
aI00
aI00
aI00
aI00
aa(lp2609
I153843
aF127.177
aF197.217
aVp3
p2610
aS'nimbussanl'
p2611
aS'#000000'
p2612
aF11.0
aI0
aI00
aI00
aI00
aI00
aI00
aI00
aI00
aI00
aa(lp2613
I85218
aF160.738
aF197.217
aVp3
p2614
aS'nimbussanl'
p2615
aS'#000000'
p2616
aF11.0
aI0
aI00
aI00
aI00
aI00
aI00
aI00
aI00
aI00
aa(lp2617
I23917
aF185.928
aF197.217
aVp3
p2618
aS'nimbussanl'
p2619
aS'#000000'
p2620
aF11.0
aI0
aI00
aI00
aI00
aI00
aI00
aI00
aI00
aI00
aa(lp2621
I234378
aF240.301
aF197.217
aVp3
p2622
aS'nimbussanl'
p2623
aS'#000000'
p2624
aF11.0
aI0
aI00
aI00
aI00
aI00
aI00
aI00
aI00
aI00
aa(lp2625
I85218
aF281.265
aF197.217
aVp3
p2626
aS'nimbussanl'
p2627
aS'#000000'
p2628
aF11.0
aI0
aI00
aI00
aI00
aI00
aI00
aI00
aI00
aI00
aa(lp2629
I218768
aF306.345
aF197.217
aVp3
p2630
aS'nimbussanl'
p2631
aS'#000000'
p2632
aF11.0
aI0
aI00
aI00
aI00
aI00
aI00
aI00
aI00
aI00
aa(lp2633
I171360
aF346.704
aF197.217
aVp3
p2634
aS'nimbussanl'
p2635
aS'#000000'
p2636
aF11.0
aI0
aI00
aI00
aI00
aI00
aI00
aI00
aI00
aI00
aa(lp2637
I89480
aF396.292
aF197.217
aVp3
p2638
aS'nimbussanl'
p2639
aS'#000000'
p2640
aF11.0
aI0
aI00
aI00
aI00
aI00
aI00
aI00
aI00
aI00
aa(lp2641
I234378
aF412.165
aF197.217
aVp3
p2642
aS'nimbussanl'
p2643
aS'#000000'
p2644
aF11.0
aI0
aI00
aI00
aI00
aI00
aI00
aI00
aI00
aI00
aa(lp2645
I135639
aF473.952
aF197.217
aVp3
p2646
aS'nimbussanl'
p2647
aS'#000000'
p2648
aF11.0
aI0
aI00
aI00
aI00
aI00
aI00
aI00
aI00
aI00
aa(lp2649
I166593
aF489.22
aF197.217
aVp3
p2650
aS'nimbussanl'
p2651
aS'#000000'
p2652
aF11.0
aI0
aI00
aI00
aI00
aI00
aI00
aI00
aI00
aI00
aa(lp2653
I234378
aF502.09
aF197.217
aVp3
p2654
aS'nimbussanl'
p2655
aS'#000000'
p2656
aF11.0
aI0
aI00
aI00
aI00
aI00
aI00
aI00
aI00
aI00
aa(lp2657
I234378
aF72.1
aF210.817
aVp3
p2658
aS'nimbussanl'
p2659
aS'#000000'
p2660
aF11.0
aI0
aI01
aI00
aI00
aI00
aI00
aI00
aI00
aI00
aa(lp2661
I234378
aF118.22999999999999
aF210.817
ag2658
aS'nimbussanl'
p2662
aS'#000000'
p2663
aF11.0
aI0
aI00
aI00
aI00
aI00
aI00
aI00
aI00
aI00
aa(lp2664
I153843
aF128.959
aF210.817
aVp3
p2665
aS'nimbussanl'
p2666
aS'#000000'
p2667
aF11.0
aI0
aI01
aI00
aI00
aI00
aI00
aI00
aI00
aI00
aa(lp2668
I234378
aF164.324
aF210.817
aVp3
p2669
aS'nimbussanl'
p2670
aS'#000000'
p2671
aF11.0
aI0
aI00
aI00
aI00
aI00
aI00
aI00
aI00
aI00
aa(lp2672
I179418
aF204.672
aF210.817
aVp3
p2673
aS'nimbussanl'
p2674
aS'#000000'
p2675
aF11.0
aI0
aI00
aI00
aI00
aI00
aI00
aI00
aI00
aI00
aa(lp2676
I133618
aF246.846
aF210.817
aVp3
p2677
aS'nimbussanl'
p2678
aS'#000000'
p2679
aF11.0
aI0
aI00
aI00
aI00
aI00
aI00
aI00
aI00
aI00
aa(lp2680
I74911
aF291.429
aF210.817
aVp3
p2681
aS'nimbussanl'
p2682
aS'#000000'
p2683
aF11.0
aI0
aI00
aI00
aI00
aI00
aI00
aI00
aI00
aI00
aa(lp2684
I144483
aF351.852
aF210.817
aVp3
p2685
aS'nimbussanl'
p2686
aS'#000000'
p2687
aF11.0
aI0
aI00
aI00
aI00
aI00
aI00
aI00
aI00
aI00
aa(lp2688
I194354
aF370.233
aF210.817
aVp3
p2689
aS'nimbussanl'
p2690
aS'#000000'
p2691
aF11.0
aI0
aI00
aI00
aI00
aI00
aI00
aI00
aI00
aI00
aa(lp2692
I7520
aF391.617
aF210.817
aVp3
p2693
aS'nimbussanl'
p2694
aS'#000000'
p2695
aF11.0
aI0
aI00
aI00
aI00
aI00
aI00
aI00
aI00
aI00
aa(lp2696
I153843
aF439.907
aF210.817
aVp3
p2697
aS'nimbussanl'
p2698
aS'#000000'
p2699
aF11.0
aI0
aI00
aI00
aI00
aI00
aI00
aI00
aI00
aI00
aa(lp2700
I85218
aF472.863
aF210.817
aVp3
p2701
aS'nimbussanl'
p2702
aS'#000000'
p2703
aF11.0
aI0
aI00
aI00
aI00
aI00
aI00
aI00
aI00
aI00
aa(lp2704
I127730
aF497.25
aF210.817
aVp3
p2705
aS'nimbussanl'
p2706
aS'#000000'
p2707
aF11.0
aI0
aI00
aI00
aI00
aI00
aI00
aI00
aI00
aI00
aa(lp2708
I152070
aF72.1
aF224.517
aVp3
p2709
aS'nimbussanl'
p2710
aS'#000000'
p2711
aF11.0
aI0
aI00
aI00
aI00
aI00
aI00
aI00
aI00
aI00
aa(lp2712
I144489
aF106.15944444444443
aF224.517
ag2709
aS'nimbussanl'
p2713
aS'#000000'
p2714
aF11.0
aI0
aI00
aI00
aI00
aI00
aI00
aI00
aI00
aI00
aa(lp2715
I234378
aF116.60499999999999
aF224.517
ag2709
aS'nimbussanl'
p2716
aS'#000000'
p2717
aF11.0
aI0
aI00
aI00
aI00
aI00
aI00
aI00
aI00
aI00
aa(lp2718
I234378
aF168.55555555555554
aF224.517
ag2709
aS'nimbussanl'
p2719
aS'#000000'
p2720
aF11.0
aI0
aI00
aI00
aI00
aI00
aI00
aI00
aI00
aI00
aa(lp2721
I234378
aF174.2783333333333
aF224.517
ag2709
aS'nimbussanl'
p2722
aS'#000000'
p2723
aF11.0
aI0
aI00
aI00
aI00
aI00
aI00
aI00
aI00
aI00
aa(lp2724
I30174
aF222.5061111111111
aF224.517
ag2709
aS'nimbussanl'
p2725
aS'#000000'
p2726
aF11.0
aI0
aI00
aI00
aI00
aI00
aI00
aI00
aI00
aI00
aa(lp2727
I193973
aF237.67444444444442
aF224.517
ag2709
aS'nimbussanl'
p2728
aS'#000000'
p2729
aF11.0
aI0
aI00
aI00
aI00
aI00
aI00
aI00
aI00
aI00
aa(lp2730
I62551
aF257.56555555555553
aF224.517
ag2709
aS'nimbussanl'
p2731
aS'#000000'
p2732
aF11.0
aI0
aI00
aI00
aI00
aI00
aI00
aI00
aI00
aI00
aa(lp2733
I234378
aF277.45666666666665
aF224.517
ag2709
aS'nimbussanl'
p2734
aS'#000000'
p2735
aF11.0
aI0
aI00
aI00
aI00
aI00
aI00
aI00
aI00
aI00
aa(lp2736
I89347
aF311.5161111111111
aF224.517
ag2709
aS'nimbussanl'
p2737
aS'#000000'
p2738
aF11.0
aI0
aI00
aI00
aI00
aI00
aI00
aI00
aI00
aI00
aa(lp2739
I234378
aF355.0211111111111
aF224.517
ag2709
aS'nimbussanl'
p2740
aS'#000000'
p2741
aF11.0
aI0
aI00
aI00
aI00
aI00
aI00
aI00
aI00
aI00
aa(lp2742
I162177
aF407.9716666666667
aF224.517
ag2709
aS'nimbussanl'
p2743
aS'#000000'
p2744
aF11.0
aI0
aI00
aI00
aI00
aI00
aI00
aI00
aI00
aI00
aa(lp2745
I16331
aF427.8627777777778
aF224.517
ag2709
aS'nimbussanl'
p2746
aS'#000000'
p2747
aF11.0
aI0
aI00
aI00
aI00
aI00
aI00
aI00
aI00
aI00
aa(lp2748
I27006
aF438.30833333333334
aF224.517
ag2709
aS'nimbussanl'
p2749
aS'#000000'
p2750
aF11.0
aI0
aI00
aI00
aI00
aI00
aI00
aI00
aI00
aI00
aa(lp2751
I234378
aF467.645
aF224.517
ag2709
aS'nimbussanl'
p2752
aS'#000000'
p2753
aF11.0
aI0
aI00
aI00
aI00
aI00
aI00
aI00
aI00
aI00
aa(lp2754
I144503
aF72.1
aF238.117
aVp3
p2755
aS'nimbussanl'
p2756
aS'#000000'
p2757
aF11.0
aI0
aI00
aI00
aI00
aI00
aI00
aI00
aI00
aI00
aa(lp2758
I9187
aF82.68389473684209
aF238.117
ag2755
aS'nimbussanl'
p2759
aS'#000000'
p2760
aF11.0
aI0
aI00
aI00
aI00
aI00
aI00
aI00
aI00
aI00
aa(lp2761
I166593
aF116.01947368421051
aF238.117
ag2755
aS'nimbussanl'
p2762
aS'#000000'
p2763
aF11.0
aI0
aI00
aI00
aI00
aI00
aI00
aI00
aI00
aI00
aa(lp2764
I104866
aF127.81142105263156
aF238.117
ag2755
aS'nimbussanl'
p2765
aS'#000000'
p2766
aF11.0
aI0
aI00
aI00
aI00
aI00
aI00
aI00
aI00
aI00
aa(lp2767
I234378
aF146.97921052631577
aF238.117
ag2755
aS'nimbussanl'
p2768
aS'#000000'
p2769
aF11.0
aI0
aI00
aI00
aI00
aI00
aI00
aI00
aI00
aI00
aa(lp2770
I234378
aF72.1
aF265.431
aVp3
p2771
aS'nimbussanl'
p2772
aS'#000000'
p2773
aF11.0
aI1
aI01
aI00
aI00
aI00
aI00
aI00
aI00
aI00
aa(lp2774
I234378
aF101.5
aF265.431
ag2771
aS'nimbussanl'
p2775
aS'#000000'
p2776
aF11.0
aI1
aI01
aI00
aI00
aI00
aI00
aI00
aI00
aI00
aa(lp2777
I234378
aF185.98000000000002
aF265.431
ag2771
aS'nimbussanl'
p2778
aS'#000000'
p2779
aF11.0
aI1
aI00
aI00
aI00
aI00
aI00
aI00
aI00
aI00
aa(lp2780
I234378
aF90.1
aF279.617
aVp3
p2781
aS'nimbussanl'
p2782
aS'#000000'
p2783
aF11.0
aI0
aI01
aI00
aI00
aI00
aI00
aI00
aI00
aI00
aa(lp2784
I194354
aF131.1448888888889
aF279.617
ag2781
aS'nimbussanl'
p2785
aS'#000000'
p2786
aF11.0
aI0
aI00
aI00
aI00
aI00
aI00
aI00
aI00
aI00
aa(lp2787
I199246
aF147.1617222222222
aF279.617
ag2781
aS'nimbussanl'
p2788
aS'#000000'
p2789
aF11.0
aI0
aI00
aI00
aI00
aI00
aI00
aI00
aI00
aI00
aa(lp2790
I144489
aF198.21783333333332
aF279.617
ag2781
aS'nimbussanl'
p2791
aS'#000000'
p2792
aF11.0
aI0
aI00
aI00
aI00
aI00
aI00
aI00
aI00
aI00
aa(lp2793
I234378
aF209.22905555555553
aF279.617
ag2781
aS'nimbussanl'
p2794
aS'#000000'
p2795
aF11.0
aI0
aI00
aI00
aI00
aI00
aI00
aI00
aI00
aI00
aa(lp2796
I85218
aF230.25149999999996
aF279.617
ag2781
aS'nimbussanl'
p2797
aS'#000000'
p2798
aF11.0
aI0
aI00
aI00
aI00
aI00
aI00
aI00
aI00
aI00
aa(lp2799
I40515
aF246.2683333333333
aF279.617
ag2781
aS'nimbussanl'
p2800
aS'#000000'
p2801
aF11.0
aI0
aI00
aI00
aI00
aI00
aI00
aI00
aI00
aI00
aa(lp2802
I224923
aF277.30199999999996
aF279.617
ag2781
aS'nimbussanl'
p2803
aS'#000000'
p2804
aF11.0
aI0
aI00
aI00
aI00
aI00
aI00
aI00
aI00
aI00
aa(lp2805
I234378
aF327.3581111111111
aF279.617
ag2781
aS'nimbussanl'
p2806
aS'#000000'
p2807
aF11.0
aI0
aI00
aI00
aI00
aI00
aI00
aI00
aI00
aI00
aa(lp2808
I234378
aF90.1
aF293.517
aVp3
p2809
aS'nimbussanl'
p2810
aS'#000000'
p2811
aF11.0
aI0
aI01
aI00
aI00
aI00
aI00
aI00
aI00
aI00
aa(lp2812
I234378
aF138.32756756756757
aF293.517
ag2809
aS'nimbussanl'
p2813
aS'#000000'
p2814
aF11.0
aI0
aI00
aI00
aI00
aI00
aI00
aI00
aI00
aI00
aa(lp2815
I234378
aF143.15032432432432
aF293.517
ag2809
aS'nimbussanl'
p2816
aS'#000000'
p2817
aF11.0
aI0
aI00
aI00
aI00
aI00
aI00
aI00
aI00
aI00
aa(lp2818
I234378
aF180.3778918918919
aF293.517
ag2809
aS'nimbussanl'
p2819
aS'#000000'
p2820
aF11.0
aI0
aI00
aI00
aI00
aI00
aI00
aI00
aI00
aI00
aa(lp2821
I180924
aF196.20064864864864
aF293.517
ag2809
aS'nimbussanl'
p2822
aS'#000000'
p2823
aF11.0
aI0
aI00
aI00
aI00
aI00
aI00
aI00
aI00
aI00
aa(lp2824
I234378
aF203.31443243243243
aF293.517
ag2809
aS'nimbussanl'
p2825
aS'#000000'
p2826
aF11.0
aI0
aI00
aI00
aI00
aI00
aI00
aI00
aI00
aI00
aa(lp2827
I22320
aF225.13718918918917
aF293.517
ag2809
aS'nimbussanl'
p2828
aS'#000000'
p2829
aF11.0
aI0
aI00
aI00
aI00
aI00
aI00
aI00
aI00
aI00
aa(lp2830
I234378
aF245.42821621621619
aF293.517
ag2809
aS'nimbussanl'
p2831
aS'#000000'
p2832
aF11.0
aI0
aI00
aI00
aI00
aI00
aI00
aI00
aI00
aI00
aa(lp2833
I234378
aF90.1
aF307.517
aVp3
p2834
aS'nimbussanl'
p2835
aS'#000000'
p2836
aF11.0
aI0
aI01
aI00
aI00
aI00
aI00
aI00
aI00
aI00
aa(lp2837
I194354
aF140.91574074074074
aF307.517
ag2834
aS'nimbussanl'
p2838
aS'#000000'
p2839
aF11.0
aI0
aI00
aI00
aI00
aI00
aI00
aI00
aI00
aI00
aa(lp2840
I234378
aF156.86046296296297
aF307.517
ag2834
aS'nimbussanl'
p2841
aS'#000000'
p2842
aF11.0
aI0
aI00
aI00
aI00
aI00
aI00
aI00
aI00
aI00
aa(lp2843
I135639
aF180.71305555555557
aF307.517
ag2834
aS'nimbussanl'
p2844
aS'#000000'
p2845
aF11.0
aI0
aI00
aI00
aI00
aI00
aI00
aI00
aI00
aI00
aa(lp2846
I194354
aF192.67620370370372
aF307.517
ag2834
aS'nimbussanl'
p2847
aS'#000000'
p2848
aF11.0
aI0
aI00
aI00
aI00
aI00
aI00
aI00
aI00
aI00
aa(lp2849
I3878
aF224.62092592592595
aF307.517
ag2834
aS'nimbussanl'
p2850
aS'#000000'
p2851
aF11.0
aI0
aI00
aI00
aI00
aI00
aI00
aI00
aI00
aI00
aa(lp2852
I12878
aF275.43666666666667
aF307.517
ag2834
aS'nimbussanl'
p2853
aS'#000000'
p2854
aF11.0
aI0
aI00
aI00
aI00
aI00
aI00
aI00
aI00
aI00
aa(lp2855
I234378
aF330.23398148148146
aF307.517
ag2834
aS'nimbussanl'
p2856
aS'#000000'
p2857
aF11.0
aI0
aI00
aI00
aI00
aI00
aI00
aI00
aI00
aI00
aa(lp2858
I105322
aF90.1
aF321.417
aVp3
p2859
aS'nimbussanl'
p2860
aS'#000000'
p2861
aF11.0
aI0
aI01
aI00
aI00
aI00
aI00
aI00
aI00
aI00
aa(lp2862
I135639
aF128.66866666666667
aF321.417
ag2859
aS'nimbussanl'
p2863
aS'#000000'
p2864
aF11.0
aI0
aI00
aI00
aI00
aI00
aI00
aI00
aI00
aI00
aa(lp2865
I234378
aF139.06083333333333
aF321.417
ag2859
aS'nimbussanl'
p2866
aS'#000000'
p2867
aF11.0
aI0
aI00
aI00
aI00
aI00
aI00
aI00
aI00
aI00
aa(lp2868
I144489
aF187.02166666666668
aF321.417
ag2859
aS'nimbussanl'
p2869
aS'#000000'
p2870
aF11.0
aI0
aI00
aI00
aI00
aI00
aI00
aI00
aI00
aI00
aa(lp2871
I121847
aF197.41383333333334
aF321.417
ag2859
aS'nimbussanl'
p2872
aS'#000000'
p2873
aF11.0
aI0
aI00
aI00
aI00
aI00
aI00
aI00
aI00
aI00
aa(lp2874
I234378
aF217.19816666666668
aF321.417
ag2859
aS'nimbussanl'
p2875
aS'#000000'
p2876
aF11.0
aI0
aI00
aI00
aI00
aI00
aI00
aI00
aI00
aI00
aa(lp2877
I135639
aF221.07075
aF321.417
ag2859
aS'nimbussanl'
p2878
aS'#000000'
p2879
aF11.0
aI0
aI00
aI00
aI00
aI00
aI00
aI00
aI00
aI00
aa(lp2880
I234378
aF261.4629166666667
aF321.417
ag2859
aS'nimbussanl'
p2881
aS'#000000'
p2882
aF11.0
aI0
aI00
aI00
aI00
aI00
aI00
aI00
aI00
aI00
aa(lp2883
I195166
aF304.72766666666666
aF321.417
ag2859
aS'nimbussanl'
p2884
aS'#000000'
p2885
aF11.0
aI0
aI00
aI00
aI00
aI00
aI00
aI00
aI00
aI00
aa(lp2886
I234378
aF90.1
aF335.417
aVp3
p2887
aS'nimbussanl'
p2888
aS'#000000'
p2889
aF11.0
aI0
aI01
aI01
aI00
aI00
aI00
aI00
aI00
aI00
aa(lp2890
I125078
aF101.21393103448275
aF335.417
ag2887
aS'nimbussanl'
p2891
aS'#000000'
p2892
aF11.0
aI0
aI00
aI00
aI00
aI00
aI00
aI00
aI00
aI00
aa(lp2893
I184870
aF137.6126896551724
aF335.417
ag2887
aS'nimbussanl'
p2894
aS'#000000'
p2895
aF11.0
aI0
aI00
aI00
aI00
aI00
aI00
aI00
aI00
aI00
aa(lp2896
I121847
aF158.01144827586205
aF335.417
ag2887
aS'nimbussanl'
p2897
aS'#000000'
p2898
aF11.0
aI0
aI00
aI00
aI00
aI00
aI00
aI00
aI00
aI00
aa(lp2899
I234378
aF195.23931034482757
aF335.417
ag2887
aS'nimbussanl'
p2900
aS'#000000'
p2901
aF11.0
aI0
aI01
aI00
aI00
aI00
aI00
aI00
aI00
aI00
aa(lp2902
I118045
aF72.1
aF375.031
aVp3
p2903
aS'nimbussanl'
p2904
aS'#000000'
p2905
aF11.0
aI1
aI01
aI01
aI00
aI00
aI00
aI00
aI00
aI00
aa(lp2906
I234378
aF126.21533333333332
aF375.031
ag2903
aS'nimbussanl'
p2907
aS'#000000'
p2908
aF11.0
aI1
aI01
aI01
aI00
aI00
aI00
aI00
aI00
aI00
aa(lp2909
I234378
aF219.16716666666665
aF375.031
ag2903
aS'nimbussanl'
p2910
aS'#000000'
p2911
aF11.0
aI1
aI00
aI00
aI00
aI00
aI00
aI00
aI00
aI00
aa(lp2912
I27780
aF71.4
aF403.331
aVp3
p2913
aS'nimbussanl'
p2914
aS'#000000'
p2915
aF11.0
aI1
aI01
aI01
aI00
aI00
aI00
aI00
aI00
aI00
aa(lp2916
I234378
aF77.09311111111111
aF403.331
ag2913
aS'nimbussanl'
p2917
aS'#000000'
p2918
aF11.0
aI1
aI00
aI00
aI00
aI00
aI00
aI00
aI00
aI00
aa(lp2919
I64620
aF82.78622222222222
aF403.331
ag2913
aS'nimbussanl'
p2920
aS'#000000'
p2921
aF11.0
aI1
aI01
aI01
aI00
aI00
aI00
aI00
aI00
aI00
aa(lp2922
I234378
aF89.47933333333333
aF403.331
ag2913
aS'nimbussanl'
p2923
aS'#000000'
p2924
aF11.0
aI1
aI00
aI00
aI00
aI00
aI00
aI00
aI00
aI00
aa(lp2925
I234378
aF95.17244444444444
aF403.331
ag2913
aS'nimbussanl'
p2926
aS'#000000'
p2927
aF11.0
aI1
aI01
aI01
aI00
aI00
aI00
aI00
aI00
aI00
aa(lp2928
I234378
aF112.25177777777778
aF403.331
ag2913
aS'nimbussanl'
p2929
aS'#000000'
p2930
aF11.0
aI1
aI00
aI00
aI00
aI00
aI00
aI00
aI00
aI00
aa(lp2931
I233063
aF151.6
aF403.317
aVp3
p2932
aS'nimbussanl'
p2933
aS'#000000'
p2934
aF11.0
aI0
aI01
aI01
aI00
aI00
aI00
aI00
aI00
aI00
aa(lp2935
I234378
aF157.078
aF403.317
ag2932
aS'nimbussanl'
p2936
aS'#000000'
p2937
aF11.0
aI0
aI00
aI00
aI00
aI00
aI00
aI00
aI00
aI00
aa(lp2938
I234378
aF169.684
aF403.317
aVp3
p2939
aS'nimbussanl'
p2940
aS'#000000'
p2941
aF11.0
aI0
aI01
aI00
aI00
aI00
aI00
aI00
aI00
aI00
aa(lp2942
I180287
aF204.873
aF403.317
aVp3
p2943
aS'nimbussanl'
p2944
aS'#000000'
p2945
aF11.0
aI0
aI01
aI00
aI00
aI00
aI00
aI00
aI00
aI00
aa(lp2946
I41479
aF252.866
aF403.317
aVp3
p2947
aS'nimbussanl'
p2948
aS'#000000'
p2949
aF11.0
aI0
aI01
aI00
aI00
aI00
aI00
aI00
aI00
aI00
aa(lp2950
I144489
aF297.141
aF403.317
aVp3
p2951
aS'nimbussanl'
p2952
aS'#000000'
p2953
aF11.0
aI0
aI00
aI00
aI00
aI00
aI00
aI00
aI00
aI00
aa(lp2954
I199937
aF313.432
aF403.317
aVp3
p2955
aS'nimbussanl'
p2956
aS'#000000'
p2957
aF11.0
aI0
aI01
aI00
aI00
aI00
aI00
aI00
aI00
aI00
aa(lp2958
I85218
aF151.6
aF417.017
aVp3
p2959
aS'nimbussanl'
p2960
aS'#000000'
p2961
aF11.0
aI0
aI00
aI00
aI00
aI00
aI00
aI00
aI00
aI00
aa(lp2962
I234378
aF168.052
aF417.017
ag2959
aS'nimbussanl'
p2963
aS'#000000'
p2964
aF11.0
aI0
aI01
aI00
aI00
aI00
aI00
aI00
aI00
aI00
aa(lp2965
I234378
aF229.86
aF417.017
ag2959
aS'nimbussanl'
p2966
aS'#000000'
p2967
aF11.0
aI0
aI00
aI00
aI00
aI00
aI00
aI00
aI00
aI00
aa(lp2968
I116303
aF236.01066666666668
aF417.017
ag2959
aS'nimbussanl'
p2969
aS'#000000'
p2970
aF11.0
aI0
aI01
aI00
aI00
aI00
aI00
aI00
aI00
aI00
aa(lp2971
I153079
aF257.61333333333334
aF417.017
ag2959
aS'nimbussanl'
p2972
aS'#000000'
p2973
aF11.0
aI0
aI01
aI00
aI00
aI00
aI00
aI00
aI00
aI00
aa(lp2974
I234378
aF383.1
aF403.331
aVp3
p2975
aS'nimbussanl'
p2976
aS'#000000'
p2977
aF11.0
aI1
aI00
aI00
aI00
aI00
aI00
aI00
aI00
aI00
aa(lp2978
I234378
aF388.543
aF403.331
ag2975
aS'nimbussanl'
p2979
aS'#000000'
p2980
aF11.0
aI1
aI00
aI00
aI01
aI01
aI01
aI00
aI00
aI00
aa(lp2981
I234378
aF411.315
aF403.331
ag2975
aS'nimbussanl'
p2982
aS'#000000'
p2983
aF11.0
aI1
aI00
aI00
aI01
aI01
aI01
aI00
aI00
aI00
aa(lp2984
I234378
aF433.087
aF403.331
ag2975
aS'nimbussanl'
p2985
aS'#000000'
p2986
aF11.0
aI1
aI00
aI00
aI00
aI00
aI00
aI00
aI00
aI00
aa(lp2987
I234378
aF485.0
aF403.331
aVp3
p2988
aS'nimbussanl'
p2989
aS'#000000'
p2990
aF11.0
aI1
aI00
aI00
aI01
aI01
aI01
aI00
aI00
aI00
aa(lp2991
I40824
aF71.4
aF431.131
aVp3
p2992
aS'nimbussanl'
p2993
aS'#000000'
p2994
aF11.0
aI1
aI01
aI00
aI00
aI00
aI00
aI00
aI00
aI00
aa(lp2995
I48815
aF96.5505
aF431.131
ag2992
aS'nimbussanl'
p2996
aS'#000000'
p2997
aF11.0
aI1
aI01
aI00
aI00
aI00
aI00
aI00
aI00
aI00
aa(lp2998
I25058
aF151.6
aF431.117
aVp3
p2999
aS'nimbussanl'
p3000
aS'#000000'
p3001
aF11.0
aI0
aI01
aI00
aI00
aI00
aI00
aI00
aI00
aI00
aa(lp3002
I13387
aF200.176
aF431.117
aVp3
p3003
aS'nimbussanl'
p3004
aS'#000000'
p3005
aF11.0
aI0
aI01
aI00
aI00
aI00
aI00
aI00
aI00
aI00
aa(lp3006
I96401
aF240.854
aF431.117
aVp3
p3007
aS'nimbussanl'
p3008
aS'#000000'
p3009
aF11.0
aI0
aI01
aI00
aI00
aI00
aI00
aI00
aI00
aI00
aa(lp3010
I186485
aF301.629
aF431.117
aVp3
p3011
aS'nimbussanl'
p3012
aS'#000000'
p3013
aF11.0
aI0
aI01
aI00
aI00
aI00
aI00
aI00
aI00
aI00
aa(lp3014
I234378
aF333.0544285714286
aF431.117
ag3011
aS'nimbussanl'
p3015
aS'#000000'
p3016
aF11.0
aI0
aI00
aI00
aI00
aI00
aI00
aI00
aI00
aI00
aa(lp3017
I70647
aF346.608
aF431.117
aVp3
p3018
aS'nimbussanl'
p3019
aS'#000000'
p3020
aF11.0
aI0
aI01
aI00
aI00
aI00
aI00
aI00
aI00
aI00
aa(lp3021
I150812
aF151.6
aF444.817
aVp3
p3022
aS'nimbussanl'
p3023
aS'#000000'
p3024
aF11.0
aI0
aI01
aI00
aI00
aI00
aI00
aI00
aI00
aI00
aa(lp3025
I234378
aF383.1
aF431.131
aVp3
p3026
aS'nimbussanl'
p3027
aS'#000000'
p3028
aF11.0
aI1
aI00
aI00
aI00
aI00
aI00
aI00
aI00
aI00
aa(lp3029
I234378
aF388.3946666666667
aF431.131
ag3026
aS'nimbussanl'
p3030
aS'#000000'
p3031
aF11.0
aI1
aI00
aI00
aI01
aI01
aI01
aI00
aI00
aI00
aa(lp3032
I234378
aF409.5733333333334
aF431.131
ag3026
aS'nimbussanl'
p3033
aS'#000000'
p3034
aF11.0
aI1
aI00
aI00
aI00
aI00
aI00
aI00
aI00
aI00
aa(lp3035
I234378
aF485.0
aF431.131
aVp3
p3036
aS'nimbussanl'
p3037
aS'#000000'
p3038
aF11.0
aI1
aI00
aI00
aI01
aI01
aI01
aI00
aI00
aI00
aa(lp3039
I234378
aF71.4
aF458.931
aVp3
p3040
aS'nimbussanl'
p3041
aS'#000000'
p3042
aF11.0
aI1
aI00
aI00
aI01
aI01
aI01
aI00
aI00
aI00
aa(lp3043
I89483
aF83.7
aF458.934
aVp3
p3044
aS'nimbussanl'
p3045
aS'#000000'
p3046
aF6.4
aI1
aI00
aI00
aI00
aI00
aI00
aI00
aI00
aI00
aa(lp3047
I234378
aF151.6
aF458.917
aVp3
p3048
aS'nimbussanl'
p3049
aS'#000000'
p3050
aF11.0
aI0
aI01
aI00
aI00
aI00
aI00
aI00
aI00
aI00
aa(lp3051
I13387
aF192.12959999999998
aF458.917
ag3048
aS'nimbussanl'
p3052
aS'#000000'
p3053
aF11.0
aI0
aI01
aI00
aI00
aI00
aI00
aI00
aI00
aI00
aa(lp3054
I186485
aF222.77679999999998
aF458.917
ag3048
aS'nimbussanl'
p3055
aS'#000000'
p3056
aF11.0
aI0
aI01
aI00
aI00
aI00
aI00
aI00
aI00
aI00
aa(lp3057
I234378
aF252.42399999999998
aF458.917
ag3048
aS'nimbussanl'
p3058
aS'#000000'
p3059
aF11.0
aI0
aI00
aI00
aI00
aI00
aI00
aI00
aI00
aI00
aa(lp3060
I70647
aF258.36519999999996
aF458.917
ag3048
aS'nimbussanl'
p3061
aS'#000000'
p3062
aF11.0
aI0
aI01
aI00
aI00
aI00
aI00
aI00
aI00
aI00
aa(lp3063
I150812
aF284.0712
aF458.917
ag3048
aS'nimbussanl'
p3064
aS'#000000'
p3065
aF11.0
aI0
aI01
aI00
aI00
aI00
aI00
aI00
aI00
aI00
aa(lp3066
I234378
aF383.1
aF458.931
aVp3
p3067
aS'nimbussanl'
p3068
aS'#000000'
p3069
aF11.0
aI1
aI00
aI00
aI00
aI00
aI00
aI00
aI00
aI00
aa(lp3070
I234378
aF388.3946666666667
aF458.931
ag3067
aS'nimbussanl'
p3071
aS'#000000'
p3072
aF11.0
aI1
aI00
aI00
aI01
aI01
aI01
aI00
aI00
aI00
aa(lp3073
I234378
aF409.5733333333334
aF458.931
ag3067
aS'nimbussanl'
p3074
aS'#000000'
p3075
aF11.0
aI1
aI00
aI00
aI00
aI00
aI00
aI00
aI00
aI00
aa(lp3076
I234378
aF485.0
aF458.931
aVp3
p3077
aS'nimbussanl'
p3078
aS'#000000'
p3079
aF11.0
aI1
aI00
aI00
aI01
aI01
aI01
aI00
aI00
aI00
aa(lp3080
I177098
aF72.1
aF497.231
aVp3
p3081
aS'nimbussanl'
p3082
aS'#000000'
p3083
aF11.0
aI1
aI01
aI00
aI00
aI00
aI00
aI00
aI00
aI00
aa(lp3084
I234378
aF151.123
aF497.231
ag3081
aS'nimbussanl'
p3085
aS'#000000'
p3086
aF11.0
aI1
aI01
aI00
aI00
aI00
aI00
aI00
aI00
aI00
aa(lp3087
I234378
aF217.99985714285714
aF497.231
ag3081
aS'nimbussanl'
p3088
aS'#000000'
p3089
aF11.0
aI1
aI00
aI00
aI00
aI00
aI00
aI00
aI00
aI00
aa(lp3090
I234378
aF223.57292857142858
aF497.231
ag3081
aS'nimbussanl'
p3091
aS'#000000'
p3092
aF11.0
aI1
aI01
aI00
aI00
aI00
aI00
aI00
aI00
aI00
aa(lp3093
I234378
aF296.02285714285716
aF497.231
ag3081
aS'nimbussanl'
p3094
aS'#000000'
p3095
aF11.0
aI1
aI00
aI00
aI00
aI00
aI00
aI00
aI00
aI00
aa(lp3096
I165174
aF90.1
aF511.417
aVp3
p3097
aS'nimbussanl'
p3098
aS'#000000'
p3099
aF11.0
aI0
aI01
aI00
aI00
aI00
aI00
aI00
aI00
aI00
aa(lp3100
I147603
aF131.08858426966293
aF511.417
ag3097
aS'nimbussanl'
p3101
aS'#000000'
p3102
aF11.0
aI0
aI01
aI01
aI00
aI00
aI00
aI00
aI00
aI00
aa(lp3103
I150251
aF152.08287640449439
aF511.417
ag3097
aS'nimbussanl'
p3104
aS'#000000'
p3105
aF11.0
aI0
aI00
aI00
aI00
aI00
aI00
aI00
aI00
aI00
aa(lp3106
I190806
aF178.07574157303372
aF511.417
ag3097
aS'nimbussanl'
p3107
aS'#000000'
p3108
aF11.0
aI0
aI00
aI00
aI00
aI00
aI00
aI00
aI00
aI00
aa(lp3109
I234378
aF194.07146067415732
aF511.417
ag3097
aS'nimbussanl'
p3110
aS'#000000'
p3111
aF11.0
aI0
aI00
aI00
aI00
aI00
aI00
aI00
aI00
aI00
aa(lp3112
I51933
aF245.05719101123597
aF511.417
ag3097
aS'nimbussanl'
p3113
aS'#000000'
p3114
aF11.0
aI0
aI00
aI00
aI00
aI00
aI00
aI00
aI00
aI00
aa(lp3115
I135639
aF257.0514831460674
aF511.417
ag3097
aS'nimbussanl'
p3116
aS'#000000'
p3117
aF11.0
aI0
aI00
aI00
aI00
aI00
aI00
aI00
aI00
aI00
aa(lp3118
I188458
aF277.04862921348314
aF511.417
ag3097
aS'nimbussanl'
p3119
aS'#000000'
p3120
aF11.0
aI0
aI00
aI00
aI00
aI00
aI00
aI00
aI00
aI00
aa(lp3121
I178246
aF303.04149438202245
aF511.417
ag3097
aS'nimbussanl'
p3122
aS'#000000'
p3123
aF11.0
aI0
aI00
aI00
aI00
aI00
aI00
aI00
aI00
aI00
aa(lp3124
I144489
aF324.03578651685393
aF511.417
ag3097
aS'nimbussanl'
p3125
aS'#000000'
p3126
aF11.0
aI0
aI00
aI00
aI00
aI00
aI00
aI00
aI00
aI00
aa(lp3127
I230071
aF335.03293258426964
aF511.417
ag3097
aS'nimbussanl'
p3128
aS'#000000'
p3129
aF11.0
aI0
aI00
aI00
aI00
aI00
aI00
aI00
aI00
aI00
aa(lp3130
I77790
aF356.0272247191011
aF511.417
ag3097
aS'nimbussanl'
p3131
aS'#000000'
p3132
aF11.0
aI0
aI00
aI00
aI00
aI00
aI00
aI00
aI00
aI00
aa(lp3133
I135639
aF357.01580898876404
aF511.417
ag3097
aS'nimbussanl'
p3134
aS'#000000'
p3135
aF11.0
aI0
aI00
aI00
aI00
aI00
aI00
aI00
aI00
aI00
aa(lp3136
I80364
aF408.01295505617975
aF511.417
ag3097
aS'nimbussanl'
p3137
aS'#000000'
p3138
aF11.0
aI0
aI00
aI00
aI00
aI00
aI00
aI00
aI00
aI00
aa(lp3139
I43052
aF424.00867415730335
aF511.417
ag3097
aS'nimbussanl'
p3140
aS'#000000'
p3141
aF11.0
aI0
aI00
aI00
aI00
aI00
aI00
aI00
aI00
aI00
aa(lp3142
I234378
aF473.994404494382
aF511.417
ag3097
aS'nimbussanl'
p3143
aS'#000000'
p3144
aF11.0
aI0
aI00
aI00
aI00
aI00
aI00
aI00
aI00
aI00
aa(lp3145
I234378
aF90.1
aF525.317
aVp3
p3146
aS'nimbussanl'
p3147
aS'#000000'
p3148
aF11.0
aI0
aI01
aI00
aI00
aI00
aI00
aI00
aI00
aI00
aa(lp3149
I16331
aF146.3773023255814
aF525.317
ag3146
aS'nimbussanl'
p3150
aS'#000000'
p3151
aF11.0
aI0
aI00
aI00
aI00
aI00
aI00
aI00
aI00
aI00
aa(lp3152
I29119
aF158.42772093023257
aF525.317
ag3146
aS'nimbussanl'
p3153
aS'#000000'
p3154
aF11.0
aI0
aI01
aI00
aI00
aI00
aI00
aI00
aI00
aI00
aa(lp3155
I234378
aF194.60418604651164
aF525.317
ag3146
aS'nimbussanl'
p3156
aS'#000000'
p3157
aF11.0
aI0
aI00
aI00
aI00
aI00
aI00
aI00
aI00
aI00
aa(lp3158
I190806
aF226.75544186046514
aF525.317
ag3146
aS'nimbussanl'
p3159
aS'#000000'
p3160
aF11.0
aI0
aI00
aI00
aI00
aI00
aI00
aI00
aI00
aI00
aa(lp3161
I234378
aF242.83106976744187
aF525.317
ag3146
aS'nimbussanl'
p3162
aS'#000000'
p3163
aF11.0
aI0
aI00
aI00
aI00
aI00
aI00
aI00
aI00
aI00
aa(lp3164
I194354
aF294.0831627906977
aF525.317
ag3146
aS'nimbussanl'
p3165
aS'#000000'
p3166
aF11.0
aI0
aI00
aI00
aI00
aI00
aI00
aI00
aI00
aI00
aa(lp3167
I108443
aF310.1587906976745
aF525.317
ag3146
aS'nimbussanl'
p3168
aS'#000000'
p3169
aF11.0
aI0
aI00
aI00
aI00
aI00
aI00
aI00
aI00
aI00
aa(lp3170
I123665
aF341.31004651162795
aF525.317
ag3146
aS'nimbussanl'
p3171
aS'#000000'
p3172
aF11.0
aI0
aI00
aI00
aI00
aI00
aI00
aI00
aI00
aI00
aa(lp3173
I135639
aF370.58734883720933
aF525.317
ag3146
aS'nimbussanl'
p3174
aS'#000000'
p3175
aF11.0
aI0
aI00
aI00
aI00
aI00
aI00
aI00
aI00
aI00
aa(lp3176
I194354
aF382.6377674418605
aF525.317
ag3146
aS'nimbussanl'
p3177
aS'#000000'
p3178
aF11.0
aI0
aI00
aI00
aI00
aI00
aI00
aI00
aI00
aI00
aa(lp3179
I234378
aF424.71339534883725
aF525.317
ag3146
aS'nimbussanl'
p3180
aS'#000000'
p3181
aF11.0
aI0
aI00
aI00
aI00
aI00
aI00
aI00
aI00
aI00
aa(lp3182
I230071
aF90.1
aF539.317
aVp3
p3183
aS'nimbussanl'
p3184
aS'#000000'
p3185
aF11.0
aI0
aI00
aI00
aI00
aI00
aI00
aI00
aI00
aI00
aa(lp3186
I234378
aF109.1696
aF539.317
ag3183
aS'nimbussanl'
p3187
aS'#000000'
p3188
aF11.0
aI0
aI00
aI00
aI00
aI00
aI00
aI00
aI00
aI00
aa(lp3189
I7520
aF72.1
aF566.631
aVp3
p3190
aS'nimbussanl'
p3191
aS'#000000'
p3192
aF11.0
aI1
aI01
aI00
aI00
aI00
aI00
aI00
aI00
aI00
aa(lp3193
I234378
aF115.0915294117647
aF566.631
ag3190
aS'nimbussanl'
p3194
aS'#000000'
p3195
aF11.0
aI1
aI01
aI00
aI00
aI00
aI00
aI00
aI00
aI00
aa(lp3196
I234378
aF151.8341176470588
aF566.631
ag3190
aS'nimbussanl'
p3197
aS'#000000'
p3198
aF11.0
aI1
aI00
aI00
aI00
aI00
aI00
aI00
aI00
aI00
aa(lp3199
I132955
aF72.1
aF594.431
aVp3
p3200
aS'nimbussanl'
p3201
aS'#000000'
p3202
aF11.0
aI1
aI01
aI00
aI00
aI00
aI00
aI00
aI00
aI00
aa(lp3203
I144489
aF93.02523076923077
aF594.431
ag3200
aS'nimbussanl'
p3204
aS'#000000'
p3205
aF11.0
aI1
aI00
aI00
aI00
aI00
aI00
aI00
aI00
aI00
aa(lp3206
I132529
aF103.98784615384616
aF594.431
ag3200
aS'nimbussanl'
p3207
aS'#000000'
p3208
aF11.0
aI1
aI00
aI00
aI00
aI00
aI00
aI00
aI00
aI00
aa(lp3209
I234378
aF216.1
aF594.431
aVp3
p3210
aS'nimbussanl'
p3211
aS'#000000'
p3212
aF11.0
aI1
aI00
aI00
aI00
aI00
aI00
aI00
aI00
aI00
aa(lp3213
I234378
aF252.1
aF594.717
aVp3
p3214
aS'nimbussanl'
p3215
aS'#000000'
p3216
aF11.0
aI0
aI00
aI00
aI01
aI00
aI00
aI00
aI00
aI00
aa(lp3217
I234378
aF289.09749999999997
aF594.717
ag3214
aS'nimbussanl'
p3218
aS'#000000'
p3219
aF11.0
aI0
aI00
aI00
aI01
aI01
aI01
aI00
aI00
aI00
aa(lp3220
I195166
aF72.1
aF608.531
aVp3
p3221
aS'nimbussanl'
p3222
aS'#000000'
p3223
aF11.0
aI1
aI01
aI00
aI00
aI00
aI00
aI00
aI00
aI00
aa(lp3224
I164378
aF118.8116
aF608.531
ag3221
aS'nimbussanl'
p3225
aS'#000000'
p3226
aF11.0
aI1
aI01
aI00
aI00
aI00
aI00
aI00
aI00
aI00
aa(lp3227
I234378
aF216.1
aF608.531
aVp3
p3228
aS'nimbussanl'
p3229
aS'#000000'
p3230
aF11.0
aI1
aI00
aI00
aI00
aI00
aI00
aI00
aI00
aI00
aa(lp3231
I58002
aF252.1
aF608.817
aVp3
p3232
aS'nimbussanl'
p3233
aS'#000000'
p3234
aF11.0
aI0
aI01
aI00
aI00
aI00
aI00
aI00
aI00
aI00
aa(lp3235
I234378
aF286.6565
aF608.817
ag3232
aS'nimbussanl'
p3236
aS'#000000'
p3237
aF11.0
aI0
aI00
aI00
aI00
aI00
aI00
aI00
aI00
aI00
aa(lp3238
I234378
aF292.5931428571429
aF608.817
ag3232
aS'nimbussanl'
p3239
aS'#000000'
p3240
aF11.0
aI0
aI01
aI00
aI00
aI00
aI00
aI00
aI00
aI00
aa(lp3241
I219532
aF72.1
aF622.731
aVp3
p3242
aS'nimbussanl'
p3243
aS'#000000'
p3244
aF11.0
aI1
aI01
aI00
aI00
aI00
aI00
aI00
aI00
aI00
aa(lp3245
I75081
aF121.9752
aF622.731
ag3242
aS'nimbussanl'
p3246
aS'#000000'
p3247
aF11.0
aI1
aI01
aI00
aI00
aI00
aI00
aI00
aI00
aI00
aa(lp3248
I234378
aF216.1
aF622.731
aVp3
p3249
aS'nimbussanl'
p3250
aS'#000000'
p3251
aF11.0
aI1
aI00
aI00
aI00
aI00
aI00
aI00
aI00
aI00
aa(lp3252
I234378
aF252.1
aF623.017
aVp3
p3253
aS'nimbussanl'
p3254
aS'#000000'
p3255
aF11.0
aI0
aI01
aI01
aI01
aI00
aI00
aI00
aI00
aI00
aa(lp3256
I212271
aF72.1
aF636.831
aVp3
p3257
aS'nimbussanl'
p3258
aS'#000000'
p3259
aF11.0
aI1
aI01
aI00
aI00
aI00
aI00
aI00
aI00
aI00
aa(lp3260
I12510
aF108.53099999999999
aF636.831
ag3257
aS'nimbussanl'
p3261
aS'#000000'
p3262
aF11.0
aI1
aI00
aI00
aI00
aI00
aI00
aI00
aI00
aI00
aa(lp3263
I234378
aF180.1
aF636.831
aVp3
p3264
aS'nimbussanl'
p3265
aS'#000000'
p3266
aF11.0
aI1
aI00
aI00
aI00
aI00
aI00
aI00
aI00
aI00
aa(lp3267
I118865
aF252.1
aF637.117
aVp3
p3268
aS'nimbussanl'
p3269
aS'#000000'
p3270
aF11.0
aI0
aI01
aI00
aI00
aI00
aI00
aI00
aI00
aI00
aa(lp3271
I33301
aF72.1
aF651.031
aVp3
p3272
aS'nimbussanl'
p3273
aS'#000000'
p3274
aF11.0
aI1
aI01
aI00
aI00
aI00
aI00
aI00
aI00
aI00
aa(lp3275
I118366
aF114.15126666666666
aF651.031
ag3272
aS'nimbussanl'
p3276
aS'#000000'
p3277
aF11.0
aI1
aI01
aI00
aI00
aI00
aI00
aI00
aI00
aI00
aa(lp3278
I234378
aF216.1
aF651.031
aVp3
p3279
aS'nimbussanl'
p3280
aS'#000000'
p3281
aF11.0
aI1
aI00
aI00
aI00
aI00
aI00
aI00
aI00
aI00
aa(lp3282
I234378
aF252.1
aF651.317
aVp3
p3283
aS'nimbussanl'
p3284
aS'#000000'
p3285
aF11.0
aI0
aI00
aI00
aI01
aI01
aI01
aI00
aI00
aI00
aa(lp3286
I234378
aF267.65884
aF651.317
ag3283
aS'nimbussanl'
p3287
aS'#000000'
p3288
aF11.0
aI0
aI00
aI00
aI00
aI00
aI00
aI00
aI00
aI00
aa(lp3289
I234378
aF273.84512
aF651.317
ag3283
aS'nimbussanl'
p3290
aS'#000000'
p3291
aF11.0
aI0
aI01
aI00
aI00
aI00
aI00
aI00
aI00
aI00
aa(lp3292
I49053
aF326.70792
aF651.317
ag3283
aS'nimbussanl'
p3293
aS'#000000'
p3294
aF11.0
aI0
aI00
aI00
aI00
aI00
aI00
aI00
aI00
aI00
aa(lp3295
I234378
aF347.19816000000003
aF651.317
ag3283
aS'nimbussanl'
p3296
aS'#000000'
p3297
aF11.0
aI0
aI00
aI00
aI00
aI00
aI00
aI00
aI00
aI00
aa(lp3298
I234378
aF72.1
aF665.117
aVp3
p3299
aS'nimbussanl'
p3300
aS'#000000'
p3301
aF11.0
aI0
aI01
aI00
aI00
aI00
aI00
aI00
aI00
aI00
aa(lp3302
I29523
aF162.4046
aF665.117
ag3299
aS'nimbussanl'
p3303
aS'#000000'
p3304
aF11.0
aI0
aI00
aI00
aI00
aI00
aI00
aI00
aI00
aI00
aa(lp3305
I234378
aF238.95139999999998
aF665.117
ag3299
aS'nimbussanl'
p3306
aS'#000000'
p3307
aF11.0
aI0
aI00
aI00
aI00
aI00
aI00
aI00
aI00
aI00
aa(lp3308
I234378
aF252.70919999999998
aF665.117
ag3299
aS'nimbussanl'
p3309
aS'#000000'
p3310
aF11.0
aI0
aI01
aI01
aI00
aI00
aI00
aI00
aI00
aI00
aa(lp3311
I234378
aF279.22479999999996
aF665.117
ag3299
aS'nimbussanl'
p3312
aS'#000000'
p3313
aF11.0
aI0
aI01
aI00
aI00
aI00
aI00
aI00
aI00
aI00
aa(lp3314
I234378
aF252.1
aF678.817
aVp3
p3315
aS'nimbussanl'
p3316
aS'#000000'
p3317
aF11.0
aI0
aI01
aI00
aI00
aI00
aI00
aI00
aI00
aI00
aa(lp3318
I234378
aF299.94669999999996
aF678.817
ag3315
aS'nimbussanl'
p3319
aS'#000000'
p3320
aF11.0
aI0
aI00
aI00
aI00
aI00
aI00
aI00
aI00
aI00
aa(lp3321
I234378
aF252.1
aF692.417
aVp3
p3322
aS'nimbussanl'
p3323
aS'#000000'
p3324
aF11.0
aI0
aI01
aI00
aI00
aI00
aI00
aI00
aI00
aI00
aa(lp3325
I234378
aF303.6116470588235
aF692.417
ag3322
aS'nimbussanl'
p3326
aS'#000000'
p3327
aF11.0
aI0
aI00
aI00
aI01
aI01
aI01
aI00
aI00
aI00
aa(lp3328
I234378
aF72.1
aF72.031
aVp4
p3329
aS'nimbussanl'
p3330
aS'#000000'
p3331
aF11.0
aI1
aI01
aI00
aI00
aI00
aI00
aI00
aI00
aI00
aa(lp3332
I127485
aF108.13199999999999
aF72.031
ag3329
aS'nimbussanl'
p3333
aS'#000000'
p3334
aF11.0
aI1
aI01
aI00
aI00
aI00
aI00
aI00
aI00
aI00
aa(lp3335
I234378
aF157.785
aF72.031
ag3329
aS'nimbussanl'
p3336
aS'#000000'
p3337
aF11.0
aI1
aI00
aI00
aI00
aI00
aI00
aI00
aI00
aI00
aa(lp3338
I234378
aF162.164
aF72.031
ag3329
aS'nimbussanl'
p3339
aS'#000000'
p3340
aF11.0
aI1
aI00
aI00
aI00
aI00
aI00
aI00
aI00
aI00
aa(lp3341
I234378
aF178.05899999999997
aF72.031
ag3329
aS'nimbussanl'
p3342
aS'#000000'
p3343
aF11.0
aI1
aI00
aI00
aI00
aI00
aI00
aI00
aI00
aI00
aa(lp3344
I234378
aF188.43799999999996
aF72.031
ag3329
aS'nimbussanl'
p3345
aS'#000000'
p3346
aF11.0
aI1
aI00
aI00
aI00
aI00
aI00
aI00
aI00
aI00
aa(lp3347
I234378
aF191.81699999999995
aF72.031
ag3329
aS'nimbussanl'
p3348
aS'#000000'
p3349
aF11.0
aI1
aI00
aI00
aI00
aI00
aI00
aI00
aI00
aI00
aa(lp3350
I135639
aF154.19599999999994
aF72.031
ag3329
aS'nimbussanl'
p3351
aS'#000000'
p3352
aF11.0
aI1
aI00
aI00
aI00
aI00
aI00
aI00
aI00
aI00
aa(lp3353
I234378
aF205.95399999999995
aF72.031
ag3329
aS'nimbussanl'
p3354
aS'#000000'
p3355
aF11.0
aI1
aI00
aI00
aI00
aI00
aI00
aI00
aI00
aI00
aa(lp3356
I234378
aF210.33299999999994
aF72.031
ag3329
aS'nimbussanl'
p3357
aS'#000000'
p3358
aF11.0
aI1
aI00
aI00
aI00
aI00
aI00
aI00
aI00
aI00
aa(lp3359
I234378
aF236.36499999999995
aF72.031
ag3329
aS'nimbussanl'
p3360
aS'#000000'
p3361
aF11.0
aI1
aI00
aI00
aI00
aI00
aI00
aI00
aI00
aI00
aa(lp3362
I234378
aF249.74399999999994
aF72.031
ag3329
aS'nimbussanl'
p3363
aS'#000000'
p3364
aF11.0
aI1
aI00
aI00
aI00
aI00
aI00
aI00
aI00
aI00
aa(lp3365
I234378
aF245.88099999999991
aF72.031
ag3329
aS'nimbussanl'
p3366
aS'#000000'
p3367
aF11.0
aI1
aI00
aI00
aI00
aI00
aI00
aI00
aI00
aI00
aa(lp3368
I135639
aF208.2599999999999
aF72.031
ag3329
aS'nimbussanl'
p3369
aS'#000000'
p3370
aF11.0
aI1
aI00
aI00
aI00
aI00
aI00
aI00
aI00
aI00
aa(lp3371
I234378
aF256.0179999999999
aF72.031
ag3329
aS'nimbussanl'
p3372
aS'#000000'
p3373
aF11.0
aI1
aI00
aI00
aI00
aI00
aI00
aI00
aI00
aI00
aa(lp3374
I234378
aF280.39699999999993
aF72.031
ag3329
aS'nimbussanl'
p3375
aS'#000000'
p3376
aF11.0
aI1
aI00
aI00
aI00
aI00
aI00
aI00
aI00
aI00
aa(lp3377
I67063
aF72.1
aF113.531
aVp4
p3378
aS'nimbussanl'
p3379
aS'#000000'
p3380
aF11.0
aI1
aI01
aI00
aI00
aI00
aI00
aI00
aI00
aI00
aa(lp3381
I234378
aF130.32116666666667
aF113.531
ag3378
aS'nimbussanl'
p3382
aS'#000000'
p3383
aF11.0
aI1
aI00
aI00
aI00
aI00
aI00
aI00
aI00
aI00
aa(lp3384
I197030
aF72.1
aF141.817
aVp4
p3385
aS'nimbussanl'
p3386
aS'#000000'
p3387
aF11.0
aI0
aI01
aI01
aI00
aI00
aI00
aI00
aI00
aI00
aa(lp3388
I87742
aF77.91369072164947
aF141.817
ag3385
aS'nimbussanl'
p3389
aS'#000000'
p3390
aF11.0
aI0
aI00
aI00
aI00
aI00
aI00
aI00
aI00
aI00
aa(lp3391
I77964
aF107.79583505154638
aF141.817
ag3385
aS'nimbussanl'
p3392
aS'#000000'
p3393
aF11.0
aI0
aI00
aI00
aI00
aI00
aI00
aI00
aI00
aI00
aa(lp3394
I66157
aF147.30536082474225
aF141.817
ag3385
aS'nimbussanl'
p3395
aS'#000000'
p3396
aF11.0
aI0
aI00
aI00
aI00
aI00
aI00
aI00
aI00
aI00
aa(lp3397
I175989
aF177.18750515463915
aF141.817
ag3385
aS'nimbussanl'
p3398
aS'#000000'
p3399
aF11.0
aI0
aI00
aI00
aI00
aI00
aI00
aI00
aI00
aI00
aa(lp3400
I41890
aF197.4422680412371
aF141.817
ag3385
aS'nimbussanl'
p3401
aS'#000000'
p3402
aF11.0
aI0
aI00
aI00
aI00
aI00
aI00
aI00
aI00
aI00
aa(lp3403
I194354
aF212.88334020618555
aF141.817
ag3385
aS'nimbussanl'
p3404
aS'#000000'
p3405
aF11.0
aI0
aI00
aI00
aI00
aI00
aI00
aI00
aI00
aI00
aa(lp3406
I234378
aF228.324412371134
aF141.817
ag3385
aS'nimbussanl'
p3407
aS'#000000'
p3408
aF11.0
aI0
aI00
aI00
aI00
aI00
aI00
aI00
aI00
aI00
aa(lp3409
I85582
aF263.02024742268037
aF141.817
ag3385
aS'nimbussanl'
p3410
aS'#000000'
p3411
aF11.0
aI0
aI00
aI00
aI00
aI00
aI00
aI00
aI00
aI00
aa(lp3412
I76633
aF302.52977319587626
aF141.817
ag3385
aS'nimbussanl'
p3413
aS'#000000'
p3414
aF11.0
aI0
aI00
aI00
aI00
aI00
aI00
aI00
aI00
aI00
aa(lp3415
I84932
aF327.59822680412367
aF141.817
ag3385
aS'nimbussanl'
p3416
aS'#000000'
p3417
aF11.0
aI0
aI00
aI00
aI00
aI00
aI00
aI00
aI00
aI00
aa(lp3418
I145383
aF343.03929896907215
aF141.817
ag3385
aS'nimbussanl'
p3419
aS'#000000'
p3420
aF11.0
aI0
aI00
aI00
aI00
aI00
aI00
aI00
aI00
aI00
aa(lp3421
I89480
aF363.29406185567007
aF141.817
ag3385
aS'nimbussanl'
p3422
aS'#000000'
p3423
aF11.0
aI0
aI00
aI00
aI00
aI00
aI00
aI00
aI00
aI00
aa(lp3424
I194354
aF334.92144329896905
aF141.817
ag3385
aS'nimbussanl'
p3425
aS'#000000'
p3426
aF11.0
aI0
aI00
aI00
aI00
aI00
aI00
aI00
aI00
aI00
aa(lp3427
I15102
aF389.36251546391753
aF141.817
ag3385
aS'nimbussanl'
p3428
aS'#000000'
p3429
aF11.0
aI0
aI00
aI00
aI00
aI00
aI00
aI00
aI00
aI00
aa(lp3430
I144489
aF409.61727835051545
aF141.817
ag3385
aS'nimbussanl'
p3431
aS'#000000'
p3432
aF11.0
aI0
aI00
aI00
aI00
aI00
aI00
aI00
aI00
aI00
aa(lp3433
I219882
aF420.24465979381444
aF141.817
ag3385
aS'nimbussanl'
p3434
aS'#000000'
p3435
aF11.0
aI0
aI00
aI00
aI00
aI00
aI00
aI00
aI00
aI00
aa(lp3436
I127763
aF430.8720412371134
aF141.817
ag3385
aS'nimbussanl'
p3437
aS'#000000'
p3438
aF11.0
aI0
aI00
aI00
aI00
aI00
aI00
aI00
aI00
aI00
aa(lp3439
I85218
aF72.1
aF157.417
aVp4
p3440
aS'nimbussanl'
p3441
aS'#000000'
p3442
aF11.0
aI0
aI00
aI00
aI00
aI00
aI00
aI00
aI00
aI00
aa(lp3443
I188311
aF96.091
aF157.417
aVp4
p3444
aS'nimbussanl'
p3445
aS'#000000'
p3446
aF11.0
aI0
aI00
aI00
aI00
aI00
aI00
aI00
aI00
aI00
aa(lp3447
I85218
aF128.068
aF157.417
aVp4
p3448
aS'nimbussanl'
p3449
aS'#000000'
p3450
aF11.0
aI0
aI00
aI00
aI00
aI00
aI00
aI00
aI00
aI00
aa(lp3451
I175989
aF152.059
aF157.417
aVp4
p3452
aS'nimbussanl'
p3453
aS'#000000'
p3454
aF11.0
aI0
aI00
aI00
aI00
aI00
aI00
aI00
aI00
aI00
aa(lp3455
I16334
aF176.028
aF157.417
aVp4
p3456
aS'nimbussanl'
p3457
aS'#000000'
p3458
aF11.0
aI0
aI00
aI00
aI00
aI00
aI00
aI00
aI00
aI00
aa(lp3459
I41890
aF190.812
aF157.417
aVp4
p3460
aS'nimbussanl'
p3461
aS'#000000'
p3462
aF11.0
aI0
aI00
aI00
aI00
aI00
aI00
aI00
aI00
aI00
aa(lp3463
I124019
aF207.477
aF157.417
aVp4
p3464
aS'nimbussanl'
p3465
aS'#000000'
p3466
aF11.0
aI0
aI00
aI00
aI00
aI00
aI00
aI00
aI00
aI00
aa(lp3467
I234378
aF231.842
aF157.417
ag3464
aS'nimbussanl'
p3468
aS'#000000'
p3469
aF11.0
aI0
aI00
aI00
aI00
aI00
aI00
aI00
aI00
aI00
aa(lp3470
I197030
aF242.435
aF157.417
aVp4
p3471
aS'nimbussanl'
p3472
aS'#000000'
p3473
aF11.0
aI0
aI01
aI01
aI00
aI00
aI00
aI00
aI00
aI00
aa(lp3474
I102824
aF251.114
aF157.417
aVp4
p3475
aS'nimbussanl'
p3476
aS'#000000'
p3477
aF11.0
aI0
aI00
aI00
aI00
aI00
aI00
aI00
aI00
aI00
aa(lp3478
I22122
aF279.384
aF157.417
aVp4
p3479
aS'nimbussanl'
p3480
aS'#000000'
p3481
aF11.0
aI0
aI00
aI00
aI00
aI00
aI00
aI00
aI00
aI00
aa(lp3482
I217270
aF309.447
aF157.417
aVp4
p3483
aS'nimbussanl'
p3484
aS'#000000'
p3485
aF11.0
aI0
aI00
aI00
aI00
aI00
aI00
aI00
aI00
aI00
aa(lp3486
I135639
aF346.814
aF157.417
aVp4
p3487
aS'nimbussanl'
p3488
aS'#000000'
p3489
aF11.0
aI0
aI00
aI00
aI00
aI00
aI00
aI00
aI00
aI00
aa(lp3490
I166593
aF361.092
aF157.417
aVp4
p3491
aS'nimbussanl'
p3492
aS'#000000'
p3493
aF11.0
aI0
aI00
aI00
aI00
aI00
aI00
aI00
aI00
aI00
aa(lp3494
I229369
aF372.774
aF157.417
aVp4
p3495
aS'nimbussanl'
p3496
aS'#000000'
p3497
aF11.0
aI0
aI00
aI00
aI00
aI00
aI00
aI00
aI00
aI00
aa(lp3498
I175989
aF415.762
aF157.417
aVp4
p3499
aS'nimbussanl'
p3500
aS'#000000'
p3501
aF11.0
aI0
aI00
aI00
aI00
aI00
aI00
aI00
aI00
aI00
aa(lp3502
I234378
aF439.731
aF157.417
aVp4
p3503
aS'nimbussanl'
p3504
aS'#000000'
p3505
aF11.0
aI0
aI00
aI00
aI00
aI00
aI00
aI00
aI00
aI00
aa(lp3506
I106876
aF471.62
aF157.417
aVp4
p3507
aS'nimbussanl'
p3508
aS'#000000'
p3509
aF11.0
aI0
aI00
aI00
aI00
aI00
aI00
aI00
aI00
aI00
aa(lp3510
I89480
aF509.086
aF157.417
aVp4
p3511
aS'nimbussanl'
p3512
aS'#000000'
p3513
aF11.0
aI0
aI00
aI00
aI00
aI00
aI00
aI00
aI00
aI00
aa(lp3514
I194354
aF523.859
aF157.417
aVp4
p3515
aS'nimbussanl'
p3516
aS'#000000'
p3517
aF11.0
aI0
aI00
aI00
aI00
aI00
aI00
aI00
aI00
aI00
aa(lp3518
I229426
aF72.1
aF173.117
aVp4
p3519
aS'nimbussanl'
p3520
aS'#000000'
p3521
aF11.0
aI0
aI00
aI00
aI00
aI00
aI00
aI00
aI00
aI00
aa(lp3522
I85218
aF133.5912
aF173.117
ag3519
aS'nimbussanl'
p3523
aS'#000000'
p3524
aF11.0
aI0
aI00
aI00
aI00
aI00
aI00
aI00
aI00
aI00
aa(lp3525
I199548
aF149.714
aF173.117
ag3519
aS'nimbussanl'
p3526
aS'#000000'
p3527
aF11.0
aI0
aI00
aI00
aI00
aI00
aI00
aI00
aI00
aI00
aa(lp3528
I67001
aF180.9596
aF173.117
ag3519
aS'nimbussanl'
p3529
aS'#000000'
p3530
aF11.0
aI0
aI00
aI00
aI00
aI00
aI00
aI00
aI00
aI00
aa(lp3531
I144489
aF212.2052
aF173.117
ag3519
aS'nimbussanl'
p3532
aS'#000000'
p3533
aF11.0
aI0
aI00
aI00
aI00
aI00
aI00
aI00
aI00
aI00
aa(lp3534
I194354
aF223.28706666666665
aF173.117
ag3519
aS'nimbussanl'
p3535
aS'#000000'
p3536
aF11.0
aI0
aI00
aI00
aI00
aI00
aI00
aI00
aI00
aI00
aa(lp3537
I90124
aF239.40986666666666
aF173.117
ag3519
aS'nimbussanl'
p3538
aS'#000000'
p3539
aF11.0
aI0
aI00
aI00
aI00
aI00
aI00
aI00
aI00
aI00
aa(lp3540
I234378
aF269.65546666666665
aF173.117
ag3519
aS'nimbussanl'
p3541
aS'#000000'
p3542
aF11.0
aI0
aI00
aI00
aI00
aI00
aI00
aI00
aI00
aI00
aa(lp3543
I216970
aF72.1
aF235.431
aVp4
p3544
aS'nimbussanl'
p3545
aS'#000000'
p3546
aF11.0
aI1
aI01
aI00
aI00
aI00
aI00
aI00
aI00
aI00
aa(lp3547
I234378
aF159.735
aF235.431
ag3544
aS'nimbussanl'
p3548
aS'#000000'
p3549
aF11.0
aI1
aI00
aI00
aI00
aI00
aI00
aI00
aI00
aI00
aa(lp3550
I234378
aF360.1
aF235.717
aVp4
p3551
aS'nimbussanl'
p3552
aS'#000000'
p3553
aF11.0
aI0
aI00
aI00
aI00
aI00
aI00
aI00
aI00
aI00
aa(lp3554
I7926
aF364.6790555555556
aF235.717
ag3551
aS'nimbussanl'
p3555
aS'#000000'
p3556
aF11.0
aI0
aI01
aI00
aI00
aI00
aI00
aI00
aI00
aI00
aa(lp3557
I9677
aF388.57433333333336
aF235.717
ag3551
aS'nimbussanl'
p3558
aS'#000000'
p3559
aF11.0
aI0
aI00
aI00
aI00
aI00
aI00
aI00
aI00
aI00
aa(lp3560
I234378
aF434.3648888888889
aF235.717
ag3551
aS'nimbussanl'
p3561
aS'#000000'
p3562
aF11.0
aI0
aI00
aI00
aI00
aI00
aI00
aI00
aI00
aI00
aa(lp3563
I132955
aF72.1
aF249.531
aVp4
p3564
aS'nimbussanl'
p3565
aS'#000000'
p3566
aF11.0
aI1
aI01
aI00
aI00
aI00
aI00
aI00
aI00
aI00
aa(lp3567
I234378
aF87.04706796116504
aF249.531
ag3564
aS'nimbussanl'
p3568
aS'#000000'
p3569
aF11.0
aI1
aI00
aI00
aI00
aI00
aI00
aI00
aI00
aI00
aa(lp3570
I234378
aF169.7838349514563
aF249.531
ag3564
aS'nimbussanl'
p3571
aS'#000000'
p3572
aF11.0
aI1
aI00
aI00
aI00
aI00
aI00
aI00
aI00
aI00
aa(lp3573
I234378
aF173.52060194174757
aF249.531
ag3564
aS'nimbussanl'
p3574
aS'#000000'
p3575
aF11.0
aI1
aI01
aI01
aI00
aI00
aI00
aI00
aI00
aI00
aa(lp3576
I234378
aF208.15150485436894
aF249.531
ag3564
aS'nimbussanl'
p3577
aS'#000000'
p3578
aF11.0
aI1
aI01
aI01
aI00
aI00
aI00
aI00
aI00
aI00
aa(lp3579
I234378
aF234.3088737864078
aF249.531
ag3564
aS'nimbussanl'
p3580
aS'#000000'
p3581
aF11.0
aI1
aI00
aI00
aI00
aI00
aI00
aI00
aI00
aI00
aa(lp3582
I1
aI1
aI0
aI0
aI0
aI0
aI0
aI0
aI0
aI0
aI0
aI0
aI0
aI1
aI1
aI0
aI0
aI0
aI0
aI0
aI0
aI0
aI0
aI0
aI0
aI0
aI0
aI0
aI0
aI0
aI0
aI0
aI0
aI0
aI0
aI0
aI0
aI0
aI0
aI0
aI0
aI0
aI0
aI0
aI0
aI0
aI0
aI0
aI0
aI0
aI0
aI0
aI0
aI0
aI0
aI1
aI1
aI1
aI0
aI0
aI0
aI0
aI0
aI0
aI0
aI0
aI0
aI0
aI0
aI0
aI0
aI0
aI1
aI1
aI1
aI0
aI0
aI0
aI0
aI0
aI0
aI0
aI0
aI0
aI0
aI0
aI0
aI0
aI0
aI0
aI0
aI0
aI0
aI0
aI0
aI0
aI0
aI0
aI0
aI0
aI0
aI0
aI0
aI0
aI0
aI0
aI0
aI0
aI0
aI0
aI0
aI0
aI0
aI0
aI0
aI0
aI0
aI0
aI0
aI0
aI0
aI0
aI0
aI0
aI0
aI1
aI1
aI0
aI0
aI0
aI0
aI0
aI0
aI0
aI0
aI0
aI0
aI0
aI0
aI0
aI0
aI0
aI0
aI0
aI0
aI0
aI0
aI0
aI0
aI0
aI0
aI0
aI0
aI0
aI0
aI0
aI0
aI0
aI0
aI0
aI0
aI0
aI0
aI0
aI0
aI0
aI0
aI0
aI0
aI0
aI0
aI0
aI0
aI0
aI0
aI0
aI0
aI0
aI0
aI0
aI0
aI0
aI0
aI0
aI0
aI0
aI0
aI0
aI0
aI0
aI0
aI0
aI0
aI0
aI0
aI0
aI0
aI0
aI0
aI0
aI0
aI0
aI0
aI0
aI0
aI0
aI0
aI0
aI0
aI0
aI0
aI0
aI0
aI0
aI0
aI0
aI0
aI0
aI0
aI0
aI0
aI0
aI0
aI0
aI0
aI0
aI0
aI1
aI1
aI1
aI0
aI0
aI0
aI0
aI0
aI0
aI0
aI0
aI0
aI0
aI0
aI0
aI0
aI0
aI0
aI0
aI0
aI0
aI0
aI0
aI0
aI0
aI0
aI0
aI0
aI0
aI0
aI0
aI0
aI0
aI0
aI0
aI0
aI0
aI0
aI0
aI0
aI0
aI0
aI0
aI0
aI0
aI0
aI0
aI0
aI0
aI0
aI0
aI0
aI0
aI0
aI0
aI0
aI0
aI0
aI0
aI0
aI0
aI0
aI0
aI0
aI0
aI0
aI0
aI0
aI0
aI0
aI0
aI0
aI0
aI0
aI0
aI0
aI0
aI0
aI0
aI0
aI0
aI0
aI0
aI0
aI0
aI0
aI0
aI0
aI0
aI0
aI0
aI0
aI0
aI0
aI0
aI0
aI0
aI0
aI0
aI0
aI0
aI0
aI0
aI0
aI0
aI0
aI0
aI0
aI0
aI0
aI0
aI0
aI0
aI0
aI0
aI0
aI0
aI0
aI0
aI0
aI0
aI0
aI0
aI0
aI0
aI0
aI0
aI0
aI0
aI0
aI0
aI0
aI0
aI0
aI0
aI0
aI0
aI0
aI0
aI0
aI0
aI0
aI0
aI0
aI0
aI0
aI0
aI0
aI0
aI0
aI0
aI0
aI0
aI0
aI0
aI0
aI0
aI0
aI0
aI0
aI0
aI0
aI0
aI0
aI0
aI0
aI0
aI0
aI0
aI0
aI0
aI0
aI0
aI0
aI0
aI0
aI0
aI0
aI0
aI0
aI0
aI0
aI0
aI0
aI0
aI0
aI0
aI0
aI0
aI0
aI0
aI0
aI0
aI0
aI0
aI0
aI0
aI0
aI0
aI0
aI0
aI0
aI0
aI0
aI0
aI0
aI0
aI0
aI0
aI0
aI0
aI0
aI0
aI0
aI0
aI0
aI0
aI0
aI0
aI0
aI0
aI0
aI0
aI0
aI0
aI0
aI0
aI0
aI0
aI0
aI0
aI0
aI0
aI0
aI0
aI0
aI0
aI0
aI0
aI0
aI0
aI0
aI0
aI0
aI0
aI0
aI0
aI0
aI0
aI0
aI0
aI0
aI0
aI0
aI0
aI0
aI0
aI0
aI0
aI0
aI0
aI0
aI0
aI0
aI0
aI0
aI0
aI0
aI0
aI0
aI0
aI0
aI0
aI0
aI0
aI0
aI0
aI0
aI0
aI0
aI0
aI0
aI0
aI0
aI0
aI0
aI0
aI0
aI0
aI0
aI0
aI0
aI0
aI0
aI0
aI0
aI0
aI0
aI0
aI0
aI0
aI0
aI0
aI0
aI0
aI0
aI0
aI0
aI0
aI0
aI0
aI0
aI0
aI0
aI0
aI0
aI0
aI0
aI0
aI0
aI0
aI0
aI0
aI0
aI0
aI0
aI0
aI0
aI0
aI0
aI0
aI0
aI0
aI0
aI0
aI0
aI0
aI0
aI0
aI0
aI0
aI0
aI0
aI0
aI0
aI0
aI0
aI0
aI0
aI0
aI0
aI0
aI0
aI0
aI0
aI0
aI0
aI0
aI0
aI0
aI0
aI0
aI0
aI0
aI0
aI0
aI0
aI0
aI0
aI0
aI0
aI0
aI0
aI0
aI0
aI0
aI0
aI0
aI0
aI0
aI0
aI0
aI0
aI0
aI0
aI0
aI0
aI0
aI0
aI0
aI0
aI0
aI0
aI0
aI0
aI0
aI0
aI0
aI0
aI0
aI0
aI0
aI0
aI0
aI0
aI0
aI0
aI0
aI0
aI0
aI0
aI0
aI0
aI0
aI0
aI0
aI0
aI0
aI0
aI0
aI0
aI0
aI0
aI0
aI0
aI0
aI0
aI0
aI0
aI0
aI0
aI0
aI0
aI0
aI0
aI0
aI0
aI0
aI0
aI0
aI0
aI0
aI0
aI0
aI0
aI0
aI0
aI0
aI0
aI0
aI0
aI0
aI0
aI0
aI0
aI0
aI0
aI0
aI0
aI0
aI0
aI0
aI0
aI0
aI0
aI0
aI0
aI0
aI0
aI0
aI0
aI0
aI0
aI0
aI0
aI0
aI0
aI0
aI0
aI0
aI0
aI0
aI0
aI0
aI0
aI0
aI0
aI0
aI0
aI0
aI0
aI0
aI0
aI0
aI0
aI0
aI0
aI0
aI0
aI0
aI0
aI0
aI0
aI0
aI0
aI0
aI0
aI0
aI0
aI0
aI0
aI0
aI0
aI0
aI0
aI0
aI0
aI0
aI0
aI0
aI0
aI0
aI0
aI0
aI0
aI0
aI0
aI0
aI0
aI0
aI0
aI0
aI0
aI0
aI0
aI0
aI0
aI0
aI0
aI0
aI0
aI0
aI0
aI0
aI0
aI0
aI0
aI0
aI0
aI0
aI0
aI0
aI0
aI0
aI0
aI0
aI0
aI0
aI0
aI0
aI0
aI0
aI0
aI0
aI0
aI0
aI0
aI0
aI0
aI0
aI0
aI0
aI0
aI0
aI0
aI0
aI0
aI0
aI0
aI0
aI0
aI0
aI0
aI0
aI0
aI0
aI0
aI0
aI0
aI0
aI0
aI0
aI0
aI0
aI0
aI0
aI0
aI0
aI0
aI0
aI0
aI0
aI0
aI0
aI0
aI0
aI0
aI0
aI0
aI0
aI0
aI0
aI0
aI0
aI0
aI0
aI0
aI0
aI0
aI0
aI0
aI0
aI0
aI0
aI0
aI0
aI0
aI0
aI0
aI0
aI0
aI0
aI0
aI0
aI0
aI0
aI0
aI0
aI0
aI0
aI0
aI0
aI0
aI0
aI0
aI0
aI0
aI0
aI0
aI0
aI0
aI0
aI0
aI0
aI0
aI0
aI0
aI0
aI0
aI0
aI0
aI0
aI0
aI0
aI0
aI0
aI0
aI0
aI0
aI0
aI0
aI0
aI0
aI0
aI0
aI0
aI0
aI0
aI0
aI0
aI0
aI0
aI0
aI0
aI0
aI0
aI0
aI1
aI1
aI1
aI0
aI0
aI0
aI0
aI0
aI0
aI0
aI0
aI0
aI0
aI0
aI0
aI0
aI0
aI0
aI0
aI0
aI0
aI0
aI0
aI0
aI0
aI0
aI0
aI0
aI0
aI0
aI0
aI0
aI0
aI0
aI0
aI0
aI0
aI0
aI0
aI0
aI0
aI0
aI0
aI0
aI0
aI0
aI0
aI0
aI0
aI0
aI0
aI1
aI1
aI1
aI1
aI1
aI0
aI0
aI0
aI0
aI0
aI0
aI0
aI0
aI0
aI0
aI0
aI0
aI0
aI0
aI0
aI0
aI0
aI0
aI0
aI0
aI0
aI0
aI0
aI0
aI0
aI0
aI0
aI0
aI0
aI0
aI1
aI1
aI1
aI0
aI0
aI0
aI0
aI0
aI0
aI0
aI0
aI0
aI0
aI0
aI0
aI0
aI0
aI0
aI0
aI0
aI0
aI0
aI0
aI0
aI0
aI0
aI0
aI0
aI0
aI0
aI0
aI0
aI0
aI0
aI0
aI0
aI0
aI0
aI0
aI0
aI0
aI0
aI0
aI0
aI0
aI0
aI0
aI0
aI0
aI0
aI0
aI0
aI0
aI0
aI0
aI0
aI1
aI1
aI0
aI0
aI0
aI0
aI0
aI0
aI0
aI0
aI0
aI0
aI0
aI0
aI0
aI0
aI0
aI0
aI0
aI0
aI0
aI0
aI0
aI0
aI0
aI0
aI0
aI0
aI0
aI0
aI0
aI0
aI0
aI0
aI0
aI0
aI0
aI0
aI0
aI0
aI0
aI0
aI0
aI0
aI0
aI0
aI0
aI0
aI0
aI0
aI0
aI0
aI0
aI0
aI0
aI0
aI0
aI0
aI0
aI0
atp3583
.