((lp0
(lp1
I234378
aF52.1
aF65.644
aVp1
p2
aS'dejavuserif'
p3
aS'#000000'
p4
aF12.0
aI1
aI01
aI00
aI00
aI00
aI00
aI00
aI00
aI00
aa(lp5
I234378
aF94.952
aF65.644
aVp1
p6
aS'dejavuserif'
p7
aS'#000000'
p8
aF12.0
aI1
aI01
aI00
aI00
aI00
aI00
aI00
aI00
aI00
aa(lp9
I33301
aF64.882
aF81.782
aVp1
p10
aS'dejavuserif'
p11
aS'#000000'
p12
aF11.0
aI1
aI01
aI00
aI00
aI00
aI00
aI00
aI00
aI00
aa(lp13
I234378
aF110.48525000000001
aF81.782
ag10
aS'dejavuserif'
p14
aS'#000000'
p15
aF11.0
aI1
aI00
aI00
aI00
aI00
aI00
aI00
aI00
aI00
aa(lp16
I234378
aF123.424
aF81.782
aVp1
p17
aS'dejavuserif'
p18
aS'#000000'
p19
aF11.0
aI1
aI00
aI00
aI01
aI01
aI01
aI00
aI00
aI00
aa(lp20
I234378
aF139.29864
aF81.782
ag17
aS'dejavuserif'
p21
aS'#000000'
p22
aF11.0
aI1
aI00
aI00
aI01
aI01
aI01
aI00
aI00
aI00
aa(lp23
I234378
aF213.67184
aF81.782
ag17
aS'dejavuserif'
p24
aS'#000000'
p25
aF11.0
aI1
aI00
aI00
aI00
aI00
aI00
aI00
aI00
aI00
aa(lp26
I234378
aF221.10916
aF81.782
ag17
aS'dejavuserif'
p27
aS'#000000'
p28
aF11.0
aI1
aI00
aI00
aI01
aI01
aI01
aI00
aI00
aI00
aa(lp29
I64620
aF506.3
aF81.782
aVp1
p30
aS'dejavuserif'
p31
aS'#000000'
p32
aF11.0
aI1
aI01
aI01
aI00
aI00
aI00
aI00
aI00
aI00
aa(lp33
I169404
aF513.6878571428572
aF81.782
ag30
aS'dejavuserif'
p34
aS'#000000'
p35
aF11.0
aI1
aI01
aI00
aI00
aI00
aI00
aI00
aI00
aI00
aa(lp36
I234378
aF539.2392857142858
aF81.782
ag30
aS'dejavuserif'
p37
aS'#000000'
p38
aF11.0
aI1
aI00
aI00
aI00
aI00
aI00
aI00
aI00
aI00
aa(lp39
I234378
aF52.1
aF96.682
aVp1
p40
aS'dejavuserif'
p41
aS'#0000ff'
p42
aF11.0
aI1
aI00
aI00
aI00
aI00
aI00
aI01
aI00
aI00
aa(lp43
I165938
aF64.58
aF127.944
aVp1
p44
aS'dejavuserif'
p45
aS'#000000'
p46
aF12.0
aI1
aI01
aI01
aI00
aI00
aI00
aI00
aI00
aI00
aa(lp47
I123464
aF177.62
aF127.944
aVp1
p48
aS'dejavuserif'
p49
aS'#000000'
p50
aF12.0
aI1
aI01
aI01
aI00
aI00
aI00
aI00
aI00
aI00
aa(lp51
I22476
aF88.1
aF152.892
aVp1
p52
aS'dejavuserif'
p53
aS'#000000'
p54
aF11.0
aI0
aI01
aI01
aI00
aI00
aI00
aI00
aI00
aI00
aa(lp55
I165938
aF103.478
aF152.892
aVp1
p56
aS'dejavuserif'
p57
aS'#000000'
p58
aF11.0
aI0
aI00
aI00
aI00
aI00
aI00
aI00
aI00
aI00
aa(lp59
I169745
aF175.187
aF152.892
aVp1
p60
aS'dejavuserif'
p61
aS'#000000'
p62
aF11.0
aI0
aI00
aI00
aI00
aI00
aI00
aI00
aI00
aI00
aa(lp63
I2002
aF203.369
aF152.892
aVp1
p64
aS'dejavuserif'
p65
aS'#000000'
p66
aF11.0
aI0
aI01
aI00
aI00
aI00
aI00
aI00
aI00
aI00
aa(lp67
I107466
aF236.721
aF152.892
aVp1
p68
aS'dejavuserif'
p69
aS'#000000'
p70
aF11.0
aI0
aI00
aI00
aI00
aI00
aI00
aI00
aI00
aI00
aa(lp71
I234378
aF265.574
aF152.892
aVp1
p72
aS'dejavuserif'
p73
aS'#000000'
p74
aF11.0
aI0
aI00
aI00
aI01
aI01
aI00
aI00
aI00
aI00
aa(lp75
I234378
aF271.4003333333333
aF152.892
ag72
aS'dejavuserif'
p76
aS'#000000'
p77
aF11.0
aI0
aI00
aI00
aI00
aI00
aI00
aI00
aI00
aI00
aa(lp78
I234378
aF275.22666666666663
aF152.892
ag72
aS'dejavuserif'
p79
aS'#000000'
p80
aF11.0
aI0
aI00
aI00
aI01
aI01
aI00
aI00
aI00
aI00
aa(lp81
I234378
aF286.826
aF152.892
aVp1
p82
aS'dejavuserif'
p83
aS'#000000'
p84
aF11.0
aI0
aI00
aI00
aI00
aI00
aI00
aI00
aI00
aI00
aa(lp85
I144489
aF320.695
aF152.892
aVp1
p86
aS'dejavuserif'
p87
aS'#000000'
p88
aF11.0
aI0
aI00
aI00
aI00
aI00
aI00
aI00
aI00
aI00
aa(lp89
I22476
aF335.171
aF152.892
aVp1
p90
aS'dejavuserif'
p91
aS'#000000'
p92
aF11.0
aI0
aI01
aI01
aI00
aI00
aI00
aI00
aI00
aI00
aa(lp93
I60220
aF350.549
aF152.892
aVp1
p94
aS'dejavuserif'
p95
aS'#000000'
p96
aF11.0
aI0
aI00
aI00
aI00
aI00
aI00
aI00
aI00
aI00
aa(lp97
I16331
aF415.482
aF152.892
aVp1
p98
aS'dejavuserif'
p99
aS'#000000'
p100
aF11.0
aI0
aI00
aI00
aI00
aI00
aI00
aI00
aI00
aI00
aa(lp101
I149270
aF431.443
aF152.892
aVp1
p102
aS'dejavuserif'
p103
aS'#000000'
p104
aF11.0
aI0
aI01
aI00
aI00
aI00
aI00
aI00
aI00
aI00
aa(lp105
I89147
aF488.17
aF152.892
aVp1
p106
aS'dejavuserif'
p107
aS'#000000'
p108
aF11.0
aI0
aI00
aI00
aI00
aI00
aI00
aI00
aI00
aI00
aa(lp109
I135639
aF88.1
aF167.692
aVp1
p110
aS'dejavuserif'
p111
aS'#000000'
p112
aF11.0
aI0
aI00
aI00
aI00
aI00
aI00
aI00
aI00
aI00
aa(lp113
I89958
aF102.169
aF167.692
aVp1
p114
aS'dejavuserif'
p115
aS'#000000'
p116
aF11.0
aI0
aI00
aI00
aI00
aI00
aI00
aI00
aI00
aI00
aa(lp117
I234378
aF144.46125
aF167.692
ag114
aS'dejavuserif'
p118
aS'#000000'
p119
aF11.0
aI0
aI00
aI00
aI00
aI00
aI00
aI00
aI00
aI00
aa(lp120
I74819
aF154.089
aF167.692
aVp1
p121
aS'dejavuserif'
p122
aS'#000000'
p123
aF11.0
aI0
aI00
aI00
aI00
aI00
aI00
aI00
aI00
aI00
aa(lp124
I85218
aF204.436
aF167.692
aVp1
p125
aS'dejavuserif'
p126
aS'#000000'
p127
aF11.0
aI0
aI00
aI00
aI00
aI00
aI00
aI00
aI00
aI00
aa(lp128
I128677
aF228.592
aF167.692
aVp1
p129
aS'dejavuserif'
p130
aS'#000000'
p131
aF11.0
aI0
aI00
aI00
aI00
aI00
aI00
aI00
aI00
aI00
aa(lp132
I153177
aF269.556
aF167.692
aVp1
p133
aS'dejavuserif'
p134
aS'#000000'
p135
aF11.0
aI0
aI00
aI00
aI00
aI00
aI00
aI00
aI00
aI00
aa(lp136
I63022
aF345.577
aF167.692
aVp1
p137
aS'dejavuserif'
p138
aS'#000000'
p139
aF11.0
aI0
aI00
aI00
aI00
aI00
aI00
aI00
aI00
aI00
aa(lp140
I91186
aF392.624
aF167.692
aVp1
p141
aS'dejavuserif'
p142
aS'#000000'
p143
aF11.0
aI0
aI00
aI00
aI00
aI00
aI00
aI00
aI00
aI00
aa(lp144
I136661
aF461.231
aF167.692
aVp1
p145
aS'dejavuserif'
p146
aS'#000000'
p147
aF11.0
aI0
aI00
aI00
aI00
aI00
aI00
aI00
aI00
aI00
aa(lp148
I234378
aF490.70183333333335
aF167.692
ag145
aS'dejavuserif'
p149
aS'#000000'
p150
aF11.0
aI0
aI00
aI00
aI00
aI00
aI00
aI00
aI00
aI00
aa(lp151
I25931
aF88.1
aF181.592
aVp1
p152
aS'dejavuserif'
p153
aS'#000000'
p154
aF11.0
aI0
aI01
aI00
aI00
aI00
aI00
aI00
aI00
aI00
aa(lp155
I38047
aF125.159
aF181.592
aVp1
p156
aS'dejavuserif'
p157
aS'#000000'
p158
aF11.0
aI0
aI00
aI00
aI00
aI00
aI00
aI00
aI00
aI00
aa(lp159
I234378
aF163.197
aF181.592
aVp1
p160
aS'dejavuserif'
p161
aS'#000000'
p162
aF11.0
aI0
aI00
aI00
aI00
aI00
aI00
aI00
aI00
aI00
aa(lp163
I169745
aF188.673
aF181.592
aVp1
p164
aS'dejavuserif'
p165
aS'#000000'
p166
aF11.0
aI0
aI00
aI00
aI00
aI00
aI00
aI00
aI00
aI00
aa(lp167
I60220
aF216.756
aF181.592
aVp1
p168
aS'dejavuserif'
p169
aS'#000000'
p170
aF11.0
aI0
aI00
aI00
aI00
aI00
aI00
aI00
aI00
aI00
aa(lp171
I135639
aF281.689
aF181.592
aVp1
p172
aS'dejavuserif'
p173
aS'#000000'
p174
aF11.0
aI0
aI00
aI00
aI00
aI00
aI00
aI00
aI00
aI00
aa(lp175
I12878
aF295.857
aF181.592
aVp1
p176
aS'dejavuserif'
p177
aS'#000000'
p178
aF11.0
aI0
aI00
aI00
aI00
aI00
aI00
aI00
aI00
aI00
aa(lp179
I101862
aF370.173
aF181.592
aVp1
p180
aS'dejavuserif'
p181
aS'#000000'
p182
aF11.0
aI0
aI00
aI00
aI00
aI00
aI00
aI00
aI00
aI00
aa(lp183
I15429
aF390.347
aF181.592
aVp1
p184
aS'dejavuserif'
p185
aS'#000000'
p186
aF11.0
aI0
aI00
aI00
aI00
aI00
aI00
aI00
aI00
aI00
aa(lp187
I234378
aF402.42699999999996
aF181.592
ag184
aS'dejavuserif'
p188
aS'#000000'
p189
aF11.0
aI0
aI00
aI00
aI00
aI00
aI00
aI00
aI00
aI00
aa(lp190
I234378
aF408.467
aF181.592
ag184
aS'dejavuserif'
p191
aS'#000000'
p192
aF11.0
aI0
aI00
aI00
aI00
aI00
aI00
aI00
aI00
aI00
aa(lp193
I85218
aF460.417
aF181.592
aVp1
p194
aS'dejavuserif'
p195
aS'#000000'
p196
aF11.0
aI0
aI00
aI00
aI00
aI00
aI00
aI00
aI00
aI00
aa(lp197
I234378
aF484.672
aF181.592
aVp1
p198
aS'dejavuserif'
p199
aS'#000000'
p200
aF11.0
aI0
aI00
aI00
aI00
aI00
aI00
aI00
aI00
aI00
aa(lp201
I207716
aF88.1
aF196.392
aVp1
p202
aS'dejavuserif'
p203
aS'#000000'
p204
aF11.0
aI0
aI01
aI00
aI00
aI00
aI00
aI00
aI00
aI00
aa(lp205
I141687
aF141.571
aF196.392
aVp1
p206
aS'dejavuserif'
p207
aS'#000000'
p208
aF11.0
aI0
aI01
aI00
aI00
aI00
aI00
aI00
aI00
aI00
aa(lp209
I121847
aF217.207
aF196.392
aVp1
p210
aS'dejavuserif'
p211
aS'#000000'
p212
aF11.0
aI0
aI01
aI00
aI00
aI00
aI00
aI00
aI00
aI00
aa(lp213
I234378
aF252.968
aF196.392
aVp1
p214
aS'dejavuserif'
p215
aS'#000000'
p216
aF11.0
aI0
aI00
aI00
aI00
aI00
aI00
aI00
aI00
aI00
aa(lp217
I24757
aF258.17833333333334
aF196.392
ag214
aS'dejavuserif'
p218
aS'#000000'
p219
aF11.0
aI0
aI01
aI01
aI00
aI00
aI00
aI00
aI00
aI00
aa(lp220
I234378
aF273.80933333333337
aF196.392
ag214
aS'dejavuserif'
p221
aS'#000000'
p222
aF11.0
aI0
aI00
aI00
aI00
aI00
aI00
aI00
aI00
aI00
aa(lp223
I234378
aF279.0196666666667
aF196.392
ag214
aS'dejavuserif'
p224
aS'#000000'
p225
aF11.0
aI0
aI00
aI00
aI00
aI00
aI00
aI00
aI00
aI00
aa(lp226
I137949
aF297.012
aF196.392
aVp1
p227
aS'dejavuserif'
p228
aS'#000000'
p229
aF11.0
aI0
aI01
aI00
aI00
aI00
aI00
aI00
aI00
aI00
aa(lp230
I192460
aF336.469
aF196.392
aVp1
p231
aS'dejavuserif'
p232
aS'#000000'
p233
aF11.0
aI0
aI01
aI00
aI00
aI00
aI00
aI00
aI00
aI00
aa(lp234
I121847
aF413.7
aF196.392
aVp1
p235
aS'dejavuserif'
p236
aS'#000000'
p237
aF11.0
aI0
aI01
aI00
aI00
aI00
aI00
aI00
aI00
aI00
aa(lp238
I234378
aF449.571
aF196.392
aVp1
p239
aS'dejavuserif'
p240
aS'#000000'
p241
aF11.0
aI0
aI00
aI00
aI00
aI00
aI00
aI00
aI00
aI00
aa(lp242
I234378
aF455.5
aF196.392
ag239
aS'dejavuserif'
p243
aS'#000000'
p244
aF11.0
aI0
aI01
aI01
aI00
aI00
aI00
aI00
aI00
aI00
aa(lp245
I234378
aF473.287
aF196.392
ag239
aS'dejavuserif'
p246
aS'#000000'
p247
aF11.0
aI0
aI00
aI00
aI00
aI00
aI00
aI00
aI00
aI00
aa(lp248
I234378
aF479.21599999999995
aF196.392
ag239
aS'dejavuserif'
p249
aS'#000000'
p250
aF11.0
aI0
aI00
aI00
aI00
aI00
aI00
aI00
aI00
aI00
aa(lp251
I25691
aF497.927
aF196.392
aVp1
p252
aS'dejavuserif'
p253
aS'#000000'
p254
aF11.0
aI0
aI00
aI00
aI00
aI00
aI00
aI00
aI00
aI00
aa(lp255
I137949
aF517.229625
aF196.392
ag252
aS'dejavuserif'
p256
aS'#000000'
p257
aF11.0
aI0
aI00
aI00
aI00
aI00
aI00
aI00
aI00
aI00
aa(lp258
I103666
aF88.1
aF210.392
aVp1
p259
aS'dejavuserif'
p260
aS'#000000'
p261
aF11.0
aI0
aI00
aI00
aI00
aI00
aI00
aI00
aI00
aI00
aa(lp262
I234378
aF133.6565
aF210.392
ag259
aS'dejavuserif'
p263
aS'#000000'
p264
aF11.0
aI0
aI00
aI00
aI00
aI00
aI00
aI00
aI00
aI00
aa(lp265
I147316
aF139.35106249999998
aF210.392
ag259
aS'dejavuserif'
p266
aS'#000000'
p267
aF11.0
aI0
aI00
aI00
aI00
aI00
aI00
aI00
aI00
aI00
aa(lp268
I234378
aF70.1
aF224.611
aVp1
p269
aS'opensymbol'
p270
aS'#000000'
p271
aF11.0
aI0
aI01
aI00
aI00
aI00
aI00
aI00
aI00
aI00
aa(lp272
I144483
aF115.151
aF223.192
aVp1
p273
aS'dejavuserif'
p274
aS'#000000'
p275
aF11.0
aI0
aI00
aI00
aI00
aI00
aI00
aI00
aI00
aI00
aa(lp276
I135639
aF133.026
aF223.192
aVp1
p277
aS'dejavuserif'
p278
aS'#000000'
p279
aF11.0
aI0
aI00
aI00
aI00
aI00
aI00
aI00
aI00
aI00
aa(lp280
I89347
aF147.799
aF223.192
aVp1
p281
aS'dejavuserif'
p282
aS'#000000'
p283
aF11.0
aI0
aI01
aI00
aI00
aI00
aI00
aI00
aI00
aI00
aa(lp284
I74911
aF203.525
aF223.192
aVp1
p285
aS'dejavuserif'
p286
aS'#000000'
p287
aF11.0
aI0
aI01
aI00
aI00
aI00
aI00
aI00
aI00
aI00
aa(lp288
I45284
aF273.65
aF223.192
aVp1
p289
aS'dejavuserif'
p290
aS'#000000'
p291
aF11.0
aI0
aI01
aI00
aI00
aI00
aI00
aI00
aI00
aI00
aa(lp292
I234378
aF332.456
aF223.192
aVp1
p293
aS'dejavuserif'
p294
aS'#000000'
p295
aF11.0
aI0
aI00
aI00
aI00
aI00
aI00
aI00
aI00
aI00
aa(lp296
I1507
aF338.12980000000005
aF223.192
ag293
aS'dejavuserif'
p297
aS'#000000'
p298
aF11.0
aI0
aI01
aI01
aI00
aI00
aI00
aI00
aI00
aI00
aa(lp299
I234378
aF355.1512
aF223.192
ag293
aS'dejavuserif'
p300
aS'#000000'
p301
aF11.0
aI0
aI00
aI00
aI00
aI00
aI00
aI00
aI00
aI00
aa(lp302
I68032
aF365.005
aF223.192
aVp1
p303
aS'dejavuserif'
p304
aS'#000000'
p305
aF11.0
aI0
aI00
aI00
aI00
aI00
aI00
aI00
aI00
aI00
aa(lp306
I85218
aF441.037
aF223.192
aVp1
p307
aS'dejavuserif'
p308
aS'#000000'
p309
aF11.0
aI0
aI00
aI00
aI00
aI00
aI00
aI00
aI00
aI00
aa(lp310
I234378
aF465.897
aF223.192
aVp1
p311
aS'dejavuserif'
p312
aS'#000000'
p313
aF11.0
aI0
aI00
aI00
aI00
aI00
aI00
aI00
aI00
aI00
aa(lp314
I234378
aF523.1199166666667
aF223.192
ag311
aS'dejavuserif'
p315
aS'#000000'
p316
aF11.0
aI0
aI00
aI00
aI00
aI00
aI00
aI00
aI00
aI00
aa(lp317
I144483
aF532.513
aF223.192
aVp1
p318
aS'dejavuserif'
p319
aS'#000000'
p320
aF11.0
aI0
aI00
aI00
aI00
aI00
aI00
aI00
aI00
aI00
aa(lp321
I212372
aF88.1
aF237.992
aVp1
p322
aS'dejavuserif'
p323
aS'#000000'
p324
aF11.0
aI0
aI00
aI00
aI00
aI00
aI00
aI00
aI00
aI00
aa(lp325
I10952
aF141.637
aF237.992
aVp1
p326
aS'dejavuserif'
p327
aS'#000000'
p328
aF11.0
aI0
aI00
aI00
aI00
aI00
aI00
aI00
aI00
aI00
aa(lp329
I234378
aF177.992
aF237.992
aVp1
p330
aS'dejavuserif'
p331
aS'#000000'
p332
aF11.0
aI0
aI01
aI01
aI00
aI00
aI00
aI00
aI00
aI00
aa(lp333
I85218
aF196.967
aF237.992
aVp1
p334
aS'dejavuserif'
p335
aS'#000000'
p336
aF11.0
aI0
aI00
aI00
aI00
aI00
aI00
aI00
aI00
aI00
aa(lp337
I234378
aF221.123
aF237.992
aVp1
p338
aS'dejavuserif'
p339
aS'#000000'
p340
aF11.0
aI0
aI01
aI01
aI00
aI00
aI00
aI00
aI00
aI00
aa(lp341
I3011
aF241.605
aF237.992
aVp1
p342
aS'dejavuserif'
p343
aS'#000000'
p344
aF11.0
aI0
aI00
aI00
aI00
aI00
aI00
aI00
aI00
aI00
aa(lp345
I234378
aF300.862
aF237.992
aVp1
p346
aS'dejavuserif'
p347
aS'#000000'
p348
aF11.0
aI0
aI00
aI00
aI00
aI00
aI00
aI00
aI00
aI00
aa(lp349
I234378
aF368.919
aF237.992
aVp1
p350
aS'dejavuserif'
p351
aS'#000000'
p352
aF11.0
aI0
aI00
aI00
aI00
aI00
aI00
aI00
aI00
aI00
aa(lp353
I234378
aF404.1465
aF237.992
ag350
aS'dejavuserif'
p354
aS'#000000'
p355
aF11.0
aI0
aI00
aI00
aI00
aI00
aI00
aI00
aI00
aI00
aa(lp356
I195547
aF70.1
aF252.211
aVp1
p357
aS'opensymbol'
p358
aS'#000000'
p359
aF11.0
aI0
aI01
aI00
aI00
aI00
aI00
aI00
aI00
aI00
aa(lp360
I111798
aF123.456
aF250.792
aVp1
p361
aS'dejavuserif'
p362
aS'#000000'
p363
aF11.0
aI0
aI00
aI00
aI00
aI00
aI00
aI00
aI00
aI00
aa(lp364
I144489
aF215.141
aF250.792
aVp1
p365
aS'dejavuserif'
p366
aS'#000000'
p367
aF11.0
aI0
aI00
aI00
aI00
aI00
aI00
aI00
aI00
aI00
aa(lp368
I127135
aF236.217
aF250.792
aVp1
p369
aS'dejavuserif'
p370
aS'#000000'
p371
aF11.0
aI0
aI00
aI00
aI00
aI00
aI00
aI00
aI00
aI00
aa(lp372
I234378
aF277.071
aF250.792
aVp1
p373
aS'dejavuserif'
p374
aS'#000000'
p375
aF11.0
aI0
aI00
aI00
aI00
aI00
aI00
aI00
aI00
aI00
aa(lp376
I234378
aF345.4977692307693
aF250.792
ag373
aS'dejavuserif'
p377
aS'#000000'
p378
aF11.0
aI0
aI00
aI00
aI00
aI00
aI00
aI00
aI00
aI00
aa(lp379
I234378
aF361.683
aF250.792
aVp1
p380
aS'dejavuserif'
p381
aS'#000000'
p382
aF11.0
aI0
aI00
aI00
aI00
aI00
aI00
aI00
aI00
aI00
aa(lp383
I122648
aF424.097
aF250.792
aVp1
p384
aS'dejavuserif'
p385
aS'#000000'
p386
aF11.0
aI0
aI00
aI00
aI00
aI00
aI00
aI00
aI00
aI00
aa(lp387
I234378
aF459.691625
aF250.792
ag384
aS'dejavuserif'
p388
aS'#000000'
p389
aF11.0
aI0
aI00
aI00
aI00
aI00
aI00
aI00
aI00
aI00
aa(lp390
I95215
aF465.6240625
aF250.792
ag384
aS'dejavuserif'
p391
aS'#000000'
p392
aF11.0
aI0
aI00
aI00
aI00
aI00
aI00
aI00
aI00
aI00
aa(lp393
I234378
aF513.0835625
aF250.792
ag384
aS'dejavuserif'
p394
aS'#000000'
p395
aF11.0
aI0
aI00
aI00
aI00
aI00
aI00
aI00
aI00
aI00
aa(lp396
I234378
aF529.499
aF250.792
aVp1
p397
aS'dejavuserif'
p398
aS'#000000'
p399
aF11.0
aI0
aI01
aI01
aI00
aI00
aI00
aI00
aI00
aI00
aa(lp400
I234378
aF88.1
aF265.592
aVp1
p401
aS'dejavuserif'
p402
aS'#000000'
p403
aF11.0
aI0
aI00
aI00
aI00
aI00
aI00
aI00
aI00
aI00
aa(lp404
I234378
aF136.2833
aF265.592
ag401
aS'dejavuserif'
p405
aS'#000000'
p406
aF11.0
aI0
aI00
aI00
aI00
aI00
aI00
aI00
aI00
aI00
aa(lp407
I228990
aF145.223
aF265.592
aVp1
p408
aS'dejavuserif'
p409
aS'#000000'
p410
aF11.0
aI0
aI01
aI00
aI00
aI00
aI00
aI00
aI00
aI00
aa(lp411
I127763
aF177.783
aF265.592
aVp1
p412
aS'dejavuserif'
p413
aS'#000000'
p414
aF11.0
aI0
aI00
aI00
aI00
aI00
aI00
aI00
aI00
aI00
aa(lp415
I144489
aF241.726
aF265.592
aVp1
p416
aS'dejavuserif'
p417
aS'#000000'
p418
aF11.0
aI0
aI00
aI00
aI00
aI00
aI00
aI00
aI00
aI00
aa(lp419
I127135
aF255.905
aF265.592
aVp1
p420
aS'dejavuserif'
p421
aS'#000000'
p422
aF11.0
aI0
aI00
aI00
aI00
aI00
aI00
aI00
aI00
aI00
aa(lp423
I234378
aF289.862
aF265.592
aVp1
p424
aS'dejavuserif'
p425
aS'#000000'
p426
aF11.0
aI0
aI00
aI00
aI00
aI00
aI00
aI00
aI00
aI00
aa(lp427
I234378
aF348.90200000000004
aF265.592
ag424
aS'dejavuserif'
p428
aS'#000000'
p429
aF11.0
aI0
aI00
aI00
aI00
aI00
aI00
aI00
aI00
aI00
aa(lp430
I85218
aF358.392
aF265.592
aVp1
p431
aS'dejavuserif'
p432
aS'#000000'
p433
aF11.0
aI0
aI00
aI00
aI00
aI00
aI00
aI00
aI00
aI00
aa(lp434
I228643
aF382.548
aF265.592
aVp1
p435
aS'dejavuserif'
p436
aS'#000000'
p437
aF11.0
aI0
aI01
aI00
aI00
aI00
aI00
aI00
aI00
aI00
aa(lp438
I190806
aF411.412
aF265.592
aVp1
p439
aS'dejavuserif'
p440
aS'#000000'
p441
aF11.0
aI0
aI00
aI00
aI00
aI00
aI00
aI00
aI00
aI00
aa(lp442
I234378
aF430.882
aF265.592
aVp1
p443
aS'dejavuserif'
p444
aS'#000000'
p445
aF11.0
aI0
aI01
aI01
aI00
aI00
aI00
aI00
aI00
aI00
aa(lp446
I234378
aF452.91775
aF265.592
ag443
aS'dejavuserif'
p447
aS'#000000'
p448
aF11.0
aI0
aI00
aI00
aI00
aI00
aI00
aI00
aI00
aI00
aa(lp449
I81072
aF463.849
aF265.592
aVp1
p450
aS'dejavuserif'
p451
aS'#000000'
p452
aF11.0
aI0
aI01
aI00
aI00
aI00
aI00
aI00
aI00
aI00
aa(lp453
I123583
aF499.896
aF265.592
aVp1
p454
aS'dejavuserif'
p455
aS'#000000'
p456
aF11.0
aI0
aI01
aI00
aI00
aI00
aI00
aI00
aI00
aI00
aa(lp457
I60220
aF88.1
aF279.492
aVp1
p458
aS'dejavuserif'
p459
aS'#000000'
p460
aF11.0
aI0
aI00
aI00
aI00
aI00
aI00
aI00
aI00
aI00
aa(lp461
I144483
aF152.846
aF279.492
aVp1
p462
aS'dejavuserif'
p463
aS'#000000'
p464
aF11.0
aI0
aI00
aI00
aI00
aI00
aI00
aI00
aI00
aI00
aa(lp465
I234378
aF170.017
aF279.492
aVp1
p466
aS'dejavuserif'
p467
aS'#000000'
p468
aF11.0
aI0
aI01
aI01
aI00
aI00
aI00
aI00
aI00
aI00
aa(lp469
I234378
aF192.0445
aF279.492
ag466
aS'dejavuserif'
p470
aS'#000000'
p471
aF11.0
aI0
aI00
aI00
aI00
aI00
aI00
aI00
aI00
aI00
aa(lp472
I60220
aF88.1
aF292.292
aVp1
p473
aS'dejavuserif'
p474
aS'#000000'
p475
aF11.0
aI0
aI01
aI00
aI00
aI00
aI00
aI00
aI00
aI00
aa(lp476
I135639
aF154.529
aF292.292
aVp1
p477
aS'dejavuserif'
p478
aS'#000000'
p479
aF11.0
aI0
aI00
aI00
aI00
aI00
aI00
aI00
aI00
aI00
aa(lp480
I234378
aF168.807
aF292.292
aVp1
p481
aS'dejavuserif'
p482
aS'#000000'
p483
aF11.0
aI0
aI01
aI00
aI00
aI00
aI00
aI00
aI00
aI00
aa(lp484
I234378
aF208.66
aF292.292
aVp1
p485
aS'dejavuserif'
p486
aS'#000000'
p487
aF11.0
aI0
aI00
aI00
aI00
aI00
aI00
aI00
aI00
aI00
aa(lp488
I59181
aF221.06446153846153
aF292.292
ag485
aS'dejavuserif'
p489
aS'#000000'
p490
aF11.0
aI0
aI00
aI00
aI00
aI00
aI00
aI00
aI00
aI00
aa(lp491
I190806
aF286.485
aF292.292
aVp1
p492
aS'dejavuserif'
p493
aS'#000000'
p494
aF11.0
aI0
aI00
aI00
aI00
aI00
aI00
aI00
aI00
aI00
aa(lp495
I137949
aF306.153
aF292.292
aVp1
p496
aS'dejavuserif'
p497
aS'#000000'
p498
aF11.0
aI0
aI00
aI00
aI00
aI00
aI00
aI00
aI00
aI00
aa(lp499
I192460
aF334.313
aF292.292
aVp1
p500
aS'dejavuserif'
p501
aS'#000000'
p502
aF11.0
aI0
aI01
aI00
aI00
aI00
aI00
aI00
aI00
aI00
aa(lp503
I121847
aF402.447
aF292.292
aVp1
p504
aS'dejavuserif'
p505
aS'#000000'
p506
aF11.0
aI0
aI01
aI00
aI00
aI00
aI00
aI00
aI00
aI00
aa(lp507
I234378
aF429.111
aF292.292
aVp1
p508
aS'dejavuserif'
p509
aS'#000000'
p510
aF11.0
aI0
aI00
aI00
aI00
aI00
aI00
aI00
aI00
aI00
aa(lp511
I234378
aF435.711
aF292.292
ag508
aS'dejavuserif'
p512
aS'#000000'
p513
aF11.0
aI0
aI01
aI01
aI00
aI00
aI00
aI00
aI00
aI00
aa(lp514
I234378
aF455.511
aF292.292
ag508
aS'dejavuserif'
p515
aS'#000000'
p516
aF11.0
aI0
aI00
aI00
aI00
aI00
aI00
aI00
aI00
aI00
aa(lp517
I85218
aF462.11100000000005
aF292.292
ag508
aS'dejavuserif'
p518
aS'#000000'
p519
aF11.0
aI0
aI00
aI00
aI00
aI00
aI00
aI00
aI00
aI00
aa(lp520
I3878
aF485.651
aF292.292
aVp1
p521
aS'dejavuserif'
p522
aS'#000000'
p523
aF11.0
aI0
aI00
aI00
aI00
aI00
aI00
aI00
aI00
aI00
aa(lp524
I101862
aF88.1
aF305.992
aVp1
p525
aS'dejavuserif'
p526
aS'#000000'
p527
aF11.0
aI0
aI00
aI00
aI00
aI00
aI00
aI00
aI00
aI00
aa(lp528
I15429
aF108.087
aF305.992
aVp1
p529
aS'dejavuserif'
p530
aS'#000000'
p531
aF11.0
aI0
aI00
aI00
aI00
aI00
aI00
aI00
aI00
aI00
aa(lp532
I234378
aF119.79833333333333
aF305.992
ag529
aS'dejavuserif'
p533
aS'#000000'
p534
aF11.0
aI0
aI00
aI00
aI00
aI00
aI00
aI00
aI00
aI00
aa(lp535
I231013
aF70.1
aF320.211
aVp1
p536
aS'opensymbol'
p537
aS'#000000'
p538
aF11.0
aI0
aI01
aI00
aI00
aI00
aI00
aI00
aI00
aI00
aa(lp539
I155968
aF99.773
aF318.792
aVp1
p540
aS'dejavuserif'
p541
aS'#000000'
p542
aF11.0
aI0
aI00
aI00
aI00
aI00
aI00
aI00
aI00
aI00
aa(lp543
I135639
aF138.834
aF318.792
aVp1
p544
aS'dejavuserif'
p545
aS'#000000'
p546
aF11.0
aI0
aI00
aI00
aI00
aI00
aI00
aI00
aI00
aI00
aa(lp547
I234378
aF153.508
aF318.792
aVp1
p548
aS'dejavuserif'
p549
aS'#000000'
p550
aF11.0
aI0
aI00
aI00
aI00
aI00
aI00
aI00
aI00
aI00
aa(lp551
I234378
aF212.501
aF318.792
aVp1
p552
aS'dejavuserif'
p553
aS'#000000'
p554
aF11.0
aI0
aI01
aI00
aI00
aI00
aI00
aI00
aI00
aI00
aa(lp555
I59734
aF242.72171428571428
aF318.792
ag552
aS'dejavuserif'
p556
aS'#000000'
p557
aF11.0
aI0
aI00
aI00
aI00
aI00
aI00
aI00
aI00
aI00
aa(lp558
I125801
aF257.436
aF318.792
aVp1
p559
aS'dejavuserif'
p560
aS'#000000'
p561
aF11.0
aI0
aI00
aI00
aI00
aI00
aI00
aI00
aI00
aI00
aa(lp562
I127135
aF284.1
aF318.792
aVp1
p563
aS'dejavuserif'
p564
aS'#000000'
p565
aF11.0
aI0
aI00
aI00
aI00
aI00
aI00
aI00
aI00
aI00
aa(lp566
I234378
aF318.552
aF318.792
aVp1
p567
aS'dejavuserif'
p568
aS'#000000'
p569
aF11.0
aI0
aI00
aI00
aI00
aI00
aI00
aI00
aI00
aI00
aa(lp570
I234378
aF359.901
aF318.792
aVp1
p571
aS'dejavuserif'
p572
aS'#000000'
p573
aF11.0
aI0
aI01
aI00
aI00
aI00
aI00
aI00
aI00
aI00
aa(lp574
I234378
aF392.065
aF318.792
aVp1
p575
aS'dejavuserif'
p576
aS'#000000'
p577
aF11.0
aI0
aI01
aI00
aI00
aI00
aI00
aI00
aI00
aI00
aa(lp578
I209864
aF425.901
aF318.792
aVp1
p579
aS'dejavuserif'
p580
aS'#000000'
p581
aF11.0
aI0
aI01
aI00
aI00
aI00
aI00
aI00
aI00
aI00
aa(lp582
I234378
aF467.063
aF318.792
aVp1
p583
aS'dejavuserif'
p584
aS'#000000'
p585
aF11.0
aI0
aI01
aI01
aI00
aI00
aI00
aI00
aI00
aI00
aa(lp586
I129342
aF498.82
aF318.792
aVp1
p587
aS'dejavuserif'
p588
aS'#000000'
p589
aF11.0
aI0
aI00
aI00
aI00
aI00
aI00
aI00
aI00
aI00
aa(lp590
I190806
aF88.1
aF333.592
aVp1
p591
aS'dejavuserif'
p592
aS'#000000'
p593
aF11.0
aI0
aI00
aI00
aI00
aI00
aI00
aI00
aI00
aI00
aa(lp594
I153171
aF108.967
aF333.592
aVp1
p595
aS'dejavuserif'
p596
aS'#000000'
p597
aF11.0
aI0
aI01
aI00
aI00
aI00
aI00
aI00
aI00
aI00
aa(lp598
I154089
aF150.118
aF333.592
aVp1
p599
aS'dejavuserif'
p600
aS'#000000'
p601
aF11.0
aI0
aI01
aI00
aI00
aI00
aI00
aI00
aI00
aI00
aa(lp602
I63022
aF215.843
aF333.592
aVp1
p603
aS'dejavuserif'
p604
aS'#000000'
p605
aF11.0
aI0
aI01
aI00
aI00
aI00
aI00
aI00
aI00
aI00
aa(lp606
I234378
aF264.694
aF333.592
aVp1
p607
aS'dejavuserif'
p608
aS'#000000'
p609
aF11.0
aI0
aI00
aI00
aI00
aI00
aI00
aI00
aI00
aI00
aa(lp610
I234378
aF271.37012000000004
aF333.592
ag607
aS'dejavuserif'
p611
aS'#000000'
p612
aF11.0
aI0
aI01
aI01
aI00
aI00
aI00
aI00
aI00
aI00
aa(lp613
I234378
aF291.39848000000006
aF333.592
ag607
aS'dejavuserif'
p614
aS'#000000'
p615
aF11.0
aI0
aI00
aI00
aI00
aI00
aI00
aI00
aI00
aI00
aa(lp616
I234378
aF298.0746000000001
aF333.592
ag607
aS'dejavuserif'
p617
aS'#000000'
p618
aF11.0
aI0
aI01
aI01
aI00
aI00
aI00
aI00
aI00
aI00
aa(lp619
I234378
aF314.1029600000001
aF333.592
ag607
aS'dejavuserif'
p620
aS'#000000'
p621
aF11.0
aI0
aI00
aI00
aI00
aI00
aI00
aI00
aI00
aI00
aa(lp622
I234378
aF324.77908000000014
aF333.592
ag607
aS'dejavuserif'
p623
aS'#000000'
p624
aF11.0
aI0
aI01
aI00
aI00
aI00
aI00
aI00
aI00
aI00
aa(lp625
I234378
aF387.8925200000001
aF333.592
ag607
aS'dejavuserif'
p626
aS'#000000'
p627
aF11.0
aI0
aI00
aI00
aI00
aI00
aI00
aI00
aI00
aI00
aa(lp628
I234378
aF411.56864000000013
aF333.592
ag607
aS'dejavuserif'
p629
aS'#000000'
p630
aF11.0
aI0
aI01
aI01
aI00
aI00
aI00
aI00
aI00
aI00
aa(lp631
I234378
aF436.558
aF333.592
aVp1
p632
aS'dejavuserif'
p633
aS'#000000'
p634
aF11.0
aI0
aI01
aI00
aI00
aI00
aI00
aI00
aI00
aI00
aa(lp635
I234378
aF478.166875
aF333.592
ag632
aS'dejavuserif'
p636
aS'#000000'
p637
aF11.0
aI0
aI00
aI00
aI00
aI00
aI00
aI00
aI00
aI00
aa(lp638
I169745
aF489.105
aF333.592
aVp1
p639
aS'dejavuserif'
p640
aS'#000000'
p641
aF11.0
aI0
aI00
aI00
aI00
aI00
aI00
aI00
aI00
aI00
aa(lp642
I205394
aF518.486
aF333.592
aVp1
p643
aS'dejavuserif'
p644
aS'#000000'
p645
aF11.0
aI0
aI00
aI00
aI00
aI00
aI00
aI00
aI00
aI00
aa(lp646
I69790
aF88.1
aF347.492
aVp1
p647
aS'dejavuserif'
p648
aS'#000000'
p649
aF11.0
aI0
aI00
aI00
aI00
aI00
aI00
aI00
aI00
aI00
aa(lp650
I85218
aF144.761
aF347.492
aVp1
p651
aS'dejavuserif'
p652
aS'#000000'
p653
aF11.0
aI0
aI00
aI00
aI00
aI00
aI00
aI00
aI00
aI00
aa(lp654
I164851
aF168.829
aF347.492
aVp1
p655
aS'dejavuserif'
p656
aS'#000000'
p657
aF11.0
aI0
aI00
aI00
aI00
aI00
aI00
aI00
aI00
aI00
aa(lp658
I2555
aF202.995
aF347.492
aVp1
p659
aS'dejavuserif'
p660
aS'#000000'
p661
aF11.0
aI0
aI00
aI00
aI00
aI00
aI00
aI00
aI00
aI00
aa(lp662
I25729
aF260.536
aF347.492
aVp1
p663
aS'dejavuserif'
p664
aS'#000000'
p665
aF11.0
aI0
aI00
aI00
aI00
aI00
aI00
aI00
aI00
aI00
aa(lp666
I192651
aF290.291
aF347.492
aVp1
p667
aS'dejavuserif'
p668
aS'#000000'
p669
aF11.0
aI0
aI00
aI00
aI00
aI00
aI00
aI00
aI00
aI00
aa(lp670
I114954
aF307.066
aF347.492
aVp1
p671
aS'dejavuserif'
p672
aS'#000000'
p673
aF11.0
aI0
aI00
aI00
aI00
aI00
aI00
aI00
aI00
aI00
aa(lp674
I83140
aF356.511
aF347.492
aVp1
p675
aS'dejavuserif'
p676
aS'#000000'
p677
aF11.0
aI0
aI01
aI00
aI00
aI00
aI00
aI00
aI00
aI00
aa(lp678
I234378
aF399.873
aF347.492
aVp1
p679
aS'dejavuserif'
p680
aS'#000000'
p681
aF11.0
aI0
aI01
aI00
aI00
aI00
aI00
aI00
aI00
aI00
aa(lp682
I234378
aF431.0763333333333
aF347.492
ag679
aS'dejavuserif'
p683
aS'#000000'
p684
aF11.0
aI0
aI00
aI00
aI00
aI00
aI00
aI00
aI00
aI00
aa(lp685
I222718
aF88.1
aF360.292
aVp1
p686
aS'dejavuserif'
p687
aS'#000000'
p688
aF11.0
aI0
aI01
aI00
aI00
aI00
aI00
aI00
aI00
aI00
aa(lp689
I169745
aF138.942
aF360.292
aVp1
p690
aS'dejavuserif'
p691
aS'#000000'
p692
aF11.0
aI0
aI00
aI00
aI00
aI00
aI00
aI00
aI00
aI00
aa(lp693
I25691
aF168.026
aF360.292
aVp1
p694
aS'dejavuserif'
p695
aS'#000000'
p696
aF11.0
aI0
aI00
aI00
aI00
aI00
aI00
aI00
aI00
aI00
aa(lp697
I89480
aF186.9285
aF360.292
ag694
aS'dejavuserif'
p698
aS'#000000'
p699
aF11.0
aI0
aI00
aI00
aI00
aI00
aI00
aI00
aI00
aI00
aa(lp700
I25691
aF192.86350000000002
aF360.292
ag694
aS'dejavuserif'
p701
aS'#000000'
p702
aF11.0
aI0
aI00
aI00
aI00
aI00
aI00
aI00
aI00
aI00
aa(lp703
I158810
aF232.244
aF360.292
aVp1
p704
aS'dejavuserif'
p705
aS'#000000'
p706
aF11.0
aI0
aI00
aI00
aI00
aI00
aI00
aI00
aI00
aI00
aa(lp707
I234378
aF260.778
aF360.292
ag704
aS'dejavuserif'
p708
aS'#000000'
p709
aF11.0
aI0
aI00
aI00
aI00
aI00
aI00
aI00
aI00
aI00
aa(lp710
I125294
aF266.4848
aF360.292
ag704
aS'dejavuserif'
p711
aS'#000000'
p712
aF11.0
aI0
aI00
aI00
aI00
aI00
aI00
aI00
aI00
aI00
aa(lp713
I234378
aF293.987
aF360.292
aVp1
p714
aS'dejavuserif'
p715
aS'#000000'
p716
aF11.0
aI0
aI00
aI00
aI00
aI00
aI00
aI00
aI00
aI00
aa(lp717
I234378
aF344.741
aF360.292
aVp1
p718
aS'dejavuserif'
p719
aS'#000000'
p720
aF11.0
aI0
aI00
aI00
aI00
aI00
aI00
aI00
aI00
aI00
aa(lp721
I234378
aF401.358
aF360.292
aVp1
p722
aS'dejavuserif'
p723
aS'#000000'
p724
aF11.0
aI0
aI00
aI00
aI00
aI00
aI00
aI00
aI00
aI00
aa(lp725
I158810
aF419.7746666666667
aF360.292
ag722
aS'dejavuserif'
p726
aS'#000000'
p727
aF11.0
aI0
aI00
aI00
aI00
aI00
aI00
aI00
aI00
aI00
aa(lp728
I85218
aF458.283
aF360.292
aVp1
p729
aS'dejavuserif'
p730
aS'#000000'
p731
aF11.0
aI0
aI00
aI00
aI00
aI00
aI00
aI00
aI00
aI00
aa(lp732
I209062
aF88.1
aF373.992
aVp1
p733
aS'dejavuserif'
p734
aS'#000000'
p735
aF11.0
aI0
aI00
aI00
aI00
aI00
aI00
aI00
aI00
aI00
aa(lp736
I158810
aF111.9624
aF373.992
ag733
aS'dejavuserif'
p737
aS'#000000'
p738
aF11.0
aI0
aI00
aI00
aI00
aI00
aI00
aI00
aI00
aI00
aa(lp739
I61195
aF148.743
aF373.992
aVp1
p740
aS'dejavuserif'
p741
aS'#000000'
p742
aF11.0
aI0
aI00
aI00
aI00
aI00
aI00
aI00
aI00
aI00
aa(lp743
I234378
aF189.22575
aF373.992
ag740
aS'dejavuserif'
p744
aS'#000000'
p745
aF11.0
aI0
aI00
aI00
aI00
aI00
aI00
aI00
aI00
aI00
aa(lp746
I222718
aF88.1
aF386.792
aVp1
p747
aS'dejavuserif'
p748
aS'#000000'
p749
aF11.0
aI0
aI01
aI00
aI00
aI00
aI00
aI00
aI00
aI00
aa(lp750
I169745
aF145.542
aF386.792
aVp1
p751
aS'dejavuserif'
p752
aS'#000000'
p753
aF11.0
aI0
aI00
aI00
aI00
aI00
aI00
aI00
aI00
aI00
aa(lp754
I127135
aF181.226
aF386.792
aVp1
p755
aS'dejavuserif'
p756
aS'#000000'
p757
aF11.0
aI0
aI00
aI00
aI00
aI00
aI00
aI00
aI00
aI00
aa(lp758
I234378
aF222.795
aF386.792
aVp1
p759
aS'dejavuserif'
p760
aS'#000000'
p761
aF11.0
aI0
aI00
aI00
aI00
aI00
aI00
aI00
aI00
aI00
aa(lp762
I25691
aF293.415
aF386.792
aVp1
p763
aS'dejavuserif'
p764
aS'#000000'
p765
aF11.0
aI0
aI00
aI00
aI00
aI00
aI00
aI00
aI00
aI00
aa(lp766
I89480
aF312.3208
aF386.792
ag763
aS'dejavuserif'
p767
aS'#000000'
p768
aF11.0
aI0
aI00
aI00
aI00
aI00
aI00
aI00
aI00
aI00
aa(lp769
I25691
aF318.25800000000004
aF386.792
ag763
aS'dejavuserif'
p770
aS'#000000'
p771
aF11.0
aI0
aI00
aI00
aI00
aI00
aI00
aI00
aI00
aI00
aa(lp772
I123665
aF364.343
aF386.792
aVp1
p773
aS'dejavuserif'
p774
aS'#000000'
p775
aF11.0
aI0
aI00
aI00
aI00
aI00
aI00
aI00
aI00
aI00
aa(lp776
I50867
aF437.581
aF386.792
aVp1
p777
aS'dejavuserif'
p778
aS'#000000'
p779
aF11.0
aI0
aI00
aI00
aI00
aI00
aI00
aI00
aI00
aI00
aa(lp780
I234378
aF88.1
aF400.392
aVp1
p781
aS'dejavuserif'
p782
aS'#000000'
p783
aF11.0
aI0
aI00
aI00
aI00
aI00
aI00
aI00
aI00
aI00
aa(lp784
I223466
aF143.54
aF400.392
aVp1
p785
aS'dejavuserif'
p786
aS'#000000'
p787
aF11.0
aI0
aI00
aI00
aI00
aI00
aI00
aI00
aI00
aI00
aa(lp788
I218768
aF192.996
aF400.392
aVp1
p789
aS'dejavuserif'
p790
aS'#000000'
p791
aF11.0
aI0
aI00
aI00
aI00
aI00
aI00
aI00
aI00
aI00
aa(lp792
I61195
aF236.248
aF400.392
aVp1
p793
aS'dejavuserif'
p794
aS'#000000'
p795
aF11.0
aI0
aI00
aI00
aI00
aI00
aI00
aI00
aI00
aI00
aa(lp796
I234378
aF276.73075
aF400.392
ag793
aS'dejavuserif'
p797
aS'#000000'
p798
aF11.0
aI0
aI00
aI00
aI00
aI00
aI00
aI00
aI00
aI00
aa(lp799
I234378
aF286.1
aF400.392
aVp1
p800
aS'dejavuserif'
p801
aS'#000000'
p802
aF11.0
aI0
aI00
aI00
aI00
aI00
aI00
aI00
aI00
aI00
aa(lp803
I85218
aF337.272
aF400.392
aVp1
p804
aS'dejavuserif'
p805
aS'#000000'
p806
aF11.0
aI0
aI00
aI00
aI00
aI00
aI00
aI00
aI00
aI00
aa(lp807
I128835
aF361.428
aF400.392
aVp1
p808
aS'dejavuserif'
p809
aS'#000000'
p810
aF11.0
aI0
aI01
aI01
aI00
aI00
aI00
aI00
aI00
aI00
aa(lp811
I234378
aF369.62666666666667
aF400.392
ag808
aS'dejavuserif'
p812
aS'#000000'
p813
aF11.0
aI0
aI00
aI00
aI00
aI00
aI00
aI00
aI00
aI00
aa(lp814
I192210
aF377.82533333333333
aF400.392
ag808
aS'dejavuserif'
p815
aS'#000000'
p816
aF11.0
aI0
aI01
aI01
aI00
aI00
aI00
aI00
aI00
aI00
aa(lp817
I234378
aF389.599
aF400.392
aVp1
p818
aS'dejavuserif'
p819
aS'#000000'
p820
aF11.0
aI0
aI00
aI00
aI00
aI00
aI00
aI00
aI00
aI00
aa(lp821
I19160
aF433.764
aF400.392
aVp1
p822
aS'dejavuserif'
p823
aS'#000000'
p824
aF11.0
aI0
aI00
aI00
aI00
aI00
aI00
aI00
aI00
aI00
aa(lp825
I234378
aF471.3462857142857
aF400.392
ag822
aS'dejavuserif'
p826
aS'#000000'
p827
aF11.0
aI0
aI00
aI00
aI00
aI00
aI00
aI00
aI00
aI00
aa(lp828
I60220
aF88.1
aF413.192
aVp1
p829
aS'dejavuserif'
p830
aS'#000000'
p831
aF11.0
aI0
aI01
aI00
aI00
aI00
aI00
aI00
aI00
aI00
aa(lp832
I135639
aF154.342
aF413.192
aVp1
p833
aS'dejavuserif'
p834
aS'#000000'
p835
aF11.0
aI0
aI00
aI00
aI00
aI00
aI00
aI00
aI00
aI00
aa(lp836
I234378
aF168.411
aF413.192
aVp1
p837
aS'dejavuserif'
p838
aS'#000000'
p839
aF11.0
aI0
aI01
aI01
aI00
aI00
aI00
aI00
aI00
aI00
aa(lp840
I234378
aF203.996
aF413.192
aVp1
p841
aS'dejavuserif'
p842
aS'#000000'
p843
aF11.0
aI0
aI00
aI00
aI00
aI00
aI00
aI00
aI00
aI00
aa(lp844
I234378
aF237.744
aF413.192
aVp1
p845
aS'dejavuserif'
p846
aS'#000000'
p847
aF11.0
aI0
aI00
aI00
aI00
aI00
aI00
aI00
aI00
aI00
aa(lp848
I10716
aF302.259
aF413.192
aVp1
p849
aS'dejavuserif'
p850
aS'#000000'
p851
aF11.0
aI0
aI00
aI00
aI00
aI00
aI00
aI00
aI00
aI00
aa(lp852
I51660
aF325.931
aF413.192
aVp1
p853
aS'dejavuserif'
p854
aS'#000000'
p855
aF11.0
aI0
aI00
aI00
aI00
aI00
aI00
aI00
aI00
aI00
aa(lp856
I131978
aF356.5
aF413.192
aVp1
p857
aS'dejavuserif'
p858
aS'#000000'
p859
aF11.0
aI0
aI00
aI00
aI00
aI00
aI00
aI00
aI00
aI00
aa(lp860
I234378
aF424.36083333333335
aF413.192
ag857
aS'dejavuserif'
p861
aS'#000000'
p862
aF11.0
aI0
aI00
aI00
aI00
aI00
aI00
aI00
aI00
aI00
aa(lp863
I45324
aF434.116
aF413.192
aVp1
p864
aS'dejavuserif'
p865
aS'#000000'
p866
aF11.0
aI0
aI01
aI00
aI00
aI00
aI00
aI00
aI00
aI00
aa(lp867
I234378
aF467.336
aF413.192
ag864
aS'dejavuserif'
p868
aS'#000000'
p869
aF11.0
aI0
aI00
aI00
aI00
aI00
aI00
aI00
aI00
aI00
aa(lp870
I234378
aF477.566
aF413.192
aVp1
p871
aS'dejavuserif'
p872
aS'#000000'
p873
aF11.0
aI0
aI00
aI00
aI00
aI00
aI00
aI00
aI00
aI00
aa(lp874
I234378
aF492.92749999999995
aF413.192
ag871
aS'dejavuserif'
p875
aS'#000000'
p876
aF11.0
aI0
aI00
aI00
aI00
aI00
aI00
aI00
aI00
aI00
aa(lp877
I93005
aF70.1
aF428.311
aVp1
p878
aS'opensymbol'
p879
aS'#000000'
p880
aF11.0
aI0
aI01
aI00
aI00
aI00
aI00
aI00
aI00
aI00
aa(lp881
I234378
aF122.10690909090908
aF428.311
ag878
aS'opensymbol'
p882
aS'#000000'
p883
aF11.0
aI0
aI00
aI00
aI00
aI00
aI00
aI00
aI00
aI00
aa(lp884
I177828
aF145.159
aF426.892
aVp1
p885
aS'dejavuserif'
p886
aS'#000000'
p887
aF11.0
aI0
aI00
aI00
aI00
aI00
aI00
aI00
aI00
aI00
aa(lp888
I234378
aF168.6492857142857
aF426.892
ag885
aS'dejavuserif'
p889
aS'#000000'
p890
aF11.0
aI0
aI00
aI00
aI00
aI00
aI00
aI00
aI00
aI00
aa(lp891
I165938
aF235.315
aF426.892
aVp1
p892
aS'dejavuserif'
p893
aS'#000000'
p894
aF11.0
aI0
aI00
aI00
aI00
aI00
aI00
aI00
aI00
aI00
aa(lp895
I11472
aF314.834
aF426.892
aVp1
p896
aS'dejavuserif'
p897
aS'#000000'
p898
aF11.0
aI0
aI00
aI00
aI00
aI00
aI00
aI00
aI00
aI00
aa(lp899
I161823
aF379.591
aF426.892
aVp1
p900
aS'dejavuserif'
p901
aS'#000000'
p902
aF11.0
aI0
aI00
aI00
aI00
aI00
aI00
aI00
aI00
aI00
aa(lp903
I234378
aF436.153
aF426.892
aVp1
p904
aS'dejavuserif'
p905
aS'#000000'
p906
aF11.0
aI0
aI00
aI00
aI00
aI00
aI00
aI00
aI00
aI00
aa(lp907
I234378
aF484.3561
aF426.892
ag904
aS'dejavuserif'
p908
aS'#000000'
p909
aF11.0
aI0
aI00
aI00
aI00
aI00
aI00
aI00
aI00
aI00
aa(lp910
I123583
aF501.207
aF426.892
aVp1
p911
aS'dejavuserif'
p912
aS'#000000'
p913
aF11.0
aI0
aI00
aI00
aI00
aI00
aI00
aI00
aI00
aI00
aa(lp914
I91834
aF88.1
aF441.692
aVp1
p915
aS'dejavuserif'
p916
aS'#000000'
p917
aF11.0
aI0
aI00
aI00
aI00
aI00
aI00
aI00
aI00
aI00
aa(lp918
I16331
aF170.325
aF441.692
aVp1
p919
aS'dejavuserif'
p920
aS'#000000'
p921
aF11.0
aI0
aI00
aI00
aI00
aI00
aI00
aI00
aI00
aI00
aa(lp922
I166593
aF186.0
aF441.692
aVp1
p923
aS'dejavuserif'
p924
aS'#000000'
p925
aF11.0
aI0
aI00
aI00
aI00
aI00
aI00
aI00
aI00
aI00
aa(lp926
I210461
aF196.076
aF441.692
aVp1
p927
aS'dejavuserif'
p928
aS'#000000'
p929
aF11.0
aI0
aI00
aI00
aI00
aI00
aI00
aI00
aI00
aI00
aa(lp930
I234229
aF227.448
aF441.692
aVp1
p931
aS'dejavuserif'
p932
aS'#000000'
p933
aF11.0
aI0
aI01
aI00
aI00
aI00
aI00
aI00
aI00
aI00
aa(lp934
I85218
aF270.117
aF441.692
aVp1
p935
aS'dejavuserif'
p936
aS'#000000'
p937
aF11.0
aI0
aI00
aI00
aI00
aI00
aI00
aI00
aI00
aI00
aa(lp938
I211048
aF294.185
aF441.692
aVp1
p939
aS'dejavuserif'
p940
aS'#000000'
p941
aF11.0
aI0
aI00
aI00
aI00
aI00
aI00
aI00
aI00
aI00
aa(lp942
I234378
aF369.8626428571429
aF441.692
ag939
aS'dejavuserif'
p943
aS'#000000'
p944
aF11.0
aI0
aI00
aI00
aI00
aI00
aI00
aI00
aI00
aI00
aa(lp945
I128359
aF70.1
aF455.911
aVp1
p946
aS'opensymbol'
p947
aS'#000000'
p948
aF11.0
aI0
aI01
aI00
aI00
aI00
aI00
aI00
aI00
aI00
aa(lp949
I47770
aF135.138
aF454.492
aVp1
p950
aS'dejavuserif'
p951
aS'#000000'
p952
aF11.0
aI0
aI00
aI00
aI00
aI00
aI00
aI00
aI00
aI00
aa(lp953
I234378
aF197.365
aF454.492
aVp1
p954
aS'dejavuserif'
p955
aS'#000000'
p956
aF11.0
aI0
aI00
aI00
aI00
aI00
aI00
aI00
aI00
aI00
aa(lp957
I85218
aF234.006
aF454.492
aVp1
p958
aS'dejavuserif'
p959
aS'#000000'
p960
aF11.0
aI0
aI00
aI00
aI00
aI00
aI00
aI00
aI00
aI00
aa(lp961
I213286
aF262.859
aF454.492
aVp1
p962
aS'dejavuserif'
p963
aS'#000000'
p964
aF11.0
aI0
aI00
aI00
aI00
aI00
aI00
aI00
aI00
aI00
aa(lp965
I135639
aF316.506
aF454.492
aVp1
p966
aS'dejavuserif'
p967
aS'#000000'
p968
aF11.0
aI0
aI00
aI00
aI00
aI00
aI00
aI00
aI00
aI00
aa(lp969
I234378
aF335.283
aF454.492
aVp1
p970
aS'dejavuserif'
p971
aS'#000000'
p972
aF11.0
aI0
aI00
aI00
aI00
aI00
aI00
aI00
aI00
aI00
aa(lp973
I85218
aF406.013
aF454.492
aVp1
p974
aS'dejavuserif'
p975
aS'#000000'
p976
aF11.0
aI0
aI00
aI00
aI00
aI00
aI00
aI00
aI00
aI00
aa(lp977
I234378
aF434.855
aF454.492
aVp1
p978
aS'dejavuserif'
p979
aS'#000000'
p980
aF11.0
aI0
aI00
aI00
aI00
aI00
aI00
aI00
aI00
aI00
aa(lp981
I234378
aF513.868
aF454.492
aVp1
p982
aS'dejavuserif'
p983
aS'#000000'
p984
aF11.0
aI0
aI00
aI00
aI00
aI00
aI00
aI00
aI00
aI00
aa(lp985
I234378
aF540.8363333333334
aF454.492
ag982
aS'dejavuserif'
p986
aS'#000000'
p987
aF11.0
aI0
aI00
aI00
aI00
aI00
aI00
aI00
aI00
aI00
aa(lp988
I234378
aF88.1
aF469.292
aVp1
p989
aS'dejavuserif'
p990
aS'#000000'
p991
aF11.0
aI0
aI00
aI00
aI00
aI00
aI00
aI00
aI00
aI00
aa(lp992
I234378
aF173.042
aF469.292
aVp1
p993
aS'dejavuserif'
p994
aS'#000000'
p995
aF11.0
aI0
aI00
aI00
aI00
aI00
aI00
aI00
aI00
aI00
aa(lp996
I135639
aF224.687
aF469.292
aVp1
p997
aS'dejavuserif'
p998
aS'#000000'
p999
aF11.0
aI0
aI00
aI00
aI00
aI00
aI00
aI00
aI00
aI00
aa(lp1000
I234378
aF242.76
aF469.292
aVp1
p1001
aS'dejavuserif'
p1002
aS'#000000'
p1003
aF11.0
aI0
aI00
aI00
aI00
aI00
aI00
aI00
aI00
aI00
aa(lp1004
I234378
aF310.102
aF469.292
aVp1
p1005
aS'dejavuserif'
p1006
aS'#000000'
p1007
aF11.0
aI0
aI00
aI00
aI00
aI00
aI00
aI00
aI00
aI00
aa(lp1008
I78878
aF353.057
aF469.292
aVp1
p1009
aS'dejavuserif'
p1010
aS'#000000'
p1011
aF11.0
aI0
aI00
aI00
aI00
aI00
aI00
aI00
aI00
aI00
aa(lp1012
I234378
aF405.516
aF469.292
aVp1
p1013
aS'dejavuserif'
p1014
aS'#000000'
p1015
aF11.0
aI0
aI00
aI00
aI00
aI00
aI00
aI00
aI00
aI00
aa(lp1016
I177098
aF466.555
aF469.292
aVp1
p1017
aS'dejavuserif'
p1018
aS'#000000'
p1019
aF11.0
aI0
aI00
aI00
aI00
aI00
aI00
aI00
aI00
aI00
aa(lp1020
I234378
aF88.1
aF483.192
aVp1
p1021
aS'dejavuserif'
p1022
aS'#000000'
p1023
aF11.0
aI0
aI00
aI00
aI00
aI00
aI00
aI00
aI00
aI00
aa(lp1024
I234378
aF115.4075
aF483.192
ag1021
aS'dejavuserif'
p1025
aS'#000000'
p1026
aF11.0
aI0
aI00
aI00
aI00
aI00
aI00
aI00
aI00
aI00
aa(lp1027
I118045
aF52.1
aF526.644
aVp1
p1028
aS'dejavuserif'
p1029
aS'#000000'
p1030
aF12.0
aI1
aI01
aI00
aI00
aI00
aI00
aI00
aI00
aI00
aa(lp1031
I234378
aF121.148
aF526.644
aVp1
p1032
aS'dejavuserif'
p1033
aS'#000000'
p1034
aF12.0
aI1
aI01
aI00
aI00
aI00
aI00
aI00
aI00
aI00
aa(lp1035
I234378
aF210.974
aF526.644
ag1032
aS'dejavuserif'
p1036
aS'#000000'
p1037
aF12.0
aI1
aI00
aI00
aI00
aI00
aI00
aI00
aI00
aI00
aa(lp1038
I169597
aF217.39014285714285
aF526.644
ag1032
aS'dejavuserif'
p1039
aS'#000000'
p1040
aF12.0
aI1
aI00
aI00
aI00
aI00
aI00
aI00
aI00
aI00
aa(lp1041
I24622
aF88.1
aF547.292
aVp1
p1042
aS'dejavuserif'
p1043
aS'#000000'
p1044
aF11.0
aI0
aI01
aI00
aI00
aI00
aI00
aI00
aI00
aI00
aa(lp1045
I144489
aF141.34
aF547.292
aVp1
p1046
aS'dejavuserif'
p1047
aS'#000000'
p1048
aF11.0
aI0
aI00
aI00
aI00
aI00
aI00
aI00
aI00
aI00
aa(lp1049
I199937
aF155.519
aF547.292
aVp1
p1050
aS'dejavuserif'
p1051
aS'#000000'
p1052
aF11.0
aI0
aI01
aI00
aI00
aI00
aI00
aI00
aI00
aI00
aa(lp1053
I234378
aF227.536
aF547.292
aVp1
p1054
aS'dejavuserif'
p1055
aS'#000000'
p1056
aF11.0
aI0
aI00
aI00
aI00
aI00
aI00
aI00
aI00
aI00
aa(lp1057
I74911
aF233.388
aF547.292
ag1054
aS'dejavuserif'
p1058
aS'#000000'
p1059
aF11.0
aI0
aI01
aI00
aI00
aI00
aI00
aI00
aI00
aI00
aa(lp1060
I43052
aF301.357
aF547.292
aVp1
p1061
aS'dejavuserif'
p1062
aS'#000000'
p1063
aF11.0
aI0
aI01
aI00
aI00
aI00
aI00
aI00
aI00
aI00
aa(lp1064
I234378
aF362.677
aF547.292
ag1061
aS'dejavuserif'
p1065
aS'#000000'
p1066
aF11.0
aI0
aI00
aI00
aI00
aI00
aI00
aI00
aI00
aI00
aa(lp1067
I234378
aF456.083
aF547.292
aVp1
p1068
aS'dejavuserif'
p1069
aS'#000000'
p1070
aF11.0
aI0
aI00
aI00
aI01
aI01
aI01
aI00
aI00
aI00
aa(lp1071
I234378
aF470.0236666666667
aF547.292
ag1068
aS'dejavuserif'
p1072
aS'#000000'
p1073
aF11.0
aI0
aI00
aI00
aI00
aI00
aI00
aI00
aI00
aI00
aa(lp1074
I234378
aF476.994
aF547.292
ag1068
aS'dejavuserif'
p1075
aS'#000000'
p1076
aF11.0
aI0
aI00
aI00
aI01
aI01
aI01
aI00
aI00
aI00
aa(lp1077
I234378
aF88.1
aF567.492
aVp1
p1078
aS'dejavuserif'
p1079
aS'#000000'
p1080
aF11.0
aI0
aI01
aI01
aI00
aI00
aI00
aI00
aI00
aI00
aa(lp1081
I234378
aF88.1
aF584.592
aVp1
p1082
aS'dejavuserif'
p1083
aS'#000000'
p1084
aF11.0
aI0
aI00
aI00
aI01
aI01
aI01
aI00
aI00
aI00
aa(lp1085
I234378
aF102.04066666666667
aF584.592
ag1082
aS'dejavuserif'
p1086
aS'#000000'
p1087
aF11.0
aI0
aI00
aI00
aI00
aI00
aI00
aI00
aI00
aI00
aa(lp1088
I234378
aF109.011
aF584.592
ag1082
aS'dejavuserif'
p1089
aS'#000000'
p1090
aF11.0
aI0
aI00
aI00
aI01
aI01
aI01
aI00
aI00
aI00
aa(lp1091
I234378
aF88.1
aF605.392
aVp1
p1092
aS'dejavuserif'
p1093
aS'#000000'
p1094
aF11.0
aI0
aI01
aI01
aI00
aI00
aI00
aI00
aI00
aI00
aa(lp1095
I234378
aF88.1
aF622.492
aVp1
p1096
aS'dejavuserif'
p1097
aS'#000000'
p1098
aF11.0
aI0
aI00
aI00
aI01
aI01
aI01
aI00
aI00
aI00
aa(lp1099
I234378
aF102.04066666666667
aF622.492
ag1096
aS'dejavuserif'
p1100
aS'#000000'
p1101
aF11.0
aI0
aI00
aI00
aI00
aI00
aI00
aI00
aI00
aI00
aa(lp1102
I234378
aF109.011
aF622.492
ag1096
aS'dejavuserif'
p1103
aS'#000000'
p1104
aF11.0
aI0
aI00
aI00
aI01
aI01
aI01
aI00
aI00
aI00
aa(lp1105
I2691
aF88.1
aF638.792
aVp1
p1106
aS'dejavuserif'
p1107
aS'#000000'
p1108
aF11.0
aI0
aI01
aI00
aI00
aI00
aI00
aI00
aI00
aI00
aa(lp1109
I121293
aF113.257
aF638.792
aVp1
p1110
aS'dejavuserif'
p1111
aS'#000000'
p1112
aF11.0
aI0
aI01
aI00
aI00
aI00
aI00
aI00
aI00
aI00
aa(lp1113
I21716
aF165.727
aF638.792
aVp1
p1114
aS'dejavuserif'
p1115
aS'#000000'
p1116
aF11.0
aI0
aI01
aI00
aI00
aI00
aI00
aI00
aI00
aI00
aa(lp1117
I150037
aF192.897
aF638.792
aVp1
p1118
aS'dejavuserif'
p1119
aS'#000000'
p1120
aF11.0
aI0
aI01
aI00
aI00
aI00
aI00
aI00
aI00
aI00
aa(lp1121
I190806
aF267.125
aF638.792
aVp1
p1122
aS'dejavuserif'
p1123
aS'#000000'
p1124
aF11.0
aI0
aI00
aI00
aI00
aI00
aI00
aI00
aI00
aI00
aa(lp1125
I194354
aF286.595
aF638.792
aVp1
p1126
aS'dejavuserif'
p1127
aS'#000000'
p1128
aF11.0
aI0
aI00
aI00
aI00
aI00
aI00
aI00
aI00
aI00
aa(lp1129
I21716
aF308.067
aF638.792
aVp1
p1130
aS'dejavuserif'
p1131
aS'#000000'
p1132
aF11.0
aI0
aI01
aI00
aI00
aI00
aI00
aI00
aI00
aI00
aa(lp1133
I234378
aF335.237
aF638.792
aVp1
p1134
aS'dejavuserif'
p1135
aS'#000000'
p1136
aF11.0
aI0
aI00
aI00
aI01
aI01
aI00
aI00
aI00
aI00
aa(lp1137
I129342
aF345.72
aF638.792
aVp1
p1138
aS'dejavuserif'
p1139
aS'#000000'
p1140
aF11.0
aI0
aI01
aI00
aI00
aI00
aI00
aI00
aI00
aI00
aa(lp1141
I208583
aF397.464
aF638.792
aVp1
p1142
aS'dejavuserif'
p1143
aS'#000000'
p1144
aF11.0
aI0
aI01
aI00
aI00
aI00
aI00
aI00
aI00
aI00
aa(lp1145
I72644
aF452.398
aF638.792
aVp1
p1146
aS'dejavuserif'
p1147
aS'#000000'
p1148
aF11.0
aI0
aI01
aI00
aI00
aI00
aI00
aI00
aI00
aI00
aa(lp1149
I234378
aF496.046
aF638.792
aVp1
p1150
aS'dejavuserif'
p1151
aS'#000000'
p1152
aF11.0
aI0
aI00
aI00
aI01
aI01
aI00
aI00
aI00
aI00
aa(lp1153
I234378
aF501.8723333333333
aF638.792
ag1150
aS'dejavuserif'
p1154
aS'#000000'
p1155
aF11.0
aI0
aI00
aI00
aI00
aI00
aI00
aI00
aI00
aI00
aa(lp1156
I234378
aF507.6986666666666
aF638.792
ag1150
aS'dejavuserif'
p1157
aS'#000000'
p1158
aF11.0
aI0
aI00
aI00
aI01
aI01
aI00
aI00
aI00
aI00
aa(lp1159
I127485
aF52.1
aF678.044
aVp1
p1160
aS'dejavuserif'
p1161
aS'#000000'
p1162
aF12.0
aI1
aI01
aI00
aI00
aI00
aI00
aI00
aI00
aI00
aa(lp1163
I23021
aF100.46
aF678.044
aVp1
p1164
aS'dejavuserif'
p1165
aS'#000000'
p1166
aF12.0
aI1
aI01
aI00
aI00
aI00
aI00
aI00
aI00
aI00
aa(lp1167
I234378
aF88.1
aF709.892
aVp1
p1168
aS'dejavuserif'
p1169
aS'#000000'
p1170
aF11.0
aI0
aI01
aI00
aI00
aI00
aI00
aI00
aI00
aI00
aa(lp1171
I161858
aF130.571
aF709.892
aVp1
p1172
aS'dejavuserif'
p1173
aS'#000000'
p1174
aF11.0
aI0
aI01
aI00
aI00
aI00
aI00
aI00
aI00
aI00
aa(lp1175
I83140
aF201.807
aF709.892
aVp1
p1176
aS'dejavuserif'
p1177
aS'#000000'
p1178
aF11.0
aI0
aI01
aI00
aI00
aI00
aI00
aI00
aI00
aI00
aa(lp1179
I234378
aF252.561
aF709.892
aVp1
p1180
aS'dejavuserif'
p1181
aS'#000000'
p1182
aF11.0
aI0
aI01
aI00
aI00
aI00
aI00
aI00
aI00
aI00
aa(lp1183
I234378
aF269.20125
aF709.892
ag1180
aS'dejavuserif'
p1184
aS'#000000'
p1185
aF11.0
aI0
aI00
aI00
aI00
aI00
aI00
aI00
aI00
aI00
aa(lp1186
I8694
aF340.099
aF709.892
aVp1
p1187
aS'dejavuserif'
p1188
aS'#000000'
p1189
aF11.0
aI0
aI01
aI00
aI00
aI00
aI00
aI00
aI00
aI01
aa(lp1190
I234378
aF390.149
aF709.892
aVp1
p1191
aS'dejavuserif'
p1192
aS'#000000'
p1193
aF11.0
aI0
aI00
aI00
aI01
aI01
aI01
aI00
aI00
aI00
aa(lp1194
I89480
aF429.023
aF709.892
aVp1
p1195
aS'dejavuserif'
p1196
aS'#000000'
p1197
aF11.0
aI0
aI01
aI01
aI00
aI00
aI00
aI00
aI00
aI00
aa(lp1198
I36403
aF456.314
aF709.892
aVp1
p1199
aS'dejavuserif'
p1200
aS'#000000'
p1201
aF11.0
aI0
aI00
aI00
aI00
aI00
aI00
aI00
aI00
aI00
aa(lp1202
I132955
aF482.197
aF709.892
aVp1
p1203
aS'dejavuserif'
p1204
aS'#000000'
p1205
aF11.0
aI0
aI00
aI00
aI00
aI00
aI00
aI00
aI00
aI00
aa(lp1206
I149270
aF88.1
aF723.492
aVp1
p1207
aS'dejavuserif'
p1208
aS'#000000'
p1209
aF11.0
aI0
aI01
aI00
aI00
aI00
aI00
aI00
aI00
aI00
aa(lp1210
I89147
aF144.541
aF723.492
aVp1
p1211
aS'dejavuserif'
p1212
aS'#000000'
p1213
aF11.0
aI0
aI00
aI00
aI00
aI00
aI00
aI00
aI00
aI00
aa(lp1214
I215516
aF88.1
aF743.392
aVp1
p1215
aS'dejavuserif'
p1216
aS'#000000'
p1217
aF11.0
aI0
aI01
aI00
aI00
aI00
aI00
aI00
aI00
aI00
aa(lp1218
I2737
aF131.77
aF743.392
aVp1
p1219
aS'dejavuserif'
p1220
aS'#000000'
p1221
aF11.0
aI0
aI01
aI00
aI00
aI00
aI00
aI00
aI00
aI00
aa(lp1222
I83140
aF162.449
aF743.392
aVp1
p1223
aS'dejavuserif'
p1224
aS'#000000'
p1225
aF11.0
aI0
aI01
aI00
aI00
aI00
aI00
aI00
aI00
aI00
aa(lp1226
I234378
aF206.801
aF743.392
aVp1
p1227
aS'dejavuserif'
p1228
aS'#000000'
p1229
aF11.0
aI0
aI01
aI00
aI00
aI00
aI00
aI00
aI00
aI00
aa(lp1230
I234378
aF297.408
aF743.392
aVp1
p1231
aS'dejavuserif'
p1232
aS'#000000'
p1233
aF11.0
aI0
aI00
aI00
aI01
aI00
aI00
aI00
aI00
aI00
aa(lp1234
I206369
aF320.387
aF743.392
aVp1
p1235
aS'dejavuserif'
p1236
aS'#000000'
p1237
aF11.0
aI0
aI01
aI00
aI00
aI00
aI00
aI00
aI00
aI01
aa(lp1238
I234378
aF369.843
aF743.392
aVp1
p1239
aS'dejavuserif'
p1240
aS'#000000'
p1241
aF11.0
aI0
aI00
aI00
aI01
aI01
aI01
aI00
aI00
aI00
aa(lp1242
I89480
aF402.315
aF743.392
aVp1
p1243
aS'dejavuserif'
p1244
aS'#000000'
p1245
aF11.0
aI0
aI00
aI00
aI00
aI00
aI00
aI00
aI00
aI00
aa(lp1246
I101893
aF417.792
aF743.392
aVp1
p1247
aS'dejavuserif'
p1248
aS'#000000'
p1249
aF11.0
aI0
aI01
aI00
aI00
aI00
aI00
aI00
aI00
aI01
aa(lp1250
I234378
aF443.554
aF743.392
aVp1
p1251
aS'dejavuserif'
p1252
aS'#000000'
p1253
aF11.0
aI0
aI00
aI00
aI01
aI01
aI01
aI00
aI00
aI00
aa(lp1254
I108130
aF507.442
aF743.392
aVp1
p1255
aS'dejavuserif'
p1256
aS'#000000'
p1257
aF11.0
aI0
aI01
aI00
aI00
aI00
aI00
aI00
aI00
aI00
aa(lp1258
I132100
aF88.1
aF757.092
aVp1
p1259
aS'dejavuserif'
p1260
aS'#000000'
p1261
aF11.0
aI0
aI01
aI00
aI00
aI00
aI00
aI00
aI00
aI00
aa(lp1262
I149270
aF52.1
aF796.244
aVp1
p1263
aS'dejavuserif'
p1264
aS'#000000'
p1265
aF12.0
aI1
aI01
aI00
aI00
aI00
aI00
aI00
aI00
aI00
aa(lp1266
I234378
aF120.332
aF796.244
aVp1
p1267
aS'dejavuserif'
p1268
aS'#000000'
p1269
aF12.0
aI1
aI01
aI00
aI00
aI00
aI00
aI00
aI00
aI00
aa(lp1270
I234378
aF88.1
aF62.292
aVp2
p1271
aS'dejavuserif'
p1272
aS'#000000'
p1273
aF11.0
aI0
aI01
aI00
aI00
aI00
aI00
aI00
aI00
aI00
aa(lp1274
I234378
aF149.08921052631578
aF62.292
ag1271
aS'dejavuserif'
p1275
aS'#000000'
p1276
aF11.0
aI0
aI00
aI00
aI00
aI00
aI00
aI00
aI00
aI00
aa(lp1277
I115769
aF155.8657894736842
aF62.292
ag1271
aS'dejavuserif'
p1278
aS'#000000'
p1279
aF11.0
aI0
aI01
aI00
aI00
aI00
aI00
aI00
aI00
aI00
aa(lp1280
I234378
aF232.1
aF62.292
aVp2
p1281
aS'dejavuserif'
p1282
aS'#000000'
p1283
aF11.0
aI0
aI00
aI00
aI00
aI00
aI00
aI00
aI00
aI00
aa(lp1284
I84662
aF239.283
aF62.292
aVp2
p1285
aS'dejavuserif'
p1286
aS'#000000'
p1287
aF11.0
aI0
aI01
aI00
aI00
aI00
aI00
aI00
aI00
aI00
aa(lp1288
I21716
aF269.566
aF62.292
aVp2
p1289
aS'dejavuserif'
p1290
aS'#000000'
p1291
aF11.0
aI0
aI01
aI00
aI00
aI00
aI00
aI00
aI00
aI00
aa(lp1292
I17350
aF88.1
aF75.892
aVp2
p1293
aS'dejavuserif'
p1294
aS'#000000'
p1295
aF11.0
aI0
aI01
aI00
aI00
aI00
aI00
aI00
aI00
aI00
aa(lp1296
I96642
aF115.479
aF75.892
aVp2
p1297
aS'dejavuserif'
p1298
aS'#000000'
p1299
aF11.0
aI0
aI01
aI00
aI00
aI00
aI00
aI00
aI00
aI00
aa(lp1300
I234378
aF232.1
aF75.892
aVp2
p1301
aS'dejavuserif'
p1302
aS'#000000'
p1303
aF11.0
aI0
aI00
aI00
aI00
aI00
aI00
aI00
aI00
aI00
aa(lp1304
I77592
aF239.283
aF75.892
aVp2
p1305
aS'dejavuserif'
p1306
aS'#000000'
p1307
aF11.0
aI0
aI01
aI00
aI00
aI00
aI00
aI00
aI00
aI00
aa(lp1308
I110786
aF284.031
aF75.892
aVp2
p1309
aS'dejavuserif'
p1310
aS'#000000'
p1311
aF11.0
aI0
aI01
aI00
aI00
aI00
aI00
aI00
aI00
aI00
aa(lp1312
I234378
aF321.80185714285716
aF75.892
ag1309
aS'dejavuserif'
p1313
aS'#000000'
p1314
aF11.0
aI0
aI00
aI00
aI00
aI00
aI00
aI00
aI00
aI00
aa(lp1315
I45445
aF331.584
aF75.892
aVp2
p1316
aS'dejavuserif'
p1317
aS'#000000'
p1318
aF11.0
aI0
aI01
aI00
aI00
aI00
aI00
aI00
aI00
aI00
aa(lp1319
I17350
aF372.141
aF75.892
aVp2
p1320
aS'dejavuserif'
p1321
aS'#000000'
p1322
aF11.0
aI0
aI01
aI00
aI00
aI00
aI00
aI00
aI00
aI00
aa(lp1323
I205190
aF399.52
aF75.892
aVp2
p1324
aS'dejavuserif'
p1325
aS'#000000'
p1326
aF11.0
aI0
aI01
aI00
aI00
aI00
aI00
aI00
aI00
aI00
aa(lp1327
I96642
aF433.686
aF75.892
aVp2
p1328
aS'dejavuserif'
p1329
aS'#000000'
p1330
aF11.0
aI0
aI01
aI00
aI00
aI00
aI00
aI00
aI00
aI00
aa(lp1331
I234378
aF474.463
aF75.892
aVp2
p1332
aS'dejavuserif'
p1333
aS'#000000'
p1334
aF11.0
aI0
aI00
aI00
aI01
aI00
aI00
aI00
aI00
aI00
aa(lp1335
I234378
aF88.1
aF89.592
aVp2
p1336
aS'dejavuserif'
p1337
aS'#000000'
p1338
aF11.0
aI0
aI01
aI00
aI00
aI00
aI00
aI00
aI00
aI00
aa(lp1339
I234378
aF232.1
aF89.592
aVp2
p1340
aS'dejavuserif'
p1341
aS'#000000'
p1342
aF11.0
aI0
aI00
aI00
aI00
aI00
aI00
aI00
aI00
aI00
aa(lp1343
I45445
aF242.286
aF89.592
aVp2
p1344
aS'dejavuserif'
p1345
aS'#000000'
p1346
aF11.0
aI0
aI01
aI00
aI00
aI00
aI00
aI00
aI00
aI00
aa(lp1347
I100815
aF285.846
aF89.592
aVp2
p1348
aS'dejavuserif'
p1349
aS'#000000'
p1350
aF11.0
aI0
aI01
aI00
aI00
aI00
aI00
aI00
aI00
aI00
aa(lp1351
I234378
aF339.108
aF89.592
ag1348
aS'dejavuserif'
p1352
aS'#000000'
p1353
aF11.0
aI0
aI00
aI00
aI00
aI00
aI00
aI00
aI00
aI00
aa(lp1354
I223319
aF351.626
aF89.592
aVp2
p1355
aS'dejavuserif'
p1356
aS'#000000'
p1357
aF11.0
aI0
aI01
aI00
aI00
aI00
aI00
aI00
aI00
aI00
aa(lp1358
I234378
aF390.00087499999995
aF89.592
ag1355
aS'dejavuserif'
p1359
aS'#000000'
p1360
aF11.0
aI0
aI00
aI00
aI00
aI00
aI00
aI00
aI00
aI00
aa(lp1361
I73953
aF402.083
aF89.592
aVp2
p1362
aS'dejavuserif'
p1363
aS'#000000'
p1364
aF11.0
aI0
aI01
aI00
aI00
aI00
aI00
aI00
aI00
aI00
aa(lp1365
I83999
aF442.64
aF89.592
aVp2
p1366
aS'dejavuserif'
p1367
aS'#000000'
p1368
aF11.0
aI0
aI01
aI00
aI00
aI00
aI00
aI00
aI00
aI00
aa(lp1369
I234378
aF485.386
aF89.592
aVp2
p1370
aS'dejavuserif'
p1371
aS'#000000'
p1372
aF11.0
aI0
aI00
aI00
aI01
aI01
aI01
aI00
aI00
aI00
aa(lp1373
I234378
aF510.56280000000004
aF89.592
ag1370
aS'dejavuserif'
p1374
aS'#000000'
p1375
aF11.0
aI0
aI00
aI00
aI00
aI00
aI00
aI00
aI00
aI00
aa(lp1376
I234378
aF523.358
aF89.592
aVp2
p1377
aS'dejavuserif'
p1378
aS'#000000'
p1379
aF11.0
aI0
aI01
aI01
aI00
aI00
aI00
aI00
aI00
aI00
aa(lp1380
I234378
aF544.2634999999999
aF89.592
ag1377
aS'dejavuserif'
p1381
aS'#000000'
p1382
aF11.0
aI0
aI00
aI00
aI00
aI00
aI00
aI00
aI00
aI00
aa(lp1383
I234378
aF88.1
aF109.592
aVp2
p1384
aS'dejavuserif'
p1385
aS'#000000'
p1386
aF11.0
aI0
aI01
aI01
aI00
aI00
aI00
aI00
aI00
aI00
aa(lp1387
I234378
aF88.1
aF122.392
aVp2
p1388
aS'dejavuserif'
p1389
aS'#000000'
p1390
aF11.0
aI0
aI01
aI00
aI00
aI00
aI00
aI00
aI00
aI00
aa(lp1391
I234378
aF232.1
aF122.392
aVp2
p1392
aS'dejavuserif'
p1393
aS'#000000'
p1394
aF11.0
aI0
aI00
aI00
aI00
aI00
aI00
aI00
aI00
aI00
aa(lp1395
I234378
aF239.283
aF122.392
aVp2
p1396
aS'dejavuserif'
p1397
aS'#000000'
p1398
aF11.0
aI0
aI01
aI01
aI00
aI00
aI00
aI00
aI00
aI00
aa(lp1399
I96642
aF266.574
aF122.392
aVp2
p1400
aS'dejavuserif'
p1401
aS'#000000'
p1402
aF11.0
aI0
aI01
aI00
aI00
aI00
aI00
aI00
aI00
aI00
aa(lp1403
I234378
aF307.351
aF122.392
aVp2
p1404
aS'dejavuserif'
p1405
aS'#000000'
p1406
aF11.0
aI0
aI00
aI00
aI01
aI01
aI01
aI00
aI00
aI00
aa(lp1407
I234378
aF332.5278
aF122.392
ag1404
aS'dejavuserif'
p1408
aS'#000000'
p1409
aF11.0
aI0
aI00
aI00
aI00
aI00
aI00
aI00
aI00
aI00
aa(lp1410
I234378
aF342.309
aF122.392
aVp2
p1411
aS'dejavuserif'
p1412
aS'#000000'
p1413
aF11.0
aI0
aI01
aI01
aI00
aI00
aI00
aI00
aI00
aI00
aa(lp1414
I96642
aF369.688
aF122.392
aVp2
p1415
aS'dejavuserif'
p1416
aS'#000000'
p1417
aF11.0
aI0
aI01
aI00
aI00
aI00
aI00
aI00
aI00
aI00
aa(lp1418
I234378
aF410.465
aF122.392
aVp2
p1419
aS'dejavuserif'
p1420
aS'#000000'
p1421
aF11.0
aI0
aI00
aI00
aI01
aI01
aI01
aI00
aI00
aI00
aa(lp1422
I234378
aF88.1
aF136.064
aVp2
p1423
aS'dejavuserif'
p1424
aS'#000000'
p1425
aF12.0
aI0
aI01
aI00
aI00
aI00
aI00
aI00
aI00
aI00
aa(lp1426
I234378
aF157.652
aF136.064
aVp2
p1427
aS'dejavuserif'
p1428
aS'#000000'
p1429
aF12.0
aI0
aI01
aI00
aI00
aI00
aI00
aI00
aI00
aI00
aa(lp1430
I234378
aF268.1
aF136.064
aVp2
p1431
aS'dejavuserif'
p1432
aS'#000000'
p1433
aF12.0
aI0
aI00
aI00
aI00
aI00
aI00
aI00
aI00
aI00
aa(lp1434
I1507
aF275.9
aF136.064
aVp2
p1435
aS'dejavuserif'
p1436
aS'#000000'
p1437
aF12.0
aI0
aI01
aI01
aI00
aI00
aI00
aI00
aI00
aI00
aa(lp1438
I212682
aF301.376
aF136.064
aVp2
p1439
aS'dejavuserif'
p1440
aS'#000000'
p1441
aF12.0
aI0
aI01
aI00
aI00
aI00
aI00
aI00
aI00
aI00
aa(lp1442
I234378
aF349.888
aF136.064
ag1439
aS'dejavuserif'
p1443
aS'#000000'
p1444
aF12.0
aI0
aI00
aI00
aI00
aI00
aI00
aI00
aI00
aI00
aa(lp1445
I234378
aF359.84
aF136.064
aVp2
p1446
aS'dejavuserif'
p1447
aS'#000000'
p1448
aF12.0
aI0
aI01
aI01
aI00
aI00
aI00
aI00
aI00
aI00
aa(lp1449
I51933
aF52.1
aF182.544
aVp2
p1450
aS'dejavuserif'
p1451
aS'#000000'
p1452
aF12.0
aI1
aI01
aI00
aI00
aI00
aI00
aI00
aI00
aI00
aa(lp1453
I60220
aF91.388
aF182.544
aVp2
p1454
aS'dejavuserif'
p1455
aS'#000000'
p1456
aF12.0
aI1
aI01
aI00
aI00
aI00
aI00
aI00
aI00
aI00
aa(lp1457
I234378
aF56.288
aF209.244
aVp2
p1458
aS'dejavuserif'
p1459
aS'#000000'
p1460
aF12.0
aI1
aI01
aI00
aI00
aI00
aI00
aI00
aI00
aI00
aa(lp1461
I161858
aF98.252
aF209.244
aVp2
p1462
aS'dejavuserif'
p1463
aS'#000000'
p1464
aF12.0
aI1
aI01
aI00
aI00
aI00
aI00
aI00
aI00
aI00
aa(lp1465
I234378
aF175.88
aF209.244
aVp2
p1466
aS'dejavuserif'
p1467
aS'#000000'
p1468
aF12.0
aI1
aI00
aI00
aI00
aI00
aI00
aI00
aI00
aI00
aa(lp1469
I197030
aF181.148
aF209.244
ag1466
aS'dejavuserif'
p1470
aS'#000000'
p1471
aF12.0
aI1
aI01
aI01
aI00
aI00
aI00
aI00
aI00
aI00
aa(lp1472
I234378
aF186.416
aF209.244
ag1466
aS'dejavuserif'
p1473
aS'#000000'
p1474
aF12.0
aI1
aI00
aI00
aI00
aI00
aI00
aI00
aI00
aI00
aa(lp1475
I234378
aF191.684
aF209.244
ag1466
aS'dejavuserif'
p1476
aS'#000000'
p1477
aF12.0
aI1
aI00
aI00
aI00
aI00
aI00
aI00
aI00
aI00
aa(lp1478
I234378
aF201.152
aF209.244
aVp2
p1479
aS'dejavuserif'
p1480
aS'#000000'
p1481
aF12.0
aI1
aI01
aI00
aI00
aI00
aI00
aI00
aI00
aI00
aa(lp1482
I234378
aF220.39399999999998
aF209.244
ag1479
aS'dejavuserif'
p1483
aS'#000000'
p1484
aF12.0
aI1
aI00
aI00
aI00
aI00
aI00
aI00
aI00
aI00
aa(lp1485
I234378
aF231.008
aF209.244
aVp2
p1486
aS'dejavuserif'
p1487
aS'#000000'
p1488
aF12.0
aI1
aI01
aI00
aI00
aI00
aI00
aI00
aI00
aI00
aa(lp1489
I234378
aF249.3968
aF209.244
ag1486
aS'dejavuserif'
p1490
aS'#000000'
p1491
aF12.0
aI1
aI00
aI00
aI00
aI00
aI00
aI00
aI00
aI00
aa(lp1492
I234378
aF255.52640000000002
aF209.244
ag1486
aS'dejavuserif'
p1493
aS'#000000'
p1494
aF12.0
aI1
aI00
aI00
aI00
aI00
aI00
aI00
aI00
aI00
aa(lp1495
I234378
aF265.856
aF209.244
aVp2
p1496
aS'dejavuserif'
p1497
aS'#000000'
p1498
aF12.0
aI1
aI01
aI00
aI00
aI00
aI00
aI00
aI00
aI00
aa(lp1499
I107562
aF52.1
aF223.344
aVp2
p1500
aS'dejavuserif'
p1501
aS'#000000'
p1502
aF12.0
aI1
aI01
aI00
aI00
aI00
aI00
aI00
aI00
aI00
aa(lp1503
I234378
aF209.336
aF223.464
aVp2
p1504
aS'dejavuserif'
p1505
aS'#000000'
p1506
aF12.0
aI0
aI00
aI00
aI00
aI00
aI00
aI00
aI00
aI00
aa(lp1507
I234378
aF217.1
aF224.392
aVp2
p1508
aS'dejavuserif'
p1509
aS'#000000'
p1510
aF11.0
aI0
aI01
aI01
aI00
aI00
aI00
aI00
aI00
aI00
aa(lp1511
I61503
aF237.67
aF224.392
aVp2
p1512
aS'dejavuserif'
p1513
aS'#000000'
p1514
aF11.0
aI0
aI01
aI00
aI00
aI00
aI00
aI00
aI00
aI00
aa(lp1515
I165056
aF287.423
aF224.392
aVp2
p1516
aS'dejavuserif'
p1517
aS'#000000'
p1518
aF11.0
aI0
aI01
aI00
aI00
aI00
aI00
aI00
aI00
aI00
aa(lp1519
I234378
aF324.075
aF224.392
aVp2
p1520
aS'dejavuserif'
p1521
aS'#000000'
p1522
aF11.0
aI0
aI00
aI00
aI01
aI01
aI00
aI00
aI00
aI00
aa(lp1523
I85218
aF334.558
aF224.392
aVp2
p1524
aS'dejavuserif'
p1525
aS'#000000'
p1526
aF11.0
aI0
aI00
aI00
aI00
aI00
aI00
aI00
aI00
aI00
aa(lp1527
I234378
aF358.626
aF224.392
aVp2
p1528
aS'dejavuserif'
p1529
aS'#000000'
p1530
aF11.0
aI0
aI00
aI00
aI01
aI01
aI00
aI00
aI00
aI00
aa(lp1531
I120031
aF52.1
aF237.444
aVp2
p1532
aS'dejavuserif'
p1533
aS'#000000'
p1534
aF12.0
aI1
aI01
aI00
aI00
aI00
aI00
aI00
aI00
aI00
aa(lp1535
I234378
aF212.3
aF237.564
aVp2
p1536
aS'dejavuserif'
p1537
aS'#000000'
p1538
aF12.0
aI0
aI00
aI00
aI00
aI00
aI00
aI00
aI00
aI00
aa(lp1539
I37515
aF219.887
aF238.492
aVp2
p1540
aS'dejavuserif'
p1541
aS'#000000'
p1542
aF11.0
aI0
aI01
aI00
aI00
aI00
aI00
aI00
aI00
aI01
aa(lp1543
I234378
aF247.365
aF238.492
aVp2
p1544
aS'dejavuserif'
p1545
aS'#000000'
p1546
aF11.0
aI0
aI00
aI00
aI01
aI01
aI01
aI00
aI00
aI00
aa(lp1547
I61519
aF272.027
aF238.492
aVp2
p1548
aS'dejavuserif'
p1549
aS'#000000'
p1550
aF11.0
aI0
aI01
aI00
aI00
aI00
aI00
aI00
aI00
aI01
aa(lp1551
I234378
aF293.587
aF238.492
aVp2
p1552
aS'dejavuserif'
p1553
aS'#000000'
p1554
aF11.0
aI0
aI00
aI00
aI01
aI01
aI01
aI00
aI00
aI00
aa(lp1555
I165056
aF318.04
aF238.492
aVp2
p1556
aS'dejavuserif'
p1557
aS'#000000'
p1558
aF11.0
aI0
aI00
aI00
aI00
aI00
aI00
aI00
aI00
aI00
aa(lp1559
I234378
aF354.296
aF238.492
aVp2
p1560
aS'dejavuserif'
p1561
aS'#000000'
p1562
aF11.0
aI0
aI00
aI00
aI01
aI01
aI00
aI00
aI00
aI00
aa(lp1563
I234378
aF359.642
aF238.492
ag1560
aS'dejavuserif'
p1564
aS'#000000'
p1565
aF11.0
aI0
aI00
aI00
aI00
aI00
aI00
aI00
aI00
aI00
aa(lp1566
I61519
aF368.475
aF238.492
aVp2
p1567
aS'dejavuserif'
p1568
aS'#000000'
p1569
aF11.0
aI0
aI01
aI00
aI00
aI00
aI00
aI00
aI00
aI01
aa(lp1570
I234378
aF390.035
aF238.492
aVp2
p1571
aS'dejavuserif'
p1572
aS'#000000'
p1573
aF11.0
aI0
aI00
aI00
aI01
aI01
aI01
aI00
aI00
aI00
aa(lp1574
I144483
aF418.184
aF238.492
aVp2
p1575
aS'dejavuserif'
p1576
aS'#000000'
p1577
aF11.0
aI0
aI01
aI00
aI00
aI00
aI00
aI00
aI00
aI00
aa(lp1578
I162417
aF437.753
aF238.492
aVp2
p1579
aS'dejavuserif'
p1580
aS'#000000'
p1581
aF11.0
aI0
aI00
aI00
aI00
aI00
aI00
aI00
aI00
aI00
aa(lp1582
I165056
aF472.524
aF238.492
aVp2
p1583
aS'dejavuserif'
p1584
aS'#000000'
p1585
aF11.0
aI0
aI00
aI00
aI00
aI00
aI00
aI00
aI00
aI00
aa(lp1586
I234378
aF508.78
aF238.492
aVp2
p1587
aS'dejavuserif'
p1588
aS'#000000'
p1589
aF11.0
aI0
aI00
aI00
aI01
aI01
aI00
aI00
aI00
aI00
aa(lp1590
I43275
aF52.1
aF251.644
aVp2
p1591
aS'dejavuserif'
p1592
aS'#000000'
p1593
aF12.0
aI1
aI01
aI00
aI00
aI00
aI00
aI00
aI00
aI00
aa(lp1594
I234378
aF205.744
aF251.764
aVp2
p1595
aS'dejavuserif'
p1596
aS'#000000'
p1597
aF12.0
aI0
aI00
aI00
aI00
aI00
aI00
aI00
aI00
aI00
aa(lp1598
I154089
aF213.6
aF252.692
aVp2
p1599
aS'dejavuserif'
p1600
aS'#000000'
p1601
aF11.0
aI0
aI01
aI00
aI00
aI00
aI00
aI00
aI00
aI00
aa(lp1602
I153171
aF277.741
aF252.692
aVp2
p1603
aS'dejavuserif'
p1604
aS'#000000'
p1605
aF11.0
aI0
aI01
aI00
aI00
aI00
aI00
aI00
aI00
aI00
aa(lp1606
I234378
aF317.495
aF252.692
aVp2
p1607
aS'dejavuserif'
p1608
aS'#000000'
p1609
aF11.0
aI0
aI01
aI00
aI00
aI00
aI00
aI00
aI00
aI00
aa(lp1610
I234378
aF370.625
aF252.692
aVp2
p1611
aS'dejavuserif'
p1612
aS'#000000'
p1613
aF11.0
aI0
aI01
aI00
aI00
aI00
aI00
aI00
aI00
aI00
aa(lp1614
I45407
aF413.888
aF252.692
aVp2
p1615
aS'dejavuserif'
p1616
aS'#000000'
p1617
aF11.0
aI0
aI01
aI00
aI00
aI00
aI00
aI00
aI00
aI00
aa(lp1618
I129342
aF461.133
aF252.692
aVp2
p1619
aS'dejavuserif'
p1620
aS'#000000'
p1621
aF11.0
aI0
aI01
aI00
aI00
aI00
aI00
aI00
aI00
aI00
aa(lp1622
I195166
aF52.1
aF265.744
aVp2
p1623
aS'dejavuserif'
p1624
aS'#000000'
p1625
aF12.0
aI1
aI01
aI00
aI00
aI00
aI00
aI00
aI00
aI00
aa(lp1626
I234378
aF112.89058823529413
aF265.744
ag1623
aS'dejavuserif'
p1627
aS'#000000'
p1628
aF12.0
aI1
aI00
aI00
aI00
aI00
aI00
aI00
aI00
aI00
aa(lp1629
I129342
aF120.48941176470589
aF265.744
ag1623
aS'dejavuserif'
p1630
aS'#000000'
p1631
aF12.0
aI1
aI01
aI00
aI00
aI00
aI00
aI00
aI00
aI00
aa(lp1632
I234378
aF189.404
aF265.864
aVp2
p1633
aS'dejavuserif'
p1634
aS'#000000'
p1635
aF12.0
aI0
aI00
aI00
aI00
aI00
aI00
aI00
aI00
aI00
aa(lp1636
I84662
aF197.3
aF266.792
aVp2
p1637
aS'dejavuserif'
p1638
aS'#000000'
p1639
aF11.0
aI0
aI01
aI00
aI00
aI00
aI00
aI00
aI00
aI00
aa(lp1640
I21716
aF227.583
aF266.792
aVp2
p1641
aS'dejavuserif'
p1642
aS'#000000'
p1643
aF11.0
aI0
aI01
aI00
aI00
aI00
aI00
aI00
aI00
aI00
aa(lp1644
I234378
aF250.39584210526317
aF266.792
ag1641
aS'dejavuserif'
p1645
aS'#000000'
p1646
aF11.0
aI0
aI00
aI00
aI00
aI00
aI00
aI00
aI00
aI00
aa(lp1647
I234378
aF256.09905263157896
aF266.792
ag1641
aS'dejavuserif'
p1648
aS'#000000'
p1649
aF11.0
aI0
aI01
aI00
aI00
aI00
aI00
aI00
aI00
aI00
aa(lp1650
I234378
aF316.24078947368423
aF266.792
ag1641
aS'dejavuserif'
p1651
aS'#000000'
p1652
aF11.0
aI0
aI00
aI00
aI00
aI00
aI00
aI00
aI00
aI00
aa(lp1653
I234378
aF339.431
aF266.792
aVp2
p1654
aS'dejavuserif'
p1655
aS'#000000'
p1656
aF11.0
aI0
aI01
aI00
aI00
aI00
aI00
aI00
aI00
aI00
aa(lp1657
I234378
aF386.8454
aF266.792
ag1654
aS'dejavuserif'
p1658
aS'#000000'
p1659
aF11.0
aI0
aI00
aI00
aI00
aI00
aI00
aI00
aI00
aI00
aa(lp1660
I230576
aF392.7722
aF266.792
ag1654
aS'dejavuserif'
p1661
aS'#000000'
p1662
aF11.0
aI0
aI00
aI00
aI00
aI00
aI00
aI00
aI00
aI00
aa(lp1663
I234378
aF402.263
aF266.792
aVp2
p1664
aS'dejavuserif'
p1665
aS'#000000'
p1666
aF11.0
aI0
aI00
aI00
aI00
aI00
aI00
aI00
aI00
aI00
aa(lp1667
I21716
aF407.3701428571428
aF266.792
ag1664
aS'dejavuserif'
p1668
aS'#000000'
p1669
aF11.0
aI0
aI01
aI00
aI00
aI00
aI00
aI00
aI00
aI00
aa(lp1670
I234378
aF427.79871428571425
aF266.792
ag1664
aS'dejavuserif'
p1671
aS'#000000'
p1672
aF11.0
aI0
aI00
aI00
aI00
aI00
aI00
aI00
aI00
aI00
aa(lp1673
I234378
aF432.9058571428571
aF266.792
ag1664
aS'dejavuserif'
p1674
aS'#000000'
p1675
aF11.0
aI0
aI00
aI00
aI00
aI00
aI00
aI00
aI00
aI00
aa(lp1676
I234378
aF441.5
aF266.792
aVp2
p1677
aS'dejavuserif'
p1678
aS'#000000'
p1679
aF11.0
aI0
aI01
aI01
aI00
aI00
aI00
aI00
aI00
aI00
aa(lp1680
I234378
aF463.775
aF266.792
aVp2
p1681
aS'dejavuserif'
p1682
aS'#000000'
p1683
aF11.0
aI0
aI01
aI01
aI00
aI00
aI00
aI00
aI00
aI00
aa(lp1684
I96642
aF491.154
aF266.792
aVp2
p1685
aS'dejavuserif'
p1686
aS'#000000'
p1687
aF11.0
aI0
aI01
aI00
aI00
aI00
aI00
aI00
aI00
aI00
aa(lp1688
I66756
aF52.1
aF279.944
aVp2
p1689
aS'dejavuserif'
p1690
aS'#000000'
p1691
aF12.0
aI1
aI01
aI00
aI00
aI00
aI00
aI00
aI00
aI00
aa(lp1692
I234378
aF200.9
aF279.944
aVp2
p1693
aS'dejavuserif'
p1694
aS'#000000'
p1695
aF12.0
aI1
aI00
aI00
aI00
aI00
aI00
aI00
aI00
aI00
aa(lp1696
I234378
aF209.5
aF280.992
aVp2
p1697
aS'dejavuserif'
p1698
aS'#000000'
p1699
aF11.0
aI0
aI01
aI00
aI00
aI00
aI00
aI00
aI00
aI00
aa(lp1700
I125801
aF244.557
aF280.992
aVp2
p1701
aS'dejavuserif'
p1702
aS'#000000'
p1703
aF11.0
aI0
aI00
aI00
aI00
aI00
aI00
aI00
aI00
aI00
aa(lp1704
I127135
aF270.638
aF280.992
aVp2
p1705
aS'dejavuserif'
p1706
aS'#000000'
p1707
aF11.0
aI0
aI00
aI00
aI00
aI00
aI00
aI00
aI00
aI00
aa(lp1708
I35885
aF304.496
aF280.992
aVp2
p1709
aS'dejavuserif'
p1710
aS'#000000'
p1711
aF11.0
aI0
aI00
aI00
aI00
aI00
aI00
aI00
aI00
aI00
aa(lp1712
I123665
aF340.752
aF280.992
aVp2
p1713
aS'dejavuserif'
p1714
aS'#000000'
p1715
aF11.0
aI0
aI00
aI00
aI00
aI00
aI00
aI00
aI00
aI00
aa(lp1716
I234378
aF406.29
aF280.992
aVp2
p1717
aS'dejavuserif'
p1718
aS'#000000'
p1719
aF11.0
aI0
aI00
aI00
aI00
aI00
aI00
aI00
aI00
aI00
aa(lp1720
I234378
aF460.707
aF280.992
aVp2
p1721
aS'dejavuserif'
p1722
aS'#000000'
p1723
aF11.0
aI0
aI01
aI00
aI00
aI00
aI00
aI00
aI00
aI00
aa(lp1724
I16331
aF514.574
aF280.992
aVp2
p1725
aS'dejavuserif'
p1726
aS'#000000'
p1727
aF11.0
aI0
aI00
aI00
aI00
aI00
aI00
aI00
aI00
aI00
aa(lp1728
I166593
aF530.249
aF280.992
aVp2
p1729
aS'dejavuserif'
p1730
aS'#000000'
p1731
aF11.0
aI0
aI00
aI00
aI00
aI00
aI00
aI00
aI00
aI00
aa(lp1732
I119502
aF52.1
aF294.092
aVp2
p1733
aS'dejavuserif'
p1734
aS'#000000'
p1735
aF11.0
aI0
aI01
aI00
aI00
aI00
aI00
aI00
aI00
aI00
aa(lp1736
I234378
aF97.277
aF294.092
aVp2
p1737
aS'dejavuserif'
p1738
aS'#000000'
p1739
aF11.0
aI0
aI00
aI00
aI00
aI00
aI00
aI00
aI00
aI00
aa(lp1740
I234378
aF103.56466666666667
aF294.092
ag1737
aS'dejavuserif'
p1741
aS'#000000'
p1742
aF11.0
aI0
aI01
aI00
aI00
aI00
aI00
aI00
aI00
aI00
aa(lp1743
I234378
aF128.71533333333332
aF294.092
ag1737
aS'dejavuserif'
p1744
aS'#000000'
p1745
aF11.0
aI0
aI00
aI00
aI00
aI00
aI00
aI00
aI00
aI00
aa(lp1746
I129342
aF138.487
aF294.092
aVp2
p1747
aS'dejavuserif'
p1748
aS'#000000'
p1749
aF11.0
aI0
aI00
aI00
aI00
aI00
aI00
aI00
aI00
aI00
aa(lp1750
I234378
aF184.12966666666665
aF294.092
ag1747
aS'dejavuserif'
p1751
aS'#000000'
p1752
aF11.0
aI0
aI00
aI00
aI00
aI00
aI00
aI00
aI00
aI00
aa(lp1753
I234378
aF193.322
aF294.092
aVp2
p1754
aS'dejavuserif'
p1755
aS'#000000'
p1756
aF11.0
aI0
aI01
aI01
aI00
aI00
aI00
aI00
aI00
aI00
aa(lp1757
I61503
aF218.897
aF294.092
aVp2
p1758
aS'dejavuserif'
p1759
aS'#000000'
p1760
aF11.0
aI0
aI01
aI00
aI00
aI00
aI00
aI00
aI00
aI00
aa(lp1761
I218914
aF273.743
aF294.092
aVp2
p1762
aS'dejavuserif'
p1763
aS'#000000'
p1764
aF11.0
aI0
aI00
aI00
aI00
aI00
aI00
aI00
aI00
aI00
aa(lp1765
I92229
aF310.395
aF294.092
aVp2
p1766
aS'dejavuserif'
p1767
aS'#000000'
p1768
aF11.0
aI0
aI00
aI00
aI00
aI00
aI00
aI00
aI00
aI00
aa(lp1769
I234378
aF360.753
aF294.092
aVp2
p1770
aS'dejavuserif'
p1771
aS'#000000'
p1772
aF11.0
aI0
aI00
aI00
aI00
aI00
aI00
aI00
aI00
aI00
aa(lp1773
I234378
aF413.883
aF294.092
aVp2
p1774
aS'dejavuserif'
p1775
aS'#000000'
p1776
aF11.0
aI0
aI00
aI00
aI00
aI00
aI00
aI00
aI00
aI00
aa(lp1777
I85218
aF455.045
aF294.092
aVp2
p1778
aS'dejavuserif'
p1779
aS'#000000'
p1780
aF11.0
aI0
aI00
aI00
aI00
aI00
aI00
aI00
aI00
aI00
aa(lp1781
I234378
aF479.201
aF294.092
aVp2
p1782
aS'dejavuserif'
p1783
aS'#000000'
p1784
aF11.0
aI0
aI00
aI00
aI00
aI00
aI00
aI00
aI00
aI00
aa(lp1785
I234378
aF514.25525
aF294.092
ag1782
aS'dejavuserif'
p1786
aS'#000000'
p1787
aF11.0
aI0
aI00
aI00
aI00
aI00
aI00
aI00
aI00
aI00
aa(lp1788
I197030
aF522.75
aF294.092
aVp2
p1789
aS'dejavuserif'
p1790
aS'#000000'
p1791
aF11.0
aI0
aI00
aI00
aI00
aI00
aI00
aI00
aI00
aI00
aa(lp1792
I234378
aF526.99325
aF294.092
ag1789
aS'dejavuserif'
p1793
aS'#000000'
p1794
aF11.0
aI0
aI00
aI00
aI00
aI00
aI00
aI00
aI00
aI00
aa(lp1795
I64620
aF531.2365
aF294.092
ag1789
aS'dejavuserif'
p1796
aS'#000000'
p1797
aF11.0
aI0
aI00
aI00
aI00
aI00
aI00
aI00
aI00
aI00
aa(lp1798
I234378
aF533.47975
aF294.092
ag1789
aS'dejavuserif'
p1799
aS'#000000'
p1800
aF11.0
aI0
aI00
aI00
aI00
aI00
aI00
aI00
aI00
aI00
aa(lp1801
I83140
aF52.1
aF306.892
aVp2
p1802
aS'dejavuserif'
p1803
aS'#000000'
p1804
aF11.0
aI0
aI00
aI00
aI00
aI00
aI00
aI00
aI00
aI00
aa(lp1805
I234378
aF95.066
aF306.892
aVp2
p1806
aS'dejavuserif'
p1807
aS'#000000'
p1808
aF11.0
aI0
aI00
aI00
aI00
aI00
aI00
aI00
aI00
aI00
aa(lp1809
I85218
aF131.509
aF306.892
aVp2
p1810
aS'dejavuserif'
p1811
aS'#000000'
p1812
aF11.0
aI0
aI00
aI00
aI00
aI00
aI00
aI00
aI00
aI00
aa(lp1813
I128633
aF155.665
aF306.892
aVp2
p1814
aS'dejavuserif'
p1815
aS'#000000'
p1816
aF11.0
aI0
aI00
aI00
aI00
aI00
aI00
aI00
aI00
aI00
aa(lp1817
I234378
aF220.906
aF306.892
aVp2
p1818
aS'dejavuserif'
p1819
aS'#000000'
p1820
aF11.0
aI0
aI00
aI00
aI00
aI00
aI00
aI00
aI00
aI00
aa(lp1821
I135639
aF257.349
aF306.892
aVp2
p1822
aS'dejavuserif'
p1823
aS'#000000'
p1824
aF11.0
aI0
aI00
aI00
aI00
aI00
aI00
aI00
aI00
aI00
aa(lp1825
I19784
aF271.418
aF306.892
aVp2
p1826
aS'dejavuserif'
p1827
aS'#000000'
p1828
aF11.0
aI0
aI00
aI00
aI00
aI00
aI00
aI00
aI00
aI00
aa(lp1829
I230071
aF296.685
aF306.892
aVp2
p1830
aS'dejavuserif'
p1831
aS'#000000'
p1832
aF11.0
aI0
aI00
aI00
aI00
aI00
aI00
aI00
aI00
aI00
aa(lp1833
I234378
aF319.389
aF306.892
ag1830
aS'dejavuserif'
p1834
aS'#000000'
p1835
aF11.0
aI0
aI00
aI00
aI00
aI00
aI00
aI00
aI00
aI00
aa(lp1836
I234378
aF328.552
aF306.892
aVp2
p1837
aS'dejavuserif'
p1838
aS'#000000'
p1839
aF11.0
aI0
aI00
aI00
aI00
aI00
aI00
aI00
aI00
aI00
aa(lp1840
I228446
aF379.57
aF306.892
aVp2
p1841
aS'dejavuserif'
p1842
aS'#000000'
p1843
aF11.0
aI0
aI00
aI00
aI00
aI00
aI00
aI00
aI00
aI00
aa(lp1844
I136330
aF411.437
aF306.892
aVp2
p1845
aS'dejavuserif'
p1846
aS'#000000'
p1847
aF11.0
aI0
aI00
aI00
aI00
aI00
aI00
aI00
aI00
aI00
aa(lp1848
I89480
aF462.785
aF306.892
aVp2
p1849
aS'dejavuserif'
p1850
aS'#000000'
p1851
aF11.0
aI0
aI00
aI00
aI00
aI00
aI00
aI00
aI00
aI00
aa(lp1852
I115864
aF477.272
aF306.892
aVp2
p1853
aS'dejavuserif'
p1854
aS'#000000'
p1855
aF11.0
aI0
aI00
aI00
aI00
aI00
aI00
aI00
aI00
aI00
aa(lp1856
I85218
aF524.627
aF306.892
aVp2
p1857
aS'dejavuserif'
p1858
aS'#000000'
p1859
aF11.0
aI0
aI00
aI00
aI00
aI00
aI00
aI00
aI00
aI00
aa(lp1860
I158810
aF52.1
aF319.692
aVp2
p1861
aS'dejavuserif'
p1862
aS'#000000'
p1863
aF11.0
aI0
aI00
aI00
aI00
aI00
aI00
aI00
aI00
aI00
aa(lp1864
I144483
aF85.364
aF319.692
aVp2
p1865
aS'dejavuserif'
p1866
aS'#000000'
p1867
aF11.0
aI0
aI00
aI00
aI00
aI00
aI00
aI00
aI00
aI00
aa(lp1868
I154089
aF102.535
aF319.692
aVp2
p1869
aS'dejavuserif'
p1870
aS'#000000'
p1871
aF11.0
aI0
aI00
aI00
aI00
aI00
aI00
aI00
aI00
aI00
aa(lp1872
I153171
aF164.773
aF319.692
aVp2
p1873
aS'dejavuserif'
p1874
aS'#000000'
p1875
aF11.0
aI0
aI00
aI00
aI00
aI00
aI00
aI00
aI00
aI00
aa(lp1876
I234378
aF203.031
aF319.692
aVp2
p1877
aS'dejavuserif'
p1878
aS'#000000'
p1879
aF11.0
aI0
aI00
aI00
aI00
aI00
aI00
aI00
aI00
aI00
aa(lp1880
I10716
aF257.866
aF319.692
aVp2
p1881
aS'dejavuserif'
p1882
aS'#000000'
p1883
aF11.0
aI0
aI00
aI00
aI00
aI00
aI00
aI00
aI00
aI00
aa(lp1884
I153171
aF281.538
aF319.692
aVp2
p1885
aS'dejavuserif'
p1886
aS'#000000'
p1887
aF11.0
aI0
aI01
aI00
aI00
aI00
aI00
aI00
aI00
aI00
aa(lp1888
I72396
aF321.292
aF319.692
aVp2
p1889
aS'dejavuserif'
p1890
aS'#000000'
p1891
aF11.0
aI0
aI01
aI00
aI00
aI00
aI00
aI00
aI00
aI00
aa(lp1892
I234378
aF362.85
aF319.692
aVp2
p1893
aS'dejavuserif'
p1894
aS'#000000'
p1895
aF11.0
aI0
aI01
aI00
aI00
aI00
aI00
aI00
aI00
aI00
aa(lp1896
I234378
aF399.128
aF319.692
aVp2
p1897
aS'dejavuserif'
p1898
aS'#000000'
p1899
aF11.0
aI0
aI00
aI00
aI00
aI00
aI00
aI00
aI00
aI00
aa(lp1900
I234378
aF405.2898333333333
aF319.692
ag1897
aS'dejavuserif'
p1901
aS'#000000'
p1902
aF11.0
aI0
aI01
aI01
aI00
aI00
aI00
aI00
aI00
aI00
aa(lp1903
I234378
aF423.7753333333333
aF319.692
ag1897
aS'dejavuserif'
p1904
aS'#000000'
p1905
aF11.0
aI0
aI00
aI00
aI00
aI00
aI00
aI00
aI00
aI00
aa(lp1906
I234378
aF429.93716666666666
aF319.692
ag1897
aS'dejavuserif'
p1907
aS'#000000'
p1908
aF11.0
aI0
aI00
aI00
aI00
aI00
aI00
aI00
aI00
aI00
aa(lp1909
I234378
aF439.685
aF319.692
aVp2
p1910
aS'dejavuserif'
p1911
aS'#000000'
p1912
aF11.0
aI0
aI01
aI00
aI00
aI00
aI00
aI00
aI00
aI00
aa(lp1913
I234378
aF513.929923076923
aF319.692
ag1910
aS'dejavuserif'
p1914
aS'#000000'
p1915
aF11.0
aI0
aI00
aI00
aI00
aI00
aI00
aI00
aI00
aI00
aa(lp1916
I234378
aF52.1
aF332.492
aVp2
p1917
aS'dejavuserif'
p1918
aS'#000000'
p1919
aF11.0
aI0
aI01
aI00
aI00
aI00
aI00
aI00
aI00
aI00
aa(lp1920
I85218
aF133.621
aF332.492
aVp2
p1921
aS'dejavuserif'
p1922
aS'#000000'
p1923
aF11.0
aI0
aI00
aI00
aI00
aI00
aI00
aI00
aI00
aI00
aa(lp1924
I177271
aF157.777
aF332.492
aVp2
p1925
aS'dejavuserif'
p1926
aS'#000000'
p1927
aF11.0
aI0
aI00
aI00
aI00
aI00
aI00
aI00
aI00
aI00
aa(lp1928
I125801
aF191.14
aF332.492
aVp2
p1929
aS'dejavuserif'
p1930
aS'#000000'
p1931
aF11.0
aI0
aI00
aI00
aI00
aI00
aI00
aI00
aI00
aI00
aa(lp1932
I224923
aF217.21
aF332.492
aVp2
p1933
aS'dejavuserif'
p1934
aS'#000000'
p1935
aF11.0
aI0
aI00
aI00
aI00
aI00
aI00
aI00
aI00
aI00
aa(lp1936
I234378
aF281.241
aF332.492
aVp2
p1937
aS'dejavuserif'
p1938
aS'#000000'
p1939
aF11.0
aI0
aI00
aI00
aI00
aI00
aI00
aI00
aI00
aI00
aa(lp1940
I234378
aF340.6923333333333
aF332.492
ag1937
aS'dejavuserif'
p1941
aS'#000000'
p1942
aF11.0
aI0
aI00
aI00
aI00
aI00
aI00
aI00
aI00
aI00
aa(lp1943
I194354
aF349.584
aF332.492
aVp2
p1944
aS'dejavuserif'
p1945
aS'#000000'
p1946
aF11.0
aI0
aI01
aI00
aI00
aI00
aI00
aI00
aI00
aI00
aa(lp1947
I25691
aF373.96
aF332.492
aVp2
p1948
aS'dejavuserif'
p1949
aS'#000000'
p1950
aF11.0
aI0
aI00
aI00
aI00
aI00
aI00
aI00
aI00
aI00
aa(lp1951
I137949
aF398.116
aF332.492
aVp2
p1952
aS'dejavuserif'
p1953
aS'#000000'
p1954
aF11.0
aI0
aI00
aI00
aI00
aI00
aI00
aI00
aI00
aI00
aa(lp1955
I234378
aF426.078
aF332.492
aVp2
p1956
aS'dejavuserif'
p1957
aS'#000000'
p1958
aF11.0
aI0
aI00
aI00
aI00
aI00
aI00
aI00
aI00
aI00
aa(lp1959
I234378
aF432.3504444444444
aF332.492
ag1956
aS'dejavuserif'
p1960
aS'#000000'
p1961
aF11.0
aI0
aI01
aI00
aI00
aI00
aI00
aI00
aI00
aI00
aa(lp1962
I91539
aF486.017
aF332.492
aVp2
p1963
aS'dejavuserif'
p1964
aS'#000000'
p1965
aF11.0
aI0
aI01
aI00
aI00
aI00
aI00
aI00
aI00
aI00
aa(lp1966
I234378
aF512.065
aF332.492
ag1963
aS'dejavuserif'
p1967
aS'#000000'
p1968
aF11.0
aI0
aI00
aI00
aI00
aI00
aI00
aI00
aI00
aI00
aa(lp1969
I234378
aF52.1
aF345.292
aVp2
p1970
aS'dejavuserif'
p1971
aS'#000000'
p1972
aF11.0
aI0
aI00
aI00
aI00
aI00
aI00
aI00
aI00
aI00
aa(lp1973
I169745
aF105.054
aF345.292
aVp2
p1974
aS'dejavuserif'
p1975
aS'#000000'
p1976
aF11.0
aI0
aI00
aI00
aI00
aI00
aI00
aI00
aI00
aI00
aa(lp1977
I194354
aF133.038
aF345.292
aVp2
p1978
aS'dejavuserif'
p1979
aS'#000000'
p1980
aF11.0
aI0
aI00
aI00
aI00
aI00
aI00
aI00
aI00
aI00
aa(lp1981
I129342
aF154.51
aF345.292
aVp2
p1982
aS'dejavuserif'
p1983
aS'#000000'
p1984
aF11.0
aI0
aI00
aI00
aI00
aI00
aI00
aI00
aI00
aI00
aa(lp1985
I184870
aF205.858
aF345.292
aVp2
p1986
aS'dejavuserif'
p1987
aS'#000000'
p1988
aF11.0
aI0
aI00
aI00
aI00
aI00
aI00
aI00
aI00
aI00
aa(lp1989
I166593
aF253.884
aF345.292
aVp2
p1990
aS'dejavuserif'
p1991
aS'#000000'
p1992
aF11.0
aI0
aI00
aI00
aI00
aI00
aI00
aI00
aI00
aI00
aa(lp1993
I17350
aF263.96
aF345.292
aVp2
p1994
aS'dejavuserif'
p1995
aS'#000000'
p1996
aF11.0
aI0
aI00
aI00
aI00
aI00
aI00
aI00
aI00
aI00
aa(lp1997
I123665
aF290.349
aF345.292
aVp2
p1998
aS'dejavuserif'
p1999
aS'#000000'
p2000
aF11.0
aI0
aI00
aI00
aI00
aI00
aI00
aI00
aI00
aI00
aa(lp2001
I234378
aF355.887
aF345.292
aVp2
p2002
aS'dejavuserif'
p2003
aS'#000000'
p2004
aF11.0
aI0
aI00
aI00
aI00
aI00
aI00
aI00
aI00
aI00
aa(lp2005
I144483
aF396.642
aF345.292
aVp2
p2006
aS'dejavuserif'
p2007
aS'#000000'
p2008
aF11.0
aI0
aI00
aI00
aI00
aI00
aI00
aI00
aI00
aI00
aa(lp2009
I127135
aF413.813
aF345.292
aVp2
p2010
aS'dejavuserif'
p2011
aS'#000000'
p2012
aF11.0
aI0
aI01
aI00
aI00
aI00
aI00
aI00
aI00
aI00
aa(lp2013
I234378
aF449.97
aF345.292
aVp2
p2014
aS'dejavuserif'
p2015
aS'#000000'
p2016
aF11.0
aI0
aI00
aI00
aI00
aI00
aI00
aI00
aI00
aI00
aa(lp2017
I218914
aF494.443
aF345.292
aVp2
p2018
aS'dejavuserif'
p2019
aS'#000000'
p2020
aF11.0
aI0
aI00
aI00
aI00
aI00
aI00
aI00
aI00
aI00
aa(lp2021
I135639
aF531.194
aF345.292
aVp2
p2022
aS'dejavuserif'
p2023
aS'#000000'
p2024
aF11.0
aI0
aI00
aI00
aI00
aI00
aI00
aI00
aI00
aI00
aa(lp2025
I20993
aF52.1
aF358.092
aVp2
p2026
aS'dejavuserif'
p2027
aS'#000000'
p2028
aF11.0
aI0
aI00
aI00
aI00
aI00
aI00
aI00
aI00
aI00
aa(lp2029
I234378
aF79.358
aF358.092
aVp2
p2030
aS'dejavuserif'
p2031
aS'#000000'
p2032
aF11.0
aI0
aI00
aI00
aI00
aI00
aI00
aI00
aI00
aI00
aa(lp2033
I92229
aF132.488
aF358.092
aVp2
p2034
aS'dejavuserif'
p2035
aS'#000000'
p2036
aF11.0
aI0
aI00
aI00
aI00
aI00
aI00
aI00
aI00
aI00
aa(lp2037
I169745
aF182.846
aF358.092
aVp2
p2038
aS'dejavuserif'
p2039
aS'#000000'
p2040
aF11.0
aI0
aI00
aI00
aI00
aI00
aI00
aI00
aI00
aI00
aa(lp2041
I174268
aF210.72
aF358.092
aVp2
p2042
aS'dejavuserif'
p2043
aS'#000000'
p2044
aF11.0
aI0
aI00
aI00
aI00
aI00
aI00
aI00
aI00
aI00
aa(lp2045
I234378
aF255.072
aF358.092
aVp2
p2046
aS'dejavuserif'
p2047
aS'#000000'
p2048
aF11.0
aI0
aI00
aI00
aI00
aI00
aI00
aI00
aI00
aI00
aa(lp2049
I234378
aF340.586
aF358.092
aVp2
p2050
aS'dejavuserif'
p2051
aS'#000000'
p2052
aF11.0
aI0
aI00
aI00
aI00
aI00
aI00
aI00
aI00
aI00
aa(lp2053
I128633
aF346.664
aF358.092
ag2050
aS'dejavuserif'
p2054
aS'#000000'
p2055
aF11.0
aI0
aI01
aI00
aI00
aI00
aI00
aI00
aI00
aI00
aa(lp2056
I234378
aF410.92
aF358.092
aVp2
p2057
aS'dejavuserif'
p2058
aS'#000000'
p2059
aF11.0
aI0
aI01
aI00
aI00
aI00
aI00
aI00
aI00
aI00
aa(lp2060
I234378
aF442.7925
aF358.092
ag2057
aS'dejavuserif'
p2061
aS'#000000'
p2062
aF11.0
aI0
aI00
aI00
aI00
aI00
aI00
aI00
aI00
aI00
aa(lp2063
I221393
aF452.753
aF358.092
aVp2
p2064
aS'dejavuserif'
p2065
aS'#000000'
p2066
aF11.0
aI0
aI00
aI00
aI00
aI00
aI00
aI00
aI00
aI00
aa(lp2067
I166593
aF472.531
aF358.092
aVp2
p2068
aS'dejavuserif'
p2069
aS'#000000'
p2070
aF11.0
aI0
aI00
aI00
aI00
aI00
aI00
aI00
aI00
aI00
aa(lp2071
I89347
aF482.519
aF358.092
aVp2
p2072
aS'dejavuserif'
p2073
aS'#000000'
p2074
aF11.0
aI0
aI01
aI00
aI00
aI00
aI00
aI00
aI00
aI00
aa(lp2075
I74911
aF52.1
aF371.892
aVp2
p2076
aS'dejavuserif'
p2077
aS'#000000'
p2078
aF11.0
aI0
aI01
aI00
aI00
aI00
aI00
aI00
aI00
aI00
aa(lp2079
I45284
aF121.521
aF371.892
aVp2
p2080
aS'dejavuserif'
p2081
aS'#000000'
p2082
aF11.0
aI0
aI00
aI00
aI00
aI00
aI00
aI00
aI00
aI00
aa(lp2083
I234378
aF179.755
aF371.892
aVp2
p2084
aS'dejavuserif'
p2085
aS'#000000'
p2086
aF11.0
aI0
aI00
aI00
aI00
aI00
aI00
aI00
aI00
aI00
aa(lp2087
I1507
aF185.4112
aF371.892
ag2084
aS'dejavuserif'
p2088
aS'#000000'
p2089
aF11.0
aI0
aI01
aI01
aI00
aI00
aI00
aI00
aI00
aI00
aa(lp2090
I234378
aF202.37980000000002
aF371.892
ag2084
aS'dejavuserif'
p2091
aS'#000000'
p2092
aF11.0
aI0
aI00
aI00
aI00
aI00
aI00
aI00
aI00
aI00
aa(lp2093
I234378
aF211.622
aF371.892
aVp2
p2094
aS'dejavuserif'
p2095
aS'#000000'
p2096
aF11.0
aI0
aI00
aI00
aI00
aI00
aI00
aI00
aI00
aI00
aa(lp2097
I212682
aF274.454
aF371.892
aVp2
p2098
aS'dejavuserif'
p2099
aS'#000000'
p2100
aF11.0
aI0
aI00
aI00
aI00
aI00
aI00
aI00
aI00
aI00
aa(lp2101
I234378
aF319.20955555555554
aF371.892
ag2098
aS'dejavuserif'
p2102
aS'#000000'
p2103
aF11.0
aI0
aI00
aI00
aI00
aI00
aI00
aI00
aI00
aI00
aa(lp2104
I234378
aF55.895
aF396.982
aVp2
p2105
aS'dejavuserif'
p2106
aS'#000000'
p2107
aF11.0
aI1
aI01
aI00
aI00
aI00
aI00
aI00
aI00
aI00
aa(lp2108
I135639
aF157.997
aF396.982
aVp2
p2109
aS'dejavuserif'
p2110
aS'#000000'
p2111
aF11.0
aI1
aI00
aI00
aI00
aI00
aI00
aI00
aI00
aI00
aa(lp2112
I165056
aF173.98
aF396.982
aVp2
p2113
aS'dejavuserif'
p2114
aS'#000000'
p2115
aF11.0
aI1
aI01
aI00
aI00
aI00
aI00
aI00
aI00
aI00
aa(lp2116
I234378
aF214.449
aF396.982
aVp2
p2117
aS'dejavuserif'
p2118
aS'#000000'
p2119
aF11.0
aI1
aI00
aI00
aI01
aI01
aI00
aI00
aI00
aI00
aa(lp2120
I234378
aF88.1
aF409.892
aVp2
p2121
aS'dejavuserif'
p2122
aS'#000000'
p2123
aF11.0
aI0
aI01
aI00
aI00
aI00
aI00
aI00
aI00
aI00
aa(lp2124
I41890
aF150.36
aF409.892
aVp2
p2125
aS'dejavuserif'
p2126
aS'#000000'
p2127
aF11.0
aI0
aI00
aI00
aI00
aI00
aI00
aI00
aI00
aI00
aa(lp2128
I194354
aF167.432
aF409.892
aVp2
p2129
aS'dejavuserif'
p2130
aS'#000000'
p2131
aF11.0
aI0
aI00
aI00
aI00
aI00
aI00
aI00
aI00
aI00
aa(lp2132
I153171
aF188.904
aF409.892
aVp2
p2133
aS'dejavuserif'
p2134
aS'#000000'
p2135
aF11.0
aI0
aI01
aI00
aI00
aI00
aI00
aI00
aI00
aI00
aa(lp2136
I1507
aF228.658
aF409.892
aVp2
p2137
aS'dejavuserif'
p2138
aS'#000000'
p2139
aF11.0
aI0
aI01
aI01
aI00
aI00
aI00
aI00
aI00
aI00
aa(lp2140
I25931
aF251.934
aF409.892
aVp2
p2141
aS'dejavuserif'
p2142
aS'#000000'
p2143
aF11.0
aI0
aI00
aI00
aI00
aI00
aI00
aI00
aI00
aI00
aa(lp2144
I234378
aF286.595
aF409.892
aVp2
p2145
aS'dejavuserif'
p2146
aS'#000000'
p2147
aF11.0
aI0
aI00
aI00
aI00
aI00
aI00
aI00
aI00
aI00
aa(lp2148
I190806
aF335.468
aF409.892
aVp2
p2149
aS'dejavuserif'
p2150
aS'#000000'
p2151
aF11.0
aI0
aI00
aI00
aI00
aI00
aI00
aI00
aI00
aI00
aa(lp2152
I104617
aF354.938
aF409.892
aVp2
p2153
aS'dejavuserif'
p2154
aS'#000000'
p2155
aF11.0
aI0
aI00
aI00
aI00
aI00
aI00
aI00
aI00
aI00
aa(lp2156
I128633
aF390.699
aF409.892
aVp2
p2157
aS'dejavuserif'
p2158
aS'#000000'
p2159
aF11.0
aI0
aI00
aI00
aI00
aI00
aI00
aI00
aI00
aI00
aa(lp2160
I234378
aF455.94
aF409.892
aVp2
p2161
aS'dejavuserif'
p2162
aS'#000000'
p2163
aF11.0
aI0
aI00
aI00
aI00
aI00
aI00
aI00
aI00
aI00
aa(lp2164
I16331
aF492.383
aF409.892
aVp2
p2165
aS'dejavuserif'
p2166
aS'#000000'
p2167
aF11.0
aI0
aI00
aI00
aI00
aI00
aI00
aI00
aI00
aI00
aa(lp2168
I24385
aF508.058
aF409.892
aVp2
p2169
aS'dejavuserif'
p2170
aS'#000000'
p2171
aF11.0
aI0
aI00
aI00
aI00
aI00
aI00
aI00
aI00
aI00
aa(lp2172
I218852
aF88.1
aF423.592
aVp2
p2173
aS'dejavuserif'
p2174
aS'#000000'
p2175
aF11.0
aI0
aI00
aI00
aI00
aI00
aI00
aI00
aI00
aI00
aa(lp2176
I234378
aF118.361
aF423.592
aVp2
p2177
aS'dejavuserif'
p2178
aS'#000000'
p2179
aF11.0
aI0
aI01
aI00
aI00
aI00
aI00
aI00
aI00
aI00
aa(lp2180
I144489
aF152.813
aF423.592
aVp2
p2181
aS'dejavuserif'
p2182
aS'#000000'
p2183
aF11.0
aI0
aI00
aI00
aI00
aI00
aI00
aI00
aI00
aI00
aa(lp2184
I14925
aF166.992
aF423.592
aVp2
p2185
aS'dejavuserif'
p2186
aS'#000000'
p2187
aF11.0
aI0
aI01
aI00
aI00
aI00
aI00
aI00
aI00
aI00
aa(lp2188
I234378
aF234.382
aF423.592
ag2185
aS'dejavuserif'
p2189
aS'#000000'
p2190
aF11.0
aI0
aI00
aI00
aI00
aI00
aI00
aI00
aI00
aI00
aa(lp2191
I234378
aF88.1
aF436.392
aVp2
p2192
aS'dejavuserif'
p2193
aS'#000000'
p2194
aF11.0
aI0
aI01
aI00
aI00
aI00
aI00
aI00
aI00
aI00
aa(lp2195
I234378
aF136.258
aF436.392
aVp2
p2196
aS'dejavuserif'
p2197
aS'#000000'
p2198
aF11.0
aI0
aI00
aI00
aI00
aI00
aI00
aI00
aI00
aI00
aa(lp2199
I234378
aF175.22
aF436.392
aVp2
p2200
aS'dejavuserif'
p2201
aS'#000000'
p2202
aF11.0
aI0
aI00
aI00
aI00
aI00
aI00
aI00
aI00
aI00
aa(lp2203
I85218
aF241.759
aF436.392
aVp2
p2204
aS'dejavuserif'
p2205
aS'#000000'
p2206
aF11.0
aI0
aI00
aI00
aI00
aI00
aI00
aI00
aI00
aI00
aa(lp2207
I234378
aF265.915
aF436.392
aVp2
p2208
aS'dejavuserif'
p2209
aS'#000000'
p2210
aF11.0
aI0
aI00
aI00
aI00
aI00
aI00
aI00
aI00
aI00
aa(lp2211
I234378
aF321.036
aF436.392
aVp2
p2212
aS'dejavuserif'
p2213
aS'#000000'
p2214
aF11.0
aI0
aI00
aI00
aI00
aI00
aI00
aI00
aI00
aI00
aa(lp2215
I46281
aF327.72242857142857
aF436.392
ag2212
aS'dejavuserif'
p2216
aS'#000000'
p2217
aF11.0
aI0
aI01
aI00
aI00
aI00
aI00
aI00
aI00
aI00
aa(lp2218
I234378
aF371.394
aF436.392
aVp2
p2219
aS'dejavuserif'
p2220
aS'#000000'
p2221
aF11.0
aI0
aI01
aI01
aI00
aI00
aI00
aI00
aI00
aI00
aa(lp2222
I234378
aF391.766
aF436.392
aVp2
p2223
aS'dejavuserif'
p2224
aS'#000000'
p2225
aF11.0
aI0
aI01
aI00
aI00
aI00
aI00
aI00
aI00
aI00
aa(lp2226
I234378
aF420.08183333333335
aF436.392
ag2223
aS'dejavuserif'
p2227
aS'#000000'
p2228
aF11.0
aI0
aI00
aI00
aI00
aI00
aI00
aI00
aI00
aI00
aa(lp2229
I234378
aF429.331
aF436.392
aVp2
p2230
aS'dejavuserif'
p2231
aS'#000000'
p2232
aF11.0
aI0
aI00
aI00
aI00
aI00
aI00
aI00
aI00
aI00
aa(lp2233
I234378
aF460.84128571428573
aF436.392
ag2230
aS'dejavuserif'
p2234
aS'#000000'
p2235
aF11.0
aI0
aI00
aI00
aI00
aI00
aI00
aI00
aI00
aI00
aa(lp2236
I234378
aF469.679
aF436.392
aVp2
p2237
aS'dejavuserif'
p2238
aS'#000000'
p2239
aF11.0
aI0
aI00
aI00
aI00
aI00
aI00
aI00
aI00
aI00
aa(lp2240
I234378
aF484.60159999999996
aF436.392
ag2237
aS'dejavuserif'
p2241
aS'#000000'
p2242
aF11.0
aI0
aI00
aI00
aI00
aI00
aI00
aI00
aI00
aI00
aa(lp2243
I234378
aF489.57579999999996
aF436.392
ag2237
aS'dejavuserif'
p2244
aS'#000000'
p2245
aF11.0
aI0
aI00
aI00
aI00
aI00
aI00
aI00
aI00
aI00
aa(lp2246
I234378
aF88.1
aF449.992
aVp2
p2247
aS'dejavuserif'
p2248
aS'#000000'
p2249
aF11.0
aI0
aI01
aI01
aI00
aI00
aI00
aI00
aI00
aI00
aa(lp2250
I234378
aF107.14099999999999
aF449.992
ag2247
aS'dejavuserif'
p2251
aS'#000000'
p2252
aF11.0
aI0
aI00
aI00
aI00
aI00
aI00
aI00
aI00
aI00
aa(lp2253
I24757
aF117.074
aF449.992
aVp2
p2254
aS'dejavuserif'
p2255
aS'#000000'
p2256
aF11.0
aI0
aI01
aI01
aI00
aI00
aI00
aI00
aI00
aI00
aa(lp2257
I234378
aF132.815
aF449.992
ag2254
aS'dejavuserif'
p2258
aS'#000000'
p2259
aF11.0
aI0
aI00
aI00
aI00
aI00
aI00
aI00
aI00
aI00
aa(lp2260
I234378
aF141.549
aF449.992
aVp2
p2261
aS'dejavuserif'
p2262
aS'#000000'
p2263
aF11.0
aI0
aI01
aI01
aI00
aI00
aI00
aI00
aI00
aI00
aa(lp2264
I85218
aF159.82
aF449.992
aVp2
p2265
aS'dejavuserif'
p2266
aS'#000000'
p2267
aF11.0
aI0
aI00
aI00
aI00
aI00
aI00
aI00
aI00
aI00
aa(lp2268
I3878
aF183.976
aF449.992
aVp2
p2269
aS'dejavuserif'
p2270
aS'#000000'
p2271
aF11.0
aI0
aI01
aI00
aI00
aI00
aI00
aI00
aI00
aI00
aa(lp2272
I12878
aF248.623
aF449.992
aVp2
p2273
aS'dejavuserif'
p2274
aS'#000000'
p2275
aF11.0
aI0
aI00
aI00
aI00
aI00
aI00
aI00
aI00
aI00
aa(lp2276
I101862
aF322.752
aF449.992
aVp2
p2277
aS'dejavuserif'
p2278
aS'#000000'
p2279
aF11.0
aI0
aI00
aI00
aI00
aI00
aI00
aI00
aI00
aI00
aa(lp2280
I15429
aF342.827
aF449.992
aVp2
p2281
aS'dejavuserif'
p2282
aS'#000000'
p2283
aF11.0
aI0
aI00
aI00
aI00
aI00
aI00
aI00
aI00
aI00
aa(lp2284
I144483
aF360.394
aF449.992
aVp2
p2285
aS'dejavuserif'
p2286
aS'#000000'
p2287
aF11.0
aI0
aI00
aI00
aI00
aI00
aI00
aI00
aI00
aI00
aa(lp2288
I127135
aF377.565
aF449.992
aVp2
p2289
aS'dejavuserif'
p2290
aS'#000000'
p2291
aF11.0
aI0
aI01
aI00
aI00
aI00
aI00
aI00
aI00
aI00
aa(lp2292
I175409
aF88.1
aF463.692
aVp2
p2293
aS'dejavuserif'
p2294
aS'#000000'
p2295
aF11.0
aI0
aI01
aI00
aI00
aI00
aI00
aI00
aI00
aI00
aa(lp2296
I194354
aF118.977
aF463.692
aVp2
p2297
aS'dejavuserif'
p2298
aS'#000000'
p2299
aF11.0
aI0
aI00
aI00
aI00
aI00
aI00
aI00
aI00
aI00
aa(lp2300
I210461
aF140.449
aF463.692
aVp2
p2301
aS'dejavuserif'
p2302
aS'#000000'
p2303
aF11.0
aI0
aI00
aI00
aI00
aI00
aI00
aI00
aI00
aI00
aa(lp2304
I135639
aF171.821
aF463.692
aVp2
p2305
aS'dejavuserif'
p2306
aS'#000000'
p2307
aF11.0
aI0
aI00
aI00
aI00
aI00
aI00
aI00
aI00
aI00
aa(lp2308
I234378
aF185.89
aF463.692
aVp2
p2309
aS'dejavuserif'
p2310
aS'#000000'
p2311
aF11.0
aI0
aI00
aI00
aI00
aI00
aI00
aI00
aI00
aI00
aa(lp2312
I234378
aF251.505
aF463.692
aVp2
p2313
aS'dejavuserif'
p2314
aS'#000000'
p2315
aF11.0
aI0
aI01
aI01
aI01
aI00
aI00
aI00
aI00
aI00
aa(lp2316
I234378
aF278.158
aF463.692
aVp2
p2317
aS'dejavuserif'
p2318
aS'#000000'
p2319
aF11.0
aI0
aI00
aI00
aI00
aI00
aI00
aI00
aI00
aI00
aa(lp2320
I85218
aF308.232
aF463.692
aVp2
p2321
aS'dejavuserif'
p2322
aS'#000000'
p2323
aF11.0
aI0
aI00
aI00
aI00
aI00
aI00
aI00
aI00
aI00
aa(lp2324
I28430
aF332.388
aF463.692
aVp2
p2325
aS'dejavuserif'
p2326
aS'#000000'
p2327
aF11.0
aI0
aI00
aI00
aI00
aI00
aI00
aI00
aI00
aI00
aa(lp2328
I121847
aF408.409
aF463.692
aVp2
p2329
aS'dejavuserif'
p2330
aS'#000000'
p2331
aF11.0
aI0
aI00
aI00
aI00
aI00
aI00
aI00
aI00
aI00
aa(lp2332
I169745
aF432.884
aF463.692
aVp2
p2333
aS'dejavuserif'
p2334
aS'#000000'
p2335
aF11.0
aI0
aI00
aI00
aI00
aI00
aI00
aI00
aI00
aI00
aa(lp2336
I194354
aF460.758
aF463.692
aVp2
p2337
aS'dejavuserif'
p2338
aS'#000000'
p2339
aF11.0
aI0
aI00
aI00
aI00
aI00
aI00
aI00
aI00
aI00
aa(lp2340
I234378
aF88.1
aF477.292
aVp2
p2341
aS'dejavuserif'
p2342
aS'#000000'
p2343
aF11.0
aI0
aI00
aI00
aI00
aI00
aI00
aI00
aI00
aI00
aa(lp2344
I234378
aF167.82066666666668
aF477.292
ag2341
aS'dejavuserif'
p2345
aS'#000000'
p2346
aF11.0
aI0
aI00
aI00
aI00
aI00
aI00
aI00
aI00
aI00
aa(lp2347
I234378
aF91.587
aF490.092
aVp2
p2348
aS'dejavuserif'
p2349
aS'#000000'
p2350
aF11.0
aI0
aI01
aI00
aI00
aI00
aI00
aI00
aI00
aI00
aa(lp2351
I28430
aF155.42
aF490.092
aVp2
p2352
aS'dejavuserif'
p2353
aS'#000000'
p2354
aF11.0
aI0
aI00
aI00
aI00
aI00
aI00
aI00
aI00
aI00
aa(lp2355
I125078
aF231.353
aF490.092
aVp2
p2356
aS'dejavuserif'
p2357
aS'#000000'
p2358
aF11.0
aI0
aI00
aI00
aI00
aI00
aI00
aI00
aI00
aI00
aa(lp2359
I234378
aF268.149375
aF490.092
ag2356
aS'dejavuserif'
p2360
aS'#000000'
p2361
aF11.0
aI0
aI00
aI00
aI00
aI00
aI00
aI00
aI00
aI00
aa(lp2362
I234378
aF88.1
aF503.792
aVp2
p2363
aS'dejavuserif'
p2364
aS'#000000'
p2365
aF11.0
aI0
aI01
aI00
aI00
aI00
aI00
aI00
aI00
aI00
aa(lp2366
I27249
aF165.331
aF503.792
aVp2
p2367
aS'dejavuserif'
p2368
aS'#000000'
p2369
aF11.0
aI0
aI00
aI00
aI00
aI00
aI00
aI00
aI00
aI00
aa(lp2370
I90075
aF245.829
aF503.792
aVp2
p2371
aS'dejavuserif'
p2372
aS'#000000'
p2373
aF11.0
aI0
aI00
aI00
aI00
aI00
aI00
aI00
aI00
aI00
aa(lp2374
I85218
aF278.191
aF503.792
aVp2
p2375
aS'dejavuserif'
p2376
aS'#000000'
p2377
aF11.0
aI0
aI00
aI00
aI00
aI00
aI00
aI00
aI00
aI00
aa(lp2378
I74911
aF302.347
aF503.792
aVp2
p2379
aS'dejavuserif'
p2380
aS'#000000'
p2381
aF11.0
aI0
aI00
aI00
aI00
aI00
aI00
aI00
aI00
aI00
aa(lp2382
I234378
aF370.987
aF503.792
aVp2
p2383
aS'dejavuserif'
p2384
aS'#000000'
p2385
aF11.0
aI0
aI00
aI00
aI00
aI00
aI00
aI00
aI00
aI00
aa(lp2386
I139426
aF404.955
aF503.792
aVp2
p2387
aS'dejavuserif'
p2388
aS'#000000'
p2389
aF11.0
aI0
aI00
aI00
aI00
aI00
aI00
aI00
aI00
aI00
aa(lp2390
I234378
aF450.286
aF503.792
aVp2
p2391
aS'dejavuserif'
p2392
aS'#000000'
p2393
aF11.0
aI0
aI00
aI00
aI00
aI00
aI00
aI00
aI00
aI00
aa(lp2394
I234378
aF484.034
aF503.792
aVp2
p2395
aS'dejavuserif'
p2396
aS'#000000'
p2397
aF11.0
aI0
aI00
aI00
aI01
aI00
aI00
aI00
aI00
aI00
aa(lp2398
I135639
aF515.098
aF503.792
aVp2
p2399
aS'dejavuserif'
p2400
aS'#000000'
p2401
aF11.0
aI0
aI00
aI00
aI00
aI00
aI00
aI00
aI00
aI00
aa(lp2402
I41890
aF529.167
aF503.792
aVp2
p2403
aS'dejavuserif'
p2404
aS'#000000'
p2405
aF11.0
aI0
aI00
aI00
aI00
aI00
aI00
aI00
aI00
aI00
aa(lp2406
I1507
aF88.1
aF517.392
aVp2
p2407
aS'dejavuserif'
p2408
aS'#000000'
p2409
aF11.0
aI0
aI01
aI01
aI00
aI00
aI00
aI00
aI00
aI00
aa(lp2410
I25931
aF111.376
aF517.392
aVp2
p2411
aS'dejavuserif'
p2412
aS'#000000'
p2413
aF11.0
aI0
aI00
aI00
aI00
aI00
aI00
aI00
aI00
aI00
aa(lp2414
I234378
aF146.037
aF517.392
aVp2
p2415
aS'dejavuserif'
p2416
aS'#000000'
p2417
aF11.0
aI0
aI00
aI00
aI00
aI00
aI00
aI00
aI00
aI00
aa(lp2418
I234378
aF189.47966666666667
aF517.392
ag2415
aS'dejavuserif'
p2419
aS'#000000'
p2420
aF11.0
aI0
aI00
aI00
aI00
aI00
aI00
aI00
aI00
aI00
aa(lp2421
I224291
aF88.1
aF530.192
aVp2
p2422
aS'dejavuserif'
p2423
aS'#000000'
p2424
aF11.0
aI0
aI01
aI00
aI00
aI00
aI00
aI00
aI00
aI00
aa(lp2425
I98580
aF122.068
aF530.192
aVp2
p2426
aS'dejavuserif'
p2427
aS'#000000'
p2428
aF11.0
aI0
aI00
aI00
aI00
aI00
aI00
aI00
aI00
aI00
aa(lp2429
I85218
aF181.589
aF530.192
aVp2
p2430
aS'dejavuserif'
p2431
aS'#000000'
p2432
aF11.0
aI0
aI00
aI00
aI00
aI00
aI00
aI00
aI00
aI00
aa(lp2433
I149270
aF205.745
aF530.192
aVp2
p2434
aS'dejavuserif'
p2435
aS'#000000'
p2436
aF11.0
aI0
aI00
aI00
aI00
aI00
aI00
aI00
aI00
aI00
aa(lp2437
I121847
aF260.184
aF530.192
aVp2
p2438
aS'dejavuserif'
p2439
aS'#000000'
p2440
aF11.0
aI0
aI00
aI00
aI00
aI00
aI00
aI00
aI00
aI00
aa(lp2441
I234378
aF284.659
aF530.192
aVp2
p2442
aS'dejavuserif'
p2443
aS'#000000'
p2444
aF11.0
aI0
aI00
aI00
aI00
aI00
aI00
aI00
aI00
aI00
aa(lp2445
I234378
aF52.1
aF556.882
aVp2
p2446
aS'dejavuserif'
p2447
aS'#000000'
p2448
aF11.0
aI1
aI01
aI00
aI00
aI00
aI00
aI00
aI00
aI00
aa(lp2449
I135639
aF154.202
aF556.882
aVp2
p2450
aS'dejavuserif'
p2451
aS'#000000'
p2452
aF11.0
aI1
aI00
aI00
aI00
aI00
aI00
aI00
aI00
aI00
aa(lp2453
I165056
aF170.185
aF556.882
aVp2
p2454
aS'dejavuserif'
p2455
aS'#000000'
p2456
aF11.0
aI1
aI01
aI00
aI00
aI00
aI00
aI00
aI00
aI00
aa(lp2457
I234378
aF210.555
aF556.882
aVp2
p2458
aS'dejavuserif'
p2459
aS'#000000'
p2460
aF11.0
aI1
aI00
aI00
aI01
aI01
aI00
aI00
aI00
aI00
aa(lp2461
I1507
aF88.1
aF569.792
aVp2
p2462
aS'dejavuserif'
p2463
aS'#000000'
p2464
aF11.0
aI0
aI01
aI01
aI00
aI00
aI00
aI00
aI00
aI00
aa(lp2465
I233548
aF111.376
aF569.792
aVp2
p2466
aS'dejavuserif'
p2467
aS'#000000'
p2468
aF11.0
aI0
aI01
aI00
aI00
aI00
aI00
aI00
aI00
aI00
aa(lp2469
I68032
aF154.111
aF569.792
aVp2
p2470
aS'dejavuserif'
p2471
aS'#000000'
p2472
aF11.0
aI0
aI00
aI00
aI00
aI00
aI00
aI00
aI00
aI00
aa(lp2473
I85218
aF229.45
aF569.792
aVp2
p2474
aS'dejavuserif'
p2475
aS'#000000'
p2476
aF11.0
aI0
aI00
aI00
aI00
aI00
aI00
aI00
aI00
aI00
aa(lp2477
I125078
aF253.518
aF569.792
aVp2
p2478
aS'dejavuserif'
p2479
aS'#000000'
p2480
aF11.0
aI0
aI00
aI00
aI00
aI00
aI00
aI00
aI00
aI00
aa(lp2481
I234378
aF290.314375
aF569.792
ag2478
aS'dejavuserif'
p2482
aS'#000000'
p2483
aF11.0
aI0
aI00
aI00
aI00
aI00
aI00
aI00
aI00
aI00
aa(lp2484
I68196
aF88.1
aF583.392
aVp2
p2485
aS'dejavuserif'
p2486
aS'#000000'
p2487
aF11.0
aI0
aI01
aI00
aI00
aI00
aI00
aI00
aI00
aI00
aa(lp2488
I234378
aF144.442
aF583.392
aVp2
p2489
aS'dejavuserif'
p2490
aS'#000000'
p2491
aF11.0
aI0
aI01
aI00
aI00
aI00
aI00
aI00
aI00
aI00
aa(lp2492
I144489
aF178.894
aF583.392
aVp2
p2493
aS'dejavuserif'
p2494
aS'#000000'
p2495
aF11.0
aI0
aI00
aI00
aI00
aI00
aI00
aI00
aI00
aI00
aa(lp2496
I14925
aF193.073
aF583.392
aVp2
p2497
aS'dejavuserif'
p2498
aS'#000000'
p2499
aF11.0
aI0
aI00
aI00
aI00
aI00
aI00
aI00
aI00
aI00
aa(lp2500
I144489
aF265.695
aF583.392
aVp2
p2501
aS'dejavuserif'
p2502
aS'#000000'
p2503
aF11.0
aI0
aI00
aI00
aI00
aI00
aI00
aI00
aI00
aI00
aa(lp2504
I234378
aF279.874
aF583.392
aVp2
p2505
aS'dejavuserif'
p2506
aS'#000000'
p2507
aF11.0
aI0
aI01
aI00
aI00
aI00
aI00
aI00
aI00
aI00
aa(lp2508
I89480
aF301.346
aF583.392
aVp2
p2509
aS'dejavuserif'
p2510
aS'#000000'
p2511
aF11.0
aI0
aI00
aI00
aI00
aI00
aI00
aI00
aI00
aI00
aa(lp2512
I71080
aF315.921
aF583.392
aVp2
p2513
aS'dejavuserif'
p2514
aS'#000000'
p2515
aF11.0
aI0
aI00
aI00
aI00
aI00
aI00
aI00
aI00
aI00
aa(lp2516
I175263
aF384.363
aF583.392
aVp2
p2517
aS'dejavuserif'
p2518
aS'#000000'
p2519
aF11.0
aI0
aI01
aI00
aI00
aI00
aI00
aI00
aI00
aI00
aa(lp2520
I85218
aF425.503
aF583.392
aVp2
p2521
aS'dejavuserif'
p2522
aS'#000000'
p2523
aF11.0
aI0
aI00
aI00
aI00
aI00
aI00
aI00
aI00
aI00
aa(lp2524
I23690
aF449.659
aF583.392
aVp2
p2525
aS'dejavuserif'
p2526
aS'#000000'
p2527
aF11.0
aI0
aI01
aI00
aI00
aI00
aI00
aI00
aI00
aI00
aa(lp2528
I153171
aF493.516
aF583.392
aVp2
p2529
aS'dejavuserif'
p2530
aS'#000000'
p2531
aF11.0
aI0
aI01
aI00
aI00
aI00
aI00
aI00
aI00
aI00
aa(lp2532
I234378
aF88.1
aF597.092
aVp2
p2533
aS'dejavuserif'
p2534
aS'#000000'
p2535
aF11.0
aI0
aI01
aI00
aI00
aI00
aI00
aI00
aI00
aI00
aa(lp2536
I89480
aF134.872
aF597.092
aVp2
p2537
aS'dejavuserif'
p2538
aS'#000000'
p2539
aF11.0
aI0
aI00
aI00
aI00
aI00
aI00
aI00
aI00
aI00
aa(lp2540
I234378
aF149.447
aF597.092
aVp2
p2541
aS'dejavuserif'
p2542
aS'#000000'
p2543
aF11.0
aI0
aI00
aI00
aI00
aI00
aI00
aI00
aI00
aI00
aa(lp2544
I234378
aF196.791
aF597.092
aVp2
p2545
aS'dejavuserif'
p2546
aS'#000000'
p2547
aF11.0
aI0
aI01
aI00
aI00
aI00
aI00
aI00
aI00
aI00
aa(lp2548
I129342
aF261.328
aF597.092
aVp2
p2549
aS'dejavuserif'
p2550
aS'#000000'
p2551
aF11.0
aI0
aI01
aI00
aI00
aI00
aI00
aI00
aI00
aI00
aa(lp2552
I234378
aF307.2346666666666
aF597.092
ag2549
aS'dejavuserif'
p2553
aS'#000000'
p2554
aF11.0
aI0
aI00
aI00
aI00
aI00
aI00
aI00
aI00
aI00
aa(lp2555
I234378
aF88.1
aF609.892
aVp2
p2556
aS'dejavuserif'
p2557
aS'#000000'
p2558
aF11.0
aI0
aI01
aI00
aI00
aI00
aI00
aI00
aI00
aI00
aa(lp2559
I1507
aF150.36
aF609.892
aVp2
p2560
aS'dejavuserif'
p2561
aS'#000000'
p2562
aF11.0
aI0
aI01
aI01
aI00
aI00
aI00
aI00
aI00
aI00
aa(lp2563
I25931
aF173.636
aF609.892
aVp2
p2564
aS'dejavuserif'
p2565
aS'#000000'
p2566
aF11.0
aI0
aI00
aI00
aI00
aI00
aI00
aI00
aI00
aI00
aa(lp2567
I190806
aF208.297
aF609.892
aVp2
p2568
aS'dejavuserif'
p2569
aS'#000000'
p2570
aF11.0
aI0
aI00
aI00
aI00
aI00
aI00
aI00
aI00
aI00
aa(lp2571
I234378
aF227.668
aF609.892
aVp2
p2572
aS'dejavuserif'
p2573
aS'#000000'
p2574
aF11.0
aI0
aI01
aI01
aI00
aI00
aI00
aI00
aI00
aI00
aa(lp2575
I85218
aF257.236
aF609.892
aVp2
p2576
aS'dejavuserif'
p2577
aS'#000000'
p2578
aF11.0
aI0
aI00
aI00
aI00
aI00
aI00
aI00
aI00
aI00
aa(lp2579
I60534
aF281.392
aF609.892
aVp2
p2580
aS'dejavuserif'
p2581
aS'#000000'
p2582
aF11.0
aI0
aI00
aI00
aI00
aI00
aI00
aI00
aI00
aI00
aa(lp2583
I173426
aF307.165
aF609.892
aVp2
p2584
aS'dejavuserif'
p2585
aS'#000000'
p2586
aF11.0
aI0
aI00
aI00
aI00
aI00
aI00
aI00
aI00
aI00
aa(lp2587
I194354
aF360.999
aF609.892
aVp2
p2588
aS'dejavuserif'
p2589
aS'#000000'
p2590
aF11.0
aI0
aI00
aI00
aI00
aI00
aI00
aI00
aI00
aI00
aa(lp2591
I137949
aF382.471
aF609.892
aVp2
p2592
aS'dejavuserif'
p2593
aS'#000000'
p2594
aF11.0
aI0
aI00
aI00
aI00
aI00
aI00
aI00
aI00
aI00
aa(lp2595
I221858
aF410.433
aF609.892
aVp2
p2596
aS'dejavuserif'
p2597
aS'#000000'
p2598
aF11.0
aI0
aI00
aI00
aI00
aI00
aI00
aI00
aI00
aI00
aa(lp2599
I234378
aF458.6262
aF609.892
ag2596
aS'dejavuserif'
p2600
aS'#000000'
p2601
aF11.0
aI0
aI00
aI00
aI00
aI00
aI00
aI00
aI00
aI00
aa(lp2602
I234378
aF467.468
aF609.892
aVp2
p2603
aS'dejavuserif'
p2604
aS'#000000'
p2605
aF11.0
aI0
aI00
aI00
aI00
aI00
aI00
aI00
aI00
aI00
aa(lp2606
I34861
aF88.1
aF623.492
aVp2
p2607
aS'dejavuserif'
p2608
aS'#000000'
p2609
aF11.0
aI0
aI00
aI00
aI00
aI00
aI00
aI00
aI00
aI00
aa(lp2610
I85218
aF133.948
aF623.492
aVp2
p2611
aS'dejavuserif'
p2612
aS'#000000'
p2613
aF11.0
aI0
aI00
aI00
aI00
aI00
aI00
aI00
aI00
aI00
aa(lp2614
I234378
aF158.016
aF623.492
aVp2
p2615
aS'dejavuserif'
p2616
aS'#000000'
p2617
aF11.0
aI0
aI00
aI00
aI00
aI00
aI00
aI00
aI00
aI00
aa(lp2618
I190806
aF199.167
aF623.492
aVp2
p2619
aS'dejavuserif'
p2620
aS'#000000'
p2621
aF11.0
aI0
aI00
aI00
aI00
aI00
aI00
aI00
aI00
aI00
aa(lp2622
I153171
aF218.637
aF623.492
aVp2
p2623
aS'dejavuserif'
p2624
aS'#000000'
p2625
aF11.0
aI0
aI01
aI00
aI00
aI00
aI00
aI00
aI00
aI00
aa(lp2626
I234378
aF258.391
aF623.492
aVp2
p2627
aS'dejavuserif'
p2628
aS'#000000'
p2629
aF11.0
aI0
aI00
aI00
aI00
aI00
aI00
aI00
aI00
aI00
aa(lp2630
I234378
aF297.199
aF623.492
ag2627
aS'dejavuserif'
p2631
aS'#000000'
p2632
aF11.0
aI0
aI00
aI00
aI00
aI00
aI00
aI00
aI00
aI00
aa(lp2633
I107562
aF52.1
aF649.144
aVp2
p2634
aS'dejavuserif'
p2635
aS'#000000'
p2636
aF12.0
aI1
aI01
aI00
aI00
aI00
aI00
aI00
aI00
aI00
aa(lp2637
I234378
aF209.336
aF649.264
aVp2
p2638
aS'dejavuserif'
p2639
aS'#000000'
p2640
aF12.0
aI0
aI00
aI00
aI00
aI00
aI00
aI00
aI00
aI00
aa(lp2641
I234378
aF217.136
aF649.264
aVp2
p2642
aS'dejavuserif'
p2643
aS'#000000'
p2644
aF12.0
aI0
aI01
aI00
aI00
aI00
aI00
aI00
aI00
aI00
aa(lp2645
I203718
aF248.676
aF649.264
ag2642
aS'dejavuserif'
p2646
aS'#000000'
p2647
aF12.0
aI0
aI00
aI00
aI00
aI00
aI00
aI00
aI00
aI00
aa(lp2648
I153171
aF294.2
aF649.264
aVp2
p2649
aS'dejavuserif'
p2650
aS'#000000'
p2651
aF12.0
aI0
aI01
aI00
aI00
aI00
aI00
aI00
aI00
aI00
aa(lp2652
I234378
aF337.676
aF649.264
aVp2
p2653
aS'dejavuserif'
p2654
aS'#000000'
p2655
aF12.0
aI0
aI01
aI00
aI00
aI00
aI00
aI00
aI00
aI00
aa(lp2656
I1507
aF388.76
aF649.264
aVp2
p2657
aS'dejavuserif'
p2658
aS'#000000'
p2659
aF12.0
aI0
aI01
aI01
aI00
aI00
aI00
aI00
aI00
aI00
aa(lp2660
I234378
aF414.152
aF649.264
aVp2
p2661
aS'dejavuserif'
p2662
aS'#000000'
p2663
aF12.0
aI0
aI01
aI00
aI00
aI00
aI00
aI00
aI00
aI00
aa(lp2664
I233548
aF461.624
aF649.264
aVp2
p2665
aS'dejavuserif'
p2666
aS'#000000'
p2667
aF12.0
aI0
aI01
aI00
aI00
aI00
aI00
aI00
aI00
aI00
aa(lp2668
I120031
aF52.1
aF663.344
aVp2
p2669
aS'dejavuserif'
p2670
aS'#000000'
p2671
aF12.0
aI1
aI01
aI00
aI00
aI00
aI00
aI00
aI00
aI00
aa(lp2672
I234378
aF203.732
aF663.464
aVp2
p2673
aS'dejavuserif'
p2674
aS'#000000'
p2675
aF12.0
aI0
aI00
aI00
aI00
aI00
aI00
aI00
aI00
aI00
aa(lp2676
I234378
aF211.628
aF663.464
aVp2
p2677
aS'dejavuserif'
p2678
aS'#000000'
p2679
aF12.0
aI0
aI01
aI00
aI00
aI00
aI00
aI00
aI00
aI01
aa(lp2680
I234378
aF239.516
aF663.464
aVp2
p2681
aS'dejavuserif'
p2682
aS'#000000'
p2683
aF12.0
aI0
aI00
aI00
aI01
aI01
aI01
aI00
aI00
aI00
aa(lp2684
I144483
aF270.296
aF663.464
aVp2
p2685
aS'dejavuserif'
p2686
aS'#000000'
p2687
aF12.0
aI0
aI01
aI00
aI00
aI00
aI00
aI00
aI00
aI00
aa(lp2688
I162417
aF291.608
aF663.464
aVp2
p2689
aS'dejavuserif'
p2690
aS'#000000'
p2691
aF12.0
aI0
aI00
aI00
aI00
aI00
aI00
aI00
aI00
aI00
aa(lp2692
I43275
aF52.1
aF677.444
aVp2
p2693
aS'dejavuserif'
p2694
aS'#000000'
p2695
aF12.0
aI1
aI01
aI00
aI00
aI00
aI00
aI00
aI00
aI00
aa(lp2696
I234378
aF205.744
aF677.564
aVp2
p2697
aS'dejavuserif'
p2698
aS'#000000'
p2699
aF12.0
aI0
aI00
aI00
aI00
aI00
aI00
aI00
aI00
aI00
aa(lp2700
I1507
aF213.6
aF677.444
aVp2
p2701
aS'dejavuserif'
p2702
aS'#000000'
p2703
aF12.0
aI1
aI01
aI01
aI00
aI00
aI00
aI00
aI00
aI00
aa(lp2704
I233548
aF241.188
aF677.444
aVp2
p2705
aS'dejavuserif'
p2706
aS'#000000'
p2707
aF12.0
aI1
aI01
aI00
aI00
aI00
aI00
aI00
aI00
aI00
aa(lp2708
I190806
aF292.536
aF677.444
aVp2
p2709
aS'dejavuserif'
p2710
aS'#000000'
p2711
aF12.0
aI1
aI00
aI00
aI00
aI00
aI00
aI00
aI00
aI00
aa(lp2712
I234378
aF316.116
aF677.444
aVp2
p2713
aS'dejavuserif'
p2714
aS'#000000'
p2715
aF12.0
aI1
aI00
aI00
aI00
aI00
aI00
aI00
aI00
aI00
aa(lp2716
I203718
aF356.364
aF677.444
aVp2
p2717
aS'dejavuserif'
p2718
aS'#000000'
p2719
aF12.0
aI1
aI00
aI00
aI00
aI00
aI00
aI00
aI00
aI00
aa(lp2720
I234378
aF401.232
aF677.444
aVp2
p2721
aS'dejavuserif'
p2722
aS'#000000'
p2723
aF12.0
aI1
aI00
aI00
aI00
aI00
aI00
aI00
aI00
aI00
aa(lp2724
I190806
aF453.576
aF677.444
aVp2
p2725
aS'dejavuserif'
p2726
aS'#000000'
p2727
aF12.0
aI1
aI00
aI00
aI00
aI00
aI00
aI00
aI00
aI00
aa(lp2728
I153171
aF477.24
aF677.444
aVp2
p2729
aS'dejavuserif'
p2730
aS'#000000'
p2731
aF12.0
aI1
aI00
aI00
aI00
aI00
aI00
aI00
aI00
aI00
aa(lp2732
I234378
aF52.1
aF691.644
aVp2
p2733
aS'dejavuserif'
p2734
aS'#000000'
p2735
aF12.0
aI1
aI00
aI00
aI00
aI00
aI00
aI00
aI00
aI00
aa(lp2736
I195166
aF52.1
aF705.744
aVp2
p2737
aS'dejavuserif'
p2738
aS'#000000'
p2739
aF12.0
aI1
aI01
aI00
aI00
aI00
aI00
aI00
aI00
aI00
aa(lp2740
I234378
aF112.89058823529413
aF705.744
ag2737
aS'dejavuserif'
p2741
aS'#000000'
p2742
aF12.0
aI1
aI00
aI00
aI00
aI00
aI00
aI00
aI00
aI00
aa(lp2743
I129342
aF120.48941176470589
aF705.744
ag2737
aS'dejavuserif'
p2744
aS'#000000'
p2745
aF12.0
aI1
aI01
aI00
aI00
aI00
aI00
aI00
aI00
aI00
aa(lp2746
I234378
aF185.204
aF705.864
aVp2
p2747
aS'dejavuserif'
p2748
aS'#000000'
p2749
aF12.0
aI0
aI00
aI00
aI00
aI00
aI00
aI00
aI00
aI00
aa(lp2750
I84662
aF192.30880000000002
aF705.864
ag2747
aS'dejavuserif'
p2751
aS'#000000'
p2752
aF12.0
aI0
aI01
aI00
aI00
aI00
aI00
aI00
aI00
aI00
aa(lp2753
I21716
aF224.976
aF705.744
aVp2
p2754
aS'dejavuserif'
p2755
aS'#000000'
p2756
aF12.0
aI1
aI00
aI00
aI00
aI00
aI00
aI00
aI00
aI00
aa(lp2757
I234378
aF249.7344
aF705.744
ag2754
aS'dejavuserif'
p2758
aS'#000000'
p2759
aF12.0
aI1
aI00
aI00
aI00
aI00
aI00
aI00
aI00
aI00
aa(lp2760
I234378
aF260.124
aF705.744
aVp2
p2761
aS'dejavuserif'
p2762
aS'#000000'
p2763
aF12.0
aI1
aI00
aI00
aI00
aI00
aI00
aI00
aI00
aI00
aa(lp2764
I234378
aF359.2216
aF705.744
ag2761
aS'dejavuserif'
p2765
aS'#000000'
p2766
aF12.0
aI1
aI00
aI00
aI00
aI00
aI00
aI00
aI00
aI00
aa(lp2767
I234378
aF370.5
aF705.744
aVp2
p2768
aS'dejavuserif'
p2769
aS'#000000'
p2770
aF12.0
aI1
aI01
aI00
aI00
aI00
aI00
aI00
aI00
aI00
aa(lp2771
I234378
aF427.6968
aF705.744
ag2768
aS'dejavuserif'
p2772
aS'#000000'
p2773
aF12.0
aI1
aI00
aI00
aI00
aI00
aI00
aI00
aI00
aI00
aa(lp2774
I230576
aF434.8464
aF705.744
ag2768
aS'dejavuserif'
p2775
aS'#000000'
p2776
aF12.0
aI1
aI00
aI00
aI00
aI00
aI00
aI00
aI00
aI00
aa(lp2777
I234378
aF446.148
aF705.744
aVp2
p2778
aS'dejavuserif'
p2779
aS'#000000'
p2780
aF12.0
aI1
aI00
aI00
aI00
aI00
aI00
aI00
aI00
aI00
aa(lp2781
I21716
aF452.62
aF705.744
ag2778
aS'dejavuserif'
p2782
aS'#000000'
p2783
aF12.0
aI1
aI01
aI00
aI00
aI00
aI00
aI00
aI00
aI00
aa(lp2784
I234378
aF478.508
aF705.744
ag2778
aS'dejavuserif'
p2785
aS'#000000'
p2786
aF12.0
aI1
aI00
aI00
aI00
aI00
aI00
aI00
aI00
aI00
aa(lp2787
I66756
aF52.1
aF719.844
aVp2
p2788
aS'dejavuserif'
p2789
aS'#000000'
p2790
aF12.0
aI1
aI01
aI00
aI00
aI00
aI00
aI00
aI00
aI00
aa(lp2791
I234378
aF195.22
aF719.964
aVp2
p2792
aS'dejavuserif'
p2793
aS'#000000'
p2794
aF12.0
aI0
aI00
aI00
aI00
aI00
aI00
aI00
aI00
aI00
aa(lp2795
I234378
aF202.687
aF720.892
aVp2
p2796
aS'dejavuserif'
p2797
aS'#000000'
p2798
aF11.0
aI0
aI01
aI00
aI00
aI00
aI00
aI00
aI00
aI00
aa(lp2799
I59734
aF232.9077142857143
aF720.892
ag2796
aS'dejavuserif'
p2800
aS'#000000'
p2801
aF11.0
aI0
aI00
aI00
aI00
aI00
aI00
aI00
aI00
aI00
aa(lp2802
I1507
aF247.187
aF720.892
aVp2
p2803
aS'dejavuserif'
p2804
aS'#000000'
p2805
aF11.0
aI0
aI01
aI01
aI00
aI00
aI00
aI00
aI00
aI00
aa(lp2806
I233548
aF270.463
aF720.892
aVp2
p2807
aS'dejavuserif'
p2808
aS'#000000'
p2809
aF11.0
aI0
aI00
aI00
aI00
aI00
aI00
aI00
aI00
aI00
aa(lp2810
I89480
aF311.614
aF720.892
aVp2
p2811
aS'dejavuserif'
p2812
aS'#000000'
p2813
aF11.0
aI0
aI00
aI00
aI00
aI00
aI00
aI00
aI00
aI00
aa(lp2814
I179418
aF326.189
aF720.892
aVp2
p2815
aS'dejavuserif'
p2816
aS'#000000'
p2817
aF11.0
aI0
aI00
aI00
aI00
aI00
aI00
aI00
aI00
aI00
aa(lp2818
I234378
aF371.85
aF720.892
aVp2
p2819
aS'dejavuserif'
p2820
aS'#000000'
p2821
aF11.0
aI0
aI00
aI00
aI00
aI00
aI00
aI00
aI00
aI00
aa(lp2822
I131049
aF409.415
aF720.892
aVp2
p2823
aS'dejavuserif'
p2824
aS'#000000'
p2825
aF11.0
aI0
aI00
aI00
aI00
aI00
aI00
aI00
aI00
aI00
aa(lp2826
I114954
aF439.28
aF720.892
aVp2
p2827
aS'dejavuserif'
p2828
aS'#000000'
p2829
aF11.0
aI0
aI00
aI00
aI00
aI00
aI00
aI00
aI00
aI00
aa(lp2830
I234378
aF488.725
aF720.892
aVp2
p2831
aS'dejavuserif'
p2832
aS'#000000'
p2833
aF11.0
aI0
aI00
aI00
aI00
aI00
aI00
aI00
aI00
aI00
aa(lp2834
I89480
aF531.471
aF720.892
aVp2
p2835
aS'dejavuserif'
p2836
aS'#000000'
p2837
aF11.0
aI0
aI00
aI00
aI00
aI00
aI00
aI00
aI00
aI00
aa(lp2838
I234378
aF52.1
aF733.992
aVp2
p2839
aS'dejavuserif'
p2840
aS'#000000'
p2841
aF11.0
aI0
aI01
aI01
aI00
aI00
aI00
aI00
aI00
aI00
aa(lp2842
I234378
aF64.74266666666666
aF733.992
ag2839
aS'dejavuserif'
p2843
aS'#000000'
p2844
aF11.0
aI0
aI00
aI00
aI00
aI00
aI00
aI00
aI00
aI00
aa(lp2845
I22476
aF74.551
aF733.992
aVp2
p2846
aS'dejavuserif'
p2847
aS'#000000'
p2848
aF11.0
aI0
aI01
aI00
aI00
aI00
aI00
aI00
aI00
aI00
aa(lp2849
I22474
aF86.739
aF733.992
aVp2
p2850
aS'dejavuserif'
p2851
aS'#000000'
p2852
aF11.0
aI0
aI00
aI00
aI00
aI00
aI00
aI00
aI00
aI00
aa(lp2853
I176802
aF99.411
aF733.992
aVp2
p2854
aS'dejavuserif'
p2855
aS'#000000'
p2856
aF11.0
aI0
aI00
aI00
aI00
aI00
aI00
aI00
aI00
aI00
aa(lp2857
I89480
aF123.083
aF733.992
aVp2
p2858
aS'dejavuserif'
p2859
aS'#000000'
p2860
aF11.0
aI0
aI00
aI00
aI00
aI00
aI00
aI00
aI00
aI00
aa(lp2861
I100065
aF137.57
aF733.992
aVp2
p2862
aS'dejavuserif'
p2863
aS'#000000'
p2864
aF11.0
aI0
aI00
aI00
aI00
aI00
aI00
aI00
aI00
aI00
aa(lp2865
I44868
aF171.329
aF733.992
aVp2
p2866
aS'dejavuserif'
p2867
aS'#000000'
p2868
aF11.0
aI0
aI00
aI00
aI00
aI00
aI00
aI00
aI00
aI00
aa(lp2869
I207716
aF209.983
aF733.992
aVp2
p2870
aS'dejavuserif'
p2871
aS'#000000'
p2872
aF11.0
aI0
aI00
aI00
aI00
aI00
aI00
aI00
aI00
aI00
aa(lp2873
I218914
aF252.256
aF733.992
aVp2
p2874
aS'dejavuserif'
p2875
aS'#000000'
p2876
aF11.0
aI0
aI00
aI00
aI00
aI00
aI00
aI00
aI00
aI00
aa(lp2877
I234378
aF289.007
aF733.992
aVp2
p2878
aS'dejavuserif'
p2879
aS'#000000'
p2880
aF11.0
aI0
aI00
aI00
aI00
aI00
aI00
aI00
aI00
aI00
aa(lp2881
I118865
aF322.271
aF733.992
aVp2
p2882
aS'dejavuserif'
p2883
aS'#000000'
p2884
aF11.0
aI0
aI00
aI00
aI00
aI00
aI00
aI00
aI00
aI00
aa(lp2885
I98224
aF359.022
aF733.992
aVp2
p2886
aS'dejavuserif'
p2887
aS'#000000'
p2888
aF11.0
aI0
aI00
aI00
aI00
aI00
aI00
aI00
aI00
aI00
aa(lp2889
I131049
aF404.969
aF733.992
aVp2
p2890
aS'dejavuserif'
p2891
aS'#000000'
p2892
aF11.0
aI0
aI00
aI00
aI00
aI00
aI00
aI00
aI00
aI00
aa(lp2893
I25931
aF434.746
aF733.992
aVp2
p2894
aS'dejavuserif'
p2895
aS'#000000'
p2896
aF11.0
aI0
aI00
aI00
aI00
aI00
aI00
aI00
aI00
aI00
aa(lp2897
I59734
aF465.974
aF733.992
ag2894
aS'dejavuserif'
p2898
aS'#000000'
p2899
aF11.0
aI0
aI00
aI00
aI00
aI00
aI00
aI00
aI00
aI00
aa(lp2900
I234378
aF478.581
aF733.992
aVp2
p2901
aS'dejavuserif'
p2902
aS'#000000'
p2903
aF11.0
aI0
aI00
aI00
aI00
aI00
aI00
aI00
aI00
aI00
aa(lp2904
I234378
aF484.59525
aF733.992
ag2901
aS'dejavuserif'
p2905
aS'#000000'
p2906
aF11.0
aI0
aI01
aI01
aI00
aI00
aI00
aI00
aI00
aI00
aa(lp2907
I234378
aF496.62375000000003
aF733.992
ag2901
aS'dejavuserif'
p2908
aS'#000000'
p2909
aF11.0
aI0
aI00
aI00
aI00
aI00
aI00
aI00
aI00
aI00
aa(lp2910
I1507
aF506.125
aF733.992
aVp2
p2911
aS'dejavuserif'
p2912
aS'#000000'
p2913
aF11.0
aI0
aI01
aI01
aI00
aI00
aI00
aI00
aI00
aI00
aa(lp2914
I233548
aF52.1
aF746.792
aVp2
p2915
aS'dejavuserif'
p2916
aS'#000000'
p2917
aF11.0
aI0
aI00
aI00
aI00
aI00
aI00
aI00
aI00
aI00
aa(lp2918
I85218
aF93.251
aF746.792
aVp2
p2919
aS'dejavuserif'
p2920
aS'#000000'
p2921
aF11.0
aI0
aI00
aI00
aI00
aI00
aI00
aI00
aI00
aI00
aa(lp2922
I234378
aF117.407
aF746.792
aVp2
p2923
aS'dejavuserif'
p2924
aS'#000000'
p2925
aF11.0
aI0
aI00
aI00
aI00
aI00
aI00
aI00
aI00
aI00
aa(lp2926
I15726
aF150.66
aF746.792
aVp2
p2927
aS'dejavuserif'
p2928
aS'#000000'
p2929
aF11.0
aI0
aI00
aI00
aI00
aI00
aI00
aI00
aI00
aI00
aa(lp2930
I114954
aF175.729
aF746.792
aVp2
p2931
aS'dejavuserif'
p2932
aS'#000000'
p2933
aF11.0
aI0
aI00
aI00
aI00
aI00
aI00
aI00
aI00
aI00
aa(lp2934
I203718
aF225.262
aF746.792
aVp2
p2935
aS'dejavuserif'
p2936
aS'#000000'
p2937
aF11.0
aI0
aI00
aI00
aI00
aI00
aI00
aI00
aI00
aI00
aa(lp2938
I161602
aF262.321
aF746.792
aVp2
p2939
aS'dejavuserif'
p2940
aS'#000000'
p2941
aF11.0
aI0
aI00
aI00
aI00
aI00
aI00
aI00
aI00
aI00
aa(lp2942
I234378
aF290.899
aF746.792
aVp2
p2943
aS'dejavuserif'
p2944
aS'#000000'
p2945
aF11.0
aI0
aI00
aI00
aI00
aI00
aI00
aI00
aI00
aI00
aa(lp2946
I85218
aF342.445
aF746.792
aVp2
p2947
aS'dejavuserif'
p2948
aS'#000000'
p2949
aF11.0
aI0
aI00
aI00
aI00
aI00
aI00
aI00
aI00
aI00
aa(lp2950
I207693
aF366.601
aF746.792
aVp2
p2951
aS'dejavuserif'
p2952
aS'#000000'
p2953
aF11.0
aI0
aI00
aI00
aI00
aI00
aI00
aI00
aI00
aI00
aa(lp2954
I169745
aF415.243
aF746.792
aVp2
p2955
aS'dejavuserif'
p2956
aS'#000000'
p2957
aF11.0
aI0
aI00
aI00
aI00
aI00
aI00
aI00
aI00
aI00
aa(lp2958
I234378
aF443.117
aF746.792
aVp2
p2959
aS'dejavuserif'
p2960
aS'#000000'
p2961
aF11.0
aI0
aI00
aI00
aI00
aI00
aI00
aI00
aI00
aI00
aa(lp2962
I144489
aF480.682
aF746.792
aVp2
p2963
aS'dejavuserif'
p2964
aS'#000000'
p2965
aF11.0
aI0
aI00
aI00
aI00
aI00
aI00
aI00
aI00
aI00
aa(lp2966
I196036
aF494.861
aF746.792
aVp2
p2967
aS'dejavuserif'
p2968
aS'#000000'
p2969
aF11.0
aI0
aI00
aI00
aI00
aI00
aI00
aI00
aI00
aI00
aa(lp2970
I203718
aF52.1
aF759.592
aVp2
p2971
aS'dejavuserif'
p2972
aS'#000000'
p2973
aF11.0
aI0
aI00
aI00
aI00
aI00
aI00
aI00
aI00
aI00
aa(lp2974
I89480
aF89.159
aF759.592
aVp2
p2975
aS'dejavuserif'
p2976
aS'#000000'
p2977
aF11.0
aI0
aI00
aI00
aI00
aI00
aI00
aI00
aI00
aI00
aa(lp2978
I194354
aF103.734
aF759.592
aVp2
p2979
aS'dejavuserif'
p2980
aS'#000000'
p2981
aF11.0
aI0
aI00
aI00
aI00
aI00
aI00
aI00
aI00
aI00
aa(lp2982
I25931
aF125.206
aF759.592
aVp2
p2983
aS'dejavuserif'
p2984
aS'#000000'
p2985
aF11.0
aI0
aI00
aI00
aI00
aI00
aI00
aI00
aI00
aI00
aa(lp2986
I234378
aF154.91542857142858
aF759.592
ag2983
aS'dejavuserif'
p2987
aS'#000000'
p2988
aF11.0
aI0
aI00
aI00
aI00
aI00
aI00
aI00
aI00
aI00
aa(lp2989
I177958
aF163.354
aF759.592
aVp2
p2990
aS'dejavuserif'
p2991
aS'#000000'
p2992
aF11.0
aI0
aI01
aI00
aI00
aI00
aI00
aI00
aI00
aI00
aa(lp2993
I22474
aF206.617
aF759.592
aVp2
p2994
aS'dejavuserif'
p2995
aS'#000000'
p2996
aF11.0
aI0
aI00
aI00
aI00
aI00
aI00
aI00
aI00
aI00
aa(lp2997
I111538
aF219.201
aF759.592
aVp2
p2998
aS'dejavuserif'
p2999
aS'#000000'
p3000
aF11.0
aI0
aI00
aI00
aI00
aI00
aI00
aI00
aI00
aI00
aa(lp3001
I89480
aF260.836
aF759.592
aVp2
p3002
aS'dejavuserif'
p3003
aS'#000000'
p3004
aF11.0
aI0
aI00
aI00
aI00
aI00
aI00
aI00
aI00
aI00
aa(lp3005
I179418
aF275.323
aF759.592
aVp2
p3006
aS'dejavuserif'
p3007
aS'#000000'
p3008
aF11.0
aI0
aI00
aI00
aI00
aI00
aI00
aI00
aI00
aI00
aa(lp3009
I234378
aF320.984
aF759.592
aVp2
p3010
aS'dejavuserif'
p3011
aS'#000000'
p3012
aF11.0
aI0
aI01
aI00
aI00
aI00
aI00
aI00
aI00
aI00
aa(lp3013
I131049
aF363.741
aF759.592
aVp2
p3014
aS'dejavuserif'
p3015
aS'#000000'
p3016
aF11.0
aI0
aI00
aI00
aI00
aI00
aI00
aI00
aI00
aI00
aa(lp3017
I114954
aF393.606
aF759.592
aVp2
p3018
aS'dejavuserif'
p3019
aS'#000000'
p3020
aF11.0
aI0
aI00
aI00
aI00
aI00
aI00
aI00
aI00
aI00
aa(lp3021
I234378
aF443.051
aF759.592
aVp2
p3022
aS'dejavuserif'
p3023
aS'#000000'
p3024
aF11.0
aI0
aI00
aI00
aI00
aI00
aI00
aI00
aI00
aI00
aa(lp3025
I190806
aF485.797
aF759.592
aVp2
p3026
aS'dejavuserif'
p3027
aS'#000000'
p3028
aF11.0
aI0
aI00
aI00
aI00
aI00
aI00
aI00
aI00
aI00
aa(lp3029
I141150
aF505.267
aF759.592
aVp2
p3030
aS'dejavuserif'
p3031
aS'#000000'
p3032
aF11.0
aI0
aI00
aI00
aI00
aI00
aI00
aI00
aI00
aI00
aa(lp3033
I124859
aF52.1
aF772.392
aVp2
p3034
aS'dejavuserif'
p3035
aS'#000000'
p3036
aF11.0
aI0
aI00
aI00
aI00
aI00
aI00
aI00
aI00
aI00
aa(lp3037
I144489
aF124.524
aF772.392
aVp2
p3038
aS'dejavuserif'
p3039
aS'#000000'
p3040
aF11.0
aI0
aI00
aI00
aI00
aI00
aI00
aI00
aI00
aI00
aa(lp3041
I89347
aF138.703
aF772.392
aVp2
p3042
aS'dejavuserif'
p3043
aS'#000000'
p3044
aF11.0
aI0
aI00
aI00
aI00
aI00
aI00
aI00
aI00
aI00
aa(lp3045
I234378
aF189.93
aF772.392
aVp2
p3046
aS'dejavuserif'
p3047
aS'#000000'
p3048
aF11.0
aI0
aI00
aI00
aI00
aI00
aI00
aI00
aI00
aI00
aa(lp3049
I89480
aF257.569
aF772.392
aVp2
p3050
aS'dejavuserif'
p3051
aS'#000000'
p3052
aF11.0
aI0
aI00
aI00
aI00
aI00
aI00
aI00
aI00
aI00
aa(lp3053
I194354
aF272.144
aF772.392
aVp2
p3054
aS'dejavuserif'
p3055
aS'#000000'
p3056
aF11.0
aI0
aI00
aI00
aI00
aI00
aI00
aI00
aI00
aI00
aa(lp3057
I25931
aF293.616
aF772.392
aVp2
p3058
aS'dejavuserif'
p3059
aS'#000000'
p3060
aF11.0
aI0
aI00
aI00
aI00
aI00
aI00
aI00
aI00
aI00
aa(lp3061
I190806
aF328.277
aF772.392
aVp2
p3062
aS'dejavuserif'
p3063
aS'#000000'
p3064
aF11.0
aI0
aI00
aI00
aI00
aI00
aI00
aI00
aI00
aI00
aa(lp3065
I153171
aF347.648
aF772.392
aVp2
p3066
aS'dejavuserif'
p3067
aS'#000000'
p3068
aF11.0
aI0
aI01
aI00
aI00
aI00
aI00
aI00
aI00
aI00
aa(lp3069
I174108
aF387.402
aF772.392
aVp2
p3070
aS'dejavuserif'
p3071
aS'#000000'
p3072
aF11.0
aI0
aI01
aI00
aI00
aI00
aI00
aI00
aI00
aI00
aa(lp3073
I234378
aF52.1
aF785.244
aVp2
p3074
aS'dejavuserif'
p3075
aS'#000000'
p3076
aF12.0
aI1
aI01
aI00
aI00
aI00
aI00
aI00
aI00
aI00
aa(lp3077
I68196
aF88.1
aF49.492
aVp3
p3078
aS'dejavuserif'
p3079
aS'#000000'
p3080
aF11.0
aI0
aI01
aI00
aI00
aI00
aI00
aI00
aI00
aI00
aa(lp3081
I234378
aF144.442
aF49.492
aVp3
p3082
aS'dejavuserif'
p3083
aS'#000000'
p3084
aF11.0
aI0
aI01
aI00
aI00
aI00
aI00
aI00
aI00
aI00
aa(lp3085
I144489
aF178.894
aF49.492
aVp3
p3086
aS'dejavuserif'
p3087
aS'#000000'
p3088
aF11.0
aI0
aI00
aI00
aI00
aI00
aI00
aI00
aI00
aI00
aa(lp3089
I14925
aF193.073
aF49.492
aVp3
p3090
aS'dejavuserif'
p3091
aS'#000000'
p3092
aF11.0
aI0
aI01
aI00
aI00
aI00
aI00
aI00
aI00
aI00
aa(lp3093
I234378
aF267.191
aF49.492
aVp3
p3094
aS'dejavuserif'
p3095
aS'#000000'
p3096
aF11.0
aI0
aI00
aI00
aI00
aI00
aI00
aI00
aI00
aI00
aa(lp3097
I71087
aF273.48519999999996
aF49.492
ag3094
aS'dejavuserif'
p3098
aS'#000000'
p3099
aF11.0
aI0
aI01
aI00
aI00
aI00
aI00
aI00
aI00
aI00
aa(lp3100
I234378
aF292.3678
aF49.492
ag3094
aS'dejavuserif'
p3101
aS'#000000'
p3102
aF11.0
aI0
aI00
aI00
aI00
aI00
aI00
aI00
aI00
aI00
aa(lp3103
I85582
aF302.149
aF49.492
aVp3
p3104
aS'dejavuserif'
p3105
aS'#000000'
p3106
aF11.0
aI0
aI00
aI00
aI00
aI00
aI00
aI00
aI00
aI00
aa(lp3107
I192651
aF354.894
aF49.492
aVp3
p3108
aS'dejavuserif'
p3109
aS'#000000'
p3110
aF11.0
aI0
aI00
aI00
aI00
aI00
aI00
aI00
aI00
aI00
aa(lp3111
I234378
aF371.581
aF49.492
aVp3
p3112
aS'dejavuserif'
p3113
aS'#000000'
p3114
aF11.0
aI0
aI01
aI01
aI00
aI00
aI00
aI00
aI00
aI00
aa(lp3115
I89480
aF390.545
aF49.492
aVp3
p3116
aS'dejavuserif'
p3117
aS'#000000'
p3118
aF11.0
aI0
aI00
aI00
aI00
aI00
aI00
aI00
aI00
aI00
aa(lp3119
I120366
aF405.12
aF49.492
aVp3
p3120
aS'dejavuserif'
p3121
aS'#000000'
p3122
aF11.0
aI0
aI00
aI00
aI00
aI00
aI00
aI00
aI00
aI00
aa(lp3123
I1507
aF451.991
aF49.492
aVp3
p3124
aS'dejavuserif'
p3125
aS'#000000'
p3126
aF11.0
aI0
aI01
aI01
aI00
aI00
aI00
aI00
aI00
aI00
aa(lp3127
I233548
aF475.267
aF49.492
aVp3
p3128
aS'dejavuserif'
p3129
aS'#000000'
p3130
aF11.0
aI0
aI01
aI00
aI00
aI00
aI00
aI00
aI00
aI00
aa(lp3131
I218914
aF88.1
aF63.092
aVp3
p3132
aS'dejavuserif'
p3133
aS'#000000'
p3134
aF11.0
aI0
aI00
aI00
aI00
aI00
aI00
aI00
aI00
aI00
aa(lp3135
I113929
aF124.763
aF63.092
aVp3
p3136
aS'dejavuserif'
p3137
aS'#000000'
p3138
aF11.0
aI0
aI00
aI00
aI00
aI00
aI00
aI00
aI00
aI00
aa(lp3139
I179418
aF148.237
aF63.092
aVp3
p3140
aS'dejavuserif'
p3141
aS'#000000'
p3142
aF11.0
aI0
aI00
aI00
aI00
aI00
aI00
aI00
aI00
aI00
aa(lp3143
I234378
aF193.898
aF63.092
aVp3
p3144
aS'dejavuserif'
p3145
aS'#000000'
p3146
aF11.0
aI0
aI00
aI00
aI00
aI00
aI00
aI00
aI00
aI00
aa(lp3147
I131049
aF231.463
aF63.092
aVp3
p3148
aS'dejavuserif'
p3149
aS'#000000'
p3150
aF11.0
aI0
aI00
aI00
aI00
aI00
aI00
aI00
aI00
aI00
aa(lp3151
I52532
aF261.328
aF63.092
aVp3
p3152
aS'dejavuserif'
p3153
aS'#000000'
p3154
aF11.0
aI0
aI00
aI00
aI00
aI00
aI00
aI00
aI00
aI00
aa(lp3155
I234378
aF312.973
aF63.092
aVp3
p3156
aS'dejavuserif'
p3157
aS'#000000'
p3158
aF11.0
aI0
aI00
aI00
aI00
aI00
aI00
aI00
aI00
aI00
aa(lp3159
I234378
aF350.29875000000004
aF63.092
ag3156
aS'dejavuserif'
p3160
aS'#000000'
p3161
aF11.0
aI0
aI00
aI00
aI00
aI00
aI00
aI00
aI00
aI00
aa(lp3162
I234378
aF88.1
aF75.892
aVp3
p3163
aS'dejavuserif'
p3164
aS'#000000'
p3165
aF11.0
aI0
aI01
aI00
aI00
aI00
aI00
aI00
aI00
aI00
aa(lp3166
I27249
aF165.331
aF75.892
aVp3
p3167
aS'dejavuserif'
p3168
aS'#000000'
p3169
aF11.0
aI0
aI00
aI00
aI00
aI00
aI00
aI00
aI00
aI00
aa(lp3170
I90075
aF245.829
aF75.892
aVp3
p3171
aS'dejavuserif'
p3172
aS'#000000'
p3173
aF11.0
aI0
aI00
aI00
aI00
aI00
aI00
aI00
aI00
aI00
aa(lp3174
I85218
aF278.191
aF75.892
aVp3
p3175
aS'dejavuserif'
p3176
aS'#000000'
p3177
aF11.0
aI0
aI00
aI00
aI00
aI00
aI00
aI00
aI00
aI00
aa(lp3178
I74911
aF302.347
aF75.892
aVp3
p3179
aS'dejavuserif'
p3180
aS'#000000'
p3181
aF11.0
aI0
aI00
aI00
aI00
aI00
aI00
aI00
aI00
aI00
aa(lp3182
I234378
aF370.987
aF75.892
aVp3
p3183
aS'dejavuserif'
p3184
aS'#000000'
p3185
aF11.0
aI0
aI00
aI00
aI00
aI00
aI00
aI00
aI00
aI00
aa(lp3186
I139426
aF404.955
aF75.892
aVp3
p3187
aS'dejavuserif'
p3188
aS'#000000'
p3189
aF11.0
aI0
aI00
aI00
aI00
aI00
aI00
aI00
aI00
aI00
aa(lp3190
I234378
aF450.286
aF75.892
aVp3
p3191
aS'dejavuserif'
p3192
aS'#000000'
p3193
aF11.0
aI0
aI00
aI00
aI00
aI00
aI00
aI00
aI00
aI00
aa(lp3194
I234378
aF484.034
aF75.892
aVp3
p3195
aS'dejavuserif'
p3196
aS'#000000'
p3197
aF11.0
aI0
aI00
aI00
aI01
aI00
aI00
aI00
aI00
aI00
aa(lp3198
I135639
aF515.098
aF75.892
aVp3
p3199
aS'dejavuserif'
p3200
aS'#000000'
p3201
aF11.0
aI0
aI00
aI00
aI00
aI00
aI00
aI00
aI00
aI00
aa(lp3202
I41890
aF529.167
aF75.892
aVp3
p3203
aS'dejavuserif'
p3204
aS'#000000'
p3205
aF11.0
aI0
aI00
aI00
aI00
aI00
aI00
aI00
aI00
aI00
aa(lp3206
I1507
aF88.1
aF89.592
aVp3
p3207
aS'dejavuserif'
p3208
aS'#000000'
p3209
aF11.0
aI0
aI01
aI01
aI00
aI00
aI00
aI00
aI00
aI00
aa(lp3210
I25931
aF111.376
aF89.592
aVp3
p3211
aS'dejavuserif'
p3212
aS'#000000'
p3213
aF11.0
aI0
aI00
aI00
aI00
aI00
aI00
aI00
aI00
aI00
aa(lp3214
I234378
aF146.037
aF89.592
aVp3
p3215
aS'dejavuserif'
p3216
aS'#000000'
p3217
aF11.0
aI0
aI00
aI00
aI00
aI00
aI00
aI00
aI00
aI00
aa(lp3218
I234378
aF189.47966666666667
aF89.592
ag3215
aS'dejavuserif'
p3219
aS'#000000'
p3220
aF11.0
aI0
aI00
aI00
aI00
aI00
aI00
aI00
aI00
aI00
aa(lp3221
I224291
aF88.1
aF102.392
aVp3
p3222
aS'dejavuserif'
p3223
aS'#000000'
p3224
aF11.0
aI0
aI01
aI00
aI00
aI00
aI00
aI00
aI00
aI00
aa(lp3225
I98580
aF122.068
aF102.392
aVp3
p3226
aS'dejavuserif'
p3227
aS'#000000'
p3228
aF11.0
aI0
aI00
aI00
aI00
aI00
aI00
aI00
aI00
aI00
aa(lp3229
I85218
aF181.589
aF102.392
aVp3
p3230
aS'dejavuserif'
p3231
aS'#000000'
p3232
aF11.0
aI0
aI00
aI00
aI00
aI00
aI00
aI00
aI00
aI00
aa(lp3233
I149270
aF205.745
aF102.392
aVp3
p3234
aS'dejavuserif'
p3235
aS'#000000'
p3236
aF11.0
aI0
aI00
aI00
aI00
aI00
aI00
aI00
aI00
aI00
aa(lp3237
I121847
aF260.184
aF102.392
aVp3
p3238
aS'dejavuserif'
p3239
aS'#000000'
p3240
aF11.0
aI0
aI00
aI00
aI00
aI00
aI00
aI00
aI00
aI00
aa(lp3241
I234378
aF284.659
aF102.392
aVp3
p3242
aS'dejavuserif'
p3243
aS'#000000'
p3244
aF11.0
aI0
aI00
aI00
aI00
aI00
aI00
aI00
aI00
aI00
aa(lp3245
I234378
aF88.1
aF115.992
aVp3
p3246
aS'dejavuserif'
p3247
aS'#000000'
p3248
aF11.0
aI0
aI01
aI01
aI00
aI00
aI00
aI00
aI00
aI00
aa(lp3249
I85218
aF115.182
aF115.992
aVp3
p3250
aS'dejavuserif'
p3251
aS'#000000'
p3252
aF11.0
aI0
aI00
aI00
aI00
aI00
aI00
aI00
aI00
aI00
aa(lp3253
I3878
aF139.338
aF115.992
aVp3
p3254
aS'dejavuserif'
p3255
aS'#000000'
p3256
aF11.0
aI0
aI01
aI00
aI00
aI00
aI00
aI00
aI00
aI00
aa(lp3257
I12878
aF203.985
aF115.992
aVp3
p3258
aS'dejavuserif'
p3259
aS'#000000'
p3260
aF11.0
aI0
aI00
aI00
aI00
aI00
aI00
aI00
aI00
aI00
aa(lp3261
I101862
aF278.103
aF115.992
aVp3
p3262
aS'dejavuserif'
p3263
aS'#000000'
p3264
aF11.0
aI0
aI00
aI00
aI00
aI00
aI00
aI00
aI00
aI00
aa(lp3265
I15429
aF298.178
aF115.992
aVp3
p3266
aS'dejavuserif'
p3267
aS'#000000'
p3268
aF11.0
aI0
aI00
aI00
aI00
aI00
aI00
aI00
aI00
aI00
aa(lp3269
I144483
aF315.745
aF115.992
aVp3
p3270
aS'dejavuserif'
p3271
aS'#000000'
p3272
aF11.0
aI0
aI00
aI00
aI00
aI00
aI00
aI00
aI00
aI00
aa(lp3273
I127135
aF332.916
aF115.992
aVp3
p3274
aS'dejavuserif'
p3275
aS'#000000'
p3276
aF11.0
aI0
aI01
aI00
aI00
aI00
aI00
aI00
aI00
aI00
aa(lp3277
I177958
aF52.1
aF142.482
aVp3
p3278
aS'dejavuserif'
p3279
aS'#000000'
p3280
aF11.0
aI1
aI01
aI00
aI00
aI00
aI00
aI00
aI00
aI00
aa(lp3281
I107562
aF100.1
aF142.482
aVp3
p3282
aS'dejavuserif'
p3283
aS'#000000'
p3284
aF11.0
aI1
aI01
aI00
aI00
aI00
aI00
aI00
aI00
aI00
aa(lp3285
I234378
aF193.776
aF142.482
aVp3
p3286
aS'dejavuserif'
p3287
aS'#000000'
p3288
aF11.0
aI1
aI00
aI00
aI00
aI00
aI00
aI00
aI00
aI00
aa(lp3289
I177823
aF201.8
aF142.482
aVp3
p3290
aS'dejavuserif'
p3291
aS'#000000'
p3292
aF11.0
aI1
aI01
aI00
aI00
aI00
aI00
aI00
aI00
aI00
aa(lp3293
I104149
aF228.871
aF142.482
aVp3
p3294
aS'dejavuserif'
p3295
aS'#000000'
p3296
aF11.0
aI1
aI01
aI00
aI00
aI00
aI00
aI00
aI00
aI00
aa(lp3297
I164851
aF259.44
aF142.482
aVp3
p3298
aS'dejavuserif'
p3299
aS'#000000'
p3300
aF11.0
aI1
aI01
aI00
aI00
aI00
aI00
aI00
aI00
aI00
aa(lp3301
I153177
aF299.084
aF142.482
aVp3
p3302
aS'dejavuserif'
p3303
aS'#000000'
p3304
aF11.0
aI1
aI01
aI00
aI00
aI00
aI00
aI00
aI00
aI00
aa(lp3305
I207716
aF383.729
aF142.482
aVp3
p3306
aS'dejavuserif'
p3307
aS'#000000'
p3308
aF11.0
aI1
aI01
aI00
aI00
aI00
aI00
aI00
aI00
aI00
aa(lp3309
I234378
aF431.788
aF142.482
aVp3
p3310
aS'dejavuserif'
p3311
aS'#000000'
p3312
aF11.0
aI1
aI00
aI00
aI00
aI00
aI00
aI00
aI00
aI00
aa(lp3313
I234378
aF438.4338333333333
aF142.482
ag3310
aS'dejavuserif'
p3314
aS'#000000'
p3315
aF11.0
aI1
aI01
aI00
aI00
aI00
aI00
aI00
aI00
aI00
aa(lp3316
I234378
aF475.469
aF142.482
aVp3
p3317
aS'dejavuserif'
p3318
aS'#000000'
p3319
aF11.0
aI1
aI01
aI01
aI00
aI00
aI00
aI00
aI00
aI00
aa(lp3320
I234378
aF501.62975
aF142.482
ag3317
aS'dejavuserif'
p3321
aS'#000000'
p3322
aF11.0
aI1
aI00
aI00
aI00
aI00
aI00
aI00
aI00
aI00
aa(lp3323
I120031
aF52.1
aF155.482
aVp3
p3324
aS'dejavuserif'
p3325
aS'#000000'
p3326
aF11.0
aI1
aI01
aI00
aI00
aI00
aI00
aI00
aI00
aI00
aa(lp3327
I234378
aF198.939
aF155.482
aVp3
p3328
aS'dejavuserif'
p3329
aS'#000000'
p3330
aF11.0
aI1
aI00
aI00
aI00
aI00
aI00
aI00
aI00
aI00
aa(lp3331
I143552
aF206.826
aF155.482
aVp3
p3332
aS'dejavuserif'
p3333
aS'#000000'
p3334
aF11.0
aI1
aI01
aI00
aI00
aI00
aI00
aI00
aI00
aI01
aa(lp3335
I234378
aF238.396
aF155.482
aVp3
p3336
aS'dejavuserif'
p3337
aS'#000000'
p3338
aF11.0
aI1
aI00
aI00
aI01
aI01
aI01
aI00
aI00
aI00
aa(lp3339
I61519
aF270.67
aF155.482
aVp3
p3340
aS'dejavuserif'
p3341
aS'#000000'
p3342
aF11.0
aI1
aI01
aI00
aI00
aI00
aI00
aI00
aI00
aI01
aa(lp3343
I234378
aF291.338
aF155.482
ag3340
aS'dejavuserif'
p3344
aS'#000000'
p3345
aF11.0
aI1
aI00
aI00
aI01
aI01
aI01
aI00
aI00
aI00
aa(lp3346
I43275
aF52.1
aF168.382
aVp3
p3347
aS'dejavuserif'
p3348
aS'#000000'
p3349
aF11.0
aI1
aI01
aI00
aI00
aI00
aI00
aI00
aI00
aI00
aa(lp3350
I234378
aF201.821
aF168.382
aVp3
p3351
aS'dejavuserif'
p3352
aS'#000000'
p3353
aF11.0
aI1
aI00
aI00
aI00
aI00
aI00
aI00
aI00
aI00
aa(lp3354
I234378
aF209.62
aF168.382
aVp3
p3355
aS'dejavuserif'
p3356
aS'#000000'
p3357
aF11.0
aI1
aI01
aI00
aI00
aI00
aI00
aI00
aI00
aI00
aa(lp3358
I59734
aF242.52
aF168.382
ag3355
aS'dejavuserif'
p3359
aS'#000000'
p3360
aF11.0
aI1
aI00
aI00
aI00
aI00
aI00
aI00
aI00
aI00
aa(lp3361
I234378
aF258.185
aF168.382
aVp3
p3362
aS'dejavuserif'
p3363
aS'#000000'
p3364
aF11.0
aI1
aI01
aI01
aI00
aI00
aI00
aI00
aI00
aI00
aa(lp3365
I35885
aF291.658
aF168.382
aVp3
p3366
aS'dejavuserif'
p3367
aS'#000000'
p3368
aF11.0
aI1
aI00
aI00
aI00
aI00
aI00
aI00
aI00
aI00
aa(lp3369
I144483
aF331.214
aF168.382
aVp3
p3370
aS'dejavuserif'
p3371
aS'#000000'
p3372
aF11.0
aI1
aI00
aI00
aI00
aI00
aI00
aI00
aI00
aI00
aa(lp3373
I1507
aF350.31
aF168.382
aVp3
p3374
aS'dejavuserif'
p3375
aS'#000000'
p3376
aF11.0
aI1
aI01
aI01
aI00
aI00
aI00
aI00
aI00
aI00
aa(lp3377
I234378
aF375.698
aF168.382
aVp3
p3378
aS'dejavuserif'
p3379
aS'#000000'
p3380
aF11.0
aI1
aI00
aI00
aI00
aI00
aI00
aI00
aI00
aI00
aa(lp3381
I234378
aF422.95399999999995
aF168.382
ag3378
aS'dejavuserif'
p3382
aS'#000000'
p3383
aF11.0
aI1
aI00
aI00
aI00
aI00
aI00
aI00
aI00
aI00
aa(lp3384
I195166
aF52.1
aF181.382
aVp3
p3385
aS'dejavuserif'
p3386
aS'#000000'
p3387
aF11.0
aI1
aI01
aI00
aI00
aI00
aI00
aI00
aI00
aI00
aa(lp3388
I234378
aF107.84541176470589
aF181.382
ag3385
aS'dejavuserif'
p3389
aS'#000000'
p3390
aF11.0
aI1
aI00
aI00
aI00
aI00
aI00
aI00
aI00
aI00
aa(lp3391
I129342
aF114.81358823529412
aF181.382
ag3385
aS'dejavuserif'
p3392
aS'#000000'
p3393
aF11.0
aI1
aI01
aI00
aI00
aI00
aI00
aI00
aI00
aI00
aa(lp3394
I234378
aF174.494
aF181.382
aVp3
p3395
aS'dejavuserif'
p3396
aS'#000000'
p3397
aF11.0
aI1
aI00
aI00
aI00
aI00
aI00
aI00
aI00
aI00
aa(lp3398
I234378
aF182.4
aF181.492
aVp3
p3399
aS'dejavuserif'
p3400
aS'#000000'
p3401
aF11.0
aI0
aI01
aI00
aI00
aI00
aI00
aI00
aI00
aI00
aa(lp3402
I234378
aF229.8144
aF181.492
ag3399
aS'dejavuserif'
p3403
aS'#000000'
p3404
aF11.0
aI0
aI00
aI00
aI00
aI00
aI00
aI00
aI00
aI00
aa(lp3405
I230576
aF235.7412
aF181.492
ag3399
aS'dejavuserif'
p3406
aS'#000000'
p3407
aF11.0
aI0
aI00
aI00
aI00
aI00
aI00
aI00
aI00
aI00
aa(lp3408
I234378
aF245.144
aF181.492
aVp3
p3409
aS'dejavuserif'
p3410
aS'#000000'
p3411
aF11.0
aI0
aI00
aI00
aI00
aI00
aI00
aI00
aI00
aI00
aa(lp3412
I21716
aF250.53766666666667
aF181.492
ag3409
aS'dejavuserif'
p3413
aS'#000000'
p3414
aF11.0
aI0
aI01
aI00
aI00
aI00
aI00
aI00
aI00
aI00
aa(lp3415
I234378
aF272.1123333333333
aF181.492
ag3409
aS'dejavuserif'
p3416
aS'#000000'
p3417
aF11.0
aI0
aI00
aI00
aI00
aI00
aI00
aI00
aI00
aI00
aa(lp3418
I66756
aF52.1
aF194.282
aVp3
p3419
aS'dejavuserif'
p3420
aS'#000000'
p3421
aF11.0
aI1
aI01
aI00
aI00
aI00
aI00
aI00
aI00
aI00
aa(lp3422
I234378
aF127.527
aF194.282
aVp3
p3423
aS'dejavuserif'
p3424
aS'#000000'
p3425
aF11.0
aI1
aI00
aI00
aI00
aI00
aI00
aI00
aI00
aI00
aa(lp3426
I234378
aF135.4654
aF194.282
ag3423
aS'dejavuserif'
p3427
aS'#000000'
p3428
aF11.0
aI1
aI01
aI01
aI00
aI00
aI00
aI00
aI00
aI00
aa(lp3429
I22474
aF165.673
aF194.392
aVp3
p3430
aS'dejavuserif'
p3431
aS'#000000'
p3432
aF11.0
aI0
aI00
aI00
aI00
aI00
aI00
aI00
aI00
aI00
aa(lp3433
I194354
aF178.345
aF194.392
aVp3
p3434
aS'dejavuserif'
p3435
aS'#000000'
p3436
aF11.0
aI0
aI00
aI00
aI00
aI00
aI00
aI00
aI00
aI00
aa(lp3437
I234378
aF199.817
aF194.392
aVp3
p3438
aS'dejavuserif'
p3439
aS'#000000'
p3440
aF11.0
aI0
aI01
aI00
aI00
aI00
aI00
aI00
aI00
aI00
aa(lp3441
I59734
aF230.02200000000002
aF194.392
ag3438
aS'dejavuserif'
p3442
aS'#000000'
p3443
aF11.0
aI0
aI00
aI00
aI00
aI00
aI00
aI00
aI00
aI00
aa(lp3444
I29440
aF244.147
aF194.392
aVp3
p3445
aS'dejavuserif'
p3446
aS'#000000'
p3447
aF11.0
aI0
aI00
aI00
aI00
aI00
aI00
aI00
aI00
aI00
aa(lp3448
I234378
aF286.717
aF194.392
aVp3
p3449
aS'dejavuserif'
p3450
aS'#000000'
p3451
aF11.0
aI0
aI00
aI00
aI00
aI00
aI00
aI00
aI00
aI00
aa(lp3452
I16331
aF338.681
aF194.392
aVp3
p3453
aS'dejavuserif'
p3454
aS'#000000'
p3455
aF11.0
aI0
aI00
aI00
aI00
aI00
aI00
aI00
aI00
aI00
aa(lp3456
I166593
aF354.356
aF194.392
aVp3
p3457
aS'dejavuserif'
p3458
aS'#000000'
p3459
aF11.0
aI0
aI00
aI00
aI00
aI00
aI00
aI00
aI00
aI00
aa(lp3460
I119502
aF364.432
aF194.392
aVp3
p3461
aS'dejavuserif'
p3462
aS'#000000'
p3463
aF11.0
aI0
aI00
aI00
aI00
aI00
aI00
aI00
aI00
aI00
aa(lp3464
I129342
aF407.706
aF194.392
aVp3
p3465
aS'dejavuserif'
p3466
aS'#000000'
p3467
aF11.0
aI0
aI00
aI00
aI00
aI00
aI00
aI00
aI00
aI00
aa(lp3468
I218914
aF459.054
aF194.392
aVp3
p3469
aS'dejavuserif'
p3470
aS'#000000'
p3471
aF11.0
aI0
aI00
aI00
aI00
aI00
aI00
aI00
aI00
aI00
aa(lp3472
I22474
aF495.805
aF194.392
aVp3
p3473
aS'dejavuserif'
p3474
aS'#000000'
p3475
aF11.0
aI0
aI00
aI00
aI00
aI00
aI00
aI00
aI00
aI00
aa(lp3476
I194354
aF508.389
aF194.392
aVp3
p3477
aS'dejavuserif'
p3478
aS'#000000'
p3479
aF11.0
aI0
aI00
aI00
aI00
aI00
aI00
aI00
aI00
aI00
aa(lp3480
I141687
aF52.1
aF207.192
aVp3
p3481
aS'dejavuserif'
p3482
aS'#000000'
p3483
aF11.0
aI0
aI00
aI00
aI00
aI00
aI00
aI00
aI00
aI00
aa(lp3484
I144489
aF117.528
aF207.192
aVp3
p3485
aS'dejavuserif'
p3486
aS'#000000'
p3487
aF11.0
aI0
aI00
aI00
aI00
aI00
aI00
aI00
aI00
aI00
aa(lp3488
I234378
aF131.707
aF207.192
aVp3
p3489
aS'dejavuserif'
p3490
aS'#000000'
p3491
aF11.0
aI0
aI00
aI00
aI00
aI00
aI00
aI00
aI00
aI00
aa(lp3492
I80365
aF137.07774999999998
aF207.192
ag3489
aS'dejavuserif'
p3493
aS'#000000'
p3494
aF11.0
aI0
aI00
aI00
aI00
aI00
aI00
aI00
aI00
aI00
aa(lp3495
I186242
aF156.666
aF207.192
aVp3
p3496
aS'dejavuserif'
p3497
aS'#000000'
p3498
aF11.0
aI0
aI00
aI00
aI00
aI00
aI00
aI00
aI00
aI00
aa(lp3499
I25691
aF187.62
aF207.192
aVp3
p3500
aS'dejavuserif'
p3501
aS'#000000'
p3502
aF11.0
aI0
aI00
aI00
aI00
aI00
aI00
aI00
aI00
aI00
aa(lp3503
I85218
aF211.688
aF207.192
aVp3
p3504
aS'dejavuserif'
p3505
aS'#000000'
p3506
aF11.0
aI0
aI00
aI00
aI00
aI00
aI00
aI00
aI00
aI00
aa(lp3507
I1507
aF235.844
aF207.192
aVp3
p3508
aS'dejavuserif'
p3509
aS'#000000'
p3510
aF11.0
aI0
aI01
aI01
aI00
aI00
aI00
aI00
aI00
aI00
aa(lp3511
I234378
aF259.12
aF207.192
aVp3
p3512
aS'dejavuserif'
p3513
aS'#000000'
p3514
aF11.0
aI0
aI00
aI00
aI00
aI00
aI00
aI00
aI00
aI00
aa(lp3515
I234378
aF307.993
aF207.192
aVp3
p3516
aS'dejavuserif'
p3517
aS'#000000'
p3518
aF11.0
aI0
aI00
aI00
aI00
aI00
aI00
aI00
aI00
aI00
aa(lp3519
I132239
aF313.3065238095238
aF207.192
ag3516
aS'dejavuserif'
p3520
aS'#000000'
p3521
aF11.0
aI0
aI01
aI00
aI00
aI00
aI00
aI00
aI00
aI00
aa(lp3522
I212593
aF362.1282380952381
aF207.192
ag3516
aS'dejavuserif'
p3523
aS'#000000'
p3524
aF11.0
aI0
aI01
aI00
aI00
aI00
aI00
aI00
aI00
aI00
aa(lp3525
I234378
aF404.63642857142855
aF207.192
ag3516
aS'dejavuserif'
p3526
aS'#000000'
p3527
aF11.0
aI0
aI00
aI00
aI00
aI00
aI00
aI00
aI00
aI00
aa(lp3528
I234378
aF409.94995238095237
aF207.192
ag3516
aS'dejavuserif'
p3529
aS'#000000'
p3530
aF11.0
aI0
aI00
aI00
aI00
aI00
aI00
aI00
aI00
aI00
aa(lp3531
I194354
aF423.064
aF207.192
aVp3
p3532
aS'dejavuserif'
p3533
aS'#000000'
p3534
aF11.0
aI0
aI01
aI00
aI00
aI00
aI00
aI00
aI00
aI00
aa(lp3535
I234378
aF447.44
aF207.192
aVp3
p3536
aS'dejavuserif'
p3537
aS'#000000'
p3538
aF11.0
aI0
aI01
aI01
aI00
aI00
aI00
aI00
aI00
aI00
aa(lp3539
I22474
aF478.713
aF207.192
aVp3
p3540
aS'dejavuserif'
p3541
aS'#000000'
p3542
aF11.0
aI0
aI00
aI00
aI00
aI00
aI00
aI00
aI00
aI00
aa(lp3543
I166593
aF491.385
aF207.192
aVp3
p3544
aS'dejavuserif'
p3545
aS'#000000'
p3546
aF11.0
aI0
aI00
aI00
aI00
aI00
aI00
aI00
aI00
aI00
aa(lp3547
I207716
aF501.373
aF207.192
aVp3
p3548
aS'dejavuserif'
p3549
aS'#000000'
p3550
aF11.0
aI0
aI00
aI00
aI00
aI00
aI00
aI00
aI00
aI00
aa(lp3551
I218914
aF52.1
aF219.992
aVp3
p3552
aS'dejavuserif'
p3553
aS'#000000'
p3554
aF11.0
aI0
aI00
aI00
aI00
aI00
aI00
aI00
aI00
aI00
aa(lp3555
I33705
aF88.763
aF219.992
aVp3
p3556
aS'dejavuserif'
p3557
aS'#000000'
p3558
aF11.0
aI0
aI00
aI00
aI00
aI00
aI00
aI00
aI00
aI00
aa(lp3559
I61195
aF112.028
aF219.992
aVp3
p3560
aS'dejavuserif'
p3561
aS'#000000'
p3562
aF11.0
aI0
aI00
aI00
aI00
aI00
aI00
aI00
aI00
aI00
aa(lp3563
I41890
aF158.382
aF219.992
aVp3
p3564
aS'dejavuserif'
p3565
aS'#000000'
p3566
aF11.0
aI0
aI00
aI00
aI00
aI00
aI00
aI00
aI00
aI00
aa(lp3567
I194354
aF175.454
aF219.992
aVp3
p3568
aS'dejavuserif'
p3569
aS'#000000'
p3570
aF11.0
aI0
aI00
aI00
aI00
aI00
aI00
aI00
aI00
aI00
aa(lp3571
I164851
aF196.926
aF219.992
aVp3
p3572
aS'dejavuserif'
p3573
aS'#000000'
p3574
aF11.0
aI0
aI00
aI00
aI00
aI00
aI00
aI00
aI00
aI00
aa(lp3575
I234378
aF231.092
aF219.992
aVp3
p3576
aS'dejavuserif'
p3577
aS'#000000'
p3578
aF11.0
aI0
aI00
aI00
aI00
aI00
aI00
aI00
aI00
aI00
aa(lp3579
I197030
aF264.367
aF219.992
aVp3
p3580
aS'dejavuserif'
p3581
aS'#000000'
p3582
aF11.0
aI0
aI00
aI00
aI00
aI00
aI00
aI00
aI00
aI00
aa(lp3583
I234378
aF268.61025
aF219.992
ag3580
aS'dejavuserif'
p3584
aS'#000000'
p3585
aF11.0
aI0
aI00
aI00
aI00
aI00
aI00
aI00
aI00
aI00
aa(lp3586
I64620
aF272.8535
aF219.992
ag3580
aS'dejavuserif'
p3587
aS'#000000'
p3588
aF11.0
aI0
aI00
aI00
aI00
aI00
aI00
aI00
aI00
aI00
aa(lp3589
I234378
aF275.09675
aF219.992
ag3580
aS'dejavuserif'
p3590
aS'#000000'
p3591
aF11.0
aI0
aI00
aI00
aI00
aI00
aI00
aI00
aI00
aI00
aa(lp3592
I133841
aF284.926
aF219.992
aVp3
p3593
aS'dejavuserif'
p3594
aS'#000000'
p3595
aF11.0
aI0
aI01
aI00
aI00
aI00
aI00
aI00
aI00
aI00
aa(lp3596
I234378
aF320.566
aF219.992
ag3593
aS'dejavuserif'
p3597
aS'#000000'
p3598
aF11.0
aI0
aI00
aI00
aI00
aI00
aI00
aI00
aI00
aI00
aa(lp3599
I33801
aF330.092
aF219.992
aVp3
p3600
aS'dejavuserif'
p3601
aS'#000000'
p3602
aF11.0
aI0
aI01
aI00
aI00
aI00
aI00
aI00
aI00
aI00
aa(lp3603
I234378
aF363.24285714285713
aF219.992
ag3600
aS'dejavuserif'
p3604
aS'#000000'
p3605
aF11.0
aI0
aI00
aI00
aI00
aI00
aI00
aI00
aI00
aI00
aa(lp3606
I46378
aF372.354
aF219.992
aVp3
p3607
aS'dejavuserif'
p3608
aS'#000000'
p3609
aF11.0
aI0
aI01
aI00
aI00
aI00
aI00
aI00
aI00
aI00
aa(lp3610
I213747
aF412.504
aF219.992
aVp3
p3611
aS'dejavuserif'
p3612
aS'#000000'
p3613
aF11.0
aI0
aI01
aI00
aI00
aI00
aI00
aI00
aI00
aI00
aa(lp3614
I234378
aF429.7696
aF219.992
ag3611
aS'dejavuserif'
p3615
aS'#000000'
p3616
aF11.0
aI0
aI00
aI00
aI00
aI00
aI00
aI00
aI00
aI00
aa(lp3617
I213747
aF437.672
aF219.992
aVp3
p3618
aS'dejavuserif'
p3619
aS'#000000'
p3620
aF11.0
aI0
aI01
aI00
aI00
aI00
aI00
aI00
aI00
aI00
aa(lp3621
I234378
aF454.93760000000003
aF219.992
ag3618
aS'dejavuserif'
p3622
aS'#000000'
p3623
aF11.0
aI0
aI00
aI00
aI00
aI00
aI00
aI00
aI00
aI00
aa(lp3624
I194354
aF462.84
aF219.992
aVp3
p3625
aS'dejavuserif'
p3626
aS'#000000'
p3627
aF11.0
aI0
aI01
aI00
aI00
aI00
aI00
aI00
aI00
aI00
aa(lp3628
I234378
aF487.216
aF219.992
aVp3
p3629
aS'dejavuserif'
p3630
aS'#000000'
p3631
aF11.0
aI0
aI01
aI01
aI00
aI00
aI00
aI00
aI00
aI00
aa(lp3632
I22474
aF518.489
aF219.992
aVp3
p3633
aS'dejavuserif'
p3634
aS'#000000'
p3635
aF11.0
aI0
aI00
aI00
aI00
aI00
aI00
aI00
aI00
aI00
aa(lp3636
I60534
aF52.1
aF232.792
aVp3
p3637
aS'dejavuserif'
p3638
aS'#000000'
p3639
aF11.0
aI0
aI00
aI00
aI00
aI00
aI00
aI00
aI00
aI00
aa(lp3640
I173426
aF77.873
aF232.792
aVp3
p3641
aS'dejavuserif'
p3642
aS'#000000'
p3643
aF11.0
aI0
aI00
aI00
aI00
aI00
aI00
aI00
aI00
aI00
aa(lp3644
I89480
aF131.707
aF232.792
aVp3
p3645
aS'dejavuserif'
p3646
aS'#000000'
p3647
aF11.0
aI0
aI00
aI00
aI00
aI00
aI00
aI00
aI00
aI00
aa(lp3648
I61195
aF146.194
aF232.792
aVp3
p3649
aS'dejavuserif'
p3650
aS'#000000'
p3651
aF11.0
aI0
aI00
aI00
aI00
aI00
aI00
aI00
aI00
aI00
aa(lp3652
I234378
aF192.548
aF232.792
aVp3
p3653
aS'dejavuserif'
p3654
aS'#000000'
p3655
aF11.0
aI0
aI00
aI00
aI00
aI00
aI00
aI00
aI00
aI00
aa(lp3656
I192651
aF232.401
aF232.792
aVp3
p3657
aS'dejavuserif'
p3658
aS'#000000'
p3659
aF11.0
aI0
aI00
aI00
aI00
aI00
aI00
aI00
aI00
aI00
aa(lp3660
I234378
aF249.088
aF232.792
aVp3
p3661
aS'dejavuserif'
p3662
aS'#000000'
p3663
aF11.0
aI0
aI00
aI00
aI00
aI00
aI00
aI00
aI00
aI00
aa(lp3664
I234378
aF312.217
aF232.792
aVp3
p3665
aS'dejavuserif'
p3666
aS'#000000'
p3667
aF11.0
aI0
aI00
aI00
aI00
aI00
aI00
aI00
aI00
aI00
aa(lp3668
I207716
aF346.185
aF232.792
aVp3
p3669
aS'dejavuserif'
p3670
aS'#000000'
p3671
aF11.0
aI0
aI00
aI00
aI00
aI00
aI00
aI00
aI00
aI00
aa(lp3672
I138765
aF388.458
aF232.792
aVp3
p3673
aS'dejavuserif'
p3674
aS'#000000'
p3675
aF11.0
aI0
aI00
aI00
aI00
aI00
aI00
aI00
aI00
aI00
aa(lp3676
I135639
aF432.634
aF232.792
aVp3
p3677
aS'dejavuserif'
p3678
aS'#000000'
p3679
aF11.0
aI0
aI00
aI00
aI00
aI00
aI00
aI00
aI00
aI00
aa(lp3680
I21716
aF446.703
aF232.792
aVp3
p3681
aS'dejavuserif'
p3682
aS'#000000'
p3683
aF11.0
aI0
aI01
aI00
aI00
aI00
aI00
aI00
aI00
aI00
aa(lp3684
I234378
aF468.43899999999996
aF232.792
ag3681
aS'dejavuserif'
p3685
aS'#000000'
p3686
aF11.0
aI0
aI00
aI00
aI00
aI00
aI00
aI00
aI00
aI00
aa(lp3687
I46544
aF477.36
aF232.792
aVp3
p3688
aS'dejavuserif'
p3689
aS'#000000'
p3690
aF11.0
aI0
aI01
aI00
aI00
aI00
aI00
aI00
aI00
aI00
aa(lp3691
I234378
aF504.42
aF232.792
aVp3
p3692
aS'dejavuserif'
p3693
aS'#000000'
p3694
aF11.0
aI0
aI01
aI01
aI00
aI00
aI00
aI00
aI00
aI00
aa(lp3695
I234378
aF52.1
aF245.592
aVp3
p3696
aS'dejavuserif'
p3697
aS'#000000'
p3698
aF11.0
aI0
aI00
aI00
aI00
aI00
aI00
aI00
aI00
aI00
aa(lp3699
I147316
aF74.859
aF245.592
aVp3
p3700
aS'dejavuserif'
p3701
aS'#000000'
p3702
aF11.0
aI0
aI00
aI00
aI00
aI00
aI00
aI00
aI00
aI00
aa(lp3703
I89480
aF121.4
aF245.592
aVp3
p3704
aS'dejavuserif'
p3705
aS'#000000'
p3706
aF11.0
aI0
aI00
aI00
aI00
aI00
aI00
aI00
aI00
aI00
aa(lp3707
I234378
aF135.887
aF245.592
aVp3
p3708
aS'dejavuserif'
p3709
aS'#000000'
p3710
aF11.0
aI0
aI01
aI01
aI00
aI00
aI00
aI00
aI00
aI00
aa(lp3711
I234378
aF156.644
aF245.592
ag3708
aS'dejavuserif'
p3712
aS'#000000'
p3713
aF11.0
aI0
aI00
aI00
aI00
aI00
aI00
aI00
aI00
aI00
aa(lp3714
I234378
aF167.149
aF245.592
aVp3
p3715
aS'dejavuserif'
p3716
aS'#000000'
p3717
aF11.0
aI0
aI01
aI00
aI00
aI00
aI00
aI00
aI00
aI00
aa(lp3718
I234378
aF186.47875
aF245.592
ag3715
aS'dejavuserif'
p3719
aS'#000000'
p3720
aF11.0
aI0
aI00
aI00
aI00
aI00
aI00
aI00
aI00
aI00
aa(lp3721
I234378
aF192.922
aF245.592
ag3715
aS'dejavuserif'
p3722
aS'#000000'
p3723
aF11.0
aI0
aI01
aI00
aI00
aI00
aI00
aI00
aI00
aI00
aa(lp3724
I85218
aF222.215
aF245.592
aVp3
p3725
aS'dejavuserif'
p3726
aS'#000000'
p3727
aF11.0
aI0
aI00
aI00
aI00
aI00
aI00
aI00
aI00
aI00
aa(lp3728
I153171
aF246.371
aF245.592
aVp3
p3729
aS'dejavuserif'
p3730
aS'#000000'
p3731
aF11.0
aI0
aI01
aI00
aI00
aI00
aI00
aI00
aI00
aI00
aa(lp3732
I234378
aF286.125
aF245.592
aVp3
p3733
aS'dejavuserif'
p3734
aS'#000000'
p3735
aF11.0
aI0
aI01
aI00
aI00
aI00
aI00
aI00
aI00
aI00
aa(lp3736
I234378
aF332.897
aF245.592
aVp3
p3737
aS'dejavuserif'
p3738
aS'#000000'
p3739
aF11.0
aI0
aI00
aI00
aI00
aI00
aI00
aI00
aI00
aI00
aa(lp3740
I234378
aF379.6934444444444
aF245.592
ag3737
aS'dejavuserif'
p3741
aS'#000000'
p3742
aF11.0
aI0
aI00
aI00
aI00
aI00
aI00
aI00
aI00
aI00
aa(lp3743
I234378
aF52.1
aF310.282
aVp3
p3744
aS'dejavuserif'
p3745
aS'#000000'
p3746
aF11.0
aI1
aI01
aI00
aI00
aI00
aI00
aI00
aI00
aI00
aa(lp3747
I68196
aF88.1
aF323.192
aVp3
p3748
aS'dejavuserif'
p3749
aS'#000000'
p3750
aF11.0
aI0
aI01
aI00
aI00
aI00
aI00
aI00
aI00
aI00
aa(lp3751
I234378
aF144.442
aF323.192
aVp3
p3752
aS'dejavuserif'
p3753
aS'#000000'
p3754
aF11.0
aI0
aI01
aI00
aI00
aI00
aI00
aI00
aI00
aI00
aa(lp3755
I144489
aF178.894
aF323.192
aVp3
p3756
aS'dejavuserif'
p3757
aS'#000000'
p3758
aF11.0
aI0
aI00
aI00
aI00
aI00
aI00
aI00
aI00
aI00
aa(lp3759
I14925
aF193.073
aF323.192
aVp3
p3760
aS'dejavuserif'
p3761
aS'#000000'
p3762
aF11.0
aI0
aI01
aI00
aI00
aI00
aI00
aI00
aI00
aI00
aa(lp3763
I234378
aF267.191
aF323.192
aVp3
p3764
aS'dejavuserif'
p3765
aS'#000000'
p3766
aF11.0
aI0
aI00
aI00
aI00
aI00
aI00
aI00
aI00
aI00
aa(lp3767
I71087
aF273.48519999999996
aF323.192
ag3764
aS'dejavuserif'
p3768
aS'#000000'
p3769
aF11.0
aI0
aI01
aI00
aI00
aI00
aI00
aI00
aI00
aI00
aa(lp3770
I234378
aF292.3678
aF323.192
ag3764
aS'dejavuserif'
p3771
aS'#000000'
p3772
aF11.0
aI0
aI00
aI00
aI00
aI00
aI00
aI00
aI00
aI00
aa(lp3773
I85582
aF302.149
aF323.192
aVp3
p3774
aS'dejavuserif'
p3775
aS'#000000'
p3776
aF11.0
aI0
aI00
aI00
aI00
aI00
aI00
aI00
aI00
aI00
aa(lp3777
I192651
aF354.894
aF323.192
aVp3
p3778
aS'dejavuserif'
p3779
aS'#000000'
p3780
aF11.0
aI0
aI00
aI00
aI00
aI00
aI00
aI00
aI00
aI00
aa(lp3781
I234378
aF371.581
aF323.192
aVp3
p3782
aS'dejavuserif'
p3783
aS'#000000'
p3784
aF11.0
aI0
aI01
aI00
aI00
aI00
aI00
aI00
aI00
aI00
aa(lp3785
I59734
aF401.8017142857143
aF323.192
ag3782
aS'dejavuserif'
p3786
aS'#000000'
p3787
aF11.0
aI0
aI00
aI00
aI00
aI00
aI00
aI00
aI00
aI00
aa(lp3788
I135639
aF416.021
aF323.192
aVp3
p3789
aS'dejavuserif'
p3790
aS'#000000'
p3791
aF11.0
aI0
aI00
aI00
aI00
aI00
aI00
aI00
aI00
aI00
aa(lp3792
I85663
aF430.09
aF323.192
aVp3
p3793
aS'dejavuserif'
p3794
aS'#000000'
p3795
aF11.0
aI0
aI00
aI00
aI00
aI00
aI00
aI00
aI00
aI00
aa(lp3796
I195671
aF466.445
aF323.192
aVp3
p3797
aS'dejavuserif'
p3798
aS'#000000'
p3799
aF11.0
aI0
aI00
aI00
aI00
aI00
aI00
aI00
aI00
aI00
aa(lp3800
I210461
aF88.1
aF336.792
aVp3
p3801
aS'dejavuserif'
p3802
aS'#000000'
p3803
aF11.0
aI0
aI00
aI00
aI00
aI00
aI00
aI00
aI00
aI00
aa(lp3804
I89480
aF119.472
aF336.792
aVp3
p3805
aS'dejavuserif'
p3806
aS'#000000'
p3807
aF11.0
aI0
aI00
aI00
aI00
aI00
aI00
aI00
aI00
aI00
aa(lp3808
I120366
aF133.959
aF336.792
aVp3
p3809
aS'dejavuserif'
p3810
aS'#000000'
p3811
aF11.0
aI0
aI00
aI00
aI00
aI00
aI00
aI00
aI00
aI00
aa(lp3812
I1507
aF180.918
aF336.792
aVp3
p3813
aS'dejavuserif'
p3814
aS'#000000'
p3815
aF11.0
aI0
aI01
aI01
aI00
aI00
aI00
aI00
aI00
aI00
aa(lp3816
I234378
aF204.194
aF336.792
aVp3
p3817
aS'dejavuserif'
p3818
aS'#000000'
p3819
aF11.0
aI0
aI01
aI00
aI00
aI00
aI00
aI00
aI00
aI00
aa(lp3820
I234378
aF252.528
aF336.792
aVp3
p3821
aS'dejavuserif'
p3822
aS'#000000'
p3823
aF11.0
aI0
aI00
aI00
aI00
aI00
aI00
aI00
aI00
aI00
aa(lp3824
I132239
aF257.93285
aF336.792
ag3821
aS'dejavuserif'
p3825
aS'#000000'
p3826
aF11.0
aI0
aI01
aI00
aI00
aI00
aI00
aI00
aI00
aI00
aa(lp3827
I212593
aF307.57649999999995
aF336.792
ag3821
aS'dejavuserif'
p3828
aS'#000000'
p3829
aF11.0
aI0
aI01
aI00
aI00
aI00
aI00
aI00
aI00
aI00
aa(lp3830
I234378
aF350.8153
aF336.792
ag3821
aS'dejavuserif'
p3831
aS'#000000'
p3832
aF11.0
aI0
aI00
aI00
aI00
aI00
aI00
aI00
aI00
aI00
aa(lp3833
I218914
aF364.112
aF336.792
aVp3
p3834
aS'dejavuserif'
p3835
aS'#000000'
p3836
aF11.0
aI0
aI00
aI00
aI00
aI00
aI00
aI00
aI00
aI00
aa(lp3837
I113929
aF400.764
aF336.792
aVp3
p3838
aS'dejavuserif'
p3839
aS'#000000'
p3840
aF11.0
aI0
aI00
aI00
aI00
aI00
aI00
aI00
aI00
aI00
aa(lp3841
I144474
aF424.238
aF336.792
aVp3
p3842
aS'dejavuserif'
p3843
aS'#000000'
p3844
aF11.0
aI0
aI00
aI00
aI00
aI00
aI00
aI00
aI00
aI00
aa(lp3845
I85218
aF502.657
aF336.792
aVp3
p3846
aS'dejavuserif'
p3847
aS'#000000'
p3848
aF11.0
aI0
aI00
aI00
aI00
aI00
aI00
aI00
aI00
aI00
aa(lp3849
I72784
aF88.1
aF349.592
aVp3
p3850
aS'dejavuserif'
p3851
aS'#000000'
p3852
aF11.0
aI0
aI00
aI00
aI00
aI00
aI00
aI00
aI00
aI00
aa(lp3853
I194354
aF136.346
aF349.592
aVp3
p3854
aS'dejavuserif'
p3855
aS'#000000'
p3856
aF11.0
aI0
aI00
aI00
aI00
aI00
aI00
aI00
aI00
aI00
aa(lp3857
I164851
aF157.818
aF349.592
aVp3
p3858
aS'dejavuserif'
p3859
aS'#000000'
p3860
aF11.0
aI0
aI00
aI00
aI00
aI00
aI00
aI00
aI00
aI00
aa(lp3861
I234378
aF191.984
aF349.592
aVp3
p3862
aS'dejavuserif'
p3863
aS'#000000'
p3864
aF11.0
aI0
aI00
aI00
aI00
aI00
aI00
aI00
aI00
aI00
aa(lp3865
I131049
aF232.64
aF349.592
aVp3
p3866
aS'dejavuserif'
p3867
aS'#000000'
p3868
aF11.0
aI0
aI00
aI00
aI00
aI00
aI00
aI00
aI00
aI00
aa(lp3869
I153207
aF262.516
aF349.592
aVp3
p3870
aS'dejavuserif'
p3871
aS'#000000'
p3872
aF11.0
aI0
aI01
aI00
aI00
aI00
aI00
aI00
aI00
aI00
aa(lp3873
I104149
aF287.376
aF349.592
aVp3
p3874
aS'dejavuserif'
p3875
aS'#000000'
p3876
aF11.0
aI0
aI00
aI00
aI00
aI00
aI00
aI00
aI00
aI00
aa(lp3877
I89480
aF313.545
aF349.592
aVp3
p3878
aS'dejavuserif'
p3879
aS'#000000'
p3880
aF11.0
aI0
aI00
aI00
aI00
aI00
aI00
aI00
aI00
aI00
aa(lp3881
I177823
aF328.032
aF349.592
aVp3
p3882
aS'dejavuserif'
p3883
aS'#000000'
p3884
aF11.0
aI0
aI01
aI00
aI00
aI00
aI00
aI00
aI00
aI00
aa(lp3885
I104149
aF352.606
aF349.592
aVp3
p3886
aS'dejavuserif'
p3887
aS'#000000'
p3888
aF11.0
aI0
aI00
aI00
aI00
aI00
aI00
aI00
aI00
aI00
aa(lp3889
I234378
aF88.1
aF362.392
aVp3
p3890
aS'dejavuserif'
p3891
aS'#000000'
p3892
aF11.0
aI0
aI01
aI00
aI00
aI00
aI00
aI00
aI00
aI00
aa(lp3893
I27249
aF165.331
aF362.392
aVp3
p3894
aS'dejavuserif'
p3895
aS'#000000'
p3896
aF11.0
aI0
aI00
aI00
aI00
aI00
aI00
aI00
aI00
aI00
aa(lp3897
I90075
aF245.829
aF362.392
aVp3
p3898
aS'dejavuserif'
p3899
aS'#000000'
p3900
aF11.0
aI0
aI00
aI00
aI00
aI00
aI00
aI00
aI00
aI00
aa(lp3901
I85218
aF278.191
aF362.392
aVp3
p3902
aS'dejavuserif'
p3903
aS'#000000'
p3904
aF11.0
aI0
aI00
aI00
aI00
aI00
aI00
aI00
aI00
aI00
aa(lp3905
I74911
aF302.347
aF362.392
aVp3
p3906
aS'dejavuserif'
p3907
aS'#000000'
p3908
aF11.0
aI0
aI00
aI00
aI00
aI00
aI00
aI00
aI00
aI00
aa(lp3909
I234378
aF370.987
aF362.392
aVp3
p3910
aS'dejavuserif'
p3911
aS'#000000'
p3912
aF11.0
aI0
aI00
aI00
aI00
aI00
aI00
aI00
aI00
aI00
aa(lp3913
I139426
aF404.955
aF362.392
aVp3
p3914
aS'dejavuserif'
p3915
aS'#000000'
p3916
aF11.0
aI0
aI00
aI00
aI00
aI00
aI00
aI00
aI00
aI00
aa(lp3917
I234378
aF450.286
aF362.392
aVp3
p3918
aS'dejavuserif'
p3919
aS'#000000'
p3920
aF11.0
aI0
aI00
aI00
aI00
aI00
aI00
aI00
aI00
aI00
aa(lp3921
I234378
aF484.034
aF362.392
aVp3
p3922
aS'dejavuserif'
p3923
aS'#000000'
p3924
aF11.0
aI0
aI00
aI00
aI01
aI00
aI00
aI00
aI00
aI00
aa(lp3925
I135639
aF515.098
aF362.392
aVp3
p3926
aS'dejavuserif'
p3927
aS'#000000'
p3928
aF11.0
aI0
aI00
aI00
aI00
aI00
aI00
aI00
aI00
aI00
aa(lp3929
I41890
aF529.167
aF362.392
aVp3
p3930
aS'dejavuserif'
p3931
aS'#000000'
p3932
aF11.0
aI0
aI00
aI00
aI00
aI00
aI00
aI00
aI00
aI00
aa(lp3933
I1507
aF88.1
aF376.092
aVp3
p3934
aS'dejavuserif'
p3935
aS'#000000'
p3936
aF11.0
aI0
aI01
aI01
aI00
aI00
aI00
aI00
aI00
aI00
aa(lp3937
I25931
aF111.376
aF376.092
aVp3
p3938
aS'dejavuserif'
p3939
aS'#000000'
p3940
aF11.0
aI0
aI00
aI00
aI00
aI00
aI00
aI00
aI00
aI00
aa(lp3941
I234378
aF146.037
aF376.092
aVp3
p3942
aS'dejavuserif'
p3943
aS'#000000'
p3944
aF11.0
aI0
aI00
aI00
aI00
aI00
aI00
aI00
aI00
aI00
aa(lp3945
I234378
aF189.47966666666667
aF376.092
ag3942
aS'dejavuserif'
p3946
aS'#000000'
p3947
aF11.0
aI0
aI00
aI00
aI00
aI00
aI00
aI00
aI00
aI00
aa(lp3948
I224291
aF88.1
aF388.892
aVp3
p3949
aS'dejavuserif'
p3950
aS'#000000'
p3951
aF11.0
aI0
aI01
aI00
aI00
aI00
aI00
aI00
aI00
aI00
aa(lp3952
I98580
aF122.068
aF388.892
aVp3
p3953
aS'dejavuserif'
p3954
aS'#000000'
p3955
aF11.0
aI0
aI00
aI00
aI00
aI00
aI00
aI00
aI00
aI00
aa(lp3956
I85218
aF181.589
aF388.892
aVp3
p3957
aS'dejavuserif'
p3958
aS'#000000'
p3959
aF11.0
aI0
aI00
aI00
aI00
aI00
aI00
aI00
aI00
aI00
aa(lp3960
I149270
aF205.745
aF388.892
aVp3
p3961
aS'dejavuserif'
p3962
aS'#000000'
p3963
aF11.0
aI0
aI00
aI00
aI00
aI00
aI00
aI00
aI00
aI00
aa(lp3964
I121847
aF260.184
aF388.892
aVp3
p3965
aS'dejavuserif'
p3966
aS'#000000'
p3967
aF11.0
aI0
aI00
aI00
aI00
aI00
aI00
aI00
aI00
aI00
aa(lp3968
I234378
aF284.659
aF388.892
aVp3
p3969
aS'dejavuserif'
p3970
aS'#000000'
p3971
aF11.0
aI0
aI00
aI00
aI00
aI00
aI00
aI00
aI00
aI00
aa(lp3972
I234378
aF88.1
aF402.492
aVp3
p3973
aS'dejavuserif'
p3974
aS'#000000'
p3975
aF11.0
aI0
aI01
aI01
aI00
aI00
aI00
aI00
aI00
aI00
aa(lp3976
I85218
aF115.182
aF402.492
aVp3
p3977
aS'dejavuserif'
p3978
aS'#000000'
p3979
aF11.0
aI0
aI00
aI00
aI00
aI00
aI00
aI00
aI00
aI00
aa(lp3980
I3878
aF139.338
aF402.492
aVp3
p3981
aS'dejavuserif'
p3982
aS'#000000'
p3983
aF11.0
aI0
aI01
aI00
aI00
aI00
aI00
aI00
aI00
aI00
aa(lp3984
I12878
aF203.985
aF402.492
aVp3
p3985
aS'dejavuserif'
p3986
aS'#000000'
p3987
aF11.0
aI0
aI00
aI00
aI00
aI00
aI00
aI00
aI00
aI00
aa(lp3988
I101862
aF278.103
aF402.492
aVp3
p3989
aS'dejavuserif'
p3990
aS'#000000'
p3991
aF11.0
aI0
aI00
aI00
aI00
aI00
aI00
aI00
aI00
aI00
aa(lp3992
I15429
aF298.178
aF402.492
aVp3
p3993
aS'dejavuserif'
p3994
aS'#000000'
p3995
aF11.0
aI0
aI00
aI00
aI00
aI00
aI00
aI00
aI00
aI00
aa(lp3996
I144483
aF315.745
aF402.492
aVp3
p3997
aS'dejavuserif'
p3998
aS'#000000'
p3999
aF11.0
aI0
aI00
aI00
aI00
aI00
aI00
aI00
aI00
aI00
aa(lp4000
I127135
aF332.916
aF402.492
aVp3
p4001
aS'dejavuserif'
p4002
aS'#000000'
p4003
aF11.0
aI0
aI01
aI00
aI00
aI00
aI00
aI00
aI00
aI00
aa(lp4004
I107562
aF52.1
aF439.482
aVp3
p4005
aS'dejavuserif'
p4006
aS'#000000'
p4007
aF11.0
aI1
aI01
aI00
aI00
aI00
aI00
aI00
aI00
aI00
aa(lp4008
I234378
aF206.991
aF439.482
aVp3
p4009
aS'dejavuserif'
p4010
aS'#000000'
p4011
aF11.0
aI1
aI00
aI00
aI00
aI00
aI00
aI00
aI00
aI00
aa(lp4012
I1507
aF215.1
aF439.592
aVp3
p4013
aS'dejavuserif'
p4014
aS'#000000'
p4015
aF11.0
aI0
aI01
aI01
aI00
aI00
aI00
aI00
aI00
aI00
aa(lp4016
I44868
aF238.376
aF439.592
aVp3
p4017
aS'dejavuserif'
p4018
aS'#000000'
p4019
aF11.0
aI0
aI01
aI00
aI00
aI00
aI00
aI00
aI00
aI00
aa(lp4020
I120031
aF52.1
aF452.482
aVp3
p4021
aS'dejavuserif'
p4022
aS'#000000'
p4023
aF11.0
aI1
aI01
aI00
aI00
aI00
aI00
aI00
aI00
aI00
aa(lp4024
I234378
aF198.939
aF452.482
aVp3
p4025
aS'dejavuserif'
p4026
aS'#000000'
p4027
aF11.0
aI1
aI00
aI00
aI00
aI00
aI00
aI00
aI00
aI00
aa(lp4028
I234378
aF207.0
aF452.592
aVp3
p4029
aS'dejavuserif'
p4030
aS'#000000'
p4031
aF11.0
aI0
aI01
aI00
aI00
aI00
aI00
aI00
aI00
aI01
aa(lp4032
I234378
aF230.078
aF452.592
aVp3
p4033
aS'dejavuserif'
p4034
aS'#000000'
p4035
aF11.0
aI0
aI00
aI00
aI01
aI01
aI01
aI00
aI00
aI00
aa(lp4036
I43275
aF52.1
aF465.382
aVp3
p4037
aS'dejavuserif'
p4038
aS'#000000'
p4039
aF11.0
aI1
aI01
aI00
aI00
aI00
aI00
aI00
aI00
aI00
aa(lp4040
I234378
aF201.821
aF465.382
aVp3
p4041
aS'dejavuserif'
p4042
aS'#000000'
p4043
aF11.0
aI1
aI00
aI00
aI00
aI00
aI00
aI00
aI00
aI00
aa(lp4044
I1507
aF209.8
aF465.382
aVp3
p4045
aS'dejavuserif'
p4046
aS'#000000'
p4047
aF11.0
aI1
aI01
aI01
aI00
aI00
aI00
aI00
aI00
aI00
aa(lp4048
I233548
aF235.089
aF465.382
aVp3
p4049
aS'dejavuserif'
p4050
aS'#000000'
p4051
aF11.0
aI1
aI01
aI00
aI00
aI00
aI00
aI00
aI00
aI00
aa(lp4052
I190806
aF282.147
aF465.382
aVp3
p4053
aS'dejavuserif'
p4054
aS'#000000'
p4055
aF11.0
aI1
aI00
aI00
aI00
aI00
aI00
aI00
aI00
aI00
aa(lp4056
I113211
aF303.828
aF465.382
aVp3
p4057
aS'dejavuserif'
p4058
aS'#000000'
p4059
aF11.0
aI1
aI01
aI00
aI00
aI00
aI00
aI00
aI00
aI00
aa(lp4060
I1507
aF357.09
aF465.382
aVp3
p4061
aS'dejavuserif'
p4062
aS'#000000'
p4063
aF11.0
aI1
aI01
aI01
aI00
aI00
aI00
aI00
aI00
aI00
aa(lp4064
I234378
aF382.379
aF465.382
aVp3
p4065
aS'dejavuserif'
p4066
aS'#000000'
p4067
aF11.0
aI1
aI00
aI00
aI00
aI00
aI00
aI00
aI00
aI00
aa(lp4068
I195166
aF52.1
aF478.382
aVp3
p4069
aS'dejavuserif'
p4070
aS'#000000'
p4071
aF11.0
aI1
aI01
aI00
aI00
aI00
aI00
aI00
aI00
aI00
aa(lp4072
I234378
aF107.84541176470589
aF478.382
ag4069
aS'dejavuserif'
p4073
aS'#000000'
p4074
aF11.0
aI1
aI00
aI00
aI00
aI00
aI00
aI00
aI00
aI00
aa(lp4075
I129342
aF114.81358823529412
aF478.382
ag4069
aS'dejavuserif'
p4076
aS'#000000'
p4077
aF11.0
aI1
aI01
aI00
aI00
aI00
aI00
aI00
aI00
aI00
aa(lp4078
I234378
aF174.42
aF478.382
aVp3
p4079
aS'dejavuserif'
p4080
aS'#000000'
p4081
aF11.0
aI1
aI00
aI00
aI00
aI00
aI00
aI00
aI00
aI00
aa(lp4082
I84662
aF182.3
aF478.382
aVp3
p4083
aS'dejavuserif'
p4084
aS'#000000'
p4085
aF11.0
aI1
aI01
aI00
aI00
aI00
aI00
aI00
aI00
aI00
aa(lp4086
I21716
aF214.97
aF478.382
aVp3
p4087
aS'dejavuserif'
p4088
aS'#000000'
p4089
aF11.0
aI1
aI01
aI00
aI00
aI00
aI00
aI00
aI00
aI00
aa(lp4090
I234378
aF240.92266666666666
aF478.382
ag4087
aS'dejavuserif'
p4091
aS'#000000'
p4092
aF11.0
aI1
aI00
aI00
aI00
aI00
aI00
aI00
aI00
aI00
aa(lp4093
I234378
aF247.41083333333333
aF478.382
ag4087
aS'dejavuserif'
p4094
aS'#000000'
p4095
aF11.0
aI1
aI01
aI00
aI00
aI00
aI00
aI00
aI00
aI00
aa(lp4096
I234378
aF335.552
aF478.382
aVp3
p4097
aS'dejavuserif'
p4098
aS'#000000'
p4099
aF11.0
aI1
aI00
aI00
aI00
aI00
aI00
aI00
aI00
aI00
aa(lp4100
I172883
aF342.19783333333334
aF478.382
ag4097
aS'dejavuserif'
p4101
aS'#000000'
p4102
aF11.0
aI1
aI01
aI00
aI00
aI00
aI00
aI00
aI00
aI00
aa(lp4103
I1507
aF379.31
aF478.382
aVp3
p4104
aS'dejavuserif'
p4105
aS'#000000'
p4106
aF11.0
aI1
aI01
aI01
aI00
aI00
aI00
aI00
aI00
aI00
aa(lp4107
I234378
aF396.9386
aF478.382
ag4104
aS'dejavuserif'
p4108
aS'#000000'
p4109
aF11.0
aI1
aI00
aI00
aI00
aI00
aI00
aI00
aI00
aI00
aa(lp4110
I230576
aF402.8148
aF478.382
ag4104
aS'dejavuserif'
p4111
aS'#000000'
p4112
aF11.0
aI1
aI00
aI00
aI00
aI00
aI00
aI00
aI00
aI00
aa(lp4113
I234378
aF412.607
aF478.382
aVp3
p4114
aS'dejavuserif'
p4115
aS'#000000'
p4116
aF11.0
aI1
aI00
aI00
aI00
aI00
aI00
aI00
aI00
aI00
aa(lp4117
I21716
aF418.6386666666667
aF478.382
ag4114
aS'dejavuserif'
p4118
aS'#000000'
p4119
aF11.0
aI1
aI01
aI00
aI00
aI00
aI00
aI00
aI00
aI00
aa(lp4120
I234378
aF442.7653333333334
aF478.382
ag4114
aS'dejavuserif'
p4121
aS'#000000'
p4122
aF11.0
aI1
aI00
aI00
aI00
aI00
aI00
aI00
aI00
aI00
aa(lp4123
I66756
aF52.1
aF491.282
aVp3
p4124
aS'dejavuserif'
p4125
aS'#000000'
p4126
aF11.0
aI1
aI01
aI00
aI00
aI00
aI00
aI00
aI00
aI00
aa(lp4127
I234378
aF192.636
aF491.282
aVp3
p4128
aS'dejavuserif'
p4129
aS'#000000'
p4130
aF11.0
aI1
aI00
aI00
aI00
aI00
aI00
aI00
aI00
aI00
aa(lp4131
I234378
aF196.4615
aF491.282
ag4128
aS'dejavuserif'
p4132
aS'#000000'
p4133
aF11.0
aI1
aI00
aI00
aI00
aI00
aI00
aI00
aI00
aI00
aa(lp4134
I1507
aF203.774
aF491.392
aVp3
p4135
aS'dejavuserif'
p4136
aS'#000000'
p4137
aF11.0
aI0
aI01
aI01
aI00
aI00
aI00
aI00
aI00
aI00
aa(lp4138
I233548
aF227.05
aF491.392
aVp3
p4139
aS'dejavuserif'
p4140
aS'#000000'
p4141
aF11.0
aI0
aI00
aI00
aI00
aI00
aI00
aI00
aI00
aI00
aa(lp4142
I89480
aF268.289
aF491.392
aVp3
p4143
aS'dejavuserif'
p4144
aS'#000000'
p4145
aF11.0
aI0
aI00
aI00
aI00
aI00
aI00
aI00
aI00
aI00
aa(lp4146
I73256
aF282.776
aF491.392
aVp3
p4147
aS'dejavuserif'
p4148
aS'#000000'
p4149
aF11.0
aI0
aI00
aI00
aI00
aI00
aI00
aI00
aI00
aI00
aa(lp4150
I234378
aF316.931
aF491.392
aVp3
p4151
aS'dejavuserif'
p4152
aS'#000000'
p4153
aF11.0
aI0
aI00
aI00
aI00
aI00
aI00
aI00
aI00
aI00
aa(lp4154
I131049
aF374.373
aF491.392
aVp3
p4155
aS'dejavuserif'
p4156
aS'#000000'
p4157
aF11.0
aI0
aI00
aI00
aI00
aI00
aI00
aI00
aI00
aI00
aa(lp4158
I1507
aF404.249
aF491.392
aVp3
p4159
aS'dejavuserif'
p4160
aS'#000000'
p4161
aF11.0
aI0
aI01
aI01
aI00
aI00
aI00
aI00
aI00
aI00
aa(lp4162
I25931
aF427.525
aF491.392
aVp3
p4163
aS'dejavuserif'
p4164
aS'#000000'
p4165
aF11.0
aI0
aI00
aI00
aI00
aI00
aI00
aI00
aI00
aI00
aa(lp4166
I85218
aF462.186
aF491.392
aVp3
p4167
aS'dejavuserif'
p4168
aS'#000000'
p4169
aF11.0
aI0
aI00
aI00
aI00
aI00
aI00
aI00
aI00
aI00
aa(lp4170
I79694
aF486.342
aF491.392
aVp3
p4171
aS'dejavuserif'
p4172
aS'#000000'
p4173
aF11.0
aI0
aI00
aI00
aI00
aI00
aI00
aI00
aI00
aI00
aa(lp4174
I22476
aF519.705
aF491.392
aVp3
p4175
aS'dejavuserif'
p4176
aS'#000000'
p4177
aF11.0
aI0
aI00
aI00
aI00
aI00
aI00
aI00
aI00
aI00
aa(lp4178
I89480
aF531.09
aF491.392
aVp3
p4179
aS'dejavuserif'
p4180
aS'#000000'
p4181
aF11.0
aI0
aI00
aI00
aI00
aI00
aI00
aI00
aI00
aI00
aa(lp4182
I194354
aF52.1
aF504.192
aVp3
p4183
aS'dejavuserif'
p4184
aS'#000000'
p4185
aF11.0
aI0
aI00
aI00
aI00
aI00
aI00
aI00
aI00
aI00
aa(lp4186
I114954
aF73.572
aF504.192
aVp3
p4187
aS'dejavuserif'
p4188
aS'#000000'
p4189
aF11.0
aI0
aI00
aI00
aI00
aI00
aI00
aI00
aI00
aI00
aa(lp4190
I234378
aF123.017
aF504.192
aVp3
p4191
aS'dejavuserif'
p4192
aS'#000000'
p4193
aF11.0
aI0
aI00
aI00
aI00
aI00
aI00
aI00
aI00
aI00
aa(lp4194
I234378
aF161.71377777777778
aF504.192
ag4191
aS'dejavuserif'
p4195
aS'#000000'
p4196
aF11.0
aI0
aI00
aI00
aI00
aI00
aI00
aI00
aI00
aI00
aa(lp4197
I234378
aF167.2418888888889
aF504.192
ag4191
aS'dejavuserif'
p4198
aS'#000000'
p4199
aF11.0
aI0
aI00
aI00
aI00
aI00
aI00
aI00
aI00
aI00
aa(lp4200
I234378
aF216.9948888888889
aF504.192
ag4191
aS'dejavuserif'
p4201
aS'#000000'
p4202
aF11.0
aI0
aI00
aI00
aI00
aI00
aI00
aI00
aI00
aI00
aa(lp4203
I194354
aF226.01
aF504.192
aVp3
p4204
aS'dejavuserif'
p4205
aS'#000000'
p4206
aF11.0
aI0
aI01
aI00
aI00
aI00
aI00
aI00
aI00
aI00
aa(lp4207
I1507
aF250.474
aF504.192
aVp3
p4208
aS'dejavuserif'
p4209
aS'#000000'
p4210
aF11.0
aI0
aI01
aI01
aI00
aI00
aI00
aI00
aI00
aI00
aa(lp4211
I233548
aF273.75
aF504.192
aVp3
p4212
aS'dejavuserif'
p4213
aS'#000000'
p4214
aF11.0
aI0
aI00
aI00
aI00
aI00
aI00
aI00
aI00
aI00
aa(lp4215
I55730
aF314.901
aF504.192
aVp3
p4216
aS'dejavuserif'
p4217
aS'#000000'
p4218
aF11.0
aI0
aI00
aI00
aI00
aI00
aI00
aI00
aI00
aI00
aa(lp4219
I89480
aF351.157
aF504.192
aVp3
p4220
aS'dejavuserif'
p4221
aS'#000000'
p4222
aF11.0
aI0
aI00
aI00
aI00
aI00
aI00
aI00
aI00
aI00
aa(lp4223
I22536
aF365.644
aF504.192
aVp3
p4224
aS'dejavuserif'
p4225
aS'#000000'
p4226
aF11.0
aI0
aI00
aI00
aI00
aI00
aI00
aI00
aI00
aI00
aa(lp4227
I194354
aF411.492
aF504.192
aVp3
p4228
aS'dejavuserif'
p4229
aS'#000000'
p4230
aF11.0
aI0
aI00
aI00
aI00
aI00
aI00
aI00
aI00
aI00
aa(lp4231
I106530
aF432.964
aF504.192
aVp3
p4232
aS'dejavuserif'
p4233
aS'#000000'
p4234
aF11.0
aI0
aI00
aI00
aI00
aI00
aI00
aI00
aI00
aI00
aa(lp4235
I203718
aF470.628
aF504.192
aVp3
p4236
aS'dejavuserif'
p4237
aS'#000000'
p4238
aF11.0
aI0
aI00
aI00
aI00
aI00
aI00
aI00
aI00
aI00
aa(lp4239
I35885
aF507.775
aF504.192
aVp3
p4240
aS'dejavuserif'
p4241
aS'#000000'
p4242
aF11.0
aI0
aI00
aI00
aI00
aI00
aI00
aI00
aI00
aI00
aa(lp4243
I144483
aF52.1
aF516.992
aVp3
p4244
aS'dejavuserif'
p4245
aS'#000000'
p4246
aF11.0
aI0
aI00
aI00
aI00
aI00
aI00
aI00
aI00
aI00
aa(lp4247
I218852
aF69.271
aF516.992
aVp3
p4248
aS'dejavuserif'
p4249
aS'#000000'
p4250
aF11.0
aI0
aI00
aI00
aI00
aI00
aI00
aI00
aI00
aI00
aa(lp4251
I234378
aF99.532
aF516.992
aVp3
p4252
aS'dejavuserif'
p4253
aS'#000000'
p4254
aF11.0
aI0
aI01
aI00
aI00
aI00
aI00
aI00
aI00
aI00
aa(lp4255
I85218
aF154.29
aF516.992
aVp3
p4256
aS'dejavuserif'
p4257
aS'#000000'
p4258
aF11.0
aI0
aI00
aI00
aI00
aI00
aI00
aI00
aI00
aI00
aa(lp4259
I104380
aF178.446
aF516.992
aVp3
p4260
aS'dejavuserif'
p4261
aS'#000000'
p4262
aF11.0
aI0
aI00
aI00
aI00
aI00
aI00
aI00
aI00
aI00
aa(lp4263
I194354
aF208.113
aF516.992
aVp3
p4264
aS'dejavuserif'
p4265
aS'#000000'
p4266
aF11.0
aI0
aI00
aI00
aI00
aI00
aI00
aI00
aI00
aI00
aa(lp4267
I151364
aF229.673
aF516.992
aVp3
p4268
aS'dejavuserif'
p4269
aS'#000000'
p4270
aF11.0
aI0
aI00
aI00
aI00
aI00
aI00
aI00
aI00
aI00
aa(lp4271
I77389
aF281.428
aF516.992
aVp3
p4272
aS'dejavuserif'
p4273
aS'#000000'
p4274
aF11.0
aI0
aI00
aI00
aI00
aI00
aI00
aI00
aI00
aI00
aa(lp4275
I234378
aF342.86575
aF516.992
ag4272
aS'dejavuserif'
p4276
aS'#000000'
p4277
aF11.0
aI0
aI00
aI00
aI00
aI00
aI00
aI00
aI00
aI00
aa(lp4278
I194354
aF352.037
aF516.992
aVp3
p4279
aS'dejavuserif'
p4280
aS'#000000'
p4281
aF11.0
aI0
aI01
aI00
aI00
aI00
aI00
aI00
aI00
aI00
aa(lp4282
I177958
aF376.413
aF516.992
aVp3
p4283
aS'dejavuserif'
p4284
aS'#000000'
p4285
aF11.0
aI0
aI00
aI00
aI00
aI00
aI00
aI00
aI00
aI00
aa(lp4286
I234378
aF419.28
aF516.992
aVp3
p4287
aS'dejavuserif'
p4288
aS'#000000'
p4289
aF11.0
aI0
aI00
aI00
aI00
aI00
aI00
aI00
aI00
aI00
aa(lp4290
I89480
aF456.834
aF516.992
aVp3
p4291
aS'dejavuserif'
p4292
aS'#000000'
p4293
aF11.0
aI0
aI00
aI00
aI00
aI00
aI00
aI00
aI00
aI00
aa(lp4294
I62551
aF471.321
aF516.992
aVp3
p4295
aS'dejavuserif'
p4296
aS'#000000'
p4297
aF11.0
aI0
aI00
aI00
aI00
aI00
aI00
aI00
aI00
aI00
aa(lp4298
I114954
aF501.186
aF516.992
aVp3
p4299
aS'dejavuserif'
p4300
aS'#000000'
p4301
aF11.0
aI0
aI00
aI00
aI00
aI00
aI00
aI00
aI00
aI00
aa(lp4302
I1507
aF52.1
aF529.792
aVp3
p4303
aS'dejavuserif'
p4304
aS'#000000'
p4305
aF11.0
aI0
aI01
aI01
aI00
aI00
aI00
aI00
aI00
aI00
aa(lp4306
I121847
aF75.376
aF529.792
aVp3
p4307
aS'dejavuserif'
p4308
aS'#000000'
p4309
aF11.0
aI0
aI00
aI00
aI00
aI00
aI00
aI00
aI00
aI00
aa(lp4310
I172977
aF99.851
aF529.792
aVp3
p4311
aS'dejavuserif'
p4312
aS'#000000'
p4313
aF11.0
aI0
aI00
aI00
aI00
aI00
aI00
aI00
aI00
aI00
aa(lp4314
I135639
aF149.593
aF529.792
aVp3
p4315
aS'dejavuserif'
p4316
aS'#000000'
p4317
aF11.0
aI0
aI00
aI00
aI00
aI00
aI00
aI00
aI00
aI00
aa(lp4318
I85663
aF163.662
aF529.792
aVp3
p4319
aS'dejavuserif'
p4320
aS'#000000'
p4321
aF11.0
aI0
aI00
aI00
aI00
aI00
aI00
aI00
aI00
aI00
aa(lp4322
I169745
aF200.017
aF529.792
aVp3
p4323
aS'dejavuserif'
p4324
aS'#000000'
p4325
aF11.0
aI0
aI00
aI00
aI00
aI00
aI00
aI00
aI00
aI00
aa(lp4326
I118865
aF227.891
aF529.792
aVp3
p4327
aS'dejavuserif'
p4328
aS'#000000'
p4329
aF11.0
aI0
aI00
aI00
aI00
aI00
aI00
aI00
aI00
aI00
aa(lp4330
I203718
aF264.73
aF529.792
aVp3
p4331
aS'dejavuserif'
p4332
aS'#000000'
p4333
aF11.0
aI0
aI01
aI00
aI00
aI00
aI00
aI00
aI00
aI00
aa(lp4334
I234378
aF299.0896
aF529.792
ag4331
aS'dejavuserif'
p4335
aS'#000000'
p4336
aF11.0
aI0
aI00
aI00
aI00
aI00
aI00
aI00
aI00
aI00
aa(lp4337
I85593
aF304.81620000000004
aF529.792
ag4331
aS'dejavuserif'
p4338
aS'#000000'
p4339
aF11.0
aI0
aI01
aI00
aI00
aI00
aI00
aI00
aI00
aI00
aa(lp4340
I12878
aF354.149
aF529.792
aVp3
p4341
aS'dejavuserif'
p4342
aS'#000000'
p4343
aF11.0
aI0
aI00
aI00
aI00
aI00
aI00
aI00
aI00
aI00
aa(lp4344
I234378
aF423.18353333333334
aF529.792
ag4341
aS'dejavuserif'
p4345
aS'#000000'
p4346
aF11.0
aI0
aI00
aI00
aI00
aI00
aI00
aI00
aI00
aI00
aa(lp4347
I1507
aF429.4594
aF529.792
ag4341
aS'dejavuserif'
p4348
aS'#000000'
p4349
aF11.0
aI0
aI01
aI01
aI00
aI00
aI00
aI00
aI00
aI00
aa(lp4350
I75204
aF451.752
aF529.792
aVp3
p4351
aS'dejavuserif'
p4352
aS'#000000'
p4353
aF11.0
aI0
aI01
aI00
aI00
aI00
aI00
aI00
aI00
aI00
aa(lp4354
I234378
aF491.96525
aF529.792
ag4351
aS'dejavuserif'
p4355
aS'#000000'
p4356
aF11.0
aI0
aI00
aI00
aI00
aI00
aI00
aI00
aI00
aI00
aa(lp4357
I234378
aF52.1
aF555.482
aVp3
p4358
aS'dejavuserif'
p4359
aS'#000000'
p4360
aF11.0
aI1
aI01
aI00
aI00
aI00
aI00
aI00
aI00
aI00
aa(lp4361
I234378
aF88.1
aF568.392
aVp3
p4362
aS'dejavuserif'
p4363
aS'#000000'
p4364
aF11.0
aI0
aI01
aI00
aI00
aI00
aI00
aI00
aI00
aI00
aa(lp4365
I162759
aF150.36
aF568.392
aVp3
p4366
aS'dejavuserif'
p4367
aS'#000000'
p4368
aF11.0
aI0
aI00
aI00
aI00
aI00
aI00
aI00
aI00
aI00
aa(lp4369
I1507
aF205.03
aF568.392
aVp3
p4370
aS'dejavuserif'
p4371
aS'#000000'
p4372
aF11.0
aI0
aI01
aI01
aI00
aI00
aI00
aI00
aI00
aI00
aa(lp4373
I151364
aF228.306
aF568.392
aVp3
p4374
aS'dejavuserif'
p4375
aS'#000000'
p4376
aF11.0
aI0
aI00
aI00
aI00
aI00
aI00
aI00
aI00
aI00
aa(lp4377
I44868
aF280.061
aF568.392
aVp3
p4378
aS'dejavuserif'
p4379
aS'#000000'
p4380
aF11.0
aI0
aI00
aI00
aI00
aI00
aI00
aI00
aI00
aI00
aa(lp4381
I218914
aF318.715
aF568.392
aVp3
p4382
aS'dejavuserif'
p4383
aS'#000000'
p4384
aF11.0
aI0
aI00
aI00
aI00
aI00
aI00
aI00
aI00
aI00
aa(lp4385
I79694
aF355.367
aF568.392
aVp3
p4386
aS'dejavuserif'
p4387
aS'#000000'
p4388
aF11.0
aI0
aI00
aI00
aI00
aI00
aI00
aI00
aI00
aI00
aa(lp4389
I194354
aF388.73
aF568.392
aVp3
p4390
aS'dejavuserif'
p4391
aS'#000000'
p4392
aF11.0
aI0
aI00
aI00
aI00
aI00
aI00
aI00
aI00
aI00
aa(lp4393
I151364
aF410.202
aF568.392
aVp3
p4394
aS'dejavuserif'
p4395
aS'#000000'
p4396
aF11.0
aI0
aI00
aI00
aI00
aI00
aI00
aI00
aI00
aI00
aa(lp4397
I89480
aF462.045
aF568.392
aVp3
p4398
aS'dejavuserif'
p4399
aS'#000000'
p4400
aF11.0
aI0
aI00
aI00
aI00
aI00
aI00
aI00
aI00
aI00
aa(lp4401
I222122
aF476.532
aF568.392
aVp3
p4402
aS'dejavuserif'
p4403
aS'#000000'
p4404
aF11.0
aI0
aI00
aI00
aI00
aI00
aI00
aI00
aI00
aI00
aa(lp4405
I234378
aF88.1
aF581.992
aVp3
p4406
aS'dejavuserif'
p4407
aS'#000000'
p4408
aF11.0
aI0
aI00
aI00
aI00
aI00
aI00
aI00
aI00
aI00
aa(lp4409
I192651
aF130.846
aF581.992
aVp3
p4410
aS'dejavuserif'
p4411
aS'#000000'
p4412
aF11.0
aI0
aI00
aI00
aI00
aI00
aI00
aI00
aI00
aI00
aa(lp4413
I234378
aF147.533
aF581.992
aVp3
p4414
aS'dejavuserif'
p4415
aS'#000000'
p4416
aF11.0
aI0
aI00
aI00
aI00
aI00
aI00
aI00
aI00
aI00
aa(lp4417
I22476
aF210.959
aF581.992
aVp3
p4418
aS'dejavuserif'
p4419
aS'#000000'
p4420
aF11.0
aI0
aI00
aI00
aI00
aI00
aI00
aI00
aI00
aI00
aa(lp4421
I234378
aF222.432
aF581.992
aVp3
p4422
aS'dejavuserif'
p4423
aS'#000000'
p4424
aF11.0
aI0
aI00
aI00
aI00
aI00
aI00
aI00
aI00
aI00
aa(lp4425
I218852
aF256.18
aF581.992
aVp3
p4426
aS'dejavuserif'
p4427
aS'#000000'
p4428
aF11.0
aI0
aI00
aI00
aI00
aI00
aI00
aI00
aI00
aI00
aa(lp4429
I16471
aF286.441
aF581.992
aVp3
p4430
aS'dejavuserif'
p4431
aS'#000000'
p4432
aF11.0
aI0
aI01
aI00
aI00
aI00
aI00
aI00
aI00
aI00
aa(lp4433
I85218
aF329.891
aF581.992
aVp3
p4434
aS'dejavuserif'
p4435
aS'#000000'
p4436
aF11.0
aI0
aI00
aI00
aI00
aI00
aI00
aI00
aI00
aI00
aa(lp4437
I106530
aF353.959
aF581.992
aVp3
p4438
aS'dejavuserif'
p4439
aS'#000000'
p4440
aF11.0
aI0
aI00
aI00
aI00
aI00
aI00
aI00
aI00
aI00
aa(lp4441
I234378
aF391.623
aF581.992
aVp3
p4442
aS'dejavuserif'
p4443
aS'#000000'
p4444
aF11.0
aI0
aI00
aI00
aI00
aI00
aI00
aI00
aI00
aI00
aa(lp4445
I234378
aF436.03274999999996
aF581.992
ag4442
aS'dejavuserif'
p4446
aS'#000000'
p4447
aF11.0
aI0
aI00
aI00
aI00
aI00
aI00
aI00
aI00
aI00
aa(lp4448
I234378
aF88.1
aF594.792
aVp3
p4449
aS'dejavuserif'
p4450
aS'#000000'
p4451
aF11.0
aI0
aI01
aI01
aI00
aI00
aI00
aI00
aI00
aI00
aa(lp4452
I85218
aF115.182
aF594.792
aVp3
p4453
aS'dejavuserif'
p4454
aS'#000000'
p4455
aF11.0
aI0
aI00
aI00
aI00
aI00
aI00
aI00
aI00
aI00
aa(lp4456
I3878
aF139.338
aF594.792
aVp3
p4457
aS'dejavuserif'
p4458
aS'#000000'
p4459
aF11.0
aI0
aI01
aI00
aI00
aI00
aI00
aI00
aI00
aI00
aa(lp4460
I12878
aF203.985
aF594.792
aVp3
p4461
aS'dejavuserif'
p4462
aS'#000000'
p4463
aF11.0
aI0
aI00
aI00
aI00
aI00
aI00
aI00
aI00
aI00
aa(lp4464
I101862
aF278.103
aF594.792
aVp3
p4465
aS'dejavuserif'
p4466
aS'#000000'
p4467
aF11.0
aI0
aI00
aI00
aI00
aI00
aI00
aI00
aI00
aI00
aa(lp4468
I107562
aF52.1
aF618.982
aVp3
p4469
aS'dejavuserif'
p4470
aS'#000000'
p4471
aF11.0
aI1
aI01
aI00
aI00
aI00
aI00
aI00
aI00
aI00
aa(lp4472
I234378
aF196.1
aF618.982
aVp3
p4473
aS'dejavuserif'
p4474
aS'#000000'
p4475
aF11.0
aI1
aI00
aI00
aI00
aI00
aI00
aI00
aI00
aI00
aa(lp4476
I234378
aF204.0
aF619.092
aVp3
p4477
aS'dejavuserif'
p4478
aS'#000000'
p4479
aF11.0
aI0
aI01
aI01
aI00
aI00
aI00
aI00
aI00
aI00
aa(lp4480
I234378
aF242.577
aF619.092
aVp3
p4481
aS'dejavuserif'
p4482
aS'#000000'
p4483
aF11.0
aI0
aI01
aI01
aI00
aI00
aI00
aI00
aI00
aI00
aa(lp4484
I234378
aF261.387
aF619.092
ag4481
aS'dejavuserif'
p4485
aS'#000000'
p4486
aF11.0
aI0
aI00
aI00
aI00
aI00
aI00
aI00
aI00
aI00
aa(lp4487
I234378
aF271.144
aF619.092
aVp3
p4488
aS'dejavuserif'
p4489
aS'#000000'
p4490
aF11.0
aI0
aI01
aI01
aI00
aI00
aI00
aI00
aI00
aI00
aa(lp4491
I234378
aF290.119
aF619.092
aVp3
p4492
aS'dejavuserif'
p4493
aS'#000000'
p4494
aF11.0
aI0
aI01
aI00
aI00
aI00
aI00
aI00
aI00
aI00
aa(lp4495
I85218
aF336.891
aF619.092
aVp3
p4496
aS'dejavuserif'
p4497
aS'#000000'
p4498
aF11.0
aI0
aI00
aI00
aI00
aI00
aI00
aI00
aI00
aI00
aa(lp4499
I234378
aF361.047
aF619.092
aVp3
p4500
aS'dejavuserif'
p4501
aS'#000000'
p4502
aF11.0
aI0
aI01
aI00
aI00
aI00
aI00
aI00
aI00
aI00
aa(lp4503
I43275
aF52.1
aF631.982
aVp3
p4504
aS'dejavuserif'
p4505
aS'#000000'
p4506
aF11.0
aI1
aI01
aI00
aI00
aI00
aI00
aI00
aI00
aI00
aa(lp4507
I234378
aF160.1
aF631.982
aVp3
p4508
aS'dejavuserif'
p4509
aS'#000000'
p4510
aF11.0
aI1
aI00
aI00
aI00
aI00
aI00
aI00
aI00
aI00
aa(lp4511
I234378
aF168.0
aF632.092
aVp3
p4512
aS'dejavuserif'
p4513
aS'#000000'
p4514
aF11.0
aI0
aI01
aI01
aI00
aI00
aI00
aI00
aI00
aI00
aa(lp4515
I234378
aF186.744
aF632.092
ag4512
aS'dejavuserif'
p4516
aS'#000000'
p4517
aF11.0
aI0
aI00
aI00
aI00
aI00
aI00
aI00
aI00
aI00
aa(lp4518
I234378
aF196.578
aF632.092
aVp3
p4519
aS'dejavuserif'
p4520
aS'#000000'
p4521
aF11.0
aI0
aI01
aI01
aI00
aI00
aI00
aI00
aI00
aI00
aa(lp4522
I175263
aF215.465
aF632.092
aVp3
p4523
aS'dejavuserif'
p4524
aS'#000000'
p4525
aF11.0
aI0
aI01
aI00
aI00
aI00
aI00
aI00
aI00
aI00
aa(lp4526
I234378
aF253.5635
aF632.092
ag4523
aS'dejavuserif'
p4527
aS'#000000'
p4528
aF11.0
aI0
aI00
aI00
aI00
aI00
aI00
aI00
aI00
aI00
aa(lp4529
I139334
aF259.0061428571429
aF632.092
ag4523
aS'dejavuserif'
p4530
aS'#000000'
p4531
aF11.0
aI0
aI01
aI00
aI00
aI00
aI00
aI00
aI00
aI00
aa(lp4532
I234378
aF295.281
aF632.092
aVp3
p4533
aS'dejavuserif'
p4534
aS'#000000'
p4535
aF11.0
aI0
aI00
aI00
aI00
aI00
aI00
aI00
aI00
aI00
aa(lp4536
I234378
aF334.10825
aF632.092
ag4533
aS'dejavuserif'
p4537
aS'#000000'
p4538
aF11.0
aI0
aI00
aI00
aI00
aI00
aI00
aI00
aI00
aI00
aa(lp4539
I118865
aF343.142
aF632.092
aVp3
p4540
aS'dejavuserif'
p4541
aS'#000000'
p4542
aF11.0
aI0
aI00
aI00
aI00
aI00
aI00
aI00
aI00
aI00
aa(lp4543
I85218
aF379.893
aF632.092
aVp3
p4544
aS'dejavuserif'
p4545
aS'#000000'
p4546
aF11.0
aI0
aI00
aI00
aI00
aI00
aI00
aI00
aI00
aI00
aa(lp4547
I234378
aF404.049
aF632.092
aVp3
p4548
aS'dejavuserif'
p4549
aS'#000000'
p4550
aF11.0
aI0
aI00
aI00
aI00
aI00
aI00
aI00
aI00
aI00
aa(lp4551
I211157
aF433.7315
aF632.092
ag4548
aS'dejavuserif'
p4552
aS'#000000'
p4553
aF11.0
aI0
aI01
aI00
aI00
aI00
aI00
aI00
aI00
aI00
aa(lp4554
I234378
aF476.374
aF632.092
aVp3
p4555
aS'dejavuserif'
p4556
aS'#000000'
p4557
aF11.0
aI0
aI01
aI01
aI00
aI00
aI00
aI00
aI00
aI00
aa(lp4558
I174108
aF495.349
aF632.092
aVp3
p4559
aS'dejavuserif'
p4560
aS'#000000'
p4561
aF11.0
aI0
aI00
aI00
aI00
aI00
aI00
aI00
aI00
aI00
aa(lp4562
I234378
aF52.1
aF644.992
aVp3
p4563
aS'dejavuserif'
p4564
aS'#000000'
p4565
aF11.0
aI0
aI01
aI00
aI00
aI00
aI00
aI00
aI00
aI00
aa(lp4566
I234378
aF113.0
aF644.882
aVp3
p4567
aS'dejavuserif'
p4568
aS'#000000'
p4569
aF11.0
aI1
aI01
aI00
aI00
aI00
aI00
aI00
aI00
aI00
aa(lp4570
I25729
aF197.238
aF644.882
aVp3
p4571
aS'dejavuserif'
p4572
aS'#000000'
p4573
aF11.0
aI1
aI01
aI00
aI00
aI00
aI00
aI00
aI00
aI00
aa(lp4574
I234378
aF232.1
aF644.882
aVp3
p4575
aS'dejavuserif'
p4576
aS'#000000'
p4577
aF11.0
aI1
aI00
aI00
aI00
aI00
aI00
aI00
aI00
aI00
aa(lp4578
I84662
aF243.8
aF644.992
aVp3
p4579
aS'dejavuserif'
p4580
aS'#000000'
p4581
aF11.0
aI0
aI01
aI00
aI00
aI00
aI00
aI00
aI00
aI00
aa(lp4582
I21716
aF274.083
aF644.992
aVp3
p4583
aS'dejavuserif'
p4584
aS'#000000'
p4585
aF11.0
aI0
aI01
aI00
aI00
aI00
aI00
aI00
aI00
aI00
aa(lp4586
I234378
aF295.89820000000003
aF644.992
ag4583
aS'dejavuserif'
p4587
aS'#000000'
p4588
aF11.0
aI0
aI00
aI00
aI00
aI00
aI00
aI00
aI00
aI00
aa(lp4589
I234378
aF304.839
aF644.992
aVp3
p4590
aS'dejavuserif'
p4591
aS'#000000'
p4592
aF11.0
aI0
aI00
aI00
aI00
aI00
aI00
aI00
aI00
aI00
aa(lp4593
I234378
aF334.1193125
aF644.992
ag4590
aS'dejavuserif'
p4594
aS'#000000'
p4595
aF11.0
aI0
aI00
aI00
aI00
aI00
aI00
aI00
aI00
aI00
aa(lp4596
I234378
aF385.023875
aF644.992
ag4590
aS'dejavuserif'
p4597
aS'#000000'
p4598
aF11.0
aI0
aI00
aI00
aI00
aI00
aI00
aI00
aI00
aI00
aa(lp4599
I172883
aF398.922
aF644.992
aVp3
p4600
aS'dejavuserif'
p4601
aS'#000000'
p4602
aF11.0
aI0
aI01
aI00
aI00
aI00
aI00
aI00
aI00
aI00
aa(lp4603
I1507
aF434.771
aF644.992
aVp3
p4604
aS'dejavuserif'
p4605
aS'#000000'
p4606
aF11.0
aI0
aI01
aI01
aI00
aI00
aI00
aI00
aI00
aI00
aa(lp4607
I234378
aF451.502
aF644.992
ag4604
aS'dejavuserif'
p4608
aS'#000000'
p4609
aF11.0
aI0
aI00
aI00
aI00
aI00
aI00
aI00
aI00
aI00
aa(lp4610
I230576
aF457.079
aF644.992
ag4604
aS'dejavuserif'
p4611
aS'#000000'
p4612
aF11.0
aI0
aI01
aI01
aI00
aI00
aI00
aI00
aI00
aI00
aa(lp4613
I234378
aF466.143
aF644.992
aVp3
p4614
aS'dejavuserif'
p4615
aS'#000000'
p4616
aF11.0
aI0
aI00
aI00
aI00
aI00
aI00
aI00
aI00
aI00
aa(lp4617
I21716
aF471.2642857142857
aF644.992
ag4614
aS'dejavuserif'
p4618
aS'#000000'
p4619
aF11.0
aI0
aI01
aI00
aI00
aI00
aI00
aI00
aI00
aI00
aa(lp4620
I234378
aF491.74942857142855
aF644.992
ag4614
aS'dejavuserif'
p4621
aS'#000000'
p4622
aF11.0
aI0
aI00
aI00
aI00
aI00
aI00
aI00
aI00
aI00
aa(lp4623
I234378
aF496.87071428571426
aF644.992
ag4614
aS'dejavuserif'
p4624
aS'#000000'
p4625
aF11.0
aI0
aI00
aI00
aI00
aI00
aI00
aI00
aI00
aI00
aa(lp4626
I234378
aF52.1
aF657.792
aVp3
p4627
aS'dejavuserif'
p4628
aS'#000000'
p4629
aF11.0
aI0
aI00
aI00
aI01
aI00
aI00
aI00
aI00
aI00
aa(lp4630
I234378
aF83.223125
aF657.792
ag4627
aS'dejavuserif'
p4631
aS'#000000'
p4632
aF11.0
aI0
aI00
aI00
aI00
aI00
aI00
aI00
aI00
aI00
aa(lp4633
I234378
aF89.44775
aF657.792
ag4627
aS'dejavuserif'
p4634
aS'#000000'
p4635
aF11.0
aI0
aI01
aI01
aI00
aI00
aI00
aI00
aI00
aI00
aa(lp4636
I234378
aF105.439
aF657.792
aVp3
p4637
aS'dejavuserif'
p4638
aS'#000000'
p4639
aF11.0
aI0
aI01
aI01
aI00
aI00
aI00
aI00
aI00
aI00
aa(lp4640
I96642
aF132.73
aF657.792
aVp3
p4641
aS'dejavuserif'
p4642
aS'#000000'
p4643
aF11.0
aI0
aI01
aI00
aI00
aI00
aI00
aI00
aI00
aI00
aa(lp4644
I234378
aF173.507
aF657.792
aVp3
p4645
aS'dejavuserif'
p4646
aS'#000000'
p4647
aF11.0
aI0
aI00
aI00
aI01
aI01
aI01
aI00
aI00
aI00
aa(lp4648
I66756
aF52.1
aF670.682
aVp3
p4649
aS'dejavuserif'
p4650
aS'#000000'
p4651
aF11.0
aI1
aI01
aI00
aI00
aI00
aI00
aI00
aI00
aI00
aa(lp4652
I234378
aF160.1
aF670.682
aVp3
p4653
aS'dejavuserif'
p4654
aS'#000000'
p4655
aF11.0
aI1
aI00
aI00
aI00
aI00
aI00
aI00
aI00
aI00
aa(lp4656
I19784
aF171.8
aF670.792
aVp3
p4657
aS'dejavuserif'
p4658
aS'#000000'
p4659
aF11.0
aI0
aI01
aI00
aI00
aI00
aI00
aI00
aI00
aI00
aa(lp4660
I230071
aF200.169
aF670.792
aVp3
p4661
aS'dejavuserif'
p4662
aS'#000000'
p4663
aF11.0
aI0
aI00
aI00
aI00
aI00
aI00
aI00
aI00
aI00
aa(lp4664
I234378
aF228.538
aF670.792
aVp3
p4665
aS'dejavuserif'
p4666
aS'#000000'
p4667
aF11.0
aI0
aI00
aI00
aI00
aI00
aI00
aI00
aI00
aI00
aa(lp4668
I88992
aF260.9
aF670.792
aVp3
p4669
aS'dejavuserif'
p4670
aS'#000000'
p4671
aF11.0
aI0
aI00
aI00
aI00
aI00
aI00
aI00
aI00
aI00
aa(lp4672
I85593
aF310.235
aF670.792
aVp3
p4673
aS'dejavuserif'
p4674
aS'#000000'
p4675
aF11.0
aI0
aI00
aI00
aI00
aI00
aI00
aI00
aI00
aI00
aa(lp4676
I234378
aF361.187
aF670.792
aVp3
p4677
aS'dejavuserif'
p4678
aS'#000000'
p4679
aF11.0
aI0
aI00
aI00
aI00
aI00
aI00
aI00
aI00
aI00
aa(lp4680
I85218
aF404.219
aF670.792
aVp3
p4681
aS'dejavuserif'
p4682
aS'#000000'
p4683
aF11.0
aI0
aI00
aI00
aI00
aI00
aI00
aI00
aI00
aI00
aa(lp4684
I158810
aF428.375
aF670.792
aVp3
p4685
aS'dejavuserif'
p4686
aS'#000000'
p4687
aF11.0
aI0
aI01
aI00
aI00
aI00
aI00
aI00
aI00
aI00
aa(lp4688
I164851
aF471.726
aF670.792
aVp3
p4689
aS'dejavuserif'
p4690
aS'#000000'
p4691
aF11.0
aI0
aI01
aI00
aI00
aI00
aI00
aI00
aI00
aI00
aa(lp4692
I153177
aF52.1
aF683.592
aVp3
p4693
aS'dejavuserif'
p4694
aS'#000000'
p4695
aF11.0
aI0
aI01
aI00
aI00
aI00
aI00
aI00
aI00
aI00
aa(lp4696
I207716
aF128.924
aF683.592
aVp3
p4697
aS'dejavuserif'
p4698
aS'#000000'
p4699
aF11.0
aI0
aI01
aI00
aI00
aI00
aI00
aI00
aI00
aI00
aa(lp4700
I190806
aF173.199
aF683.592
aVp3
p4701
aS'dejavuserif'
p4702
aS'#000000'
p4703
aF11.0
aI0
aI00
aI00
aI00
aI00
aI00
aI00
aI00
aI00
aa(lp4704
I146193
aF192.57
aF683.592
aVp3
p4705
aS'dejavuserif'
p4706
aS'#000000'
p4707
aF11.0
aI0
aI01
aI00
aI00
aI00
aI00
aI00
aI00
aI00
aa(lp4708
I146631
aF222.028
aF683.592
aVp3
p4709
aS'dejavuserif'
p4710
aS'#000000'
p4711
aF11.0
aI0
aI01
aI00
aI00
aI00
aI00
aI00
aI00
aI00
aa(lp4712
I234378
aF277.479
aF683.592
aVp3
p4713
aS'dejavuserif'
p4714
aS'#000000'
p4715
aF11.0
aI0
aI01
aI00
aI00
aI00
aI00
aI00
aI00
aI00
aa(lp4716
I234378
aF343.15175
aF683.592
ag4713
aS'dejavuserif'
p4717
aS'#000000'
p4718
aF11.0
aI0
aI00
aI00
aI00
aI00
aI00
aI00
aI00
aI00
aa(lp4719
I234378
aF352.708
aF683.592
aVp3
p4720
aS'dejavuserif'
p4721
aS'#000000'
p4722
aF11.0
aI0
aI01
aI01
aI00
aI00
aI00
aI00
aI00
aI00
aa(lp4723
I234378
aF371.683
aF683.592
aVp3
p4724
aS'dejavuserif'
p4725
aS'#000000'
p4726
aF11.0
aI0
aI01
aI00
aI00
aI00
aI00
aI00
aI00
aI00
aa(lp4727
I85218
aF418.455
aF683.592
aVp3
p4728
aS'dejavuserif'
p4729
aS'#000000'
p4730
aF11.0
aI0
aI00
aI00
aI00
aI00
aI00
aI00
aI00
aI00
aa(lp4731
I234378
aF442.611
aF683.592
aVp3
p4732
aS'dejavuserif'
p4733
aS'#000000'
p4734
aF11.0
aI0
aI01
aI00
aI00
aI00
aI00
aI00
aI00
aI00
aa(lp4735
I10716
aF503.463
aF683.592
aVp3
p4736
aS'dejavuserif'
p4737
aS'#000000'
p4738
aF11.0
aI0
aI00
aI00
aI00
aI00
aI00
aI00
aI00
aI00
aa(lp4739
I234378
aF52.1
aF696.392
aVp3
p4740
aS'dejavuserif'
p4741
aS'#000000'
p4742
aF11.0
aI0
aI01
aI00
aI00
aI00
aI00
aI00
aI00
aI00
aa(lp4743
I234378
aF126.15200000000002
aF696.392
ag4740
aS'dejavuserif'
p4744
aS'#000000'
p4745
aF11.0
aI0
aI00
aI00
aI00
aI00
aI00
aI00
aI00
aI00
aa(lp4746
I174108
aF135.909
aF696.392
aVp3
p4747
aS'dejavuserif'
p4748
aS'#000000'
p4749
aF11.0
aI0
aI01
aI00
aI00
aI00
aI00
aI00
aI00
aI00
aa(lp4750
I234378
aF177.082
aF696.392
aVp3
p4751
aS'dejavuserif'
p4752
aS'#000000'
p4753
aF11.0
aI0
aI00
aI00
aI00
aI00
aI00
aI00
aI00
aI00
aa(lp4754
I234378
aF206.97057142857142
aF696.392
ag4751
aS'dejavuserif'
p4755
aS'#000000'
p4756
aF11.0
aI0
aI00
aI00
aI00
aI00
aI00
aI00
aI00
aI00
aa(lp4757
I14733
aF215.538
aF696.392
aVp3
p4758
aS'dejavuserif'
p4759
aS'#000000'
p4760
aF11.0
aI0
aI00
aI00
aI00
aI00
aI00
aI00
aI00
aI00
aa(lp4761
I234378
aF259.4108888888889
aF696.392
ag4758
aS'dejavuserif'
p4762
aS'#000000'
p4763
aF11.0
aI0
aI00
aI00
aI00
aI00
aI00
aI00
aI00
aI00
aa(lp4764
I155219
aF52.1
aF709.192
aVp3
p4765
aS'dejavuserif'
p4766
aS'#000000'
p4767
aF11.0
aI0
aI00
aI00
aI00
aI00
aI00
aI00
aI00
aI00
aa(lp4768
I234378
aF96.05111111111111
aF709.192
ag4765
aS'dejavuserif'
p4769
aS'#000000'
p4770
aF11.0
aI0
aI00
aI00
aI00
aI00
aI00
aI00
aI00
aI00
aa(lp4771
I234378
aF105.032
aF709.192
aVp3
p4772
aS'dejavuserif'
p4773
aS'#000000'
p4774
aF11.0
aI0
aI00
aI00
aI00
aI00
aI00
aI00
aI00
aI00
aa(lp4775
I234378
aF146.20775
aF709.192
ag4772
aS'dejavuserif'
p4776
aS'#000000'
p4777
aF11.0
aI0
aI00
aI00
aI00
aI00
aI00
aI00
aI00
aI00
aa(lp4778
I95125
aF155.676
aF709.192
aVp3
p4779
aS'dejavuserif'
p4780
aS'#000000'
p4781
aF11.0
aI0
aI01
aI00
aI00
aI00
aI00
aI00
aI00
aI00
aa(lp4782
I132294
aF183.242
aF709.192
aVp3
p4783
aS'dejavuserif'
p4784
aS'#000000'
p4785
aF11.0
aI0
aI01
aI00
aI00
aI00
aI00
aI00
aI00
aI00
aa(lp4786
I234378
aF229.4322222222222
aF709.192
ag4783
aS'dejavuserif'
p4787
aS'#000000'
p4788
aF11.0
aI0
aI00
aI00
aI00
aI00
aI00
aI00
aI00
aI00
aa(lp4789
I162374
aF238.693
aF709.192
aVp3
p4790
aS'dejavuserif'
p4791
aS'#000000'
p4792
aF11.0
aI0
aI00
aI00
aI00
aI00
aI00
aI00
aI00
aI00
aa(lp4793
I85218
aF290.448
aF709.192
aVp3
p4794
aS'dejavuserif'
p4795
aS'#000000'
p4796
aF11.0
aI0
aI00
aI00
aI00
aI00
aI00
aI00
aI00
aI00
aa(lp4797
I234378
aF314.604
aF709.192
aVp3
p4798
aS'dejavuserif'
p4799
aS'#000000'
p4800
aF11.0
aI0
aI01
aI01
aI00
aI00
aI00
aI00
aI00
aI00
aa(lp4801
I221629
aF350.376
aF709.192
aVp3
p4802
aS'dejavuserif'
p4803
aS'#000000'
p4804
aF11.0
aI0
aI01
aI00
aI00
aI00
aI00
aI00
aI00
aI00
aa(lp4805
I234378
aF400.29155555555553
aF709.192
ag4802
aS'dejavuserif'
p4806
aS'#000000'
p4807
aF11.0
aI0
aI00
aI00
aI00
aI00
aI00
aI00
aI00
aI00
aa(lp4808
I234378
aF52.1
aF721.982
aVp3
p4809
aS'dejavuserif'
p4810
aS'#000000'
p4811
aF11.0
aI1
aI01
aI00
aI00
aI00
aI00
aI00
aI00
aI00
aa(lp4812
I234378
aF148.36164705882354
aF721.982
ag4809
aS'dejavuserif'
p4813
aS'#000000'
p4814
aF11.0
aI1
aI00
aI00
aI00
aI00
aI00
aI00
aI00
aI00
aa(lp4815
I202216
aF88.1
aF734.892
aVp3
p4816
aS'dejavuserif'
p4817
aS'#000000'
p4818
aF11.0
aI0
aI01
aI00
aI00
aI00
aI00
aI00
aI00
aI00
aa(lp4819
I166558
aF164.132
aF734.892
aVp3
p4820
aS'dejavuserif'
p4821
aS'#000000'
p4822
aF11.0
aI0
aI00
aI00
aI00
aI00
aI00
aI00
aI00
aI00
aa(lp4823
I85218
aF212.367
aF734.892
aVp3
p4824
aS'dejavuserif'
p4825
aS'#000000'
p4826
aF11.0
aI0
aI00
aI00
aI00
aI00
aI00
aI00
aI00
aI00
aa(lp4827
I166751
aF236.435
aF734.892
aVp3
p4828
aS'dejavuserif'
p4829
aS'#000000'
p4830
aF11.0
aI0
aI00
aI00
aI00
aI00
aI00
aI00
aI00
aI00
aa(lp4831
I15726
aF300.554
aF734.892
aVp3
p4832
aS'dejavuserif'
p4833
aS'#000000'
p4834
aF11.0
aI0
aI00
aI00
aI00
aI00
aI00
aI00
aI00
aI00
aa(lp4835
I98580
aF325.711
aF734.892
aVp3
p4836
aS'dejavuserif'
p4837
aS'#000000'
p4838
aF11.0
aI0
aI00
aI00
aI00
aI00
aI00
aI00
aI00
aI00
aa(lp4839
I234378
aF385.232
aF734.892
aVp3
p4840
aS'dejavuserif'
p4841
aS'#000000'
p4842
aF11.0
aI0
aI00
aI00
aI00
aI00
aI00
aI00
aI00
aI00
aa(lp4843
I75739
aF88.1
aF748.592
aVp3
p4844
aS'dejavuserif'
p4845
aS'#000000'
p4846
aF11.0
aI0
aI01
aI00
aI00
aI00
aI00
aI00
aI00
aI00
aa(lp4847
I68032
aF112.388
aF748.592
aVp3
p4848
aS'dejavuserif'
p4849
aS'#000000'
p4850
aF11.0
aI0
aI00
aI00
aI00
aI00
aI00
aI00
aI00
aI00
aa(lp4851
I144489
aF187.727
aF748.592
aVp3
p4852
aS'dejavuserif'
p4853
aS'#000000'
p4854
aF11.0
aI0
aI00
aI00
aI00
aI00
aI00
aI00
aI00
aI00
aa(lp4855
I1507
aF201.906
aF748.592
aVp3
p4856
aS'dejavuserif'
p4857
aS'#000000'
p4858
aF11.0
aI0
aI01
aI01
aI00
aI00
aI00
aI00
aI00
aI00
aa(lp4859
I234378
aF225.182
aF748.592
aVp3
p4860
aS'dejavuserif'
p4861
aS'#000000'
p4862
aF11.0
aI0
aI00
aI00
aI00
aI00
aI00
aI00
aI00
aI00
aa(lp4863
I135639
aF281.04
aF748.592
aVp3
p4864
aS'dejavuserif'
p4865
aS'#000000'
p4866
aF11.0
aI0
aI00
aI00
aI00
aI00
aI00
aI00
aI00
aI00
aa(lp4867
I21716
aF295.109
aF748.592
aVp3
p4868
aS'dejavuserif'
p4869
aS'#000000'
p4870
aF11.0
aI0
aI00
aI00
aI00
aI00
aI00
aI00
aI00
aI00
aa(lp4871
I89480
aF321.278
aF748.592
aVp3
p4872
aS'dejavuserif'
p4873
aS'#000000'
p4874
aF11.0
aI0
aI00
aI00
aI00
aI00
aI00
aI00
aI00
aI00
aa(lp4875
I205394
aF335.853
aF748.592
aVp3
p4876
aS'dejavuserif'
p4877
aS'#000000'
p4878
aF11.0
aI0
aI00
aI00
aI00
aI00
aI00
aI00
aI00
aI00
aa(lp4879
I85218
aF367.819
aF748.592
aVp3
p4880
aS'dejavuserif'
p4881
aS'#000000'
p4882
aF11.0
aI0
aI00
aI00
aI00
aI00
aI00
aI00
aI00
aI00
aa(lp4883
I158810
aF391.975
aF748.592
aVp3
p4884
aS'dejavuserif'
p4885
aS'#000000'
p4886
aF11.0
aI0
aI00
aI00
aI00
aI00
aI00
aI00
aI00
aI00
aa(lp4887
I175263
aF425.14
aF748.592
aVp3
p4888
aS'dejavuserif'
p4889
aS'#000000'
p4890
aF11.0
aI0
aI00
aI00
aI00
aI00
aI00
aI00
aI00
aI00
aa(lp4891
I85218
aF465.587
aF748.592
aVp3
p4892
aS'dejavuserif'
p4893
aS'#000000'
p4894
aF11.0
aI0
aI00
aI00
aI00
aI00
aI00
aI00
aI00
aI00
aa(lp4895
I23690
aF489.743
aF748.592
aVp3
p4896
aS'dejavuserif'
p4897
aS'#000000'
p4898
aF11.0
aI0
aI00
aI00
aI00
aI00
aI00
aI00
aI00
aI00
aa(lp4899
I234378
aF532.599
aF748.592
aVp3
p4900
aS'dejavuserif'
p4901
aS'#000000'
p4902
aF11.0
aI0
aI01
aI01
aI00
aI00
aI00
aI00
aI00
aI00
aa(lp4903
I234378
aF88.1
aF762.192
aVp3
p4904
aS'dejavuserif'
p4905
aS'#000000'
p4906
aF11.0
aI0
aI01
aI00
aI00
aI00
aI00
aI00
aI00
aI00
aa(lp4907
I85218
aF134.872
aF762.192
aVp3
p4908
aS'dejavuserif'
p4909
aS'#000000'
p4910
aF11.0
aI0
aI00
aI00
aI00
aI00
aI00
aI00
aI00
aI00
aa(lp4911
I234378
aF159.028
aF762.192
aVp3
p4912
aS'dejavuserif'
p4913
aS'#000000'
p4914
aF11.0
aI0
aI00
aI00
aI00
aI00
aI00
aI00
aI00
aI00
aa(lp4915
I234378
aF217.977
aF762.192
aVp3
p4916
aS'dejavuserif'
p4917
aS'#000000'
p4918
aF11.0
aI0
aI00
aI00
aI00
aI00
aI00
aI00
aI00
aI00
aa(lp4919
I126003
aF224.236
aF762.192
ag4916
aS'dejavuserif'
p4920
aS'#000000'
p4921
aF11.0
aI0
aI01
aI00
aI00
aI00
aI00
aI00
aI00
aI00
aa(lp4922
I85218
aF284.098
aF762.192
aVp3
p4923
aS'dejavuserif'
p4924
aS'#000000'
p4925
aF11.0
aI0
aI00
aI00
aI00
aI00
aI00
aI00
aI00
aI00
aa(lp4926
I234378
aF308.166
aF762.192
aVp3
p4927
aS'dejavuserif'
p4928
aS'#000000'
p4929
aF11.0
aI0
aI01
aI01
aI00
aI00
aI00
aI00
aI00
aI00
aa(lp4930
I207716
aF336.634
aF762.192
aVp3
p4931
aS'dejavuserif'
p4932
aS'#000000'
p4933
aF11.0
aI0
aI00
aI00
aI00
aI00
aI00
aI00
aI00
aI00
aa(lp4934
I234378
aF373.5562857142857
aF762.192
ag4931
aS'dejavuserif'
p4935
aS'#000000'
p4936
aF11.0
aI0
aI00
aI00
aI00
aI00
aI00
aI00
aI00
aI00
aa(lp4937
I169745
aF383.197
aF762.192
aVp3
p4938
aS'dejavuserif'
p4939
aS'#000000'
p4940
aF11.0
aI0
aI00
aI00
aI00
aI00
aI00
aI00
aI00
aI00
aa(lp4941
I234378
aF411.181
aF762.192
aVp3
p4942
aS'dejavuserif'
p4943
aS'#000000'
p4944
aF11.0
aI0
aI00
aI00
aI00
aI00
aI00
aI00
aI00
aI00
aa(lp4945
I234378
aF443.543
aF762.192
aVp3
p4946
aS'dejavuserif'
p4947
aS'#000000'
p4948
aF11.0
aI0
aI00
aI00
aI00
aI00
aI00
aI00
aI00
aI00
aa(lp4949
I234378
aF88.1
aF774.992
aVp3
p4950
aS'dejavuserif'
p4951
aS'#000000'
p4952
aF11.0
aI0
aI01
aI00
aI00
aI00
aI00
aI00
aI00
aI00
aa(lp4953
I15102
aF165.331
aF774.992
aVp3
p4954
aS'dejavuserif'
p4955
aS'#000000'
p4956
aF11.0
aI0
aI01
aI00
aI00
aI00
aI00
aI00
aI00
aI00
aa(lp4957
I205394
aF199.09
aF774.992
aVp3
p4958
aS'dejavuserif'
p4959
aS'#000000'
p4960
aF11.0
aI0
aI01
aI00
aI00
aI00
aI00
aI00
aI00
aI00
aa(lp4961
I120066
aF237.051
aF774.992
aVp3
p4962
aS'dejavuserif'
p4963
aS'#000000'
p4964
aF11.0
aI0
aI00
aI00
aI00
aI00
aI00
aI00
aI00
aI00
aa(lp4965
I190806
aF294.911
aF774.992
aVp3
p4966
aS'dejavuserif'
p4967
aS'#000000'
p4968
aF11.0
aI0
aI00
aI00
aI00
aI00
aI00
aI00
aI00
aI00
aa(lp4969
I234378
aF314.381
aF774.992
aVp3
p4970
aS'dejavuserif'
p4971
aS'#000000'
p4972
aF11.0
aI0
aI00
aI00
aI00
aI00
aI00
aI00
aI00
aI00
aa(lp4973
I15102
aF360.009
aF774.992
aVp3
p4974
aS'dejavuserif'
p4975
aS'#000000'
p4976
aF11.0
aI0
aI00
aI00
aI00
aI00
aI00
aI00
aI00
aI00
aa(lp4977
I88992
aF387.08
aF774.992
aVp3
p4978
aS'dejavuserif'
p4979
aS'#000000'
p4980
aF11.0
aI0
aI00
aI00
aI00
aI00
aI00
aI00
aI00
aI00
aa(lp4981
I85593
aF436.415
aF774.992
aVp3
p4982
aS'dejavuserif'
p4983
aS'#000000'
p4984
aF11.0
aI0
aI00
aI00
aI00
aI00
aI00
aI00
aI00
aI00
aa(lp4985
I190806
aF487.279
aF774.992
aVp3
p4986
aS'dejavuserif'
p4987
aS'#000000'
p4988
aF11.0
aI0
aI00
aI00
aI00
aI00
aI00
aI00
aI00
aI00
aa(lp4989
I66529
aF506.749
aF774.992
aVp3
p4990
aS'dejavuserif'
p4991
aS'#000000'
p4992
aF11.0
aI0
aI00
aI00
aI00
aI00
aI00
aI00
aI00
aI00
aa(lp4993
I16781
aF88.1
aF788.692
aVp3
p4994
aS'dejavuserif'
p4995
aS'#000000'
p4996
aF11.0
aI0
aI01
aI00
aI00
aI00
aI00
aI00
aI00
aI00
aa(lp4997
I120066
aF135.345
aF788.692
aVp3
p4998
aS'dejavuserif'
p4999
aS'#000000'
p5000
aF11.0
aI0
aI00
aI00
aI00
aI00
aI00
aI00
aI00
aI00
aa(lp5001
I89480
aF193.183
aF788.692
aVp3
p5002
aS'dejavuserif'
p5003
aS'#000000'
p5004
aF11.0
aI0
aI00
aI00
aI00
aI00
aI00
aI00
aI00
aI00
aa(lp5005
I149372
aF207.758
aF788.692
aVp3
p5006
aS'dejavuserif'
p5007
aS'#000000'
p5008
aF11.0
aI0
aI00
aI00
aI00
aI00
aI00
aI00
aI00
aI00
aa(lp5009
I85218
aF263.0
aF788.692
aVp3
p5010
aS'dejavuserif'
p5011
aS'#000000'
p5012
aF11.0
aI0
aI00
aI00
aI00
aI00
aI00
aI00
aI00
aI00
aa(lp5013
I205394
aF287.156
aF788.692
aVp3
p5014
aS'dejavuserif'
p5015
aS'#000000'
p5016
aF11.0
aI0
aI00
aI00
aI00
aI00
aI00
aI00
aI00
aI00
aa(lp5017
I46281
aF319.122
aF788.692
aVp3
p5018
aS'dejavuserif'
p5019
aS'#000000'
p5020
aF11.0
aI0
aI00
aI00
aI00
aI00
aI00
aI00
aI00
aI00
aa(lp5021
I234378
aF362.88
aF788.692
aVp3
p5022
aS'dejavuserif'
p5023
aS'#000000'
p5024
aF11.0
aI0
aI01
aI01
aI00
aI00
aI00
aI00
aI00
aI00
aa(lp5025
I234378
aF381.855
aF788.692
aVp3
p5026
aS'dejavuserif'
p5027
aS'#000000'
p5028
aF11.0
aI0
aI01
aI00
aI00
aI00
aI00
aI00
aI00
aI00
aa(lp5029
I234378
aF428.605
aF788.692
aVp3
p5030
aS'dejavuserif'
p5031
aS'#000000'
p5032
aF11.0
aI0
aI00
aI00
aI00
aI00
aI00
aI00
aI00
aI00
aa(lp5033
I234378
aF88.1
aF802.292
aVp3
p5034
aS'dejavuserif'
p5035
aS'#000000'
p5036
aF11.0
aI0
aI01
aI00
aI00
aI00
aI00
aI00
aI00
aI00
aa(lp5037
I85218
aF136.731
aF802.292
aVp3
p5038
aS'dejavuserif'
p5039
aS'#000000'
p5040
aF11.0
aI0
aI00
aI00
aI00
aI00
aI00
aI00
aI00
aI00
aa(lp5041
I234378
aF160.887
aF802.292
aVp3
p5042
aS'dejavuserif'
p5043
aS'#000000'
p5044
aF11.0
aI0
aI00
aI00
aI00
aI00
aI00
aI00
aI00
aI00
aa(lp5045
I24757
aF222.421
aF802.292
aVp3
p5046
aS'dejavuserif'
p5047
aS'#000000'
p5048
aF11.0
aI0
aI01
aI01
aI00
aI00
aI00
aI00
aI00
aI00
aa(lp5049
I234378
aF238.15375
aF802.292
ag5046
aS'dejavuserif'
p5050
aS'#000000'
p5051
aF11.0
aI0
aI00
aI00
aI00
aI00
aI00
aI00
aI00
aI00
aa(lp5052
I234378
aF246.984
aF802.292
aVp3
p5053
aS'dejavuserif'
p5054
aS'#000000'
p5055
aF11.0
aI0
aI01
aI01
aI00
aI00
aI00
aI00
aI00
aI00
aa(lp5056
I85218
aF274.066
aF802.292
aVp3
p5057
aS'dejavuserif'
p5058
aS'#000000'
p5059
aF11.0
aI0
aI00
aI00
aI00
aI00
aI00
aI00
aI00
aI00
aa(lp5060
I234378
aF298.134
aF802.292
aVp3
p5061
aS'dejavuserif'
p5062
aS'#000000'
p5063
aF11.0
aI0
aI01
aI01
aI01
aI00
aI00
aI00
aI00
aI00
aa(lp5064
I234378
aF318.4554
aF802.292
ag5061
aS'dejavuserif'
p5065
aS'#000000'
p5066
aF11.0
aI0
aI00
aI00
aI00
aI00
aI00
aI00
aI00
aI00
aa(lp5067
I28430
aF325.2292
aF802.292
ag5061
aS'dejavuserif'
p5068
aS'#000000'
p5069
aF11.0
aI0
aI01
aI00
aI00
aI00
aI00
aI00
aI00
aI00
aa(lp5070
I121847
aF403.228
aF802.292
aVp3
p5071
aS'dejavuserif'
p5072
aS'#000000'
p5073
aF11.0
aI0
aI00
aI00
aI00
aI00
aI00
aI00
aI00
aI00
aa(lp5074
I169745
aF427.703
aF802.292
aVp3
p5075
aS'dejavuserif'
p5076
aS'#000000'
p5077
aF11.0
aI0
aI00
aI00
aI00
aI00
aI00
aI00
aI00
aI00
aa(lp5078
I234378
aF455.687
aF802.292
aVp3
p5079
aS'dejavuserif'
p5080
aS'#000000'
p5081
aF11.0
aI0
aI00
aI00
aI00
aI00
aI00
aI00
aI00
aI00
aa(lp5082
I7520
aF52.1
aF90.344
aVp4
p5083
aS'dejavuserif'
p5084
aS'#000000'
p5085
aF12.0
aI1
aI01
aI00
aI00
aI00
aI00
aI00
aI00
aI00
aa(lp5086
I234378
aF114.656
aF90.344
aVp4
p5087
aS'dejavuserif'
p5088
aS'#000000'
p5089
aF12.0
aI1
aI01
aI00
aI00
aI00
aI00
aI00
aI00
aI00
aa(lp5090
I234378
aF159.8795
aF90.344
ag5087
aS'dejavuserif'
p5091
aS'#000000'
p5092
aF12.0
aI1
aI00
aI00
aI00
aI00
aI00
aI00
aI00
aI00
aa(lp5093
I132955
aF88.1
aF119.292
aVp4
p5094
aS'dejavuserif'
p5095
aS'#000000'
p5096
aF11.0
aI0
aI01
aI00
aI00
aI00
aI00
aI00
aI00
aI00
aa(lp5097
I144489
aF117.877
aF119.292
aVp4
p5098
aS'dejavuserif'
p5099
aS'#000000'
p5100
aF11.0
aI0
aI00
aI00
aI00
aI00
aI00
aI00
aI00
aI00
aa(lp5101
I132529
aF132.056
aF119.292
aVp4
p5102
aS'dejavuserif'
p5103
aS'#000000'
p5104
aF11.0
aI0
aI01
aI00
aI00
aI00
aI00
aI00
aI00
aI00
aa(lp5105
I234378
aF220.509
aF119.292
aVp4
p5106
aS'dejavuserif'
p5107
aS'#000000'
p5108
aF11.0
aI0
aI00
aI00
aI00
aI00
aI00
aI00
aI00
aI00
aa(lp5109
I234378
aF227.692
aF119.292
aVp4
p5110
aS'dejavuserif'
p5111
aS'#000000'
p5112
aF11.0
aI0
aI00
aI00
aI01
aI01
aI00
aI00
aI00
aI00
aa(lp5113
I234378
aF238.175
aF119.292
aVp4
p5114
aS'dejavuserif'
p5115
aS'#000000'
p5116
aF11.0
aI0
aI01
aI00
aI00
aI00
aI00
aI00
aI00
aI01
aa(lp5117
I234378
aF256.15175
aF119.292
ag5114
aS'dejavuserif'
p5118
aS'#000000'
p5119
aF11.0
aI0
aI00
aI00
aI00
aI00
aI00
aI00
aI00
aI00
aa(lp5120
I234378
aF265.73
aF119.292
aVp4
p5121
aS'dejavuserif'
p5122
aS'#000000'
p5123
aF11.0
aI0
aI00
aI00
aI01
aI01
aI01
aI00
aI00
aI00
aa(lp5124
I195166
aF88.1
aF132.992
aVp4
p5125
aS'dejavuserif'
p5126
aS'#000000'
p5127
aF11.0
aI0
aI01
aI00
aI00
aI00
aI00
aI00
aI00
aI00
aa(lp5128
I136346
aF146.719
aF132.992
aVp4
p5129
aS'dejavuserif'
p5130
aS'#000000'
p5131
aF11.0
aI0
aI01
aI00
aI00
aI00
aI00
aI00
aI00
aI00
aa(lp5132
I234378
aF195.548
aF132.992
aVp4
p5133
aS'dejavuserif'
p5134
aS'#000000'
p5135
aF11.0
aI0
aI00
aI00
aI00
aI00
aI00
aI00
aI00
aI00
aa(lp5136
I58002
aF202.731
aF132.992
aVp4
p5137
aS'dejavuserif'
p5138
aS'#000000'
p5139
aF11.0
aI0
aI01
aI00
aI00
aI00
aI00
aI00
aI00
aI00
aa(lp5140
I234378
aF242.395625
aF132.992
ag5137
aS'dejavuserif'
p5141
aS'#000000'
p5142
aF11.0
aI0
aI00
aI00
aI00
aI00
aI00
aI00
aI00
aI00
aa(lp5143
I144532
aF251.549
aF132.992
aVp4
p5144
aS'dejavuserif'
p5145
aS'#000000'
p5146
aF11.0
aI0
aI01
aI00
aI00
aI00
aI00
aI00
aI00
aI00
aa(lp5147
I234378
aF280.0115
aF132.992
ag5144
aS'dejavuserif'
p5148
aS'#000000'
p5149
aF11.0
aI0
aI00
aI00
aI00
aI00
aI00
aI00
aI00
aI00
aa(lp5150
I213858
aF289.29
aF132.992
aVp4
p5151
aS'dejavuserif'
p5152
aS'#000000'
p5153
aF11.0
aI0
aI01
aI00
aI00
aI00
aI00
aI00
aI00
aI00
aa(lp5154
I234378
aF331.332
aF132.992
ag5151
aS'dejavuserif'
p5155
aS'#000000'
p5156
aF11.0
aI0
aI00
aI00
aI00
aI00
aI00
aI00
aI00
aI00
aa(lp5157
I234378
aF88.1
aF146.592
aVp4
p5158
aS'dejavuserif'
p5159
aS'#000000'
p5160
aF11.0
aI0
aI01
aI00
aI00
aI00
aI00
aI00
aI00
aI00
aa(lp5161
I234378
aF216.69
aF146.592
aVp4
p5162
aS'dejavuserif'
p5163
aS'#000000'
p5164
aF11.0
aI0
aI00
aI00
aI00
aI00
aI00
aI00
aI00
aI00
aa(lp5165
I204917
aF223.004
aF146.592
ag5162
aS'dejavuserif'
p5166
aS'#000000'
p5167
aF11.0
aI0
aI01
aI00
aI00
aI00
aI00
aI00
aI00
aI00
aa(lp5168
I51933
aF258.633
aF146.592
aVp4
p5169
aS'dejavuserif'
p5170
aS'#000000'
p5171
aF11.0
aI0
aI00
aI00
aI00
aI00
aI00
aI00
aI00
aI00
aa(lp5172
I234378
aF283.7394
aF146.592
ag5169
aS'dejavuserif'
p5173
aS'#000000'
p5174
aF11.0
aI0
aI00
aI00
aI00
aI00
aI00
aI00
aI00
aI00
aa(lp5175
I234378
aF294.097
aF146.592
aVp4
p5176
aS'dejavuserif'
p5177
aS'#000000'
p5178
aF11.0
aI0
aI01
aI00
aI00
aI00
aI00
aI00
aI00
aI00
aa(lp5179
I234378
aF359.3260833333333
aF146.592
ag5176
aS'dejavuserif'
p5180
aS'#000000'
p5181
aF11.0
aI0
aI00
aI00
aI00
aI00
aI00
aI00
aI00
aI00
aa(lp5182
I189696
aF369.337
aF146.592
aVp4
p5183
aS'dejavuserif'
p5184
aS'#000000'
p5185
aF11.0
aI0
aI00
aI00
aI00
aI00
aI00
aI00
aI00
aI00
aa(lp5186
I89480
aF408.178
aF146.592
aVp4
p5187
aS'dejavuserif'
p5188
aS'#000000'
p5189
aF11.0
aI0
aI00
aI00
aI00
aI00
aI00
aI00
aI00
aI00
aa(lp5190
I63031
aF423.347
aF146.592
aVp4
p5191
aS'dejavuserif'
p5192
aS'#000000'
p5193
aF11.0
aI0
aI00
aI00
aI00
aI00
aI00
aI00
aI00
aI00
aa(lp5194
I234378
aF473.078
aF146.592
aVp4
p5195
aS'dejavuserif'
p5196
aS'#000000'
p5197
aF11.0
aI0
aI00
aI00
aI00
aI00
aI00
aI00
aI00
aI00
aa(lp5198
I210945
aF515.12
aF146.592
aVp4
p5199
aS'dejavuserif'
p5200
aS'#000000'
p5201
aF11.0
aI0
aI00
aI00
aI00
aI00
aI00
aI00
aI00
aI00
aa(lp5202
I161283
aF88.1
aF160.292
aVp4
p5203
aS'dejavuserif'
p5204
aS'#000000'
p5205
aF11.0
aI0
aI00
aI00
aI00
aI00
aI00
aI00
aI00
aI00
aa(lp5206
I230071
aF137.149
aF160.292
aVp4
p5207
aS'dejavuserif'
p5208
aS'#000000'
p5209
aF11.0
aI0
aI00
aI00
aI00
aI00
aI00
aI00
aI00
aI00
aa(lp5210
I120579
aF165.518
aF160.292
aVp4
p5211
aS'dejavuserif'
p5212
aS'#000000'
p5213
aF11.0
aI0
aI00
aI00
aI00
aI00
aI00
aI00
aI00
aI00
aa(lp5214
I234378
aF195.7405
aF160.292
ag5211
aS'dejavuserif'
p5215
aS'#000000'
p5216
aF11.0
aI0
aI00
aI00
aI00
aI00
aI00
aI00
aI00
aI00
aa(lp5217
I212271
aF88.1
aF173.092
aVp4
p5218
aS'dejavuserif'
p5219
aS'#000000'
p5220
aF11.0
aI0
aI01
aI00
aI00
aI00
aI00
aI00
aI00
aI00
aa(lp5221
I12510
aF132.65
aF173.092
aVp4
p5222
aS'dejavuserif'
p5223
aS'#000000'
p5224
aF11.0
aI0
aI01
aI00
aI00
aI00
aI00
aI00
aI00
aI00
aa(lp5225
I234378
aF220.509
aF173.092
aVp4
p5226
aS'dejavuserif'
p5227
aS'#000000'
p5228
aF11.0
aI0
aI00
aI00
aI00
aI00
aI00
aI00
aI00
aI00
aa(lp5229
I97834
aF227.692
aF173.092
aVp4
p5230
aS'dejavuserif'
p5231
aS'#000000'
p5232
aF11.0
aI0
aI01
aI00
aI00
aI00
aI00
aI00
aI00
aI00
aa(lp5233
I234378
aF270.359625
aF173.092
ag5230
aS'dejavuserif'
p5234
aS'#000000'
p5235
aF11.0
aI0
aI00
aI00
aI00
aI00
aI00
aI00
aI00
aI00
aa(lp5236
I118366
aF88.1
aF186.692
aVp4
p5237
aS'dejavuserif'
p5238
aS'#000000'
p5239
aF11.0
aI0
aI01
aI00
aI00
aI00
aI00
aI00
aI00
aI00
aa(lp5240
I234378
aF202.896
aF186.692
aVp4
p5241
aS'dejavuserif'
p5242
aS'#000000'
p5243
aF11.0
aI0
aI00
aI00
aI00
aI00
aI00
aI00
aI00
aI00
aa(lp5244
I71195
aF210.079
aF186.692
aVp4
p5245
aS'dejavuserif'
p5246
aS'#000000'
p5247
aF11.0
aI0
aI01
aI00
aI00
aI00
aI00
aI00
aI00
aI00
aa(lp5248
I201816
aF235.654
aF186.692
aVp4
p5249
aS'dejavuserif'
p5250
aS'#000000'
p5251
aF11.0
aI0
aI00
aI00
aI00
aI00
aI00
aI00
aI00
aI00
aa(lp5252
I234378
aF248.2028
aF186.692
ag5249
aS'dejavuserif'
p5253
aS'#000000'
p5254
aF11.0
aI0
aI00
aI00
aI00
aI00
aI00
aI00
aI00
aI00
aa(lp5255
I234378
aF254.47719999999998
aF186.692
ag5249
aS'dejavuserif'
p5256
aS'#000000'
p5257
aF11.0
aI0
aI00
aI00
aI01
aI01
aI01
aI00
aI00
aI00
aa(lp5258
I234378
aF270.513
aF186.692
aVp4
p5259
aS'dejavuserif'
p5260
aS'#000000'
p5261
aF11.0
aI0
aI01
aI00
aI00
aI00
aI00
aI00
aI00
aI00
aa(lp5262
I234378
aF321.861
aF186.692
aVp4
p5263
aS'dejavuserif'
p5264
aS'#000000'
p5265
aF11.0
aI0
aI00
aI00
aI00
aI00
aI00
aI00
aI00
aI00
aa(lp5266
I234378
aF357.501
aF186.692
aVp4
p5267
aS'dejavuserif'
p5268
aS'#000000'
p5269
aF11.0
aI0
aI00
aI00
aI00
aI00
aI00
aI00
aI00
aI00
aa(lp5270
I234378
aF397.442
aF186.692
aVp4
p5271
aS'dejavuserif'
p5272
aS'#000000'
p5273
aF11.0
aI0
aI01
aI01
aI00
aI00
aI00
aI00
aI00
aI00
aa(lp5274
I171568
aF426.812
aF186.692
aVp4
p5275
aS'dejavuserif'
p5276
aS'#000000'
p5277
aF11.0
aI0
aI00
aI00
aI00
aI00
aI00
aI00
aI00
aI00
aa(lp5278
I220170
aF220.606
aF200.392
aVp4
p5279
aS'dejavuserif'
p5280
aS'#000000'
p5281
aF11.0
aI0
aI00
aI00
aI00
aI00
aI00
aI00
aI00
aI00
aa(lp5282
I234378
aF241.275
aF200.392
aVp4
p5283
aS'dejavuserif'
p5284
aS'#000000'
p5285
aF11.0
aI0
aI00
aI00
aI00
aI00
aI00
aI00
aI00
aI00
aa(lp5286
I234378
aF287.321
aF200.392
aVp4
p5287
aS'dejavuserif'
p5288
aS'#000000'
p5289
aF11.0
aI0
aI00
aI00
aI00
aI00
aI00
aI00
aI00
aI00
aa(lp5290
I234378
aF314.98900000000003
aF200.392
ag5287
aS'dejavuserif'
p5291
aS'#000000'
p5292
aF11.0
aI0
aI00
aI00
aI01
aI01
aI01
aI00
aI00
aI00
aa(lp5293
I1
aI1
aI0
aI0
aI0
aI0
aI0
aI0
aI0
aI0
aI0
aI0
aI1
aI1
aI0
aI0
aI0
aI0
aI0
aI0
aI0
aI0
aI0
aI0
aI0
aI0
aI0
aI0
aI0
aI0
aI0
aI0
aI0
aI0
aI0
aI0
aI0
aI0
aI0
aI0
aI0
aI0
aI0
aI0
aI0
aI0
aI0
aI0
aI0
aI0
aI0
aI0
aI0
aI0
aI0
aI0
aI0
aI0
aI0
aI0
aI0
aI0
aI0
aI0
aI0
aI0
aI0
aI0
aI0
aI0
aI0
aI0
aI0
aI0
aI0
aI0
aI0
aI0
aI0
aI0
aI0
aI0
aI0
aI0
aI0
aI0
aI0
aI0
aI0
aI0
aI0
aI0
aI0
aI0
aI0
aI0
aI0
aI0
aI0
aI0
aI0
aI0
aI0
aI0
aI0
aI0
aI0
aI0
aI0
aI0
aI0
aI0
aI0
aI0
aI0
aI0
aI0
aI0
aI0
aI0
aI0
aI0
aI0
aI0
aI0
aI0
aI0
aI0
aI0
aI0
aI0
aI0
aI0
aI0
aI0
aI0
aI0
aI0
aI0
aI0
aI0
aI0
aI0
aI0
aI0
aI0
aI0
aI0
aI0
aI0
aI0
aI0
aI0
aI0
aI0
aI0
aI0
aI0
aI0
aI0
aI0
aI0
aI0
aI0
aI0
aI0
aI0
aI0
aI0
aI0
aI0
aI0
aI0
aI0
aI0
aI0
aI0
aI0
aI0
aI0
aI0
aI0
aI0
aI0
aI0
aI0
aI0
aI0
aI0
aI0
aI0
aI0
aI0
aI0
aI0
aI0
aI0
aI0
aI0
aI0
aI0
aI0
aI0
aI0
aI0
aI0
aI0
aI0
aI0
aI0
aI0
aI0
aI0
aI0
aI0
aI0
aI0
aI0
aI0
aI0
aI0
aI0
aI0
aI0
aI0
aI0
aI0
aI0
aI0
aI0
aI0
aI0
aI0
aI0
aI0
aI0
aI0
aI0
aI0
aI0
aI0
aI0
aI0
aI0
aI0
aI0
aI0
aI0
aI0
aI0
aI0
aI0
aI0
aI0
aI0
aI0
aI0
aI0
aI0
aI0
aI0
aI0
aI0
aI0
aI0
aI0
aI0
aI0
aI0
aI0
aI0
aI0
aI0
aI0
aI1
aI1
aI1
aI1
aI0
aI0
aI0
aI0
aI0
aI0
aI0
aI0
aI0
aI0
aI0
aI0
aI0
aI0
aI0
aI0
aI0
aI0
aI0
aI0
aI0
aI0
aI0
aI0
aI0
aI0
aI0
aI0
aI0
aI0
aI0
aI0
aI1
aI1
aI0
aI0
aI0
aI0
aI0
aI0
aI0
aI0
aI0
aI0
aI0
aI0
aI0
aI0
aI0
aI0
aI0
aI0
aI0
aI0
aI0
aI0
aI0
aI0
aI1
aI1
aI0
aI0
aI0
aI0
aI0
aI0
aI0
aI0
aI0
aI0
aI0
aI0
aI0
aI0
aI0
aI0
aI0
aI0
aI0
aI0
aI0
aI0
aI0
aI0
aI0
aI0
aI0
aI0
aI0
aI0
aI0
aI0
aI0
aI0
aI0
aI0
aI0
aI0
aI0
aI0
aI0
aI0
aI0
aI0
aI0
aI0
aI0
aI1
aI1
aI0
aI0
aI0
aI0
aI0
aI0
aI0
aI0
aI0
aI0
aI0
aI0
aI0
aI0
aI0
aI0
aI0
aI0
aI0
aI0
aI0
aI0
aI0
aI0
aI0
aI0
aI0
aI0
aI0
aI0
aI0
aI0
aI0
aI0
aI0
aI0
aI0
aI0
aI0
aI0
aI0
aI0
aI0
aI0
aI0
aI0
aI0
aI0
aI0
aI0
aI0
aI0
aI0
aI0
aI0
aI0
aI0
aI0
aI0
aI0
aI0
aI0
aI0
aI0
aI0
aI0
aI0
aI0
aI0
aI0
aI0
aI0
aI0
aI0
aI0
aI0
aI0
aI0
aI0
aI0
aI0
aI0
aI0
aI0
aI0
aI0
aI0
aI0
aI0
aI0
aI0
aI0
aI0
aI0
aI0
aI0
aI0
aI0
aI0
aI0
aI0
aI0
aI0
aI0
aI0
aI0
aI0
aI0
aI0
aI0
aI0
aI0
aI0
aI0
aI0
aI0
aI0
aI0
aI0
aI0
aI0
aI0
aI0
aI0
aI0
aI0
aI0
aI0
aI0
aI0
aI0
aI0
aI0
aI0
aI0
aI0
aI0
aI0
aI0
aI0
aI0
aI0
aI0
aI0
aI0
aI0
aI0
aI0
aI0
aI0
aI0
aI0
aI0
aI0
aI0
aI0
aI0
aI0
aI0
aI0
aI0
aI0
aI0
aI0
aI0
aI0
aI0
aI0
aI0
aI0
aI0
aI0
aI0
aI0
aI0
aI0
aI0
aI0
aI0
aI0
aI0
aI0
aI0
aI0
aI0
aI0
aI0
aI0
aI0
aI0
aI0
aI0
aI0
aI0
aI0
aI0
aI0
aI0
aI0
aI0
aI0
aI0
aI0
aI0
aI0
aI0
aI0
aI0
aI0
aI0
aI0
aI0
aI0
aI0
aI0
aI0
aI0
aI0
aI0
aI0
aI0
aI0
aI0
aI0
aI0
aI0
aI0
aI0
aI0
aI0
aI0
aI0
aI0
aI0
aI0
aI0
aI0
aI0
aI0
aI0
aI0
aI0
aI0
aI0
aI0
aI0
aI0
aI0
aI0
aI0
aI0
aI0
aI0
aI0
aI0
aI0
aI0
aI0
aI0
aI0
aI0
aI0
aI0
aI0
aI0
aI0
aI0
aI0
aI0
aI0
aI0
aI0
aI0
aI0
aI0
aI0
aI0
aI0
aI0
aI0
aI0
aI0
aI0
aI0
aI0
aI0
aI0
aI0
aI0
aI0
aI0
aI0
aI0
aI0
aI0
aI0
aI0
aI0
aI0
aI0
aI0
aI0
aI0
aI0
aI0
aI0
aI0
aI0
aI0
aI0
aI0
aI0
aI0
aI0
aI0
aI0
aI0
aI0
aI0
aI0
aI0
aI0
aI0
aI0
aI0
aI0
aI0
aI0
aI0
aI0
aI0
aI0
aI0
aI0
aI0
aI0
aI0
aI0
aI0
aI0
aI0
aI0
aI0
aI0
aI0
aI0
aI0
aI0
aI0
aI0
aI0
aI0
aI0
aI0
aI0
aI0
aI0
aI0
aI0
aI0
aI0
aI0
aI0
aI0
aI0
aI0
aI0
aI0
aI0
aI0
aI0
aI0
aI0
aI0
aI0
aI0
aI0
aI0
aI0
aI0
aI0
aI0
aI0
aI0
aI0
aI0
aI0
aI0
aI0
aI0
aI0
aI0
aI0
aI0
aI0
aI0
aI0
aI0
aI0
aI0
aI0
aI0
aI0
aI0
aI0
aI0
aI0
aI0
aI0
aI0
aI0
aI0
aI0
aI0
aI0
aI0
aI0
aI0
aI0
aI0
aI0
aI0
aI0
aI0
aI0
aI0
aI0
aI0
aI0
aI0
aI0
aI0
aI0
aI0
aI0
aI0
aI0
aI0
aI0
aI0
aI0
aI0
aI0
aI0
aI0
aI0
aI0
aI0
aI0
aI0
aI0
aI0
aI0
aI0
aI0
aI0
aI0
aI0
aI0
aI0
aI0
aI0
aI0
aI0
aI0
aI0
aI0
aI0
aI0
aI0
aI0
aI0
aI0
aI0
aI0
aI0
aI0
aI0
aI0
aI0
aI0
aI0
aI0
aI0
aI0
aI0
aI0
aI0
aI0
aI0
aI0
aI0
aI0
aI0
aI0
aI0
aI0
aI0
aI0
aI0
aI0
aI0
aI0
aI0
aI0
aI0
aI0
aI0
aI0
aI0
aI0
aI0
aI0
aI0
aI0
aI0
aI0
aI0
aI0
aI0
aI0
aI0
aI0
aI0
aI0
aI0
aI0
aI0
aI0
aI0
aI0
aI0
aI0
aI0
aI0
aI0
aI0
aI0
aI0
aI0
aI0
aI0
aI0
aI0
aI0
aI0
aI0
aI0
aI0
aI0
aI0
aI0
aI0
aI0
aI0
aI0
aI0
aI0
aI0
aI0
aI0
aI0
aI0
aI0
aI0
aI0
aI0
aI0
aI0
aI0
aI0
aI0
aI0
aI0
aI0
aI0
aI0
aI0
aI0
aI0
aI0
aI0
aI0
aI0
aI0
aI0
aI0
aI0
aI0
aI0
aI0
aI0
aI0
aI0
aI0
aI0
aI0
aI0
aI0
aI0
aI0
aI0
aI0
aI0
aI0
aI0
aI0
aI0
aI0
aI0
aI0
aI0
aI0
aI0
aI0
aI0
aI0
aI0
aI0
aI0
aI0
aI0
aI0
aI0
aI0
aI0
aI0
aI0
aI0
aI0
aI0
aI0
aI0
aI0
aI0
aI0
aI0
aI0
aI0
aI0
aI0
aI0
aI0
aI0
aI0
aI0
aI0
aI0
aI0
aI0
aI0
aI0
aI0
aI0
aI0
aI0
aI0
aI0
aI0
aI0
aI0
aI0
aI0
aI0
aI0
aI0
aI0
aI0
aI0
aI0
aI0
aI0
aI0
aI0
aI0
aI0
aI0
aI0
aI0
aI0
aI0
aI0
aI0
aI0
aI0
aI0
aI0
aI0
aI0
aI0
aI0
aI0
aI0
aI0
aI0
aI0
aI0
aI0
aI0
aI0
aI0
aI0
aI0
aI0
aI0
aI0
aI0
aI0
aI0
aI0
aI0
aI0
aI0
aI0
aI0
aI0
aI0
aI0
aI0
aI0
aI0
aI0
aI0
aI0
aI0
aI0
aI0
aI0
aI0
aI0
aI0
aI0
aI0
aI0
aI0
aI0
aI0
aI0
aI0
aI0
aI0
aI0
aI0
aI0
aI0
aI0
aI0
aI0
aI0
aI0
aI0
aI0
aI0
aI0
aI0
aI0
aI0
aI0
aI0
aI0
aI0
aI0
aI0
aI0
aI0
aI0
aI0
aI0
aI0
aI0
aI0
aI0
aI0
aI0
aI0
aI0
aI0
aI0
aI0
aI0
aI0
aI0
aI0
aI0
aI0
aI0
aI0
aI0
aI0
aI0
aI0
aI0
aI0
aI0
aI0
aI0
aI0
aI0
aI0
aI0
aI0
aI0
aI0
aI0
aI0
aI0
aI0
aI0
aI0
aI0
aI0
aI0
aI0
aI0
aI0
aI0
aI0
aI0
aI0
aI0
aI0
aI0
aI0
aI0
aI0
aI0
aI0
aI0
aI0
aI0
aI0
aI0
aI0
aI0
aI0
aI0
aI0
aI0
aI0
aI0
aI0
aI0
aI0
aI0
aI0
aI0
aI0
aI0
aI0
aI0
aI0
aI0
aI0
aI0
aI0
aI0
aI0
aI0
aI0
aI0
aI0
aI0
aI0
aI0
aI0
aI0
aI0
aI0
aI0
aI0
aI0
aI0
aI0
aI0
aI0
aI0
aI0
aI0
aI0
aI0
aI0
aI0
aI0
aI0
aI0
aI0
aI0
aI0
aI0
aI0
aI0
aI0
aI0
aI0
aI0
aI0
aI0
aI0
aI0
aI0
aI0
aI0
aI0
aI0
aI0
aI0
aI0
aI0
aI0
aI0
aI0
aI0
aI0
aI0
aI0
aI0
aI0
aI0
aI0
aI0
aI0
aI0
aI0
aI0
aI0
aI0
aI0
aI0
aI0
aI0
aI0
aI0
aI0
aI0
aI0
aI0
aI0
aI0
aI0
aI0
aI0
aI0
aI0
aI0
aI0
aI0
aI1
aI1
aI1
aI0
aI0
aI0
aI0
aI0
aI0
aI0
aI0
aI0
aI0
aI0
aI0
aI0
aI0
aI0
aI0
aI0
aI0
aI0
aI0
aI0
aI0
aI0
aI0
aI0
aI0
aI0
aI0
aI0
aI0
aI0
aI0
aI0
aI0
aI0
aI0
aI0
aI0
aI0
aI0
aI0
aI0
aI0
aI0
aI0
aI0
aI0
aI0
aI0
aI0
aI0
aI0
aI0
atp5294
.