((lp0
(lp1
I234378
aF40.9084
aF53.0111
aVp1
p2
aS'utopia'
p3
aS'#02304b'
p4
aF11.8479
aI1
aI01
aI00
aI00
aI00
aI00
aI00
aI00
aI00
aa(lp5
I21716
aF46.8324
aF74.4677
aVp1
p6
aS'utopia'
p7
aS'#656565'
p8
aF8.88595
aI0
aI01
aI00
aI00
aI00
aI00
aI00
aI00
aI00
aa(lp9
I234378
aF61.66542
aF74.4677
ag6
aS'utopia'
p10
aS'#656565'
p11
aF8.88595
aI0
aI00
aI00
aI00
aI00
aI00
aI00
aI00
aI00
aa(lp12
I234378
aF65.37367499999999
aF74.4677
ag6
aS'utopia'
p13
aS'#656565'
p14
aF8.88595
aI0
aI01
aI00
aI00
aI00
aI00
aI00
aI00
aI00
aa(lp15
I234378
aF77.91494999999999
aF74.4677
ag6
aS'utopia'
p16
aS'#656565'
p17
aF8.88595
aI0
aI00
aI00
aI00
aI00
aI00
aI00
aI00
aI00
aa(lp18
I234378
aF87.62320499999998
aF74.4677
ag6
aS'utopia'
p19
aS'#656565'
p20
aF8.88595
aI0
aI01
aI01
aI01
aI00
aI00
aI00
aI00
aI00
aa(lp21
I234378
aF91.45622499999999
aF74.4677
ag6
aS'utopia'
p22
aS'#656565'
p23
aF8.88595
aI0
aI00
aI00
aI00
aI00
aI00
aI00
aI00
aI00
aa(lp24
I234378
aF106.16447999999998
aF74.4677
ag6
aS'utopia'
p25
aS'#656565'
p26
aF8.88595
aI0
aI01
aI01
aI00
aI00
aI00
aI00
aI00
aI00
aa(lp27
I234378
aF102.28924499999998
aF74.4677
ag6
aS'utopia'
p28
aS'#656565'
p29
aF8.88595
aI0
aI00
aI00
aI00
aI00
aI00
aI00
aI00
aI00
aa(lp30
I234378
aF123.103
aF74.4677
aVp1
p31
aS'utopia'
p32
aS'#656565'
p33
aF8.88595
aI0
aI01
aI00
aI00
aI00
aI00
aI00
aI00
aI00
aa(lp34
I234378
aF144.7822
aF74.4677
ag31
aS'utopia'
p35
aS'#656565'
p36
aF8.88595
aI0
aI00
aI00
aI00
aI00
aI00
aI00
aI00
aI00
aa(lp37
I148996
aF150.502
aF74.4677
aVp1
p38
aS'utopia'
p39
aS'#656565'
p40
aF8.88595
aI0
aI01
aI00
aI00
aI00
aI00
aI00
aI00
aI00
aa(lp41
I234378
aF174.08534285714288
aF74.4677
ag38
aS'utopia'
p42
aS'#656565'
p43
aF8.88595
aI0
aI00
aI00
aI00
aI00
aI00
aI00
aI00
aI00
aa(lp44
I176767
aF180.122
aF74.4677
aVp1
p45
aS'utopia'
p46
aS'#656565'
p47
aF8.88595
aI0
aI01
aI00
aI00
aI00
aI00
aI00
aI00
aI00
aa(lp48
I234378
aF218.21342
aF74.4677
ag45
aS'utopia'
p49
aS'#656565'
p50
aF8.88595
aI0
aI00
aI00
aI00
aI00
aI00
aI00
aI00
aI00
aa(lp51
I17350
aF224.551
aF74.4677
aVp1
p52
aS'utopia'
p53
aS'#656565'
p54
aF8.88595
aI0
aI01
aI00
aI00
aI00
aI00
aI00
aI00
aI00
aa(lp55
I234378
aF244.545
aF74.4677
aVp1
p56
aS'utopia'
p57
aS'#656565'
p58
aF8.88595
aI0
aI01
aI00
aI00
aI00
aI00
aI00
aI00
aI00
aa(lp59
I234378
aF274.9257111111111
aF74.4677
ag56
aS'utopia'
p60
aS'#656565'
p61
aF8.88595
aI0
aI00
aI00
aI00
aI00
aI00
aI00
aI00
aI00
aa(lp62
I234378
aF280.829
aF74.4677
aVp1
p63
aS'utopia'
p64
aS'#656565'
p65
aF8.88595
aI0
aI01
aI00
aI00
aI00
aI00
aI00
aI00
aI00
aa(lp66
I234378
aF303.3507666666667
aF74.4677
ag63
aS'utopia'
p67
aS'#656565'
p68
aF8.88595
aI0
aI01
aI00
aI00
aI00
aI00
aI00
aI00
aI00
aa(lp69
I85218
aF347.474
aF74.4677
aVp1
p70
aS'utopia'
p71
aS'#656565'
p72
aF8.88595
aI0
aI00
aI00
aI00
aI00
aI00
aI00
aI00
aI00
aa(lp73
I21716
aF364.505
aF74.4677
aVp1
p74
aS'utopia'
p75
aS'#656565'
p76
aF8.88595
aI0
aI01
aI00
aI00
aI00
aI00
aI00
aI00
aI00
aa(lp77
I115769
aF383.018
aF74.4677
aVp1
p78
aS'utopia'
p79
aS'#656565'
p80
aF8.88595
aI0
aI01
aI00
aI00
aI00
aI00
aI00
aI00
aI00
aa(lp81
I68032
aF40.9084
aF84.8346
aVp1
p82
aS'utopia'
p83
aS'#656565'
p84
aF8.88595
aI0
aI01
aI00
aI00
aI00
aI00
aI00
aI00
aI00
aa(lp85
I234378
aF91.94839999999999
aF84.8346
ag82
aS'utopia'
p86
aS'#656565'
p87
aF8.88595
aI0
aI00
aI00
aI00
aI00
aI00
aI00
aI00
aI00
aa(lp88
I234378
aF96.5884
aF84.8346
ag82
aS'utopia'
p89
aS'#656565'
p90
aF8.88595
aI0
aI01
aI00
aI00
aI00
aI00
aI00
aI00
aI00
aa(lp91
I234378
aF117.42839999999998
aF84.8346
ag82
aS'utopia'
p92
aS'#656565'
p93
aF8.88595
aI0
aI00
aI00
aI00
aI00
aI00
aI00
aI00
aI00
aa(lp94
I158280
aF129.0684
aF84.8346
ag82
aS'utopia'
p95
aS'#656565'
p96
aF8.88595
aI0
aI01
aI00
aI00
aI00
aI00
aI00
aI00
aI00
aa(lp97
I234378
aF149.761
aF84.8346
aVp1
p98
aS'utopia'
p99
aS'#656565'
p100
aF8.88595
aI0
aI01
aI01
aI00
aI00
aI00
aI00
aI00
aI00
aa(lp101
I234378
aF157.85196
aF84.8346
ag98
aS'utopia'
p102
aS'#656565'
p103
aF8.88595
aI0
aI00
aI00
aI00
aI00
aI00
aI00
aI00
aI00
aa(lp104
I165851
aF161.89744
aF84.8346
ag98
aS'utopia'
p105
aS'#656565'
p106
aF8.88595
aI0
aI01
aI00
aI00
aI00
aI00
aI00
aI00
aI00
aa(lp107
I234378
aF192.71
aF84.8346
aVp1
p108
aS'utopia'
p109
aS'#656565'
p110
aF8.88595
aI0
aI01
aI01
aI00
aI00
aI00
aI00
aI00
aI00
aa(lp111
I234378
aF59.4208
aF124.081
aVp1
p112
aS'utopia'
p113
aS'#0d75b4'
p114
aF8.88595
aI0
aI00
aI00
aI00
aI00
aI00
aI01
aI00
aI00
aa(lp115
I234378
aF301.563
aF124.081
aVp1
p116
aS'utopia'
p117
aS'#000000'
p118
aF8.88595
aI0
aI00
aI00
aI01
aI01
aI01
aI00
aI00
aI00
aa(lp119
I15548
aF55.7183
aF158.884
aVp1
p120
aS'utopia'
p121
aS'#878787'
p122
aF8.88595
aI0
aI01
aI00
aI00
aI00
aI00
aI00
aI00
aI00
aa(lp123
I104542
aF89.0407
aF158.884
aVp1
p124
aS'utopia'
p125
aS'#878787'
p126
aF8.88595
aI0
aI01
aI00
aI00
aI00
aI00
aI00
aI00
aI00
aa(lp127
I234378
aF133.94655
aF158.884
ag124
aS'utopia'
p128
aS'#878787'
p129
aF8.88595
aI0
aI00
aI00
aI00
aI00
aI00
aI00
aI00
aI00
aa(lp130
I149270
aF142.356
aF158.884
aVp1
p131
aS'utopia'
p132
aS'#000000'
p133
aF8.88595
aI0
aI01
aI00
aI00
aI00
aI00
aI00
aI00
aI00
aa(lp134
I175409
aF182.343
aF158.884
aVp1
p135
aS'utopia'
p136
aS'#000000'
p137
aF8.88595
aI0
aI01
aI00
aI00
aI00
aI00
aI00
aI00
aI00
aa(lp138
I16915
aF308.227
aF158.884
aVp1
p139
aS'utopia'
p140
aS'#878787'
p141
aF8.88595
aI0
aI01
aI00
aI00
aI00
aI00
aI00
aI00
aI00
aa(lp142
I60220
aF330.442
aF158.884
aVp1
p143
aS'utopia'
p144
aS'#878787'
p145
aF8.88595
aI0
aI01
aI00
aI00
aI00
aI00
aI00
aI00
aI00
aa(lp146
I234378
aF372.28409090909093
aF158.884
ag143
aS'utopia'
p147
aS'#878787'
p148
aF8.88595
aI0
aI00
aI00
aI00
aI00
aI00
aI00
aI00
aI00
aa(lp149
I234378
aF380.796
aF158.884
aVp1
p150
aS'utopia'
p151
aS'#000000'
p152
aF8.88595
aI0
aI00
aI00
aI01
aI01
aI00
aI00
aI00
aI00
aa(lp153
I91136
aF387.46
aF158.884
aVp1
p154
aS'utopia'
p155
aS'#000000'
p156
aF8.88595
aI0
aI01
aI00
aI00
aI00
aI00
aI00
aI00
aI00
aa(lp157
I234378
aF403.18559999999997
aF158.884
ag154
aS'utopia'
p158
aS'#000000'
p159
aF8.88595
aI0
aI00
aI00
aI00
aI00
aI00
aI00
aI00
aI00
aa(lp160
I59734
aF407.11699999999996
aF158.884
ag154
aS'utopia'
p161
aS'#000000'
p162
aF8.88595
aI0
aI00
aI00
aI00
aI00
aI00
aI00
aI00
aI00
aa(lp163
I234378
aF411.04839999999996
aF158.884
ag154
aS'utopia'
p164
aS'#000000'
p165
aF8.88595
aI0
aI00
aI00
aI00
aI00
aI00
aI00
aI00
aI00
aa(lp166
I234378
aF417.08
aF158.884
aVp1
p167
aS'utopia'
p168
aS'#000000'
p169
aF8.88595
aI0
aI00
aI00
aI01
aI01
aI00
aI00
aI00
aI00
aa(lp170
I63729
aF423.745
aF158.884
aVp1
p171
aS'utopia'
p172
aS'#000000'
p173
aF8.88595
aI0
aI01
aI00
aI00
aI00
aI00
aI00
aI00
aI00
aa(lp174
I234378
aF446.4985625
aF158.884
ag171
aS'utopia'
p175
aS'#000000'
p176
aF8.88595
aI0
aI00
aI00
aI00
aI00
aI00
aI00
aI00
aI00
aa(lp177
I59734
aF451.04927499999997
aF158.884
ag171
aS'utopia'
p178
aS'#000000'
p179
aF8.88595
aI0
aI00
aI00
aI00
aI00
aI00
aI00
aI00
aI00
aa(lp180
I234378
aF455.59998749999994
aF158.884
ag171
aS'utopia'
p181
aS'#000000'
p182
aF8.88595
aI0
aI00
aI00
aI00
aI00
aI00
aI00
aI00
aI00
aa(lp183
I15548
aF55.7183
aF176.656
aVp1
p184
aS'utopia'
p185
aS'#878787'
p186
aF8.88595
aI0
aI01
aI00
aI00
aI00
aI00
aI00
aI00
aI00
aa(lp187
I2006
aF89.0407
aF176.656
aVp1
p188
aS'utopia'
p189
aS'#878787'
p190
aF8.88595
aI0
aI01
aI00
aI00
aI00
aI00
aI00
aI00
aI00
aa(lp191
I234378
aF124.77815
aF176.656
ag188
aS'utopia'
p192
aS'#878787'
p193
aF8.88595
aI0
aI00
aI00
aI00
aI00
aI00
aI00
aI00
aI00
aa(lp194
I234378
aF134.211
aF176.656
aVp1
p195
aS'utopia'
p196
aS'#000000'
p197
aF8.88595
aI0
aI01
aI00
aI00
aI00
aI00
aI00
aI00
aI00
aa(lp198
I234378
aF169.755
aF176.656
aVp1
p199
aS'utopia'
p200
aS'#000000'
p201
aF8.88595
aI0
aI01
aI00
aI00
aI00
aI00
aI00
aI00
aI00
aa(lp202
I164802
aF203.818
aF176.656
aVp1
p203
aS'utopia'
p204
aS'#000000'
p205
aF8.88595
aI0
aI01
aI00
aI00
aI00
aI00
aI00
aI00
aI00
aa(lp206
I234378
aF226.032
aF176.656
aVp1
p207
aS'utopia'
p208
aS'#000000'
p209
aF8.88595
aI0
aI01
aI00
aI00
aI00
aI00
aI00
aI00
aI00
aa(lp210
I234378
aF240.842
aF176.656
aVp1
p211
aS'utopia'
p212
aS'#000000'
p213
aF8.88595
aI0
aI01
aI00
aI00
aI00
aI00
aI00
aI00
aI00
aa(lp214
I229300
aF308.227
aF176.656
aVp1
p215
aS'utopia'
p216
aS'#878787'
p217
aF8.88595
aI0
aI01
aI00
aI00
aI00
aI00
aI00
aI00
aI00
aa(lp218
I78894
aF338.588
aF176.656
aVp1
p219
aS'utopia'
p220
aS'#878787'
p221
aF8.88595
aI0
aI01
aI00
aI00
aI00
aI00
aI00
aI00
aI00
aa(lp222
I234378
aF360.9019142857143
aF176.656
ag219
aS'utopia'
p223
aS'#878787'
p224
aF8.88595
aI0
aI00
aI00
aI00
aI00
aI00
aI00
aI00
aI00
aa(lp225
I234378
aF368.948
aF176.656
aVp1
p226
aS'utopia'
p227
aS'#000000'
p228
aF8.88595
aI0
aI01
aI00
aI00
aI00
aI00
aI00
aI00
aI00
aa(lp229
I234378
aF380.796
aF176.656
aVp1
p230
aS'utopia'
p231
aS'#000000'
p232
aF8.88595
aI0
aI00
aI00
aI01
aI01
aI01
aI00
aI00
aI00
aa(lp233
I234378
aF391.903
aF176.656
aVp1
p234
aS'utopia'
p235
aS'#000000'
p236
aF8.88595
aI0
aI01
aI00
aI00
aI00
aI00
aI00
aI00
aI00
aa(lp237
I15548
aF55.7183
aF194.428
aVp1
p238
aS'utopia'
p239
aS'#878787'
p240
aF8.88595
aI0
aI01
aI00
aI00
aI00
aI00
aI00
aI00
aI00
aa(lp241
I17057
aF89.0407
aF194.428
aVp1
p242
aS'utopia'
p243
aS'#878787'
p244
aF8.88595
aI0
aI01
aI00
aI00
aI00
aI00
aI00
aI00
aI00
aa(lp245
I234378
aF122.05430000000001
aF194.428
ag242
aS'utopia'
p246
aS'#878787'
p247
aF8.88595
aI0
aI00
aI00
aI00
aI00
aI00
aI00
aI00
aI00
aa(lp248
I234378
aF130.508
aF194.428
aVp1
p249
aS'utopia'
p250
aS'#000000'
p251
aF8.88595
aI0
aI01
aI00
aI00
aI00
aI00
aI00
aI00
aI00
aa(lp252
I234378
aF173.457
aF194.428
aVp1
p253
aS'utopia'
p254
aS'#000000'
p255
aF8.88595
aI0
aI00
aI00
aI00
aI00
aI00
aI00
aI00
aI00
aa(lp256
I234378
aF180.122
aF194.428
aVp1
p257
aS'utopia'
p258
aS'#000000'
p259
aF8.88595
aI0
aI01
aI00
aI00
aI00
aI00
aI00
aI00
aI00
aa(lp260
I234378
aF308.227
aF194.428
aVp1
p261
aS'utopia'
p262
aS'#878787'
p263
aF8.88595
aI0
aI01
aI00
aI00
aI00
aI00
aI00
aI00
aI00
aa(lp264
I234378
aF346.733
aF194.428
aVp1
p265
aS'utopia'
p266
aS'#878787'
p267
aF8.88595
aI0
aI01
aI01
aI00
aI00
aI00
aI00
aI00
aI00
aa(lp268
I234378
aF361.2593
aF194.428
ag265
aS'utopia'
p269
aS'#878787'
p270
aF8.88595
aI0
aI00
aI00
aI00
aI00
aI00
aI00
aI00
aI00
aa(lp271
I63091
aF370.429
aF194.428
aVp1
p272
aS'utopia'
p273
aS'#000000'
p274
aF8.88595
aI0
aI01
aI00
aI00
aI00
aI00
aI00
aI00
aI00
aa(lp275
I234378
aF387.46
aF194.428
aVp1
p276
aS'utopia'
p277
aS'#000000'
p278
aF8.88595
aI0
aI01
aI00
aI00
aI00
aI00
aI00
aI00
aI00
aa(lp279
I234378
aF55.7183
aF212.2
aVp1
p280
aS'utopia'
p281
aS'#878787'
p282
aF8.88595
aI0
aI01
aI00
aI00
aI00
aI00
aI00
aI00
aI00
aa(lp283
I234378
aF70.62062
aF212.2
ag280
aS'utopia'
p284
aS'#878787'
p285
aF8.88595
aI0
aI00
aI00
aI00
aI00
aI00
aI00
aI00
aI00
aa(lp286
I17057
aF76.4522
aF212.2
aVp1
p287
aS'utopia'
p288
aS'#878787'
p289
aF8.88595
aI0
aI01
aI00
aI00
aI00
aI00
aI00
aI00
aI00
aa(lp290
I234378
aF109.4658
aF212.2
ag287
aS'utopia'
p291
aS'#878787'
p292
aF8.88595
aI0
aI00
aI00
aI00
aI00
aI00
aI00
aI00
aI00
aa(lp293
I234378
aF117.92
aF212.2
aVp1
p294
aS'utopia'
p295
aS'#000000'
p296
aF8.88595
aI0
aI01
aI00
aI00
aI00
aI00
aI00
aI00
aI00
aa(lp297
I234378
aF160.869
aF212.2
aVp1
p298
aS'utopia'
p299
aS'#000000'
p300
aF8.88595
aI0
aI00
aI00
aI00
aI00
aI00
aI00
aI00
aI00
aa(lp301
I234378
aF167.533
aF212.2
aVp1
p302
aS'utopia'
p303
aS'#000000'
p304
aF8.88595
aI0
aI01
aI00
aI00
aI00
aI00
aI00
aI00
aI00
aa(lp305
I234378
aF205.62442
aF212.2
ag302
aS'utopia'
p306
aS'#000000'
p307
aF8.88595
aI0
aI00
aI00
aI00
aI00
aI00
aI00
aI00
aI00
aa(lp308
I234378
aF211.963
aF212.2
aVp1
p309
aS'utopia'
p310
aS'#000000'
p311
aF8.88595
aI0
aI01
aI00
aI00
aI00
aI00
aI00
aI00
aI00
aa(lp312
I7204
aF308.227
aF212.2
aVp1
p313
aS'utopia'
p314
aS'#878787'
p315
aF8.88595
aI0
aI01
aI00
aI00
aI00
aI00
aI00
aI00
aI00
aa(lp316
I189220
aF340.809
aF212.2
aVp1
p317
aS'utopia'
p318
aS'#878787'
p319
aF8.88595
aI0
aI01
aI00
aI00
aI00
aI00
aI00
aI00
aI00
aa(lp320
I234378
aF366.93111428571433
aF212.2
ag317
aS'utopia'
p321
aS'#878787'
p322
aF8.88595
aI0
aI00
aI00
aI00
aI00
aI00
aI00
aI00
aI00
aa(lp323
I27780
aF375.613
aF212.2
aVp1
p324
aS'utopia'
p325
aS'#000000'
p326
aF8.88595
aI0
aI01
aI01
aI00
aI00
aI00
aI00
aI00
aI00
aa(lp327
I234378
aF379.93184545454545
aF212.2
ag324
aS'utopia'
p328
aS'#000000'
p329
aF8.88595
aI0
aI00
aI00
aI00
aI00
aI00
aI00
aI00
aI00
aa(lp330
I2737
aF384.2506909090909
aF212.2
ag324
aS'utopia'
p331
aS'#000000'
p332
aF8.88595
aI0
aI01
aI00
aI00
aI00
aI00
aI00
aI00
aI00
aa(lp333
I234378
aF401.5260727272727
aF212.2
ag324
aS'utopia'
p334
aS'#000000'
p335
aF8.88595
aI0
aI00
aI00
aI00
aI00
aI00
aI00
aI00
aI00
aa(lp336
I27780
aF398.8449181818182
aF212.2
ag324
aS'utopia'
p337
aS'#000000'
p338
aF8.88595
aI0
aI01
aI01
aI00
aI00
aI00
aI00
aI00
aI00
aa(lp339
I234378
aF403.1637636363636
aF212.2
ag324
aS'utopia'
p340
aS'#000000'
p341
aF8.88595
aI0
aI00
aI00
aI00
aI00
aI00
aI00
aI00
aI00
aa(lp342
I64620
aF414.4826090909091
aF212.2
ag324
aS'utopia'
p343
aS'#000000'
p344
aF8.88595
aI0
aI01
aI01
aI00
aI00
aI00
aI00
aI00
aI00
aa(lp345
I234378
aF409.80145454545453
aF212.2
ag324
aS'utopia'
p346
aS'#000000'
p347
aF8.88595
aI0
aI00
aI00
aI00
aI00
aI00
aI00
aI00
aI00
aa(lp348
I98580
aF55.7183
aF229.972
aVp1
p349
aS'utopia'
p350
aS'#878787'
p351
aF8.88595
aI0
aI01
aI00
aI00
aI00
aI00
aI00
aI00
aI00
aa(lp352
I166289
aF100.148
aF229.972
aVp1
p353
aS'utopia'
p354
aS'#878787'
p355
aF8.88595
aI0
aI01
aI00
aI00
aI00
aI00
aI00
aI00
aI00
aa(lp356
I234378
aF116.82751999999999
aF229.972
ag353
aS'utopia'
p357
aS'#878787'
p358
aF8.88595
aI0
aI00
aI00
aI00
aI00
aI00
aI00
aI00
aI00
aa(lp359
I22476
aF125.325
aF229.972
aVp1
p360
aS'utopia'
p361
aS'#000000'
p362
aF8.88595
aI0
aI01
aI01
aI00
aI00
aI00
aI00
aI00
aI00
aa(lp363
I234378
aF135.692
aF229.972
aVp1
p364
aS'utopia'
p365
aS'#000000'
p366
aF8.88595
aI0
aI01
aI00
aI00
aI00
aI00
aI00
aI00
aI00
aa(lp367
I123665
aF178.641
aF229.972
aVp1
p368
aS'utopia'
p369
aS'#000000'
p370
aF8.88595
aI0
aI01
aI00
aI00
aI00
aI00
aI00
aI00
aI00
aa(lp371
I234378
aF226.032
aF229.972
aVp1
p372
aS'utopia'
p373
aS'#000000'
p374
aF8.88595
aI0
aI01
aI00
aI00
aI00
aI00
aI00
aI00
aI00
aa(lp375
I234378
aF283.051
aF229.972
aVp1
p376
aS'utopia'
p377
aS'#000000'
p378
aF8.88595
aI0
aI00
aI00
aI00
aI00
aI00
aI00
aI00
aI00
aa(lp379
I20593
aF55.7183
aF240.339
aVp1
p380
aS'utopia'
p381
aS'#000000'
p382
aF8.88595
aI0
aI01
aI00
aI00
aI00
aI00
aI00
aI00
aI00
aa(lp383
I48671
aF308.227
aF229.972
aVp1
p384
aS'utopia'
p385
aS'#878787'
p386
aF8.88595
aI0
aI01
aI00
aI00
aI00
aI00
aI00
aI00
aI00
aa(lp387
I129688
aF336.366
aF229.972
aVp1
p388
aS'utopia'
p389
aS'#878787'
p390
aF8.88595
aI0
aI00
aI00
aI00
aI00
aI00
aI00
aI00
aI00
aa(lp391
I234378
aF360.58405714285715
aF229.972
ag388
aS'utopia'
p392
aS'#878787'
p393
aF8.88595
aI0
aI00
aI00
aI00
aI00
aI00
aI00
aI00
aI00
aa(lp394
I234378
aF368.948
aF229.972
aVp1
p395
aS'utopia'
p396
aS'#000000'
p397
aF8.88595
aI0
aI00
aI00
aI01
aI01
aI00
aI00
aI00
aI00
aa(lp398
I234378
aF375.613
aF229.972
aVp1
p399
aS'utopia'
p400
aS'#000000'
p401
aF8.88595
aI0
aI01
aI00
aI00
aI00
aI00
aI00
aI00
aI00
aa(lp402
I176435
aF55.7183
aF258.111
aVp1
p403
aS'utopia'
p404
aS'#878787'
p405
aF8.88595
aI0
aI01
aI00
aI00
aI00
aI00
aI00
aI00
aI00
aa(lp406
I234378
aF71.80542
aF258.111
ag403
aS'utopia'
p407
aS'#878787'
p408
aF8.88595
aI0
aI00
aI00
aI00
aI00
aI00
aI00
aI00
aI00
aa(lp409
I210461
aF80.1547
aF258.111
aVp1
p410
aS'utopia'
p411
aS'#000000'
p412
aF8.88595
aI0
aI01
aI00
aI00
aI00
aI00
aI00
aI00
aI00
aa(lp413
I175409
aF104.591
aF258.111
aVp1
p414
aS'utopia'
p415
aS'#000000'
p416
aF8.88595
aI0
aI01
aI00
aI00
aI00
aI00
aI00
aI00
aI00
aa(lp417
I234378
aF123.75304444444444
aF258.111
ag414
aS'utopia'
p418
aS'#000000'
p419
aF8.88595
aI0
aI00
aI00
aI00
aI00
aI00
aI00
aI00
aI00
aa(lp420
I2737
aF128.54355555555554
aF258.111
ag414
aS'utopia'
p421
aS'#000000'
p422
aF8.88595
aI0
aI01
aI00
aI00
aI00
aI00
aI00
aI00
aI00
aa(lp423
I175409
aF149.761
aF258.111
aVp1
p424
aS'utopia'
p425
aS'#000000'
p426
aF8.88595
aI0
aI01
aI00
aI00
aI00
aI00
aI00
aI00
aI00
aa(lp427
I74589
aF55.7183
aF275.883
aVp1
p428
aS'utopia'
p429
aS'#878787'
p430
aF8.88595
aI0
aI01
aI00
aI00
aI00
aI00
aI00
aI00
aI00
aa(lp431
I234378
aF87.41545555555555
aF275.883
ag428
aS'utopia'
p432
aS'#878787'
p433
aF8.88595
aI0
aI00
aI00
aI00
aI00
aI00
aI00
aI00
aI00
aa(lp434
I22476
aF95.7051
aF275.883
aVp1
p435
aS'utopia'
p436
aS'#000000'
p437
aF8.88595
aI0
aI01
aI01
aI00
aI00
aI00
aI00
aI00
aI00
aa(lp438
I234378
aF105.30374
aF275.883
ag435
aS'utopia'
p439
aS'#000000'
p440
aF8.88595
aI0
aI01
aI00
aI00
aI00
aI00
aI00
aI00
aI00
aa(lp441
I234378
aF139.69830000000002
aF275.883
ag435
aS'utopia'
p442
aS'#000000'
p443
aF8.88595
aI0
aI00
aI00
aI00
aI00
aI00
aI00
aI00
aI00
aa(lp444
I234378
aF134.99762
aF275.883
ag435
aS'utopia'
p445
aS'#000000'
p446
aF8.88595
aI0
aI01
aI00
aI00
aI00
aI00
aI00
aI00
aI00
aa(lp447
I234378
aF183.824
aF275.883
aVp1
p448
aS'utopia'
p449
aS'#000000'
p450
aF8.88595
aI0
aI01
aI00
aI00
aI00
aI00
aI00
aI00
aI00
aa(lp451
I231013
aF55.7183
aF293.654
aVp1
p452
aS'utopia'
p453
aS'#878787'
p454
aF8.88595
aI0
aI01
aI00
aI00
aI00
aI00
aI00
aI00
aI00
aa(lp455
I234378
aF72.7498
aF293.654
aVp1
p456
aS'utopia'
p457
aS'#878787'
p458
aF8.88595
aI0
aI01
aI00
aI00
aI00
aI00
aI00
aI00
aI00
aa(lp459
I234378
aF91.25542857142857
aF293.654
ag456
aS'utopia'
p460
aS'#878787'
p461
aF8.88595
aI0
aI00
aI00
aI00
aI00
aI00
aI00
aI00
aI00
aa(lp462
I21716
aF98.6671
aF293.654
aVp1
p463
aS'utopia'
p464
aS'#000000'
p465
aF8.88595
aI0
aI01
aI00
aI00
aI00
aI00
aI00
aI00
aI00
aa(lp466
I234378
aF113.56942000000001
aF293.654
ag463
aS'utopia'
p467
aS'#000000'
p468
aF8.88595
aI0
aI00
aI00
aI00
aI00
aI00
aI00
aI00
aI00
aa(lp469
I234378
aF119.401
aF293.654
aVp1
p470
aS'utopia'
p471
aS'#000000'
p472
aF8.88595
aI0
aI01
aI01
aI01
aI00
aI00
aI00
aI00
aI00
aa(lp473
I234378
aF135.48811999999998
aF293.654
ag470
aS'utopia'
p474
aS'#000000'
p475
aF8.88595
aI0
aI00
aI00
aI00
aI00
aI00
aI00
aI00
aI00
aa(lp476
I234378
aF141.616
aF293.654
aVp1
p477
aS'utopia'
p478
aS'#000000'
p479
aF8.88595
aI0
aI01
aI01
aI00
aI00
aI00
aI00
aI00
aI00
aa(lp480
I234378
aF152.81005000000002
aF293.654
ag477
aS'utopia'
p481
aS'#000000'
p482
aF8.88595
aI0
aI00
aI00
aI00
aI00
aI00
aI00
aI00
aI00
aa(lp483
I234378
aF158.647
aF293.654
aVp1
p484
aS'utopia'
p485
aS'#000000'
p486
aF8.88595
aI0
aI01
aI00
aI00
aI00
aI00
aI00
aI00
aI00
aa(lp487
I234378
aF180.3262
aF293.654
ag484
aS'utopia'
p488
aS'#000000'
p489
aF8.88595
aI0
aI00
aI00
aI00
aI00
aI00
aI00
aI00
aI00
aa(lp490
I148996
aF186.046
aF293.654
aVp1
p491
aS'utopia'
p492
aS'#000000'
p493
aF8.88595
aI0
aI01
aI00
aI00
aI00
aI00
aI00
aI00
aI00
aa(lp494
I234378
aF209.62934285714286
aF293.654
ag491
aS'utopia'
p495
aS'#000000'
p496
aF8.88595
aI0
aI00
aI00
aI00
aI00
aI00
aI00
aI00
aI00
aa(lp497
I176767
aF215.665
aF293.654
aVp1
p498
aS'utopia'
p499
aS'#000000'
p500
aF8.88595
aI0
aI01
aI00
aI00
aI00
aI00
aI00
aI00
aI00
aa(lp501
I234378
aF253.75642
aF293.654
ag498
aS'utopia'
p502
aS'#000000'
p503
aF8.88595
aI0
aI00
aI00
aI00
aI00
aI00
aI00
aI00
aI00
aa(lp504
I17350
aF260.095
aF293.654
aVp1
p505
aS'utopia'
p506
aS'#000000'
p507
aF8.88595
aI0
aI01
aI00
aI00
aI00
aI00
aI00
aI00
aI00
aa(lp508
I234378
aF55.7183
aF304.021
aVp1
p509
aS'utopia'
p510
aS'#000000'
p511
aF8.88595
aI0
aI01
aI00
aI00
aI00
aI00
aI00
aI00
aI00
aa(lp512
I234378
aF86.09901111111111
aF304.021
ag509
aS'utopia'
p513
aS'#000000'
p514
aF8.88595
aI0
aI00
aI00
aI00
aI00
aI00
aI00
aI00
aI00
aa(lp515
I234378
aF92.0026
aF304.021
aVp1
p516
aS'utopia'
p517
aS'#000000'
p518
aF8.88595
aI0
aI01
aI00
aI00
aI00
aI00
aI00
aI00
aI00
aa(lp519
I234378
aF113.86513124999999
aF304.021
ag516
aS'utopia'
p520
aS'#000000'
p521
aF8.88595
aI0
aI01
aI00
aI00
aI00
aI00
aI00
aI00
aI00
aa(lp522
I234378
aF151.4176875
aF304.021
ag516
aS'utopia'
p523
aS'#000000'
p524
aF8.88595
aI0
aI00
aI00
aI00
aI00
aI00
aI00
aI00
aI00
aa(lp525
I21716
aF160.869
aF304.021
aVp1
p526
aS'utopia'
p527
aS'#000000'
p528
aF8.88595
aI0
aI01
aI00
aI00
aI00
aI00
aI00
aI00
aI00
aa(lp529
I115769
aF179.381
aF304.021
aVp1
p530
aS'utopia'
p531
aS'#000000'
p532
aF8.88595
aI0
aI01
aI00
aI00
aI00
aI00
aI00
aI00
aI00
aa(lp533
I68032
aF227.513
aF304.021
aVp1
p534
aS'utopia'
p535
aS'#000000'
p536
aF8.88595
aI0
aI01
aI00
aI00
aI00
aI00
aI00
aI00
aI00
aa(lp537
I234378
aF278.527975
aF304.021
ag534
aS'utopia'
p538
aS'#000000'
p539
aF8.88595
aI0
aI00
aI00
aI00
aI00
aI00
aI00
aI00
aI00
aa(lp540
I21716
aF285.272
aF304.021
aVp1
p541
aS'utopia'
p542
aS'#000000'
p543
aF8.88595
aI0
aI01
aI00
aI00
aI00
aI00
aI00
aI00
aI00
aa(lp544
I115862
aF55.7183
aF314.388
aVp1
p545
aS'utopia'
p546
aS'#000000'
p547
aF8.88595
aI0
aI01
aI00
aI00
aI00
aI00
aI00
aI00
aI00
aa(lp548
I234378
aF77.39750000000001
aF314.388
ag545
aS'utopia'
p549
aS'#000000'
p550
aF8.88595
aI0
aI00
aI00
aI00
aI00
aI00
aI00
aI00
aI00
aa(lp551
I165851
aF83.1167
aF314.388
aVp1
p552
aS'utopia'
p553
aS'#000000'
p554
aF8.88595
aI0
aI01
aI00
aI00
aI00
aI00
aI00
aI00
aI00
aa(lp555
I234378
aF116.439
aF314.388
aVp1
p556
aS'utopia'
p557
aS'#000000'
p558
aF8.88595
aI0
aI01
aI01
aI00
aI00
aI00
aI00
aI00
aI00
aa(lp559
I51933
aF40.1679
aF351.431
aVp1
p560
aS'utopia'
p561
aS'#02304b'
p562
aF11.8479
aI1
aI01
aI00
aI00
aI00
aI00
aI00
aI00
aI00
aa(lp563
I60220
aF72.0093
aF351.431
aVp1
p564
aS'utopia'
p565
aS'#02304b'
p566
aF11.8479
aI1
aI01
aI00
aI00
aI00
aI00
aI00
aI00
aI00
aa(lp567
I234378
aF40.9084
aF383.148
aVp1
p568
aS'utopia'
p569
aS'#000000'
p570
aF10.3669
aI1
aI01
aI00
aI00
aI00
aI00
aI00
aI00
aI00
aa(lp571
I234378
aF83.8572
aF383.148
aVp1
p572
aS'utopia'
p573
aS'#000000'
p574
aF10.3669
aI1
aI01
aI00
aI00
aI00
aI00
aI00
aI00
aI00
aa(lp575
I164802
aF124.584
aF383.148
aVp1
p576
aS'utopia'
p577
aS'#000000'
p578
aF10.3669
aI1
aI01
aI00
aI00
aI00
aI00
aI00
aI00
aI00
aa(lp579
I234378
aF151.983
aF383.148
aVp1
p580
aS'utopia'
p581
aS'#000000'
p582
aF10.3669
aI1
aI01
aI00
aI00
aI00
aI00
aI00
aI00
aI00
aa(lp583
I234378
aF169.755
aF383.148
aVp1
p584
aS'utopia'
p585
aS'#000000'
p586
aF10.3669
aI1
aI01
aI00
aI00
aI00
aI00
aI00
aI00
aI00
aa(lp587
I234378
aF187.527
aF383.417
aVp1
p588
aS'utopia'
p589
aS'#656565'
p590
aF10.3669
aI0
aI00
aI00
aI00
aI00
aI00
aI00
aI00
aI00
aa(lp591
I15548
aF192.504425
aF383.417
ag588
aS'utopia'
p592
aS'#656565'
p593
aF10.3669
aI0
aI01
aI00
aI00
aI00
aI00
aI00
aI00
aI00
aa(lp594
I70289
aF229.735
aF383.417
aVp1
p595
aS'utopia'
p596
aS'#656565'
p597
aF10.3669
aI0
aI01
aI00
aI00
aI00
aI00
aI00
aI00
aI00
aa(lp598
I234378
aF273.0839777777778
aF383.417
ag595
aS'utopia'
p599
aS'#656565'
p600
aF10.3669
aI0
aI00
aI00
aI00
aI00
aI00
aI00
aI00
aI00
aa(lp601
I149270
aF40.9084
aF399.708
aVp1
p602
aS'utopia'
p603
aS'#656565'
p604
aF10.3669
aI0
aI01
aI00
aI00
aI00
aI00
aI00
aI00
aI00
aa(lp605
I175409
aF89.7812
aF399.708
aVp1
p606
aS'utopia'
p607
aS'#656565'
p608
aF10.3669
aI0
aI01
aI00
aI00
aI00
aI00
aI00
aI00
aI00
aa(lp609
I234378
aF118.66
aF399.708
aVp1
p610
aS'utopia'
p611
aS'#656565'
p612
aF10.3669
aI0
aI01
aI00
aI00
aI00
aI00
aI00
aI00
aI01
aa(lp613
I234378
aF140.135
aF399.708
aVp1
p614
aS'utopia'
p615
aS'#656565'
p616
aF10.3669
aI0
aI00
aI00
aI01
aI01
aI01
aI00
aI00
aI00
aa(lp617
I234378
aF40.9084
aF419.539
aVp1
p618
aS'utopia'
p619
aS'#656565'
p620
aF8.88595
aI0
aI01
aI00
aI00
aI00
aI00
aI00
aI00
aI00
aa(lp621
I234378
aF76.4522
aF419.539
aVp1
p622
aS'utopia'
p623
aS'#656565'
p624
aF8.88595
aI0
aI01
aI00
aI00
aI00
aI00
aI00
aI00
aI00
aa(lp625
I234378
aF106.35821250000001
aF419.539
ag622
aS'utopia'
p626
aS'#656565'
p627
aF8.88595
aI0
aI00
aI00
aI00
aI00
aI00
aI00
aI00
aI00
aa(lp628
I234378
aF112.737
aF419.539
aVp1
p629
aS'utopia'
p630
aS'#656565'
p631
aF8.88595
aI0
aI01
aI00
aI00
aI00
aI00
aI00
aI00
aI00
aa(lp632
I234378
aF150.82842
aF419.539
ag629
aS'utopia'
p633
aS'#656565'
p634
aF8.88595
aI0
aI00
aI00
aI00
aI00
aI00
aI00
aI00
aI00
aa(lp635
I63022
aF157.166
aF419.539
aVp1
p636
aS'utopia'
p637
aS'#656565'
p638
aF8.88595
aI0
aI01
aI00
aI00
aI00
aI00
aI00
aI00
aI00
aa(lp639
I199937
aF191.229
aF419.539
aVp1
p640
aS'utopia'
p641
aS'#656565'
p642
aF8.88595
aI0
aI01
aI00
aI00
aI00
aI00
aI00
aI00
aI00
aa(lp643
I183995
aF240.102
aF419.539
aVp1
p644
aS'utopia'
p645
aS'#656565'
p646
aF8.88595
aI0
aI01
aI00
aI00
aI00
aI00
aI00
aI00
aI00
aa(lp647
I234378
aF268.241
aF419.539
aVp1
p648
aS'utopia'
p649
aS'#656565'
p650
aF8.88595
aI0
aI00
aI00
aI00
aI00
aI00
aI00
aI00
aI00
aa(lp651
I24391
aF272.85636
aF419.539
ag648
aS'utopia'
p652
aS'#656565'
p653
aF8.88595
aI0
aI01
aI01
aI00
aI00
aI00
aI00
aI00
aI00
aa(lp654
I234378
aF286.70244
aF419.539
ag648
aS'utopia'
p655
aS'#656565'
p656
aF8.88595
aI0
aI00
aI00
aI00
aI00
aI00
aI00
aI00
aI00
aa(lp657
I234378
aF293.418
aF419.539
aVp1
p658
aS'utopia'
p659
aS'#656565'
p660
aF8.88595
aI0
aI00
aI00
aI00
aI00
aI00
aI00
aI00
aI00
aa(lp661
I61519
aF297.373725
aF419.539
ag658
aS'utopia'
p662
aS'#656565'
p663
aF8.88595
aI0
aI01
aI00
aI00
aI00
aI00
aI00
aI00
aI01
aa(lp664
I234378
aF311.189
aF419.539
aVp1
p665
aS'utopia'
p666
aS'#656565'
p667
aF8.88595
aI0
aI00
aI00
aI01
aI01
aI01
aI00
aI00
aI00
aa(lp668
I89480
aF331.183
aF419.539
aVp1
p669
aS'utopia'
p670
aS'#656565'
p671
aF8.88595
aI0
aI00
aI00
aI00
aI00
aI00
aI00
aI00
aI00
aa(lp672
I36403
aF341.55
aF419.539
aVp1
p673
aS'utopia'
p674
aS'#656565'
p675
aF8.88595
aI0
aI01
aI00
aI00
aI00
aI00
aI00
aI00
aI00
aa(lp676
I146261
aF355.619
aF419.539
aVp1
p677
aS'utopia'
p678
aS'#656565'
p679
aF8.88595
aI0
aI01
aI00
aI00
aI00
aI00
aI00
aI00
aI00
aa(lp680
I234378
aF371.81585
aF419.539
ag677
aS'utopia'
p681
aS'#656565'
p682
aF8.88595
aI0
aI00
aI00
aI00
aI00
aI00
aI00
aI00
aI00
aa(lp683
I176435
aF379.315
aF419.539
aVp1
p684
aS'utopia'
p685
aS'#656565'
p686
aF8.88595
aI0
aI01
aI00
aI00
aI00
aI00
aI00
aI00
aI00
aa(lp687
I234378
aF395.40211999999997
aF419.539
ag684
aS'utopia'
p688
aS'#656565'
p689
aF8.88595
aI0
aI00
aI00
aI00
aI00
aI00
aI00
aI00
aI00
aa(lp690
I2737
aF401.53
aF419.539
aVp1
p691
aS'utopia'
p692
aS'#656565'
p693
aF8.88595
aI0
aI01
aI00
aI00
aI00
aI00
aI00
aI00
aI00
aa(lp694
I175409
aF423.004
aF419.539
aVp1
p695
aS'utopia'
p696
aS'#656565'
p697
aF8.88595
aI0
aI00
aI00
aI00
aI00
aI00
aI00
aI00
aI00
aa(lp698
I234378
aF441.517
aF419.539
aVp1
p699
aS'utopia'
p700
aS'#656565'
p701
aF8.88595
aI0
aI01
aI00
aI00
aI00
aI00
aI00
aI00
aI00
aa(lp702
I234378
aF504.459
aF419.539
aVp1
p703
aS'utopia'
p704
aS'#656565'
p705
aF8.88595
aI0
aI00
aI00
aI00
aI00
aI00
aI00
aI00
aI00
aa(lp706
I101862
aF510.383
aF419.539
aVp1
p707
aS'utopia'
p708
aS'#656565'
p709
aF8.88595
aI0
aI01
aI00
aI00
aI00
aI00
aI00
aI00
aI00
aa(lp710
I149270
aF40.9084
aF429.906
aVp1
p711
aS'utopia'
p712
aS'#656565'
p713
aF8.88595
aI0
aI00
aI00
aI00
aI00
aI00
aI00
aI00
aI00
aa(lp714
I12448
aF78.6737
aF429.906
aVp1
p715
aS'utopia'
p716
aS'#656565'
p717
aF8.88595
aI0
aI00
aI00
aI00
aI00
aI00
aI00
aI00
aI00
aa(lp718
I85218
aF116.439
aF429.906
aVp1
p719
aS'utopia'
p720
aS'#656565'
p721
aF8.88595
aI0
aI00
aI00
aI00
aI00
aI00
aI00
aI00
aI00
aa(lp722
I234378
aF133.47
aF429.906
aVp1
p723
aS'utopia'
p724
aS'#656565'
p725
aF8.88595
aI0
aI00
aI00
aI00
aI00
aI00
aI00
aI00
aI00
aa(lp726
I234378
aF173.457
aF429.906
aVp1
p727
aS'utopia'
p728
aS'#656565'
p729
aF8.88595
aI0
aI00
aI00
aI00
aI00
aI00
aI00
aI00
aI00
aa(lp730
I234378
aF212.703
aF429.906
aVp1
p731
aS'utopia'
p732
aS'#656565'
p733
aF8.88595
aI0
aI00
aI00
aI00
aI00
aI00
aI00
aI00
aI00
aa(lp734
I89480
aF264.538
aF429.906
aVp1
p735
aS'utopia'
p736
aS'#656565'
p737
aF8.88595
aI0
aI00
aI00
aI00
aI00
aI00
aI00
aI00
aI00
aa(lp738
I123861
aF274.905
aF429.906
aVp1
p739
aS'utopia'
p740
aS'#656565'
p741
aF8.88595
aI0
aI00
aI00
aI00
aI00
aI00
aI00
aI00
aI00
aa(lp742
I13542
aF297.12
aF429.906
aVp1
p743
aS'utopia'
p744
aS'#656565'
p745
aF8.88595
aI0
aI00
aI00
aI00
aI00
aI00
aI00
aI00
aI00
aa(lp746
I85218
aF316.373
aF429.906
aVp1
p747
aS'utopia'
p748
aS'#656565'
p749
aF8.88595
aI0
aI00
aI00
aI00
aI00
aI00
aI00
aI00
aI00
aa(lp750
I188458
aF333.404
aF429.906
aVp1
p751
aS'utopia'
p752
aS'#656565'
p753
aF8.88595
aI0
aI00
aI00
aI00
aI00
aI00
aI00
aI00
aI00
aa(lp754
I164740
aF356.2412
aF429.906
ag751
aS'utopia'
p755
aS'#656565'
p756
aF8.88595
aI0
aI00
aI00
aI00
aI00
aI00
aI00
aI00
aI00
aa(lp757
I166245
aF379.315
aF429.906
aVp1
p758
aS'utopia'
p759
aS'#656565'
p760
aF8.88595
aI0
aI00
aI00
aI00
aI00
aI00
aI00
aI00
aI00
aa(lp761
I234378
aF414.859
aF429.906
aVp1
p762
aS'utopia'
p763
aS'#656565'
p764
aF8.88595
aI0
aI00
aI00
aI00
aI00
aI00
aI00
aI00
aI00
aa(lp765
I234378
aF452.662
aF429.906
ag762
aS'utopia'
p766
aS'#656565'
p767
aF8.88595
aI0
aI00
aI00
aI00
aI00
aI00
aI00
aI00
aI00
aa(lp768
I234378
aF458.548
aF429.906
aVp1
p769
aS'utopia'
p770
aS'#656565'
p771
aF8.88595
aI0
aI00
aI00
aI00
aI00
aI00
aI00
aI00
aI00
aa(lp772
I234378
aF464.472
aF429.906
aVp1
p773
aS'utopia'
p774
aS'#656565'
p775
aF8.88595
aI0
aI01
aI00
aI00
aI00
aI00
aI00
aI00
aI00
aa(lp776
I234378
aF497.794
aF429.906
aVp1
p777
aS'utopia'
p778
aS'#656565'
p779
aF8.88595
aI0
aI00
aI00
aI00
aI00
aI00
aI00
aI00
aI00
aa(lp780
I234378
aF538.9629090909091
aF429.906
ag777
aS'utopia'
p781
aS'#656565'
p782
aF8.88595
aI0
aI00
aI00
aI00
aI00
aI00
aI00
aI00
aI00
aa(lp783
I144690
aF40.9084
aF440.273
aVp1
p784
aS'utopia'
p785
aS'#656565'
p786
aF8.88595
aI0
aI00
aI00
aI00
aI00
aI00
aI00
aI00
aI00
aa(lp787
I234378
aF68.3068
aF440.273
aVp1
p788
aS'utopia'
p789
aS'#656565'
p790
aF8.88595
aI0
aI00
aI00
aI00
aI00
aI00
aI00
aI00
aI00
aa(lp791
I234378
aF99.34573333333333
aF440.273
ag788
aS'utopia'
p792
aS'#656565'
p793
aF8.88595
aI0
aI00
aI00
aI00
aI00
aI00
aI00
aI00
aI00
aa(lp794
I100815
aF105.332
aF440.273
aVp1
p795
aS'utopia'
p796
aS'#656565'
p797
aF8.88595
aI0
aI00
aI00
aI00
aI00
aI00
aI00
aI00
aI00
aa(lp798
I59734
aF143.40823636363635
aF440.273
ag795
aS'utopia'
p799
aS'#656565'
p800
aF8.88595
aI0
aI00
aI00
aI00
aI00
aI00
aI00
aI00
aI00
aa(lp801
I234378
aF152.723
aF440.273
aVp1
p802
aS'utopia'
p803
aS'#656565'
p804
aF8.88595
aI0
aI00
aI00
aI00
aI00
aI00
aI00
aI00
aI00
aa(lp805
I234378
aF183.9248875
aF440.273
ag802
aS'utopia'
p806
aS'#656565'
p807
aF8.88595
aI0
aI00
aI00
aI00
aI00
aI00
aI00
aI00
aI00
aa(lp808
I85218
aF190.489
aF440.273
aVp1
p809
aS'utopia'
p810
aS'#656565'
p811
aF8.88595
aI0
aI00
aI00
aI00
aI00
aI00
aI00
aI00
aI00
aa(lp812
I234378
aF207.52
aF440.273
aVp1
p813
aS'utopia'
p814
aS'#656565'
p815
aF8.88595
aI0
aI00
aI00
aI00
aI00
aI00
aI00
aI00
aI00
aa(lp816
I190806
aF263.057
aF440.273
aVp1
p817
aS'utopia'
p818
aS'#656565'
p819
aF8.88595
aI0
aI00
aI00
aI00
aI00
aI00
aI00
aI00
aI00
aa(lp820
I234378
aF277.127
aF440.273
aVp1
p821
aS'utopia'
p822
aS'#656565'
p823
aF8.88595
aI0
aI00
aI00
aI00
aI00
aI00
aI00
aI00
aI00
aa(lp824
I234378
aF297.86
aF440.273
aVp1
p825
aS'utopia'
p826
aS'#656565'
p827
aF8.88595
aI0
aI00
aI00
aI00
aI00
aI00
aI00
aI00
aI00
aa(lp828
I234378
aF337.0093636363637
aF440.273
ag825
aS'utopia'
p829
aS'#656565'
p830
aF8.88595
aI0
aI00
aI00
aI00
aI00
aI00
aI00
aI00
aI00
aa(lp831
I68032
aF343.031
aF440.273
aVp1
p832
aS'utopia'
p833
aS'#656565'
p834
aF8.88595
aI0
aI00
aI00
aI00
aI00
aI00
aI00
aI00
aI00
aa(lp835
I234378
aF397.087
aF440.273
aVp1
p836
aS'utopia'
p837
aS'#656565'
p838
aF8.88595
aI0
aI00
aI00
aI00
aI00
aI00
aI00
aI00
aI00
aa(lp839
I234378
aF433.3917111111111
aF440.273
ag836
aS'utopia'
p840
aS'#656565'
p841
aF8.88595
aI0
aI00
aI00
aI00
aI00
aI00
aI00
aI00
aI00
aa(lp842
I85218
aF440.036
aF440.273
aVp1
p843
aS'utopia'
p844
aS'#656565'
p845
aF8.88595
aI0
aI00
aI00
aI00
aI00
aI00
aI00
aI00
aI00
aa(lp846
I89480
aF457.067
aF440.273
aVp1
p847
aS'utopia'
p848
aS'#656565'
p849
aF8.88595
aI0
aI00
aI00
aI00
aI00
aI00
aI00
aI00
aI00
aa(lp850
I40140
aF467.434
aF440.273
aVp1
p851
aS'utopia'
p852
aS'#656565'
p853
aF8.88595
aI0
aI00
aI00
aI00
aI00
aI00
aI00
aI00
aI00
aa(lp854
I234378
aF499.275
aF440.273
aVp1
p855
aS'utopia'
p856
aS'#656565'
p857
aF8.88595
aI0
aI01
aI00
aI00
aI00
aI00
aI00
aI00
aI00
aa(lp858
I234378
aF40.9084
aF450.64
aVp1
p859
aS'utopia'
p860
aS'#656565'
p861
aF8.88595
aI0
aI01
aI00
aI00
aI00
aI00
aI00
aI00
aI00
aa(lp862
I234378
aF81.6357
aF450.64
aVp1
p863
aS'utopia'
p864
aS'#656565'
p865
aF8.88595
aI0
aI00
aI00
aI00
aI00
aI00
aI00
aI00
aI00
aa(lp866
I144690
aF87.5597
aF450.64
aVp1
p867
aS'utopia'
p868
aS'#656565'
p869
aF8.88595
aI0
aI01
aI00
aI00
aI00
aI00
aI00
aI00
aI00
aa(lp870
I120366
aF124.584
aF450.64
aVp1
p871
aS'utopia'
p872
aS'#656565'
p873
aF8.88595
aI0
aI00
aI00
aI00
aI00
aI00
aI00
aI00
aI00
aa(lp874
I234378
aF157.907
aF450.64
aVp1
p875
aS'utopia'
p876
aS'#656565'
p877
aF8.88595
aI0
aI01
aI01
aI01
aI00
aI00
aI00
aI00
aI00
aa(lp878
I14859
aF177.9
aF450.64
aVp1
p879
aS'utopia'
p880
aS'#656565'
p881
aF8.88595
aI0
aI01
aI00
aI00
aI00
aI00
aI00
aI00
aI00
aa(lp882
I135639
aF212.703
aF450.64
aVp1
p883
aS'utopia'
p884
aS'#656565'
p885
aF8.88595
aI0
aI00
aI00
aI00
aI00
aI00
aI00
aI00
aI00
aa(lp886
I164851
aF222.33
aF450.64
aVp1
p887
aS'utopia'
p888
aS'#656565'
p889
aF8.88595
aI0
aI00
aI00
aI00
aI00
aI00
aI00
aI00
aI00
aa(lp890
I89480
aF246.766
aF450.64
aVp1
p891
aS'utopia'
p892
aS'#656565'
p893
aF8.88595
aI0
aI00
aI00
aI00
aI00
aI00
aI00
aI00
aI00
aa(lp894
I120366
aF257.133
aF450.64
aVp1
p895
aS'utopia'
p896
aS'#656565'
p897
aF8.88595
aI0
aI00
aI00
aI00
aI00
aI00
aI00
aI00
aI00
aa(lp898
I234378
aF290.456
aF450.64
aVp1
p899
aS'utopia'
p900
aS'#656565'
p901
aF8.88595
aI0
aI00
aI00
aI00
aI00
aI00
aI00
aI00
aI00
aa(lp902
I10716
aF328.221
aF450.64
aVp1
p903
aS'utopia'
p904
aS'#656565'
p905
aF8.88595
aI0
aI00
aI00
aI00
aI00
aI00
aI00
aI00
aI00
aa(lp906
I234378
aF343.771
aF450.64
aVp1
p907
aS'utopia'
p908
aS'#656565'
p909
aF8.88595
aI0
aI01
aI01
aI00
aI00
aI00
aI00
aI00
aI00
aa(lp910
I234378
aF360.5188
aF450.64
ag907
aS'utopia'
p911
aS'#656565'
p912
aF8.88595
aI0
aI00
aI00
aI00
aI00
aI00
aI00
aI00
aI00
aa(lp913
I234378
aF368.208
aF450.64
aVp1
p914
aS'utopia'
p915
aS'#656565'
p916
aF8.88595
aI0
aI01
aI01
aI00
aI00
aI00
aI00
aI00
aI00
aa(lp917
I234378
aF384.499
aF450.64
aVp1
p918
aS'utopia'
p919
aS'#656565'
p920
aF8.88595
aI0
aI01
aI01
aI00
aI00
aI00
aI00
aI00
aI00
aa(lp921
I234378
aF398.46992500000005
aF450.64
ag918
aS'utopia'
p922
aS'#656565'
p923
aF8.88595
aI0
aI00
aI00
aI00
aI00
aI00
aI00
aI00
aI00
aa(lp924
I44481
aF405.232
aF450.64
aVp1
p925
aS'utopia'
p926
aS'#656565'
p927
aF8.88595
aI0
aI01
aI00
aI00
aI00
aI00
aI00
aI00
aI00
aa(lp928
I158063
aF428.188
aF450.64
aVp1
p929
aS'utopia'
p930
aS'#656565'
p931
aF8.88595
aI0
aI01
aI00
aI00
aI00
aI00
aI00
aI00
aI00
aa(lp932
I85218
aF454.105
aF450.64
aVp1
p933
aS'utopia'
p934
aS'#656565'
p935
aF8.88595
aI0
aI00
aI00
aI00
aI00
aI00
aI00
aI00
aI00
aa(lp936
I234378
aF471.137
aF450.64
aVp1
p937
aS'utopia'
p938
aS'#656565'
p939
aF8.88595
aI0
aI01
aI01
aI00
aI00
aI00
aI00
aI00
aI00
aa(lp940
I234378
aF493.351
aF450.64
aVp1
p941
aS'utopia'
p942
aS'#656565'
p943
aF8.88595
aI0
aI01
aI01
aI00
aI00
aI00
aI00
aI00
aI00
aa(lp944
I234378
aF507.321925
aF450.64
ag941
aS'utopia'
p945
aS'#656565'
p946
aF8.88595
aI0
aI00
aI00
aI00
aI00
aI00
aI00
aI00
aI00
aa(lp947
I234378
aF514.085
aF450.64
aVp1
p948
aS'utopia'
p949
aS'#656565'
p950
aF8.88595
aI0
aI00
aI00
aI00
aI00
aI00
aI00
aI00
aI00
aa(lp951
I234378
aF40.9084
aF461.007
aVp1
p952
aS'utopia'
p953
aS'#656565'
p954
aF8.88595
aI0
aI01
aI00
aI00
aI00
aI00
aI00
aI00
aI00
aa(lp955
I25729
aF94.9646
aF461.007
aVp1
p956
aS'utopia'
p957
aS'#656565'
p958
aF8.88595
aI0
aI00
aI00
aI00
aI00
aI00
aI00
aI00
aI00
aa(lp959
I84662
aF115.699
aF461.007
aVp1
p960
aS'utopia'
p961
aS'#656565'
p962
aF8.88595
aI0
aI01
aI00
aI00
aI00
aI00
aI00
aI00
aI00
aa(lp963
I21716
aF137.173
aF461.007
aVp1
p964
aS'utopia'
p965
aS'#656565'
p966
aF8.88595
aI0
aI01
aI00
aI00
aI00
aI00
aI00
aI00
aI00
aa(lp967
I234378
aF152.07532
aF461.007
ag964
aS'utopia'
p968
aS'#656565'
p969
aF8.88595
aI0
aI00
aI00
aI00
aI00
aI00
aI00
aI00
aI00
aa(lp970
I234378
aF157.907
aF461.007
aVp1
p971
aS'utopia'
p972
aS'#656565'
p973
aF8.88595
aI0
aI01
aI01
aI01
aI00
aI00
aI00
aI00
aI00
aa(lp974
I234378
aF173.99412
aF461.007
ag971
aS'utopia'
p975
aS'#656565'
p976
aF8.88595
aI0
aI00
aI00
aI00
aI00
aI00
aI00
aI00
aI00
aa(lp977
I234378
aF180.122
aF461.007
aVp1
p978
aS'utopia'
p979
aS'#656565'
p980
aF8.88595
aI0
aI01
aI01
aI00
aI00
aI00
aI00
aI00
aI00
aa(lp981
I234378
aF192.5021
aF461.007
ag978
aS'utopia'
p982
aS'#656565'
p983
aF8.88595
aI0
aI00
aI00
aI00
aI00
aI00
aI00
aI00
aI00
aa(lp984
I234378
aF196.6288
aF461.007
ag978
aS'utopia'
p985
aS'#656565'
p986
aF8.88595
aI0
aI01
aI01
aI00
aI00
aI00
aI00
aI00
aI00
aa(lp987
I234378
aF208.1356
aF461.007
ag978
aS'utopia'
p988
aS'#656565'
p989
aF8.88595
aI0
aI00
aI00
aI00
aI00
aI00
aI00
aI00
aI00
aa(lp990
I234378
aF219.368
aF461.007
aVp1
p991
aS'utopia'
p992
aS'#656565'
p993
aF8.88595
aI0
aI01
aI00
aI00
aI00
aI00
aI00
aI00
aI00
aa(lp994
I234378
aF244.85548571428572
aF461.007
ag991
aS'utopia'
p995
aS'#656565'
p996
aF8.88595
aI0
aI00
aI00
aI00
aI00
aI00
aI00
aI00
aI00
aa(lp997
I21716
aF251.209
aF461.007
aVp1
p998
aS'utopia'
p999
aS'#656565'
p1000
aF8.88595
aI0
aI01
aI00
aI00
aI00
aI00
aI00
aI00
aI00
aa(lp1001
I115862
aF269.722
aF461.007
aVp1
p1002
aS'utopia'
p1003
aS'#656565'
p1004
aF8.88595
aI0
aI01
aI00
aI00
aI00
aI00
aI00
aI00
aI00
aa(lp1005
I234378
aF291.40119999999996
aF461.007
ag1002
aS'utopia'
p1006
aS'#656565'
p1007
aF8.88595
aI0
aI00
aI00
aI00
aI00
aI00
aI00
aI00
aI00
aa(lp1008
I165851
aF297.12
aF461.007
aVp1
p1009
aS'utopia'
p1010
aS'#656565'
p1011
aF8.88595
aI0
aI01
aI00
aI00
aI00
aI00
aI00
aI00
aI00
aa(lp1012
I234378
aF330.442
aF461.007
aVp1
p1013
aS'utopia'
p1014
aS'#656565'
p1015
aF8.88595
aI0
aI01
aI01
aI00
aI00
aI00
aI00
aI00
aI00
aa(lp1016
I234378
aF336.93664
aF461.007
ag1013
aS'utopia'
p1017
aS'#656565'
p1018
aF8.88595
aI0
aI00
aI00
aI00
aI00
aI00
aI00
aI00
aI00
aa(lp1019
I158280
aF342.29
aF461.007
aVp1
p1020
aS'utopia'
p1021
aS'#656565'
p1022
aF8.88595
aI0
aI01
aI00
aI00
aI00
aI00
aI00
aI00
aI00
aa(lp1023
I234378
aF365.986
aF461.007
aVp1
p1024
aS'utopia'
p1025
aS'#656565'
p1026
aF8.88595
aI0
aI01
aI01
aI00
aI00
aI00
aI00
aI00
aI00
aa(lp1027
I234378
aF372.48064
aF461.007
ag1024
aS'utopia'
p1028
aS'#656565'
p1029
aF8.88595
aI0
aI00
aI00
aI00
aI00
aI00
aI00
aI00
aI00
aa(lp1030
I234378
aF377.834
aF461.007
aVp1
p1031
aS'utopia'
p1032
aS'#656565'
p1033
aF8.88595
aI0
aI01
aI01
aI00
aI00
aI00
aI00
aI00
aI00
aa(lp1034
I234378
aF400.1451666666667
aF461.007
ag1031
aS'utopia'
p1035
aS'#656565'
p1036
aF8.88595
aI0
aI00
aI00
aI00
aI00
aI00
aI00
aI00
aI00
aa(lp1037
I131892
aF406.713
aF461.007
aVp1
p1038
aS'utopia'
p1039
aS'#656565'
p1040
aF8.88595
aI0
aI01
aI00
aI00
aI00
aI00
aI00
aI00
aI00
aa(lp1041
I234378
aF435.97107500000004
aF461.007
ag1038
aS'utopia'
p1042
aS'#656565'
p1043
aF8.88595
aI0
aI00
aI00
aI00
aI00
aI00
aI00
aI00
aI00
aa(lp1044
I176767
aF442.257
aF461.007
aVp1
p1045
aS'utopia'
p1046
aS'#656565'
p1047
aF8.88595
aI0
aI01
aI00
aI00
aI00
aI00
aI00
aI00
aI00
aa(lp1048
I234378
aF480.34842000000003
aF461.007
ag1045
aS'utopia'
p1049
aS'#656565'
p1050
aF8.88595
aI0
aI00
aI00
aI00
aI00
aI00
aI00
aI00
aI00
aa(lp1051
I45445
aF486.687
aF461.007
aVp1
p1052
aS'utopia'
p1053
aS'#656565'
p1054
aF8.88595
aI0
aI01
aI00
aI00
aI00
aI00
aI00
aI00
aI00
aa(lp1055
I234378
aF510.9050571428572
aF461.007
ag1052
aS'utopia'
p1056
aS'#656565'
p1057
aF8.88595
aI0
aI00
aI00
aI00
aI00
aI00
aI00
aI00
aI00
aa(lp1058
I148996
aF517.047
aF461.007
aVp1
p1059
aS'utopia'
p1060
aS'#656565'
p1061
aF8.88595
aI0
aI01
aI00
aI00
aI00
aI00
aI00
aI00
aI00
aa(lp1062
I234378
aF40.9084
aF471.373
aVp1
p1063
aS'utopia'
p1064
aS'#656565'
p1065
aF8.88595
aI0
aI00
aI00
aI00
aI00
aI00
aI00
aI00
aI00
aa(lp1066
I84662
aF45.00038333333333
aF471.373
ag1063
aS'utopia'
p1067
aS'#656565'
p1068
aF8.88595
aI0
aI01
aI00
aI00
aI00
aI00
aI00
aI00
aI00
aa(lp1069
I234378
aF61.368316666666665
aF471.373
ag1063
aS'utopia'
p1070
aS'#656565'
p1071
aF8.88595
aI0
aI00
aI00
aI00
aI00
aI00
aI00
aI00
aI00
aa(lp1072
I234378
aF67.5663
aF471.373
aVp1
p1073
aS'utopia'
p1074
aS'#656565'
p1075
aF8.88595
aI0
aI01
aI01
aI00
aI00
aI00
aI00
aI00
aI00
aa(lp1076
I234378
aF84.3141
aF471.373
ag1073
aS'utopia'
p1077
aS'#656565'
p1078
aF8.88595
aI0
aI00
aI00
aI00
aI00
aI00
aI00
aI00
aI00
aa(lp1079
I231432
aF92.0026
aF471.373
aVp1
p1080
aS'utopia'
p1081
aS'#656565'
p1082
aF8.88595
aI0
aI01
aI00
aI00
aI00
aI00
aI00
aI00
aI00
aa(lp1083
I234378
aF122.38331111111111
aF471.373
ag1080
aS'utopia'
p1084
aS'#656565'
p1085
aF8.88595
aI0
aI00
aI00
aI00
aI00
aI00
aI00
aI00
aI00
aa(lp1086
I89217
aF128.287
aF471.373
aVp1
p1087
aS'utopia'
p1088
aS'#656565'
p1089
aF8.88595
aI0
aI01
aI01
aI00
aI00
aI00
aI00
aI00
aI00
aa(lp1090
I234378
aF145.64226666666667
aF471.373
ag1087
aS'utopia'
p1091
aS'#656565'
p1092
aF8.88595
aI0
aI00
aI00
aI00
aI00
aI00
aI00
aI00
aI00
aa(lp1093
I234378
aF149.98108333333334
aF471.373
ag1087
aS'utopia'
p1094
aS'#656565'
p1095
aF8.88595
aI0
aI00
aI00
aI00
aI00
aI00
aI00
aI00
aI00
aa(lp1096
I234378
aF156.426
aF471.373
aVp1
p1097
aS'utopia'
p1098
aS'#656565'
p1099
aF8.88595
aI0
aI01
aI00
aI00
aI00
aI00
aI00
aI00
aI00
aa(lp1100
I234378
aF181.1486
aF471.373
ag1097
aS'utopia'
p1101
aS'#656565'
p1102
aF8.88595
aI0
aI00
aI00
aI00
aI00
aI00
aI00
aI00
aI00
aa(lp1103
I234378
aF186.786
aF471.373
aVp1
p1104
aS'utopia'
p1105
aS'#656565'
p1106
aF8.88595
aI0
aI01
aI01
aI01
aI00
aI00
aI00
aI00
aI00
aa(lp1107
I234378
aF211.387125
aF471.373
ag1104
aS'utopia'
p1108
aS'#656565'
p1109
aF8.88595
aI0
aI00
aI00
aI00
aI00
aI00
aI00
aI00
aI00
aa(lp1110
I234378
aF216.30734999999999
aF471.373
ag1104
aS'utopia'
p1111
aS'#656565'
p1112
aF8.88595
aI0
aI00
aI00
aI01
aI01
aI00
aI00
aI00
aI00
aa(lp1113
I234378
aF221.22757499999997
aF471.373
ag1104
aS'utopia'
p1114
aS'#656565'
p1115
aF8.88595
aI0
aI00
aI00
aI00
aI00
aI00
aI00
aI00
aI00
aa(lp1116
I234378
aF228.254
aF471.373
aVp1
p1117
aS'utopia'
p1118
aS'#656565'
p1119
aF8.88595
aI0
aI01
aI01
aI00
aI00
aI00
aI00
aI00
aI00
aa(lp1120
I234378
aF243.064
aF471.373
aVp1
p1121
aS'utopia'
p1122
aS'#656565'
p1123
aF8.88595
aI0
aI01
aI01
aI00
aI00
aI00
aI00
aI00
aI00
aa(lp1124
I48671
aF40.9084
aF481.74
aVp1
p1125
aS'utopia'
p1126
aS'#656565'
p1127
aF8.88595
aI0
aI01
aI00
aI00
aI00
aI00
aI00
aI00
aI00
aa(lp1128
I129688
aF69.0473
aF481.74
aVp1
p1129
aS'utopia'
p1130
aS'#656565'
p1131
aF8.88595
aI0
aI01
aI00
aI00
aI00
aI00
aI00
aI00
aI00
aa(lp1132
I234378
aF97.1861
aF481.74
aVp1
p1133
aS'utopia'
p1134
aS'#656565'
p1135
aF8.88595
aI0
aI00
aI00
aI00
aI00
aI00
aI00
aI00
aI00
aa(lp1136
I234378
aF101.629
aF481.74
aVp1
p1137
aS'utopia'
p1138
aS'#656565'
p1139
aF8.88595
aI0
aI00
aI00
aI01
aI01
aI00
aI00
aI00
aI00
aa(lp1140
I234378
aF108.294
aF481.74
aVp1
p1141
aS'utopia'
p1142
aS'#656565'
p1143
aF8.88595
aI0
aI01
aI00
aI00
aI00
aI00
aI00
aI00
aI00
aa(lp1144
I42284
aF40.9084
aF514.956
aVp1
p1145
aS'utopia'
p1146
aS'#000000'
p1147
aF10.3669
aI1
aI01
aI00
aI00
aI00
aI00
aI00
aI00
aI00
aa(lp1148
I234378
aF92.7431
aF514.956
aVp1
p1149
aS'utopia'
p1150
aS'#000000'
p1151
aF10.3669
aI1
aI01
aI00
aI00
aI00
aI00
aI00
aI00
aI00
aa(lp1152
I234378
aF157.907
aF514.956
aVp1
p1153
aS'utopia'
p1154
aS'#000000'
p1155
aF10.3669
aI1
aI01
aI00
aI00
aI00
aI00
aI00
aI00
aI00
aa(lp1156
I150037
aF40.9084
aF531.517
aVp1
p1157
aS'utopia'
p1158
aS'#656565'
p1159
aF10.3669
aI0
aI01
aI00
aI00
aI00
aI00
aI00
aI00
aI00
aa(lp1160
I48604
aF100.889
aF531.517
aVp1
p1161
aS'utopia'
p1162
aS'#656565'
p1163
aF10.3669
aI0
aI01
aI00
aI00
aI00
aI00
aI00
aI00
aI00
aa(lp1164
I234378
aF142.356
aF531.517
aVp1
p1165
aS'utopia'
p1166
aS'#656565'
p1167
aF10.3669
aI0
aI01
aI00
aI00
aI00
aI00
aI00
aI00
aI01
aa(lp1168
I234378
aF163.831
aF531.517
aVp1
p1169
aS'utopia'
p1170
aS'#656565'
p1171
aF10.3669
aI0
aI00
aI00
aI01
aI01
aI01
aI00
aI00
aI00
aa(lp1172
I89480
aF186.786
aF531.517
aVp1
p1173
aS'utopia'
p1174
aS'#656565'
p1175
aF10.3669
aI0
aI01
aI00
aI00
aI00
aI00
aI00
aI00
aI00
aa(lp1176
I234378
aF201.596
aF531.517
aVp1
p1177
aS'utopia'
p1178
aS'#656565'
p1179
aF10.3669
aI0
aI01
aI00
aI00
aI00
aI00
aI00
aI00
aI01
aa(lp1180
I234378
aF220.849
aF531.517
aVp1
p1181
aS'utopia'
p1182
aS'#656565'
p1183
aF10.3669
aI0
aI00
aI00
aI01
aI01
aI01
aI00
aI00
aI00
aa(lp1184
I42284
aF40.9084
aF551.347
aVp1
p1185
aS'utopia'
p1186
aS'#656565'
p1187
aF8.88595
aI0
aI01
aI00
aI00
aI00
aI00
aI00
aI00
aI00
aa(lp1188
I43052
aF83.1167
aF551.347
aVp1
p1189
aS'utopia'
p1190
aS'#656565'
p1191
aF8.88595
aI0
aI01
aI00
aI00
aI00
aI00
aI00
aI00
aI00
aa(lp1192
I234378
aF131.249
aF551.347
aVp1
p1193
aS'utopia'
p1194
aS'#656565'
p1195
aF8.88595
aI0
aI01
aI00
aI00
aI00
aI00
aI00
aI00
aI00
aa(lp1196
I234378
aF166.00817
aF551.347
ag1193
aS'utopia'
p1197
aS'#656565'
p1198
aF8.88595
aI0
aI00
aI00
aI00
aI00
aI00
aI00
aI00
aI00
aa(lp1199
I234378
aF171.976
aF551.347
aVp1
p1200
aS'utopia'
p1201
aS'#656565'
p1202
aF8.88595
aI0
aI01
aI00
aI00
aI00
aI00
aI00
aI00
aI00
aa(lp1203
I234378
aF202.52994999999999
aF551.347
ag1200
aS'utopia'
p1204
aS'#656565'
p1205
aF8.88595
aI0
aI00
aI00
aI00
aI00
aI00
aI00
aI00
aI00
aa(lp1206
I2830
aF209.001
aF551.347
aVp1
p1207
aS'utopia'
p1208
aS'#656565'
p1209
aF8.88595
aI0
aI01
aI00
aI00
aI00
aI00
aI00
aI00
aI00
aa(lp1210
I119502
aF234.178
aF551.347
aVp1
p1211
aS'utopia'
p1212
aS'#656565'
p1213
aF8.88595
aI0
aI01
aI00
aI00
aI00
aI00
aI00
aI00
aI00
aa(lp1214
I132957
aF264.538
aF551.347
aVp1
p1215
aS'utopia'
p1216
aS'#656565'
p1217
aF8.88595
aI0
aI01
aI00
aI00
aI00
aI00
aI00
aI00
aI00
aa(lp1218
I113320
aF285.272
aF551.347
aVp1
p1219
aS'utopia'
p1220
aS'#656565'
p1221
aF8.88595
aI0
aI01
aI00
aI00
aI00
aI00
aI00
aI00
aI00
aa(lp1222
I16334
aF346.733
aF551.347
aVp1
p1223
aS'utopia'
p1224
aS'#656565'
p1225
aF8.88595
aI0
aI01
aI01
aI00
aI00
aI00
aI00
aI00
aI00
aa(lp1226
I220729
aF355.55376
aF551.347
ag1223
aS'utopia'
p1227
aS'#656565'
p1228
aF8.88595
aI0
aI01
aI01
aI00
aI00
aI00
aI00
aI00
aI00
aa(lp1229
I234378
aF362.46414
aF551.347
ag1223
aS'utopia'
p1230
aS'#656565'
p1231
aF8.88595
aI0
aI00
aI00
aI00
aI00
aI00
aI00
aI00
aI00
aa(lp1232
I126359
aF373.391
aF551.347
aVp1
p1233
aS'utopia'
p1234
aS'#656565'
p1235
aF8.88595
aI0
aI01
aI01
aI00
aI00
aI00
aI00
aI00
aI00
aa(lp1236
I234378
aF377.62072
aF551.347
ag1233
aS'utopia'
p1237
aS'#656565'
p1238
aF8.88595
aI0
aI00
aI00
aI00
aI00
aI00
aI00
aI00
aI00
aa(lp1239
I59734
aF381.85044
aF551.347
ag1233
aS'utopia'
p1240
aS'#656565'
p1241
aF8.88595
aI0
aI01
aI01
aI00
aI00
aI00
aI00
aI00
aI00
aa(lp1242
I234378
aF384.08016
aF551.347
ag1233
aS'utopia'
p1243
aS'#656565'
p1244
aF8.88595
aI0
aI00
aI00
aI00
aI00
aI00
aI00
aI00
aI00
aa(lp1245
I166593
aF390.30987999999996
aF551.347
ag1233
aS'utopia'
p1246
aS'#656565'
p1247
aF8.88595
aI0
aI01
aI01
aI00
aI00
aI00
aI00
aI00
aI00
aa(lp1248
I234378
aF397.087
aF551.347
aVp1
p1249
aS'utopia'
p1250
aS'#656565'
p1251
aF8.88595
aI0
aI00
aI00
aI00
aI00
aI00
aI00
aI00
aI00
aa(lp1252
I234378
aF401.900225
aF551.347
ag1249
aS'utopia'
p1253
aS'#656565'
p1254
aF8.88595
aI0
aI01
aI00
aI00
aI00
aI00
aI00
aI00
aI01
aa(lp1255
I234378
aF418.561
aF551.347
aVp1
p1256
aS'utopia'
p1257
aS'#656565'
p1258
aF8.88595
aI0
aI00
aI00
aI01
aI01
aI01
aI00
aI00
aI00
aa(lp1259
I89480
aF438.555
aF551.347
aVp1
p1260
aS'utopia'
p1261
aS'#656565'
p1262
aF8.88595
aI0
aI00
aI00
aI00
aI00
aI00
aI00
aI00
aI00
aa(lp1263
I234378
aF448.922
aF551.347
aVp1
p1264
aS'utopia'
p1265
aS'#656565'
p1266
aF8.88595
aI0
aI01
aI00
aI00
aI00
aI00
aI00
aI00
aI01
aa(lp1267
I234378
aF465.953
aF551.347
aVp1
p1268
aS'utopia'
p1269
aS'#656565'
p1270
aF8.88595
aI0
aI00
aI00
aI01
aI01
aI01
aI00
aI00
aI00
aa(lp1271
I234378
aF482.63723999999996
aF551.347
ag1268
aS'utopia'
p1272
aS'#656565'
p1273
aF8.88595
aI0
aI00
aI00
aI00
aI00
aI00
aI00
aI00
aI00
aa(lp1274
I176435
aF488.908
aF551.347
aVp1
p1275
aS'utopia'
p1276
aS'#656565'
p1277
aF8.88595
aI0
aI01
aI00
aI00
aI00
aI00
aI00
aI00
aI00
aa(lp1278
I234378
aF504.99512000000004
aF551.347
ag1275
aS'utopia'
p1279
aS'#656565'
p1280
aF8.88595
aI0
aI00
aI00
aI00
aI00
aI00
aI00
aI00
aI00
aa(lp1281
I17350
aF511.123
aF551.347
aVp1
p1282
aS'utopia'
p1283
aS'#656565'
p1284
aF8.88595
aI0
aI01
aI00
aI00
aI00
aI00
aI00
aI00
aI00
aa(lp1285
I100815
aF40.9084
aF561.714
aVp1
p1286
aS'utopia'
p1287
aS'#656565'
p1288
aF8.88595
aI0
aI01
aI00
aI00
aI00
aI00
aI00
aI00
aI00
aa(lp1289
I168808
aF83.8572
aF561.714
aVp1
p1290
aS'utopia'
p1291
aS'#656565'
p1292
aF8.88595
aI0
aI01
aI00
aI00
aI00
aI00
aI00
aI00
aI00
aa(lp1293
I234378
aF133.1783076923077
aF561.714
ag1290
aS'utopia'
p1294
aS'#656565'
p1295
aF8.88595
aI0
aI00
aI00
aI00
aI00
aI00
aI00
aI00
aI00
aa(lp1296
I234378
aF139.394
aF561.714
aVp1
p1297
aS'utopia'
p1298
aS'#656565'
p1299
aF8.88595
aI0
aI00
aI00
aI00
aI00
aI00
aI00
aI00
aI00
aa(lp1300
I90127
aF145.318
aF561.714
aVp1
p1301
aS'utopia'
p1302
aS'#656565'
p1303
aF8.88595
aI0
aI01
aI00
aI00
aI00
aI00
aI00
aI00
aI00
aa(lp1304
I190806
aF194.932
aF561.714
aVp1
p1305
aS'utopia'
p1306
aS'#656565'
p1307
aF8.88595
aI0
aI00
aI00
aI00
aI00
aI00
aI00
aI00
aI00
aa(lp1308
I41890
aF209.001
aF561.714
aVp1
p1309
aS'utopia'
p1310
aS'#656565'
p1311
aF8.88595
aI0
aI00
aI00
aI00
aI00
aI00
aI00
aI00
aI00
aa(lp1312
I234378
aF220.108
aF561.714
aVp1
p1313
aS'utopia'
p1314
aS'#656565'
p1315
aF8.88595
aI0
aI00
aI00
aI00
aI00
aI00
aI00
aI00
aI00
aa(lp1316
I144489
aF251.209
aF561.714
aVp1
p1317
aS'utopia'
p1318
aS'#656565'
p1319
aF8.88595
aI0
aI00
aI00
aI00
aI00
aI00
aI00
aI00
aI00
aa(lp1320
I234378
aF261.576
aF561.714
aVp1
p1321
aS'utopia'
p1322
aS'#656565'
p1323
aF8.88595
aI0
aI00
aI00
aI00
aI00
aI00
aI00
aI00
aI00
aa(lp1324
I68032
aF297.86
aF561.714
aVp1
p1325
aS'utopia'
p1326
aS'#656565'
p1327
aF8.88595
aI0
aI00
aI00
aI00
aI00
aI00
aI00
aI00
aI00
aa(lp1328
I234378
aF351.917
aF561.714
aVp1
p1329
aS'utopia'
p1330
aS'#656565'
p1331
aF8.88595
aI0
aI00
aI00
aI00
aI00
aI00
aI00
aI00
aI00
aa(lp1332
I234378
aF390.422
aF561.714
aVp1
p1333
aS'utopia'
p1334
aS'#656565'
p1335
aF8.88595
aI0
aI00
aI00
aI00
aI00
aI00
aI00
aI00
aI00
aa(lp1336
I234378
aF441.79372307692313
aF561.714
ag1333
aS'utopia'
p1337
aS'#656565'
p1338
aF8.88595
aI0
aI00
aI00
aI00
aI00
aI00
aI00
aI00
aI00
aa(lp1339
I144690
aF448.181
aF561.714
aVp1
p1340
aS'utopia'
p1341
aS'#656565'
p1342
aF8.88595
aI0
aI00
aI00
aI00
aI00
aI00
aI00
aI00
aI00
aa(lp1343
I234378
aF471.7643428571428
aF561.714
ag1340
aS'utopia'
p1344
aS'#656565'
p1345
aF8.88595
aI0
aI00
aI00
aI00
aI00
aI00
aI00
aI00
aI00
aa(lp1346
I234378
aF477.801
aF561.714
aVp1
p1347
aS'utopia'
p1348
aS'#656565'
p1349
aF8.88595
aI0
aI00
aI00
aI00
aI00
aI00
aI00
aI00
aI00
aa(lp1350
I234378
aF502.6537714285714
aF561.714
ag1347
aS'utopia'
p1351
aS'#656565'
p1352
aF8.88595
aI0
aI00
aI00
aI00
aI00
aI00
aI00
aI00
aI00
aa(lp1353
I125078
aF508.902
aF561.714
aVp1
p1354
aS'utopia'
p1355
aS'#656565'
p1356
aF8.88595
aI0
aI00
aI00
aI00
aI00
aI00
aI00
aI00
aI00
aa(lp1357
I85218
aF537.041
aF561.714
aVp1
p1358
aS'utopia'
p1359
aS'#656565'
p1360
aF8.88595
aI0
aI00
aI00
aI00
aI00
aI00
aI00
aI00
aI00
aa(lp1361
I20593
aF40.9084
aF572.081
aVp1
p1362
aS'utopia'
p1363
aS'#656565'
p1364
aF8.88595
aI0
aI00
aI00
aI00
aI00
aI00
aI00
aI00
aI00
aa(lp1365
I234378
aF89.887
aF572.081
ag1362
aS'utopia'
p1366
aS'#656565'
p1367
aF8.88595
aI0
aI00
aI00
aI00
aI00
aI00
aI00
aI00
aI00
aa(lp1368
I234378
aF96.4456
aF572.081
aVp1
p1369
aS'utopia'
p1370
aS'#656565'
p1371
aF8.88595
aI0
aI00
aI00
aI00
aI00
aI00
aI00
aI00
aI00
aa(lp1372
I194354
aF102.37
aF572.081
aVp1
p1373
aS'utopia'
p1374
aS'#656565'
p1375
aF8.88595
aI0
aI01
aI00
aI00
aI00
aI00
aI00
aI00
aI00
aa(lp1376
I51933
aF119.401
aF572.081
aVp1
p1377
aS'utopia'
p1378
aS'#656565'
p1379
aF8.88595
aI0
aI00
aI00
aI00
aI00
aI00
aI00
aI00
aI00
aa(lp1380
I105322
aF141.616
aF572.081
aVp1
p1381
aS'utopia'
p1382
aS'#656565'
p1383
aF8.88595
aI0
aI00
aI00
aI00
aI00
aI00
aI00
aI00
aI00
aa(lp1384
I144690
aF177.16
aF572.081
aVp1
p1385
aS'utopia'
p1386
aS'#656565'
p1387
aF8.88595
aI0
aI00
aI00
aI00
aI00
aI00
aI00
aI00
aI00
aa(lp1388
I234378
aF200.74334285714286
aF572.081
ag1385
aS'utopia'
p1389
aS'#656565'
p1390
aF8.88595
aI0
aI00
aI00
aI00
aI00
aI00
aI00
aI00
aI00
aa(lp1391
I83126
aF206.779
aF572.081
aVp1
p1392
aS'utopia'
p1393
aS'#656565'
p1394
aF8.88595
aI0
aI00
aI00
aI00
aI00
aI00
aI00
aI00
aI00
aa(lp1395
I85218
aF271.943
aF572.081
aVp1
p1396
aS'utopia'
p1397
aS'#656565'
p1398
aF8.88595
aI0
aI00
aI00
aI00
aI00
aI00
aI00
aI00
aI00
aa(lp1399
I234378
aF288.975
aF572.081
aVp1
p1400
aS'utopia'
p1401
aS'#656565'
p1402
aF8.88595
aI0
aI00
aI00
aI00
aI00
aI00
aI00
aI00
aI00
aa(lp1403
I135639
aF317.854
aF572.081
aVp1
p1404
aS'utopia'
p1405
aS'#656565'
p1406
aF8.88595
aI0
aI00
aI00
aI00
aI00
aI00
aI00
aI00
aI00
aa(lp1407
I21716
aF327.48
aF572.081
aVp1
p1408
aS'utopia'
p1409
aS'#656565'
p1410
aF8.88595
aI0
aI01
aI00
aI00
aI00
aI00
aI00
aI00
aI00
aa(lp1411
I234378
aF343.1938666666667
aF572.081
ag1408
aS'utopia'
p1412
aS'#656565'
p1413
aF8.88595
aI0
aI00
aI00
aI00
aI00
aI00
aI00
aI00
aI00
aa(lp1414
I234378
aF347.12233333333336
aF572.081
ag1408
aS'utopia'
p1415
aS'#656565'
p1416
aF8.88595
aI0
aI01
aI01
aI00
aI00
aI00
aI00
aI00
aI00
aa(lp1417
I234378
aF354.90773333333334
aF572.081
ag1408
aS'utopia'
p1418
aS'#656565'
p1419
aF8.88595
aI0
aI00
aI00
aI00
aI00
aI00
aI00
aI00
aI00
aa(lp1420
I234378
aF362.8362
aF572.081
ag1408
aS'utopia'
p1421
aS'#656565'
p1422
aF8.88595
aI0
aI01
aI00
aI00
aI00
aI00
aI00
aI00
aI00
aa(lp1423
I234378
aF366.6216
aF572.081
ag1408
aS'utopia'
p1424
aS'#656565'
p1425
aF8.88595
aI0
aI00
aI00
aI00
aI00
aI00
aI00
aI00
aI00
aa(lp1426
I234378
aF378.5500666666667
aF572.081
ag1408
aS'utopia'
p1427
aS'#656565'
p1428
aF8.88595
aI0
aI01
aI00
aI00
aI00
aI00
aI00
aI00
aI00
aa(lp1429
I234378
aF381.26393333333334
aF572.081
ag1408
aS'utopia'
p1430
aS'#656565'
p1431
aF8.88595
aI0
aI00
aI00
aI00
aI00
aI00
aI00
aI00
aI00
aa(lp1432
I234378
aF398.1924
aF572.081
ag1408
aS'utopia'
p1433
aS'#656565'
p1434
aF8.88595
aI0
aI01
aI01
aI01
aI00
aI00
aI00
aI00
aI00
aa(lp1435
I234378
aF395.9062666666667
aF572.081
ag1408
aS'utopia'
p1436
aS'#656565'
p1437
aF8.88595
aI0
aI00
aI00
aI00
aI00
aI00
aI00
aI00
aI00
aa(lp1438
I234378
aF417.83473333333336
aF572.081
ag1408
aS'utopia'
p1439
aS'#656565'
p1440
aF8.88595
aI0
aI01
aI00
aI00
aI00
aI00
aI00
aI00
aI00
aa(lp1441
I234378
aF416.4055333333334
aF572.081
ag1408
aS'utopia'
p1442
aS'#656565'
p1443
aF8.88595
aI0
aI00
aI00
aI00
aI00
aI00
aI00
aI00
aI00
aa(lp1444
I148996
aF447.441
aF572.081
aVp1
p1445
aS'utopia'
p1446
aS'#656565'
p1447
aF8.88595
aI0
aI01
aI00
aI00
aI00
aI00
aI00
aI00
aI00
aa(lp1448
I234378
aF471.0243428571428
aF572.081
ag1445
aS'utopia'
p1449
aS'#656565'
p1450
aF8.88595
aI0
aI00
aI00
aI00
aI00
aI00
aI00
aI00
aI00
aa(lp1451
I176767
aF477.06
aF572.081
aVp1
p1452
aS'utopia'
p1453
aS'#656565'
p1454
aF8.88595
aI0
aI01
aI00
aI00
aI00
aI00
aI00
aI00
aI00
aa(lp1455
I234378
aF515.15142
aF572.081
ag1452
aS'utopia'
p1456
aS'#656565'
p1457
aF8.88595
aI0
aI00
aI00
aI00
aI00
aI00
aI00
aI00
aI00
aa(lp1458
I17350
aF521.49
aF572.081
aVp1
p1459
aS'utopia'
p1460
aS'#656565'
p1461
aF8.88595
aI0
aI01
aI00
aI00
aI00
aI00
aI00
aI00
aI00
aa(lp1462
I234378
aF40.9084
aF582.448
aVp1
p1463
aS'utopia'
p1464
aS'#656565'
p1465
aF8.88595
aI0
aI01
aI00
aI00
aI00
aI00
aI00
aI00
aI00
aa(lp1466
I234378
aF74.9712
aF582.448
aVp1
p1467
aS'utopia'
p1468
aS'#656565'
p1469
aF8.88595
aI0
aI00
aI00
aI00
aI00
aI00
aI00
aI00
aI00
aa(lp1470
I173426
aF80.8952
aF582.448
aVp1
p1471
aS'utopia'
p1472
aS'#656565'
p1473
aF8.88595
aI0
aI01
aI00
aI00
aI00
aI00
aI00
aI00
aI00
aa(lp1474
I85218
aF119.401
aF582.448
aVp1
p1475
aS'utopia'
p1476
aS'#656565'
p1477
aF8.88595
aI0
aI00
aI00
aI00
aI00
aI00
aI00
aI00
aI00
aa(lp1478
I234378
aF136.432
aF582.448
aVp1
p1479
aS'utopia'
p1480
aS'#656565'
p1481
aF8.88595
aI0
aI00
aI00
aI00
aI00
aI00
aI00
aI00
aI00
aa(lp1482
I194354
aF179.381
aF582.448
aVp1
p1483
aS'utopia'
p1484
aS'#656565'
p1485
aF8.88595
aI0
aI00
aI00
aI00
aI00
aI00
aI00
aI00
aI00
aa(lp1486
I115769
aF194.191
aF582.448
aVp1
p1487
aS'utopia'
p1488
aS'#656565'
p1489
aF8.88595
aI0
aI00
aI00
aI00
aI00
aI00
aI00
aI00
aI00
aa(lp1490
I190806
aF240.102
aF582.448
aVp1
p1491
aS'utopia'
p1492
aS'#656565'
p1493
aF8.88595
aI0
aI00
aI00
aI00
aI00
aI00
aI00
aI00
aI00
aa(lp1494
I144509
aF254.171
aF582.448
aVp1
p1495
aS'utopia'
p1496
aS'#656565'
p1497
aF8.88595
aI0
aI00
aI00
aI00
aI00
aI00
aI00
aI00
aI00
aa(lp1498
I92710
aF319.335
aF582.448
aVp1
p1499
aS'utopia'
p1500
aS'#656565'
p1501
aF8.88595
aI0
aI00
aI00
aI00
aI00
aI00
aI00
aI00
aI00
aa(lp1502
I17350
aF354.879
aF582.448
aVp1
p1503
aS'utopia'
p1504
aS'#656565'
p1505
aF8.88595
aI0
aI01
aI00
aI00
aI00
aI00
aI00
aI00
aI00
aa(lp1506
I56511
aF374.872
aF582.448
aVp1
p1507
aS'utopia'
p1508
aS'#656565'
p1509
aF8.88595
aI0
aI00
aI00
aI00
aI00
aI00
aI00
aI00
aI00
aa(lp1510
I89480
aF396.346
aF582.448
aVp1
p1511
aS'utopia'
p1512
aS'#656565'
p1513
aF8.88595
aI0
aI00
aI00
aI00
aI00
aI00
aI00
aI00
aI00
aa(lp1514
I132957
aF406.713
aF582.448
aVp1
p1515
aS'utopia'
p1516
aS'#656565'
p1517
aF8.88595
aI0
aI01
aI00
aI00
aI00
aI00
aI00
aI00
aI00
aa(lp1518
I95887
aF427.447
aF582.448
aVp1
p1519
aS'utopia'
p1520
aS'#656565'
p1521
aF8.88595
aI0
aI00
aI00
aI00
aI00
aI00
aI00
aI00
aI00
aa(lp1522
I56511
aF464.472
aF582.448
aVp1
p1523
aS'utopia'
p1524
aS'#656565'
p1525
aF8.88595
aI0
aI00
aI00
aI00
aI00
aI00
aI00
aI00
aI00
aa(lp1526
I234378
aF485.946
aF582.448
aVp1
p1527
aS'utopia'
p1528
aS'#656565'
p1529
aF8.88595
aI0
aI00
aI00
aI00
aI00
aI00
aI00
aI00
aI00
aa(lp1530
I173426
aF491.87
aF582.448
aVp1
p1531
aS'utopia'
p1532
aS'#656565'
p1533
aF8.88595
aI0
aI01
aI00
aI00
aI00
aI00
aI00
aI00
aI00
aa(lp1534
I85218
aF530.376
aF582.448
aVp1
p1535
aS'utopia'
p1536
aS'#656565'
p1537
aF8.88595
aI0
aI00
aI00
aI00
aI00
aI00
aI00
aI00
aI00
aa(lp1538
I234378
aF40.9084
aF592.815
aVp1
p1539
aS'utopia'
p1540
aS'#656565'
p1541
aF8.88595
aI0
aI00
aI00
aI00
aI00
aI00
aI00
aI00
aI00
aa(lp1542
I194354
aF83.8572
aF592.815
aVp1
p1543
aS'utopia'
p1544
aS'#656565'
p1545
aF8.88595
aI0
aI00
aI00
aI00
aI00
aI00
aI00
aI00
aI00
aa(lp1546
I115769
aF98.6671
aF592.815
aVp1
p1547
aS'utopia'
p1548
aS'#656565'
p1549
aF8.88595
aI0
aI00
aI00
aI00
aI00
aI00
aI00
aI00
aI00
aa(lp1550
I190806
aF144.578
aF592.815
aVp1
p1551
aS'utopia'
p1552
aS'#656565'
p1553
aF8.88595
aI0
aI00
aI00
aI00
aI00
aI00
aI00
aI00
aI00
aa(lp1554
I80902
aF158.647
aF592.815
aVp1
p1555
aS'utopia'
p1556
aS'#656565'
p1557
aF8.88595
aI0
aI01
aI00
aI00
aI00
aI00
aI00
aI00
aI00
aa(lp1558
I85218
aF200.115
aF592.815
aVp1
p1559
aS'utopia'
p1560
aS'#656565'
p1561
aF8.88595
aI0
aI00
aI00
aI00
aI00
aI00
aI00
aI00
aI00
aa(lp1562
I90075
aF217.146
aF592.815
aVp1
p1563
aS'utopia'
p1564
aS'#656565'
p1565
aF8.88595
aI0
aI01
aI00
aI00
aI00
aI00
aI00
aI00
aI00
aa(lp1566
I163414
aF240.842
aF592.815
aVp1
p1567
aS'utopia'
p1568
aS'#656565'
p1569
aF8.88595
aI0
aI01
aI00
aI00
aI00
aI00
aI00
aI00
aI00
aa(lp1570
I234378
aF279.348
aF592.815
aVp1
p1571
aS'utopia'
p1572
aS'#656565'
p1573
aF8.88595
aI0
aI00
aI00
aI00
aI00
aI00
aI00
aI00
aI00
aa(lp1574
I197030
aF285.272
aF592.815
aVp1
p1575
aS'utopia'
p1576
aS'#656565'
p1577
aF8.88595
aI0
aI01
aI01
aI00
aI00
aI00
aI00
aI00
aI00
aa(lp1578
I209115
aF290.456
aF592.815
aVp1
p1579
aS'utopia'
p1580
aS'#656565'
p1581
aF8.88595
aI0
aI00
aI00
aI00
aI00
aI00
aI00
aI00
aI00
aa(lp1582
I60534
aF307.487
aF592.815
aVp1
p1583
aS'utopia'
p1584
aS'#656565'
p1585
aF8.88595
aI0
aI00
aI00
aI00
aI00
aI00
aI00
aI00
aI00
aa(lp1586
I105322
aF325.259
aF592.815
aVp1
p1587
aS'utopia'
p1588
aS'#656565'
p1589
aF8.88595
aI0
aI00
aI00
aI00
aI00
aI00
aI00
aI00
aI00
aa(lp1590
I135639
aF360.803
aF592.815
aVp1
p1591
aS'utopia'
p1592
aS'#656565'
p1593
aF8.88595
aI0
aI00
aI00
aI00
aI00
aI00
aI00
aI00
aI00
aa(lp1594
I68032
aF370.429
aF592.815
aVp1
p1595
aS'utopia'
p1596
aS'#656565'
p1597
aF8.88595
aI0
aI00
aI00
aI00
aI00
aI00
aI00
aI00
aI00
aa(lp1598
I144489
aF424.485
aF592.815
aVp1
p1599
aS'utopia'
p1600
aS'#656565'
p1601
aF8.88595
aI0
aI00
aI00
aI00
aI00
aI00
aI00
aI00
aI00
aa(lp1602
I234378
aF434.852
aF592.815
aVp1
p1603
aS'utopia'
p1604
aS'#656565'
p1605
aF8.88595
aI0
aI00
aI00
aI00
aI00
aI00
aI00
aI00
aI00
aa(lp1606
I234378
aF478.0404545454545
aF592.815
ag1603
aS'utopia'
p1607
aS'#656565'
p1608
aF8.88595
aI0
aI00
aI00
aI00
aI00
aI00
aI00
aI00
aI00
aa(lp1609
I234378
aF484.465
aF592.815
aVp1
p1610
aS'utopia'
p1611
aS'#656565'
p1612
aF8.88595
aI0
aI00
aI00
aI00
aI00
aI00
aI00
aI00
aI00
aa(lp1613
I234378
aF508.161
aF592.815
aVp1
p1614
aS'utopia'
p1615
aS'#656565'
p1616
aF8.88595
aI0
aI00
aI00
aI00
aI00
aI00
aI00
aI00
aI00
aa(lp1617
I234378
aF511.7150555555556
aF592.815
ag1614
aS'utopia'
p1618
aS'#656565'
p1619
aF8.88595
aI0
aI00
aI00
aI00
aI00
aI00
aI00
aI00
aI00
aa(lp1620
I135639
aF542.224
aF592.815
aVp1
p1621
aS'utopia'
p1622
aS'#656565'
p1623
aF8.88595
aI0
aI00
aI00
aI00
aI00
aI00
aI00
aI00
aI00
aa(lp1624
I234378
aF40.9084
aF603.182
aVp1
p1625
aS'utopia'
p1626
aS'#656565'
p1627
aF8.88595
aI0
aI01
aI01
aI00
aI00
aI00
aI00
aI00
aI00
aa(lp1628
I234378
aF55.7183
aF603.182
aVp1
p1629
aS'utopia'
p1630
aS'#656565'
p1631
aF8.88595
aI0
aI00
aI00
aI00
aI00
aI00
aI00
aI00
aI00
aa(lp1632
I17350
aF61.6423
aF603.182
aVp1
p1633
aS'utopia'
p1634
aS'#656565'
p1635
aF8.88595
aI0
aI01
aI00
aI00
aI00
aI00
aI00
aI00
aI00
aa(lp1636
I234378
aF81.6357
aF603.182
aVp1
p1637
aS'utopia'
p1638
aS'#656565'
p1639
aF8.88595
aI0
aI00
aI00
aI00
aI00
aI00
aI00
aI00
aI00
aa(lp1640
I83126
aF114.958
aF603.182
aVp1
p1641
aS'utopia'
p1642
aS'#656565'
p1643
aF8.88595
aI0
aI01
aI00
aI00
aI00
aI00
aI00
aI00
aI00
aa(lp1644
I135639
aF180.862
aF603.182
aVp1
p1645
aS'utopia'
p1646
aS'#656565'
p1647
aF8.88595
aI0
aI00
aI00
aI00
aI00
aI00
aI00
aI00
aI00
aa(lp1648
I148996
aF190.489
aF603.182
aVp1
p1649
aS'utopia'
p1650
aS'#656565'
p1651
aF8.88595
aI0
aI01
aI00
aI00
aI00
aI00
aI00
aI00
aI00
aa(lp1652
I115769
aF217.887
aF603.182
aVp1
p1653
aS'utopia'
p1654
aS'#656565'
p1655
aF8.88595
aI0
aI01
aI00
aI00
aI00
aI00
aI00
aI00
aI00
aa(lp1656
I234378
aF266.019
aF603.182
aVp1
p1657
aS'utopia'
p1658
aS'#656565'
p1659
aF8.88595
aI0
aI00
aI00
aI00
aI00
aI00
aI00
aI00
aI00
aa(lp1660
I234378
aF269.992
aF603.182
ag1657
aS'utopia'
p1661
aS'#656565'
p1662
aF8.88595
aI0
aI00
aI00
aI00
aI00
aI00
aI00
aI00
aI00
aa(lp1663
I77592
aF291.937
aF603.182
aVp1
p1664
aS'utopia'
p1665
aS'#656565'
p1666
aF8.88595
aI0
aI01
aI00
aI00
aI00
aI00
aI00
aI00
aI00
aa(lp1667
I74910
aF323.778
aF603.182
aVp1
p1668
aS'utopia'
p1669
aS'#656565'
p1670
aF8.88595
aI0
aI01
aI01
aI00
aI00
aI00
aI00
aI00
aI00
aa(lp1671
I234378
aF339.65226666666666
aF603.182
ag1668
aS'utopia'
p1672
aS'#656565'
p1673
aF8.88595
aI0
aI00
aI00
aI00
aI00
aI00
aI00
aI00
aI00
aa(lp1674
I234378
aF343.62083333333334
aF603.182
ag1668
aS'utopia'
p1675
aS'#656565'
p1676
aF8.88595
aI0
aI00
aI00
aI00
aI00
aI00
aI00
aI00
aI00
aa(lp1677
I234378
aF349.695
aF603.182
aVp1
p1678
aS'utopia'
p1679
aS'#656565'
p1680
aF8.88595
aI0
aI00
aI00
aI00
aI00
aI00
aI00
aI00
aI00
aa(lp1681
I234378
aF355.619
aF603.182
aVp1
p1682
aS'utopia'
p1683
aS'#656565'
p1684
aF8.88595
aI0
aI01
aI01
aI00
aI00
aI00
aI00
aI00
aI00
aa(lp1685
I190806
aF375.613
aF603.182
aVp1
p1686
aS'utopia'
p1687
aS'#656565'
p1688
aF8.88595
aI0
aI00
aI00
aI00
aI00
aI00
aI00
aI00
aI00
aa(lp1689
I234378
aF389.682
aF603.182
aVp1
p1690
aS'utopia'
p1691
aS'#656565'
p1692
aF8.88595
aI0
aI01
aI00
aI00
aI00
aI00
aI00
aI00
aI00
aa(lp1693
I234378
aF423.745
aF603.182
aVp1
p1694
aS'utopia'
p1695
aS'#656565'
p1696
aF8.88595
aI0
aI00
aI00
aI00
aI00
aI00
aI00
aI00
aI00
aa(lp1697
I234378
aF428.5305777777778
aF603.182
ag1694
aS'utopia'
p1698
aS'#656565'
p1699
aF8.88595
aI0
aI01
aI00
aI00
aI00
aI00
aI00
aI00
aI00
aa(lp1700
I234378
aF462.02962222222226
aF603.182
ag1694
aS'utopia'
p1701
aS'#656565'
p1702
aF8.88595
aI0
aI00
aI00
aI00
aI00
aI00
aI00
aI00
aI00
aa(lp1703
I83126
aF468.915
aF603.182
aVp1
p1704
aS'utopia'
p1705
aS'#656565'
p1706
aF8.88595
aI0
aI01
aI00
aI00
aI00
aI00
aI00
aI00
aI00
aa(lp1707
I234378
aF530.5332933333334
aF603.182
ag1704
aS'utopia'
p1708
aS'#656565'
p1709
aF8.88595
aI0
aI00
aI00
aI00
aI00
aI00
aI00
aI00
aI00
aa(lp1710
I234378
aF537.041
aF603.182
aVp1
p1711
aS'utopia'
p1712
aS'#656565'
p1713
aF8.88595
aI0
aI00
aI00
aI00
aI00
aI00
aI00
aI00
aI00
aa(lp1714
I234378
aF40.9084
aF613.549
aVp1
p1715
aS'utopia'
p1716
aS'#656565'
p1717
aF8.88595
aI0
aI01
aI01
aI00
aI00
aI00
aI00
aI00
aI00
aa(lp1718
I190806
aF60.9018
aF613.549
aVp1
p1719
aS'utopia'
p1720
aS'#656565'
p1721
aF8.88595
aI0
aI00
aI00
aI00
aI00
aI00
aI00
aI00
aI00
aa(lp1722
I141687
aF74.9712
aF613.549
aVp1
p1723
aS'utopia'
p1724
aS'#656565'
p1725
aF8.88595
aI0
aI01
aI00
aI00
aI00
aI00
aI00
aI00
aI00
aa(lp1726
I169745
aF120.882
aF613.549
aVp1
p1727
aS'utopia'
p1728
aS'#656565'
p1729
aF8.88595
aI0
aI00
aI00
aI00
aI00
aI00
aI00
aI00
aI00
aa(lp1730
I234378
aF140.135
aF613.549
aVp1
p1731
aS'utopia'
p1732
aS'#656565'
p1733
aF8.88595
aI0
aI00
aI00
aI00
aI00
aI00
aI00
aI00
aI00
aa(lp1734
I80365
aF144.22475
aF613.549
ag1731
aS'utopia'
p1735
aS'#656565'
p1736
aF8.88595
aI0
aI01
aI00
aI00
aI00
aI00
aI00
aI00
aI00
aa(lp1737
I56511
aF158.647
aF613.549
aVp1
p1738
aS'utopia'
p1739
aS'#656565'
p1740
aF8.88595
aI0
aI01
aI00
aI00
aI00
aI00
aI00
aI00
aI00
aa(lp1741
I184870
aF183.084
aF613.549
aVp1
p1742
aS'utopia'
p1743
aS'#656565'
p1744
aF8.88595
aI0
aI00
aI00
aI00
aI00
aI00
aI00
aI00
aI00
aa(lp1745
I17350
aF217.146
aF613.549
aVp1
p1746
aS'utopia'
p1747
aS'#656565'
p1748
aF8.88595
aI0
aI00
aI00
aI00
aI00
aI00
aI00
aI00
aI00
aa(lp1749
I234378
aF235.659
aF613.549
aVp1
p1750
aS'utopia'
p1751
aS'#656565'
p1752
aF8.88595
aI0
aI00
aI00
aI00
aI00
aI00
aI00
aI00
aI00
aa(lp1753
I234378
aF268.981
aF613.549
aVp1
p1754
aS'utopia'
p1755
aS'#656565'
p1756
aF8.88595
aI0
aI00
aI00
aI00
aI00
aI00
aI00
aI00
aI00
aa(lp1757
I105322
aF274.905
aF613.549
aVp1
p1758
aS'utopia'
p1759
aS'#656565'
p1760
aF8.88595
aI0
aI01
aI00
aI00
aI00
aI00
aI00
aI00
aI00
aa(lp1761
I135639
aF311.189
aF613.549
aVp1
p1762
aS'utopia'
p1763
aS'#656565'
p1764
aF8.88595
aI0
aI00
aI00
aI00
aI00
aI00
aI00
aI00
aI00
aa(lp1765
I234378
aF320.816
aF613.549
aVp1
p1766
aS'utopia'
p1767
aS'#656565'
p1768
aF8.88595
aI0
aI01
aI01
aI00
aI00
aI00
aI00
aI00
aI00
aa(lp1769
I121847
aF338.588
aF613.549
aVp1
p1770
aS'utopia'
p1771
aS'#656565'
p1772
aF8.88595
aI0
aI01
aI00
aI00
aI00
aI00
aI00
aI00
aI00
aa(lp1773
I234378
aF357.1
aF613.549
aVp1
p1774
aS'utopia'
p1775
aS'#656565'
p1776
aF8.88595
aI0
aI01
aI00
aI00
aI00
aI00
aI00
aI00
aI00
aa(lp1777
I234378
aF406.713
aF613.549
aVp1
p1778
aS'utopia'
p1779
aS'#656565'
p1780
aF8.88595
aI0
aI01
aI01
aI00
aI00
aI00
aI00
aI00
aI00
aa(lp1781
I234378
aF421.79467500000004
aF613.549
ag1778
aS'utopia'
p1782
aS'#656565'
p1783
aF8.88595
aI0
aI00
aI00
aI00
aI00
aI00
aI00
aI00
aI00
aa(lp1784
I234378
aF428.928
aF613.549
aVp1
p1785
aS'utopia'
p1786
aS'#656565'
p1787
aF8.88595
aI0
aI00
aI00
aI00
aI00
aI00
aI00
aI00
aI00
aa(lp1788
I113826
aF434.852
aF613.549
aVp1
p1789
aS'utopia'
p1790
aS'#656565'
p1791
aF8.88595
aI0
aI01
aI00
aI00
aI00
aI00
aI00
aI00
aI00
aa(lp1792
I53211
aF465.953
aF613.549
aVp1
p1793
aS'utopia'
p1794
aS'#656565'
p1795
aF8.88595
aI0
aI00
aI00
aI00
aI00
aI00
aI00
aI00
aI00
aa(lp1796
I234378
aF488.168
aF613.549
aVp1
p1797
aS'utopia'
p1798
aS'#656565'
p1799
aF8.88595
aI0
aI00
aI00
aI00
aI00
aI00
aI00
aI00
aI00
aa(lp1800
I234378
aF516.307
aF613.549
aVp1
p1801
aS'utopia'
p1802
aS'#656565'
p1803
aF8.88595
aI0
aI00
aI00
aI00
aI00
aI00
aI00
aI00
aI00
aa(lp1804
I112275
aF522.231
aF613.549
aVp1
p1805
aS'utopia'
p1806
aS'#656565'
p1807
aF8.88595
aI0
aI01
aI00
aI00
aI00
aI00
aI00
aI00
aI00
aa(lp1808
I121847
aF40.9084
aF623.916
aVp1
p1809
aS'utopia'
p1810
aS'#656565'
p1811
aF8.88595
aI0
aI00
aI00
aI00
aI00
aI00
aI00
aI00
aI00
aa(lp1812
I234378
aF57.1993
aF623.916
aVp1
p1813
aS'utopia'
p1814
aS'#656565'
p1815
aF8.88595
aI0
aI00
aI00
aI00
aI00
aI00
aI00
aI00
aI00
aa(lp1816
I144690
aF80.1547
aF623.916
aVp1
p1817
aS'utopia'
p1818
aS'#656565'
p1819
aF8.88595
aI0
aI00
aI00
aI00
aI00
aI00
aI00
aI00
aI00
aa(lp1820
I190806
aF107.553
aF623.916
aVp1
p1821
aS'utopia'
p1822
aS'#656565'
p1823
aF8.88595
aI0
aI00
aI00
aI00
aI00
aI00
aI00
aI00
aI00
aa(lp1824
I41890
aF121.622
aF623.916
aVp1
p1825
aS'utopia'
p1826
aS'#656565'
p1827
aF8.88595
aI0
aI00
aI00
aI00
aI00
aI00
aI00
aI00
aI00
aa(lp1828
I194354
aF132.73
aF623.916
aVp1
p1829
aS'utopia'
p1830
aS'#656565'
p1831
aF8.88595
aI0
aI00
aI00
aI00
aI00
aI00
aI00
aI00
aI00
aa(lp1832
I234378
aF147.54
aF623.916
aVp1
p1833
aS'utopia'
p1834
aS'#656565'
p1835
aF8.88595
aI0
aI01
aI01
aI00
aI00
aI00
aI00
aI00
aI00
aa(lp1836
I59734
aF160.6231
aF623.916
ag1833
aS'utopia'
p1837
aS'#656565'
p1838
aF8.88595
aI0
aI00
aI00
aI00
aI00
aI00
aI00
aI00
aI00
aa(lp1839
I190806
aF169.755
aF623.916
aVp1
p1840
aS'utopia'
p1841
aS'#656565'
p1842
aF8.88595
aI0
aI00
aI00
aI00
aI00
aI00
aI00
aI00
aI00
aa(lp1843
I234378
aF183.824
aF623.916
aVp1
p1844
aS'utopia'
p1845
aS'#656565'
p1846
aF8.88595
aI0
aI00
aI00
aI00
aI00
aI00
aI00
aI00
aI00
aa(lp1847
I89480
aF200.856
aF623.916
aVp1
p1848
aS'utopia'
p1849
aS'#656565'
p1850
aF8.88595
aI0
aI00
aI00
aI00
aI00
aI00
aI00
aI00
aI00
aa(lp1851
I234378
aF211.222
aF623.916
aVp1
p1852
aS'utopia'
p1853
aS'#656565'
p1854
aF8.88595
aI0
aI00
aI00
aI00
aI00
aI00
aI00
aI00
aI00
aa(lp1855
I125078
aF228.254
aF623.916
aVp1
p1856
aS'utopia'
p1857
aS'#656565'
p1858
aF8.88595
aI0
aI00
aI00
aI00
aI00
aI00
aI00
aI00
aI00
aa(lp1859
I234378
aF252.9766
aF623.916
ag1856
aS'utopia'
p1860
aS'#656565'
p1861
aF8.88595
aI0
aI00
aI00
aI00
aI00
aI00
aI00
aI00
aI00
aa(lp1862
I234378
aF258.614
aF623.916
aVp1
p1863
aS'utopia'
p1864
aS'#656565'
p1865
aF8.88595
aI0
aI00
aI00
aI00
aI00
aI00
aI00
aI00
aI00
aa(lp1866
I71646
aF264.538
aF623.916
aVp1
p1867
aS'utopia'
p1868
aS'#656565'
p1869
aF8.88595
aI0
aI01
aI00
aI00
aI00
aI00
aI00
aI00
aI00
aa(lp1870
I31703
aF292.677
aF623.916
aVp1
p1871
aS'utopia'
p1872
aS'#656565'
p1873
aF8.88595
aI0
aI01
aI00
aI00
aI00
aI00
aI00
aI00
aI00
aa(lp1874
I234378
aF314.9909142857143
aF623.916
ag1871
aS'utopia'
p1875
aS'#656565'
p1876
aF8.88595
aI0
aI00
aI00
aI00
aI00
aI00
aI00
aI00
aI00
aa(lp1877
I234378
aF320.816
aF623.916
aVp1
p1878
aS'utopia'
p1879
aS'#656565'
p1880
aF8.88595
aI0
aI00
aI00
aI00
aI00
aI00
aI00
aI00
aI00
aa(lp1881
I105322
aF326.74
aF623.916
aVp1
p1882
aS'utopia'
p1883
aS'#656565'
p1884
aF8.88595
aI0
aI01
aI00
aI00
aI00
aI00
aI00
aI00
aI00
aa(lp1885
I135639
aF363.024
aF623.916
aVp1
p1886
aS'utopia'
p1887
aS'#656565'
p1888
aF8.88595
aI0
aI00
aI00
aI00
aI00
aI00
aI00
aI00
aI00
aa(lp1889
I68032
aF372.651
aF623.916
aVp1
p1890
aS'utopia'
p1891
aS'#656565'
p1892
aF8.88595
aI0
aI00
aI00
aI00
aI00
aI00
aI00
aI00
aI00
aa(lp1893
I144489
aF426.707
aF623.916
aVp1
p1894
aS'utopia'
p1895
aS'#656565'
p1896
aF8.88595
aI0
aI00
aI00
aI00
aI00
aI00
aI00
aI00
aI00
aa(lp1897
I234378
aF437.074
aF623.916
aVp1
p1898
aS'utopia'
p1899
aS'#656565'
p1900
aF8.88595
aI0
aI00
aI00
aI00
aI00
aI00
aI00
aI00
aI00
aa(lp1901
I234378
aF485.206
aF623.916
aVp1
p1902
aS'utopia'
p1903
aS'#656565'
p1904
aF8.88595
aI0
aI00
aI00
aI00
aI00
aI00
aI00
aI00
aI00
aa(lp1905
I190806
aF506.68
aF623.916
aVp1
p1906
aS'utopia'
p1907
aS'#656565'
p1908
aF8.88595
aI0
aI00
aI00
aI00
aI00
aI00
aI00
aI00
aI00
aa(lp1909
I15387
aF40.9084
aF634.283
aVp1
p1910
aS'utopia'
p1911
aS'#656565'
p1912
aF8.88595
aI0
aI00
aI00
aI00
aI00
aI00
aI00
aI00
aI00
aa(lp1913
I51694
aF77.9332
aF634.283
aVp1
p1914
aS'utopia'
p1915
aS'#656565'
p1916
aF8.88595
aI0
aI00
aI00
aI00
aI00
aI00
aI00
aI00
aI00
aa(lp1917
I51933
aF109.775
aF634.283
aVp1
p1918
aS'utopia'
p1919
aS'#656565'
p1920
aF8.88595
aI0
aI00
aI00
aI00
aI00
aI00
aI00
aI00
aI00
aa(lp1921
I234378
aF131.989
aF634.283
aVp1
p1922
aS'utopia'
p1923
aS'#656565'
p1924
aF8.88595
aI0
aI00
aI00
aI00
aI00
aI00
aI00
aI00
aI00
aa(lp1925
I234378
aF137.913
aF634.283
aVp1
p1926
aS'utopia'
p1927
aS'#656565'
p1928
aF8.88595
aI0
aI01
aI00
aI00
aI00
aI00
aI00
aI00
aI00
aa(lp1929
I25729
aF191.97
aF634.283
aVp1
p1930
aS'utopia'
p1931
aS'#656565'
p1932
aF8.88595
aI0
aI01
aI00
aI00
aI00
aI00
aI00
aI00
aI00
aa(lp1933
I234378
aF209.83432
aF634.283
ag1930
aS'utopia'
p1934
aS'#656565'
p1935
aF8.88595
aI0
aI00
aI00
aI00
aI00
aI00
aI00
aI00
aI00
aa(lp1936
I21716
aF216.406
aF634.283
aVp1
p1937
aS'utopia'
p1938
aS'#656565'
p1939
aF8.88595
aI0
aI01
aI00
aI00
aI00
aI00
aI00
aI00
aI00
aa(lp1940
I234378
aF231.30832
aF634.283
ag1937
aS'utopia'
p1941
aS'#656565'
p1942
aF8.88595
aI0
aI00
aI00
aI00
aI00
aI00
aI00
aI00
aI00
aa(lp1943
I234378
aF237.14
aF634.283
aVp1
p1944
aS'utopia'
p1945
aS'#656565'
p1946
aF8.88595
aI0
aI01
aI00
aI01
aI00
aI00
aI00
aI00
aI00
aa(lp1947
I234378
aF274.56497
aF634.283
ag1944
aS'utopia'
p1948
aS'#656565'
p1949
aF8.88595
aI0
aI00
aI00
aI00
aI00
aI00
aI00
aI00
aI00
aa(lp1950
I55029
aF280.829
aF634.283
aVp1
p1951
aS'utopia'
p1952
aS'#656565'
p1953
aF8.88595
aI0
aI01
aI01
aI00
aI00
aI00
aI00
aI00
aI00
aa(lp1954
I234378
aF301.563
aF634.283
aVp1
p1955
aS'utopia'
p1956
aS'#656565'
p1957
aF8.88595
aI0
aI00
aI00
aI01
aI01
aI00
aI00
aI00
aI00
aa(lp1958
I234378
aF304.9241
aF634.283
ag1955
aS'utopia'
p1959
aS'#656565'
p1960
aF8.88595
aI0
aI00
aI00
aI00
aI00
aI00
aI00
aI00
aI00
aa(lp1961
I234378
aF308.28520000000003
aF634.283
ag1955
aS'utopia'
p1962
aS'#656565'
p1963
aF8.88595
aI0
aI00
aI00
aI01
aI01
aI00
aI00
aI00
aI00
aa(lp1964
I234378
aF311.64630000000005
aF634.283
ag1955
aS'utopia'
p1965
aS'#656565'
p1966
aF8.88595
aI0
aI00
aI00
aI00
aI00
aI00
aI00
aI00
aI00
aa(lp1967
I209115
aF317.113
aF634.283
aVp1
p1968
aS'utopia'
p1969
aS'#656565'
p1970
aF8.88595
aI0
aI01
aI01
aI00
aI00
aI00
aI00
aI00
aI00
aa(lp1971
I234378
aF337.847
aF634.283
aVp1
p1972
aS'utopia'
p1973
aS'#656565'
p1974
aF8.88595
aI0
aI00
aI00
aI01
aI01
aI00
aI00
aI00
aI00
aa(lp1975
I234378
aF341.2081
aF634.283
ag1972
aS'utopia'
p1976
aS'#656565'
p1977
aF8.88595
aI0
aI00
aI00
aI00
aI00
aI00
aI00
aI00
aI00
aa(lp1978
I234378
aF344.5692
aF634.283
ag1972
aS'utopia'
p1979
aS'#656565'
p1980
aF8.88595
aI0
aI00
aI00
aI01
aI01
aI00
aI00
aI00
aI00
aa(lp1981
I234378
aF347.93030000000005
aF634.283
ag1972
aS'utopia'
p1982
aS'#656565'
p1983
aF8.88595
aI0
aI00
aI00
aI00
aI00
aI00
aI00
aI00
aI00
aa(lp1984
I148996
aF353.398
aF634.283
aVp1
p1985
aS'utopia'
p1986
aS'#656565'
p1987
aF8.88595
aI0
aI01
aI00
aI00
aI00
aI00
aI00
aI00
aI00
aa(lp1988
I234378
aF376.98134285714286
aF634.283
ag1985
aS'utopia'
p1989
aS'#656565'
p1990
aF8.88595
aI0
aI00
aI00
aI00
aI00
aI00
aI00
aI00
aI00
aa(lp1991
I176767
aF383.018
aF634.283
aVp1
p1992
aS'utopia'
p1993
aS'#656565'
p1994
aF8.88595
aI0
aI01
aI00
aI00
aI00
aI00
aI00
aI00
aI00
aa(lp1995
I234378
aF421.10942
aF634.283
ag1992
aS'utopia'
p1996
aS'#656565'
p1997
aF8.88595
aI0
aI00
aI00
aI00
aI00
aI00
aI00
aI00
aI00
aa(lp1998
I234378
aF427.447
aF634.283
aVp1
p1999
aS'utopia'
p2000
aS'#656565'
p2001
aF8.88595
aI0
aI01
aI00
aI00
aI00
aI00
aI00
aI00
aI00
aa(lp2002
I234378
aF452.624
aF634.283
aVp1
p2003
aS'utopia'
p2004
aS'#656565'
p2005
aF8.88595
aI0
aI00
aI00
aI01
aI01
aI00
aI00
aI00
aI00
aa(lp2006
I234378
aF455.98510000000005
aF634.283
ag2003
aS'utopia'
p2007
aS'#656565'
p2008
aF8.88595
aI0
aI00
aI00
aI00
aI00
aI00
aI00
aI00
aI00
aa(lp2009
I234378
aF459.34620000000007
aF634.283
ag2003
aS'utopia'
p2010
aS'#656565'
p2011
aF8.88595
aI0
aI00
aI00
aI01
aI01
aI00
aI00
aI00
aI00
aa(lp2012
I234378
aF462.7073000000001
aF634.283
ag2003
aS'utopia'
p2013
aS'#656565'
p2014
aF8.88595
aI0
aI00
aI00
aI00
aI00
aI00
aI00
aI00
aI00
aa(lp2015
I234378
aF468.175
aF634.283
aVp1
p2016
aS'utopia'
p2017
aS'#656565'
p2018
aF8.88595
aI0
aI01
aI00
aI00
aI00
aI00
aI00
aI00
aI00
aa(lp2019
I234378
aF505.978
aF634.283
ag2016
aS'utopia'
p2020
aS'#656565'
p2021
aF8.88595
aI0
aI00
aI00
aI00
aI00
aI00
aI00
aI00
aI00
aa(lp2022
I77592
aF511.864
aF634.283
aVp1
p2023
aS'utopia'
p2024
aS'#656565'
p2025
aF8.88595
aI0
aI01
aI00
aI00
aI00
aI00
aI00
aI00
aI00
aa(lp2026
I44279
aF40.9084
aF644.65
aVp1
p2027
aS'utopia'
p2028
aS'#656565'
p2029
aF8.88595
aI0
aI01
aI00
aI00
aI00
aI00
aI00
aI00
aI00
aa(lp2030
I234378
aF57.1993
aF644.65
aVp1
p2031
aS'utopia'
p2032
aS'#656565'
p2033
aF8.88595
aI0
aI00
aI00
aI01
aI01
aI00
aI00
aI00
aI00
aa(lp2034
I234378
aF60.5604
aF644.65
ag2031
aS'utopia'
p2035
aS'#656565'
p2036
aF8.88595
aI0
aI00
aI00
aI00
aI00
aI00
aI00
aI00
aI00
aa(lp2037
I234378
aF63.9215
aF644.65
ag2031
aS'utopia'
p2038
aS'#656565'
p2039
aF8.88595
aI0
aI00
aI00
aI01
aI01
aI00
aI00
aI00
aI00
aa(lp2040
I234378
aF67.2826
aF644.65
ag2031
aS'utopia'
p2041
aS'#656565'
p2042
aF8.88595
aI0
aI00
aI00
aI00
aI00
aI00
aI00
aI00
aI00
aa(lp2043
I234378
aF72.7498
aF644.65
aVp1
p2044
aS'utopia'
p2045
aS'#656565'
p2046
aF8.88595
aI0
aI01
aI00
aI00
aI00
aI00
aI00
aI00
aI00
aa(lp2047
I234378
aF91.35846666666666
aF644.65
ag2044
aS'utopia'
p2048
aS'#656565'
p2049
aF8.88595
aI0
aI00
aI00
aI00
aI00
aI00
aI00
aI00
aI00
aa(lp2050
I234378
aF97.1861
aF644.65
aVp1
p2051
aS'utopia'
p2052
aS'#656565'
p2053
aF8.88595
aI0
aI01
aI00
aI01
aI00
aI00
aI00
aI00
aI00
aa(lp2054
I234378
aF117.02893333333333
aF644.65
ag2051
aS'utopia'
p2055
aS'#656565'
p2056
aF8.88595
aI0
aI00
aI00
aI00
aI00
aI00
aI00
aI00
aI00
aa(lp2057
I234378
aF123.103
aF644.65
aVp1
p2058
aS'utopia'
p2059
aS'#656565'
p2060
aF8.88595
aI0
aI01
aI01
aI00
aI00
aI00
aI00
aI00
aI00
aa(lp2061
I234378
aF40.9084
aF677.865
aVp1
p2062
aS'utopia'
p2063
aS'#000000'
p2064
aF10.3669
aI1
aI01
aI00
aI00
aI00
aI00
aI00
aI00
aI00
aa(lp2065
I234378
aF80.1547
aF677.865
aVp1
p2066
aS'utopia'
p2067
aS'#000000'
p2068
aF10.3669
aI1
aI01
aI00
aI00
aI00
aI00
aI00
aI00
aI00
aa(lp2069
I234378
aF122.363
aF677.865
aVp1
p2070
aS'utopia'
p2071
aS'#000000'
p2072
aF10.3669
aI1
aI01
aI00
aI00
aI00
aI00
aI00
aI00
aI00
aa(lp2073
I234378
aF173.457
aF677.865
aVp1
p2074
aS'utopia'
p2075
aS'#000000'
p2076
aF10.3669
aI1
aI01
aI00
aI00
aI00
aI00
aI00
aI00
aI00
aa(lp2077
I234378
aF191.229
aF677.865
aVp1
p2078
aS'utopia'
p2079
aS'#000000'
p2080
aF10.3669
aI1
aI01
aI00
aI00
aI00
aI00
aI00
aI00
aI00
aa(lp2081
I149270
aF40.9084
aF694.426
aVp1
p2082
aS'utopia'
p2083
aS'#656565'
p2084
aF10.3669
aI0
aI01
aI00
aI00
aI00
aI00
aI00
aI00
aI00
aa(lp2085
I89147
aF89.7812
aF694.426
aVp1
p2086
aS'utopia'
p2087
aS'#656565'
p2088
aF10.3669
aI0
aI01
aI00
aI00
aI00
aI00
aI00
aI00
aI00
aa(lp2089
I37515
aF149.021
aF694.426
aVp1
p2090
aS'utopia'
p2091
aS'#656565'
p2092
aF10.3669
aI0
aI01
aI00
aI00
aI00
aI00
aI00
aI00
aI01
aa(lp2093
I234378
aF171.236
aF694.426
aVp1
p2094
aS'utopia'
p2095
aS'#656565'
p2096
aF10.3669
aI0
aI00
aI00
aI01
aI01
aI01
aI00
aI00
aI00
aa(lp2097
I89480
aF194.191
aF694.426
aVp1
p2098
aS'utopia'
p2099
aS'#656565'
p2100
aF10.3669
aI0
aI01
aI00
aI00
aI00
aI00
aI00
aI00
aI00
aa(lp2101
I234378
aF209.001
aF694.426
aVp1
p2102
aS'utopia'
p2103
aS'#656565'
p2104
aF10.3669
aI0
aI01
aI00
aI00
aI00
aI00
aI00
aI00
aI01
aa(lp2105
I234378
aF228.254
aF694.426
aVp1
p2106
aS'utopia'
p2107
aS'#656565'
p2108
aF10.3669
aI0
aI00
aI00
aI01
aI01
aI01
aI00
aI00
aI00
aa(lp2109
I234378
aF40.9084
aF714.256
aVp1
p2110
aS'utopia'
p2111
aS'#656565'
p2112
aF8.88595
aI0
aI01
aI01
aI00
aI00
aI00
aI00
aI00
aI00
aa(lp2113
I19068
aF55.7183
aF714.256
aVp1
p2114
aS'utopia'
p2115
aS'#656565'
p2116
aF8.88595
aI0
aI01
aI00
aI00
aI00
aI00
aI00
aI00
aI00
aa(lp2117
I113415
aF83.8572
aF714.256
aVp1
p2118
aS'utopia'
p2119
aS'#656565'
p2120
aF8.88595
aI0
aI01
aI00
aI00
aI00
aI00
aI00
aI00
aI00
aa(lp2121
I234378
aF101.629
aF714.256
aVp1
p2122
aS'utopia'
p2123
aS'#656565'
p2124
aF8.88595
aI0
aI01
aI00
aI00
aI00
aI00
aI00
aI00
aI00
aa(lp2125
I234378
aF112.82305000000001
aF714.256
ag2122
aS'utopia'
p2126
aS'#656565'
p2127
aF8.88595
aI0
aI00
aI00
aI00
aI00
aI00
aI00
aI00
aI00
aa(lp2128
I234378
aF118.66
aF714.256
aVp1
p2129
aS'utopia'
p2130
aS'#656565'
p2131
aF8.88595
aI0
aI01
aI00
aI00
aI00
aI00
aI00
aI00
aI00
aa(lp2132
I234378
aF130.409425
aF714.256
ag2129
aS'utopia'
p2133
aS'#656565'
p2134
aF8.88595
aI0
aI00
aI00
aI00
aI00
aI00
aI00
aI00
aI00
aa(lp2135
I234378
aF136.432
aF714.256
aVp1
p2136
aS'utopia'
p2137
aS'#656565'
p2138
aF8.88595
aI0
aI01
aI00
aI00
aI00
aI00
aI00
aI00
aI00
aa(lp2139
I234378
aF166.98594999999997
aF714.256
ag2136
aS'utopia'
p2140
aS'#656565'
p2141
aF8.88595
aI0
aI00
aI00
aI00
aI00
aI00
aI00
aI00
aI00
aa(lp2142
I234378
aF173.457
aF714.256
aVp1
p2143
aS'utopia'
p2144
aS'#656565'
p2145
aF8.88595
aI0
aI01
aI01
aI00
aI00
aI00
aI00
aI00
aI00
aa(lp2146
I234378
aF192.71
aF714.256
aVp1
p2147
aS'utopia'
p2148
aS'#656565'
p2149
aF8.88595
aI0
aI01
aI01
aI00
aI00
aI00
aI00
aI00
aI00
aa(lp2150
I234378
aF204.14126666666667
aF714.256
ag2147
aS'utopia'
p2151
aS'#656565'
p2152
aF8.88595
aI0
aI00
aI00
aI00
aI00
aI00
aI00
aI00
aI00
aa(lp2153
I126359
aF211.963
aF714.256
aVp1
p2154
aS'utopia'
p2155
aS'#656565'
p2156
aF8.88595
aI0
aI01
aI01
aI00
aI00
aI00
aI00
aI00
aI00
aa(lp2157
I234378
aF216.19271999999998
aF714.256
ag2154
aS'utopia'
p2158
aS'#656565'
p2159
aF8.88595
aI0
aI00
aI00
aI00
aI00
aI00
aI00
aI00
aI00
aa(lp2160
I59734
aF220.42243999999997
aF714.256
ag2154
aS'utopia'
p2161
aS'#656565'
p2162
aF8.88595
aI0
aI01
aI01
aI00
aI00
aI00
aI00
aI00
aI00
aa(lp2163
I234378
aF222.65215999999995
aF714.256
ag2154
aS'utopia'
p2164
aS'#656565'
p2165
aF8.88595
aI0
aI00
aI00
aI00
aI00
aI00
aI00
aI00
aI00
aa(lp2166
I166593
aF228.88187999999994
aF714.256
ag2154
aS'utopia'
p2167
aS'#656565'
p2168
aF8.88595
aI0
aI01
aI01
aI00
aI00
aI00
aI00
aI00
aI00
aa(lp2169
I234378
aF235.659
aF714.256
aVp1
p2170
aS'utopia'
p2171
aS'#656565'
p2172
aF8.88595
aI0
aI00
aI00
aI00
aI00
aI00
aI00
aI00
aI00
aa(lp2173
I37515
aF240.6618
aF714.256
ag2170
aS'utopia'
p2174
aS'#656565'
p2175
aF8.88595
aI0
aI01
aI00
aI00
aI00
aI00
aI00
aI00
aI01
aa(lp2176
I234378
aF257.874
aF714.256
aVp1
p2177
aS'utopia'
p2178
aS'#656565'
p2179
aF8.88595
aI0
aI00
aI00
aI01
aI01
aI01
aI00
aI00
aI00
aa(lp2180
I89480
aF277.867
aF714.256
aVp1
p2181
aS'utopia'
p2182
aS'#656565'
p2183
aF8.88595
aI0
aI00
aI00
aI00
aI00
aI00
aI00
aI00
aI00
aa(lp2184
I234378
aF288.234
aF714.256
aVp1
p2185
aS'utopia'
p2186
aS'#656565'
p2187
aF8.88595
aI0
aI01
aI00
aI00
aI00
aI00
aI00
aI00
aI01
aa(lp2188
I234378
aF304.525
aF714.256
aVp1
p2189
aS'utopia'
p2190
aS'#656565'
p2191
aF8.88595
aI0
aI00
aI00
aI01
aI01
aI01
aI00
aI00
aI00
aa(lp2192
I234378
aF321.20923999999997
aF714.256
ag2189
aS'utopia'
p2193
aS'#656565'
p2194
aF8.88595
aI0
aI00
aI00
aI00
aI00
aI00
aI00
aI00
aI00
aa(lp2195
I176435
aF327.48
aF714.256
aVp1
p2196
aS'utopia'
p2197
aS'#656565'
p2198
aF8.88595
aI0
aI01
aI00
aI00
aI00
aI00
aI00
aI00
aI00
aa(lp2199
I234378
aF343.56712000000005
aF714.256
ag2196
aS'utopia'
p2200
aS'#656565'
p2201
aF8.88595
aI0
aI00
aI00
aI00
aI00
aI00
aI00
aI00
aI00
aa(lp2202
I11208
aF349.695
aF714.256
aVp1
p2203
aS'utopia'
p2204
aS'#656565'
p2205
aF8.88595
aI0
aI01
aI00
aI00
aI00
aI00
aI00
aI00
aI00
aa(lp2206
I210461
aF388.941
aF714.256
aVp1
p2207
aS'utopia'
p2208
aS'#656565'
p2209
aF8.88595
aI0
aI01
aI00
aI00
aI00
aI00
aI00
aI00
aI00
aa(lp2210
I175409
aF413.378
aF714.256
aVp1
p2211
aS'utopia'
p2212
aS'#656565'
p2213
aF8.88595
aI0
aI01
aI00
aI00
aI00
aI00
aI00
aI00
aI00
aa(lp2214
I85218
aF434.852
aF714.256
aVp1
p2215
aS'utopia'
p2216
aS'#656565'
p2217
aF8.88595
aI0
aI00
aI00
aI00
aI00
aI00
aI00
aI00
aI00
aa(lp2218
I17350
aF451.884
aF714.256
aVp1
p2219
aS'utopia'
p2220
aS'#656565'
p2221
aF8.88595
aI0
aI01
aI00
aI00
aI00
aI00
aI00
aI00
aI00
aa(lp2222
I100815
aF471.877
aF714.256
aVp1
p2223
aS'utopia'
p2224
aS'#656565'
p2225
aF8.88595
aI0
aI01
aI00
aI00
aI00
aI00
aI00
aI00
aI00
aa(lp2226
I234378
aF40.9084
aF724.623
aVp1
p2227
aS'utopia'
p2228
aS'#656565'
p2229
aF8.88595
aI0
aI01
aI00
aI00
aI00
aI00
aI00
aI00
aI00
aa(lp2230
I105322
aF115.699
aF724.623
aVp1
p2231
aS'utopia'
p2232
aS'#656565'
p2233
aF8.88595
aI0
aI01
aI00
aI00
aI00
aI00
aI00
aI00
aI00
aa(lp2234
I135639
aF151.983
aF724.623
aVp1
p2235
aS'utopia'
p2236
aS'#656565'
p2237
aF8.88595
aI0
aI00
aI00
aI00
aI00
aI00
aI00
aI00
aI00
aa(lp2238
I166558
aF161.609
aF724.623
aVp1
p2239
aS'utopia'
p2240
aS'#656565'
p2241
aF8.88595
aI0
aI00
aI00
aI00
aI00
aI00
aI00
aI00
aI00
aa(lp2242
I234378
aF190.67326666666668
aF724.623
ag2239
aS'utopia'
p2243
aS'#656565'
p2244
aF8.88595
aI0
aI00
aI00
aI00
aI00
aI00
aI00
aI00
aI00
aa(lp2245
I144690
aF196.413
aF724.623
aVp1
p2246
aS'utopia'
p2247
aS'#656565'
p2248
aF8.88595
aI0
aI00
aI00
aI00
aI00
aI00
aI00
aI00
aI00
aa(lp2249
I234378
aF219.99634285714288
aF724.623
ag2246
aS'utopia'
p2250
aS'#656565'
p2251
aF8.88595
aI0
aI00
aI00
aI00
aI00
aI00
aI00
aI00
aI00
aa(lp2252
I234378
aF226.032
aF724.623
aVp1
p2253
aS'utopia'
p2254
aS'#656565'
p2255
aF8.88595
aI0
aI00
aI00
aI00
aI00
aI00
aI00
aI00
aI00
aa(lp2256
I234378
aF250.88477142857144
aF724.623
ag2253
aS'utopia'
p2257
aS'#656565'
p2258
aF8.88595
aI0
aI00
aI00
aI00
aI00
aI00
aI00
aI00
aI00
aa(lp2259
I24757
aF257.133
aF724.623
aVp1
p2260
aS'utopia'
p2261
aS'#656565'
p2262
aF8.88595
aI0
aI01
aI01
aI00
aI00
aI00
aI00
aI00
aI00
aa(lp2263
I234378
aF268.32705
aF724.623
ag2260
aS'utopia'
p2264
aS'#656565'
p2265
aF8.88595
aI0
aI00
aI00
aI00
aI00
aI00
aI00
aI00
aI00
aa(lp2266
I234378
aF274.165
aF724.623
aVp1
p2267
aS'utopia'
p2268
aS'#656565'
p2269
aF8.88595
aI0
aI01
aI01
aI00
aI00
aI00
aI00
aI00
aI00
aa(lp2270
I85218
aF294.158
aF724.623
aVp1
p2271
aS'utopia'
p2272
aS'#656565'
p2273
aF8.88595
aI0
aI00
aI00
aI00
aI00
aI00
aI00
aI00
aI00
aa(lp2274
I147316
aF311.189
aF724.623
aVp1
p2275
aS'utopia'
p2276
aS'#656565'
p2277
aF8.88595
aI0
aI00
aI00
aI00
aI00
aI00
aI00
aI00
aI00
aa(lp2278
I105322
aF356.36
aF724.623
aVp1
p2279
aS'utopia'
p2280
aS'#656565'
p2281
aF8.88595
aI0
aI01
aI00
aI00
aI00
aI00
aI00
aI00
aI00
aa(lp2282
I135639
aF392.644
aF724.623
aVp1
p2283
aS'utopia'
p2284
aS'#656565'
p2285
aF8.88595
aI0
aI00
aI00
aI00
aI00
aI00
aI00
aI00
aI00
aa(lp2286
I194354
aF402.27
aF724.623
aVp1
p2287
aS'utopia'
p2288
aS'#656565'
p2289
aF8.88595
aI0
aI00
aI00
aI00
aI00
aI00
aI00
aI00
aI00
aa(lp2290
I128026
aF417.08
aF724.623
aVp1
p2291
aS'utopia'
p2292
aS'#656565'
p2293
aF8.88595
aI0
aI00
aI00
aI00
aI00
aI00
aI00
aI00
aI00
aa(lp2294
I144489
aF448.922
aF724.623
aVp1
p2295
aS'utopia'
p2296
aS'#656565'
p2297
aF8.88595
aI0
aI00
aI00
aI00
aI00
aI00
aI00
aI00
aI00
aa(lp2298
I234378
aF459.289
aF724.623
aVp1
p2299
aS'utopia'
p2300
aS'#656565'
p2301
aF8.88595
aI0
aI01
aI01
aI00
aI00
aI00
aI00
aI00
aI00
aa(lp2302
I190806
aF479.282
aF724.623
aVp1
p2303
aS'utopia'
p2304
aS'#656565'
p2305
aF8.88595
aI0
aI00
aI00
aI00
aI00
aI00
aI00
aI00
aI00
aa(lp2306
I64620
aF493.351
aF724.623
aVp1
p2307
aS'utopia'
p2308
aS'#656565'
p2309
aF8.88595
aI0
aI00
aI00
aI00
aI00
aI00
aI00
aI00
aI00
aa(lp2310
I234378
aF498.4809888888889
aF724.623
ag2307
aS'utopia'
p2311
aS'#656565'
p2312
aF8.88595
aI0
aI00
aI00
aI00
aI00
aI00
aI00
aI00
aI00
aa(lp2313
I89480
aF532.598
aF724.623
aVp1
p2314
aS'utopia'
p2315
aS'#656565'
p2316
aF8.88595
aI0
aI00
aI00
aI00
aI00
aI00
aI00
aI00
aI00
aa(lp2317
I234378
aF40.9084
aF734.99
aVp1
p2318
aS'utopia'
p2319
aS'#656565'
p2320
aF8.88595
aI0
aI01
aI01
aI00
aI00
aI00
aI00
aI00
aI00
aa(lp2321
I173243
aF63.1233
aF734.99
aVp1
p2322
aS'utopia'
p2323
aS'#656565'
p2324
aF8.88595
aI0
aI00
aI00
aI00
aI00
aI00
aI00
aI00
aI00
aa(lp2325
I62679
aF120.882
aF734.99
aVp1
p2326
aS'utopia'
p2327
aS'#656565'
p2328
aF8.88595
aI0
aI01
aI00
aI00
aI00
aI00
aI00
aI00
aI00
aa(lp2329
I135639
aF173.457
aF734.99
aVp1
p2330
aS'utopia'
p2331
aS'#656565'
p2332
aF8.88595
aI0
aI00
aI00
aI00
aI00
aI00
aI00
aI00
aI00
aa(lp2333
I234378
aF183.084
aF734.99
aVp1
p2334
aS'utopia'
p2335
aS'#656565'
p2336
aF8.88595
aI0
aI00
aI00
aI00
aI00
aI00
aI00
aI00
aI00
aa(lp2337
I98580
aF206.039
aF734.99
aVp1
p2338
aS'utopia'
p2339
aS'#656565'
p2340
aF8.88595
aI0
aI00
aI00
aI00
aI00
aI00
aI00
aI00
aI00
aa(lp2341
I202216
aF248.247
aF734.99
aVp1
p2342
aS'utopia'
p2343
aS'#656565'
p2344
aF8.88595
aI0
aI00
aI00
aI00
aI00
aI00
aI00
aI00
aI00
aa(lp2345
I234378
aF300.082
aF734.99
aVp1
p2346
aS'utopia'
p2347
aS'#656565'
p2348
aF8.88595
aI0
aI00
aI00
aI00
aI00
aI00
aI00
aI00
aI00
aa(lp2349
I234378
aF341.55
aF734.99
aVp1
p2350
aS'utopia'
p2351
aS'#656565'
p2352
aF8.88595
aI0
aI01
aI00
aI00
aI00
aI00
aI00
aI00
aI00
aa(lp2353
I177958
aF387.46
aF734.99
aVp1
p2354
aS'utopia'
p2355
aS'#656565'
p2356
aF8.88595
aI0
aI00
aI00
aI00
aI00
aI00
aI00
aI00
aI00
aa(lp2357
I144483
aF417.821
aF734.99
aVp1
p2358
aS'utopia'
p2359
aS'#656565'
p2360
aF8.88595
aI0
aI00
aI00
aI00
aI00
aI00
aI00
aI00
aI00
aa(lp2361
I230071
aF430.409
aF734.99
aVp1
p2362
aS'utopia'
p2363
aS'#656565'
p2364
aF8.88595
aI0
aI00
aI00
aI00
aI00
aI00
aI00
aI00
aI00
aa(lp2365
I35885
aF450.403
aF734.99
aVp1
p2366
aS'utopia'
p2367
aS'#656565'
p2368
aF8.88595
aI0
aI00
aI00
aI00
aI00
aI00
aI00
aI00
aI00
aa(lp2369
I144483
aF475.579
aF734.99
aVp1
p2370
aS'utopia'
p2371
aS'#656565'
p2372
aF8.88595
aI0
aI00
aI00
aI00
aI00
aI00
aI00
aI00
aI00
aa(lp2373
I194354
aF488.168
aF734.99
aVp1
p2374
aS'utopia'
p2375
aS'#656565'
p2376
aF8.88595
aI0
aI00
aI00
aI00
aI00
aI00
aI00
aI00
aI00
aa(lp2377
I177958
aF502.978
aF734.99
aVp1
p2378
aS'utopia'
p2379
aS'#656565'
p2380
aF8.88595
aI0
aI00
aI00
aI00
aI00
aI00
aI00
aI00
aI00
aa(lp2381
I234378
aF40.9084
aF745.357
aVp1
p2382
aS'utopia'
p2383
aS'#656565'
p2384
aF8.88595
aI0
aI00
aI00
aI00
aI00
aI00
aI00
aI00
aI00
aa(lp2385
I177828
aF89.0407
aF745.357
aVp1
p2386
aS'utopia'
p2387
aS'#656565'
p2388
aF8.88595
aI0
aI01
aI00
aI00
aI00
aI00
aI00
aI00
aI00
aa(lp2389
I154322
aF103.68952666666667
aF745.357
ag2386
aS'utopia'
p2390
aS'#656565'
p2391
aF8.88595
aI0
aI00
aI00
aI00
aI00
aI00
aI00
aI00
aI00
aa(lp2392
I89480
aF142.356
aF745.357
aVp1
p2393
aS'utopia'
p2394
aS'#656565'
p2395
aF8.88595
aI0
aI00
aI00
aI00
aI00
aI00
aI00
aI00
aI00
aa(lp2396
I2028
aF152.723
aF745.357
aVp1
p2397
aS'utopia'
p2398
aS'#656565'
p2399
aF8.88595
aI0
aI00
aI00
aI00
aI00
aI00
aI00
aI00
aI00
aa(lp2400
I85218
aF174.938
aF745.357
aVp1
p2401
aS'utopia'
p2402
aS'#656565'
p2403
aF8.88595
aI0
aI00
aI00
aI00
aI00
aI00
aI00
aI00
aI00
aa(lp2404
I131013
aF191.97
aF745.357
aVp1
p2405
aS'utopia'
p2406
aS'#656565'
p2407
aF8.88595
aI0
aI00
aI00
aI00
aI00
aI00
aI00
aI00
aI00
aa(lp2408
I234378
aF235.659
aF745.357
aVp1
p2409
aS'utopia'
p2410
aS'#656565'
p2411
aF8.88595
aI0
aI01
aI00
aI00
aI00
aI00
aI00
aI00
aI00
aa(lp2412
I109247
aF272.684
aF745.357
aVp1
p2413
aS'utopia'
p2414
aS'#656565'
p2415
aF8.88595
aI0
aI00
aI00
aI00
aI00
aI00
aI00
aI00
aI00
aa(lp2416
I144489
aF301.563
aF745.357
aVp1
p2417
aS'utopia'
p2418
aS'#656565'
p2419
aF8.88595
aI0
aI00
aI00
aI00
aI00
aI00
aI00
aI00
aI00
aa(lp2420
I51933
aF311.93
aF745.357
aVp1
p2421
aS'utopia'
p2422
aS'#656565'
p2423
aF8.88595
aI0
aI00
aI00
aI00
aI00
aI00
aI00
aI00
aI00
aa(lp2424
I184870
aF334.145
aF745.357
aVp1
p2425
aS'utopia'
p2426
aS'#656565'
p2427
aF8.88595
aI0
aI00
aI00
aI00
aI00
aI00
aI00
aI00
aI00
aa(lp2428
I234378
aF368.208
aF745.357
aVp1
p2429
aS'utopia'
p2430
aS'#656565'
p2431
aF8.88595
aI0
aI01
aI01
aI00
aI00
aI00
aI00
aI00
aI00
aa(lp2432
I85218
aF383.018
aF745.357
aVp1
p2433
aS'utopia'
p2434
aS'#656565'
p2435
aF8.88595
aI0
aI00
aI00
aI00
aI00
aI00
aI00
aI00
aI00
aa(lp2436
I221291
aF400.049
aF745.357
aVp1
p2437
aS'utopia'
p2438
aS'#656565'
p2439
aF8.88595
aI0
aI00
aI00
aI00
aI00
aI00
aI00
aI00
aI00
aa(lp2440
I56042
aF421.523
aF745.357
aVp1
p2441
aS'utopia'
p2442
aS'#656565'
p2443
aF8.88595
aI0
aI00
aI00
aI00
aI00
aI00
aI00
aI00
aI00
aa(lp2444
I61195
aF449.662
aF745.357
aVp1
p2445
aS'utopia'
p2446
aS'#656565'
p2447
aF8.88595
aI0
aI00
aI00
aI00
aI00
aI00
aI00
aI00
aI00
aa(lp2448
I124606
aF494.092
aF745.357
aVp1
p2449
aS'utopia'
p2450
aS'#656565'
p2451
aF8.88595
aI0
aI01
aI00
aI00
aI00
aI00
aI00
aI00
aI00
aa(lp2452
I169745
aF40.9084
aF755.724
aVp1
p2453
aS'utopia'
p2454
aS'#656565'
p2455
aF8.88595
aI0
aI00
aI00
aI00
aI00
aI00
aI00
aI00
aI00
aa(lp2456
I177271
aF60.1613
aF755.724
aVp1
p2457
aS'utopia'
p2458
aS'#656565'
p2459
aF8.88595
aI0
aI00
aI00
aI00
aI00
aI00
aI00
aI00
aI00
aa(lp2460
I210461
aF83.8572
aF755.724
aVp1
p2461
aS'utopia'
p2462
aS'#656565'
p2463
aF8.88595
aI0
aI00
aI00
aI00
aI00
aI00
aI00
aI00
aI00
aa(lp2464
I89480
aF106.072
aF755.724
aVp1
p2465
aS'utopia'
p2466
aS'#656565'
p2467
aF8.88595
aI0
aI00
aI00
aI00
aI00
aI00
aI00
aI00
aI00
aa(lp2468
I24205
aF116.439
aF755.724
aVp1
p2469
aS'utopia'
p2470
aS'#656565'
p2471
aF8.88595
aI0
aI00
aI00
aI00
aI00
aI00
aI00
aI00
aI00
aa(lp2472
I234378
aF143.097
aF755.724
aVp1
p2473
aS'utopia'
p2474
aS'#656565'
p2475
aF8.88595
aI0
aI00
aI00
aI00
aI00
aI00
aI00
aI00
aI00
aa(lp2476
I210167
aF174.938
aF755.724
aVp1
p2477
aS'utopia'
p2478
aS'#656565'
p2479
aF8.88595
aI0
aI00
aI00
aI00
aI00
aI00
aI00
aI00
aI00
aa(lp2480
I170033
aF196.413
aF755.724
aVp1
p2481
aS'utopia'
p2482
aS'#656565'
p2483
aF8.88595
aI0
aI00
aI00
aI00
aI00
aI00
aI00
aI00
aI00
aa(lp2484
I89480
aF238.621
aF755.724
aVp1
p2485
aS'utopia'
p2486
aS'#656565'
p2487
aF8.88595
aI0
aI00
aI00
aI00
aI00
aI00
aI00
aI00
aI00
aa(lp2488
I158472
aF248.988
aF755.724
aVp1
p2489
aS'utopia'
p2490
aS'#656565'
p2491
aF8.88595
aI0
aI00
aI00
aI00
aI00
aI00
aI00
aI00
aI00
aa(lp2492
I134763
aF280.829
aF755.724
aVp1
p2493
aS'utopia'
p2494
aS'#656565'
p2495
aF8.88595
aI0
aI00
aI00
aI00
aI00
aI00
aI00
aI00
aI00
aa(lp2496
I120218
aF300.082
aF755.724
aVp1
p2497
aS'utopia'
p2498
aS'#656565'
p2499
aF8.88595
aI0
aI00
aI00
aI00
aI00
aI00
aI00
aI00
aI00
aa(lp2500
I217237
aF340.069
aF755.724
aVp1
p2501
aS'utopia'
p2502
aS'#656565'
p2503
aF8.88595
aI0
aI00
aI00
aI00
aI00
aI00
aI00
aI00
aI00
aa(lp2504
I234378
aF398.568
aF755.724
aVp1
p2505
aS'utopia'
p2506
aS'#656565'
p2507
aF8.88595
aI0
aI01
aI00
aI00
aI00
aI00
aI00
aI00
aI00
aa(lp2508
I25729
aF452.624
aF755.724
aVp1
p2509
aS'utopia'
p2510
aS'#656565'
p2511
aF8.88595
aI0
aI01
aI00
aI00
aI00
aI00
aI00
aI00
aI00
aa(lp2512
I234378
aF470.48832000000004
aF755.724
ag2509
aS'utopia'
p2513
aS'#656565'
p2514
aF8.88595
aI0
aI00
aI00
aI00
aI00
aI00
aI00
aI00
aI00
aa(lp2515
I21716
aF477.06
aF755.724
aVp1
p2516
aS'utopia'
p2517
aS'#656565'
p2518
aF8.88595
aI0
aI01
aI00
aI00
aI00
aI00
aI00
aI00
aI00
aa(lp2519
I234378
aF491.96232
aF755.724
ag2516
aS'utopia'
p2520
aS'#656565'
p2521
aF8.88595
aI0
aI00
aI00
aI00
aI00
aI00
aI00
aI00
aI00
aa(lp2522
I234378
aF497.794
aF755.724
aVp1
p2523
aS'utopia'
p2524
aS'#656565'
p2525
aF8.88595
aI0
aI01
aI01
aI00
aI00
aI00
aI00
aI00
aI00
aa(lp2526
I234378
aF508.98805
aF755.724
ag2523
aS'utopia'
p2527
aS'#656565'
p2528
aF8.88595
aI0
aI00
aI00
aI00
aI00
aI00
aI00
aI00
aI00
aa(lp2529
I234378
aF514.826
aF755.724
aVp1
p2530
aS'utopia'
p2531
aS'#656565'
p2532
aF8.88595
aI0
aI01
aI01
aI00
aI00
aI00
aI00
aI00
aI00
aa(lp2533
I234378
aF531.117
aF755.724
aVp1
p2534
aS'utopia'
p2535
aS'#656565'
p2536
aF8.88595
aI0
aI00
aI00
aI01
aI01
aI00
aI00
aI00
aI00
aa(lp2537
I234378
aF534.8965
aF755.724
ag2534
aS'utopia'
p2538
aS'#656565'
p2539
aF8.88595
aI0
aI00
aI00
aI00
aI00
aI00
aI00
aI00
aI00
aa(lp2540
I234378
aF538.6759999999999
aF755.724
ag2534
aS'utopia'
p2541
aS'#656565'
p2542
aF8.88595
aI0
aI00
aI00
aI01
aI01
aI00
aI00
aI00
aI00
aa(lp2543
I234378
aF544.446
aF755.724
aVp1
p2544
aS'utopia'
p2545
aS'#656565'
p2546
aF8.88595
aI0
aI00
aI00
aI00
aI00
aI00
aI00
aI00
aI00
aa(lp2547
I17350
aF40.9084
aF766.091
aVp1
p2548
aS'utopia'
p2549
aS'#656565'
p2550
aF8.88595
aI0
aI01
aI00
aI00
aI00
aI00
aI00
aI00
aI00
aa(lp2551
I205190
aF60.9018
aF766.091
aVp1
p2552
aS'utopia'
p2553
aS'#656565'
p2554
aF8.88595
aI0
aI01
aI00
aI00
aI00
aI00
aI00
aI00
aI00
aa(lp2555
I234378
aF80.74463333333333
aF766.091
ag2552
aS'utopia'
p2556
aS'#656565'
p2557
aF8.88595
aI0
aI00
aI00
aI00
aI00
aI00
aI00
aI00
aI00
aa(lp2558
I223319
aF86.8192
aF766.091
aVp1
p2559
aS'utopia'
p2560
aS'#656565'
p2561
aF8.88595
aI0
aI01
aI00
aI00
aI00
aI00
aI00
aI00
aI00
aa(lp2562
I124531
aF40.1679
aF34.4987
aVp2
p2563
aS'utopia'
p2564
aS'#02304b'
p2565
aF11.8479
aI1
aI01
aI00
aI00
aI00
aI00
aI00
aI00
aI00
aa(lp2566
I234378
aF40.9084
aF62.7827
aVp2
p2567
aS'utopia'
p2568
aS'#656565'
p2569
aF10.3669
aI0
aI01
aI00
aI00
aI00
aI00
aI00
aI00
aI00
aa(lp2570
I234378
aF117.18
aF62.7827
aVp2
p2571
aS'utopia'
p2572
aS'#656565'
p2573
aF10.3669
aI0
aI00
aI00
aI00
aI00
aI00
aI00
aI00
aI00
aa(lp2574
I60201
aF123.103
aF62.7827
aVp2
p2575
aS'utopia'
p2576
aS'#656565'
p2577
aF10.3669
aI0
aI01
aI00
aI00
aI00
aI00
aI00
aI00
aI00
aa(lp2578
I230071
aF143.097
aF62.7827
aVp2
p2579
aS'utopia'
p2580
aS'#656565'
p2581
aF10.3669
aI0
aI01
aI00
aI00
aI00
aI00
aI00
aI00
aI00
aa(lp2582
I234378
aF169.755
aF62.7827
aVp2
p2583
aS'utopia'
p2584
aS'#656565'
p2585
aF10.3669
aI0
aI00
aI00
aI00
aI00
aI00
aI00
aI00
aI00
aa(lp2586
I27780
aF40.9084
aF78.804
aVp2
p2587
aS'utopia'
p2588
aS'#000000'
p2589
aF10.3669
aI1
aI01
aI01
aI00
aI00
aI00
aI00
aI00
aI00
aa(lp2590
I234378
aF46.15191818181818
aF78.804
ag2587
aS'utopia'
p2591
aS'#000000'
p2592
aF10.3669
aI1
aI00
aI00
aI00
aI00
aI00
aI00
aI00
aI00
aa(lp2593
I2737
aF51.395436363636364
aF78.804
ag2587
aS'utopia'
p2594
aS'#000000'
p2595
aF10.3669
aI1
aI01
aI00
aI00
aI00
aI00
aI00
aI00
aI00
aa(lp2596
I234378
aF72.36950909090909
aF78.804
ag2587
aS'utopia'
p2597
aS'#000000'
p2598
aF10.3669
aI1
aI00
aI00
aI00
aI00
aI00
aI00
aI00
aI00
aa(lp2599
I27780
aF70.61302727272727
aF78.804
ag2587
aS'utopia'
p2600
aS'#000000'
p2601
aF10.3669
aI1
aI01
aI01
aI00
aI00
aI00
aI00
aI00
aI00
aa(lp2602
I234378
aF75.85654545454545
aF78.804
ag2587
aS'utopia'
p2603
aS'#000000'
p2604
aF10.3669
aI1
aI00
aI00
aI00
aI00
aI00
aI00
aI00
aI00
aa(lp2605
I64620
aF88.10006363636364
aF78.804
ag2587
aS'utopia'
p2606
aS'#000000'
p2607
aF10.3669
aI1
aI01
aI01
aI00
aI00
aI00
aI00
aI00
aI00
aa(lp2608
I234378
aF84.34358181818183
aF78.804
ag2587
aS'utopia'
p2609
aS'#000000'
p2610
aF10.3669
aI1
aI00
aI00
aI00
aI00
aI00
aI00
aI00
aI00
aa(lp2611
I234378
aF100.889
aF78.804
aVp2
p2612
aS'utopia'
p2613
aS'#000000'
p2614
aF10.3669
aI1
aI00
aI00
aI00
aI00
aI00
aI00
aI00
aI00
aa(lp2615
I234378
aF106.48095454545454
aF78.804
ag2612
aS'utopia'
p2616
aS'#000000'
p2617
aF10.3669
aI1
aI01
aI00
aI00
aI00
aI00
aI00
aI00
aI00
aa(lp2618
I234378
aF156.80854545454542
aF78.804
ag2612
aS'utopia'
p2619
aS'#000000'
p2620
aF10.3669
aI1
aI00
aI00
aI00
aI00
aI00
aI00
aI00
aI00
aa(lp2621
I234378
aF40.9084
aF99.067
aVp2
p2622
aS'utopia'
p2623
aS'#656565'
p2624
aF10.3669
aI0
aI01
aI00
aI00
aI00
aI00
aI00
aI00
aI00
aa(lp2625
I234378
aF92.0026
aF99.067
aVp2
p2626
aS'utopia'
p2627
aS'#656565'
p2628
aF10.3669
aI0
aI01
aI00
aI00
aI00
aI00
aI00
aI00
aI00
aa(lp2629
I40624
aF123.844
aF99.067
aVp2
p2630
aS'utopia'
p2631
aS'#656565'
p2632
aF10.3669
aI0
aI01
aI00
aI00
aI00
aI00
aI00
aI00
aI00
aa(lp2633
I153079
aF192.71
aF99.067
aVp2
p2634
aS'utopia'
p2635
aS'#656565'
p2636
aF10.3669
aI0
aI01
aI00
aI00
aI00
aI00
aI00
aI00
aI00
aa(lp2637
I234378
aF243.064
aF99.067
aVp2
p2638
aS'utopia'
p2639
aS'#656565'
p2640
aF10.3669
aI0
aI00
aI00
aI00
aI00
aI00
aI00
aI00
aI00
aa(lp2641
I234378
aF248.72361666666666
aF99.067
ag2638
aS'utopia'
p2642
aS'#656565'
p2643
aF10.3669
aI0
aI01
aI01
aI00
aI00
aI00
aI00
aI00
aI00
aa(lp2644
I234378
aF271.3620833333333
aF99.067
ag2638
aS'utopia'
p2645
aS'#656565'
p2646
aF10.3669
aI0
aI00
aI00
aI00
aI00
aI00
aI00
aI00
aI00
aa(lp2647
I135639
aF283.791
aF99.067
aVp2
p2648
aS'utopia'
p2649
aS'#656565'
p2650
aF10.3669
aI0
aI00
aI00
aI00
aI00
aI00
aI00
aI00
aI00
aa(lp2651
I234378
aF295.639
aF99.067
aVp2
p2652
aS'utopia'
p2653
aS'#656565'
p2654
aF10.3669
aI0
aI00
aI00
aI01
aI01
aI01
aI00
aI00
aI00
aa(lp2655
I22476
aF40.1679
aF132.985
aVp2
p2656
aS'utopia'
p2657
aS'#02304b'
p2658
aF11.8479
aI1
aI01
aI01
aI00
aI00
aI00
aI00
aI00
aI00
aa(lp2659
I234378
aF54.2374
aF132.985
aVp2
p2660
aS'utopia'
p2661
aS'#02304b'
p2662
aF11.8479
aI1
aI01
aI00
aI00
aI00
aI00
aI00
aI00
aI00
aa(lp2663
I109610
aF48.3134
aF160.875
aVp2
p2664
aS'utopia'
p2665
aS'#000000'
p2666
aF8.88595
aI1
aI01
aI00
aI00
aI00
aI00
aI00
aI00
aI00
aa(lp2667
I158577
aF69.7878
aF160.875
aVp2
p2668
aS'utopia'
p2669
aS'#000000'
p2670
aF8.88595
aI1
aI01
aI00
aI00
aI00
aI00
aI00
aI00
aI00
aa(lp2671
I194179
aF188.267
aF160.875
aVp2
p2672
aS'utopia'
p2673
aS'#000000'
p2674
aF8.88595
aI1
aI01
aI00
aI00
aI00
aI00
aI00
aI00
aI00
aa(lp2675
I177981
aF305.265
aF160.875
aVp2
p2676
aS'utopia'
p2677
aS'#000000'
p2678
aF8.88595
aI1
aI01
aI00
aI00
aI00
aI00
aI00
aI00
aI00
aa(lp2679
I25729
aF324.518
aF160.875
aVp2
p2680
aS'utopia'
p2681
aS'#000000'
p2682
aF8.88595
aI1
aI01
aI00
aI00
aI00
aI00
aI00
aI00
aI00
aa(lp2683
I60220
aF412.637
aF160.875
aVp2
p2684
aS'utopia'
p2685
aS'#000000'
p2686
aF8.88595
aI1
aI01
aI00
aI00
aI00
aI00
aI00
aI00
aI00
aa(lp2687
I234378
aF48.3134
aF179.618
aVp2
p2688
aS'utopia'
p2689
aS'#656565'
p2690
aF8.88595
aI0
aI01
aI00
aI00
aI00
aI00
aI00
aI00
aI00
aa(lp2691
I234378
aF188.267
aF179.618
aVp2
p2692
aS'utopia'
p2693
aS'#656565'
p2694
aF8.88595
aI0
aI00
aI00
aI01
aI01
aI00
aI00
aI00
aI00
aa(lp2695
I234378
aF191.86758
aF179.618
ag2692
aS'utopia'
p2696
aS'#656565'
p2697
aF8.88595
aI0
aI00
aI00
aI00
aI00
aI00
aI00
aI00
aI00
aa(lp2698
I234378
aF195.46816
aF179.618
ag2692
aS'utopia'
p2699
aS'#656565'
p2700
aF8.88595
aI0
aI00
aI00
aI01
aI01
aI00
aI00
aI00
aI00
aa(lp2701
I234378
aF197.06874000000002
aF179.618
ag2692
aS'utopia'
p2702
aS'#656565'
p2703
aF8.88595
aI0
aI00
aI00
aI00
aI00
aI00
aI00
aI00
aI00
aa(lp2704
I234378
aF202.66932000000003
aF179.618
ag2692
aS'utopia'
p2705
aS'#656565'
p2706
aF8.88595
aI0
aI00
aI00
aI01
aI01
aI00
aI00
aI00
aI00
aa(lp2707
I234378
aF317.113
aF179.618
aVp2
p2708
aS'utopia'
p2709
aS'#656565'
p2710
aF8.88595
aI0
aI00
aI00
aI01
aI01
aI01
aI00
aI00
aI00
aa(lp2711
I234378
aF422.264
aF179.618
aVp2
p2712
aS'utopia'
p2713
aS'#656565'
p2714
aF8.88595
aI0
aI00
aI00
aI01
aI01
aI00
aI00
aI00
aI00
aa(lp2715
I234378
aF428.928
aF179.618
aVp2
p2716
aS'utopia'
p2717
aS'#656565'
p2718
aF8.88595
aI0
aI01
aI00
aI00
aI00
aI00
aI00
aI00
aI00
aa(lp2719
I234378
aF48.3134
aF198.131
aVp2
p2720
aS'utopia'
p2721
aS'#656565'
p2722
aF8.88595
aI0
aI01
aI01
aI01
aI00
aI00
aI00
aI00
aI00
aa(lp2723
I234378
aF317.113
aF198.131
aVp2
p2724
aS'utopia'
p2725
aS'#656565'
p2726
aF8.88595
aI0
aI00
aI00
aI01
aI01
aI01
aI00
aI00
aI00
aa(lp2727
I234378
aF422.264
aF198.131
aVp2
p2728
aS'utopia'
p2729
aS'#656565'
p2730
aF8.88595
aI0
aI00
aI00
aI01
aI01
aI00
aI00
aI00
aI00
aa(lp2731
I234378
aF428.928
aF198.131
aVp2
p2732
aS'utopia'
p2733
aS'#656565'
p2734
aF8.88595
aI0
aI01
aI00
aI00
aI00
aI00
aI00
aI00
aI00
aa(lp2735
I234378
aF48.3134
aF216.643
aVp2
p2736
aS'utopia'
p2737
aS'#656565'
p2738
aF8.88595
aI0
aI01
aI01
aI00
aI00
aI00
aI00
aI00
aI00
aa(lp2739
I234378
aF317.113
aF216.643
aVp2
p2740
aS'utopia'
p2741
aS'#656565'
p2742
aF8.88595
aI0
aI00
aI00
aI01
aI01
aI01
aI00
aI00
aI00
aa(lp2743
I234378
aF422.264
aF216.643
aVp2
p2744
aS'utopia'
p2745
aS'#656565'
p2746
aF8.88595
aI0
aI00
aI00
aI01
aI01
aI00
aI00
aI00
aI00
aa(lp2747
I234378
aF428.928
aF216.643
aVp2
p2748
aS'utopia'
p2749
aS'#656565'
p2750
aF8.88595
aI0
aI01
aI00
aI00
aI00
aI00
aI00
aI00
aI00
aa(lp2751
I148996
aF48.3134
aF235.155
aVp2
p2752
aS'utopia'
p2753
aS'#656565'
p2754
aF8.88595
aI0
aI01
aI00
aI00
aI00
aI00
aI00
aI00
aI00
aa(lp2755
I234378
aF75.7117
aF235.155
aVp2
p2756
aS'utopia'
p2757
aS'#656565'
p2758
aF8.88595
aI0
aI00
aI00
aI00
aI00
aI00
aI00
aI00
aI00
aa(lp2759
I84662
aF80.46302
aF235.155
ag2756
aS'utopia'
p2760
aS'#656565'
p2761
aF8.88595
aI0
aI01
aI00
aI00
aI00
aI00
aI00
aI00
aI00
aa(lp2762
I234378
aF99.4683
aF235.155
ag2756
aS'utopia'
p2763
aS'#656565'
p2764
aF8.88595
aI0
aI00
aI00
aI00
aI00
aI00
aI00
aI00
aI00
aa(lp2765
I234378
aF104.21961999999999
aF235.155
ag2756
aS'utopia'
p2766
aS'#656565'
p2767
aF8.88595
aI0
aI01
aI01
aI00
aI00
aI00
aI00
aI00
aI00
aa(lp2768
I234378
aF118.47358
aF235.155
ag2756
aS'utopia'
p2769
aS'#656565'
p2770
aF8.88595
aI0
aI00
aI00
aI00
aI00
aI00
aI00
aI00
aI00
aa(lp2771
I234378
aF317.113
aF235.155
aVp2
p2772
aS'utopia'
p2773
aS'#656565'
p2774
aF8.88595
aI0
aI00
aI00
aI01
aI01
aI01
aI00
aI00
aI00
aa(lp2775
I234378
aF422.264
aF235.155
aVp2
p2776
aS'utopia'
p2777
aS'#656565'
p2778
aF8.88595
aI0
aI00
aI00
aI01
aI01
aI00
aI00
aI00
aI00
aa(lp2779
I234378
aF428.928
aF235.155
aVp2
p2780
aS'utopia'
p2781
aS'#656565'
p2782
aF8.88595
aI0
aI01
aI00
aI00
aI00
aI00
aI00
aI00
aI00
aa(lp2783
I165851
aF48.3134
aF253.668
aVp2
p2784
aS'utopia'
p2785
aS'#656565'
p2786
aF8.88595
aI0
aI01
aI00
aI00
aI00
aI00
aI00
aI00
aI00
aa(lp2787
I234378
aF81.6357
aF253.668
aVp2
p2788
aS'utopia'
p2789
aS'#656565'
p2790
aF8.88595
aI0
aI00
aI00
aI00
aI00
aI00
aI00
aI00
aI00
aa(lp2791
I234378
aF317.113
aF253.668
aVp2
p2792
aS'utopia'
p2793
aS'#656565'
p2794
aF8.88595
aI0
aI00
aI00
aI01
aI01
aI01
aI00
aI00
aI00
aa(lp2795
I234378
aF422.264
aF253.668
aVp2
p2796
aS'utopia'
p2797
aS'#656565'
p2798
aF8.88595
aI0
aI00
aI00
aI01
aI01
aI00
aI00
aI00
aI00
aa(lp2799
I234378
aF428.928
aF253.668
aVp2
p2800
aS'utopia'
p2801
aS'#656565'
p2802
aF8.88595
aI0
aI01
aI00
aI00
aI00
aI00
aI00
aI00
aI00
aa(lp2803
I234378
aF48.3134
aF272.18
aVp2
p2804
aS'utopia'
p2805
aS'#656565'
p2806
aF8.88595
aI0
aI01
aI00
aI00
aI00
aI00
aI00
aI00
aI00
aa(lp2807
I234378
aF188.267
aF272.18
aVp2
p2808
aS'utopia'
p2809
aS'#656565'
p2810
aF8.88595
aI0
aI00
aI00
aI01
aI01
aI00
aI00
aI00
aI00
aa(lp2811
I234378
aF192.0465
aF272.18
ag2808
aS'utopia'
p2812
aS'#656565'
p2813
aF8.88595
aI0
aI00
aI00
aI00
aI00
aI00
aI00
aI00
aI00
aa(lp2814
I234378
aF195.82600000000002
aF272.18
ag2808
aS'utopia'
p2815
aS'#656565'
p2816
aF8.88595
aI0
aI00
aI00
aI01
aI01
aI00
aI00
aI00
aI00
aa(lp2817
I234378
aF317.113
aF272.18
aVp2
p2818
aS'utopia'
p2819
aS'#656565'
p2820
aF8.88595
aI0
aI00
aI00
aI01
aI01
aI01
aI00
aI00
aI00
aa(lp2821
I234378
aF422.264
aF272.18
aVp2
p2822
aS'utopia'
p2823
aS'#656565'
p2824
aF8.88595
aI0
aI00
aI00
aI01
aI01
aI00
aI00
aI00
aI00
aa(lp2825
I234378
aF428.928
aF272.18
aVp2
p2826
aS'utopia'
p2827
aS'#656565'
p2828
aF8.88595
aI0
aI01
aI00
aI00
aI00
aI00
aI00
aI00
aI00
aa(lp2829
I176767
aF48.3134
aF290.692
aVp2
p2830
aS'utopia'
p2831
aS'#656565'
p2832
aF8.88595
aI0
aI01
aI00
aI00
aI00
aI00
aI00
aI00
aI00
aa(lp2833
I234378
aF188.267
aF290.692
aVp2
p2834
aS'utopia'
p2835
aS'#656565'
p2836
aF8.88595
aI0
aI00
aI00
aI01
aI01
aI00
aI00
aI00
aI00
aa(lp2837
I234378
aF192.0465
aF290.692
ag2834
aS'utopia'
p2838
aS'#656565'
p2839
aF8.88595
aI0
aI00
aI00
aI00
aI00
aI00
aI00
aI00
aI00
aa(lp2840
I234378
aF195.82600000000002
aF290.692
ag2834
aS'utopia'
p2841
aS'#656565'
p2842
aF8.88595
aI0
aI00
aI00
aI01
aI01
aI00
aI00
aI00
aI00
aa(lp2843
I234378
aF317.113
aF290.692
aVp2
p2844
aS'utopia'
p2845
aS'#656565'
p2846
aF8.88595
aI0
aI00
aI00
aI01
aI01
aI01
aI00
aI00
aI00
aa(lp2847
I234378
aF422.264
aF290.692
aVp2
p2848
aS'utopia'
p2849
aS'#656565'
p2850
aF8.88595
aI0
aI00
aI00
aI01
aI01
aI00
aI00
aI00
aI00
aa(lp2851
I234378
aF428.928
aF290.692
aVp2
p2852
aS'utopia'
p2853
aS'#656565'
p2854
aF8.88595
aI0
aI01
aI00
aI00
aI00
aI00
aI00
aI00
aI00
aa(lp2855
I71966
aF48.3134
aF309.205
aVp2
p2856
aS'utopia'
p2857
aS'#656565'
p2858
aF8.88595
aI0
aI01
aI00
aI00
aI00
aI00
aI00
aI00
aI00
aa(lp2859
I144690
aF91.2621
aF309.205
aVp2
p2860
aS'utopia'
p2861
aS'#656565'
p2862
aF8.88595
aI0
aI01
aI00
aI00
aI00
aI00
aI00
aI00
aI00
aa(lp2863
I234378
aF120.141
aF309.205
aVp2
p2864
aS'utopia'
p2865
aS'#656565'
p2866
aF8.88595
aI0
aI01
aI00
aI00
aI00
aI00
aI00
aI00
aI00
aa(lp2867
I234378
aF317.113
aF309.205
aVp2
p2868
aS'utopia'
p2869
aS'#656565'
p2870
aF8.88595
aI0
aI00
aI00
aI01
aI01
aI01
aI00
aI00
aI00
aa(lp2871
I234378
aF422.264
aF309.205
aVp2
p2872
aS'utopia'
p2873
aS'#656565'
p2874
aF8.88595
aI0
aI00
aI00
aI01
aI01
aI00
aI00
aI00
aI00
aa(lp2875
I234378
aF428.928
aF309.205
aVp2
p2876
aS'utopia'
p2877
aS'#656565'
p2878
aF8.88595
aI0
aI01
aI00
aI00
aI00
aI00
aI00
aI00
aI00
aa(lp2879
I206239
aF48.3134
aF327.717
aVp2
p2880
aS'utopia'
p2881
aS'#656565'
p2882
aF8.88595
aI0
aI01
aI00
aI00
aI00
aI00
aI00
aI00
aI00
aa(lp2883
I144690
aF89.7812
aF327.717
aVp2
p2884
aS'utopia'
p2885
aS'#656565'
p2886
aF8.88595
aI0
aI01
aI00
aI00
aI00
aI00
aI00
aI00
aI00
aa(lp2887
I234378
aF118.66
aF327.717
aVp2
p2888
aS'utopia'
p2889
aS'#656565'
p2890
aF8.88595
aI0
aI01
aI00
aI00
aI00
aI00
aI00
aI00
aI00
aa(lp2891
I234378
aF317.113
aF327.717
aVp2
p2892
aS'utopia'
p2893
aS'#656565'
p2894
aF8.88595
aI0
aI00
aI00
aI01
aI01
aI01
aI00
aI00
aI00
aa(lp2895
I234378
aF422.264
aF327.717
aVp2
p2896
aS'utopia'
p2897
aS'#656565'
p2898
aF8.88595
aI0
aI00
aI00
aI01
aI01
aI00
aI00
aI00
aI00
aa(lp2899
I234378
aF428.928
aF327.717
aVp2
p2900
aS'utopia'
p2901
aS'#656565'
p2902
aF8.88595
aI0
aI01
aI00
aI00
aI00
aI00
aI00
aI00
aI00
aa(lp2903
I206441
aF48.3134
aF346.23
aVp2
p2904
aS'utopia'
p2905
aS'#656565'
p2906
aF8.88595
aI0
aI01
aI00
aI00
aI00
aI00
aI00
aI00
aI00
aa(lp2907
I144690
aF92.7431
aF346.23
aVp2
p2908
aS'utopia'
p2909
aS'#656565'
p2910
aF8.88595
aI0
aI01
aI00
aI00
aI00
aI00
aI00
aI00
aI00
aa(lp2911
I234378
aF121.622
aF346.23
aVp2
p2912
aS'utopia'
p2913
aS'#656565'
p2914
aF8.88595
aI0
aI01
aI00
aI00
aI00
aI00
aI00
aI00
aI00
aa(lp2915
I234378
aF317.113
aF346.23
aVp2
p2916
aS'utopia'
p2917
aS'#656565'
p2918
aF8.88595
aI0
aI00
aI00
aI01
aI01
aI01
aI00
aI00
aI00
aa(lp2919
I234378
aF422.264
aF346.23
aVp2
p2920
aS'utopia'
p2921
aS'#656565'
p2922
aF8.88595
aI0
aI00
aI00
aI01
aI01
aI00
aI00
aI00
aI00
aa(lp2923
I234378
aF428.928
aF346.23
aVp2
p2924
aS'utopia'
p2925
aS'#656565'
p2926
aF8.88595
aI0
aI01
aI00
aI00
aI00
aI00
aI00
aI00
aI00
aa(lp2927
I234378
aF48.3134
aF364.742
aVp2
p2928
aS'utopia'
p2929
aS'#656565'
p2930
aF8.88595
aI0
aI01
aI01
aI01
aI00
aI00
aI00
aI00
aI00
aa(lp2931
I144690
aF68.3068
aF364.742
aVp2
p2932
aS'utopia'
p2933
aS'#656565'
p2934
aF8.88595
aI0
aI01
aI00
aI00
aI00
aI00
aI00
aI00
aI00
aa(lp2935
I234378
aF97.1861
aF364.742
aVp2
p2936
aS'utopia'
p2937
aS'#656565'
p2938
aF8.88595
aI0
aI01
aI00
aI00
aI00
aI00
aI00
aI00
aI00
aa(lp2939
I234378
aF317.113
aF364.742
aVp2
p2940
aS'utopia'
p2941
aS'#656565'
p2942
aF8.88595
aI0
aI00
aI00
aI01
aI01
aI01
aI00
aI00
aI00
aa(lp2943
I234378
aF422.264
aF364.742
aVp2
p2944
aS'utopia'
p2945
aS'#656565'
p2946
aF8.88595
aI0
aI00
aI00
aI01
aI01
aI00
aI00
aI00
aI00
aa(lp2947
I234378
aF428.928
aF364.742
aVp2
p2948
aS'utopia'
p2949
aS'#656565'
p2950
aF8.88595
aI0
aI01
aI00
aI00
aI00
aI00
aI00
aI00
aI00
aa(lp2951
I234378
aF48.3134
aF383.254
aVp2
p2952
aS'utopia'
p2953
aS'#656565'
p2954
aF8.88595
aI0
aI01
aI01
aI00
aI00
aI00
aI00
aI00
aI00
aa(lp2955
I234378
aF69.0473
aF383.254
aVp2
p2956
aS'utopia'
p2957
aS'#656565'
p2958
aF8.88595
aI0
aI01
aI00
aI00
aI00
aI00
aI00
aI00
aI00
aa(lp2959
I103758
aF100.148
aF383.254
aVp2
p2960
aS'utopia'
p2961
aS'#656565'
p2962
aF8.88595
aI0
aI01
aI01
aI00
aI00
aI00
aI00
aI00
aI00
aa(lp2963
I234378
aF113.56354999999999
aF383.254
ag2960
aS'utopia'
p2964
aS'#656565'
p2965
aF8.88595
aI0
aI00
aI00
aI00
aI00
aI00
aI00
aI00
aI00
aa(lp2966
I105143
aF48.3134
aF393.621
aVp2
p2967
aS'utopia'
p2968
aS'#656565'
p2969
aF8.88595
aI0
aI01
aI01
aI00
aI00
aI00
aI00
aI00
aI00
aa(lp2970
I234378
aF64.40205714285715
aF393.621
ag2967
aS'utopia'
p2971
aS'#656565'
p2972
aF8.88595
aI0
aI00
aI00
aI00
aI00
aI00
aI00
aI00
aI00
aa(lp2973
I234378
aF69.76494285714286
aF393.621
ag2967
aS'utopia'
p2974
aS'#656565'
p2975
aF8.88595
aI0
aI01
aI01
aI00
aI00
aI00
aI00
aI00
aI00
aa(lp2976
I234378
aF90.57937142857142
aF393.621
ag2967
aS'utopia'
p2977
aS'#656565'
p2978
aF8.88595
aI0
aI00
aI00
aI00
aI00
aI00
aI00
aI00
aI00
aa(lp2979
I234378
aF101.94225714285713
aF393.621
ag2967
aS'utopia'
p2980
aS'#656565'
p2981
aF8.88595
aI0
aI01
aI01
aI00
aI00
aI00
aI00
aI00
aI00
aa(lp2982
I234378
aF317.113
aF388.438
aVp2
p2983
aS'utopia'
p2984
aS'#656565'
p2985
aF8.88595
aI0
aI00
aI00
aI01
aI01
aI01
aI00
aI00
aI00
aa(lp2986
I234378
aF422.264
aF388.438
aVp2
p2987
aS'utopia'
p2988
aS'#656565'
p2989
aF8.88595
aI0
aI00
aI00
aI01
aI01
aI00
aI00
aI00
aI00
aa(lp2990
I234378
aF428.928
aF388.438
aVp2
p2991
aS'utopia'
p2992
aS'#656565'
p2993
aF8.88595
aI0
aI01
aI00
aI00
aI00
aI00
aI00
aI00
aI00
aa(lp2994
I77592
aF48.3134
aF412.134
aVp2
p2995
aS'utopia'
p2996
aS'#656565'
p2997
aF8.88595
aI0
aI01
aI00
aI00
aI00
aI00
aI00
aI00
aI00
aa(lp2998
I110786
aF80.1547
aF412.134
aVp2
p2999
aS'utopia'
p3000
aS'#656565'
p3001
aF8.88595
aI0
aI01
aI00
aI00
aI00
aI00
aI00
aI00
aI00
aa(lp3002
I234378
aF317.113
aF412.134
aVp2
p3003
aS'utopia'
p3004
aS'#656565'
p3005
aF8.88595
aI0
aI00
aI00
aI01
aI01
aI01
aI00
aI00
aI00
aa(lp3006
I234378
aF422.264
aF412.134
aVp2
p3007
aS'utopia'
p3008
aS'#656565'
p3009
aF8.88595
aI0
aI00
aI00
aI01
aI01
aI00
aI00
aI00
aI00
aa(lp3010
I234378
aF428.928
aF412.134
aVp2
p3011
aS'utopia'
p3012
aS'#656565'
p3013
aF8.88595
aI0
aI01
aI00
aI00
aI00
aI00
aI00
aI00
aI00
aa(lp3014
I234378
aF48.3134
aF430.646
aVp2
p3015
aS'utopia'
p3016
aS'#656565'
p3017
aF8.88595
aI0
aI01
aI00
aI00
aI00
aI00
aI00
aI00
aI00
aa(lp3018
I234378
aF317.113
aF430.646
aVp2
p3019
aS'utopia'
p3020
aS'#656565'
p3021
aF8.88595
aI0
aI00
aI00
aI01
aI01
aI01
aI00
aI00
aI00
aa(lp3022
I234378
aF422.264
aF430.646
aVp2
p3023
aS'utopia'
p3024
aS'#656565'
p3025
aF8.88595
aI0
aI00
aI00
aI01
aI01
aI00
aI00
aI00
aI00
aa(lp3026
I234378
aF428.928
aF430.646
aVp2
p3027
aS'utopia'
p3028
aS'#656565'
p3029
aF8.88595
aI0
aI01
aI00
aI00
aI00
aI00
aI00
aI00
aI00
aa(lp3030
I234378
aF48.3134
aF449.159
aVp2
p3031
aS'utopia'
p3032
aS'#656565'
p3033
aF8.88595
aI0
aI01
aI00
aI00
aI00
aI00
aI00
aI00
aI00
aa(lp3034
I234378
aF317.113
aF449.159
aVp2
p3035
aS'utopia'
p3036
aS'#656565'
p3037
aF8.88595
aI0
aI00
aI00
aI01
aI01
aI01
aI00
aI00
aI00
aa(lp3038
I234378
aF422.264
aF449.159
aVp2
p3039
aS'utopia'
p3040
aS'#656565'
p3041
aF8.88595
aI0
aI00
aI00
aI01
aI01
aI00
aI00
aI00
aI00
aa(lp3042
I234378
aF428.928
aF449.159
aVp2
p3043
aS'utopia'
p3044
aS'#656565'
p3045
aF8.88595
aI0
aI01
aI00
aI00
aI00
aI00
aI00
aI00
aI00
aa(lp3046
I234378
aF48.3134
aF467.671
aVp2
p3047
aS'utopia'
p3048
aS'#656565'
p3049
aF8.88595
aI0
aI01
aI00
aI00
aI00
aI00
aI00
aI00
aI00
aa(lp3050
I234378
aF317.113
aF467.671
aVp2
p3051
aS'utopia'
p3052
aS'#656565'
p3053
aF8.88595
aI0
aI00
aI00
aI01
aI01
aI01
aI00
aI00
aI00
aa(lp3054
I234378
aF422.264
aF467.671
aVp2
p3055
aS'utopia'
p3056
aS'#656565'
p3057
aF8.88595
aI0
aI00
aI00
aI01
aI01
aI00
aI00
aI00
aI00
aa(lp3058
I234378
aF428.928
aF467.671
aVp2
p3059
aS'utopia'
p3060
aS'#656565'
p3061
aF8.88595
aI0
aI01
aI00
aI00
aI00
aI00
aI00
aI00
aI00
aa(lp3062
I234378
aF48.3134
aF486.183
aVp2
p3063
aS'utopia'
p3064
aS'#656565'
p3065
aF8.88595
aI0
aI01
aI01
aI00
aI00
aI00
aI00
aI00
aI00
aa(lp3066
I19160
aF67.5663
aF486.183
aVp2
p3067
aS'utopia'
p3068
aS'#656565'
p3069
aF8.88595
aI0
aI01
aI00
aI00
aI00
aI00
aI00
aI00
aI00
aa(lp3070
I106528
aF99.4076
aF486.183
aVp2
p3071
aS'utopia'
p3072
aS'#656565'
p3073
aF8.88595
aI0
aI01
aI00
aI00
aI00
aI00
aI00
aI00
aI00
aa(lp3074
I234378
aF317.113
aF486.183
aVp2
p3075
aS'utopia'
p3076
aS'#656565'
p3077
aF8.88595
aI0
aI00
aI00
aI01
aI01
aI01
aI00
aI00
aI00
aa(lp3078
I234378
aF403.011
aF486.183
aVp2
p3079
aS'utopia'
p3080
aS'#656565'
p3081
aF8.88595
aI0
aI00
aI00
aI01
aI01
aI00
aI00
aI00
aI00
aa(lp3082
I234378
aF409.675
aF486.183
aVp2
p3083
aS'utopia'
p3084
aS'#656565'
p3085
aF8.88595
aI0
aI01
aI00
aI00
aI00
aI00
aI00
aI00
aI00
aa(lp3086
I234378
aF433.371
aF486.183
aVp2
p3087
aS'utopia'
p3088
aS'#656565'
p3089
aF8.88595
aI0
aI00
aI00
aI01
aI01
aI00
aI00
aI00
aI00
aa(lp3090
I234378
aF440.036
aF486.183
aVp2
p3091
aS'utopia'
p3092
aS'#656565'
p3093
aF8.88595
aI0
aI01
aI00
aI00
aI00
aI00
aI00
aI00
aI00
aa(lp3094
I234378
aF48.3134
aF504.696
aVp2
p3095
aS'utopia'
p3096
aS'#656565'
p3097
aF8.88595
aI0
aI01
aI01
aI00
aI00
aI00
aI00
aI00
aI00
aa(lp3098
I234378
aF317.113
aF504.696
aVp2
p3099
aS'utopia'
p3100
aS'#656565'
p3101
aF8.88595
aI0
aI00
aI00
aI01
aI01
aI01
aI00
aI00
aI00
aa(lp3102
I234378
aF422.264
aF504.696
aVp2
p3103
aS'utopia'
p3104
aS'#656565'
p3105
aF8.88595
aI0
aI00
aI00
aI01
aI01
aI00
aI00
aI00
aI00
aa(lp3106
I234378
aF428.928
aF504.696
aVp2
p3107
aS'utopia'
p3108
aS'#656565'
p3109
aF8.88595
aI0
aI01
aI00
aI00
aI00
aI00
aI00
aI00
aI00
aa(lp3110
I234378
aF48.3134
aF523.208
aVp2
p3111
aS'utopia'
p3112
aS'#656565'
p3113
aF8.88595
aI0
aI01
aI01
aI00
aI00
aI00
aI00
aI00
aI00
aa(lp3114
I234378
aF317.113
aF523.208
aVp2
p3115
aS'utopia'
p3116
aS'#656565'
p3117
aF8.88595
aI0
aI00
aI00
aI01
aI01
aI01
aI00
aI00
aI00
aa(lp3118
I234378
aF403.011
aF523.208
aVp2
p3119
aS'utopia'
p3120
aS'#656565'
p3121
aF8.88595
aI0
aI00
aI00
aI01
aI01
aI00
aI00
aI00
aI00
aa(lp3122
I234378
aF409.675
aF523.208
aVp2
p3123
aS'utopia'
p3124
aS'#656565'
p3125
aF8.88595
aI0
aI01
aI00
aI00
aI00
aI00
aI00
aI00
aI00
aa(lp3126
I234378
aF433.371
aF523.208
aVp2
p3127
aS'utopia'
p3128
aS'#656565'
p3129
aF8.88595
aI0
aI00
aI00
aI01
aI01
aI00
aI00
aI00
aI00
aa(lp3130
I234378
aF440.036
aF523.208
aVp2
p3131
aS'utopia'
p3132
aS'#656565'
p3133
aF8.88595
aI0
aI01
aI00
aI00
aI00
aI00
aI00
aI00
aI00
aa(lp3134
I216500
aF48.3134
aF541.721
aVp2
p3135
aS'utopia'
p3136
aS'#656565'
p3137
aF8.88595
aI0
aI01
aI01
aI00
aI00
aI00
aI00
aI00
aI00
aa(lp3138
I234378
aF317.113
aF541.721
aVp2
p3139
aS'utopia'
p3140
aS'#656565'
p3141
aF8.88595
aI0
aI00
aI00
aI01
aI01
aI01
aI00
aI00
aI00
aa(lp3142
I234378
aF424.485
aF541.721
aVp2
p3143
aS'utopia'
p3144
aS'#656565'
p3145
aF8.88595
aI0
aI00
aI00
aI01
aI01
aI00
aI00
aI00
aI00
aa(lp3146
I91136
aF431.15
aF541.721
aVp2
p3147
aS'utopia'
p3148
aS'#656565'
p3149
aF8.88595
aI0
aI01
aI00
aI00
aI00
aI00
aI00
aI00
aI00
aa(lp3150
I223319
aF48.3134
aF560.233
aVp2
p3151
aS'utopia'
p3152
aS'#656565'
p3153
aF8.88595
aI0
aI01
aI00
aI00
aI00
aI00
aI00
aI00
aI00
aa(lp3154
I234378
aF317.113
aF560.233
aVp2
p3155
aS'utopia'
p3156
aS'#656565'
p3157
aF8.88595
aI0
aI00
aI00
aI01
aI01
aI01
aI00
aI00
aI00
aa(lp3158
I234378
aF422.264
aF560.233
aVp2
p3159
aS'utopia'
p3160
aS'#656565'
p3161
aF8.88595
aI0
aI00
aI00
aI01
aI01
aI00
aI00
aI00
aI00
aa(lp3162
I234378
aF428.928
aF560.233
aVp2
p3163
aS'utopia'
p3164
aS'#656565'
p3165
aF8.88595
aI0
aI01
aI00
aI00
aI00
aI00
aI00
aI00
aI00
aa(lp3166
I55029
aF48.3134
aF578.745
aVp2
p3167
aS'utopia'
p3168
aS'#656565'
p3169
aF8.88595
aI0
aI01
aI01
aI00
aI00
aI00
aI00
aI00
aI00
aa(lp3170
I234378
aF317.113
aF578.745
aVp2
p3171
aS'utopia'
p3172
aS'#656565'
p3173
aF8.88595
aI0
aI00
aI00
aI01
aI01
aI01
aI00
aI00
aI00
aa(lp3174
I234378
aF422.264
aF578.745
aVp2
p3175
aS'utopia'
p3176
aS'#656565'
p3177
aF8.88595
aI0
aI00
aI00
aI01
aI01
aI00
aI00
aI00
aI00
aa(lp3178
I234378
aF428.928
aF578.745
aVp2
p3179
aS'utopia'
p3180
aS'#656565'
p3181
aF8.88595
aI0
aI01
aI00
aI00
aI00
aI00
aI00
aI00
aI00
aa(lp3182
I130095
aF48.3134
aF597.258
aVp2
p3183
aS'utopia'
p3184
aS'#656565'
p3185
aF8.88595
aI0
aI01
aI00
aI00
aI00
aI00
aI00
aI00
aI00
aa(lp3186
I53836
aF65.3448
aF597.258
aVp2
p3187
aS'utopia'
p3188
aS'#656565'
p3189
aF8.88595
aI0
aI01
aI00
aI00
aI00
aI00
aI00
aI00
aI00
aa(lp3190
I230164
aF87.5597
aF597.258
aVp2
p3191
aS'utopia'
p3192
aS'#656565'
p3193
aF8.88595
aI0
aI01
aI00
aI00
aI00
aI00
aI00
aI00
aI00
aa(lp3194
I234378
aF317.113
aF597.258
aVp2
p3195
aS'utopia'
p3196
aS'#656565'
p3197
aF8.88595
aI0
aI00
aI00
aI01
aI01
aI01
aI00
aI00
aI00
aa(lp3198
I234378
aF424.485
aF597.258
aVp2
p3199
aS'utopia'
p3200
aS'#656565'
p3201
aF8.88595
aI0
aI00
aI00
aI01
aI01
aI00
aI00
aI00
aI00
aa(lp3202
I91136
aF431.15
aF597.258
aVp2
p3203
aS'utopia'
p3204
aS'#656565'
p3205
aF8.88595
aI0
aI01
aI00
aI00
aI00
aI00
aI00
aI00
aI00
aa(lp3206
I45445
aF48.3134
aF615.77
aVp2
p3207
aS'utopia'
p3208
aS'#656565'
p3209
aF8.88595
aI0
aI01
aI00
aI00
aI00
aI00
aI00
aI00
aI00
aa(lp3210
I234378
aF317.113
aF615.77
aVp2
p3211
aS'utopia'
p3212
aS'#656565'
p3213
aF8.88595
aI0
aI00
aI00
aI01
aI01
aI01
aI00
aI00
aI00
aa(lp3214
I234378
aF422.264
aF615.77
aVp2
p3215
aS'utopia'
p3216
aS'#656565'
p3217
aF8.88595
aI0
aI00
aI00
aI01
aI01
aI00
aI00
aI00
aI00
aa(lp3218
I234378
aF428.928
aF615.77
aVp2
p3219
aS'utopia'
p3220
aS'#656565'
p3221
aF8.88595
aI0
aI01
aI00
aI00
aI00
aI00
aI00
aI00
aI00
aa(lp3222
I234378
aF48.3134
aF634.283
aVp2
p3223
aS'utopia'
p3224
aS'#656565'
p3225
aF8.88595
aI0
aI01
aI00
aI00
aI00
aI00
aI00
aI00
aI00
aa(lp3226
I234378
aF317.113
aF634.283
aVp2
p3227
aS'utopia'
p3228
aS'#656565'
p3229
aF8.88595
aI0
aI00
aI00
aI01
aI01
aI01
aI00
aI00
aI00
aa(lp3230
I234378
aF424.485
aF634.283
aVp2
p3231
aS'utopia'
p3232
aS'#656565'
p3233
aF8.88595
aI0
aI00
aI00
aI01
aI01
aI00
aI00
aI00
aI00
aa(lp3234
I91136
aF431.15
aF634.283
aVp2
p3235
aS'utopia'
p3236
aS'#656565'
p3237
aF8.88595
aI0
aI01
aI00
aI00
aI00
aI00
aI00
aI00
aI00
aa(lp3238
I234378
aF48.3134
aF652.795
aVp2
p3239
aS'utopia'
p3240
aS'#656565'
p3241
aF8.88595
aI0
aI01
aI01
aI00
aI00
aI00
aI00
aI00
aI00
aa(lp3242
I234378
aF317.113
aF652.795
aVp2
p3243
aS'utopia'
p3244
aS'#656565'
p3245
aF8.88595
aI0
aI00
aI00
aI01
aI01
aI01
aI00
aI00
aI00
aa(lp3246
I234378
aF403.011
aF652.795
aVp2
p3247
aS'utopia'
p3248
aS'#656565'
p3249
aF8.88595
aI0
aI00
aI00
aI01
aI01
aI00
aI00
aI00
aI00
aa(lp3250
I234378
aF409.675
aF652.795
aVp2
p3251
aS'utopia'
p3252
aS'#656565'
p3253
aF8.88595
aI0
aI01
aI00
aI00
aI00
aI00
aI00
aI00
aI00
aa(lp3254
I234378
aF433.371
aF652.795
aVp2
p3255
aS'utopia'
p3256
aS'#656565'
p3257
aF8.88595
aI0
aI00
aI00
aI01
aI01
aI00
aI00
aI00
aI00
aa(lp3258
I234378
aF440.036
aF652.795
aVp2
p3259
aS'utopia'
p3260
aS'#656565'
p3261
aF8.88595
aI0
aI01
aI00
aI00
aI00
aI00
aI00
aI00
aI00
aa(lp3262
I170506
aF48.3134
aF671.307
aVp2
p3263
aS'utopia'
p3264
aS'#656565'
p3265
aF8.88595
aI0
aI01
aI00
aI00
aI00
aI00
aI00
aI00
aI00
aa(lp3266
I234378
aF68.3068
aF671.307
aVp2
p3267
aS'utopia'
p3268
aS'#656565'
p3269
aF8.88595
aI0
aI01
aI00
aI00
aI00
aI00
aI00
aI00
aI00
aa(lp3270
I234378
aF317.113
aF671.307
aVp2
p3271
aS'utopia'
p3272
aS'#656565'
p3273
aF8.88595
aI0
aI00
aI00
aI01
aI01
aI01
aI00
aI00
aI00
aa(lp3274
I234378
aF424.485
aF671.307
aVp2
p3275
aS'utopia'
p3276
aS'#656565'
p3277
aF8.88595
aI0
aI00
aI00
aI01
aI01
aI00
aI00
aI00
aI00
aa(lp3278
I91136
aF431.15
aF671.307
aVp2
p3279
aS'utopia'
p3280
aS'#656565'
p3281
aF8.88595
aI0
aI01
aI00
aI00
aI00
aI00
aI00
aI00
aI00
aa(lp3282
I44279
aF48.3134
aF689.82
aVp2
p3283
aS'utopia'
p3284
aS'#656565'
p3285
aF8.88595
aI0
aI01
aI01
aI00
aI00
aI00
aI00
aI00
aI00
aa(lp3286
I234378
aF317.113
aF689.82
aVp2
p3287
aS'utopia'
p3288
aS'#656565'
p3289
aF8.88595
aI0
aI00
aI00
aI01
aI01
aI01
aI00
aI00
aI00
aa(lp3290
I234378
aF422.264
aF689.82
aVp2
p3291
aS'utopia'
p3292
aS'#656565'
p3293
aF8.88595
aI0
aI00
aI00
aI01
aI01
aI00
aI00
aI00
aI00
aa(lp3294
I234378
aF428.928
aF689.82
aVp2
p3295
aS'utopia'
p3296
aS'#656565'
p3297
aF8.88595
aI0
aI01
aI00
aI00
aI00
aI00
aI00
aI00
aI00
aa(lp3298
I234378
aF48.3134
aF708.332
aVp2
p3299
aS'utopia'
p3300
aS'#656565'
p3301
aF8.88595
aI0
aI01
aI01
aI00
aI00
aI00
aI00
aI00
aI00
aa(lp3302
I234378
aF317.113
aF708.332
aVp2
p3303
aS'utopia'
p3304
aS'#656565'
p3305
aF8.88595
aI0
aI00
aI00
aI01
aI01
aI01
aI00
aI00
aI00
aa(lp3306
I234378
aF422.264
aF708.332
aVp2
p3307
aS'utopia'
p3308
aS'#656565'
p3309
aF8.88595
aI0
aI00
aI00
aI01
aI01
aI00
aI00
aI00
aI00
aa(lp3310
I234378
aF428.928
aF708.332
aVp2
p3311
aS'utopia'
p3312
aS'#656565'
p3313
aF8.88595
aI0
aI01
aI00
aI00
aI00
aI00
aI00
aI00
aI00
aa(lp3314
I234378
aF48.3134
aF726.845
aVp2
p3315
aS'utopia'
p3316
aS'#656565'
p3317
aF8.88595
aI0
aI01
aI01
aI00
aI00
aI00
aI00
aI00
aI00
aa(lp3318
I234378
aF317.113
aF726.845
aVp2
p3319
aS'utopia'
p3320
aS'#656565'
p3321
aF8.88595
aI0
aI00
aI00
aI01
aI01
aI01
aI00
aI00
aI00
aa(lp3322
I234378
aF424.485
aF726.845
aVp2
p3323
aS'utopia'
p3324
aS'#656565'
p3325
aF8.88595
aI0
aI00
aI00
aI01
aI01
aI00
aI00
aI00
aI00
aa(lp3326
I91136
aF431.15
aF726.845
aVp2
p3327
aS'utopia'
p3328
aS'#656565'
p3329
aF8.88595
aI0
aI01
aI00
aI00
aI00
aI00
aI00
aI00
aI00
aa(lp3330
I234378
aF48.3134
aF745.357
aVp2
p3331
aS'utopia'
p3332
aS'#656565'
p3333
aF8.88595
aI0
aI01
aI01
aI00
aI00
aI00
aI00
aI00
aI00
aa(lp3334
I234378
aF317.113
aF745.357
aVp2
p3335
aS'utopia'
p3336
aS'#656565'
p3337
aF8.88595
aI0
aI00
aI00
aI01
aI01
aI01
aI00
aI00
aI00
aa(lp3338
I234378
aF422.264
aF745.357
aVp2
p3339
aS'utopia'
p3340
aS'#656565'
p3341
aF8.88595
aI0
aI00
aI00
aI01
aI01
aI00
aI00
aI00
aI00
aa(lp3342
I234378
aF428.928
aF745.357
aVp2
p3343
aS'utopia'
p3344
aS'#656565'
p3345
aF8.88595
aI0
aI01
aI00
aI00
aI00
aI00
aI00
aI00
aI00
aa(lp3346
I195166
aF40.1679
aF41.9037
aVp3
p3347
aS'utopia'
p3348
aS'#02304b'
p3349
aF11.8479
aI1
aI01
aI00
aI00
aI00
aI00
aI00
aI00
aI00
aa(lp3350
I136346
aF96.4456
aF41.9037
aVp3
p3351
aS'utopia'
p3352
aS'#02304b'
p3353
aF11.8479
aI1
aI01
aI00
aI00
aI00
aI00
aI00
aI00
aI00
aa(lp3354
I195166
aF48.3134
aF69.7937
aVp3
p3355
aS'utopia'
p3356
aS'#000000'
p3357
aF8.88595
aI1
aI01
aI00
aI00
aI00
aI00
aI00
aI00
aI00
aa(lp3358
I164378
aF177.16
aF69.7937
aVp3
p3359
aS'utopia'
p3360
aS'#000000'
p3361
aF8.88595
aI1
aI01
aI00
aI00
aI00
aI00
aI00
aI00
aI00
aa(lp3362
I175077
aF296.379
aF69.7937
aVp3
p3363
aS'utopia'
p3364
aS'#000000'
p3365
aF8.88595
aI1
aI01
aI00
aI00
aI00
aI00
aI00
aI00
aI00
aa(lp3366
I224291
aF397.087
aF69.7937
aVp3
p3367
aS'utopia'
p3368
aS'#000000'
p3369
aF8.88595
aI1
aI01
aI00
aI00
aI00
aI00
aI00
aI00
aI00
aa(lp3370
I165206
aF497.054
aF69.7937
aVp3
p3371
aS'utopia'
p3372
aS'#000000'
p3373
aF8.88595
aI1
aI01
aI00
aI00
aI00
aI00
aI00
aI00
aI00
aa(lp3374
I58002
aF48.3134
aF88.5371
aVp3
p3375
aS'utopia'
p3376
aS'#656565'
p3377
aF8.88595
aI0
aI01
aI00
aI00
aI00
aI00
aI00
aI00
aI00
aa(lp3378
I185159
aF177.16
aF88.5371
aVp3
p3379
aS'utopia'
p3380
aS'#656565'
p3381
aF8.88595
aI0
aI01
aI00
aI00
aI00
aI00
aI00
aI00
aI00
aa(lp3382
I106589
aF48.3134
aF107.05
aVp3
p3383
aS'utopia'
p3384
aS'#656565'
p3385
aF8.88595
aI0
aI01
aI00
aI00
aI00
aI00
aI00
aI00
aI00
aa(lp3386
I185159
aF177.16
aF107.05
aVp3
p3387
aS'utopia'
p3388
aS'#656565'
p3389
aF8.88595
aI0
aI01
aI00
aI00
aI00
aI00
aI00
aI00
aI00
aa(lp3390
I234378
aF40.1679
aF138.909
aVp3
p3391
aS'utopia'
p3392
aS'#02304b'
p3393
aF11.8479
aI1
aI01
aI00
aI00
aI00
aI00
aI00
aI00
aI00
aa(lp3394
I201816
aF40.9084
aF170.732
aVp3
p3395
aS'utopia'
p3396
aS'#000000'
p3397
aF8.88595
aI0
aI01
aI00
aI00
aI00
aI00
aI00
aI00
aI00
aa(lp3398
I234378
aF54.9779
aF170.732
aVp3
p3399
aS'utopia'
p3400
aS'#000000'
p3401
aF8.88595
aI0
aI01
aI00
aI00
aI00
aI00
aI00
aI00
aI00
aa(lp3402
I86196
aF89.0407
aF170.732
aVp3
p3403
aS'utopia'
p3404
aS'#000000'
p3405
aF8.88595
aI0
aI01
aI00
aI00
aI00
aI00
aI00
aI00
aI00
aa(lp3406
I177271
aF40.1679
aF209.996
aVp3
p3407
aS'utopia'
p3408
aS'#02304b'
p3409
aF11.8479
aI1
aI01
aI00
aI00
aI00
aI00
aI00
aI00
aI00
aa(lp3410
I234378
aF74.2307
aF209.996
aVp3
p3411
aS'utopia'
p3412
aS'#02304b'
p3413
aF11.8479
aI1
aI01
aI00
aI00
aI00
aI00
aI00
aI00
aI00
aa(lp3414
I7520
aF49.0539
aF240.973
aVp3
p3415
aS'utopia'
p3416
aS'#656565'
p3417
aF10.3669
aI1
aI01
aI00
aI00
aI00
aI00
aI00
aI00
aI00
aa(lp3418
I10865
aF93.4836
aF240.973
aVp3
p3419
aS'utopia'
p3420
aS'#656565'
p3421
aF10.3669
aI1
aI01
aI00
aI00
aI00
aI00
aI00
aI00
aI00
aa(lp3422
I86794
aF380.056
aF238.011
aVp3
p3423
aS'utopia'
p3424
aS'#656565'
p3425
aF10.3669
aI1
aI01
aI00
aI00
aI00
aI00
aI00
aI00
aI00
aa(lp3426
I131455
aF418.561
aF238.011
aVp3
p3427
aS'utopia'
p3428
aS'#656565'
p3429
aF10.3669
aI1
aI01
aI00
aI00
aI00
aI00
aI00
aI00
aI00
aa(lp3430
I234378
aF436.333
aF238.011
aVp3
p3431
aS'utopia'
p3432
aS'#656565'
p3433
aF10.3669
aI1
aI01
aI00
aI00
aI00
aI00
aI00
aI00
aI00
aa(lp3434
I132955
aF49.0539
aF256.63
aVp3
p3435
aS'utopia'
p3436
aS'#656565'
p3437
aF8.88595
aI0
aI01
aI00
aI00
aI00
aI00
aI00
aI00
aI00
aa(lp3438
I144489
aF69.7878
aF256.63
aVp3
p3439
aS'utopia'
p3440
aS'#656565'
p3441
aF8.88595
aI0
aI00
aI00
aI00
aI00
aI00
aI00
aI00
aI00
aa(lp3442
I132529
aF80.1547
aF256.63
aVp3
p3443
aS'utopia'
p3444
aS'#656565'
p3445
aF8.88595
aI0
aI01
aI00
aI00
aI00
aI00
aI00
aI00
aI00
aa(lp3446
I234378
aF98.76336666666667
aF256.63
ag3443
aS'utopia'
p3447
aS'#656565'
p3448
aF8.88595
aI0
aI00
aI00
aI00
aI00
aI00
aI00
aI00
aI00
aa(lp3449
I234378
aF104.591
aF256.63
aVp3
p3450
aS'utopia'
p3451
aS'#434343'
p3452
aF8.88595
aI0
aI00
aI00
aI01
aI01
aI01
aI00
aI00
aI00
aa(lp3453
I234378
aF115.699
aF256.63
aVp3
p3454
aS'utopia'
p3455
aS'#434343'
p3456
aF8.88595
aI0
aI01
aI00
aI00
aI00
aI00
aI00
aI00
aI01
aa(lp3457
I234378
aF133.47
aF256.63
aVp3
p3458
aS'utopia'
p3459
aS'#434343'
p3460
aF8.88595
aI0
aI00
aI00
aI01
aI01
aI01
aI00
aI00
aI00
aa(lp3461
I131455
aF380.056
aF253.668
aVp3
p3462
aS'utopia'
p3463
aS'#656565'
p3464
aF8.88595
aI0
aI01
aI00
aI00
aI00
aI00
aI00
aI00
aI00
aa(lp3465
I197416
aF395.606
aF253.668
aVp3
p3466
aS'utopia'
p3467
aS'#656565'
p3468
aF8.88595
aI0
aI01
aI00
aI00
aI00
aI00
aI00
aI00
aI00
aa(lp3469
I234378
aF412.87792
aF253.668
ag3466
aS'utopia'
p3470
aS'#656565'
p3471
aF8.88595
aI0
aI00
aI00
aI00
aI00
aI00
aI00
aI00
aI00
aa(lp3472
I28425
aF419.302
aF253.668
aVp3
p3473
aS'utopia'
p3474
aS'#434343'
p3475
aF8.88595
aI0
aI01
aI00
aI00
aI00
aI00
aI00
aI00
aI00
aa(lp3476
I108944
aF49.0539
aF272.18
aVp3
p3477
aS'utopia'
p3478
aS'#656565'
p3479
aF8.88595
aI0
aI01
aI00
aI00
aI00
aI00
aI00
aI00
aI00
aa(lp3480
I234378
aF76.44544285714287
aF272.18
ag3477
aS'utopia'
p3481
aS'#656565'
p3482
aF8.88595
aI0
aI00
aI00
aI00
aI00
aI00
aI00
aI00
aI00
aa(lp3483
I104428
aF83.1167
aF272.18
aVp3
p3484
aS'utopia'
p3485
aS'#434343'
p3486
aF8.88595
aI0
aI01
aI00
aI00
aI00
aI00
aI00
aI00
aI00
aa(lp3487
I234378
aF380.056
aF267.737
aVp3
p3488
aS'utopia'
p3489
aS'#434343'
p3490
aF8.88595
aI0
aI00
aI00
aI00
aI00
aI00
aI00
aI00
aI00
aa(lp3491
I137944
aF384.6108636363636
aF267.737
ag3488
aS'utopia'
p3492
aS'#434343'
p3493
aF8.88595
aI0
aI01
aI00
aI00
aI00
aI00
aI00
aI00
aI00
aa(lp3494
I234378
aF415.6046363636363
aF267.737
ag3488
aS'utopia'
p3495
aS'#434343'
p3496
aF8.88595
aI0
aI00
aI00
aI00
aI00
aI00
aI00
aI00
aI00
aa(lp3497
I42298
aF430.1594999999999
aF267.737
ag3488
aS'utopia'
p3498
aS'#434343'
p3499
aF8.88595
aI0
aI01
aI00
aI00
aI00
aI00
aI00
aI00
aI00
aa(lp3500
I212271
aF49.0539
aF287.731
aVp3
p3501
aS'utopia'
p3502
aS'#656565'
p3503
aF8.88595
aI0
aI01
aI00
aI00
aI00
aI00
aI00
aI00
aI00
aa(lp3504
I12510
aF79.4142
aF287.731
aVp3
p3505
aS'utopia'
p3506
aS'#656565'
p3507
aF8.88595
aI0
aI01
aI00
aI00
aI00
aI00
aI00
aI00
aI00
aa(lp3508
I234378
aF101.72811428571428
aF287.731
ag3505
aS'utopia'
p3509
aS'#656565'
p3510
aF8.88595
aI0
aI00
aI00
aI00
aI00
aI00
aI00
aI00
aI00
aa(lp3511
I97834
aF107.553
aF287.731
aVp3
p3512
aS'utopia'
p3513
aS'#434343'
p3514
aF8.88595
aI0
aI01
aI00
aI00
aI00
aI00
aI00
aI00
aI00
aa(lp3515
I72722
aF380.056
aF281.807
aVp3
p3516
aS'utopia'
p3517
aS'#656565'
p3518
aF8.88595
aI0
aI01
aI00
aI00
aI00
aI00
aI00
aI00
aI00
aa(lp3519
I12510
aF433.371
aF281.807
aVp3
p3520
aS'utopia'
p3521
aS'#656565'
p3522
aF8.88595
aI0
aI01
aI00
aI00
aI00
aI00
aI00
aI00
aI00
aa(lp3523
I234378
aF455.6849142857143
aF281.807
ag3520
aS'utopia'
p3524
aS'#656565'
p3525
aF8.88595
aI0
aI00
aI00
aI00
aI00
aI00
aI00
aI00
aI00
aa(lp3526
I60201
aF461.51
aF281.807
aVp3
p3527
aS'utopia'
p3528
aS'#434343'
p3529
aF8.88595
aI0
aI01
aI00
aI00
aI00
aI00
aI00
aI00
aI00
aa(lp3530
I230071
aF478.541
aF281.807
aVp3
p3531
aS'utopia'
p3532
aS'#434343'
p3533
aF8.88595
aI0
aI01
aI00
aI00
aI00
aI00
aI00
aI00
aI00
aa(lp3534
I118366
aF49.0539
aF307.617
aVp3
p3535
aS'utopia'
p3536
aS'#656565'
p3537
aF10.3669
aI1
aI01
aI00
aI00
aI00
aI00
aI00
aI00
aI00
aa(lp3538
I234378
aF83.97235
aF307.617
ag3535
aS'utopia'
p3539
aS'#656565'
p3540
aF10.3669
aI1
aI00
aI00
aI00
aI00
aI00
aI00
aI00
aI00
aa(lp3541
I51933
aF380.056
aF301.693
aVp3
p3542
aS'utopia'
p3543
aS'#656565'
p3544
aF10.3669
aI1
aI01
aI00
aI00
aI00
aI00
aI00
aI00
aI00
aa(lp3545
I62768
aF408.194
aF301.693
aVp3
p3546
aS'utopia'
p3547
aS'#656565'
p3548
aF10.3669
aI1
aI01
aI00
aI00
aI00
aI00
aI00
aI00
aI00
aa(lp3549
I234378
aF49.0539
aF320.312
aVp3
p3550
aS'utopia'
p3551
aS'#000000'
p3552
aF8.88595
aI0
aI01
aI01
aI00
aI00
aI00
aI00
aI00
aI00
aa(lp3553
I234378
aF57.598475
aF320.312
ag3550
aS'utopia'
p3554
aS'#000000'
p3555
aF8.88595
aI0
aI00
aI00
aI00
aI00
aI00
aI00
aI00
aI00
aa(lp3556
I234378
aF61.8707625
aF320.312
ag3550
aS'utopia'
p3557
aS'#000000'
p3558
aF8.88595
aI0
aI00
aI00
aI01
aI01
aI01
aI00
aI00
aI00
aa(lp3559
I234378
aF73.9599125
aF320.312
ag3550
aS'utopia'
p3560
aS'#000000'
p3561
aF8.88595
aI0
aI00
aI00
aI00
aI00
aI00
aI00
aI00
aI00
aa(lp3562
I234378
aF85.3382
aF320.312
aVp3
p3563
aS'utopia'
p3564
aS'#000000'
p3565
aF8.88595
aI0
aI00
aI00
aI01
aI01
aI01
aI00
aI00
aI00
aa(lp3566
I89483
aF96.4456
aF320.312
aVp3
p3567
aS'utopia'
p3568
aS'#000000'
p3569
aF8.88595
aI0
aI01
aI00
aI00
aI00
aI00
aI00
aI00
aI00
aa(lp3570
I169406
aF109.034
aF320.312
aVp3
p3571
aS'utopia'
p3572
aS'#000000'
p3573
aF8.88595
aI0
aI01
aI00
aI00
aI00
aI00
aI00
aI00
aI00
aa(lp3574
I234378
aF126.89832000000001
aF320.312
ag3571
aS'utopia'
p3575
aS'#000000'
p3576
aF8.88595
aI0
aI00
aI00
aI00
aI00
aI00
aI00
aI00
aI00
aa(lp3577
I234378
aF133.47
aF320.312
aVp3
p3578
aS'utopia'
p3579
aS'#000000'
p3580
aF8.88595
aI0
aI00
aI00
aI01
aI01
aI00
aI00
aI00
aI00
aa(lp3581
I89483
aF140.135
aF320.312
aVp3
p3582
aS'utopia'
p3583
aS'#000000'
p3584
aF8.88595
aI0
aI01
aI00
aI00
aI00
aI00
aI00
aI00
aI00
aa(lp3585
I87333
aF152.723
aF320.312
aVp3
p3586
aS'utopia'
p3587
aS'#000000'
p3588
aF8.88595
aI0
aI01
aI00
aI00
aI00
aI00
aI00
aI00
aI00
aa(lp3589
I234378
aF173.18291666666667
aF320.312
ag3586
aS'utopia'
p3590
aS'#000000'
p3591
aF8.88595
aI0
aI00
aI00
aI00
aI00
aI00
aI00
aI00
aI00
aa(lp3592
I234378
aF179.381
aF320.312
aVp3
p3593
aS'utopia'
p3594
aS'#000000'
p3595
aF8.88595
aI0
aI01
aI00
aI00
aI00
aI00
aI00
aI00
aI00
aa(lp3596
I234378
aF216.406
aF320.312
aVp3
p3597
aS'utopia'
p3598
aS'#000000'
p3599
aF8.88595
aI0
aI01
aI00
aI00
aI00
aI00
aI00
aI00
aI00
aa(lp3600
I234378
aF238.10008333333334
aF320.312
ag3597
aS'utopia'
p3601
aS'#000000'
p3602
aF8.88595
aI0
aI00
aI00
aI00
aI00
aI00
aI00
aI00
aI00
aa(lp3603
I234378
aF244.545
aF320.312
aVp3
p3604
aS'utopia'
p3605
aS'#000000'
p3606
aF8.88595
aI0
aI01
aI00
aI00
aI00
aI00
aI00
aI00
aI00
aa(lp3607
I234378
aF300.082
aF320.312
aVp3
p3608
aS'utopia'
p3609
aS'#000000'
p3610
aF8.88595
aI0
aI00
aI00
aI01
aI00
aI00
aI00
aI00
aI00
aa(lp3611
I226126
aF313.411
aF320.312
aVp3
p3612
aS'utopia'
p3613
aS'#000000'
p3614
aF8.88595
aI0
aI01
aI00
aI00
aI00
aI00
aI00
aI00
aI00
aa(lp3615
I234378
aF49.0539
aF330.679
aVp3
p3616
aS'utopia'
p3617
aS'#000000'
p3618
aF8.88595
aI0
aI00
aI00
aI01
aI01
aI01
aI00
aI00
aI00
aa(lp3619
I31679
aF380.056
aF317.35
aVp3
p3620
aS'utopia'
p3621
aS'#656565'
p3622
aF8.88595
aI0
aI01
aI01
aI00
aI00
aI00
aI00
aI00
aI00
aa(lp3623
I51933
aF393.384
aF317.35
aVp3
p3624
aS'utopia'
p3625
aS'#656565'
p3626
aF8.88595
aI0
aI01
aI00
aI00
aI00
aI00
aI00
aI00
aI00
aa(lp3627
I12510
aF417.08
aF317.35
aVp3
p3628
aS'utopia'
p3629
aS'#656565'
p3630
aF8.88595
aI0
aI01
aI00
aI00
aI00
aI00
aI00
aI00
aI00
aa(lp3631
I234378
aF439.3939142857143
aF317.35
ag3628
aS'utopia'
p3632
aS'#656565'
p3633
aF8.88595
aI0
aI00
aI00
aI00
aI00
aI00
aI00
aI00
aI00
aa(lp3634
I109318
aF445.219
aF317.35
aVp3
p3635
aS'utopia'
p3636
aS'#434343'
p3637
aF8.88595
aI0
aI01
aI00
aI00
aI00
aI00
aI00
aI00
aI00
aa(lp3638
I234378
aF468.175
aF317.35
aVp3
p3639
aS'utopia'
p3640
aS'#434343'
p3641
aF8.88595
aI0
aI01
aI01
aI01
aI00
aI00
aI00
aI00
aI00
aa(lp3642
I222659
aF482.244
aF317.35
aVp3
p3643
aS'utopia'
p3644
aS'#434343'
p3645
aF8.88595
aI0
aI01
aI00
aI00
aI00
aI00
aI00
aI00
aI00
aa(lp3646
I234378
aF380.056
aF332.901
aVp3
p3647
aS'utopia'
p3648
aS'#656565'
p3649
aF8.88595
aI0
aI01
aI00
aI00
aI00
aI00
aI00
aI00
aI00
aa(lp3650
I234378
aF416.81451999999996
aF332.901
ag3647
aS'utopia'
p3651
aS'#656565'
p3652
aF8.88595
aI0
aI00
aI00
aI00
aI00
aI00
aI00
aI00
aI00
aa(lp3653
I164802
aF423.004
aF332.901
aVp3
p3654
aS'utopia'
p3655
aS'#434343'
p3656
aF8.88595
aI0
aI01
aI00
aI00
aI00
aI00
aI00
aI00
aI00
aa(lp3657
I182663
aF49.0539
aF344.008
aVp3
p3658
aS'utopia'
p3659
aS'#656565'
p3660
aF8.88595
aI0
aI01
aI00
aI00
aI00
aI00
aI00
aI00
aI00
aa(lp3661
I82279
aF76.4522
aF344.008
aVp3
p3662
aS'utopia'
p3663
aS'#656565'
p3664
aF8.88595
aI0
aI01
aI00
aI00
aI00
aI00
aI00
aI00
aI00
aa(lp3665
I234378
aF96.09372
aF344.008
ag3662
aS'utopia'
p3666
aS'#656565'
p3667
aF8.88595
aI0
aI00
aI00
aI00
aI00
aI00
aI00
aI00
aI00
aa(lp3668
I234378
aF103.11
aF344.008
aVp3
p3669
aS'utopia'
p3670
aS'#000000'
p3671
aF8.88595
aI0
aI01
aI00
aI00
aI00
aI00
aI00
aI00
aI00
aa(lp3672
I166771
aF380.056
aF352.788
aVp3
p3673
aS'utopia'
p3674
aS'#656565'
p3675
aF10.3669
aI1
aI01
aI00
aI00
aI00
aI00
aI00
aI00
aI00
aa(lp3676
I74833
aF436.333
aF352.788
aVp3
p3677
aS'utopia'
p3678
aS'#656565'
p3679
aF10.3669
aI1
aI01
aI00
aI00
aI00
aI00
aI00
aI00
aI00
aa(lp3680
I233758
aF380.056
aF368.445
aVp3
p3681
aS'utopia'
p3682
aS'#656565'
p3683
aF8.88595
aI0
aI01
aI00
aI00
aI00
aI00
aI00
aI00
aI00
aa(lp3684
I234378
aF413.7278222222222
aF368.445
ag3681
aS'utopia'
p3685
aS'#656565'
p3686
aF8.88595
aI0
aI00
aI00
aI00
aI00
aI00
aI00
aI00
aI00
aa(lp3687
I230332
aF420.042
aF368.445
aVp3
p3688
aS'utopia'
p3689
aS'#434343'
p3690
aF8.88595
aI0
aI01
aI00
aI00
aI00
aI00
aI00
aI00
aI00
aa(lp3691
I151511
aF380.056
aF383.995
aVp3
p3692
aS'utopia'
p3693
aS'#656565'
p3694
aF8.88595
aI0
aI01
aI00
aI00
aI00
aI00
aI00
aI00
aI00
aa(lp3695
I234378
aF420.783
aF383.995
aVp3
p3696
aS'utopia'
p3697
aS'#656565'
p3698
aF8.88595
aI0
aI01
aI00
aI00
aI00
aI00
aI00
aI00
aI00
aa(lp3699
I234378
aF462.62509090909094
aF383.995
ag3696
aS'utopia'
p3700
aS'#656565'
p3701
aF8.88595
aI0
aI00
aI00
aI00
aI00
aI00
aI00
aI00
aI00
aa(lp3702
I201816
aF468.915
aF383.995
aVp3
p3703
aS'utopia'
p3704
aS'#434343'
p3705
aF8.88595
aI0
aI01
aI00
aI00
aI00
aI00
aI00
aI00
aI00
aa(lp3706
I1
aI0
aI0
aI0
aI0
aI0
aI0
aI0
aI0
aI0
aI0
aI0
aI0
aI0
aI0
aI0
aI0
aI0
aI0
aI0
aI0
aI0
aI0
aI0
aI0
aI0
aI0
aI0
aI0
aI0
aI0
aI0
aI0
aI0
aI0
aI0
aI0
aI0
aI0
aI0
aI0
aI0
aI0
aI0
aI0
aI0
aI0
aI0
aI0
aI0
aI0
aI0
aI0
aI0
aI0
aI0
aI0
aI0
aI0
aI0
aI0
aI0
aI0
aI0
aI0
aI0
aI0
aI0
aI0
aI0
aI0
aI0
aI0
aI0
aI0
aI0
aI0
aI0
aI0
aI0
aI0
aI0
aI0
aI0
aI0
aI0
aI0
aI0
aI0
aI0
aI0
aI0
aI0
aI0
aI0
aI0
aI0
aI0
aI0
aI0
aI0
aI0
aI0
aI0
aI0
aI0
aI0
aI0
aI0
aI0
aI0
aI0
aI0
aI0
aI0
aI0
aI0
aI0
aI0
aI0
aI0
aI0
aI0
aI0
aI0
aI0
aI0
aI0
aI0
aI0
aI0
aI0
aI0
aI0
aI0
aI0
aI0
aI0
aI0
aI0
aI0
aI0
aI0
aI0
aI0
aI0
aI0
aI0
aI0
aI0
aI0
aI0
aI0
aI0
aI0
aI1
aI1
aI0
aI0
aI0
aI0
aI0
aI0
aI0
aI0
aI0
aI0
aI0
aI0
aI0
aI0
aI0
aI0
aI0
aI0
aI0
aI0
aI0
aI0
aI0
aI0
aI0
aI0
aI0
aI0
aI0
aI0
aI0
aI0
aI0
aI0
aI0
aI0
aI0
aI0
aI0
aI0
aI0
aI0
aI0
aI0
aI0
aI0
aI0
aI0
aI0
aI0
aI0
aI0
aI0
aI0
aI0
aI0
aI0
aI0
aI0
aI0
aI0
aI0
aI0
aI0
aI0
aI0
aI0
aI0
aI0
aI0
aI0
aI0
aI0
aI0
aI0
aI0
aI0
aI0
aI0
aI0
aI0
aI0
aI0
aI0
aI0
aI0
aI0
aI0
aI0
aI0
aI0
aI0
aI0
aI0
aI0
aI0
aI0
aI0
aI0
aI0
aI0
aI0
aI0
aI0
aI0
aI0
aI0
aI0
aI0
aI0
aI0
aI0
aI0
aI0
aI0
aI0
aI0
aI0
aI0
aI0
aI0
aI0
aI0
aI0
aI0
aI0
aI0
aI0
aI0
aI0
aI0
aI0
aI0
aI0
aI0
aI0
aI0
aI0
aI0
aI0
aI0
aI0
aI0
aI0
aI0
aI0
aI0
aI0
aI0
aI0
aI0
aI0
aI0
aI0
aI0
aI0
aI0
aI0
aI0
aI0
aI0
aI0
aI0
aI0
aI0
aI0
aI0
aI0
aI0
aI0
aI0
aI0
aI0
aI0
aI0
aI0
aI0
aI0
aI0
aI0
aI0
aI0
aI0
aI0
aI0
aI0
aI0
aI0
aI0
aI0
aI0
aI0
aI0
aI0
aI0
aI0
aI0
aI0
aI0
aI0
aI0
aI0
aI0
aI0
aI0
aI0
aI0
aI0
aI0
aI0
aI0
aI0
aI0
aI0
aI0
aI0
aI0
aI0
aI0
aI0
aI0
aI0
aI0
aI0
aI0
aI0
aI0
aI0
aI0
aI0
aI0
aI0
aI0
aI0
aI0
aI0
aI0
aI0
aI0
aI0
aI0
aI0
aI0
aI0
aI0
aI0
aI0
aI0
aI0
aI0
aI0
aI0
aI0
aI0
aI0
aI0
aI0
aI0
aI0
aI0
aI0
aI0
aI0
aI0
aI0
aI0
aI0
aI0
aI0
aI0
aI0
aI0
aI0
aI0
aI0
aI0
aI0
aI0
aI0
aI0
aI0
aI0
aI0
aI0
aI0
aI0
aI0
aI0
aI0
aI0
aI0
aI0
aI0
aI0
aI0
aI0
aI0
aI0
aI0
aI0
aI0
aI0
aI0
aI0
aI0
aI0
aI0
aI0
aI0
aI0
aI0
aI0
aI0
aI0
aI0
aI0
aI0
aI0
aI0
aI0
aI0
aI0
aI0
aI0
aI0
aI0
aI0
aI0
aI0
aI0
aI0
aI0
aI0
aI0
aI0
aI0
aI0
aI0
aI0
aI0
aI0
aI0
aI0
aI0
aI0
aI0
aI0
aI0
aI0
aI0
aI0
aI0
aI0
aI0
aI0
aI0
aI0
aI0
aI0
aI0
aI0
aI0
aI0
aI0
aI0
aI0
aI0
aI0
aI0
aI0
aI0
aI0
aI0
aI0
aI0
aI0
aI0
aI0
aI0
aI0
aI0
aI0
aI0
aI0
aI0
aI0
aI0
aI0
aI0
aI0
aI0
aI0
aI0
aI0
aI0
aI0
aI0
aI0
aI0
aI0
aI0
aI0
aI0
aI0
aI0
aI0
aI0
aI0
aI0
aI0
aI0
aI0
aI0
aI0
aI0
aI0
aI0
aI0
aI0
aI0
aI0
aI0
aI0
aI0
aI0
aI0
aI0
aI0
aI0
aI0
aI0
aI0
aI0
aI0
aI0
aI0
aI0
aI0
aI0
aI0
aI0
aI0
aI0
aI0
aI0
aI0
aI0
aI0
aI0
aI0
aI0
aI0
aI0
aI0
aI0
aI0
aI0
aI0
aI0
aI0
aI0
aI0
aI0
aI0
aI0
aI0
aI0
aI0
aI0
aI0
aI0
aI0
aI0
aI0
aI0
aI0
aI0
aI0
aI0
aI0
aI0
aI0
aI0
aI0
aI0
aI0
aI0
aI0
aI0
aI0
aI0
aI0
aI0
aI0
aI0
aI0
aI0
aI0
aI0
aI0
aI0
aI0
aI0
aI0
aI0
aI0
aI0
aI0
aI0
aI0
aI0
aI0
aI0
aI0
aI0
aI0
aI0
aI0
aI0
aI0
aI0
aI0
aI0
aI0
aI0
aI0
aI0
aI0
aI0
aI0
aI0
aI1
aI0
aI0
aI0
aI0
aI0
aI0
aI0
aI0
aI0
aI0
aI0
aI0
aI0
aI0
aI0
aI0
aI0
aI0
aI0
aI0
aI0
aI0
aI0
aI0
aI0
aI1
aI1
aI0
aI0
aI0
aI0
aI0
aI0
aI0
aI0
aI0
aI0
aI0
aI0
aI0
aI0
aI0
aI0
aI0
aI0
aI0
aI0
aI0
aI0
aI0
aI0
aI0
aI0
aI0
aI0
aI0
aI0
aI0
aI0
aI0
aI0
aI0
aI0
aI0
aI0
aI0
aI0
aI0
aI0
aI0
aI0
aI0
aI0
aI0
aI0
aI0
aI0
aI0
aI0
aI0
aI0
aI0
aI0
aI0
aI0
aI0
aI0
aI0
aI0
aI0
aI0
aI0
aI0
aI0
aI0
aI0
aI0
aI0
aI0
aI0
aI0
aI0
aI0
aI0
aI0
aI0
aI0
aI0
aI0
aI0
aI0
aI0
aI0
aI0
aI0
aI0
aI0
aI0
aI0
aI0
aI0
aI0
aI0
aI0
aI0
aI0
aI0
aI0
aI0
aI0
aI0
aI0
aI0
aI0
aI0
aI0
aI0
aI0
aI0
aI0
aI0
aI0
aI0
aI0
aI0
aI0
aI0
aI0
aI0
aI0
aI0
aI0
aI0
aI0
aI0
aI0
aI0
aI0
aI0
aI0
aI0
aI0
aI0
aI0
aI0
aI0
aI0
aI0
aI0
aI0
aI0
aI0
aI0
aI0
aI0
aI0
aI0
aI0
aI0
aI0
aI0
aI0
aI0
aI0
aI0
aI0
aI0
aI0
aI0
aI0
aI0
aI0
aI0
aI0
aI0
aI0
aI0
aI0
aI0
aI0
aI0
aI0
aI1
aI1
aI0
aI0
aI0
aI0
aI0
aI0
aI0
aI0
aI0
aI1
aI0
aI0
aI0
aI1
aI1
aI0
aI0
aI0
aI0
aI0
aI0
aI0
aI0
aI0
aI0
aI0
aI0
aI0
aI0
aI0
aI0
aI0
aI0
aI0
aI0
aI0
aI0
aI0
aI0
aI0
aI0
aI0
aI0
aI0
aI0
aI0
aI0
aI0
aI0
aI0
aI0
aI0
aI0
aI0
aI0
aI0
aI0
aI0
aI0
aI0
aI0
aI0
aI0
aI0
aI0
aI0
aI0
aI0
aI0
aI0
aI0
aI0
aI0
aI0
aI0
aI0
aI0
aI0
aI0
aI0
aI0
aI0
aI0
aI0
aI0
aI0
aI0
aI0
aI0
aI0
aI0
aI0
aI0
atp3707
.